	.file	"LinkContext.cpp"
	.text
	.section	.text._ZN8opendnp313ILinkListener13OnStateChangeENS_10LinkStatusE,"axG",@progbits,_ZN8opendnp313ILinkListener13OnStateChangeENS_10LinkStatusE,comdat
	.align 2
	.p2align 4
	.weak	_ZN8opendnp313ILinkListener13OnStateChangeENS_10LinkStatusE
	.type	_ZN8opendnp313ILinkListener13OnStateChangeENS_10LinkStatusE, @function
_ZN8opendnp313ILinkListener13OnStateChangeENS_10LinkStatusE:
.LFB2290:
	.cfi_startproc
	endbr64
	ret
	.cfi_endproc
.LFE2290:
	.size	_ZN8opendnp313ILinkListener13OnStateChangeENS_10LinkStatusE, .-_ZN8opendnp313ILinkListener13OnStateChangeENS_10LinkStatusE
	.section	.text._ZN8opendnp313ILinkListener18OnKeepAliveFailureEv,"axG",@progbits,_ZN8opendnp313ILinkListener18OnKeepAliveFailureEv,comdat
	.align 2
	.p2align 4
	.weak	_ZN8opendnp313ILinkListener18OnKeepAliveFailureEv
	.type	_ZN8opendnp313ILinkListener18OnKeepAliveFailureEv, @function
_ZN8opendnp313ILinkListener18OnKeepAliveFailureEv:
.LFB2292:
	.cfi_startproc
	endbr64
	ret
	.cfi_endproc
.LFE2292:
	.size	_ZN8opendnp313ILinkListener18OnKeepAliveFailureEv, .-_ZN8opendnp313ILinkListener18OnKeepAliveFailureEv
	.section	.text._ZN8opendnp313ILinkListener18OnKeepAliveSuccessEv,"axG",@progbits,_ZN8opendnp313ILinkListener18OnKeepAliveSuccessEv,comdat
	.align 2
	.p2align 4
	.weak	_ZN8opendnp313ILinkListener18OnKeepAliveSuccessEv
	.type	_ZN8opendnp313ILinkListener18OnKeepAliveSuccessEv, @function
_ZN8opendnp313ILinkListener18OnKeepAliveSuccessEv:
.LFB2293:
	.cfi_startproc
	endbr64
	ret
	.cfi_endproc
.LFE2293:
	.size	_ZN8opendnp313ILinkListener18OnKeepAliveSuccessEv, .-_ZN8opendnp313ILinkListener18OnKeepAliveSuccessEv
	.section	.text._ZN7openpal12StaticBufferILj292EED2Ev,"axG",@progbits,_ZN7openpal12StaticBufferILj292EED5Ev,comdat
	.align 2
	.p2align 4
	.weak	_ZN7openpal12StaticBufferILj292EED2Ev
	.type	_ZN7openpal12StaticBufferILj292EED2Ev, @function
_ZN7openpal12StaticBufferILj292EED2Ev:
.LFB2750:
	.cfi_startproc
	endbr64
	ret
	.cfi_endproc
.LFE2750:
	.size	_ZN7openpal12StaticBufferILj292EED2Ev, .-_ZN7openpal12StaticBufferILj292EED2Ev
	.weak	_ZN7openpal12StaticBufferILj292EED1Ev
	.set	_ZN7openpal12StaticBufferILj292EED1Ev,_ZN7openpal12StaticBufferILj292EED2Ev
	.section	.text._ZN7openpal12StaticBufferILj10EED2Ev,"axG",@progbits,_ZN7openpal12StaticBufferILj10EED5Ev,comdat
	.align 2
	.p2align 4
	.weak	_ZN7openpal12StaticBufferILj10EED2Ev
	.type	_ZN7openpal12StaticBufferILj10EED2Ev, @function
_ZN7openpal12StaticBufferILj10EED2Ev:
.LFB2757:
	.cfi_startproc
	endbr64
	ret
	.cfi_endproc
.LFE2757:
	.size	_ZN7openpal12StaticBufferILj10EED2Ev, .-_ZN7openpal12StaticBufferILj10EED2Ev
	.weak	_ZN7openpal12StaticBufferILj10EED1Ev
	.set	_ZN7openpal12StaticBufferILj10EED1Ev,_ZN7openpal12StaticBufferILj10EED2Ev
	.text
	.p2align 4
	.type	_ZNSt17_Function_handlerIFvvEZN8opendnp311LinkContext21CompleteSendOperationEbEUlvE_E9_M_invokeERKSt9_Any_data, @function
_ZNSt17_Function_handlerIFvvEZN8opendnp311LinkContext21CompleteSendOperationEbEUlvE_E9_M_invokeERKSt9_Any_data:
.LFB2927:
	.cfi_startproc
	endbr64
	movq	(%rdi), %rax
	movq	(%rax), %rdi
	movzbl	16(%rax), %esi
	movq	(%rdi), %rax
	jmp	*40(%rax)
	.cfi_endproc
.LFE2927:
	.size	_ZNSt17_Function_handlerIFvvEZN8opendnp311LinkContext21CompleteSendOperationEbEUlvE_E9_M_invokeERKSt9_Any_data, .-_ZNSt17_Function_handlerIFvvEZN8opendnp311LinkContext21CompleteSendOperationEbEUlvE_E9_M_invokeERKSt9_Any_data
	.section	.text._ZN7openpal12StaticBufferILj292EED0Ev,"axG",@progbits,_ZN7openpal12StaticBufferILj292EED5Ev,comdat
	.align 2
	.p2align 4
	.weak	_ZN7openpal12StaticBufferILj292EED0Ev
	.type	_ZN7openpal12StaticBufferILj292EED0Ev, @function
_ZN7openpal12StaticBufferILj292EED0Ev:
.LFB2752:
	.cfi_startproc
	endbr64
	movl	$304, %esi
	jmp	_ZdlPvm@PLT
	.cfi_endproc
.LFE2752:
	.size	_ZN7openpal12StaticBufferILj292EED0Ev, .-_ZN7openpal12StaticBufferILj292EED0Ev
	.section	.text._ZN7openpal12StaticBufferILj10EED0Ev,"axG",@progbits,_ZN7openpal12StaticBufferILj10EED5Ev,comdat
	.align 2
	.p2align 4
	.weak	_ZN7openpal12StaticBufferILj10EED0Ev
	.type	_ZN7openpal12StaticBufferILj10EED0Ev, @function
_ZN7openpal12StaticBufferILj10EED0Ev:
.LFB2759:
	.cfi_startproc
	endbr64
	movl	$24, %esi
	jmp	_ZdlPvm@PLT
	.cfi_endproc
.LFE2759:
	.size	_ZN7openpal12StaticBufferILj10EED0Ev, .-_ZN7openpal12StaticBufferILj10EED0Ev
	.text
	.p2align 4
	.type	_ZNSt17_Function_handlerIFvvEZN7openpal8TimerRef5StartIZN8opendnp311LinkContext18StartResponseTimerEvEUlvE_EEbRKNS1_12TimeDurationERKT_EUlvE_E10_M_managerERSt9_Any_dataRKSF_St18_Manager_operation, @function
_ZNSt17_Function_handlerIFvvEZN7openpal8TimerRef5StartIZN8opendnp311LinkContext18StartResponseTimerEvEUlvE_EEbRKNS1_12TimeDurationERKT_EUlvE_E10_M_managerERSt9_Any_dataRKSF_St18_Manager_operation:
.LFB3010:
	.cfi_startproc
	endbr64
	testl	%edx, %edx
	je	.L11
	cmpl	$1, %edx
	je	.L12
	cmpl	$2, %edx
	je	.L16
.L14:
	xorl	%eax, %eax
	ret
	.p2align 4,,10
	.p2align 3
.L11:
	leaq	_ZTIZN7openpal8TimerRef5StartIZN8opendnp311LinkContext18StartResponseTimerEvEUlvE_EEbRKNS_12TimeDurationERKT_EUlvE_(%rip), %rax
	movq	%rax, (%rdi)
	xorl	%eax, %eax
	ret
	.p2align 4,,10
	.p2align 3
.L12:
	movq	%rsi, (%rdi)
	xorl	%eax, %eax
	ret
	.p2align 4,,10
	.p2align 3
.L16:
	movdqu	(%rsi), %xmm0
	movups	%xmm0, (%rdi)
	jmp	.L14
	.cfi_endproc
.LFE3010:
	.size	_ZNSt17_Function_handlerIFvvEZN7openpal8TimerRef5StartIZN8opendnp311LinkContext18StartResponseTimerEvEUlvE_EEbRKNS1_12TimeDurationERKT_EUlvE_E10_M_managerERSt9_Any_dataRKSF_St18_Manager_operation, .-_ZNSt17_Function_handlerIFvvEZN7openpal8TimerRef5StartIZN8opendnp311LinkContext18StartResponseTimerEvEUlvE_EEbRKNS1_12TimeDurationERKT_EUlvE_E10_M_managerERSt9_Any_dataRKSF_St18_Manager_operation
	.p2align 4
	.type	_ZNSt17_Function_handlerIFvvEZN7openpal8TimerRef5StartIZN8opendnp311LinkContext19StartKeepAliveTimerERKNS1_18MonotonicTimestampEEUlvE_EEbS8_RKT_EUlvE_E10_M_managerERSt9_Any_dataRKSF_St18_Manager_operation, @function
_ZNSt17_Function_handlerIFvvEZN7openpal8TimerRef5StartIZN8opendnp311LinkContext19StartKeepAliveTimerERKNS1_18MonotonicTimestampEEUlvE_EEbS8_RKT_EUlvE_E10_M_managerERSt9_Any_dataRKSF_St18_Manager_operation:
.LFB3014:
	.cfi_startproc
	endbr64
	testl	%edx, %edx
	je	.L18
	cmpl	$1, %edx
	je	.L19
	cmpl	$2, %edx
	je	.L23
.L21:
	xorl	%eax, %eax
	ret
	.p2align 4,,10
	.p2align 3
.L18:
	leaq	_ZTIZN7openpal8TimerRef5StartIZN8opendnp311LinkContext19StartKeepAliveTimerERKNS_18MonotonicTimestampEEUlvE_EEbS6_RKT_EUlvE_(%rip), %rax
	movq	%rax, (%rdi)
	xorl	%eax, %eax
	ret
	.p2align 4,,10
	.p2align 3
.L19:
	movq	%rsi, (%rdi)
	xorl	%eax, %eax
	ret
	.p2align 4,,10
	.p2align 3
.L23:
	movdqu	(%rsi), %xmm0
	movups	%xmm0, (%rdi)
	jmp	.L21
	.cfi_endproc
.LFE3014:
	.size	_ZNSt17_Function_handlerIFvvEZN7openpal8TimerRef5StartIZN8opendnp311LinkContext19StartKeepAliveTimerERKNS1_18MonotonicTimestampEEUlvE_EEbS8_RKT_EUlvE_E10_M_managerERSt9_Any_dataRKSF_St18_Manager_operation, .-_ZNSt17_Function_handlerIFvvEZN7openpal8TimerRef5StartIZN8opendnp311LinkContext19StartKeepAliveTimerERKNS1_18MonotonicTimestampEEUlvE_EEbS8_RKT_EUlvE_E10_M_managerERSt9_Any_dataRKSF_St18_Manager_operation
	.p2align 4
	.type	_ZNSt17_Function_handlerIFvvEZN8opendnp311LinkContext21CompleteSendOperationEbEUlvE_E10_M_managerERSt9_Any_dataRKS5_St18_Manager_operation, @function
_ZNSt17_Function_handlerIFvvEZN8opendnp311LinkContext21CompleteSendOperationEbEUlvE_E10_M_managerERSt9_Any_dataRKS5_St18_Manager_operation:
.LFB2928:
	.cfi_startproc
	endbr64
	pushq	%r12
	.cfi_def_cfa_offset 16
	.cfi_offset 12, -16
	pushq	%rbp
	.cfi_def_cfa_offset 24
	.cfi_offset 6, -24
	pushq	%rbx
	.cfi_def_cfa_offset 32
	.cfi_offset 3, -32
	movq	%rdi, %rbx
	testl	%edx, %edx
	je	.L25
	cmpl	$1, %edx
	je	.L26
	cmpl	$2, %edx
	je	.L29
	cmpl	$3, %edx
	jne	.L28
	movq	(%rdi), %rbp
	testq	%rbp, %rbp
	je	.L28
	movq	8(%rbp), %r12
	testq	%r12, %r12
	je	.L34
	movq	__libc_single_threaded@GOTPCREL(%rip), %rbx
	cmpb	$0, (%rbx)
	je	.L35
	movl	8(%r12), %eax
	leal	-1(%rax), %edx
	movl	%edx, 8(%r12)
.L36:
	cmpl	$1, %eax
	je	.L48
.L34:
	movl	$24, %esi
	movq	%rbp, %rdi
	call	_ZdlPvm@PLT
.L28:
	popq	%rbx
	.cfi_remember_state
	.cfi_def_cfa_offset 24
	xorl	%eax, %eax
	popq	%rbp
	.cfi_def_cfa_offset 16
	popq	%r12
	.cfi_def_cfa_offset 8
	ret
	.p2align 4,,10
	.p2align 3
.L25:
	.cfi_restore_state
	leaq	_ZTIZN8opendnp311LinkContext21CompleteSendOperationEbEUlvE_(%rip), %rax
	movq	%rax, (%rdi)
	xorl	%eax, %eax
	popq	%rbx
	.cfi_remember_state
	.cfi_def_cfa_offset 24
	popq	%rbp
	.cfi_def_cfa_offset 16
	popq	%r12
	.cfi_def_cfa_offset 8
	ret
	.p2align 4,,10
	.p2align 3
.L26:
	.cfi_restore_state
	movq	(%rsi), %rax
	movq	%rax, (%rdi)
	xorl	%eax, %eax
	popq	%rbx
	.cfi_remember_state
	.cfi_def_cfa_offset 24
	popq	%rbp
	.cfi_def_cfa_offset 16
	popq	%r12
	.cfi_def_cfa_offset 8
	ret
	.p2align 4,,10
	.p2align 3
.L29:
	.cfi_restore_state
	movq	(%rsi), %rbp
	movl	$24, %edi
	call	_Znwm@PLT
	movdqu	0(%rbp), %xmm0
	movq	8(%rbp), %rdx
	movups	%xmm0, (%rax)
	testq	%rdx, %rdx
	je	.L31
	movq	__libc_single_threaded@GOTPCREL(%rip), %rcx
	cmpb	$0, (%rcx)
	je	.L32
	addl	$1, 8(%rdx)
.L31:
	movzbl	16(%rbp), %edx
	movb	%dl, 16(%rax)
	movq	%rax, (%rbx)
	jmp	.L28
	.p2align 4,,10
	.p2align 3
.L32:
	lock addl	$1, 8(%rdx)
	jmp	.L31
.L48:
	movq	(%r12), %rax
	movq	%r12, %rdi
	call	*16(%rax)
	cmpb	$0, (%rbx)
	je	.L38
	movl	12(%r12), %eax
	leal	-1(%rax), %edx
	movl	%edx, 12(%r12)
.L39:
	cmpl	$1, %eax
	jne	.L34
	movq	(%r12), %rax
	movq	%r12, %rdi
	call	*24(%rax)
	jmp	.L34
.L35:
	movl	$-1, %eax
	lock xaddl	%eax, 8(%r12)
	jmp	.L36
.L38:
	movl	$-1, %eax
	lock xaddl	%eax, 12(%r12)
	jmp	.L39
	.cfi_endproc
.LFE2928:
	.size	_ZNSt17_Function_handlerIFvvEZN8opendnp311LinkContext21CompleteSendOperationEbEUlvE_E10_M_managerERSt9_Any_dataRKS5_St18_Manager_operation, .-_ZNSt17_Function_handlerIFvvEZN8opendnp311LinkContext21CompleteSendOperationEbEUlvE_E10_M_managerERSt9_Any_dataRKS5_St18_Manager_operation
	.section	.rodata.str1.1,"aMS",@progbits,1
.LC0:
	.string	"Layer is not online"
	.section	.rodata.str1.8,"aMS",@progbits,1
	.align 8
.LC1:
	.string	"/home/saptarshi/Desktop/OpenPLC61850/utils/dnp3_src/cpp/libs/src/opendnp3/link/LinkContext.cpp(90)"
	.text
	.align 2
	.p2align 4
	.globl	_ZN8opendnp311LinkContext16OnLowerLayerDownEv
	.type	_ZN8opendnp311LinkContext16OnLowerLayerDownEv, @function
_ZN8opendnp311LinkContext16OnLowerLayerDownEv:
.LFB2431:
	.cfi_startproc
	endbr64
	pushq	%r13
	.cfi_def_cfa_offset 16
	.cfi_offset 13, -16
	pushq	%r12
	.cfi_def_cfa_offset 24
	.cfi_offset 12, -24
	pushq	%rbp
	.cfi_def_cfa_offset 32
	.cfi_offset 6, -32
	movq	%rdi, %rbp
	subq	$32, %rsp
	.cfi_def_cfa_offset 64
	movzbl	506(%rdi), %r12d
	movq	_ZN8opendnp39PLLS_Idle8instanceE@GOTPCREL(%rip), %xmm0
	movq	%fs:40, %rax
	movq	%rax, 24(%rsp)
	xorl	%eax, %eax
	movhps	_ZN8opendnp313SLLS_NotReset8instanceE@GOTPCREL(%rip), %xmm0
	testb	%r12b, %r12b
	je	.L59
	xorl	%eax, %eax
	movb	$0, 508(%rdi)
	leaq	472(%rdi), %rdi
	movw	%ax, 34(%rdi)
	movq	$0, -32(%rdi)
	movb	$0, -24(%rdi)
	movb	$0, -144(%rdi)
	movb	$0, -120(%rdi)
	movaps	%xmm0, (%rsp)
	call	_ZN7openpal8TimerRef6CancelEv@PLT
	leaq	488(%rbp), %rdi
	call	_ZN7openpal8TimerRef6CancelEv@PLT
	movdqa	(%rsp), %xmm0
	movq	560(%rbp), %rdi
	movups	%xmm0, 544(%rbp)
	movq	(%rdi), %rax
	movq	(%rax), %rax
	cmpq	_ZN8opendnp313ILinkListener13OnStateChangeENS_10LinkStatusE@GOTPCREL(%rip), %rax
	jne	.L60
.L52:
	movq	576(%rbp), %rdi
	movq	(%rdi), %rax
	call	*24(%rax)
.L49:
	movq	24(%rsp), %rax
	subq	%fs:40, %rax
	jne	.L61
	addq	$32, %rsp
	.cfi_remember_state
	.cfi_def_cfa_offset 32
	movl	%r12d, %eax
	popq	%rbp
	.cfi_def_cfa_offset 24
	popq	%r12
	.cfi_def_cfa_offset 16
	popq	%r13
	.cfi_def_cfa_offset 8
	ret
	.p2align 4,,10
	.p2align 3
.L59:
	.cfi_restore_state
	addq	$376, %rbp
	leaq	20(%rsp), %r13
	movl	$2, 20(%rsp)
	movq	%r13, %rsi
	movq	%rbp, %rdi
	call	_ZNK7openpal6Logger9IsEnabledERKNS_10LogFiltersE@PLT
	testb	%al, %al
	je	.L49
	leaq	.LC0(%rip), %rcx
	leaq	.LC1(%rip), %rdx
	movq	%r13, %rsi
	movq	%rbp, %rdi
	movl	$2, 20(%rsp)
	call	_ZN7openpal6Logger3LogERKNS_10LogFiltersEPKcS5_@PLT
	jmp	.L49
	.p2align 4,,10
	.p2align 3
.L60:
	xorl	%esi, %esi
	call	*%rax
	jmp	.L52
.L61:
	call	__stack_chk_fail@PLT
	.cfi_endproc
.LFE2431:
	.size	_ZN8opendnp311LinkContext16OnLowerLayerDownEv, .-_ZN8opendnp311LinkContext16OnLowerLayerDownEv
	.section	.rodata.str1.8
	.align 8
.LC2:
	.string	"/home/saptarshi/Desktop/OpenPLC61850/utils/dnp3_src/cpp/libs/src/opendnp3/link/LinkContext.cpp(118)"
	.align 8
.LC3:
	.string	"Already transmitting a segment"
	.align 8
.LC4:
	.string	"/home/saptarshi/Desktop/OpenPLC61850/utils/dnp3_src/cpp/libs/src/opendnp3/link/LinkContext.cpp(124)"
	.text
	.align 2
	.p2align 4
	.globl	_ZN8opendnp311LinkContext12SetTxSegmentERNS_17ITransportSegmentE
	.type	_ZN8opendnp311LinkContext12SetTxSegmentERNS_17ITransportSegmentE, @function
_ZN8opendnp311LinkContext12SetTxSegmentERNS_17ITransportSegmentE:
.LFB2432:
	.cfi_startproc
	endbr64
	pushq	%r13
	.cfi_def_cfa_offset 16
	.cfi_offset 13, -16
	pushq	%r12
	.cfi_def_cfa_offset 24
	.cfi_offset 12, -24
	pushq	%rbp
	.cfi_def_cfa_offset 32
	.cfi_offset 6, -32
	subq	$16, %rsp
	.cfi_def_cfa_offset 48
	movzbl	506(%rdi), %r12d
	movq	%fs:40, %rax
	movq	%rax, 8(%rsp)
	xorl	%eax, %eax
	testb	%r12b, %r12b
	je	.L74
	cmpq	$0, 440(%rdi)
	jne	.L75
	movq	%rsi, 440(%rdi)
.L62:
	movq	8(%rsp), %rax
	subq	%fs:40, %rax
	jne	.L76
	addq	$16, %rsp
	.cfi_remember_state
	.cfi_def_cfa_offset 32
	movl	%r12d, %eax
	popq	%rbp
	.cfi_def_cfa_offset 24
	popq	%r12
	.cfi_def_cfa_offset 16
	popq	%r13
	.cfi_def_cfa_offset 8
	ret
	.p2align 4,,10
	.p2align 3
.L75:
	.cfi_restore_state
	leaq	376(%rdi), %rbp
	leaq	4(%rsp), %r12
	movl	$2, 4(%rsp)
	movq	%r12, %rsi
	movq	%rbp, %rdi
	call	_ZNK7openpal6Logger9IsEnabledERKNS_10LogFiltersE@PLT
	testb	%al, %al
	jne	.L77
.L73:
	xorl	%r12d, %r12d
	jmp	.L62
	.p2align 4,,10
	.p2align 3
.L74:
	leaq	376(%rdi), %rbp
	leaq	4(%rsp), %r13
	movl	$2, 4(%rsp)
	movq	%r13, %rsi
	movq	%rbp, %rdi
	call	_ZNK7openpal6Logger9IsEnabledERKNS_10LogFiltersE@PLT
	testb	%al, %al
	je	.L73
	leaq	.LC0(%rip), %rcx
	leaq	.LC2(%rip), %rdx
	movq	%r13, %rsi
	movq	%rbp, %rdi
	movl	$2, 4(%rsp)
	call	_ZN7openpal6Logger3LogERKNS_10LogFiltersEPKcS5_@PLT
	jmp	.L62
	.p2align 4,,10
	.p2align 3
.L77:
	leaq	.LC3(%rip), %rcx
	leaq	.LC4(%rip), %rdx
	movq	%r12, %rsi
	movq	%rbp, %rdi
	movl	$2, 4(%rsp)
	call	_ZN7openpal6Logger3LogERKNS_10LogFiltersEPKcS5_@PLT
	jmp	.L73
.L76:
	call	__stack_chk_fail@PLT
	.cfi_endproc
.LFE2432:
	.size	_ZN8opendnp311LinkContext12SetTxSegmentERNS_17ITransportSegmentE, .-_ZN8opendnp311LinkContext12SetTxSegmentERNS_17ITransportSegmentE
	.align 2
	.p2align 4
	.globl	_ZN8opendnp311LinkContext32FormatPrimaryBufferWithConfirmedERKN7openpal6RSliceEb
	.type	_ZN8opendnp311LinkContext32FormatPrimaryBufferWithConfirmedERKN7openpal6RSliceEb, @function
_ZN8opendnp311LinkContext32FormatPrimaryBufferWithConfirmedERKN7openpal6RSliceEb:
.LFB2434:
	.cfi_startproc
	endbr64
	pushq	%r14
	.cfi_def_cfa_offset 16
	.cfi_offset 14, -16
	pushq	%r13
	.cfi_def_cfa_offset 24
	.cfi_offset 13, -24
	pushq	%r12
	.cfi_def_cfa_offset 32
	.cfi_offset 12, -32
	movq	%rsi, %r12
	leaq	8(%rdi), %rsi
	pushq	%rbp
	.cfi_def_cfa_offset 40
	.cfi_offset 6, -40
	movl	%edx, %ebp
	movl	$292, %edx
	pushq	%rbx
	.cfi_def_cfa_offset 48
	.cfi_offset 3, -48
	movq	%rdi, %rbx
	leaq	376(%rbx), %r13
	subq	$64, %rsp
	.cfi_def_cfa_offset 112
	movq	%fs:40, %rax
	movq	%rax, 56(%rsp)
	xorl	%eax, %eax
	leaq	32(%rsp), %r14
	movq	%r14, %rdi
	call	_ZN7openpal6WSliceC1EPhj@PLT
	movl	32(%rsp), %eax
	movzbl	%bpl, %edx
	leaq	16(%rsp), %rdi
	movzbl	408(%rbx), %esi
	movzwl	418(%rbx), %ecx
	movl	%eax, 16(%rsp)
	movq	40(%rsp), %rax
	movq	8(%r12), %r9
	movzwl	416(%rbx), %r8d
	movq	%rax, 24(%rsp)
	movzbl	(%r12), %eax
	pushq	%r13
	.cfi_def_cfa_offset 120
	pushq	%rax
	.cfi_def_cfa_offset 128
	call	_ZN8opendnp39LinkFrame23FormatConfirmedUserDataERN7openpal6WSliceEbbttPKhhPNS1_6LoggerE@PLT
	movl	$256, 28(%rsp)
	movq	%r13, %rdi
	movl	%eax, 48(%rsp)
	movq	%rdx, 56(%rsp)
	popq	%rax
	.cfi_def_cfa_offset 120
	popq	%rdx
	.cfi_def_cfa_offset 112
	leaq	12(%rsp), %rbp
	movq	%rbp, %rsi
	call	_ZNK7openpal6Logger9IsEnabledERKNS_10LogFiltersE@PLT
	testb	%al, %al
	jne	.L85
.L79:
	movq	32(%rsp), %rax
	movq	40(%rsp), %rdx
	movq	56(%rsp), %rcx
	subq	%fs:40, %rcx
	jne	.L86
	addq	$64, %rsp
	.cfi_remember_state
	.cfi_def_cfa_offset 48
	popq	%rbx
	.cfi_def_cfa_offset 40
	popq	%rbp
	.cfi_def_cfa_offset 32
	popq	%r12
	.cfi_def_cfa_offset 24
	popq	%r13
	.cfi_def_cfa_offset 16
	popq	%r14
	.cfi_def_cfa_offset 8
	ret
	.p2align 4,,10
	.p2align 3
.L85:
	.cfi_restore_state
	movl	$18, %r8d
	movq	%r14, %rdx
	movq	%rbp, %rsi
	movq	%r13, %rdi
	movl	$10, %ecx
	movl	$256, 12(%rsp)
	call	_ZN7openpal6LogHexERNS_6LoggerERKNS_10LogFiltersERKNS_6RSliceEjj@PLT
	jmp	.L79
.L86:
	call	__stack_chk_fail@PLT
	.cfi_endproc
.LFE2434:
	.size	_ZN8opendnp311LinkContext32FormatPrimaryBufferWithConfirmedERKN7openpal6RSliceEb, .-_ZN8opendnp311LinkContext32FormatPrimaryBufferWithConfirmedERKN7openpal6RSliceEb
	.align 2
	.p2align 4
	.globl	_ZN8opendnp311LinkContext34FormatPrimaryBufferWithUnconfirmedERKN7openpal6RSliceE
	.type	_ZN8opendnp311LinkContext34FormatPrimaryBufferWithUnconfirmedERKN7openpal6RSliceE, @function
_ZN8opendnp311LinkContext34FormatPrimaryBufferWithUnconfirmedERKN7openpal6RSliceE:
.LFB2435:
	.cfi_startproc
	endbr64
	pushq	%r13
	.cfi_def_cfa_offset 16
	.cfi_offset 13, -16
	movl	$292, %edx
	pushq	%r12
	.cfi_def_cfa_offset 24
	.cfi_offset 12, -24
	pushq	%rbp
	.cfi_def_cfa_offset 32
	.cfi_offset 6, -32
	movq	%rsi, %rbp
	leaq	8(%rdi), %rsi
	pushq	%rbx
	.cfi_def_cfa_offset 40
	.cfi_offset 3, -40
	movq	%rdi, %rbx
	leaq	376(%rbx), %r12
	subq	$72, %rsp
	.cfi_def_cfa_offset 112
	movq	%fs:40, %rax
	movq	%rax, 56(%rsp)
	xorl	%eax, %eax
	leaq	32(%rsp), %r13
	movq	%r13, %rdi
	call	_ZN7openpal6WSliceC1EPhj@PLT
	movl	32(%rsp), %eax
	movq	8(%rbp), %r8
	leaq	16(%rsp), %rdi
	subq	$8, %rsp
	.cfi_def_cfa_offset 120
	movzwl	418(%rbx), %edx
	movzbl	408(%rbx), %esi
	movzbl	0(%rbp), %r9d
	movzwl	416(%rbx), %ecx
	movl	%eax, 24(%rsp)
	movq	48(%rsp), %rax
	movq	%rax, 32(%rsp)
	pushq	%r12
	.cfi_def_cfa_offset 128
	call	_ZN8opendnp39LinkFrame25FormatUnconfirmedUserDataERN7openpal6WSliceEbttPKhhPNS1_6LoggerE@PLT
	movl	$256, 28(%rsp)
	movq	%r12, %rdi
	movl	%eax, 48(%rsp)
	movq	%rdx, 56(%rsp)
	popq	%rax
	.cfi_def_cfa_offset 120
	popq	%rdx
	.cfi_def_cfa_offset 112
	leaq	12(%rsp), %rbp
	movq	%rbp, %rsi
	call	_ZNK7openpal6Logger9IsEnabledERKNS_10LogFiltersE@PLT
	testb	%al, %al
	jne	.L94
.L88:
	movq	32(%rsp), %rax
	movq	40(%rsp), %rdx
	movq	56(%rsp), %rcx
	subq	%fs:40, %rcx
	jne	.L95
	addq	$72, %rsp
	.cfi_remember_state
	.cfi_def_cfa_offset 40
	popq	%rbx
	.cfi_def_cfa_offset 32
	popq	%rbp
	.cfi_def_cfa_offset 24
	popq	%r12
	.cfi_def_cfa_offset 16
	popq	%r13
	.cfi_def_cfa_offset 8
	ret
	.p2align 4,,10
	.p2align 3
.L94:
	.cfi_restore_state
	movl	$18, %r8d
	movq	%r13, %rdx
	movq	%rbp, %rsi
	movq	%r12, %rdi
	movl	$10, %ecx
	movl	$256, 12(%rsp)
	call	_ZN7openpal6LogHexERNS_6LoggerERKNS_10LogFiltersERKNS_6RSliceEjj@PLT
	jmp	.L88
.L95:
	call	__stack_chk_fail@PLT
	.cfi_endproc
.LFE2435:
	.size	_ZN8opendnp311LinkContext34FormatPrimaryBufferWithUnconfirmedERKN7openpal6RSliceE, .-_ZN8opendnp311LinkContext34FormatPrimaryBufferWithUnconfirmedERKN7openpal6RSliceE
	.align 2
	.p2align 4
	.globl	_ZN8opendnp311LinkContext13QueueTransmitERKN7openpal6RSliceEb
	.type	_ZN8opendnp311LinkContext13QueueTransmitERKN7openpal6RSliceEb, @function
_ZN8opendnp311LinkContext13QueueTransmitERKN7openpal6RSliceEb:
.LFB2436:
	.cfi_startproc
	endbr64
	cmpb	$0, 448(%rdi)
	jne	.L97
	movq	536(%rdi), %r8
	movl	$2, %eax
	subl	%edx, %eax
	movq	592(%rdi), %rdx
	movb	%al, 448(%rdi)
	movq	(%r8), %rax
	movq	%r8, %rdi
	movq	16(%rax), %rax
	jmp	*%rax
	.p2align 4,,10
	.p2align 3
.L97:
	testb	%dl, %dl
	je	.L98
	movdqu	(%rsi), %xmm0
	movb	$1, 328(%rdi)
	movups	%xmm0, 336(%rdi)
	ret
	.p2align 4,,10
	.p2align 3
.L98:
	movdqu	(%rsi), %xmm1
	movb	$1, 352(%rdi)
	movups	%xmm1, 360(%rdi)
	ret
	.cfi_endproc
.LFE2436:
	.size	_ZN8opendnp311LinkContext13QueueTransmitERKN7openpal6RSliceEb, .-_ZN8opendnp311LinkContext13QueueTransmitERKN7openpal6RSliceEb
	.align 2
	.p2align 4
	.globl	_ZN8opendnp311LinkContext8QueueAckEv
	.type	_ZN8opendnp311LinkContext8QueueAckEv, @function
_ZN8opendnp311LinkContext8QueueAckEv:
.LFB2437:
	.cfi_startproc
	endbr64
	pushq	%r14
	.cfi_def_cfa_offset 16
	.cfi_offset 14, -16
	leaq	312(%rdi), %rsi
	movl	$10, %edx
	pushq	%r13
	.cfi_def_cfa_offset 24
	.cfi_offset 13, -24
	pushq	%r12
	.cfi_def_cfa_offset 32
	.cfi_offset 12, -32
	pushq	%rbp
	.cfi_def_cfa_offset 40
	.cfi_offset 6, -40
	movq	%rdi, %rbp
	leaq	376(%rbp), %r13
	subq	$72, %rsp
	.cfi_def_cfa_offset 112
	movq	%fs:40, %rax
	movq	%rax, 56(%rsp)
	xorl	%eax, %eax
	leaq	32(%rsp), %r12
	leaq	12(%rsp), %r14
	movq	%r12, %rdi
	call	_ZN7openpal6WSliceC1EPhj@PLT
	movl	32(%rsp), %eax
	xorl	%edx, %edx
	leaq	16(%rsp), %rdi
	movzbl	408(%rbp), %esi
	movzwl	418(%rbp), %ecx
	movq	%r13, %r9
	movl	%eax, 16(%rsp)
	movzwl	416(%rbp), %r8d
	movq	40(%rsp), %rax
	movq	%rax, 24(%rsp)
	call	_ZN8opendnp39LinkFrame9FormatAckERN7openpal6WSliceEbbttPNS1_6LoggerE@PLT
	movq	%r14, %rsi
	movq	%r13, %rdi
	movl	$256, 12(%rsp)
	movl	%eax, 32(%rsp)
	movq	%rdx, 40(%rsp)
	call	_ZNK7openpal6Logger9IsEnabledERKNS_10LogFiltersE@PLT
	testb	%al, %al
	jne	.L107
.L101:
	xorl	%edx, %edx
	movq	%r12, %rsi
	movq	%rbp, %rdi
	call	_ZN8opendnp311LinkContext13QueueTransmitERKN7openpal6RSliceEb@PLT
	movq	56(%rsp), %rax
	subq	%fs:40, %rax
	jne	.L108
	addq	$72, %rsp
	.cfi_remember_state
	.cfi_def_cfa_offset 40
	popq	%rbp
	.cfi_def_cfa_offset 32
	popq	%r12
	.cfi_def_cfa_offset 24
	popq	%r13
	.cfi_def_cfa_offset 16
	popq	%r14
	.cfi_def_cfa_offset 8
	ret
	.p2align 4,,10
	.p2align 3
.L107:
	.cfi_restore_state
	movl	$18, %r8d
	movq	%r12, %rdx
	movq	%r14, %rsi
	movq	%r13, %rdi
	movl	$10, %ecx
	movl	$256, 12(%rsp)
	call	_ZN7openpal6LogHexERNS_6LoggerERKNS_10LogFiltersERKNS_6RSliceEjj@PLT
	jmp	.L101
.L108:
	call	__stack_chk_fail@PLT
	.cfi_endproc
.LFE2437:
	.size	_ZN8opendnp311LinkContext8QueueAckEv, .-_ZN8opendnp311LinkContext8QueueAckEv
	.align 2
	.p2align 4
	.globl	_ZN8opendnp311LinkContext15QueueLinkStatusEv
	.type	_ZN8opendnp311LinkContext15QueueLinkStatusEv, @function
_ZN8opendnp311LinkContext15QueueLinkStatusEv:
.LFB2438:
	.cfi_startproc
	endbr64
	pushq	%r14
	.cfi_def_cfa_offset 16
	.cfi_offset 14, -16
	leaq	312(%rdi), %rsi
	movl	$10, %edx
	pushq	%r13
	.cfi_def_cfa_offset 24
	.cfi_offset 13, -24
	pushq	%r12
	.cfi_def_cfa_offset 32
	.cfi_offset 12, -32
	pushq	%rbp
	.cfi_def_cfa_offset 40
	.cfi_offset 6, -40
	movq	%rdi, %rbp
	leaq	376(%rbp), %r13
	subq	$72, %rsp
	.cfi_def_cfa_offset 112
	movq	%fs:40, %rax
	movq	%rax, 56(%rsp)
	xorl	%eax, %eax
	leaq	32(%rsp), %r12
	leaq	12(%rsp), %r14
	movq	%r12, %rdi
	call	_ZN7openpal6WSliceC1EPhj@PLT
	movl	32(%rsp), %eax
	xorl	%edx, %edx
	leaq	16(%rsp), %rdi
	movzbl	408(%rbp), %esi
	movzwl	418(%rbp), %ecx
	movq	%r13, %r9
	movl	%eax, 16(%rsp)
	movzwl	416(%rbp), %r8d
	movq	40(%rsp), %rax
	movq	%rax, 24(%rsp)
	call	_ZN8opendnp39LinkFrame16FormatLinkStatusERN7openpal6WSliceEbbttPNS1_6LoggerE@PLT
	movq	%r14, %rsi
	movq	%r13, %rdi
	movl	$256, 12(%rsp)
	movl	%eax, 32(%rsp)
	movq	%rdx, 40(%rsp)
	call	_ZNK7openpal6Logger9IsEnabledERKNS_10LogFiltersE@PLT
	testb	%al, %al
	jne	.L116
.L110:
	xorl	%edx, %edx
	movq	%r12, %rsi
	movq	%rbp, %rdi
	call	_ZN8opendnp311LinkContext13QueueTransmitERKN7openpal6RSliceEb@PLT
	movq	56(%rsp), %rax
	subq	%fs:40, %rax
	jne	.L117
	addq	$72, %rsp
	.cfi_remember_state
	.cfi_def_cfa_offset 40
	popq	%rbp
	.cfi_def_cfa_offset 32
	popq	%r12
	.cfi_def_cfa_offset 24
	popq	%r13
	.cfi_def_cfa_offset 16
	popq	%r14
	.cfi_def_cfa_offset 8
	ret
	.p2align 4,,10
	.p2align 3
.L116:
	.cfi_restore_state
	movl	$18, %r8d
	movq	%r12, %rdx
	movq	%r14, %rsi
	movq	%r13, %rdi
	movl	$10, %ecx
	movl	$256, 12(%rsp)
	call	_ZN7openpal6LogHexERNS_6LoggerERKNS_10LogFiltersERKNS_6RSliceEjj@PLT
	jmp	.L110
.L117:
	call	__stack_chk_fail@PLT
	.cfi_endproc
.LFE2438:
	.size	_ZN8opendnp311LinkContext15QueueLinkStatusEv, .-_ZN8opendnp311LinkContext15QueueLinkStatusEv
	.align 2
	.p2align 4
	.globl	_ZN8opendnp311LinkContext15QueueResetLinksEv
	.type	_ZN8opendnp311LinkContext15QueueResetLinksEv, @function
_ZN8opendnp311LinkContext15QueueResetLinksEv:
.LFB2439:
	.cfi_startproc
	endbr64
	pushq	%r14
	.cfi_def_cfa_offset 16
	.cfi_offset 14, -16
	leaq	8(%rdi), %rsi
	movl	$292, %edx
	pushq	%r13
	.cfi_def_cfa_offset 24
	.cfi_offset 13, -24
	pushq	%r12
	.cfi_def_cfa_offset 32
	.cfi_offset 12, -32
	pushq	%rbp
	.cfi_def_cfa_offset 40
	.cfi_offset 6, -40
	movq	%rdi, %rbp
	leaq	376(%rbp), %r13
	subq	$72, %rsp
	.cfi_def_cfa_offset 112
	movq	%fs:40, %rax
	movq	%rax, 56(%rsp)
	xorl	%eax, %eax
	leaq	32(%rsp), %r12
	leaq	12(%rsp), %r14
	movq	%r12, %rdi
	call	_ZN7openpal6WSliceC1EPhj@PLT
	movl	32(%rsp), %eax
	movq	%r13, %r8
	movzwl	418(%rbp), %edx
	movzbl	408(%rbp), %esi
	movzwl	416(%rbp), %ecx
	leaq	16(%rsp), %rdi
	movl	%eax, 16(%rsp)
	movq	40(%rsp), %rax
	movq	%rax, 24(%rsp)
	call	_ZN8opendnp39LinkFrame21FormatResetLinkStatesERN7openpal6WSliceEbttPNS1_6LoggerE@PLT
	movq	%r14, %rsi
	movq	%r13, %rdi
	movl	$256, 12(%rsp)
	movl	%eax, 32(%rsp)
	movq	%rdx, 40(%rsp)
	call	_ZNK7openpal6Logger9IsEnabledERKNS_10LogFiltersE@PLT
	testb	%al, %al
	jne	.L125
.L119:
	movl	$1, %edx
	movq	%r12, %rsi
	movq	%rbp, %rdi
	call	_ZN8opendnp311LinkContext13QueueTransmitERKN7openpal6RSliceEb@PLT
	movq	56(%rsp), %rax
	subq	%fs:40, %rax
	jne	.L126
	addq	$72, %rsp
	.cfi_remember_state
	.cfi_def_cfa_offset 40
	popq	%rbp
	.cfi_def_cfa_offset 32
	popq	%r12
	.cfi_def_cfa_offset 24
	popq	%r13
	.cfi_def_cfa_offset 16
	popq	%r14
	.cfi_def_cfa_offset 8
	ret
	.p2align 4,,10
	.p2align 3
.L125:
	.cfi_restore_state
	movl	$18, %r8d
	movq	%r12, %rdx
	movq	%r14, %rsi
	movq	%r13, %rdi
	movl	$10, %ecx
	movl	$256, 12(%rsp)
	call	_ZN7openpal6LogHexERNS_6LoggerERKNS_10LogFiltersERKNS_6RSliceEjj@PLT
	jmp	.L119
.L126:
	call	__stack_chk_fail@PLT
	.cfi_endproc
.LFE2439:
	.size	_ZN8opendnp311LinkContext15QueueResetLinksEv, .-_ZN8opendnp311LinkContext15QueueResetLinksEv
	.align 2
	.p2align 4
	.globl	_ZN8opendnp311LinkContext22QueueRequestLinkStatusEv
	.type	_ZN8opendnp311LinkContext22QueueRequestLinkStatusEv, @function
_ZN8opendnp311LinkContext22QueueRequestLinkStatusEv:
.LFB2440:
	.cfi_startproc
	endbr64
	pushq	%r14
	.cfi_def_cfa_offset 16
	.cfi_offset 14, -16
	leaq	8(%rdi), %rsi
	movl	$292, %edx
	pushq	%r13
	.cfi_def_cfa_offset 24
	.cfi_offset 13, -24
	pushq	%r12
	.cfi_def_cfa_offset 32
	.cfi_offset 12, -32
	pushq	%rbp
	.cfi_def_cfa_offset 40
	.cfi_offset 6, -40
	movq	%rdi, %rbp
	leaq	376(%rbp), %r13
	subq	$72, %rsp
	.cfi_def_cfa_offset 112
	movq	%fs:40, %rax
	movq	%rax, 56(%rsp)
	xorl	%eax, %eax
	leaq	32(%rsp), %r12
	leaq	12(%rsp), %r14
	movq	%r12, %rdi
	call	_ZN7openpal6WSliceC1EPhj@PLT
	movl	32(%rsp), %eax
	movq	%r13, %r8
	movzwl	418(%rbp), %edx
	movzbl	408(%rbp), %esi
	movzwl	416(%rbp), %ecx
	leaq	16(%rsp), %rdi
	movl	%eax, 16(%rsp)
	movq	40(%rsp), %rax
	movq	%rax, 24(%rsp)
	call	_ZN8opendnp39LinkFrame23FormatRequestLinkStatusERN7openpal6WSliceEbttPNS1_6LoggerE@PLT
	movq	%r14, %rsi
	movq	%r13, %rdi
	movl	$256, 12(%rsp)
	movl	%eax, 32(%rsp)
	movq	%rdx, 40(%rsp)
	call	_ZNK7openpal6Logger9IsEnabledERKNS_10LogFiltersE@PLT
	testb	%al, %al
	jne	.L134
.L128:
	movl	$1, %edx
	movq	%r12, %rsi
	movq	%rbp, %rdi
	call	_ZN8opendnp311LinkContext13QueueTransmitERKN7openpal6RSliceEb@PLT
	movq	56(%rsp), %rax
	subq	%fs:40, %rax
	jne	.L135
	addq	$72, %rsp
	.cfi_remember_state
	.cfi_def_cfa_offset 40
	popq	%rbp
	.cfi_def_cfa_offset 32
	popq	%r12
	.cfi_def_cfa_offset 24
	popq	%r13
	.cfi_def_cfa_offset 16
	popq	%r14
	.cfi_def_cfa_offset 8
	ret
	.p2align 4,,10
	.p2align 3
.L134:
	.cfi_restore_state
	movl	$18, %r8d
	movq	%r12, %rdx
	movq	%r14, %rsi
	movq	%r13, %rdi
	movl	$10, %ecx
	movl	$256, 12(%rsp)
	call	_ZN7openpal6LogHexERNS_6LoggerERKNS_10LogFiltersERKNS_6RSliceEjj@PLT
	jmp	.L128
.L135:
	call	__stack_chk_fail@PLT
	.cfi_endproc
.LFE2440:
	.size	_ZN8opendnp311LinkContext22QueueRequestLinkStatusEv, .-_ZN8opendnp311LinkContext22QueueRequestLinkStatusEv
	.align 2
	.p2align 4
	.globl	_ZN8opendnp311LinkContext10ResetRetryEv
	.type	_ZN8opendnp311LinkContext10ResetRetryEv, @function
_ZN8opendnp311LinkContext10ResetRetryEv:
.LFB2441:
	.cfi_startproc
	endbr64
	movl	412(%rdi), %eax
	movl	%eax, 452(%rdi)
	ret
	.cfi_endproc
.LFE2441:
	.size	_ZN8opendnp311LinkContext10ResetRetryEv, .-_ZN8opendnp311LinkContext10ResetRetryEv
	.align 2
	.p2align 4
	.globl	_ZN8opendnp311LinkContext5RetryEv
	.type	_ZN8opendnp311LinkContext5RetryEv, @function
_ZN8opendnp311LinkContext5RetryEv:
.LFB2442:
	.cfi_startproc
	endbr64
	movl	452(%rdi), %eax
	xorl	%r8d, %r8d
	testl	%eax, %eax
	je	.L137
	subl	$1, %eax
	movl	$1, %r8d
	movl	%eax, 452(%rdi)
.L137:
	movl	%r8d, %eax
	ret
	.cfi_endproc
.LFE2442:
	.size	_ZN8opendnp311LinkContext5RetryEv, .-_ZN8opendnp311LinkContext5RetryEv
	.align 2
	.p2align 4
	.globl	_ZN8opendnp311LinkContext10PushDataUpERKN7openpal6RSliceE
	.type	_ZN8opendnp311LinkContext10PushDataUpERKN7openpal6RSliceE, @function
_ZN8opendnp311LinkContext10PushDataUpERKN7openpal6RSliceE:
.LFB2443:
	.cfi_startproc
	endbr64
	movq	576(%rdi), %rdi
	movq	(%rdi), %rax
	jmp	*32(%rax)
	.cfi_endproc
.LFE2443:
	.size	_ZN8opendnp311LinkContext10PushDataUpERKN7openpal6RSliceE, .-_ZN8opendnp311LinkContext10PushDataUpERKN7openpal6RSliceE
	.align 2
	.p2align 4
	.globl	_ZN8opendnp311LinkContext20TryStartTransmissionEv
	.type	_ZN8opendnp311LinkContext20TryStartTransmissionEv, @function
_ZN8opendnp311LinkContext20TryStartTransmissionEv:
.LFB2457:
	.cfi_startproc
	endbr64
	pushq	%rbx
	.cfi_def_cfa_offset 16
	.cfi_offset 3, -16
	cmpb	$0, 508(%rdi)
	movq	%rdi, %rbx
	je	.L143
	movq	544(%rdi), %rdi
	movq	%rbx, %rsi
	movq	(%rdi), %rax
	call	*64(%rax)
	movq	%rax, 544(%rbx)
.L143:
	movq	440(%rbx), %rdx
	testq	%rdx, %rdx
	je	.L142
	movq	544(%rbx), %rdi
	cmpb	$0, 409(%rbx)
	movq	%rbx, %rsi
	movq	(%rdi), %rax
	jne	.L151
	call	*56(%rax)
.L146:
	movq	%rax, 544(%rbx)
.L142:
	popq	%rbx
	.cfi_remember_state
	.cfi_def_cfa_offset 8
	ret
	.p2align 4,,10
	.p2align 3
.L151:
	.cfi_restore_state
	call	*48(%rax)
	jmp	.L146
	.cfi_endproc
.LFE2457:
	.size	_ZN8opendnp311LinkContext20TryStartTransmissionEv, .-_ZN8opendnp311LinkContext20TryStartTransmissionEv
	.align 2
	.p2align 4
	.globl	_ZN8opendnp311LinkContext17OnResponseTimeoutEv
	.type	_ZN8opendnp311LinkContext17OnResponseTimeoutEv, @function
_ZN8opendnp311LinkContext17OnResponseTimeoutEv:
.LFB2459:
	.cfi_startproc
	endbr64
	pushq	%rbp
	.cfi_def_cfa_offset 16
	.cfi_offset 6, -16
	movq	%rdi, %rbp
	movq	544(%rdi), %rdi
	movq	%rbp, %rsi
	movq	(%rdi), %rax
	call	*40(%rax)
	movq	%rbp, %rdi
	movq	%rax, 544(%rbp)
	popq	%rbp
	.cfi_def_cfa_offset 8
	jmp	_ZN8opendnp311LinkContext20TryStartTransmissionEv@PLT
	.cfi_endproc
.LFE2459:
	.size	_ZN8opendnp311LinkContext17OnResponseTimeoutEv, .-_ZN8opendnp311LinkContext17OnResponseTimeoutEv
	.p2align 4
	.type	_ZNSt17_Function_handlerIFvvEZN7openpal8TimerRef5StartIZN8opendnp311LinkContext18StartResponseTimerEvEUlvE_EEbRKNS1_12TimeDurationERKT_EUlvE_E9_M_invokeERKSt9_Any_data, @function
_ZNSt17_Function_handlerIFvvEZN7openpal8TimerRef5StartIZN8opendnp311LinkContext18StartResponseTimerEvEUlvE_EEbRKNS1_12TimeDurationERKT_EUlvE_E9_M_invokeERKSt9_Any_data:
.LFB3009:
	.cfi_startproc
	endbr64
	movq	(%rdi), %rax
	movq	8(%rdi), %rdi
	movq	$0, 8(%rax)
	jmp	_ZN8opendnp311LinkContext17OnResponseTimeoutEv@PLT
	.cfi_endproc
.LFE3009:
	.size	_ZNSt17_Function_handlerIFvvEZN7openpal8TimerRef5StartIZN8opendnp311LinkContext18StartResponseTimerEvEUlvE_EEbRKNS1_12TimeDurationERKT_EUlvE_E9_M_invokeERKSt9_Any_data, .-_ZNSt17_Function_handlerIFvvEZN7openpal8TimerRef5StartIZN8opendnp311LinkContext18StartResponseTimerEvEUlvE_EEbRKNS1_12TimeDurationERKT_EUlvE_E9_M_invokeERKSt9_Any_data
	.section	.text.unlikely,"ax",@progbits
	.align 2
.LCOLDB5:
	.text
.LHOTB5:
	.align 2
	.p2align 4
	.globl	_ZN8opendnp311LinkContext18StartResponseTimerEv
	.type	_ZN8opendnp311LinkContext18StartResponseTimerEv, @function
_ZN8opendnp311LinkContext18StartResponseTimerEv:
.LFB2460:
	.cfi_startproc
	.cfi_personality 0x9b,DW.ref.__gxx_personality_v0
	.cfi_lsda 0x1b,.LLSDA2460
	endbr64
	pushq	%r12
	.cfi_def_cfa_offset 16
	.cfi_offset 12, -16
	leaq	472(%rdi), %r8
	movq	%rdi, %xmm1
	leaq	_ZNSt17_Function_handlerIFvvEZN7openpal8TimerRef5StartIZN8opendnp311LinkContext18StartResponseTimerEvEUlvE_EEbRKNS1_12TimeDurationERKT_EUlvE_E10_M_managerERSt9_Any_dataRKSF_St18_Manager_operation(%rip), %rcx
	pushq	%rbp
	.cfi_def_cfa_offset 24
	.cfi_offset 6, -24
	movq	%r8, %xmm0
	punpcklqdq	%xmm1, %xmm0
	subq	$72, %rsp
	.cfi_def_cfa_offset 96
	movq	%fs:40, %rax
	movq	%rax, 56(%rsp)
	xorl	%eax, %eax
	movq	424(%rdi), %rax
	movaps	%xmm0, 16(%rsp)
	movq	%r8, %rdi
	movq	%rcx, %xmm0
	leaq	16(%rsp), %rbp
	leaq	8(%rsp), %rsi
	movq	%rax, 8(%rsp)
	leaq	_ZNSt17_Function_handlerIFvvEZN7openpal8TimerRef5StartIZN8opendnp311LinkContext18StartResponseTimerEvEUlvE_EEbRKNS1_12TimeDurationERKT_EUlvE_E9_M_invokeERKSt9_Any_data(%rip), %rax
	movq	%rbp, %rdx
	movq	%rax, %xmm2
	punpcklqdq	%xmm2, %xmm0
	movaps	%xmm0, 32(%rsp)
.LEHB0:
	call	_ZN7openpal8TimerRef11StartActionERKNS_12TimeDurationERKSt8functionIFvvEE@PLT
.LEHE0:
	movq	32(%rsp), %rax
	testq	%rax, %rax
	je	.L155
	movl	$3, %edx
	movq	%rbp, %rsi
	movq	%rbp, %rdi
	call	*%rax
.L155:
	movq	56(%rsp), %rax
	subq	%fs:40, %rax
	jne	.L168
	addq	$72, %rsp
	.cfi_remember_state
	.cfi_def_cfa_offset 24
	popq	%rbp
	.cfi_def_cfa_offset 16
	popq	%r12
	.cfi_def_cfa_offset 8
	ret
.L168:
	.cfi_restore_state
	call	__stack_chk_fail@PLT
.L160:
	endbr64
	movq	%rax, %r12
	jmp	.L157
	.globl	__gxx_personality_v0
	.section	.gcc_except_table,"a",@progbits
.LLSDA2460:
	.byte	0xff
	.byte	0xff
	.byte	0x1
	.uleb128 .LLSDACSE2460-.LLSDACSB2460
.LLSDACSB2460:
	.uleb128 .LEHB0-.LFB2460
	.uleb128 .LEHE0-.LEHB0
	.uleb128 .L160-.LFB2460
	.uleb128 0
.LLSDACSE2460:
	.text
	.cfi_endproc
	.section	.text.unlikely
	.cfi_startproc
	.cfi_personality 0x9b,DW.ref.__gxx_personality_v0
	.cfi_lsda 0x1b,.LLSDAC2460
	.type	_ZN8opendnp311LinkContext18StartResponseTimerEv.cold, @function
_ZN8opendnp311LinkContext18StartResponseTimerEv.cold:
.LFSB2460:
.L157:
	.cfi_def_cfa_offset 96
	.cfi_offset 6, -24
	.cfi_offset 12, -16
	movq	32(%rsp), %rax
	testq	%rax, %rax
	je	.L158
	movl	$3, %edx
	movq	%rbp, %rsi
	movq	%rbp, %rdi
	call	*%rax
.L158:
	movq	%r12, %rdi
.LEHB1:
	call	_Unwind_Resume@PLT
.LEHE1:
	.cfi_endproc
.LFE2460:
	.section	.gcc_except_table
.LLSDAC2460:
	.byte	0xff
	.byte	0xff
	.byte	0x1
	.uleb128 .LLSDACSEC2460-.LLSDACSBC2460
.LLSDACSBC2460:
	.uleb128 .LEHB1-.LCOLDB5
	.uleb128 .LEHE1-.LEHB1
	.uleb128 0
	.uleb128 0
.LLSDACSEC2460:
	.section	.text.unlikely
	.text
	.size	_ZN8opendnp311LinkContext18StartResponseTimerEv, .-_ZN8opendnp311LinkContext18StartResponseTimerEv
	.section	.text.unlikely
	.size	_ZN8opendnp311LinkContext18StartResponseTimerEv.cold, .-_ZN8opendnp311LinkContext18StartResponseTimerEv.cold
.LCOLDE5:
	.text
.LHOTE5:
	.section	.text.unlikely
	.align 2
.LCOLDB6:
	.text
.LHOTB6:
	.align 2
	.p2align 4
	.globl	_ZN8opendnp311LinkContext19StartKeepAliveTimerERKN7openpal18MonotonicTimestampE
	.type	_ZN8opendnp311LinkContext19StartKeepAliveTimerERKN7openpal18MonotonicTimestampE, @function
_ZN8opendnp311LinkContext19StartKeepAliveTimerERKN7openpal18MonotonicTimestampE:
.LFB2462:
	.cfi_startproc
	.cfi_personality 0x9b,DW.ref.__gxx_personality_v0
	.cfi_lsda 0x1b,.LLSDA2462
	endbr64
	pushq	%r12
	.cfi_def_cfa_offset 16
	.cfi_offset 12, -16
	leaq	488(%rdi), %r8
	movq	%rdi, %xmm1
	leaq	_ZNSt17_Function_handlerIFvvEZN7openpal8TimerRef5StartIZN8opendnp311LinkContext19StartKeepAliveTimerERKNS1_18MonotonicTimestampEEUlvE_EEbS8_RKT_EUlvE_E10_M_managerERSt9_Any_dataRKSF_St18_Manager_operation(%rip), %rcx
	pushq	%rbp
	.cfi_def_cfa_offset 24
	.cfi_offset 6, -24
	movq	%r8, %xmm0
	movq	%r8, %rdi
	punpcklqdq	%xmm1, %xmm0
	subq	$56, %rsp
	.cfi_def_cfa_offset 80
	movq	%fs:40, %rax
	movq	%rax, 40(%rsp)
	xorl	%eax, %eax
	leaq	_ZNSt17_Function_handlerIFvvEZN7openpal8TimerRef5StartIZN8opendnp311LinkContext19StartKeepAliveTimerERKNS1_18MonotonicTimestampEEUlvE_EEbS8_RKT_EUlvE_E9_M_invokeERKSt9_Any_data(%rip), %rax
	movaps	%xmm0, (%rsp)
	movq	%rsp, %rbp
	movq	%rcx, %xmm0
	movq	%rax, %xmm2
	movq	%rbp, %rdx
	punpcklqdq	%xmm2, %xmm0
	movaps	%xmm0, 16(%rsp)
.LEHB2:
	call	_ZN7openpal8TimerRef11StartActionERKNS_18MonotonicTimestampERKSt8functionIFvvEE@PLT
.LEHE2:
	movq	16(%rsp), %rax
	testq	%rax, %rax
	je	.L169
	movl	$3, %edx
	movq	%rbp, %rsi
	movq	%rbp, %rdi
	call	*%rax
.L169:
	movq	40(%rsp), %rax
	subq	%fs:40, %rax
	jne	.L182
	addq	$56, %rsp
	.cfi_remember_state
	.cfi_def_cfa_offset 24
	popq	%rbp
	.cfi_def_cfa_offset 16
	popq	%r12
	.cfi_def_cfa_offset 8
	ret
.L182:
	.cfi_restore_state
	call	__stack_chk_fail@PLT
.L174:
	endbr64
	movq	%rax, %r12
	jmp	.L171
	.section	.gcc_except_table
.LLSDA2462:
	.byte	0xff
	.byte	0xff
	.byte	0x1
	.uleb128 .LLSDACSE2462-.LLSDACSB2462
.LLSDACSB2462:
	.uleb128 .LEHB2-.LFB2462
	.uleb128 .LEHE2-.LEHB2
	.uleb128 .L174-.LFB2462
	.uleb128 0
.LLSDACSE2462:
	.text
	.cfi_endproc
	.section	.text.unlikely
	.cfi_startproc
	.cfi_personality 0x9b,DW.ref.__gxx_personality_v0
	.cfi_lsda 0x1b,.LLSDAC2462
	.type	_ZN8opendnp311LinkContext19StartKeepAliveTimerERKN7openpal18MonotonicTimestampE.cold, @function
_ZN8opendnp311LinkContext19StartKeepAliveTimerERKN7openpal18MonotonicTimestampE.cold:
.LFSB2462:
.L171:
	.cfi_def_cfa_offset 80
	.cfi_offset 6, -24
	.cfi_offset 12, -16
	movq	16(%rsp), %rax
	testq	%rax, %rax
	je	.L172
	movl	$3, %edx
	movq	%rbp, %rsi
	movq	%rbp, %rdi
	call	*%rax
.L172:
	movq	%r12, %rdi
.LEHB3:
	call	_Unwind_Resume@PLT
.LEHE3:
	.cfi_endproc
.LFE2462:
	.section	.gcc_except_table
.LLSDAC2462:
	.byte	0xff
	.byte	0xff
	.byte	0x1
	.uleb128 .LLSDACSEC2462-.LLSDACSBC2462
.LLSDACSBC2462:
	.uleb128 .LEHB3-.LCOLDB6
	.uleb128 .LEHE3-.LEHB3
	.uleb128 0
	.uleb128 0
.LLSDACSEC2462:
	.section	.text.unlikely
	.text
	.size	_ZN8opendnp311LinkContext19StartKeepAliveTimerERKN7openpal18MonotonicTimestampE, .-_ZN8opendnp311LinkContext19StartKeepAliveTimerERKN7openpal18MonotonicTimestampE
	.section	.text.unlikely
	.size	_ZN8opendnp311LinkContext19StartKeepAliveTimerERKN7openpal18MonotonicTimestampE.cold, .-_ZN8opendnp311LinkContext19StartKeepAliveTimerERKN7openpal18MonotonicTimestampE.cold
.LCOLDE6:
	.text
.LHOTE6:
	.align 2
	.p2align 4
	.globl	_ZN8opendnp311LinkContext18OnKeepAliveTimeoutEv
	.type	_ZN8opendnp311LinkContext18OnKeepAliveTimeoutEv, @function
_ZN8opendnp311LinkContext18OnKeepAliveTimeoutEv:
.LFB2458:
	.cfi_startproc
	endbr64
	pushq	%rbp
	.cfi_def_cfa_offset 16
	.cfi_offset 6, -16
	movq	%rdi, %rbp
	subq	$32, %rsp
	.cfi_def_cfa_offset 48
	movq	456(%rdi), %rdi
	movq	%fs:40, %rax
	movq	%rax, 24(%rsp)
	xorl	%eax, %eax
	movq	(%rdi), %rax
	call	*16(%rax)
	movq	%rax, %rdx
	movq	%rax, 8(%rsp)
	subq	512(%rbp), %rdx
	cmpq	%rdx, 432(%rbp)
	jg	.L184
	movq	%rax, 512(%rbp)
	movb	$1, 508(%rbp)
.L184:
	leaq	432(%rbp), %rsi
	leaq	8(%rsp), %rdi
	call	_ZNK7openpal18MonotonicTimestamp3AddERKNS_12TimeDurationE@PLT
	movq	%rbp, %rdi
	leaq	16(%rsp), %rsi
	movq	%rax, 16(%rsp)
	call	_ZN8opendnp311LinkContext19StartKeepAliveTimerERKN7openpal18MonotonicTimestampE@PLT
	movq	%rbp, %rdi
	call	_ZN8opendnp311LinkContext20TryStartTransmissionEv@PLT
	movq	24(%rsp), %rax
	subq	%fs:40, %rax
	jne	.L187
	addq	$32, %rsp
	.cfi_remember_state
	.cfi_def_cfa_offset 16
	popq	%rbp
	.cfi_def_cfa_offset 8
	ret
.L187:
	.cfi_restore_state
	call	__stack_chk_fail@PLT
	.cfi_endproc
.LFE2458:
	.size	_ZN8opendnp311LinkContext18OnKeepAliveTimeoutEv, .-_ZN8opendnp311LinkContext18OnKeepAliveTimeoutEv
	.p2align 4
	.type	_ZNSt17_Function_handlerIFvvEZN7openpal8TimerRef5StartIZN8opendnp311LinkContext19StartKeepAliveTimerERKNS1_18MonotonicTimestampEEUlvE_EEbS8_RKT_EUlvE_E9_M_invokeERKSt9_Any_data, @function
_ZNSt17_Function_handlerIFvvEZN7openpal8TimerRef5StartIZN8opendnp311LinkContext19StartKeepAliveTimerERKNS1_18MonotonicTimestampEEUlvE_EEbS8_RKT_EUlvE_E9_M_invokeERKSt9_Any_data:
.LFB3013:
	.cfi_startproc
	endbr64
	movq	(%rdi), %rax
	movq	8(%rdi), %rdi
	movq	$0, 8(%rax)
	jmp	_ZN8opendnp311LinkContext18OnKeepAliveTimeoutEv@PLT
	.cfi_endproc
.LFE3013:
	.size	_ZNSt17_Function_handlerIFvvEZN7openpal8TimerRef5StartIZN8opendnp311LinkContext19StartKeepAliveTimerERKNS1_18MonotonicTimestampEEUlvE_EEbS8_RKT_EUlvE_E9_M_invokeERKSt9_Any_data, .-_ZNSt17_Function_handlerIFvvEZN7openpal8TimerRef5StartIZN8opendnp311LinkContext19StartKeepAliveTimerERKNS1_18MonotonicTimestampEEUlvE_EEbS8_RKT_EUlvE_E9_M_invokeERKSt9_Any_data
	.section	.rodata.str1.1
.LC7:
	.string	"Layer already online"
	.section	.rodata.str1.8
	.align 8
.LC8:
	.string	"/home/saptarshi/Desktop/OpenPLC61850/utils/dnp3_src/cpp/libs/src/opendnp3/link/LinkContext.cpp(68)"
	.text
	.align 2
	.p2align 4
	.globl	_ZN8opendnp311LinkContext14OnLowerLayerUpEv
	.type	_ZN8opendnp311LinkContext14OnLowerLayerUpEv, @function
_ZN8opendnp311LinkContext14OnLowerLayerUpEv:
.LFB2430:
	.cfi_startproc
	endbr64
	pushq	%r12
	.cfi_def_cfa_offset 16
	.cfi_offset 12, -16
	pushq	%rbp
	.cfi_def_cfa_offset 24
	.cfi_offset 6, -24
	movq	%rdi, %rbp
	subq	$40, %rsp
	.cfi_def_cfa_offset 64
	movq	%fs:40, %rax
	movq	%rax, 24(%rsp)
	xorl	%eax, %eax
	cmpb	$0, 506(%rdi)
	jne	.L198
	movq	456(%rdi), %rdi
	movq	(%rdi), %rax
	call	*16(%rax)
	movb	$1, 506(%rbp)
	leaq	432(%rbp), %rsi
	leaq	8(%rsp), %rdi
	movq	%rax, 512(%rbp)
	movq	%rax, 8(%rsp)
	call	_ZNK7openpal18MonotonicTimestamp3AddERKNS_12TimeDurationE@PLT
	movq	%rbp, %rdi
	leaq	16(%rsp), %rsi
	movq	%rax, 16(%rsp)
	call	_ZN8opendnp311LinkContext19StartKeepAliveTimerERKN7openpal18MonotonicTimestampE@PLT
	movq	560(%rbp), %rdi
	movq	(%rdi), %rax
	movq	(%rax), %rax
	cmpq	_ZN8opendnp313ILinkListener13OnStateChangeENS_10LinkStatusE@GOTPCREL(%rip), %rax
	jne	.L199
.L192:
	movq	576(%rbp), %rdi
	movq	(%rdi), %rax
	call	*16(%rax)
	movl	$1, %eax
.L189:
	movq	24(%rsp), %rdx
	subq	%fs:40, %rdx
	jne	.L200
	addq	$40, %rsp
	.cfi_remember_state
	.cfi_def_cfa_offset 24
	popq	%rbp
	.cfi_def_cfa_offset 16
	popq	%r12
	.cfi_def_cfa_offset 8
	ret
	.p2align 4,,10
	.p2align 3
.L198:
	.cfi_restore_state
	addq	$376, %rbp
	leaq	16(%rsp), %r12
	movl	$2, 16(%rsp)
	movq	%r12, %rsi
	movq	%rbp, %rdi
	call	_ZNK7openpal6Logger9IsEnabledERKNS_10LogFiltersE@PLT
	testb	%al, %al
	je	.L189
	leaq	.LC7(%rip), %rcx
	leaq	.LC8(%rip), %rdx
	movq	%r12, %rsi
	movq	%rbp, %rdi
	movl	$2, 16(%rsp)
	call	_ZN7openpal6Logger3LogERKNS_10LogFiltersEPKcS5_@PLT
	xorl	%eax, %eax
	jmp	.L189
	.p2align 4,,10
	.p2align 3
.L199:
	xorl	%esi, %esi
	call	*%rax
	jmp	.L192
.L200:
	call	__stack_chk_fail@PLT
	.cfi_endproc
.LFE2430:
	.size	_ZN8opendnp311LinkContext14OnLowerLayerUpEv, .-_ZN8opendnp311LinkContext14OnLowerLayerUpEv
	.align 2
	.p2align 4
	.globl	_ZN8opendnp311LinkContext11CancelTimerEv
	.type	_ZN8opendnp311LinkContext11CancelTimerEv, @function
_ZN8opendnp311LinkContext11CancelTimerEv:
.LFB2464:
	.cfi_startproc
	endbr64
	addq	$472, %rdi
	jmp	_ZN7openpal8TimerRef6CancelEv@PLT
	.cfi_endproc
.LFE2464:
	.size	_ZN8opendnp311LinkContext11CancelTimerEv, .-_ZN8opendnp311LinkContext11CancelTimerEv
	.align 2
	.p2align 4
	.globl	_ZN8opendnp311LinkContext13FailKeepAliveEb
	.type	_ZN8opendnp311LinkContext13FailKeepAliveEb, @function
_ZN8opendnp311LinkContext13FailKeepAliveEb:
.LFB2465:
	.cfi_startproc
	endbr64
	testb	%sil, %sil
	je	.L202
	movq	560(%rdi), %rdi
	movq	(%rdi), %rax
	movq	16(%rax), %rax
	cmpq	_ZN8opendnp313ILinkListener18OnKeepAliveFailureEv@GOTPCREL(%rip), %rax
	jne	.L204
.L202:
	ret
	.p2align 4,,10
	.p2align 3
.L204:
	jmp	*%rax
	.cfi_endproc
.LFE2465:
	.size	_ZN8opendnp311LinkContext13FailKeepAliveEb, .-_ZN8opendnp311LinkContext13FailKeepAliveEb
	.align 2
	.p2align 4
	.globl	_ZN8opendnp311LinkContext17CompleteKeepAliveEv
	.type	_ZN8opendnp311LinkContext17CompleteKeepAliveEv, @function
_ZN8opendnp311LinkContext17CompleteKeepAliveEv:
.LFB2466:
	.cfi_startproc
	endbr64
	movq	560(%rdi), %rdi
	movq	(%rdi), %rax
	movq	24(%rax), %rax
	cmpq	_ZN8opendnp313ILinkListener18OnKeepAliveSuccessEv@GOTPCREL(%rip), %rax
	jne	.L207
	ret
	.p2align 4,,10
	.p2align 3
.L207:
	jmp	*%rax
	.cfi_endproc
.LFE2466:
	.size	_ZN8opendnp311LinkContext17CompleteKeepAliveEv, .-_ZN8opendnp311LinkContext17CompleteKeepAliveEv
	.section	.rodata.str1.8
	.align 8
.LC9:
	.string	"Master frame received for master"
	.align 8
.LC10:
	.string	"Outstation frame received for outstation"
	.align 8
.LC11:
	.string	"/home/saptarshi/Desktop/OpenPLC61850/utils/dnp3_src/cpp/libs/src/opendnp3/link/LinkContext.cpp(395)"
	.align 8
.LC12:
	.string	"Frame for unknown destintation"
	.align 8
.LC13:
	.string	"/home/saptarshi/Desktop/OpenPLC61850/utils/dnp3_src/cpp/libs/src/opendnp3/link/LinkContext.cpp(402)"
	.section	.rodata.str1.1
.LC14:
	.string	"Frame from unknwon source"
	.section	.rodata.str1.8
	.align 8
.LC15:
	.string	"/home/saptarshi/Desktop/OpenPLC61850/utils/dnp3_src/cpp/libs/src/opendnp3/link/LinkContext.cpp(409)"
	.text
	.align 2
	.p2align 4
	.globl	_ZN8opendnp311LinkContext8ValidateEbtt
	.type	_ZN8opendnp311LinkContext8ValidateEbtt, @function
_ZN8opendnp311LinkContext8ValidateEbtt:
.LFB2468:
	.cfi_startproc
	endbr64
	pushq	%r12
	.cfi_def_cfa_offset 16
	.cfi_offset 12, -16
	pushq	%rbp
	.cfi_def_cfa_offset 24
	.cfi_offset 6, -24
	pushq	%rbx
	.cfi_def_cfa_offset 32
	.cfi_offset 3, -32
	subq	$16, %rsp
	.cfi_def_cfa_offset 48
	movq	%fs:40, %rax
	movq	%rax, 8(%rsp)
	xorl	%eax, %eax
	cmpb	%sil, 408(%rdi)
	je	.L226
	cmpw	%cx, 416(%rdi)
	jne	.L227
	movl	$1, %eax
	cmpw	%dx, 418(%rdi)
	jne	.L228
.L208:
	movq	8(%rsp), %rdx
	subq	%fs:40, %rdx
	jne	.L229
	addq	$16, %rsp
	.cfi_remember_state
	.cfi_def_cfa_offset 32
	popq	%rbx
	.cfi_def_cfa_offset 24
	popq	%rbp
	.cfi_def_cfa_offset 16
	popq	%r12
	.cfi_def_cfa_offset 8
	ret
	.p2align 4,,10
	.p2align 3
.L227:
	.cfi_restore_state
	addl	$1, 528(%rdi)
	leaq	376(%rdi), %rbp
	leaq	4(%rsp), %r12
	movq	%r12, %rsi
	movq	%rbp, %rdi
	movl	$4, 4(%rsp)
	call	_ZNK7openpal6Logger9IsEnabledERKNS_10LogFiltersE@PLT
	testb	%al, %al
	jne	.L230
.L225:
	xorl	%eax, %eax
	jmp	.L208
	.p2align 4,,10
	.p2align 3
.L228:
	addl	$1, 532(%rdi)
	leaq	376(%rdi), %rbp
	leaq	4(%rsp), %r12
	movq	%r12, %rsi
	movq	%rbp, %rdi
	movl	$4, 4(%rsp)
	call	_ZNK7openpal6Logger9IsEnabledERKNS_10LogFiltersE@PLT
	testb	%al, %al
	je	.L225
	leaq	.LC14(%rip), %rcx
	leaq	.LC15(%rip), %rdx
	movq	%r12, %rsi
	movq	%rbp, %rdi
	movl	$4, 4(%rsp)
	call	_ZN7openpal6Logger3LogERKNS_10LogFiltersEPKcS5_@PLT
	xorl	%eax, %eax
	jmp	.L208
	.p2align 4,,10
	.p2align 3
.L230:
	leaq	.LC12(%rip), %rcx
	leaq	.LC13(%rip), %rdx
	movq	%r12, %rsi
	movq	%rbp, %rdi
	movl	$4, 4(%rsp)
	call	_ZN7openpal6Logger3LogERKNS_10LogFiltersEPKcS5_@PLT
	xorl	%eax, %eax
	jmp	.L208
	.p2align 4,,10
	.p2align 3
.L226:
	addl	$1, 524(%rdi)
	leaq	376(%rdi), %rbp
	leaq	4(%rsp), %r12
	movl	%esi, %ebx
	movq	%rbp, %rdi
	movq	%r12, %rsi
	movl	$4, 4(%rsp)
	call	_ZNK7openpal6Logger9IsEnabledERKNS_10LogFiltersE@PLT
	testb	%al, %al
	je	.L225
	testb	%bl, %bl
	leaq	.LC10(%rip), %rax
	movq	%r12, %rsi
	movq	%rbp, %rdi
	leaq	.LC9(%rip), %rcx
	leaq	.LC11(%rip), %rdx
	movl	$4, 4(%rsp)
	cmove	%rax, %rcx
	call	_ZN7openpal6Logger3LogERKNS_10LogFiltersEPKcS5_@PLT
	xorl	%eax, %eax
	jmp	.L208
.L229:
	call	__stack_chk_fail@PLT
	.cfi_endproc
.LFE2468:
	.size	_ZN8opendnp311LinkContext8ValidateEbtt, .-_ZN8opendnp311LinkContext8ValidateEbtt
	.section	.rodata.str1.8
	.align 8
.LC16:
	.string	"/home/saptarshi/Desktop/OpenPLC61850/utils/dnp3_src/cpp/libs/src/opendnp3/link/LinkContext.cpp(344)"
	.text
	.align 2
	.p2align 4
	.globl	_ZN8opendnp311LinkContext7OnFrameERKNS_16LinkHeaderFieldsERKN7openpal6RSliceE
	.type	_ZN8opendnp311LinkContext7OnFrameERKNS_16LinkHeaderFieldsERKN7openpal6RSliceE, @function
_ZN8opendnp311LinkContext7OnFrameERKNS_16LinkHeaderFieldsERKN7openpal6RSliceE:
.LFB2467:
	.cfi_startproc
	endbr64
	pushq	%r13
	.cfi_def_cfa_offset 16
	.cfi_offset 13, -16
	pushq	%r12
	.cfi_def_cfa_offset 24
	.cfi_offset 12, -24
	pushq	%rbp
	.cfi_def_cfa_offset 32
	.cfi_offset 6, -32
	movq	%rdi, %rbp
	pushq	%rbx
	.cfi_def_cfa_offset 40
	.cfi_offset 3, -40
	subq	$24, %rsp
	.cfi_def_cfa_offset 64
	movzbl	506(%rdi), %r12d
	movq	%fs:40, %rax
	movq	%rax, 8(%rsp)
	xorl	%eax, %eax
	testb	%r12b, %r12b
	je	.L255
	movzwl	4(%rsi), %ecx
	movq	%rsi, %rbx
	movq	%rdx, %r13
	movzwl	6(%rsi), %edx
	movzbl	1(%rsi), %esi
	call	_ZN8opendnp311LinkContext8ValidateEbtt@PLT
	movl	%eax, %r12d
	testb	%al, %al
	je	.L250
	movq	456(%rbp), %rdi
	movq	(%rdi), %rax
	call	*16(%rax)
	movq	%rax, 512(%rbp)
	movzbl	(%rbx), %eax
	cmpb	$73, %al
	ja	.L250
	cmpb	$63, %al
	jbe	.L256
	subl	$64, %eax
	cmpb	$9, %al
	ja	.L250
	leaq	.L242(%rip), %rdx
	movzbl	%al, %eax
	movslq	(%rdx,%rax,4), %rax
	addq	%rdx, %rax
	notrack jmp	*%rax
	.section	.rodata
	.align 4
	.align 4
.L242:
	.long	.L246-.L242
	.long	.L250-.L242
	.long	.L245-.L242
	.long	.L244-.L242
	.long	.L243-.L242
	.long	.L250-.L242
	.long	.L250-.L242
	.long	.L250-.L242
	.long	.L250-.L242
	.long	.L241-.L242
	.text
	.p2align 4,,10
	.p2align 3
.L255:
	addq	$376, %rbp
	leaq	4(%rsp), %r13
	movl	$2, 4(%rsp)
	movq	%r13, %rsi
	movq	%rbp, %rdi
	call	_ZNK7openpal6Logger9IsEnabledERKNS_10LogFiltersE@PLT
	testb	%al, %al
	jne	.L233
.L250:
	xorl	%r12d, %r12d
.L231:
	movq	8(%rsp), %rax
	subq	%fs:40, %rax
	jne	.L257
	addq	$24, %rsp
	.cfi_remember_state
	.cfi_def_cfa_offset 40
	movl	%r12d, %eax
	popq	%rbx
	.cfi_def_cfa_offset 32
	popq	%rbp
	.cfi_def_cfa_offset 24
	popq	%r12
	.cfi_def_cfa_offset 16
	popq	%r13
	.cfi_def_cfa_offset 8
	ret
	.p2align 4,,10
	.p2align 3
.L256:
	.cfi_restore_state
	cmpb	$11, %al
	je	.L237
	jbe	.L258
	cmpb	$15, %al
	jne	.L250
	movq	544(%rbp), %rdi
	movzbl	3(%rbx), %edx
	movq	%rbp, %rsi
	movq	(%rdi), %rax
	call	*24(%rax)
	movq	%rax, 544(%rbp)
	jmp	.L231
	.p2align 4,,10
	.p2align 3
.L258:
	testb	%al, %al
	je	.L239
	cmpb	$1, %al
	jne	.L250
	movq	544(%rbp), %rdi
	movzbl	3(%rbx), %edx
	movq	%rbp, %rsi
	movq	(%rdi), %rax
	call	*8(%rax)
	movq	%rax, 544(%rbp)
	jmp	.L231
	.p2align 4,,10
	.p2align 3
.L233:
	leaq	.LC0(%rip), %rcx
	leaq	.LC16(%rip), %rdx
	movq	%r13, %rsi
	movq	%rbp, %rdi
	movl	$2, 4(%rsp)
	call	_ZN7openpal6Logger3LogERKNS_10LogFiltersEPKcS5_@PLT
	jmp	.L231
	.p2align 4,,10
	.p2align 3
.L241:
	movq	552(%rbp), %rdi
	movq	%rbp, %rsi
	movq	(%rdi), %rax
	call	*8(%rax)
	movq	%rax, 552(%rbp)
	jmp	.L231
	.p2align 4,,10
	.p2align 3
.L246:
	movq	552(%rbp), %rdi
	movq	%rbp, %rsi
	movq	(%rdi), %rax
	call	*(%rax)
	movq	%rax, 552(%rbp)
	jmp	.L231
	.p2align 4,,10
	.p2align 3
.L245:
	movq	552(%rbp), %rdi
	movzbl	2(%rbx), %edx
	movq	%rbp, %rsi
	movq	(%rdi), %rax
	call	*16(%rax)
	movq	%rax, 552(%rbp)
	jmp	.L231
	.p2align 4,,10
	.p2align 3
.L244:
	movq	552(%rbp), %rdi
	movzbl	2(%rbx), %edx
	movq	%r13, %rcx
	movq	%rbp, %rsi
	movq	(%rdi), %rax
	call	*24(%rax)
	movq	%rax, 552(%rbp)
	jmp	.L231
	.p2align 4,,10
	.p2align 3
.L243:
	movq	%r13, %rsi
	movq	%rbp, %rdi
	call	_ZN8opendnp311LinkContext10PushDataUpERKN7openpal6RSliceE@PLT
	jmp	.L231
	.p2align 4,,10
	.p2align 3
.L237:
	movq	544(%rbp), %rdi
	movzbl	3(%rbx), %edx
	movq	%rbp, %rsi
	movq	(%rdi), %rax
	call	*16(%rax)
	movq	%rax, 544(%rbp)
	jmp	.L231
	.p2align 4,,10
	.p2align 3
.L239:
	movq	544(%rbp), %rdi
	movzbl	3(%rbx), %edx
	movq	%rbp, %rsi
	movq	(%rdi), %rax
	call	*(%rax)
	movq	%rax, 544(%rbp)
	jmp	.L231
.L257:
	call	__stack_chk_fail@PLT
	.cfi_endproc
.LFE2467:
	.size	_ZN8opendnp311LinkContext7OnFrameERKNS_16LinkHeaderFieldsERKN7openpal6RSliceE, .-_ZN8opendnp311LinkContext7OnFrameERKNS_16LinkHeaderFieldsERKN7openpal6RSliceE
	.align 2
	.p2align 4
	.globl	_ZN8opendnp311LinkContext12TryPendingTxERN7openpal8SettableINS1_6RSliceEEEb
	.type	_ZN8opendnp311LinkContext12TryPendingTxERN7openpal8SettableINS1_6RSliceEEEb, @function
_ZN8opendnp311LinkContext12TryPendingTxERN7openpal8SettableINS1_6RSliceEEEb:
.LFB2469:
	.cfi_startproc
	endbr64
	pushq	%r12
	.cfi_def_cfa_offset 16
	.cfi_offset 12, -16
	pushq	%rbp
	.cfi_def_cfa_offset 24
	.cfi_offset 6, -24
	pushq	%rbx
	.cfi_def_cfa_offset 32
	.cfi_offset 3, -32
	subq	$48, %rsp
	.cfi_def_cfa_offset 80
	movq	%fs:40, %rax
	movq	%rax, 40(%rsp)
	xorl	%eax, %eax
	cmpb	$0, 448(%rdi)
	jne	.L259
	movzbl	(%rsi), %eax
	movq	%rsi, %rbp
	testb	%al, %al
	jne	.L267
.L259:
	movq	40(%rsp), %rdx
	subq	%fs:40, %rdx
	jne	.L268
	addq	$48, %rsp
	.cfi_remember_state
	.cfi_def_cfa_offset 32
	popq	%rbx
	.cfi_def_cfa_offset 24
	popq	%rbp
	.cfi_def_cfa_offset 16
	popq	%r12
	.cfi_def_cfa_offset 8
	ret
	.p2align 4,,10
	.p2align 3
.L267:
	.cfi_restore_state
	movq	%rdi, %rbx
	movq	16(%rsi), %rsi
	movl	8(%rbp), %r8d
	movb	%al, 15(%rsp)
	movq	536(%rdi), %rdi
	movl	%edx, %r12d
	movq	592(%rbx), %rdx
	movq	(%rdi), %rcx
	movq	%rsi, 24(%rsp)
	leaq	16(%rsp), %rsi
	movl	%r8d, 16(%rsp)
	call	*16(%rcx)
	movl	$2, %edx
	movb	$0, 0(%rbp)
	movzbl	15(%rsp), %eax
	subl	%r12d, %edx
	movb	%dl, 448(%rbx)
	jmp	.L259
.L268:
	call	__stack_chk_fail@PLT
	.cfi_endproc
.LFE2469:
	.size	_ZN8opendnp311LinkContext12TryPendingTxERN7openpal8SettableINS1_6RSliceEEEb, .-_ZN8opendnp311LinkContext12TryPendingTxERN7openpal8SettableINS1_6RSliceEEEb
	.section	.rodata.str1.1
.LC17:
	.string	"Unknown transmission callback"
	.section	.rodata.str1.8
	.align 8
.LC18:
	.string	"/home/saptarshi/Desktop/OpenPLC61850/utils/dnp3_src/cpp/libs/src/opendnp3/link/LinkContext.cpp(136)"
	.text
	.align 2
	.p2align 4
	.globl	_ZN8opendnp311LinkContext16OnTransmitResultEb
	.type	_ZN8opendnp311LinkContext16OnTransmitResultEb, @function
_ZN8opendnp311LinkContext16OnTransmitResultEb:
.LFB2433:
	.cfi_startproc
	endbr64
	pushq	%r12
	.cfi_def_cfa_offset 16
	.cfi_offset 12, -16
	pushq	%rbp
	.cfi_def_cfa_offset 24
	.cfi_offset 6, -24
	pushq	%rbx
	.cfi_def_cfa_offset 32
	.cfi_offset 3, -32
	movq	%rdi, %rbx
	subq	$16, %rsp
	.cfi_def_cfa_offset 48
	movzbl	448(%rdi), %r12d
	movq	%fs:40, %rax
	movq	%rax, 8(%rsp)
	xorl	%eax, %eax
	testb	%r12b, %r12b
	je	.L278
	movb	$0, 448(%rdi)
	movl	%esi, %ebp
	xorl	%edx, %edx
	leaq	352(%rdi), %rsi
	call	_ZN8opendnp311LinkContext12TryPendingTxERN7openpal8SettableINS1_6RSliceEEEb@PLT
	movl	$1, %edx
	leaq	328(%rbx), %rsi
	movq	%rbx, %rdi
	call	_ZN8opendnp311LinkContext12TryPendingTxERN7openpal8SettableINS1_6RSliceEEEb@PLT
	movzbl	%bpl, %edx
	cmpb	$1, %r12b
	je	.L279
	movq	552(%rbx), %rdi
	movq	%rbx, %rsi
	movq	(%rdi), %rax
	call	*32(%rax)
	movq	%rax, 552(%rbx)
	movl	$1, %eax
.L269:
	movq	8(%rsp), %rdx
	subq	%fs:40, %rdx
	jne	.L280
	addq	$16, %rsp
	.cfi_remember_state
	.cfi_def_cfa_offset 32
	popq	%rbx
	.cfi_def_cfa_offset 24
	popq	%rbp
	.cfi_def_cfa_offset 16
	popq	%r12
	.cfi_def_cfa_offset 8
	ret
	.p2align 4,,10
	.p2align 3
.L279:
	.cfi_restore_state
	movq	544(%rbx), %rdi
	movq	%rbx, %rsi
	movq	(%rdi), %rax
	call	*32(%rax)
	movq	%rax, 544(%rbx)
	movl	$1, %eax
	jmp	.L269
	.p2align 4,,10
	.p2align 3
.L278:
	leaq	376(%rdi), %rbp
	leaq	4(%rsp), %r12
	movl	$2, 4(%rsp)
	movq	%r12, %rsi
	movq	%rbp, %rdi
	call	_ZNK7openpal6Logger9IsEnabledERKNS_10LogFiltersE@PLT
	testb	%al, %al
	je	.L269
	leaq	.LC17(%rip), %rcx
	leaq	.LC18(%rip), %rdx
	movq	%r12, %rsi
	movq	%rbp, %rdi
	movl	$2, 4(%rsp)
	call	_ZN7openpal6Logger3LogERKNS_10LogFiltersEPKcS5_@PLT
	xorl	%eax, %eax
	jmp	.L269
.L280:
	call	__stack_chk_fail@PLT
	.cfi_endproc
.LFE2433:
	.size	_ZN8opendnp311LinkContext16OnTransmitResultEb, .-_ZN8opendnp311LinkContext16OnTransmitResultEb
	.section	.text._ZNSt16_Sp_counted_baseILN9__gnu_cxx12_Lock_policyE2EE10_M_releaseEv,"axG",@progbits,_ZNSt16_Sp_counted_baseILN9__gnu_cxx12_Lock_policyE2EE10_M_releaseEv,comdat
	.align 2
	.p2align 4
	.weak	_ZNSt16_Sp_counted_baseILN9__gnu_cxx12_Lock_policyE2EE10_M_releaseEv
	.type	_ZNSt16_Sp_counted_baseILN9__gnu_cxx12_Lock_policyE2EE10_M_releaseEv, @function
_ZNSt16_Sp_counted_baseILN9__gnu_cxx12_Lock_policyE2EE10_M_releaseEv:
.LFB2900:
	.cfi_startproc
	endbr64
	pushq	%rbp
	.cfi_def_cfa_offset 16
	.cfi_offset 6, -16
	movq	%rdi, %rbp
	pushq	%rbx
	.cfi_def_cfa_offset 24
	.cfi_offset 3, -24
	subq	$8, %rsp
	.cfi_def_cfa_offset 32
	movq	__libc_single_threaded@GOTPCREL(%rip), %rbx
	cmpb	$0, (%rbx)
	je	.L282
	movl	8(%rdi), %eax
	leal	-1(%rax), %edx
	movl	%edx, 8(%rdi)
.L283:
	cmpl	$1, %eax
	je	.L290
.L281:
	addq	$8, %rsp
	.cfi_remember_state
	.cfi_def_cfa_offset 24
	popq	%rbx
	.cfi_def_cfa_offset 16
	popq	%rbp
	.cfi_def_cfa_offset 8
	ret
	.p2align 4,,10
	.p2align 3
.L290:
	.cfi_restore_state
	movq	0(%rbp), %rax
	movq	%rbp, %rdi
	call	*16(%rax)
	cmpb	$0, (%rbx)
	je	.L286
	movl	12(%rbp), %eax
	leal	-1(%rax), %edx
	movl	%edx, 12(%rbp)
.L287:
	cmpl	$1, %eax
	jne	.L281
	movq	0(%rbp), %rax
	movq	%rbp, %rdi
	movq	24(%rax), %rax
	addq	$8, %rsp
	.cfi_remember_state
	.cfi_def_cfa_offset 24
	popq	%rbx
	.cfi_def_cfa_offset 16
	popq	%rbp
	.cfi_def_cfa_offset 8
	jmp	*%rax
	.p2align 4,,10
	.p2align 3
.L282:
	.cfi_restore_state
	movl	$-1, %eax
	lock xaddl	%eax, 8(%rdi)
	jmp	.L283
	.p2align 4,,10
	.p2align 3
.L286:
	movl	$-1, %eax
	lock xaddl	%eax, 12(%rbp)
	jmp	.L287
	.cfi_endproc
.LFE2900:
	.size	_ZNSt16_Sp_counted_baseILN9__gnu_cxx12_Lock_policyE2EE10_M_releaseEv, .-_ZNSt16_Sp_counted_baseILN9__gnu_cxx12_Lock_policyE2EE10_M_releaseEv
	.section	.text.unlikely
	.align 2
.LCOLDB19:
	.text
.LHOTB19:
	.align 2
	.p2align 4
	.globl	_ZN8opendnp311LinkContextC2ERKN7openpal6LoggerERKSt10shared_ptrINS1_9IExecutorEERKS5_INS_11IUpperLayerEERKS5_INS_13ILinkListenerEERNS_12ILinkSessionERKNS_10LinkConfigE
	.type	_ZN8opendnp311LinkContextC2ERKN7openpal6LoggerERKSt10shared_ptrINS1_9IExecutorEERKS5_INS_11IUpperLayerEERKS5_INS_13ILinkListenerEERNS_12ILinkSessionERKNS_10LinkConfigE, @function
_ZN8opendnp311LinkContextC2ERKN7openpal6LoggerERKSt10shared_ptrINS1_9IExecutorEERKS5_INS_11IUpperLayerEERKS5_INS_13ILinkListenerEERNS_12ILinkSessionERKNS_10LinkConfigE:
.LFB2428:
	.cfi_startproc
	.cfi_personality 0x9b,DW.ref.__gxx_personality_v0
	.cfi_lsda 0x1b,.LLSDA2428
	endbr64
	pushq	%r15
	.cfi_def_cfa_offset 16
	.cfi_offset 15, -16
	pushq	%r14
	.cfi_def_cfa_offset 24
	.cfi_offset 14, -24
	movq	%rsi, %r14
	pushq	%r13
	.cfi_def_cfa_offset 32
	.cfi_offset 13, -32
	movq	%rcx, %r13
	pushq	%r12
	.cfi_def_cfa_offset 40
	.cfi_offset 12, -40
	movq	%r8, %r12
	pushq	%rbp
	.cfi_def_cfa_offset 48
	.cfi_offset 6, -48
	movq	%rdx, %rbp
	pushq	%rbx
	.cfi_def_cfa_offset 56
	.cfi_offset 3, -56
	movq	%rdi, %rbx
	addq	$336, %rdi
	subq	$24, %rsp
	.cfi_def_cfa_offset 80
	movq	_ZTVN7openpal12StaticBufferILj292EEE@GOTPCREL(%rip), %rax
	movb	$0, -8(%rdi)
	movq	%r9, 8(%rsp)
	movq	80(%rsp), %r15
	addq	$16, %rax
	movq	%rax, -336(%rdi)
	movq	_ZTVN7openpal12StaticBufferILj10EEE@GOTPCREL(%rip), %rax
	addq	$16, %rax
	movq	%rax, -32(%rdi)
.LEHB4:
	call	_ZN7openpal6RSliceC1Ev@PLT
	movb	$0, 352(%rbx)
	leaq	360(%rbx), %rdi
	call	_ZN7openpal6RSliceC1Ev@PLT
.LEHE4:
	movdqu	(%r14), %xmm1
	movq	8(%r14), %rax
	movups	%xmm1, 376(%rbx)
	testq	%rax, %rax
	je	.L292
	movq	__libc_single_threaded@GOTPCREL(%rip), %rdx
	cmpb	$0, (%rdx)
	je	.L293
	addl	$1, 8(%rax)
.L292:
	movdqu	16(%r14), %xmm2
	movups	%xmm2, 392(%rbx)
	movq	400(%rbx), %rax
	testq	%rax, %rax
	je	.L294
	movq	__libc_single_threaded@GOTPCREL(%rip), %rdx
	cmpb	$0, (%rdx)
	je	.L295
	addl	$1, 8(%rax)
.L294:
	movdqu	(%r15), %xmm3
	movdqu	16(%r15), %xmm4
	movq	$0, 440(%rbx)
	movb	$0, 448(%rbx)
	movl	$0, 452(%rbx)
	movups	%xmm3, 408(%rbx)
	movups	%xmm4, 424(%rbx)
	movdqu	0(%rbp), %xmm5
	movq	8(%rbp), %rax
	movups	%xmm5, 456(%rbx)
	testq	%rax, %rax
	je	.L296
	movq	__libc_single_threaded@GOTPCREL(%rip), %rdx
	cmpb	$0, (%rdx)
	je	.L297
	addl	$1, 8(%rax)
.L296:
	leaq	472(%rbx), %r14
	movq	0(%rbp), %rsi
	movq	%r14, %rdi
.LEHB5:
	call	_ZN7openpal8TimerRefC1ERNS_9IExecutorE@PLT
.LEHE5:
	leaq	488(%rbx), %r15
	movq	0(%rbp), %rsi
	movq	%r15, %rdi
.LEHB6:
	call	_ZN7openpal8TimerRefC1ERNS_9IExecutorE@PLT
.LEHE6:
	movq	0(%rbp), %rdi
	movb	$0, 508(%rbx)
	movl	$0, 504(%rbx)
	movq	(%rdi), %rax
.LEHB7:
	call	*16(%rax)
.LEHE7:
	movq	%rax, 512(%rbx)
	pxor	%xmm0, %xmm0
	movq	_ZN8opendnp39PLLS_Idle8instanceE@GOTPCREL(%rip), %rax
	movq	$0, 536(%rbx)
	movq	%rax, 544(%rbx)
	movq	_ZN8opendnp313SLLS_NotReset8instanceE@GOTPCREL(%rip), %rax
	movups	%xmm0, 520(%rbx)
	movq	%rax, 552(%rbx)
	movq	(%r12), %rax
	movq	%rax, 560(%rbx)
	movq	8(%r12), %rax
	movq	%rax, 568(%rbx)
	testq	%rax, %rax
	je	.L298
	movq	__libc_single_threaded@GOTPCREL(%rip), %rdx
	cmpb	$0, (%rdx)
	je	.L299
	addl	$1, 8(%rax)
.L298:
	movdqu	0(%r13), %xmm6
	movups	%xmm6, 576(%rbx)
	movq	584(%rbx), %rax
	testq	%rax, %rax
	je	.L300
	movq	__libc_single_threaded@GOTPCREL(%rip), %rdx
	cmpb	$0, (%rdx)
	je	.L301
	addl	$1, 8(%rax)
.L300:
	movq	8(%rsp), %rax
	movq	%rax, 592(%rbx)
	addq	$24, %rsp
	.cfi_remember_state
	.cfi_def_cfa_offset 56
	popq	%rbx
	.cfi_def_cfa_offset 48
	popq	%rbp
	.cfi_def_cfa_offset 40
	popq	%r12
	.cfi_def_cfa_offset 32
	popq	%r13
	.cfi_def_cfa_offset 24
	popq	%r14
	.cfi_def_cfa_offset 16
	popq	%r15
	.cfi_def_cfa_offset 8
	ret
	.p2align 4,,10
	.p2align 3
.L293:
	.cfi_restore_state
	lock addl	$1, 8(%rax)
	jmp	.L292
	.p2align 4,,10
	.p2align 3
.L301:
	lock addl	$1, 8(%rax)
	jmp	.L300
	.p2align 4,,10
	.p2align 3
.L299:
	lock addl	$1, 8(%rax)
	jmp	.L298
	.p2align 4,,10
	.p2align 3
.L295:
	lock addl	$1, 8(%rax)
	jmp	.L294
	.p2align 4,,10
	.p2align 3
.L297:
	lock addl	$1, 8(%rax)
	jmp	.L296
.L308:
	endbr64
	movq	%rax, %rbp
	jmp	.L304
.L310:
	endbr64
	movq	%rax, %rbp
	jmp	.L302
.L309:
	endbr64
	movq	%rax, %rbp
	jmp	.L303
	.section	.gcc_except_table
.LLSDA2428:
	.byte	0xff
	.byte	0xff
	.byte	0x1
	.uleb128 .LLSDACSE2428-.LLSDACSB2428
.LLSDACSB2428:
	.uleb128 .LEHB4-.LFB2428
	.uleb128 .LEHE4-.LEHB4
	.uleb128 0
	.uleb128 0
	.uleb128 .LEHB5-.LFB2428
	.uleb128 .LEHE5-.LEHB5
	.uleb128 .L308-.LFB2428
	.uleb128 0
	.uleb128 .LEHB6-.LFB2428
	.uleb128 .LEHE6-.LEHB6
	.uleb128 .L309-.LFB2428
	.uleb128 0
	.uleb128 .LEHB7-.LFB2428
	.uleb128 .LEHE7-.LEHB7
	.uleb128 .L310-.LFB2428
	.uleb128 0
.LLSDACSE2428:
	.text
	.cfi_endproc
	.section	.text.unlikely
	.cfi_startproc
	.cfi_personality 0x9b,DW.ref.__gxx_personality_v0
	.cfi_lsda 0x1b,.LLSDAC2428
	.type	_ZN8opendnp311LinkContextC2ERKN7openpal6LoggerERKSt10shared_ptrINS1_9IExecutorEERKS5_INS_11IUpperLayerEERKS5_INS_13ILinkListenerEERNS_12ILinkSessionERKNS_10LinkConfigE.cold, @function
_ZN8opendnp311LinkContextC2ERKN7openpal6LoggerERKSt10shared_ptrINS1_9IExecutorEERKS5_INS_11IUpperLayerEERKS5_INS_13ILinkListenerEERNS_12ILinkSessionERKNS_10LinkConfigE.cold:
.LFSB2428:
.L302:
	.cfi_def_cfa_offset 80
	.cfi_offset 3, -56
	.cfi_offset 6, -48
	.cfi_offset 12, -40
	.cfi_offset 13, -32
	.cfi_offset 14, -24
	.cfi_offset 15, -16
	movq	%r15, %rdi
	call	_ZN7openpal8TimerRefD1Ev@PLT
.L303:
	movq	%r14, %rdi
	call	_ZN7openpal8TimerRefD1Ev@PLT
.L304:
	movq	464(%rbx), %rdi
	testq	%rdi, %rdi
	je	.L305
	call	_ZNSt16_Sp_counted_baseILN9__gnu_cxx12_Lock_policyE2EE10_M_releaseEv@PLT
.L305:
	movq	400(%rbx), %rdi
	testq	%rdi, %rdi
	je	.L306
	call	_ZNSt16_Sp_counted_baseILN9__gnu_cxx12_Lock_policyE2EE10_M_releaseEv@PLT
.L306:
	movq	384(%rbx), %rdi
	testq	%rdi, %rdi
	je	.L307
	call	_ZNSt16_Sp_counted_baseILN9__gnu_cxx12_Lock_policyE2EE10_M_releaseEv@PLT
.L307:
	movq	%rbp, %rdi
.LEHB8:
	call	_Unwind_Resume@PLT
.LEHE8:
	.cfi_endproc
.LFE2428:
	.section	.gcc_except_table
.LLSDAC2428:
	.byte	0xff
	.byte	0xff
	.byte	0x1
	.uleb128 .LLSDACSEC2428-.LLSDACSBC2428
.LLSDACSBC2428:
	.uleb128 .LEHB8-.LCOLDB19
	.uleb128 .LEHE8-.LEHB8
	.uleb128 0
	.uleb128 0
.LLSDACSEC2428:
	.section	.text.unlikely
	.text
	.size	_ZN8opendnp311LinkContextC2ERKN7openpal6LoggerERKSt10shared_ptrINS1_9IExecutorEERKS5_INS_11IUpperLayerEERKS5_INS_13ILinkListenerEERNS_12ILinkSessionERKNS_10LinkConfigE, .-_ZN8opendnp311LinkContextC2ERKN7openpal6LoggerERKSt10shared_ptrINS1_9IExecutorEERKS5_INS_11IUpperLayerEERKS5_INS_13ILinkListenerEERNS_12ILinkSessionERKNS_10LinkConfigE
	.section	.text.unlikely
	.size	_ZN8opendnp311LinkContextC2ERKN7openpal6LoggerERKSt10shared_ptrINS1_9IExecutorEERKS5_INS_11IUpperLayerEERKS5_INS_13ILinkListenerEERNS_12ILinkSessionERKNS_10LinkConfigE.cold, .-_ZN8opendnp311LinkContextC2ERKN7openpal6LoggerERKSt10shared_ptrINS1_9IExecutorEERKS5_INS_11IUpperLayerEERKS5_INS_13ILinkListenerEERNS_12ILinkSessionERKNS_10LinkConfigE.cold
.LCOLDE19:
	.text
.LHOTE19:
	.globl	_ZN8opendnp311LinkContextC1ERKN7openpal6LoggerERKSt10shared_ptrINS1_9IExecutorEERKS5_INS_11IUpperLayerEERKS5_INS_13ILinkListenerEERNS_12ILinkSessionERKNS_10LinkConfigE
	.set	_ZN8opendnp311LinkContextC1ERKN7openpal6LoggerERKSt10shared_ptrINS1_9IExecutorEERKS5_INS_11IUpperLayerEERKS5_INS_13ILinkListenerEERNS_12ILinkSessionERKNS_10LinkConfigE,_ZN8opendnp311LinkContextC2ERKN7openpal6LoggerERKSt10shared_ptrINS1_9IExecutorEERKS5_INS_11IUpperLayerEERKS5_INS_13ILinkListenerEERNS_12ILinkSessionERKNS_10LinkConfigE
	.section	.text.unlikely
	.align 2
.LCOLDB20:
	.text
.LHOTB20:
	.align 2
	.p2align 4
	.globl	_ZN8opendnp311LinkContext21CompleteSendOperationEb
	.type	_ZN8opendnp311LinkContext21CompleteSendOperationEb, @function
_ZN8opendnp311LinkContext21CompleteSendOperationEb:
.LFB2444:
	.cfi_startproc
	.cfi_personality 0x9b,DW.ref.__gxx_personality_v0
	.cfi_lsda 0x1b,.LLSDA2444
	endbr64
	pushq	%r14
	.cfi_def_cfa_offset 16
	.cfi_offset 14, -16
	pushq	%r13
	.cfi_def_cfa_offset 24
	.cfi_offset 13, -24
	pushq	%r12
	.cfi_def_cfa_offset 32
	.cfi_offset 12, -32
	pushq	%rbp
	.cfi_def_cfa_offset 40
	.cfi_offset 6, -40
	pushq	%rbx
	.cfi_def_cfa_offset 48
	.cfi_offset 3, -48
	movl	%esi, %ebx
	subq	$48, %rsp
	.cfi_def_cfa_offset 96
	movq	584(%rdi), %rbp
	movq	576(%rdi), %r12
	movq	%fs:40, %rax
	movq	%rax, 40(%rsp)
	xorl	%eax, %eax
	movq	$0, 440(%rdi)
	testq	%rbp, %rbp
	je	.L338
	movq	__libc_single_threaded@GOTPCREL(%rip), %rax
	cmpb	$0, (%rax)
	je	.L339
	addl	$1, 8(%rbp)
.L338:
	movq	456(%rdi), %r13
	pxor	%xmm0, %xmm0
	movl	$24, %edi
	movq	0(%r13), %rax
	movaps	%xmm0, (%rsp)
	movq	$0, 16(%rsp)
	movq	$0, 24(%rsp)
	movq	40(%rax), %r14
.LEHB9:
	call	_Znwm@PLT
.LEHE9:
	movq	%r12, %xmm0
	movq	%rbp, %xmm1
	punpcklqdq	%xmm1, %xmm0
	movups	%xmm0, (%rax)
	testq	%rbp, %rbp
	je	.L340
	movq	__libc_single_threaded@GOTPCREL(%rip), %rdx
	cmpb	$0, (%rdx)
	je	.L341
	addl	$1, 8(%rbp)
.L340:
	movb	%bl, 16(%rax)
	leaq	_ZNSt17_Function_handlerIFvvEZN8opendnp311LinkContext21CompleteSendOperationEbEUlvE_E10_M_managerERSt9_Any_dataRKS5_St18_Manager_operation(%rip), %rcx
	movq	%rsp, %r12
	movq	%r13, %rdi
	movq	%rax, (%rsp)
	leaq	_ZNSt17_Function_handlerIFvvEZN8opendnp311LinkContext21CompleteSendOperationEbEUlvE_E9_M_invokeERKSt9_Any_data(%rip), %rax
	movq	%rcx, %xmm0
	movq	%r12, %rsi
	movq	%rax, %xmm2
	punpcklqdq	%xmm2, %xmm0
	movaps	%xmm0, 16(%rsp)
.LEHB10:
	call	*%r14
.LEHE10:
	movq	16(%rsp), %rax
	testq	%rax, %rax
	je	.L346
	movl	$3, %edx
	movq	%r12, %rsi
	movq	%r12, %rdi
	call	*%rax
.L346:
	testq	%rbp, %rbp
	je	.L337
	movq	__libc_single_threaded@GOTPCREL(%rip), %rbx
	cmpb	$0, (%rbx)
	je	.L349
	movl	8(%rbp), %eax
	leal	-1(%rax), %edx
	movl	%edx, 8(%rbp)
.L350:
	cmpl	$1, %eax
	je	.L382
.L337:
	movq	40(%rsp), %rax
	subq	%fs:40, %rax
	jne	.L381
	addq	$48, %rsp
	.cfi_remember_state
	.cfi_def_cfa_offset 48
	popq	%rbx
	.cfi_def_cfa_offset 40
	popq	%rbp
	.cfi_def_cfa_offset 32
	popq	%r12
	.cfi_def_cfa_offset 24
	popq	%r13
	.cfi_def_cfa_offset 16
	popq	%r14
	.cfi_def_cfa_offset 8
	ret
	.p2align 4,,10
	.p2align 3
.L339:
	.cfi_restore_state
	lock addl	$1, 8(%rbp)
	jmp	.L338
	.p2align 4,,10
	.p2align 3
.L341:
	lock addl	$1, 8(%rbp)
	jmp	.L340
	.p2align 4,,10
	.p2align 3
.L382:
	movq	0(%rbp), %rax
	movq	%rbp, %rdi
	call	*16(%rax)
	cmpb	$0, (%rbx)
	je	.L352
	movl	12(%rbp), %eax
	leal	-1(%rax), %edx
	movl	%edx, 12(%rbp)
.L353:
	cmpl	$1, %eax
	jne	.L337
	movq	40(%rsp), %rax
	subq	%fs:40, %rax
	jne	.L381
	movq	0(%rbp), %rax
	movq	%rbp, %rdi
	movq	24(%rax), %rax
	addq	$48, %rsp
	.cfi_remember_state
	.cfi_def_cfa_offset 48
	popq	%rbx
	.cfi_def_cfa_offset 40
	popq	%rbp
	.cfi_def_cfa_offset 32
	popq	%r12
	.cfi_def_cfa_offset 24
	popq	%r13
	.cfi_def_cfa_offset 16
	popq	%r14
	.cfi_def_cfa_offset 8
	jmp	*%rax
	.p2align 4,,10
	.p2align 3
.L349:
	.cfi_restore_state
	movl	$-1, %eax
	lock xaddl	%eax, 8(%rbp)
	jmp	.L350
	.p2align 4,,10
	.p2align 3
.L352:
	movl	$-1, %eax
	lock xaddl	%eax, 12(%rbp)
	jmp	.L353
.L381:
	call	__stack_chk_fail@PLT
.L360:
	endbr64
	movq	%rax, %r12
	jmp	.L343
.L359:
	endbr64
	movq	%rax, %rbx
	jmp	.L355
	.section	.gcc_except_table
.LLSDA2444:
	.byte	0xff
	.byte	0xff
	.byte	0x1
	.uleb128 .LLSDACSE2444-.LLSDACSB2444
.LLSDACSB2444:
	.uleb128 .LEHB9-.LFB2444
	.uleb128 .LEHE9-.LEHB9
	.uleb128 .L360-.LFB2444
	.uleb128 0
	.uleb128 .LEHB10-.LFB2444
	.uleb128 .LEHE10-.LEHB10
	.uleb128 .L359-.LFB2444
	.uleb128 0
.LLSDACSE2444:
	.text
	.cfi_endproc
	.section	.text.unlikely
	.cfi_startproc
	.cfi_personality 0x9b,DW.ref.__gxx_personality_v0
	.cfi_lsda 0x1b,.LLSDAC2444
	.type	_ZN8opendnp311LinkContext21CompleteSendOperationEb.cold, @function
_ZN8opendnp311LinkContext21CompleteSendOperationEb.cold:
.LFSB2444:
.L343:
	.cfi_def_cfa_offset 96
	.cfi_offset 3, -48
	.cfi_offset 6, -40
	.cfi_offset 12, -32
	.cfi_offset 13, -24
	.cfi_offset 14, -16
	movq	16(%rsp), %rax
	testq	%rax, %rax
	je	.L345
	movq	%rsp, %rdi
	movl	$3, %edx
	movq	%rdi, %rsi
	call	*%rax
.L345:
	testq	%rbp, %rbp
	je	.L357
	movq	%rbp, %rdi
	call	_ZNSt16_Sp_counted_baseILN9__gnu_cxx12_Lock_policyE2EE10_M_releaseEv@PLT
.L357:
	movq	%r12, %rdi
.LEHB11:
	call	_Unwind_Resume@PLT
.LEHE11:
.L355:
	movq	16(%rsp), %rax
	testq	%rax, %rax
	je	.L356
	movl	$3, %edx
	movq	%r12, %rsi
	movq	%r12, %rdi
	call	*%rax
.L356:
	movq	%rbx, %r12
	jmp	.L345
	.cfi_endproc
.LFE2444:
	.section	.gcc_except_table
.LLSDAC2444:
	.byte	0xff
	.byte	0xff
	.byte	0x1
	.uleb128 .LLSDACSEC2444-.LLSDACSBC2444
.LLSDACSBC2444:
	.uleb128 .LEHB11-.LCOLDB20
	.uleb128 .LEHE11-.LEHB11
	.uleb128 0
	.uleb128 0
.LLSDACSEC2444:
	.section	.text.unlikely
	.text
	.size	_ZN8opendnp311LinkContext21CompleteSendOperationEb, .-_ZN8opendnp311LinkContext21CompleteSendOperationEb
	.section	.text.unlikely
	.size	_ZN8opendnp311LinkContext21CompleteSendOperationEb.cold, .-_ZN8opendnp311LinkContext21CompleteSendOperationEb.cold
.LCOLDE20:
	.text
.LHOTE20:
	.weak	_ZTSN7openpal12StaticBufferILj292EEE
	.section	.rodata._ZTSN7openpal12StaticBufferILj292EEE,"aG",@progbits,_ZTSN7openpal12StaticBufferILj292EEE,comdat
	.align 32
	.type	_ZTSN7openpal12StaticBufferILj292EEE, @object
	.size	_ZTSN7openpal12StaticBufferILj292EEE, 33
_ZTSN7openpal12StaticBufferILj292EEE:
	.string	"N7openpal12StaticBufferILj292EEE"
	.weak	_ZTIN7openpal12StaticBufferILj292EEE
	.section	.data.rel.ro._ZTIN7openpal12StaticBufferILj292EEE,"awG",@progbits,_ZTIN7openpal12StaticBufferILj292EEE,comdat
	.align 8
	.type	_ZTIN7openpal12StaticBufferILj292EEE, @object
	.size	_ZTIN7openpal12StaticBufferILj292EEE, 16
_ZTIN7openpal12StaticBufferILj292EEE:
	.quad	_ZTVN10__cxxabiv117__class_type_infoE+16
	.quad	_ZTSN7openpal12StaticBufferILj292EEE
	.weak	_ZTSN7openpal12StaticBufferILj10EEE
	.section	.rodata._ZTSN7openpal12StaticBufferILj10EEE,"aG",@progbits,_ZTSN7openpal12StaticBufferILj10EEE,comdat
	.align 32
	.type	_ZTSN7openpal12StaticBufferILj10EEE, @object
	.size	_ZTSN7openpal12StaticBufferILj10EEE, 32
_ZTSN7openpal12StaticBufferILj10EEE:
	.string	"N7openpal12StaticBufferILj10EEE"
	.weak	_ZTIN7openpal12StaticBufferILj10EEE
	.section	.data.rel.ro._ZTIN7openpal12StaticBufferILj10EEE,"awG",@progbits,_ZTIN7openpal12StaticBufferILj10EEE,comdat
	.align 8
	.type	_ZTIN7openpal12StaticBufferILj10EEE, @object
	.size	_ZTIN7openpal12StaticBufferILj10EEE, 16
_ZTIN7openpal12StaticBufferILj10EEE:
	.quad	_ZTVN10__cxxabiv117__class_type_infoE+16
	.quad	_ZTSN7openpal12StaticBufferILj10EEE
	.section	.data.rel.ro,"aw"
	.align 8
	.type	_ZTIZN8opendnp311LinkContext21CompleteSendOperationEbEUlvE_, @object
	.size	_ZTIZN8opendnp311LinkContext21CompleteSendOperationEbEUlvE_, 16
_ZTIZN8opendnp311LinkContext21CompleteSendOperationEbEUlvE_:
	.quad	_ZTVN10__cxxabiv117__class_type_infoE+16
	.quad	_ZTSZN8opendnp311LinkContext21CompleteSendOperationEbEUlvE_
	.section	.rodata
	.align 32
	.type	_ZTSZN8opendnp311LinkContext21CompleteSendOperationEbEUlvE_, @object
	.size	_ZTSZN8opendnp311LinkContext21CompleteSendOperationEbEUlvE_, 57
_ZTSZN8opendnp311LinkContext21CompleteSendOperationEbEUlvE_:
	.string	"*ZN8opendnp311LinkContext21CompleteSendOperationEbEUlvE_"
	.section	.data.rel.ro
	.align 8
	.type	_ZTIZN7openpal8TimerRef5StartIZN8opendnp311LinkContext18StartResponseTimerEvEUlvE_EEbRKNS_12TimeDurationERKT_EUlvE_, @object
	.size	_ZTIZN7openpal8TimerRef5StartIZN8opendnp311LinkContext18StartResponseTimerEvEUlvE_EEbRKNS_12TimeDurationERKT_EUlvE_, 16
_ZTIZN7openpal8TimerRef5StartIZN8opendnp311LinkContext18StartResponseTimerEvEUlvE_EEbRKNS_12TimeDurationERKT_EUlvE_:
	.quad	_ZTVN10__cxxabiv117__class_type_infoE+16
	.quad	_ZTSZN7openpal8TimerRef5StartIZN8opendnp311LinkContext18StartResponseTimerEvEUlvE_EEbRKNS_12TimeDurationERKT_EUlvE_
	.section	.rodata
	.align 32
	.type	_ZTSZN7openpal8TimerRef5StartIZN8opendnp311LinkContext18StartResponseTimerEvEUlvE_EEbRKNS_12TimeDurationERKT_EUlvE_, @object
	.size	_ZTSZN7openpal8TimerRef5StartIZN8opendnp311LinkContext18StartResponseTimerEvEUlvE_EEbRKNS_12TimeDurationERKT_EUlvE_, 113
_ZTSZN7openpal8TimerRef5StartIZN8opendnp311LinkContext18StartResponseTimerEvEUlvE_EEbRKNS_12TimeDurationERKT_EUlvE_:
	.string	"*ZN7openpal8TimerRef5StartIZN8opendnp311LinkContext18StartResponseTimerEvEUlvE_EEbRKNS_12TimeDurationERKT_EUlvE_"
	.section	.data.rel.ro
	.align 8
	.type	_ZTIZN7openpal8TimerRef5StartIZN8opendnp311LinkContext19StartKeepAliveTimerERKNS_18MonotonicTimestampEEUlvE_EEbS6_RKT_EUlvE_, @object
	.size	_ZTIZN7openpal8TimerRef5StartIZN8opendnp311LinkContext19StartKeepAliveTimerERKNS_18MonotonicTimestampEEUlvE_EEbS6_RKT_EUlvE_, 16
_ZTIZN7openpal8TimerRef5StartIZN8opendnp311LinkContext19StartKeepAliveTimerERKNS_18MonotonicTimestampEEUlvE_EEbS6_RKT_EUlvE_:
	.quad	_ZTVN10__cxxabiv117__class_type_infoE+16
	.quad	_ZTSZN7openpal8TimerRef5StartIZN8opendnp311LinkContext19StartKeepAliveTimerERKNS_18MonotonicTimestampEEUlvE_EEbS6_RKT_EUlvE_
	.section	.rodata
	.align 32
	.type	_ZTSZN7openpal8TimerRef5StartIZN8opendnp311LinkContext19StartKeepAliveTimerERKNS_18MonotonicTimestampEEUlvE_EEbS6_RKT_EUlvE_, @object
	.size	_ZTSZN7openpal8TimerRef5StartIZN8opendnp311LinkContext19StartKeepAliveTimerERKNS_18MonotonicTimestampEEUlvE_EEbS6_RKT_EUlvE_, 122
_ZTSZN7openpal8TimerRef5StartIZN8opendnp311LinkContext19StartKeepAliveTimerERKNS_18MonotonicTimestampEEUlvE_EEbS6_RKT_EUlvE_:
	.string	"*ZN7openpal8TimerRef5StartIZN8opendnp311LinkContext19StartKeepAliveTimerERKNS_18MonotonicTimestampEEUlvE_EEbS6_RKT_EUlvE_"
	.weak	_ZTVN7openpal12StaticBufferILj292EEE
	.section	.data.rel.ro._ZTVN7openpal12StaticBufferILj292EEE,"awG",@progbits,_ZTVN7openpal12StaticBufferILj292EEE,comdat
	.align 8
	.type	_ZTVN7openpal12StaticBufferILj292EEE, @object
	.size	_ZTVN7openpal12StaticBufferILj292EEE, 32
_ZTVN7openpal12StaticBufferILj292EEE:
	.quad	0
	.quad	_ZTIN7openpal12StaticBufferILj292EEE
	.quad	_ZN7openpal12StaticBufferILj292EED1Ev
	.quad	_ZN7openpal12StaticBufferILj292EED0Ev
	.weak	_ZTVN7openpal12StaticBufferILj10EEE
	.section	.data.rel.ro._ZTVN7openpal12StaticBufferILj10EEE,"awG",@progbits,_ZTVN7openpal12StaticBufferILj10EEE,comdat
	.align 8
	.type	_ZTVN7openpal12StaticBufferILj10EEE, @object
	.size	_ZTVN7openpal12StaticBufferILj10EEE, 32
_ZTVN7openpal12StaticBufferILj10EEE:
	.quad	0
	.quad	_ZTIN7openpal12StaticBufferILj10EEE
	.quad	_ZN7openpal12StaticBufferILj10EED1Ev
	.quad	_ZN7openpal12StaticBufferILj10EED0Ev
	.hidden	DW.ref.__gxx_personality_v0
	.weak	DW.ref.__gxx_personality_v0
	.section	.data.rel.local.DW.ref.__gxx_personality_v0,"awG",@progbits,DW.ref.__gxx_personality_v0,comdat
	.align 8
	.type	DW.ref.__gxx_personality_v0, @object
	.size	DW.ref.__gxx_personality_v0, 8
DW.ref.__gxx_personality_v0:
	.quad	__gxx_personality_v0
	.ident	"GCC: (Ubuntu 11.4.0-1ubuntu1~22.04) 11.4.0"
	.section	.note.GNU-stack,"",@progbits
	.section	.note.gnu.property,"a"
	.align 8
	.long	1f - 0f
	.long	4f - 1f
	.long	5
0:
	.string	"GNU"
1:
	.align 8
	.long	0xc0000002
	.long	3f - 2f
2:
	.long	0x3
3:
	.align 8
4:
