	.file	"Database.cpp"
	.text
	.section	.text._ZN8opendnp38Database17GetResponseLoaderEv,"axG",@progbits,_ZN8opendnp38Database17GetResponseLoaderEv,comdat
	.align 2
	.p2align 4
	.weak	_ZN8opendnp38Database17GetResponseLoaderEv
	.type	_ZN8opendnp38Database17GetResponseLoaderEv, @function
_ZN8opendnp38Database17GetResponseLoaderEv:
.LFB345:
	.cfi_startproc
	endbr64
	leaq	32(%rdi), %rax
	ret
	.cfi_endproc
.LFE345:
	.size	_ZN8opendnp38Database17GetResponseLoaderEv, .-_ZN8opendnp38Database17GetResponseLoaderEv
	.section	.text._ZN8opendnp38Database17GetStaticSelectorEv,"axG",@progbits,_ZN8opendnp38Database17GetStaticSelectorEv,comdat
	.align 2
	.p2align 4
	.weak	_ZN8opendnp38Database17GetStaticSelectorEv
	.type	_ZN8opendnp38Database17GetStaticSelectorEv, @function
_ZN8opendnp38Database17GetStaticSelectorEv:
.LFB346:
	.cfi_startproc
	endbr64
	leaq	24(%rdi), %rax
	ret
	.cfi_endproc
.LFE346:
	.size	_ZN8opendnp38Database17GetStaticSelectorEv, .-_ZN8opendnp38Database17GetStaticSelectorEv
	.section	.text._ZN8opendnp38Database16GetClassAssignerEv,"axG",@progbits,_ZN8opendnp38Database16GetClassAssignerEv,comdat
	.align 2
	.p2align 4
	.weak	_ZN8opendnp38Database16GetClassAssignerEv
	.type	_ZN8opendnp38Database16GetClassAssignerEv, @function
_ZN8opendnp38Database16GetClassAssignerEv:
.LFB347:
	.cfi_startproc
	endbr64
	leaq	40(%rdi), %rax
	ret
	.cfi_endproc
.LFE347:
	.size	_ZN8opendnp38Database16GetClassAssignerEv, .-_ZN8opendnp38Database16GetClassAssignerEv
	.section	.text._ZN7openpal5ArrayIN8opendnp34CellINS1_19TimeAndIntervalSpecEEEtED2Ev,"axG",@progbits,_ZN7openpal5ArrayIN8opendnp34CellINS1_19TimeAndIntervalSpecEEEtED5Ev,comdat
	.align 2
	.p2align 4
	.weak	_ZN7openpal5ArrayIN8opendnp34CellINS1_19TimeAndIntervalSpecEEEtED2Ev
	.type	_ZN7openpal5ArrayIN8opendnp34CellINS1_19TimeAndIntervalSpecEEEtED2Ev, @function
_ZN7openpal5ArrayIN8opendnp34CellINS1_19TimeAndIntervalSpecEEEtED2Ev:
.LFB2770:
	.cfi_startproc
	endbr64
	movq	_ZTVN7openpal5ArrayIN8opendnp34CellINS1_19TimeAndIntervalSpecEEEtEE@GOTPCREL(%rip), %rax
	addq	$16, %rax
	movq	%rax, (%rdi)
	movq	16(%rdi), %rdi
	testq	%rdi, %rdi
	je	.L5
	jmp	_ZdaPv@PLT
	.p2align 4,,10
	.p2align 3
.L5:
	ret
	.cfi_endproc
.LFE2770:
	.size	_ZN7openpal5ArrayIN8opendnp34CellINS1_19TimeAndIntervalSpecEEEtED2Ev, .-_ZN7openpal5ArrayIN8opendnp34CellINS1_19TimeAndIntervalSpecEEEtED2Ev
	.weak	_ZN7openpal5ArrayIN8opendnp34CellINS1_19TimeAndIntervalSpecEEEtED1Ev
	.set	_ZN7openpal5ArrayIN8opendnp34CellINS1_19TimeAndIntervalSpecEEEtED1Ev,_ZN7openpal5ArrayIN8opendnp34CellINS1_19TimeAndIntervalSpecEEEtED2Ev
	.section	.text._ZN7openpal5ArrayIN8opendnp34CellINS1_19TimeAndIntervalSpecEEEtED0Ev,"axG",@progbits,_ZN7openpal5ArrayIN8opendnp34CellINS1_19TimeAndIntervalSpecEEEtED5Ev,comdat
	.align 2
	.p2align 4
	.weak	_ZN7openpal5ArrayIN8opendnp34CellINS1_19TimeAndIntervalSpecEEEtED0Ev
	.type	_ZN7openpal5ArrayIN8opendnp34CellINS1_19TimeAndIntervalSpecEEEtED0Ev, @function
_ZN7openpal5ArrayIN8opendnp34CellINS1_19TimeAndIntervalSpecEEEtED0Ev:
.LFB2772:
	.cfi_startproc
	endbr64
	movq	_ZTVN7openpal5ArrayIN8opendnp34CellINS1_19TimeAndIntervalSpecEEEtEE@GOTPCREL(%rip), %rax
	pushq	%rbp
	.cfi_def_cfa_offset 16
	.cfi_offset 6, -16
	movq	%rdi, %rbp
	addq	$16, %rax
	movq	%rax, (%rdi)
	movq	16(%rdi), %rdi
	testq	%rdi, %rdi
	je	.L8
	call	_ZdaPv@PLT
.L8:
	movq	%rbp, %rdi
	movl	$24, %esi
	popq	%rbp
	.cfi_def_cfa_offset 8
	jmp	_ZdlPvm@PLT
	.cfi_endproc
.LFE2772:
	.size	_ZN7openpal5ArrayIN8opendnp34CellINS1_19TimeAndIntervalSpecEEEtED0Ev, .-_ZN7openpal5ArrayIN8opendnp34CellINS1_19TimeAndIntervalSpecEEEtED0Ev
	.section	.text._ZN7openpal5ArrayIN8opendnp34CellINS1_22AnalogOutputStatusSpecEEEtED2Ev,"axG",@progbits,_ZN7openpal5ArrayIN8opendnp34CellINS1_22AnalogOutputStatusSpecEEEtED5Ev,comdat
	.align 2
	.p2align 4
	.weak	_ZN7openpal5ArrayIN8opendnp34CellINS1_22AnalogOutputStatusSpecEEEtED2Ev
	.type	_ZN7openpal5ArrayIN8opendnp34CellINS1_22AnalogOutputStatusSpecEEEtED2Ev, @function
_ZN7openpal5ArrayIN8opendnp34CellINS1_22AnalogOutputStatusSpecEEEtED2Ev:
.LFB2766:
	.cfi_startproc
	endbr64
	movq	_ZTVN7openpal5ArrayIN8opendnp34CellINS1_22AnalogOutputStatusSpecEEEtEE@GOTPCREL(%rip), %rax
	addq	$16, %rax
	movq	%rax, (%rdi)
	movq	16(%rdi), %rdi
	testq	%rdi, %rdi
	je	.L13
	jmp	_ZdaPv@PLT
	.p2align 4,,10
	.p2align 3
.L13:
	ret
	.cfi_endproc
.LFE2766:
	.size	_ZN7openpal5ArrayIN8opendnp34CellINS1_22AnalogOutputStatusSpecEEEtED2Ev, .-_ZN7openpal5ArrayIN8opendnp34CellINS1_22AnalogOutputStatusSpecEEEtED2Ev
	.weak	_ZN7openpal5ArrayIN8opendnp34CellINS1_22AnalogOutputStatusSpecEEEtED1Ev
	.set	_ZN7openpal5ArrayIN8opendnp34CellINS1_22AnalogOutputStatusSpecEEEtED1Ev,_ZN7openpal5ArrayIN8opendnp34CellINS1_22AnalogOutputStatusSpecEEEtED2Ev
	.section	.text._ZN7openpal5ArrayIN8opendnp34CellINS1_22AnalogOutputStatusSpecEEEtED0Ev,"axG",@progbits,_ZN7openpal5ArrayIN8opendnp34CellINS1_22AnalogOutputStatusSpecEEEtED5Ev,comdat
	.align 2
	.p2align 4
	.weak	_ZN7openpal5ArrayIN8opendnp34CellINS1_22AnalogOutputStatusSpecEEEtED0Ev
	.type	_ZN7openpal5ArrayIN8opendnp34CellINS1_22AnalogOutputStatusSpecEEEtED0Ev, @function
_ZN7openpal5ArrayIN8opendnp34CellINS1_22AnalogOutputStatusSpecEEEtED0Ev:
.LFB2768:
	.cfi_startproc
	endbr64
	movq	_ZTVN7openpal5ArrayIN8opendnp34CellINS1_22AnalogOutputStatusSpecEEEtEE@GOTPCREL(%rip), %rax
	pushq	%rbp
	.cfi_def_cfa_offset 16
	.cfi_offset 6, -16
	movq	%rdi, %rbp
	addq	$16, %rax
	movq	%rax, (%rdi)
	movq	16(%rdi), %rdi
	testq	%rdi, %rdi
	je	.L16
	call	_ZdaPv@PLT
.L16:
	movq	%rbp, %rdi
	movl	$24, %esi
	popq	%rbp
	.cfi_def_cfa_offset 8
	jmp	_ZdlPvm@PLT
	.cfi_endproc
.LFE2768:
	.size	_ZN7openpal5ArrayIN8opendnp34CellINS1_22AnalogOutputStatusSpecEEEtED0Ev, .-_ZN7openpal5ArrayIN8opendnp34CellINS1_22AnalogOutputStatusSpecEEEtED0Ev
	.section	.text._ZN7openpal5ArrayIN8opendnp34CellINS1_22BinaryOutputStatusSpecEEEtED2Ev,"axG",@progbits,_ZN7openpal5ArrayIN8opendnp34CellINS1_22BinaryOutputStatusSpecEEEtED5Ev,comdat
	.align 2
	.p2align 4
	.weak	_ZN7openpal5ArrayIN8opendnp34CellINS1_22BinaryOutputStatusSpecEEEtED2Ev
	.type	_ZN7openpal5ArrayIN8opendnp34CellINS1_22BinaryOutputStatusSpecEEEtED2Ev, @function
_ZN7openpal5ArrayIN8opendnp34CellINS1_22BinaryOutputStatusSpecEEEtED2Ev:
.LFB2762:
	.cfi_startproc
	endbr64
	movq	_ZTVN7openpal5ArrayIN8opendnp34CellINS1_22BinaryOutputStatusSpecEEEtEE@GOTPCREL(%rip), %rax
	addq	$16, %rax
	movq	%rax, (%rdi)
	movq	16(%rdi), %rdi
	testq	%rdi, %rdi
	je	.L21
	jmp	_ZdaPv@PLT
	.p2align 4,,10
	.p2align 3
.L21:
	ret
	.cfi_endproc
.LFE2762:
	.size	_ZN7openpal5ArrayIN8opendnp34CellINS1_22BinaryOutputStatusSpecEEEtED2Ev, .-_ZN7openpal5ArrayIN8opendnp34CellINS1_22BinaryOutputStatusSpecEEEtED2Ev
	.weak	_ZN7openpal5ArrayIN8opendnp34CellINS1_22BinaryOutputStatusSpecEEEtED1Ev
	.set	_ZN7openpal5ArrayIN8opendnp34CellINS1_22BinaryOutputStatusSpecEEEtED1Ev,_ZN7openpal5ArrayIN8opendnp34CellINS1_22BinaryOutputStatusSpecEEEtED2Ev
	.section	.text._ZN7openpal5ArrayIN8opendnp34CellINS1_22BinaryOutputStatusSpecEEEtED0Ev,"axG",@progbits,_ZN7openpal5ArrayIN8opendnp34CellINS1_22BinaryOutputStatusSpecEEEtED5Ev,comdat
	.align 2
	.p2align 4
	.weak	_ZN7openpal5ArrayIN8opendnp34CellINS1_22BinaryOutputStatusSpecEEEtED0Ev
	.type	_ZN7openpal5ArrayIN8opendnp34CellINS1_22BinaryOutputStatusSpecEEEtED0Ev, @function
_ZN7openpal5ArrayIN8opendnp34CellINS1_22BinaryOutputStatusSpecEEEtED0Ev:
.LFB2764:
	.cfi_startproc
	endbr64
	movq	_ZTVN7openpal5ArrayIN8opendnp34CellINS1_22BinaryOutputStatusSpecEEEtEE@GOTPCREL(%rip), %rax
	pushq	%rbp
	.cfi_def_cfa_offset 16
	.cfi_offset 6, -16
	movq	%rdi, %rbp
	addq	$16, %rax
	movq	%rax, (%rdi)
	movq	16(%rdi), %rdi
	testq	%rdi, %rdi
	je	.L24
	call	_ZdaPv@PLT
.L24:
	movq	%rbp, %rdi
	movl	$24, %esi
	popq	%rbp
	.cfi_def_cfa_offset 8
	jmp	_ZdlPvm@PLT
	.cfi_endproc
.LFE2764:
	.size	_ZN7openpal5ArrayIN8opendnp34CellINS1_22BinaryOutputStatusSpecEEEtED0Ev, .-_ZN7openpal5ArrayIN8opendnp34CellINS1_22BinaryOutputStatusSpecEEEtED0Ev
	.section	.text._ZN7openpal5ArrayIN8opendnp34CellINS1_17FrozenCounterSpecEEEtED2Ev,"axG",@progbits,_ZN7openpal5ArrayIN8opendnp34CellINS1_17FrozenCounterSpecEEEtED5Ev,comdat
	.align 2
	.p2align 4
	.weak	_ZN7openpal5ArrayIN8opendnp34CellINS1_17FrozenCounterSpecEEEtED2Ev
	.type	_ZN7openpal5ArrayIN8opendnp34CellINS1_17FrozenCounterSpecEEEtED2Ev, @function
_ZN7openpal5ArrayIN8opendnp34CellINS1_17FrozenCounterSpecEEEtED2Ev:
.LFB2758:
	.cfi_startproc
	endbr64
	movq	_ZTVN7openpal5ArrayIN8opendnp34CellINS1_17FrozenCounterSpecEEEtEE@GOTPCREL(%rip), %rax
	addq	$16, %rax
	movq	%rax, (%rdi)
	movq	16(%rdi), %rdi
	testq	%rdi, %rdi
	je	.L29
	jmp	_ZdaPv@PLT
	.p2align 4,,10
	.p2align 3
.L29:
	ret
	.cfi_endproc
.LFE2758:
	.size	_ZN7openpal5ArrayIN8opendnp34CellINS1_17FrozenCounterSpecEEEtED2Ev, .-_ZN7openpal5ArrayIN8opendnp34CellINS1_17FrozenCounterSpecEEEtED2Ev
	.weak	_ZN7openpal5ArrayIN8opendnp34CellINS1_17FrozenCounterSpecEEEtED1Ev
	.set	_ZN7openpal5ArrayIN8opendnp34CellINS1_17FrozenCounterSpecEEEtED1Ev,_ZN7openpal5ArrayIN8opendnp34CellINS1_17FrozenCounterSpecEEEtED2Ev
	.section	.text._ZN7openpal5ArrayIN8opendnp34CellINS1_17FrozenCounterSpecEEEtED0Ev,"axG",@progbits,_ZN7openpal5ArrayIN8opendnp34CellINS1_17FrozenCounterSpecEEEtED5Ev,comdat
	.align 2
	.p2align 4
	.weak	_ZN7openpal5ArrayIN8opendnp34CellINS1_17FrozenCounterSpecEEEtED0Ev
	.type	_ZN7openpal5ArrayIN8opendnp34CellINS1_17FrozenCounterSpecEEEtED0Ev, @function
_ZN7openpal5ArrayIN8opendnp34CellINS1_17FrozenCounterSpecEEEtED0Ev:
.LFB2760:
	.cfi_startproc
	endbr64
	movq	_ZTVN7openpal5ArrayIN8opendnp34CellINS1_17FrozenCounterSpecEEEtEE@GOTPCREL(%rip), %rax
	pushq	%rbp
	.cfi_def_cfa_offset 16
	.cfi_offset 6, -16
	movq	%rdi, %rbp
	addq	$16, %rax
	movq	%rax, (%rdi)
	movq	16(%rdi), %rdi
	testq	%rdi, %rdi
	je	.L32
	call	_ZdaPv@PLT
.L32:
	movq	%rbp, %rdi
	movl	$24, %esi
	popq	%rbp
	.cfi_def_cfa_offset 8
	jmp	_ZdlPvm@PLT
	.cfi_endproc
.LFE2760:
	.size	_ZN7openpal5ArrayIN8opendnp34CellINS1_17FrozenCounterSpecEEEtED0Ev, .-_ZN7openpal5ArrayIN8opendnp34CellINS1_17FrozenCounterSpecEEEtED0Ev
	.section	.text._ZN7openpal5ArrayIN8opendnp34CellINS1_11CounterSpecEEEtED2Ev,"axG",@progbits,_ZN7openpal5ArrayIN8opendnp34CellINS1_11CounterSpecEEEtED5Ev,comdat
	.align 2
	.p2align 4
	.weak	_ZN7openpal5ArrayIN8opendnp34CellINS1_11CounterSpecEEEtED2Ev
	.type	_ZN7openpal5ArrayIN8opendnp34CellINS1_11CounterSpecEEEtED2Ev, @function
_ZN7openpal5ArrayIN8opendnp34CellINS1_11CounterSpecEEEtED2Ev:
.LFB2754:
	.cfi_startproc
	endbr64
	movq	_ZTVN7openpal5ArrayIN8opendnp34CellINS1_11CounterSpecEEEtEE@GOTPCREL(%rip), %rax
	addq	$16, %rax
	movq	%rax, (%rdi)
	movq	16(%rdi), %rdi
	testq	%rdi, %rdi
	je	.L37
	jmp	_ZdaPv@PLT
	.p2align 4,,10
	.p2align 3
.L37:
	ret
	.cfi_endproc
.LFE2754:
	.size	_ZN7openpal5ArrayIN8opendnp34CellINS1_11CounterSpecEEEtED2Ev, .-_ZN7openpal5ArrayIN8opendnp34CellINS1_11CounterSpecEEEtED2Ev
	.weak	_ZN7openpal5ArrayIN8opendnp34CellINS1_11CounterSpecEEEtED1Ev
	.set	_ZN7openpal5ArrayIN8opendnp34CellINS1_11CounterSpecEEEtED1Ev,_ZN7openpal5ArrayIN8opendnp34CellINS1_11CounterSpecEEEtED2Ev
	.section	.text._ZN7openpal5ArrayIN8opendnp34CellINS1_11CounterSpecEEEtED0Ev,"axG",@progbits,_ZN7openpal5ArrayIN8opendnp34CellINS1_11CounterSpecEEEtED5Ev,comdat
	.align 2
	.p2align 4
	.weak	_ZN7openpal5ArrayIN8opendnp34CellINS1_11CounterSpecEEEtED0Ev
	.type	_ZN7openpal5ArrayIN8opendnp34CellINS1_11CounterSpecEEEtED0Ev, @function
_ZN7openpal5ArrayIN8opendnp34CellINS1_11CounterSpecEEEtED0Ev:
.LFB2756:
	.cfi_startproc
	endbr64
	movq	_ZTVN7openpal5ArrayIN8opendnp34CellINS1_11CounterSpecEEEtEE@GOTPCREL(%rip), %rax
	pushq	%rbp
	.cfi_def_cfa_offset 16
	.cfi_offset 6, -16
	movq	%rdi, %rbp
	addq	$16, %rax
	movq	%rax, (%rdi)
	movq	16(%rdi), %rdi
	testq	%rdi, %rdi
	je	.L40
	call	_ZdaPv@PLT
.L40:
	movq	%rbp, %rdi
	movl	$24, %esi
	popq	%rbp
	.cfi_def_cfa_offset 8
	jmp	_ZdlPvm@PLT
	.cfi_endproc
.LFE2756:
	.size	_ZN7openpal5ArrayIN8opendnp34CellINS1_11CounterSpecEEEtED0Ev, .-_ZN7openpal5ArrayIN8opendnp34CellINS1_11CounterSpecEEEtED0Ev
	.section	.text._ZN7openpal5ArrayIN8opendnp34CellINS1_10AnalogSpecEEEtED2Ev,"axG",@progbits,_ZN7openpal5ArrayIN8opendnp34CellINS1_10AnalogSpecEEEtED5Ev,comdat
	.align 2
	.p2align 4
	.weak	_ZN7openpal5ArrayIN8opendnp34CellINS1_10AnalogSpecEEEtED2Ev
	.type	_ZN7openpal5ArrayIN8opendnp34CellINS1_10AnalogSpecEEEtED2Ev, @function
_ZN7openpal5ArrayIN8opendnp34CellINS1_10AnalogSpecEEEtED2Ev:
.LFB2750:
	.cfi_startproc
	endbr64
	movq	_ZTVN7openpal5ArrayIN8opendnp34CellINS1_10AnalogSpecEEEtEE@GOTPCREL(%rip), %rax
	addq	$16, %rax
	movq	%rax, (%rdi)
	movq	16(%rdi), %rdi
	testq	%rdi, %rdi
	je	.L45
	jmp	_ZdaPv@PLT
	.p2align 4,,10
	.p2align 3
.L45:
	ret
	.cfi_endproc
.LFE2750:
	.size	_ZN7openpal5ArrayIN8opendnp34CellINS1_10AnalogSpecEEEtED2Ev, .-_ZN7openpal5ArrayIN8opendnp34CellINS1_10AnalogSpecEEEtED2Ev
	.weak	_ZN7openpal5ArrayIN8opendnp34CellINS1_10AnalogSpecEEEtED1Ev
	.set	_ZN7openpal5ArrayIN8opendnp34CellINS1_10AnalogSpecEEEtED1Ev,_ZN7openpal5ArrayIN8opendnp34CellINS1_10AnalogSpecEEEtED2Ev
	.section	.text._ZN7openpal5ArrayIN8opendnp34CellINS1_10AnalogSpecEEEtED0Ev,"axG",@progbits,_ZN7openpal5ArrayIN8opendnp34CellINS1_10AnalogSpecEEEtED5Ev,comdat
	.align 2
	.p2align 4
	.weak	_ZN7openpal5ArrayIN8opendnp34CellINS1_10AnalogSpecEEEtED0Ev
	.type	_ZN7openpal5ArrayIN8opendnp34CellINS1_10AnalogSpecEEEtED0Ev, @function
_ZN7openpal5ArrayIN8opendnp34CellINS1_10AnalogSpecEEEtED0Ev:
.LFB2752:
	.cfi_startproc
	endbr64
	movq	_ZTVN7openpal5ArrayIN8opendnp34CellINS1_10AnalogSpecEEEtEE@GOTPCREL(%rip), %rax
	pushq	%rbp
	.cfi_def_cfa_offset 16
	.cfi_offset 6, -16
	movq	%rdi, %rbp
	addq	$16, %rax
	movq	%rax, (%rdi)
	movq	16(%rdi), %rdi
	testq	%rdi, %rdi
	je	.L48
	call	_ZdaPv@PLT
.L48:
	movq	%rbp, %rdi
	movl	$24, %esi
	popq	%rbp
	.cfi_def_cfa_offset 8
	jmp	_ZdlPvm@PLT
	.cfi_endproc
.LFE2752:
	.size	_ZN7openpal5ArrayIN8opendnp34CellINS1_10AnalogSpecEEEtED0Ev, .-_ZN7openpal5ArrayIN8opendnp34CellINS1_10AnalogSpecEEEtED0Ev
	.section	.text._ZN7openpal5ArrayIN8opendnp34CellINS1_19DoubleBitBinarySpecEEEtED2Ev,"axG",@progbits,_ZN7openpal5ArrayIN8opendnp34CellINS1_19DoubleBitBinarySpecEEEtED5Ev,comdat
	.align 2
	.p2align 4
	.weak	_ZN7openpal5ArrayIN8opendnp34CellINS1_19DoubleBitBinarySpecEEEtED2Ev
	.type	_ZN7openpal5ArrayIN8opendnp34CellINS1_19DoubleBitBinarySpecEEEtED2Ev, @function
_ZN7openpal5ArrayIN8opendnp34CellINS1_19DoubleBitBinarySpecEEEtED2Ev:
.LFB2746:
	.cfi_startproc
	endbr64
	movq	_ZTVN7openpal5ArrayIN8opendnp34CellINS1_19DoubleBitBinarySpecEEEtEE@GOTPCREL(%rip), %rax
	addq	$16, %rax
	movq	%rax, (%rdi)
	movq	16(%rdi), %rdi
	testq	%rdi, %rdi
	je	.L53
	jmp	_ZdaPv@PLT
	.p2align 4,,10
	.p2align 3
.L53:
	ret
	.cfi_endproc
.LFE2746:
	.size	_ZN7openpal5ArrayIN8opendnp34CellINS1_19DoubleBitBinarySpecEEEtED2Ev, .-_ZN7openpal5ArrayIN8opendnp34CellINS1_19DoubleBitBinarySpecEEEtED2Ev
	.weak	_ZN7openpal5ArrayIN8opendnp34CellINS1_19DoubleBitBinarySpecEEEtED1Ev
	.set	_ZN7openpal5ArrayIN8opendnp34CellINS1_19DoubleBitBinarySpecEEEtED1Ev,_ZN7openpal5ArrayIN8opendnp34CellINS1_19DoubleBitBinarySpecEEEtED2Ev
	.section	.text._ZN7openpal5ArrayIN8opendnp34CellINS1_19DoubleBitBinarySpecEEEtED0Ev,"axG",@progbits,_ZN7openpal5ArrayIN8opendnp34CellINS1_19DoubleBitBinarySpecEEEtED5Ev,comdat
	.align 2
	.p2align 4
	.weak	_ZN7openpal5ArrayIN8opendnp34CellINS1_19DoubleBitBinarySpecEEEtED0Ev
	.type	_ZN7openpal5ArrayIN8opendnp34CellINS1_19DoubleBitBinarySpecEEEtED0Ev, @function
_ZN7openpal5ArrayIN8opendnp34CellINS1_19DoubleBitBinarySpecEEEtED0Ev:
.LFB2748:
	.cfi_startproc
	endbr64
	movq	_ZTVN7openpal5ArrayIN8opendnp34CellINS1_19DoubleBitBinarySpecEEEtEE@GOTPCREL(%rip), %rax
	pushq	%rbp
	.cfi_def_cfa_offset 16
	.cfi_offset 6, -16
	movq	%rdi, %rbp
	addq	$16, %rax
	movq	%rax, (%rdi)
	movq	16(%rdi), %rdi
	testq	%rdi, %rdi
	je	.L56
	call	_ZdaPv@PLT
.L56:
	movq	%rbp, %rdi
	movl	$24, %esi
	popq	%rbp
	.cfi_def_cfa_offset 8
	jmp	_ZdlPvm@PLT
	.cfi_endproc
.LFE2748:
	.size	_ZN7openpal5ArrayIN8opendnp34CellINS1_19DoubleBitBinarySpecEEEtED0Ev, .-_ZN7openpal5ArrayIN8opendnp34CellINS1_19DoubleBitBinarySpecEEEtED0Ev
	.section	.text._ZN7openpal5ArrayIN8opendnp34CellINS1_10BinarySpecEEEtED2Ev,"axG",@progbits,_ZN7openpal5ArrayIN8opendnp34CellINS1_10BinarySpecEEEtED5Ev,comdat
	.align 2
	.p2align 4
	.weak	_ZN7openpal5ArrayIN8opendnp34CellINS1_10BinarySpecEEEtED2Ev
	.type	_ZN7openpal5ArrayIN8opendnp34CellINS1_10BinarySpecEEEtED2Ev, @function
_ZN7openpal5ArrayIN8opendnp34CellINS1_10BinarySpecEEEtED2Ev:
.LFB2742:
	.cfi_startproc
	endbr64
	movq	_ZTVN7openpal5ArrayIN8opendnp34CellINS1_10BinarySpecEEEtEE@GOTPCREL(%rip), %rax
	addq	$16, %rax
	movq	%rax, (%rdi)
	movq	16(%rdi), %rdi
	testq	%rdi, %rdi
	je	.L61
	jmp	_ZdaPv@PLT
	.p2align 4,,10
	.p2align 3
.L61:
	ret
	.cfi_endproc
.LFE2742:
	.size	_ZN7openpal5ArrayIN8opendnp34CellINS1_10BinarySpecEEEtED2Ev, .-_ZN7openpal5ArrayIN8opendnp34CellINS1_10BinarySpecEEEtED2Ev
	.weak	_ZN7openpal5ArrayIN8opendnp34CellINS1_10BinarySpecEEEtED1Ev
	.set	_ZN7openpal5ArrayIN8opendnp34CellINS1_10BinarySpecEEEtED1Ev,_ZN7openpal5ArrayIN8opendnp34CellINS1_10BinarySpecEEEtED2Ev
	.section	.text._ZN7openpal5ArrayIN8opendnp34CellINS1_10BinarySpecEEEtED0Ev,"axG",@progbits,_ZN7openpal5ArrayIN8opendnp34CellINS1_10BinarySpecEEEtED5Ev,comdat
	.align 2
	.p2align 4
	.weak	_ZN7openpal5ArrayIN8opendnp34CellINS1_10BinarySpecEEEtED0Ev
	.type	_ZN7openpal5ArrayIN8opendnp34CellINS1_10BinarySpecEEEtED0Ev, @function
_ZN7openpal5ArrayIN8opendnp34CellINS1_10BinarySpecEEEtED0Ev:
.LFB2744:
	.cfi_startproc
	endbr64
	movq	_ZTVN7openpal5ArrayIN8opendnp34CellINS1_10BinarySpecEEEtEE@GOTPCREL(%rip), %rax
	pushq	%rbp
	.cfi_def_cfa_offset 16
	.cfi_offset 6, -16
	movq	%rdi, %rbp
	addq	$16, %rax
	movq	%rax, (%rdi)
	movq	16(%rdi), %rdi
	testq	%rdi, %rdi
	je	.L64
	call	_ZdaPv@PLT
.L64:
	movq	%rbp, %rdi
	movl	$24, %esi
	popq	%rbp
	.cfi_def_cfa_offset 8
	jmp	_ZdlPvm@PLT
	.cfi_endproc
.LFE2744:
	.size	_ZN7openpal5ArrayIN8opendnp34CellINS1_10BinarySpecEEEtED0Ev, .-_ZN7openpal5ArrayIN8opendnp34CellINS1_10BinarySpecEEEtED0Ev
	.section	.text._ZN8opendnp38DatabaseD0Ev,"axG",@progbits,_ZN8opendnp38DatabaseD5Ev,comdat
	.align 2
	.p2align 4
	.weak	_ZN8opendnp38DatabaseD0Ev
	.type	_ZN8opendnp38DatabaseD0Ev, @function
_ZN8opendnp38DatabaseD0Ev:
.LFB3229:
	.cfi_startproc
	endbr64
	movq	_ZTVN8opendnp38DatabaseE@GOTPCREL(%rip), %rax
	pushq	%rbp
	.cfi_def_cfa_offset 16
	.cfi_offset 6, -16
	movq	%rdi, %rbp
	addq	$16, %rax
	movq	%rax, (%rdi)
	movq	_ZTVN8opendnp315DatabaseBuffersE@GOTPCREL(%rip), %rax
	leaq	88(%rax), %rdx
	leaq	16(%rax), %rcx
	addq	$120, %rax
	movq	%rax, 40(%rdi)
	movq	_ZTVN7openpal5ArrayIN8opendnp34CellINS1_19TimeAndIntervalSpecEEEtEE@GOTPCREL(%rip), %rax
	movq	%rcx, %xmm0
	movq	%rdx, %xmm1
	punpcklqdq	%xmm1, %xmm0
	addq	$16, %rax
	movups	%xmm0, 24(%rdi)
	movq	%rax, 216(%rdi)
	movq	232(%rdi), %rdi
	testq	%rdi, %rdi
	je	.L70
	call	_ZdaPv@PLT
.L70:
	movq	_ZTVN7openpal5ArrayIN8opendnp34CellINS1_22AnalogOutputStatusSpecEEEtEE@GOTPCREL(%rip), %rax
	movq	208(%rbp), %rdi
	addq	$16, %rax
	movq	%rax, 192(%rbp)
	testq	%rdi, %rdi
	je	.L71
	call	_ZdaPv@PLT
.L71:
	movq	_ZTVN7openpal5ArrayIN8opendnp34CellINS1_22BinaryOutputStatusSpecEEEtEE@GOTPCREL(%rip), %rax
	movq	184(%rbp), %rdi
	addq	$16, %rax
	movq	%rax, 168(%rbp)
	testq	%rdi, %rdi
	je	.L72
	call	_ZdaPv@PLT
.L72:
	movq	_ZTVN7openpal5ArrayIN8opendnp34CellINS1_17FrozenCounterSpecEEEtEE@GOTPCREL(%rip), %rax
	movq	160(%rbp), %rdi
	addq	$16, %rax
	movq	%rax, 144(%rbp)
	testq	%rdi, %rdi
	je	.L73
	call	_ZdaPv@PLT
.L73:
	movq	_ZTVN7openpal5ArrayIN8opendnp34CellINS1_11CounterSpecEEEtEE@GOTPCREL(%rip), %rax
	movq	136(%rbp), %rdi
	addq	$16, %rax
	movq	%rax, 120(%rbp)
	testq	%rdi, %rdi
	je	.L74
	call	_ZdaPv@PLT
.L74:
	movq	_ZTVN7openpal5ArrayIN8opendnp34CellINS1_10AnalogSpecEEEtEE@GOTPCREL(%rip), %rax
	movq	112(%rbp), %rdi
	addq	$16, %rax
	movq	%rax, 96(%rbp)
	testq	%rdi, %rdi
	je	.L75
	call	_ZdaPv@PLT
.L75:
	movq	_ZTVN7openpal5ArrayIN8opendnp34CellINS1_19DoubleBitBinarySpecEEEtEE@GOTPCREL(%rip), %rax
	movq	88(%rbp), %rdi
	addq	$16, %rax
	movq	%rax, 72(%rbp)
	testq	%rdi, %rdi
	je	.L76
	call	_ZdaPv@PLT
.L76:
	movq	_ZTVN7openpal5ArrayIN8opendnp34CellINS1_10BinarySpecEEEtEE@GOTPCREL(%rip), %rax
	movq	64(%rbp), %rdi
	addq	$16, %rax
	movq	%rax, 48(%rbp)
	testq	%rdi, %rdi
	je	.L77
	call	_ZdaPv@PLT
.L77:
	movq	%rbp, %rdi
	movl	$280, %esi
	popq	%rbp
	.cfi_def_cfa_offset 8
	jmp	_ZdlPvm@PLT
	.cfi_endproc
.LFE3229:
	.size	_ZN8opendnp38DatabaseD0Ev, .-_ZN8opendnp38DatabaseD0Ev
	.text
	.align 2
	.p2align 4
	.globl	_ZN8opendnp38Database6UpdateERKNS_15TimeAndIntervalEt
	.type	_ZN8opendnp38Database6UpdateERKNS_15TimeAndIntervalEt, @function
_ZN8opendnp38Database6UpdateERKNS_15TimeAndIntervalEt:
.LFB2451:
	.cfi_startproc
	endbr64
	pushq	%r15
	.cfi_def_cfa_offset 16
	.cfi_offset 15, -16
	pushq	%r14
	.cfi_def_cfa_offset 24
	.cfi_offset 14, -24
	movzwl	%dx, %r14d
	pushq	%r13
	.cfi_def_cfa_offset 32
	.cfi_offset 13, -32
	pushq	%r12
	.cfi_def_cfa_offset 40
	.cfi_offset 12, -40
	leaq	48(%rdi), %r12
	pushq	%rbp
	.cfi_def_cfa_offset 48
	.cfi_offset 6, -48
	movq	%rsi, %rbp
	pushq	%rbx
	.cfi_def_cfa_offset 56
	.cfi_offset 3, -56
	subq	$24, %rsp
	.cfi_def_cfa_offset 80
	cmpb	$0, 16(%rdi)
	jne	.L119
.L104:
	movq	%r12, %rdi
	call	_ZN8opendnp313StaticBuffers12GetArrayViewINS_19TimeAndIntervalSpecEEEN7openpal9ArrayViewINS_4CellIT_EEtEEv@PLT
	movl	%eax, %r8d
	xorl	%eax, %eax
	cmpw	%r8w, %r14w
	jnb	.L115
	leaq	0(,%r14,8), %rax
	subq	%r14, %rax
	leaq	(%rdx,%rax,8), %rax
	movq	0(%rbp), %rdx
	movq	%rdx, (%rax)
	movl	8(%rbp), %edx
	movl	%edx, 8(%rax)
	movzbl	12(%rbp), %edx
	movb	%dl, 12(%rax)
	movl	$1, %eax
.L115:
	addq	$24, %rsp
	.cfi_remember_state
	.cfi_def_cfa_offset 56
	popq	%rbx
	.cfi_def_cfa_offset 48
	popq	%rbp
	.cfi_def_cfa_offset 40
	popq	%r12
	.cfi_def_cfa_offset 32
	popq	%r13
	.cfi_def_cfa_offset 24
	popq	%r14
	.cfi_def_cfa_offset 16
	popq	%r15
	.cfi_def_cfa_offset 8
	ret
	.p2align 4,,10
	.p2align 3
.L119:
	.cfi_restore_state
	movq	%r12, %rdi
	call	_ZN8opendnp313StaticBuffers12GetArrayViewINS_19TimeAndIntervalSpecEEEN7openpal9ArrayViewINS_4CellIT_EEtEEv@PLT
	testw	%ax, %ax
	je	.L105
	leal	-1(%rax), %r13d
	xorl	%r15d, %r15d
	jmp	.L109
	.p2align 4,,10
	.p2align 3
.L107:
	testw	%r13w, %r13w
	je	.L105
	leal	-1(%rbx), %r13d
.L108:
	cmpw	%r15w, %r13w
	jb	.L105
.L109:
	movzwl	%r15w, %ecx
	movzwl	%r13w, %eax
	subl	%ecx, %eax
	movl	%eax, %ebx
	shrl	$31, %ebx
	addl	%eax, %ebx
	sarl	%ebx
	addl	%r15d, %ebx
	movzwl	%bx, %ecx
	leaq	0(,%rcx,8), %rax
	subq	%rcx, %rax
	cmpw	16(%rdx,%rax,8), %r14w
	je	.L111
	jbe	.L107
	movq	%rdx, 8(%rsp)
	call	_ZN7openpal8MaxValueItEET_v@PLT
	cmpw	%r15w, %ax
	jbe	.L105
	movq	8(%rsp), %rdx
	leal	1(%rbx), %r15d
	jmp	.L108
	.p2align 4,,10
	.p2align 3
.L105:
	call	_ZN7openpal8MaxValueItEET_v@PLT
	movzwl	%ax, %r14d
	jmp	.L104
	.p2align 4,,10
	.p2align 3
.L111:
	movzwl	%bx, %r14d
	jmp	.L104
	.cfi_endproc
.LFE2451:
	.size	_ZN8opendnp38Database6UpdateERKNS_15TimeAndIntervalEt, .-_ZN8opendnp38Database6UpdateERKNS_15TimeAndIntervalEt
	.align 2
	.p2align 4
	.type	_ZN8opendnp38Database11GetRawIndexINS_10BinarySpecEEEtt.part.0, @function
_ZN8opendnp38Database11GetRawIndexINS_10BinarySpecEEEtt.part.0:
.LFB3261:
	.cfi_startproc
	pushq	%r14
	.cfi_def_cfa_offset 16
	.cfi_offset 14, -16
	addq	$48, %rdi
	pushq	%r13
	.cfi_def_cfa_offset 24
	.cfi_offset 13, -24
	pushq	%r12
	.cfi_def_cfa_offset 32
	.cfi_offset 12, -32
	pushq	%rbp
	.cfi_def_cfa_offset 40
	.cfi_offset 6, -40
	movl	%esi, %ebp
	pushq	%rbx
	.cfi_def_cfa_offset 48
	.cfi_offset 3, -48
	call	_ZN8opendnp313StaticBuffers12GetArrayViewINS_10BinarySpecEEEN7openpal9ArrayViewINS_4CellIT_EEtEEv@PLT
	testw	%ax, %ax
	je	.L121
	movq	%rdx, %r14
	leal	-1(%rax), %ebx
	xorl	%r13d, %r13d
	jmp	.L125
	.p2align 4,,10
	.p2align 3
.L123:
	testw	%bx, %bx
	je	.L121
	leal	-1(%r12), %ebx
	cmpw	%r13w, %bx
	jb	.L121
.L125:
	movzwl	%r13w, %edx
	movzwl	%bx, %eax
	subl	%edx, %eax
	movl	%eax, %r12d
	shrl	$31, %r12d
	addl	%eax, %r12d
	sarl	%r12d
	addl	%r13d, %r12d
	movzwl	%r12w, %edx
	leaq	0(,%rdx,8), %rax
	subq	%rdx, %rax
	salq	$4, %rax
	cmpw	24(%r14,%rax), %bp
	je	.L126
	jbe	.L123
	call	_ZN7openpal8MaxValueItEET_v@PLT
	cmpw	%r13w, %ax
	jbe	.L121
	leal	1(%r12), %r13d
	cmpw	%r13w, %bx
	jnb	.L125
.L121:
	popq	%rbx
	.cfi_remember_state
	.cfi_def_cfa_offset 40
	popq	%rbp
	.cfi_def_cfa_offset 32
	popq	%r12
	.cfi_def_cfa_offset 24
	popq	%r13
	.cfi_def_cfa_offset 16
	popq	%r14
	.cfi_def_cfa_offset 8
	jmp	_ZN7openpal8MaxValueItEET_v@PLT
	.p2align 4,,10
	.p2align 3
.L126:
	.cfi_restore_state
	popq	%rbx
	.cfi_def_cfa_offset 40
	movl	%r12d, %eax
	popq	%rbp
	.cfi_def_cfa_offset 32
	popq	%r12
	.cfi_def_cfa_offset 24
	popq	%r13
	.cfi_def_cfa_offset 16
	popq	%r14
	.cfi_def_cfa_offset 8
	ret
	.cfi_endproc
.LFE3261:
	.size	_ZN8opendnp38Database11GetRawIndexINS_10BinarySpecEEEtt.part.0, .-_ZN8opendnp38Database11GetRawIndexINS_10BinarySpecEEEtt.part.0
	.align 2
	.p2align 4
	.type	_ZN8opendnp38Database11GetRawIndexINS_19DoubleBitBinarySpecEEEtt.part.0, @function
_ZN8opendnp38Database11GetRawIndexINS_19DoubleBitBinarySpecEEEtt.part.0:
.LFB3262:
	.cfi_startproc
	pushq	%r14
	.cfi_def_cfa_offset 16
	.cfi_offset 14, -16
	addq	$48, %rdi
	pushq	%r13
	.cfi_def_cfa_offset 24
	.cfi_offset 13, -24
	pushq	%r12
	.cfi_def_cfa_offset 32
	.cfi_offset 12, -32
	pushq	%rbp
	.cfi_def_cfa_offset 40
	.cfi_offset 6, -40
	movl	%esi, %ebp
	pushq	%rbx
	.cfi_def_cfa_offset 48
	.cfi_offset 3, -48
	call	_ZN8opendnp313StaticBuffers12GetArrayViewINS_19DoubleBitBinarySpecEEEN7openpal9ArrayViewINS_4CellIT_EEtEEv@PLT
	testw	%ax, %ax
	je	.L133
	movq	%rdx, %r14
	leal	-1(%rax), %ebx
	xorl	%r13d, %r13d
	jmp	.L137
	.p2align 4,,10
	.p2align 3
.L135:
	testw	%bx, %bx
	je	.L133
	leal	-1(%r12), %ebx
	cmpw	%r13w, %bx
	jb	.L133
.L137:
	movzwl	%r13w, %edx
	movzwl	%bx, %eax
	subl	%edx, %eax
	movl	%eax, %r12d
	shrl	$31, %r12d
	addl	%eax, %r12d
	sarl	%r12d
	addl	%r13d, %r12d
	movzwl	%r12w, %edx
	leaq	0(,%rdx,8), %rax
	subq	%rdx, %rax
	salq	$4, %rax
	cmpw	24(%r14,%rax), %bp
	je	.L138
	jbe	.L135
	call	_ZN7openpal8MaxValueItEET_v@PLT
	cmpw	%r13w, %ax
	jbe	.L133
	leal	1(%r12), %r13d
	cmpw	%r13w, %bx
	jnb	.L137
.L133:
	popq	%rbx
	.cfi_remember_state
	.cfi_def_cfa_offset 40
	popq	%rbp
	.cfi_def_cfa_offset 32
	popq	%r12
	.cfi_def_cfa_offset 24
	popq	%r13
	.cfi_def_cfa_offset 16
	popq	%r14
	.cfi_def_cfa_offset 8
	jmp	_ZN7openpal8MaxValueItEET_v@PLT
	.p2align 4,,10
	.p2align 3
.L138:
	.cfi_restore_state
	popq	%rbx
	.cfi_def_cfa_offset 40
	movl	%r12d, %eax
	popq	%rbp
	.cfi_def_cfa_offset 32
	popq	%r12
	.cfi_def_cfa_offset 24
	popq	%r13
	.cfi_def_cfa_offset 16
	popq	%r14
	.cfi_def_cfa_offset 8
	ret
	.cfi_endproc
.LFE3262:
	.size	_ZN8opendnp38Database11GetRawIndexINS_19DoubleBitBinarySpecEEEtt.part.0, .-_ZN8opendnp38Database11GetRawIndexINS_19DoubleBitBinarySpecEEEtt.part.0
	.align 2
	.p2align 4
	.type	_ZN8opendnp38Database11GetRawIndexINS_10AnalogSpecEEEtt.part.0, @function
_ZN8opendnp38Database11GetRawIndexINS_10AnalogSpecEEEtt.part.0:
.LFB3263:
	.cfi_startproc
	pushq	%r14
	.cfi_def_cfa_offset 16
	.cfi_offset 14, -16
	addq	$48, %rdi
	pushq	%r13
	.cfi_def_cfa_offset 24
	.cfi_offset 13, -24
	movl	%esi, %r13d
	pushq	%r12
	.cfi_def_cfa_offset 32
	.cfi_offset 12, -32
	pushq	%rbp
	.cfi_def_cfa_offset 40
	.cfi_offset 6, -40
	pushq	%rbx
	.cfi_def_cfa_offset 48
	.cfi_offset 3, -48
	call	_ZN8opendnp313StaticBuffers12GetArrayViewINS_10AnalogSpecEEEN7openpal9ArrayViewINS_4CellIT_EEtEEv@PLT
	testw	%ax, %ax
	je	.L145
	movq	%rdx, %r14
	leal	-1(%rax), %ebx
	xorl	%ebp, %ebp
	jmp	.L149
	.p2align 4,,10
	.p2align 3
.L147:
	testw	%bx, %bx
	je	.L145
	leal	-1(%r12), %ebx
	cmpw	%bp, %bx
	jb	.L145
.L149:
	movzwl	%bp, %edx
	movzwl	%bx, %eax
	subl	%edx, %eax
	movl	%eax, %r12d
	shrl	$31, %r12d
	addl	%eax, %r12d
	sarl	%r12d
	addl	%ebp, %r12d
	movzwl	%r12w, %edx
	movq	%rdx, %rax
	salq	$4, %rax
	subq	%rdx, %rax
	cmpw	24(%r14,%rax,8), %r13w
	je	.L150
	jbe	.L147
	call	_ZN7openpal8MaxValueItEET_v@PLT
	cmpw	%bp, %ax
	jbe	.L145
	leal	1(%r12), %ebp
	cmpw	%bp, %bx
	jnb	.L149
.L145:
	popq	%rbx
	.cfi_remember_state
	.cfi_def_cfa_offset 40
	popq	%rbp
	.cfi_def_cfa_offset 32
	popq	%r12
	.cfi_def_cfa_offset 24
	popq	%r13
	.cfi_def_cfa_offset 16
	popq	%r14
	.cfi_def_cfa_offset 8
	jmp	_ZN7openpal8MaxValueItEET_v@PLT
	.p2align 4,,10
	.p2align 3
.L150:
	.cfi_restore_state
	popq	%rbx
	.cfi_def_cfa_offset 40
	movl	%r12d, %eax
	popq	%rbp
	.cfi_def_cfa_offset 32
	popq	%r12
	.cfi_def_cfa_offset 24
	popq	%r13
	.cfi_def_cfa_offset 16
	popq	%r14
	.cfi_def_cfa_offset 8
	ret
	.cfi_endproc
.LFE3263:
	.size	_ZN8opendnp38Database11GetRawIndexINS_10AnalogSpecEEEtt.part.0, .-_ZN8opendnp38Database11GetRawIndexINS_10AnalogSpecEEEtt.part.0
	.align 2
	.p2align 4
	.type	_ZN8opendnp38Database11GetRawIndexINS_11CounterSpecEEEtt.part.0, @function
_ZN8opendnp38Database11GetRawIndexINS_11CounterSpecEEEtt.part.0:
.LFB3264:
	.cfi_startproc
	pushq	%r14
	.cfi_def_cfa_offset 16
	.cfi_offset 14, -16
	addq	$48, %rdi
	pushq	%r13
	.cfi_def_cfa_offset 24
	.cfi_offset 13, -24
	movl	%esi, %r13d
	pushq	%r12
	.cfi_def_cfa_offset 32
	.cfi_offset 12, -32
	pushq	%rbp
	.cfi_def_cfa_offset 40
	.cfi_offset 6, -40
	pushq	%rbx
	.cfi_def_cfa_offset 48
	.cfi_offset 3, -48
	call	_ZN8opendnp313StaticBuffers12GetArrayViewINS_11CounterSpecEEEN7openpal9ArrayViewINS_4CellIT_EEtEEv@PLT
	testw	%ax, %ax
	je	.L157
	movq	%rdx, %r14
	leal	-1(%rax), %ebx
	xorl	%ebp, %ebp
	jmp	.L161
	.p2align 4,,10
	.p2align 3
.L159:
	testw	%bx, %bx
	je	.L157
	leal	-1(%r12), %ebx
	cmpw	%bp, %bx
	jb	.L157
.L161:
	movzwl	%bp, %edx
	movzwl	%bx, %eax
	subl	%edx, %eax
	movl	%eax, %r12d
	shrl	$31, %r12d
	addl	%eax, %r12d
	sarl	%r12d
	addl	%ebp, %r12d
	movzwl	%r12w, %edx
	movq	%rdx, %rax
	salq	$4, %rax
	subq	%rdx, %rax
	cmpw	24(%r14,%rax,8), %r13w
	je	.L162
	jbe	.L159
	call	_ZN7openpal8MaxValueItEET_v@PLT
	cmpw	%bp, %ax
	jbe	.L157
	leal	1(%r12), %ebp
	cmpw	%bp, %bx
	jnb	.L161
.L157:
	popq	%rbx
	.cfi_remember_state
	.cfi_def_cfa_offset 40
	popq	%rbp
	.cfi_def_cfa_offset 32
	popq	%r12
	.cfi_def_cfa_offset 24
	popq	%r13
	.cfi_def_cfa_offset 16
	popq	%r14
	.cfi_def_cfa_offset 8
	jmp	_ZN7openpal8MaxValueItEET_v@PLT
	.p2align 4,,10
	.p2align 3
.L162:
	.cfi_restore_state
	popq	%rbx
	.cfi_def_cfa_offset 40
	movl	%r12d, %eax
	popq	%rbp
	.cfi_def_cfa_offset 32
	popq	%r12
	.cfi_def_cfa_offset 24
	popq	%r13
	.cfi_def_cfa_offset 16
	popq	%r14
	.cfi_def_cfa_offset 8
	ret
	.cfi_endproc
.LFE3264:
	.size	_ZN8opendnp38Database11GetRawIndexINS_11CounterSpecEEEtt.part.0, .-_ZN8opendnp38Database11GetRawIndexINS_11CounterSpecEEEtt.part.0
	.align 2
	.p2align 4
	.type	_ZN8opendnp38Database11GetRawIndexINS_17FrozenCounterSpecEEEtt.part.0, @function
_ZN8opendnp38Database11GetRawIndexINS_17FrozenCounterSpecEEEtt.part.0:
.LFB3265:
	.cfi_startproc
	pushq	%r14
	.cfi_def_cfa_offset 16
	.cfi_offset 14, -16
	addq	$48, %rdi
	pushq	%r13
	.cfi_def_cfa_offset 24
	.cfi_offset 13, -24
	movl	%esi, %r13d
	pushq	%r12
	.cfi_def_cfa_offset 32
	.cfi_offset 12, -32
	pushq	%rbp
	.cfi_def_cfa_offset 40
	.cfi_offset 6, -40
	pushq	%rbx
	.cfi_def_cfa_offset 48
	.cfi_offset 3, -48
	call	_ZN8opendnp313StaticBuffers12GetArrayViewINS_17FrozenCounterSpecEEEN7openpal9ArrayViewINS_4CellIT_EEtEEv@PLT
	testw	%ax, %ax
	je	.L169
	movq	%rdx, %r14
	leal	-1(%rax), %ebx
	xorl	%ebp, %ebp
	jmp	.L173
	.p2align 4,,10
	.p2align 3
.L171:
	testw	%bx, %bx
	je	.L169
	leal	-1(%r12), %ebx
	cmpw	%bp, %bx
	jb	.L169
.L173:
	movzwl	%bp, %edx
	movzwl	%bx, %eax
	subl	%edx, %eax
	movl	%eax, %r12d
	shrl	$31, %r12d
	addl	%eax, %r12d
	sarl	%r12d
	addl	%ebp, %r12d
	movzwl	%r12w, %edx
	movq	%rdx, %rax
	salq	$4, %rax
	subq	%rdx, %rax
	cmpw	24(%r14,%rax,8), %r13w
	je	.L174
	jbe	.L171
	call	_ZN7openpal8MaxValueItEET_v@PLT
	cmpw	%bp, %ax
	jbe	.L169
	leal	1(%r12), %ebp
	cmpw	%bp, %bx
	jnb	.L173
.L169:
	popq	%rbx
	.cfi_remember_state
	.cfi_def_cfa_offset 40
	popq	%rbp
	.cfi_def_cfa_offset 32
	popq	%r12
	.cfi_def_cfa_offset 24
	popq	%r13
	.cfi_def_cfa_offset 16
	popq	%r14
	.cfi_def_cfa_offset 8
	jmp	_ZN7openpal8MaxValueItEET_v@PLT
	.p2align 4,,10
	.p2align 3
.L174:
	.cfi_restore_state
	popq	%rbx
	.cfi_def_cfa_offset 40
	movl	%r12d, %eax
	popq	%rbp
	.cfi_def_cfa_offset 32
	popq	%r12
	.cfi_def_cfa_offset 24
	popq	%r13
	.cfi_def_cfa_offset 16
	popq	%r14
	.cfi_def_cfa_offset 8
	ret
	.cfi_endproc
.LFE3265:
	.size	_ZN8opendnp38Database11GetRawIndexINS_17FrozenCounterSpecEEEtt.part.0, .-_ZN8opendnp38Database11GetRawIndexINS_17FrozenCounterSpecEEEtt.part.0
	.align 2
	.p2align 4
	.type	_ZN8opendnp38Database11GetRawIndexINS_22BinaryOutputStatusSpecEEEtt.part.0, @function
_ZN8opendnp38Database11GetRawIndexINS_22BinaryOutputStatusSpecEEEtt.part.0:
.LFB3266:
	.cfi_startproc
	pushq	%r14
	.cfi_def_cfa_offset 16
	.cfi_offset 14, -16
	addq	$48, %rdi
	pushq	%r13
	.cfi_def_cfa_offset 24
	.cfi_offset 13, -24
	pushq	%r12
	.cfi_def_cfa_offset 32
	.cfi_offset 12, -32
	pushq	%rbp
	.cfi_def_cfa_offset 40
	.cfi_offset 6, -40
	movl	%esi, %ebp
	pushq	%rbx
	.cfi_def_cfa_offset 48
	.cfi_offset 3, -48
	call	_ZN8opendnp313StaticBuffers12GetArrayViewINS_22BinaryOutputStatusSpecEEEN7openpal9ArrayViewINS_4CellIT_EEtEEv@PLT
	testw	%ax, %ax
	je	.L181
	movq	%rdx, %r14
	leal	-1(%rax), %ebx
	xorl	%r13d, %r13d
	jmp	.L185
	.p2align 4,,10
	.p2align 3
.L183:
	testw	%bx, %bx
	je	.L181
	leal	-1(%r12), %ebx
	cmpw	%r13w, %bx
	jb	.L181
.L185:
	movzwl	%r13w, %edx
	movzwl	%bx, %eax
	subl	%edx, %eax
	movl	%eax, %r12d
	shrl	$31, %r12d
	addl	%eax, %r12d
	sarl	%r12d
	addl	%r13d, %r12d
	movzwl	%r12w, %edx
	leaq	0(,%rdx,8), %rax
	subq	%rdx, %rax
	salq	$4, %rax
	cmpw	24(%r14,%rax), %bp
	je	.L186
	jbe	.L183
	call	_ZN7openpal8MaxValueItEET_v@PLT
	cmpw	%r13w, %ax
	jbe	.L181
	leal	1(%r12), %r13d
	cmpw	%r13w, %bx
	jnb	.L185
.L181:
	popq	%rbx
	.cfi_remember_state
	.cfi_def_cfa_offset 40
	popq	%rbp
	.cfi_def_cfa_offset 32
	popq	%r12
	.cfi_def_cfa_offset 24
	popq	%r13
	.cfi_def_cfa_offset 16
	popq	%r14
	.cfi_def_cfa_offset 8
	jmp	_ZN7openpal8MaxValueItEET_v@PLT
	.p2align 4,,10
	.p2align 3
.L186:
	.cfi_restore_state
	popq	%rbx
	.cfi_def_cfa_offset 40
	movl	%r12d, %eax
	popq	%rbp
	.cfi_def_cfa_offset 32
	popq	%r12
	.cfi_def_cfa_offset 24
	popq	%r13
	.cfi_def_cfa_offset 16
	popq	%r14
	.cfi_def_cfa_offset 8
	ret
	.cfi_endproc
.LFE3266:
	.size	_ZN8opendnp38Database11GetRawIndexINS_22BinaryOutputStatusSpecEEEtt.part.0, .-_ZN8opendnp38Database11GetRawIndexINS_22BinaryOutputStatusSpecEEEtt.part.0
	.align 2
	.p2align 4
	.type	_ZN8opendnp38Database11GetRawIndexINS_22AnalogOutputStatusSpecEEEtt.part.0, @function
_ZN8opendnp38Database11GetRawIndexINS_22AnalogOutputStatusSpecEEEtt.part.0:
.LFB3267:
	.cfi_startproc
	pushq	%r14
	.cfi_def_cfa_offset 16
	.cfi_offset 14, -16
	addq	$48, %rdi
	pushq	%r13
	.cfi_def_cfa_offset 24
	.cfi_offset 13, -24
	movl	%esi, %r13d
	pushq	%r12
	.cfi_def_cfa_offset 32
	.cfi_offset 12, -32
	pushq	%rbp
	.cfi_def_cfa_offset 40
	.cfi_offset 6, -40
	pushq	%rbx
	.cfi_def_cfa_offset 48
	.cfi_offset 3, -48
	call	_ZN8opendnp313StaticBuffers12GetArrayViewINS_22AnalogOutputStatusSpecEEEN7openpal9ArrayViewINS_4CellIT_EEtEEv@PLT
	testw	%ax, %ax
	je	.L193
	movq	%rdx, %r14
	leal	-1(%rax), %ebx
	xorl	%ebp, %ebp
	jmp	.L197
	.p2align 4,,10
	.p2align 3
.L195:
	testw	%bx, %bx
	je	.L193
	leal	-1(%r12), %ebx
	cmpw	%bp, %bx
	jb	.L193
.L197:
	movzwl	%bp, %edx
	movzwl	%bx, %eax
	subl	%edx, %eax
	movl	%eax, %r12d
	shrl	$31, %r12d
	addl	%eax, %r12d
	sarl	%r12d
	addl	%ebp, %r12d
	movzwl	%r12w, %edx
	movq	%rdx, %rax
	salq	$4, %rax
	subq	%rdx, %rax
	cmpw	24(%r14,%rax,8), %r13w
	je	.L198
	jbe	.L195
	call	_ZN7openpal8MaxValueItEET_v@PLT
	cmpw	%bp, %ax
	jbe	.L193
	leal	1(%r12), %ebp
	cmpw	%bp, %bx
	jnb	.L197
.L193:
	popq	%rbx
	.cfi_remember_state
	.cfi_def_cfa_offset 40
	popq	%rbp
	.cfi_def_cfa_offset 32
	popq	%r12
	.cfi_def_cfa_offset 24
	popq	%r13
	.cfi_def_cfa_offset 16
	popq	%r14
	.cfi_def_cfa_offset 8
	jmp	_ZN7openpal8MaxValueItEET_v@PLT
	.p2align 4,,10
	.p2align 3
.L198:
	.cfi_restore_state
	popq	%rbx
	.cfi_def_cfa_offset 40
	movl	%r12d, %eax
	popq	%rbp
	.cfi_def_cfa_offset 32
	popq	%r12
	.cfi_def_cfa_offset 24
	popq	%r13
	.cfi_def_cfa_offset 16
	popq	%r14
	.cfi_def_cfa_offset 8
	ret
	.cfi_endproc
.LFE3267:
	.size	_ZN8opendnp38Database11GetRawIndexINS_22AnalogOutputStatusSpecEEEtt.part.0, .-_ZN8opendnp38Database11GetRawIndexINS_22AnalogOutputStatusSpecEEEtt.part.0
	.section	.text._ZN8opendnp38DatabaseD2Ev,"axG",@progbits,_ZN8opendnp38DatabaseD5Ev,comdat
	.align 2
	.p2align 4
	.weak	_ZN8opendnp38DatabaseD2Ev
	.type	_ZN8opendnp38DatabaseD2Ev, @function
_ZN8opendnp38DatabaseD2Ev:
.LFB3227:
	.cfi_startproc
	endbr64
	movq	_ZTVN8opendnp38DatabaseE@GOTPCREL(%rip), %rax
	pushq	%rbx
	.cfi_def_cfa_offset 16
	.cfi_offset 3, -16
	movq	%rdi, %rbx
	addq	$16, %rax
	movq	%rax, (%rdi)
	movq	_ZTVN8opendnp315DatabaseBuffersE@GOTPCREL(%rip), %rax
	leaq	88(%rax), %rdx
	leaq	16(%rax), %rcx
	addq	$120, %rax
	movq	%rax, 40(%rdi)
	movq	_ZTVN7openpal5ArrayIN8opendnp34CellINS1_19TimeAndIntervalSpecEEEtEE@GOTPCREL(%rip), %rax
	movq	%rcx, %xmm0
	movq	%rdx, %xmm1
	punpcklqdq	%xmm1, %xmm0
	addq	$16, %rax
	movups	%xmm0, 24(%rdi)
	movq	%rax, 216(%rdi)
	movq	232(%rdi), %rdi
	testq	%rdi, %rdi
	je	.L205
	call	_ZdaPv@PLT
.L205:
	movq	_ZTVN7openpal5ArrayIN8opendnp34CellINS1_22AnalogOutputStatusSpecEEEtEE@GOTPCREL(%rip), %rax
	movq	208(%rbx), %rdi
	addq	$16, %rax
	movq	%rax, 192(%rbx)
	testq	%rdi, %rdi
	je	.L206
	call	_ZdaPv@PLT
.L206:
	movq	_ZTVN7openpal5ArrayIN8opendnp34CellINS1_22BinaryOutputStatusSpecEEEtEE@GOTPCREL(%rip), %rax
	movq	184(%rbx), %rdi
	addq	$16, %rax
	movq	%rax, 168(%rbx)
	testq	%rdi, %rdi
	je	.L207
	call	_ZdaPv@PLT
.L207:
	movq	_ZTVN7openpal5ArrayIN8opendnp34CellINS1_17FrozenCounterSpecEEEtEE@GOTPCREL(%rip), %rax
	movq	160(%rbx), %rdi
	addq	$16, %rax
	movq	%rax, 144(%rbx)
	testq	%rdi, %rdi
	je	.L208
	call	_ZdaPv@PLT
.L208:
	movq	_ZTVN7openpal5ArrayIN8opendnp34CellINS1_11CounterSpecEEEtEE@GOTPCREL(%rip), %rax
	movq	136(%rbx), %rdi
	addq	$16, %rax
	movq	%rax, 120(%rbx)
	testq	%rdi, %rdi
	je	.L209
	call	_ZdaPv@PLT
.L209:
	movq	_ZTVN7openpal5ArrayIN8opendnp34CellINS1_10AnalogSpecEEEtEE@GOTPCREL(%rip), %rax
	movq	112(%rbx), %rdi
	addq	$16, %rax
	movq	%rax, 96(%rbx)
	testq	%rdi, %rdi
	je	.L210
	call	_ZdaPv@PLT
.L210:
	movq	_ZTVN7openpal5ArrayIN8opendnp34CellINS1_19DoubleBitBinarySpecEEEtEE@GOTPCREL(%rip), %rax
	movq	88(%rbx), %rdi
	addq	$16, %rax
	movq	%rax, 72(%rbx)
	testq	%rdi, %rdi
	je	.L211
	call	_ZdaPv@PLT
.L211:
	movq	_ZTVN7openpal5ArrayIN8opendnp34CellINS1_10BinarySpecEEEtEE@GOTPCREL(%rip), %rax
	movq	64(%rbx), %rdi
	addq	$16, %rax
	movq	%rax, 48(%rbx)
	testq	%rdi, %rdi
	je	.L204
	popq	%rbx
	.cfi_remember_state
	.cfi_def_cfa_offset 8
	jmp	_ZdaPv@PLT
	.p2align 4,,10
	.p2align 3
.L204:
	.cfi_restore_state
	popq	%rbx
	.cfi_def_cfa_offset 8
	ret
	.cfi_endproc
.LFE3227:
	.size	_ZN8opendnp38DatabaseD2Ev, .-_ZN8opendnp38DatabaseD2Ev
	.weak	_ZN8opendnp38DatabaseD1Ev
	.set	_ZN8opendnp38DatabaseD1Ev,_ZN8opendnp38DatabaseD2Ev
	.text
	.align 2
	.p2align 4
	.globl	_ZN8opendnp38DatabaseC2ERKNS_13DatabaseSizesERNS_14IEventReceiverENS_9IndexModeENS_18StaticTypeBitFieldE
	.type	_ZN8opendnp38DatabaseC2ERKNS_13DatabaseSizesERNS_14IEventReceiverENS_9IndexModeENS_18StaticTypeBitFieldE, @function
_ZN8opendnp38DatabaseC2ERKNS_13DatabaseSizesERNS_14IEventReceiverENS_9IndexModeENS_18StaticTypeBitFieldE:
.LFB2442:
	.cfi_startproc
	endbr64
	movq	_ZTVN8opendnp38DatabaseE@GOTPCREL(%rip), %rax
	movq	%rdx, %r9
	movb	%cl, 16(%rdi)
	movl	%r8d, %edx
	movq	%r9, 8(%rdi)
	addq	$24, %rdi
	addq	$16, %rax
	movq	%rax, -24(%rdi)
	jmp	_ZN8opendnp315DatabaseBuffersC1ERKNS_13DatabaseSizesENS_18StaticTypeBitFieldENS_9IndexModeE@PLT
	.cfi_endproc
.LFE2442:
	.size	_ZN8opendnp38DatabaseC2ERKNS_13DatabaseSizesERNS_14IEventReceiverENS_9IndexModeENS_18StaticTypeBitFieldE, .-_ZN8opendnp38DatabaseC2ERKNS_13DatabaseSizesERNS_14IEventReceiverENS_9IndexModeENS_18StaticTypeBitFieldE
	.globl	_ZN8opendnp38DatabaseC1ERKNS_13DatabaseSizesERNS_14IEventReceiverENS_9IndexModeENS_18StaticTypeBitFieldE
	.set	_ZN8opendnp38DatabaseC1ERKNS_13DatabaseSizesERNS_14IEventReceiverENS_9IndexModeENS_18StaticTypeBitFieldE,_ZN8opendnp38DatabaseC2ERKNS_13DatabaseSizesERNS_14IEventReceiverENS_9IndexModeENS_18StaticTypeBitFieldE
	.align 2
	.p2align 4
	.globl	_ZN8opendnp38Database19ConvertToEventClassENS_10PointClassERNS_10EventClassE
	.type	_ZN8opendnp38Database19ConvertToEventClassENS_10PointClassERNS_10EventClassE, @function
_ZN8opendnp38Database19ConvertToEventClassENS_10PointClassERNS_10EventClassE:
.LFB2453:
	.cfi_startproc
	endbr64
	cmpb	$4, %dil
	je	.L237
	cmpb	$8, %dil
	je	.L238
	xorl	%eax, %eax
	cmpb	$2, %dil
	je	.L241
	ret
	.p2align 4,,10
	.p2align 3
.L241:
	movb	$0, (%rsi)
	movl	$1, %eax
	ret
	.p2align 4,,10
	.p2align 3
.L238:
	movb	$2, (%rsi)
	movl	$1, %eax
	ret
	.p2align 4,,10
	.p2align 3
.L237:
	movb	$1, (%rsi)
	movl	$1, %eax
	ret
	.cfi_endproc
.LFE2453:
	.size	_ZN8opendnp38Database19ConvertToEventClassENS_10PointClassERNS_10EventClassE, .-_ZN8opendnp38Database19ConvertToEventClassENS_10PointClassERNS_10EventClassE
	.section	.text.unlikely,"ax",@progbits
	.align 2
.LCOLDB0:
	.text
.LHOTB0:
	.align 2
	.p2align 4
	.globl	_ZN8opendnp38Database6ModifyENS_9FlagsTypeEtth
	.type	_ZN8opendnp38Database6ModifyENS_9FlagsTypeEtth, @function
_ZN8opendnp38Database6ModifyENS_9FlagsTypeEtth:
.LFB2452:
	.cfi_startproc
	endbr64
	pushq	%r15
	.cfi_def_cfa_offset 16
	.cfi_offset 15, -16
	movl	%edx, %eax
	movl	%edx, %r15d
	pushq	%r14
	.cfi_def_cfa_offset 24
	.cfi_offset 14, -24
	pushq	%r13
	.cfi_def_cfa_offset 32
	.cfi_offset 13, -32
	pushq	%r12
	.cfi_def_cfa_offset 40
	.cfi_offset 12, -40
	pushq	%rbp
	.cfi_def_cfa_offset 48
	.cfi_offset 6, -48
	pushq	%rbx
	.cfi_def_cfa_offset 56
	.cfi_offset 3, -56
	subq	$136, %rsp
	.cfi_def_cfa_offset 192
	movq	%fs:40, %rdx
	movq	%rdx, 120(%rsp)
	xorl	%edx, %edx
	cmpb	$6, %sil
	ja	.L291
	movq	%rdi, %rbx
	movzbl	%sil, %esi
	leaq	.L245(%rip), %rdi
	movl	%ecx, %ebp
	movslq	(%rdi,%rsi,4), %rdx
	movl	%ecx, %r13d
	movl	%r8d, %r12d
	addq	%rdi, %rdx
	cmpb	$0, 16(%rbx)
	notrack jmp	*%rdx
	.section	.rodata
	.align 4
	.align 4
.L245:
	.long	.L251-.L245
	.long	.L250-.L245
	.long	.L249-.L245
	.long	.L248-.L245
	.long	.L247-.L245
	.long	.L246-.L245
	.long	.L244-.L245
	.text
	.p2align 4,,10
	.p2align 3
.L246:
	je	.L280
	movzwl	%ax, %esi
	movq	%rbx, %rdi
	call	_ZN8opendnp38Database11GetRawIndexINS_22BinaryOutputStatusSpecEEEtt.part.0
	cmpb	$0, 16(%rbx)
	movl	%eax, %r15d
	je	.L280
	movzwl	%r13w, %esi
	movq	%rbx, %rdi
	call	_ZN8opendnp38Database11GetRawIndexINS_22BinaryOutputStatusSpecEEEtt.part.0
	movl	%eax, %ebp
.L280:
	leaq	48(%rbx), %rdi
	call	_ZN8opendnp313StaticBuffers12GetArrayViewINS_22BinaryOutputStatusSpecEEEN7openpal9ArrayViewINS_4CellIT_EEtEEv@PLT
	cmpw	%r15w, %bp
	movq	%rdx, 8(%rsp)
	movl	%r15d, %edx
	cmovnb	%ebp, %edx
	cmpw	%ax, %dx
	setb	%r13b
	cmpw	%r15w, %bp
	setnb	%al
	andb	%al, %r13b
	jne	.L342
	.p2align 4,,10
	.p2align 3
.L242:
	movq	120(%rsp), %rax
	subq	%fs:40, %rax
	jne	.L343
	addq	$136, %rsp
	.cfi_remember_state
	.cfi_def_cfa_offset 56
	movl	%r13d, %eax
	popq	%rbx
	.cfi_def_cfa_offset 48
	popq	%rbp
	.cfi_def_cfa_offset 40
	popq	%r12
	.cfi_def_cfa_offset 32
	popq	%r13
	.cfi_def_cfa_offset 24
	popq	%r14
	.cfi_def_cfa_offset 16
	popq	%r15
	.cfi_def_cfa_offset 8
	ret
	.p2align 4,,10
	.p2align 3
.L244:
	.cfi_restore_state
	je	.L284
	movzwl	%ax, %esi
	movq	%rbx, %rdi
	call	_ZN8opendnp38Database11GetRawIndexINS_22AnalogOutputStatusSpecEEEtt.part.0
	cmpb	$0, 16(%rbx)
	movl	%eax, %r15d
	je	.L284
	movzwl	%r13w, %esi
	movq	%rbx, %rdi
	call	_ZN8opendnp38Database11GetRawIndexINS_22AnalogOutputStatusSpecEEEtt.part.0
	movl	%eax, %ebp
.L284:
	leaq	48(%rbx), %rdi
	call	_ZN8opendnp313StaticBuffers12GetArrayViewINS_22AnalogOutputStatusSpecEEEN7openpal9ArrayViewINS_4CellIT_EEtEEv@PLT
	cmpw	%r15w, %bp
	movq	%rdx, 8(%rsp)
	movl	%r15d, %edx
	cmovnb	%ebp, %edx
	cmpw	%ax, %dx
	setb	%r13b
	cmpw	%r15w, %bp
	setnb	%al
	andb	%al, %r13b
	je	.L242
	leaq	48(%rsp), %rax
	leaq	47(%rsp), %r14
	movq	%rax, 16(%rsp)
	.p2align 4,,10
	.p2align 3
.L289:
	movzwl	%r15w, %edx
	movq	8(%rsp), %rcx
	movq	%r14, %rsi
	movq	%rdx, %rax
	salq	$4, %rax
	subq	%rdx, %rax
	leaq	(%rcx,%rax,8), %rdx
	movdqu	(%rdx), %xmm6
	movq	%rdx, (%rsp)
	movaps	%xmm6, 48(%rsp)
	movq	16(%rdx), %rax
	movb	%r12b, 48(%rsp)
	movzbl	27(%rdx), %edi
	movq	%rax, 64(%rsp)
	call	_ZN8opendnp38Database19ConvertToEventClassENS_10PointClassERNS_10EventClassE@PLT
	movq	(%rsp), %rdx
	testb	%al, %al
	je	.L287
	movsd	32(%rdx), %xmm0
	movq	16(%rsp), %rdi
	leaq	48(%rdx), %rsi
	call	_ZN8opendnp312measurements7IsEventERKNS_16TypedMeasurementIdEES4_d@PLT
	movq	(%rsp), %rdx
	testb	%al, %al
	je	.L287
	movdqa	48(%rsp), %xmm5
	movq	8(%rbx), %rdi
	movzwl	24(%rdx), %r8d
	movzbl	28(%rdx), %esi
	movups	%xmm5, 48(%rdx)
	movq	64(%rsp), %rax
	movq	%rax, 64(%rdx)
	movq	(%rdi), %rax
	movdqa	48(%rsp), %xmm6
	movq	64(%rax), %rax
	movw	%r8w, 80(%rsp)
	movzbl	47(%rsp), %r8d
	movb	%sil, 112(%rsp)
	leaq	80(%rsp), %rsi
	movups	%xmm6, 88(%rsp)
	movb	%r8b, 82(%rsp)
	movq	64(%rsp), %r8
	movq	%r8, 104(%rsp)
	call	*%rax
	movq	(%rsp), %rdx
.L287:
	movdqa	48(%rsp), %xmm7
	addl	$1, %r15d
	movups	%xmm7, (%rdx)
	movq	64(%rsp), %rax
	movq	%rax, 16(%rdx)
	cmpw	%r15w, %bp
	jnb	.L289
	jmp	.L242
	.p2align 4,,10
	.p2align 3
.L251:
	je	.L252
	movzwl	%ax, %esi
	movq	%rbx, %rdi
	call	_ZN8opendnp38Database11GetRawIndexINS_10BinarySpecEEEtt.part.0
	cmpb	$0, 16(%rbx)
	movl	%eax, %r15d
	je	.L252
	movzwl	%r13w, %esi
	movq	%rbx, %rdi
	call	_ZN8opendnp38Database11GetRawIndexINS_10BinarySpecEEEtt.part.0
	movl	%eax, %ebp
.L252:
	leaq	48(%rbx), %rdi
	call	_ZN8opendnp313StaticBuffers12GetArrayViewINS_10BinarySpecEEEN7openpal9ArrayViewINS_4CellIT_EEtEEv@PLT
	cmpw	%r15w, %bp
	movq	%rdx, 8(%rsp)
	movl	%r15d, %edx
	cmovnb	%ebp, %edx
	cmpw	%ax, %dx
	setb	%r13b
	cmpw	%r15w, %bp
	setnb	%al
	andb	%al, %r13b
	je	.L242
	leaq	80(%rsp), %rax
	leaq	47(%rsp), %r14
	movq	%rax, 16(%rsp)
	.p2align 4,,10
	.p2align 3
.L255:
	movzwl	%r15w, %eax
	movq	%r14, %rsi
	leaq	0(,%rax,8), %rdx
	subq	%rax, %rdx
	salq	$4, %rdx
	addq	8(%rsp), %rdx
	movdqu	(%rdx), %xmm1
	movzbl	27(%rdx), %edi
	movq	%rdx, (%rsp)
	movaps	%xmm1, 48(%rsp)
	movq	16(%rdx), %rax
	movq	%rax, 64(%rsp)
	call	_ZN8opendnp38Database19ConvertToEventClassENS_10PointClassERNS_10EventClassE@PLT
	movq	(%rsp), %rdx
	testb	%al, %al
	je	.L254
	cmpb	40(%rdx), %r12b
	je	.L254
	movq	8(%rbx), %rdi
	movzwl	24(%rdx), %r8d
	movb	%r12b, 48(%rsp)
	movdqa	48(%rsp), %xmm3
	movzbl	28(%rdx), %esi
	movups	%xmm3, 40(%rdx)
	movzbl	64(%rsp), %eax
	movb	%al, 56(%rdx)
	movq	(%rdi), %rax
	movdqa	48(%rsp), %xmm4
	movq	16(%rax), %rax
	movw	%r8w, 80(%rsp)
	movzbl	47(%rsp), %r8d
	movb	%sil, 112(%rsp)
	movups	%xmm4, 88(%rsp)
	movq	16(%rsp), %rsi
	movb	%r8b, 82(%rsp)
	movq	64(%rsp), %r8
	movq	%r8, 104(%rsp)
	call	*%rax
	movq	(%rsp), %rdx
.L254:
	movb	%r12b, 48(%rsp)
	movdqa	48(%rsp), %xmm2
	addl	$1, %r15d
	movups	%xmm2, (%rdx)
	movzbl	64(%rsp), %eax
	movb	%al, 16(%rdx)
	cmpw	%r15w, %bp
	jnb	.L255
	jmp	.L242
	.p2align 4,,10
	.p2align 3
.L250:
	je	.L256
	movzwl	%ax, %esi
	movq	%rbx, %rdi
	call	_ZN8opendnp38Database11GetRawIndexINS_19DoubleBitBinarySpecEEEtt.part.0
	cmpb	$0, 16(%rbx)
	movl	%eax, %r15d
	je	.L256
	movzwl	%r13w, %esi
	movq	%rbx, %rdi
	call	_ZN8opendnp38Database11GetRawIndexINS_19DoubleBitBinarySpecEEEtt.part.0
	movl	%eax, %ebp
.L256:
	leaq	48(%rbx), %rdi
	call	_ZN8opendnp313StaticBuffers12GetArrayViewINS_19DoubleBitBinarySpecEEEN7openpal9ArrayViewINS_4CellIT_EEtEEv@PLT
	cmpw	%r15w, %bp
	movq	%rdx, 8(%rsp)
	movl	%r15d, %edx
	cmovnb	%ebp, %edx
	cmpw	%ax, %dx
	setb	%r13b
	cmpw	%r15w, %bp
	setnb	%al
	andb	%al, %r13b
	je	.L242
	leaq	80(%rsp), %rax
	leaq	47(%rsp), %r14
	movq	%rax, 16(%rsp)
	.p2align 4,,10
	.p2align 3
.L259:
	movzwl	%r15w, %eax
	movq	%r14, %rsi
	leaq	0(,%rax,8), %rdx
	subq	%rax, %rdx
	salq	$4, %rdx
	addq	8(%rsp), %rdx
	movdqu	(%rdx), %xmm3
	movzbl	27(%rdx), %edi
	movq	%rdx, (%rsp)
	movaps	%xmm3, 48(%rsp)
	movq	16(%rdx), %rax
	movq	%rax, 64(%rsp)
	call	_ZN8opendnp38Database19ConvertToEventClassENS_10PointClassERNS_10EventClassE@PLT
	movq	(%rsp), %rdx
	testb	%al, %al
	je	.L258
	cmpb	40(%rdx), %r12b
	je	.L258
	movq	8(%rbx), %rdi
	movzwl	24(%rdx), %r8d
	movb	%r12b, 48(%rsp)
	movdqa	48(%rsp), %xmm5
	movzbl	28(%rdx), %esi
	movups	%xmm5, 40(%rdx)
	movzbl	64(%rsp), %eax
	movb	%al, 56(%rdx)
	movq	(%rdi), %rax
	movdqa	48(%rsp), %xmm6
	movq	24(%rax), %rax
	movw	%r8w, 80(%rsp)
	movzbl	47(%rsp), %r8d
	movb	%sil, 112(%rsp)
	movups	%xmm6, 88(%rsp)
	movq	16(%rsp), %rsi
	movb	%r8b, 82(%rsp)
	movq	64(%rsp), %r8
	movq	%r8, 104(%rsp)
	call	*%rax
	movq	(%rsp), %rdx
.L258:
	movb	%r12b, 48(%rsp)
	movdqa	48(%rsp), %xmm4
	addl	$1, %r15d
	movups	%xmm4, (%rdx)
	movzbl	64(%rsp), %eax
	movb	%al, 16(%rdx)
	cmpw	%r15w, %bp
	jnb	.L259
	jmp	.L242
	.p2align 4,,10
	.p2align 3
.L249:
	je	.L266
	movzwl	%ax, %esi
	movq	%rbx, %rdi
	call	_ZN8opendnp38Database11GetRawIndexINS_11CounterSpecEEEtt.part.0
	cmpb	$0, 16(%rbx)
	movl	%eax, %r15d
	je	.L266
	movzwl	%r13w, %esi
	movq	%rbx, %rdi
	call	_ZN8opendnp38Database11GetRawIndexINS_11CounterSpecEEEtt.part.0
	movl	%eax, %ebp
.L266:
	leaq	48(%rbx), %rdi
	call	_ZN8opendnp313StaticBuffers12GetArrayViewINS_11CounterSpecEEEN7openpal9ArrayViewINS_4CellIT_EEtEEv@PLT
	cmpw	%r15w, %bp
	movq	%rdx, 8(%rsp)
	movl	%r15d, %edx
	cmovnb	%ebp, %edx
	cmpw	%ax, %dx
	setb	%r13b
	cmpw	%r15w, %bp
	setnb	%al
	andb	%al, %r13b
	je	.L242
	leaq	80(%rsp), %rax
	leaq	47(%rsp), %r14
	movq	%rax, 24(%rsp)
	.p2align 4,,10
	.p2align 3
.L272:
	movzwl	%r15w, %edx
	movq	8(%rsp), %rcx
	movq	%r14, %rsi
	movq	%rdx, %rax
	salq	$4, %rax
	subq	%rdx, %rax
	leaq	(%rcx,%rax,8), %rdx
	movdqu	(%rdx), %xmm7
	movzbl	27(%rdx), %edi
	movq	%rdx, (%rsp)
	movaps	%xmm7, 48(%rsp)
	movq	16(%rdx), %rax
	movq	%rax, 64(%rsp)
	movl	16(%rdx), %ecx
	movl	%ecx, 16(%rsp)
	call	_ZN8opendnp38Database19ConvertToEventClassENS_10PointClassERNS_10EventClassE@PLT
	movq	(%rsp), %rdx
	testb	%al, %al
	je	.L268
	movl	32(%rdx), %esi
	cmpb	48(%rdx), %r12b
	jne	.L269
	movl	64(%rdx), %eax
	movl	16(%rsp), %r8d
	movq	%rax, %rdi
	movq	%r8, %r9
	subq	%rax, %r9
	subq	%r8, %rax
	cmpl	%edi, %r8d
	cmova	%r9, %rax
	cmpq	%rax, %rsi
	jnb	.L268
.L269:
	movq	8(%rbx), %rdi
	movzwl	24(%rdx), %r8d
	movb	%r12b, 48(%rsp)
	movdqa	48(%rsp), %xmm0
	movzbl	28(%rdx), %esi
	movq	%rdx, (%rsp)
	movups	%xmm0, 48(%rdx)
	movl	64(%rsp), %eax
	movl	%eax, 64(%rdx)
	movq	(%rdi), %rax
	movdqa	48(%rsp), %xmm0
	movq	40(%rax), %rax
	movw	%r8w, 80(%rsp)
	movzbl	47(%rsp), %r8d
	movb	%sil, 112(%rsp)
	movups	%xmm0, 88(%rsp)
	movq	24(%rsp), %rsi
	movb	%r8b, 82(%rsp)
	movq	64(%rsp), %r8
	movq	%r8, 104(%rsp)
	call	*%rax
	movq	(%rsp), %rdx
.L268:
	movb	%r12b, 48(%rsp)
	movdqa	48(%rsp), %xmm1
	addl	$1, %r15d
	movups	%xmm1, (%rdx)
	movl	64(%rsp), %eax
	movl	%eax, 16(%rdx)
	cmpw	%r15w, %bp
	jnb	.L272
	jmp	.L242
	.p2align 4,,10
	.p2align 3
.L248:
	je	.L273
	movzwl	%ax, %esi
	movq	%rbx, %rdi
	call	_ZN8opendnp38Database11GetRawIndexINS_17FrozenCounterSpecEEEtt.part.0
	cmpb	$0, 16(%rbx)
	movl	%eax, %r15d
	je	.L273
	movzwl	%r13w, %esi
	movq	%rbx, %rdi
	call	_ZN8opendnp38Database11GetRawIndexINS_17FrozenCounterSpecEEEtt.part.0
	movl	%eax, %ebp
.L273:
	leaq	48(%rbx), %rdi
	call	_ZN8opendnp313StaticBuffers12GetArrayViewINS_17FrozenCounterSpecEEEN7openpal9ArrayViewINS_4CellIT_EEtEEv@PLT
	cmpw	%r15w, %bp
	movq	%rdx, 8(%rsp)
	movl	%r15d, %edx
	cmovnb	%ebp, %edx
	cmpw	%ax, %dx
	setb	%r13b
	cmpw	%r15w, %bp
	setnb	%al
	andb	%al, %r13b
	je	.L242
	leaq	80(%rsp), %rax
	leaq	47(%rsp), %r14
	movq	%rax, 24(%rsp)
	.p2align 4,,10
	.p2align 3
.L279:
	movzwl	%r15w, %edx
	movq	8(%rsp), %rcx
	movq	%r14, %rsi
	movq	%rdx, %rax
	salq	$4, %rax
	subq	%rdx, %rax
	leaq	(%rcx,%rax,8), %rdx
	movdqu	(%rdx), %xmm2
	movzbl	27(%rdx), %edi
	movq	%rdx, (%rsp)
	movaps	%xmm2, 48(%rsp)
	movq	16(%rdx), %rax
	movq	%rax, 64(%rsp)
	movl	16(%rdx), %ecx
	movl	%ecx, 16(%rsp)
	call	_ZN8opendnp38Database19ConvertToEventClassENS_10PointClassERNS_10EventClassE@PLT
	movq	(%rsp), %rdx
	testb	%al, %al
	je	.L275
	movl	32(%rdx), %esi
	cmpb	48(%rdx), %r12b
	jne	.L276
	movl	64(%rdx), %eax
	movl	16(%rsp), %r8d
	movq	%rax, %rdi
	movq	%r8, %r9
	subq	%rax, %r9
	subq	%r8, %rax
	cmpl	%edi, %r8d
	cmova	%r9, %rax
	cmpq	%rax, %rsi
	jnb	.L275
.L276:
	movq	8(%rbx), %rdi
	movzwl	24(%rdx), %r8d
	movb	%r12b, 48(%rsp)
	movdqa	48(%rsp), %xmm1
	movzbl	28(%rdx), %esi
	movq	%rdx, (%rsp)
	movups	%xmm1, 48(%rdx)
	movl	64(%rsp), %eax
	movl	%eax, 64(%rdx)
	movq	(%rdi), %rax
	movdqa	48(%rsp), %xmm2
	movq	48(%rax), %rax
	movw	%r8w, 80(%rsp)
	movzbl	47(%rsp), %r8d
	movb	%sil, 112(%rsp)
	movups	%xmm2, 88(%rsp)
	movq	24(%rsp), %rsi
	movb	%r8b, 82(%rsp)
	movq	64(%rsp), %r8
	movq	%r8, 104(%rsp)
	call	*%rax
	movq	(%rsp), %rdx
.L275:
	movb	%r12b, 48(%rsp)
	movdqa	48(%rsp), %xmm3
	addl	$1, %r15d
	movups	%xmm3, (%rdx)
	movl	64(%rsp), %eax
	movl	%eax, 16(%rdx)
	cmpw	%r15w, %bp
	jnb	.L279
	jmp	.L242
	.p2align 4,,10
	.p2align 3
.L247:
	je	.L260
	movzwl	%ax, %esi
	movq	%rbx, %rdi
	call	_ZN8opendnp38Database11GetRawIndexINS_10AnalogSpecEEEtt.part.0
	cmpb	$0, 16(%rbx)
	movl	%eax, %r15d
	je	.L260
	movzwl	%r13w, %esi
	movq	%rbx, %rdi
	call	_ZN8opendnp38Database11GetRawIndexINS_10AnalogSpecEEEtt.part.0
	movl	%eax, %ebp
.L260:
	leaq	48(%rbx), %rdi
	call	_ZN8opendnp313StaticBuffers12GetArrayViewINS_10AnalogSpecEEEN7openpal9ArrayViewINS_4CellIT_EEtEEv@PLT
	cmpw	%r15w, %bp
	movq	%rdx, 8(%rsp)
	movl	%r15d, %edx
	cmovnb	%ebp, %edx
	cmpw	%ax, %dx
	setb	%r13b
	cmpw	%r15w, %bp
	setnb	%al
	andb	%al, %r13b
	je	.L242
	leaq	48(%rsp), %rax
	leaq	47(%rsp), %r14
	movq	%rax, 16(%rsp)
	.p2align 4,,10
	.p2align 3
.L265:
	movzwl	%r15w, %edx
	movq	8(%rsp), %rcx
	movq	%r14, %rsi
	movq	%rdx, %rax
	salq	$4, %rax
	subq	%rdx, %rax
	leaq	(%rcx,%rax,8), %rdx
	movdqu	(%rdx), %xmm5
	movq	%rdx, (%rsp)
	movaps	%xmm5, 48(%rsp)
	movq	16(%rdx), %rax
	movb	%r12b, 48(%rsp)
	movzbl	27(%rdx), %edi
	movq	%rax, 64(%rsp)
	call	_ZN8opendnp38Database19ConvertToEventClassENS_10PointClassERNS_10EventClassE@PLT
	movq	(%rsp), %rdx
	testb	%al, %al
	je	.L263
	movsd	32(%rdx), %xmm0
	movq	16(%rsp), %rdi
	leaq	48(%rdx), %rsi
	call	_ZN8opendnp312measurements7IsEventERKNS_16TypedMeasurementIdEES4_d@PLT
	movq	(%rsp), %rdx
	testb	%al, %al
	je	.L263
	movdqa	48(%rsp), %xmm7
	movq	8(%rbx), %rdi
	movzwl	24(%rdx), %r8d
	movzbl	28(%rdx), %esi
	movups	%xmm7, 48(%rdx)
	movq	64(%rsp), %rax
	movq	%rax, 64(%rdx)
	movq	(%rdi), %rax
	movdqa	48(%rsp), %xmm0
	movq	32(%rax), %rax
	movw	%r8w, 80(%rsp)
	movzbl	47(%rsp), %r8d
	movb	%sil, 112(%rsp)
	leaq	80(%rsp), %rsi
	movups	%xmm0, 88(%rsp)
	movb	%r8b, 82(%rsp)
	movq	64(%rsp), %r8
	movq	%r8, 104(%rsp)
	call	*%rax
	movq	(%rsp), %rdx
.L263:
	movdqa	48(%rsp), %xmm6
	addl	$1, %r15d
	movups	%xmm6, (%rdx)
	movq	64(%rsp), %rax
	movq	%rax, 16(%rdx)
	cmpw	%r15w, %bp
	jnb	.L265
	jmp	.L242
	.p2align 4,,10
	.p2align 3
.L342:
	leaq	80(%rsp), %rax
	leaq	47(%rsp), %r14
	movq	%rax, 16(%rsp)
	.p2align 4,,10
	.p2align 3
.L283:
	movzwl	%r15w, %eax
	movq	%r14, %rsi
	leaq	0(,%rax,8), %rdx
	subq	%rax, %rdx
	salq	$4, %rdx
	addq	8(%rsp), %rdx
	movdqu	(%rdx), %xmm4
	movzbl	27(%rdx), %edi
	movq	%rdx, (%rsp)
	movaps	%xmm4, 48(%rsp)
	movq	16(%rdx), %rax
	movq	%rax, 64(%rsp)
	call	_ZN8opendnp38Database19ConvertToEventClassENS_10PointClassERNS_10EventClassE@PLT
	movq	(%rsp), %rdx
	testb	%al, %al
	je	.L282
	cmpb	40(%rdx), %r12b
	je	.L282
	movq	8(%rbx), %rdi
	movzwl	24(%rdx), %r8d
	movb	%r12b, 48(%rsp)
	movdqa	48(%rsp), %xmm3
	movzbl	28(%rdx), %esi
	movups	%xmm3, 40(%rdx)
	movzbl	64(%rsp), %eax
	movb	%al, 56(%rdx)
	movq	(%rdi), %rax
	movdqa	48(%rsp), %xmm4
	movq	56(%rax), %rax
	movw	%r8w, 80(%rsp)
	movzbl	47(%rsp), %r8d
	movb	%sil, 112(%rsp)
	movups	%xmm4, 88(%rsp)
	movq	16(%rsp), %rsi
	movb	%r8b, 82(%rsp)
	movq	64(%rsp), %r8
	movq	%r8, 104(%rsp)
	call	*%rax
	movq	(%rsp), %rdx
.L282:
	movb	%r12b, 48(%rsp)
	movdqa	48(%rsp), %xmm5
	addl	$1, %r15d
	movups	%xmm5, (%rdx)
	movzbl	64(%rsp), %eax
	movb	%al, 16(%rdx)
	cmpw	%r15w, %bp
	jnb	.L283
	jmp	.L242
.L343:
	call	__stack_chk_fail@PLT
	.cfi_endproc
	.section	.text.unlikely
	.cfi_startproc
	.type	_ZN8opendnp38Database6ModifyENS_9FlagsTypeEtth.cold, @function
_ZN8opendnp38Database6ModifyENS_9FlagsTypeEtth.cold:
.LFSB2452:
.L291:
	.cfi_def_cfa_offset 192
	.cfi_offset 3, -56
	.cfi_offset 6, -48
	.cfi_offset 12, -40
	.cfi_offset 13, -32
	.cfi_offset 14, -24
	.cfi_offset 15, -16
	xorl	%r13d, %r13d
	jmp	.L242
	.cfi_endproc
.LFE2452:
	.text
	.size	_ZN8opendnp38Database6ModifyENS_9FlagsTypeEtth, .-_ZN8opendnp38Database6ModifyENS_9FlagsTypeEtth
	.section	.text.unlikely
	.size	_ZN8opendnp38Database6ModifyENS_9FlagsTypeEtth.cold, .-_ZN8opendnp38Database6ModifyENS_9FlagsTypeEtth.cold
.LCOLDE0:
	.text
.LHOTE0:
	.align 2
	.p2align 4
	.globl	_ZN8opendnp38Database6UpdateERKNS_15DoubleBitBinaryEtNS_9EventModeE
	.type	_ZN8opendnp38Database6UpdateERKNS_15DoubleBitBinaryEtNS_9EventModeE, @function
_ZN8opendnp38Database6UpdateERKNS_15DoubleBitBinaryEtNS_9EventModeE:
.LFB2445:
	.cfi_startproc
	endbr64
	pushq	%r13
	.cfi_def_cfa_offset 16
	.cfi_offset 13, -16
	movl	%ecx, %r13d
	pushq	%r12
	.cfi_def_cfa_offset 24
	.cfi_offset 12, -24
	movq	%rsi, %r12
	pushq	%rbp
	.cfi_def_cfa_offset 32
	.cfi_offset 6, -32
	movzwl	%dx, %ebp
	pushq	%rbx
	.cfi_def_cfa_offset 40
	.cfi_offset 3, -40
	movq	%rdi, %rbx
	subq	$72, %rsp
	.cfi_def_cfa_offset 112
	movq	%fs:40, %rax
	movq	%rax, 56(%rsp)
	xorl	%eax, %eax
	cmpb	$0, 16(%rdi)
	je	.L345
	movzwl	%dx, %esi
	call	_ZN8opendnp38Database11GetRawIndexINS_19DoubleBitBinarySpecEEEtt.part.0
	movzwl	%ax, %ebp
.L345:
	leaq	48(%rbx), %rdi
	call	_ZN8opendnp313StaticBuffers12GetArrayViewINS_19DoubleBitBinarySpecEEEN7openpal9ArrayViewINS_4CellIT_EEtEEv@PLT
	movl	%eax, %r8d
	xorl	%eax, %eax
	cmpw	%r8w, %bp
	jb	.L357
.L346:
	movq	56(%rsp), %rdx
	subq	%fs:40, %rdx
	jne	.L358
	addq	$72, %rsp
	.cfi_remember_state
	.cfi_def_cfa_offset 40
	popq	%rbx
	.cfi_def_cfa_offset 32
	popq	%rbp
	.cfi_def_cfa_offset 24
	popq	%r12
	.cfi_def_cfa_offset 16
	popq	%r13
	.cfi_def_cfa_offset 8
	ret
	.p2align 4,,10
	.p2align 3
.L357:
	.cfi_restore_state
	leaq	0(,%rbp,8), %rax
	leaq	15(%rsp), %rsi
	subq	%rbp, %rax
	salq	$4, %rax
	movq	%rax, %rbp
	addq	%rdx, %rbp
	movzbl	27(%rbp), %edi
	call	_ZN8opendnp38Database19ConvertToEventClassENS_10PointClassERNS_10EventClassE@PLT
	testb	%al, %al
	je	.L347
	testb	%r13b, %r13b
	je	.L348
	cmpb	$1, %r13b
	jne	.L347
.L349:
	movdqu	(%r12), %xmm1
	movzwl	24(%rbp), %ecx
	leaq	16(%rsp), %rsi
	movq	8(%rbx), %rdi
	movzbl	28(%rbp), %edx
	movups	%xmm1, 40(%rbp)
	movzbl	16(%r12), %eax
	movb	%al, 56(%rbp)
	movq	(%rdi), %rax
	movw	%cx, 16(%rsp)
	movzbl	15(%rsp), %ecx
	movdqu	(%r12), %xmm2
	movq	24(%rax), %rax
	movb	%dl, 48(%rsp)
	movb	%cl, 18(%rsp)
	movq	16(%r12), %rcx
	movups	%xmm2, 24(%rsp)
	movq	%rcx, 40(%rsp)
	call	*%rax
.L347:
	movdqu	(%r12), %xmm0
	movups	%xmm0, 0(%rbp)
	movzbl	16(%r12), %eax
	movb	%al, 16(%rbp)
	movl	$1, %eax
	jmp	.L346
	.p2align 4,,10
	.p2align 3
.L348:
	movzbl	(%r12), %eax
	cmpb	%al, 40(%rbp)
	je	.L347
	jmp	.L349
.L358:
	call	__stack_chk_fail@PLT
	.cfi_endproc
.LFE2445:
	.size	_ZN8opendnp38Database6UpdateERKNS_15DoubleBitBinaryEtNS_9EventModeE, .-_ZN8opendnp38Database6UpdateERKNS_15DoubleBitBinaryEtNS_9EventModeE
	.align 2
	.p2align 4
	.globl	_ZN8opendnp38Database6UpdateERKNS_18BinaryOutputStatusEtNS_9EventModeE
	.type	_ZN8opendnp38Database6UpdateERKNS_18BinaryOutputStatusEtNS_9EventModeE, @function
_ZN8opendnp38Database6UpdateERKNS_18BinaryOutputStatusEtNS_9EventModeE:
.LFB2449:
	.cfi_startproc
	endbr64
	pushq	%r13
	.cfi_def_cfa_offset 16
	.cfi_offset 13, -16
	movl	%ecx, %r13d
	pushq	%r12
	.cfi_def_cfa_offset 24
	.cfi_offset 12, -24
	movq	%rsi, %r12
	pushq	%rbp
	.cfi_def_cfa_offset 32
	.cfi_offset 6, -32
	movzwl	%dx, %ebp
	pushq	%rbx
	.cfi_def_cfa_offset 40
	.cfi_offset 3, -40
	movq	%rdi, %rbx
	subq	$72, %rsp
	.cfi_def_cfa_offset 112
	movq	%fs:40, %rax
	movq	%rax, 56(%rsp)
	xorl	%eax, %eax
	cmpb	$0, 16(%rdi)
	je	.L360
	movzwl	%dx, %esi
	call	_ZN8opendnp38Database11GetRawIndexINS_22BinaryOutputStatusSpecEEEtt.part.0
	movzwl	%ax, %ebp
.L360:
	leaq	48(%rbx), %rdi
	call	_ZN8opendnp313StaticBuffers12GetArrayViewINS_22BinaryOutputStatusSpecEEEN7openpal9ArrayViewINS_4CellIT_EEtEEv@PLT
	movl	%eax, %r8d
	xorl	%eax, %eax
	cmpw	%r8w, %bp
	jb	.L372
.L361:
	movq	56(%rsp), %rdx
	subq	%fs:40, %rdx
	jne	.L373
	addq	$72, %rsp
	.cfi_remember_state
	.cfi_def_cfa_offset 40
	popq	%rbx
	.cfi_def_cfa_offset 32
	popq	%rbp
	.cfi_def_cfa_offset 24
	popq	%r12
	.cfi_def_cfa_offset 16
	popq	%r13
	.cfi_def_cfa_offset 8
	ret
	.p2align 4,,10
	.p2align 3
.L372:
	.cfi_restore_state
	leaq	0(,%rbp,8), %rax
	leaq	15(%rsp), %rsi
	subq	%rbp, %rax
	salq	$4, %rax
	movq	%rax, %rbp
	addq	%rdx, %rbp
	movzbl	27(%rbp), %edi
	call	_ZN8opendnp38Database19ConvertToEventClassENS_10PointClassERNS_10EventClassE@PLT
	testb	%al, %al
	je	.L362
	testb	%r13b, %r13b
	je	.L363
	cmpb	$1, %r13b
	jne	.L362
.L364:
	movdqu	(%r12), %xmm1
	movzwl	24(%rbp), %ecx
	leaq	16(%rsp), %rsi
	movq	8(%rbx), %rdi
	movzbl	28(%rbp), %edx
	movups	%xmm1, 40(%rbp)
	movzbl	16(%r12), %eax
	movb	%al, 56(%rbp)
	movq	(%rdi), %rax
	movw	%cx, 16(%rsp)
	movzbl	15(%rsp), %ecx
	movdqu	(%r12), %xmm2
	movb	%dl, 48(%rsp)
	movb	%cl, 18(%rsp)
	movq	16(%r12), %rcx
	movups	%xmm2, 24(%rsp)
	movq	%rcx, 40(%rsp)
	call	*56(%rax)
.L362:
	movdqu	(%r12), %xmm0
	movups	%xmm0, 0(%rbp)
	movzbl	16(%r12), %eax
	movb	%al, 16(%rbp)
	movl	$1, %eax
	jmp	.L361
	.p2align 4,,10
	.p2align 3
.L363:
	movzbl	(%r12), %eax
	cmpb	%al, 40(%rbp)
	je	.L362
	jmp	.L364
.L373:
	call	__stack_chk_fail@PLT
	.cfi_endproc
.LFE2449:
	.size	_ZN8opendnp38Database6UpdateERKNS_18BinaryOutputStatusEtNS_9EventModeE, .-_ZN8opendnp38Database6UpdateERKNS_18BinaryOutputStatusEtNS_9EventModeE
	.align 2
	.p2align 4
	.globl	_ZN8opendnp38Database6UpdateERKNS_6BinaryEtNS_9EventModeE
	.type	_ZN8opendnp38Database6UpdateERKNS_6BinaryEtNS_9EventModeE, @function
_ZN8opendnp38Database6UpdateERKNS_6BinaryEtNS_9EventModeE:
.LFB2444:
	.cfi_startproc
	endbr64
	pushq	%r13
	.cfi_def_cfa_offset 16
	.cfi_offset 13, -16
	movl	%ecx, %r13d
	pushq	%r12
	.cfi_def_cfa_offset 24
	.cfi_offset 12, -24
	movq	%rsi, %r12
	pushq	%rbp
	.cfi_def_cfa_offset 32
	.cfi_offset 6, -32
	movzwl	%dx, %ebp
	pushq	%rbx
	.cfi_def_cfa_offset 40
	.cfi_offset 3, -40
	movq	%rdi, %rbx
	subq	$72, %rsp
	.cfi_def_cfa_offset 112
	movq	%fs:40, %rax
	movq	%rax, 56(%rsp)
	xorl	%eax, %eax
	cmpb	$0, 16(%rdi)
	je	.L375
	movzwl	%dx, %esi
	call	_ZN8opendnp38Database11GetRawIndexINS_10BinarySpecEEEtt.part.0
	movzwl	%ax, %ebp
.L375:
	leaq	48(%rbx), %rdi
	call	_ZN8opendnp313StaticBuffers12GetArrayViewINS_10BinarySpecEEEN7openpal9ArrayViewINS_4CellIT_EEtEEv@PLT
	movl	%eax, %r8d
	xorl	%eax, %eax
	cmpw	%r8w, %bp
	jb	.L387
.L376:
	movq	56(%rsp), %rdx
	subq	%fs:40, %rdx
	jne	.L388
	addq	$72, %rsp
	.cfi_remember_state
	.cfi_def_cfa_offset 40
	popq	%rbx
	.cfi_def_cfa_offset 32
	popq	%rbp
	.cfi_def_cfa_offset 24
	popq	%r12
	.cfi_def_cfa_offset 16
	popq	%r13
	.cfi_def_cfa_offset 8
	ret
	.p2align 4,,10
	.p2align 3
.L387:
	.cfi_restore_state
	leaq	0(,%rbp,8), %rax
	leaq	15(%rsp), %rsi
	subq	%rbp, %rax
	salq	$4, %rax
	movq	%rax, %rbp
	addq	%rdx, %rbp
	movzbl	27(%rbp), %edi
	call	_ZN8opendnp38Database19ConvertToEventClassENS_10PointClassERNS_10EventClassE@PLT
	testb	%al, %al
	je	.L377
	testb	%r13b, %r13b
	je	.L378
	cmpb	$1, %r13b
	jne	.L377
.L379:
	movdqu	(%r12), %xmm1
	movzwl	24(%rbp), %ecx
	leaq	16(%rsp), %rsi
	movq	8(%rbx), %rdi
	movzbl	28(%rbp), %edx
	movups	%xmm1, 40(%rbp)
	movzbl	16(%r12), %eax
	movb	%al, 56(%rbp)
	movq	(%rdi), %rax
	movw	%cx, 16(%rsp)
	movzbl	15(%rsp), %ecx
	movdqu	(%r12), %xmm2
	movq	16(%rax), %rax
	movb	%dl, 48(%rsp)
	movb	%cl, 18(%rsp)
	movq	16(%r12), %rcx
	movups	%xmm2, 24(%rsp)
	movq	%rcx, 40(%rsp)
	call	*%rax
.L377:
	movdqu	(%r12), %xmm0
	movups	%xmm0, 0(%rbp)
	movzbl	16(%r12), %eax
	movb	%al, 16(%rbp)
	movl	$1, %eax
	jmp	.L376
	.p2align 4,,10
	.p2align 3
.L378:
	movzbl	(%r12), %eax
	cmpb	%al, 40(%rbp)
	je	.L377
	jmp	.L379
.L388:
	call	__stack_chk_fail@PLT
	.cfi_endproc
.LFE2444:
	.size	_ZN8opendnp38Database6UpdateERKNS_6BinaryEtNS_9EventModeE, .-_ZN8opendnp38Database6UpdateERKNS_6BinaryEtNS_9EventModeE
	.align 2
	.p2align 4
	.globl	_ZN8opendnp38Database6UpdateERKNS_18AnalogOutputStatusEtNS_9EventModeE
	.type	_ZN8opendnp38Database6UpdateERKNS_18AnalogOutputStatusEtNS_9EventModeE, @function
_ZN8opendnp38Database6UpdateERKNS_18AnalogOutputStatusEtNS_9EventModeE:
.LFB2450:
	.cfi_startproc
	endbr64
	pushq	%r13
	.cfi_def_cfa_offset 16
	.cfi_offset 13, -16
	movl	%ecx, %r13d
	pushq	%r12
	.cfi_def_cfa_offset 24
	.cfi_offset 12, -24
	movq	%rsi, %r12
	pushq	%rbp
	.cfi_def_cfa_offset 32
	.cfi_offset 6, -32
	movzwl	%dx, %ebp
	pushq	%rbx
	.cfi_def_cfa_offset 40
	.cfi_offset 3, -40
	movq	%rdi, %rbx
	subq	$72, %rsp
	.cfi_def_cfa_offset 112
	movq	%fs:40, %rax
	movq	%rax, 56(%rsp)
	xorl	%eax, %eax
	cmpb	$0, 16(%rdi)
	je	.L390
	movzwl	%dx, %esi
	call	_ZN8opendnp38Database11GetRawIndexINS_22AnalogOutputStatusSpecEEEtt.part.0
	movzwl	%ax, %ebp
.L390:
	leaq	48(%rbx), %rdi
	call	_ZN8opendnp313StaticBuffers12GetArrayViewINS_22AnalogOutputStatusSpecEEEN7openpal9ArrayViewINS_4CellIT_EEtEEv@PLT
	movl	%eax, %r8d
	xorl	%eax, %eax
	cmpw	%r8w, %bp
	jb	.L404
.L391:
	movq	56(%rsp), %rdx
	subq	%fs:40, %rdx
	jne	.L405
	addq	$72, %rsp
	.cfi_remember_state
	.cfi_def_cfa_offset 40
	popq	%rbx
	.cfi_def_cfa_offset 32
	popq	%rbp
	.cfi_def_cfa_offset 24
	popq	%r12
	.cfi_def_cfa_offset 16
	popq	%r13
	.cfi_def_cfa_offset 8
	ret
	.p2align 4,,10
	.p2align 3
.L404:
	.cfi_restore_state
	movq	%rbp, %rax
	leaq	15(%rsp), %rsi
	salq	$4, %rax
	subq	%rbp, %rax
	leaq	(%rdx,%rax,8), %rbp
	movzbl	27(%rbp), %edi
	call	_ZN8opendnp38Database19ConvertToEventClassENS_10PointClassERNS_10EventClassE@PLT
	testb	%al, %al
	je	.L393
	testb	%r13b, %r13b
	je	.L394
	cmpb	$1, %r13b
	jne	.L393
.L395:
	movdqu	(%r12), %xmm2
	movzwl	24(%rbp), %ecx
	leaq	16(%rsp), %rsi
	movq	8(%rbx), %rdi
	movzbl	28(%rbp), %edx
	movups	%xmm2, 48(%rbp)
	movq	16(%r12), %rax
	movq	%rax, 64(%rbp)
	movq	(%rdi), %rax
	movw	%cx, 16(%rsp)
	movzbl	15(%rsp), %ecx
	movdqu	(%r12), %xmm3
	movb	%dl, 48(%rsp)
	movb	%cl, 18(%rsp)
	movq	16(%r12), %rcx
	movups	%xmm3, 24(%rsp)
	movq	%rcx, 40(%rsp)
	call	*64(%rax)
.L393:
	movdqu	(%r12), %xmm1
	movups	%xmm1, 0(%rbp)
	movq	16(%r12), %rax
	movq	%rax, 16(%rbp)
	movl	$1, %eax
	jmp	.L391
	.p2align 4,,10
	.p2align 3
.L394:
	movsd	32(%rbp), %xmm0
	leaq	48(%rbp), %rsi
	movq	%r12, %rdi
	call	_ZN8opendnp312measurements7IsEventERKNS_16TypedMeasurementIdEES4_d@PLT
	testb	%al, %al
	je	.L393
	jmp	.L395
.L405:
	call	__stack_chk_fail@PLT
	.cfi_endproc
.LFE2450:
	.size	_ZN8opendnp38Database6UpdateERKNS_18AnalogOutputStatusEtNS_9EventModeE, .-_ZN8opendnp38Database6UpdateERKNS_18AnalogOutputStatusEtNS_9EventModeE
	.align 2
	.p2align 4
	.globl	_ZN8opendnp38Database6UpdateERKNS_6AnalogEtNS_9EventModeE
	.type	_ZN8opendnp38Database6UpdateERKNS_6AnalogEtNS_9EventModeE, @function
_ZN8opendnp38Database6UpdateERKNS_6AnalogEtNS_9EventModeE:
.LFB2446:
	.cfi_startproc
	endbr64
	pushq	%r13
	.cfi_def_cfa_offset 16
	.cfi_offset 13, -16
	movl	%ecx, %r13d
	pushq	%r12
	.cfi_def_cfa_offset 24
	.cfi_offset 12, -24
	movq	%rsi, %r12
	pushq	%rbp
	.cfi_def_cfa_offset 32
	.cfi_offset 6, -32
	movzwl	%dx, %ebp
	pushq	%rbx
	.cfi_def_cfa_offset 40
	.cfi_offset 3, -40
	movq	%rdi, %rbx
	subq	$72, %rsp
	.cfi_def_cfa_offset 112
	movq	%fs:40, %rax
	movq	%rax, 56(%rsp)
	xorl	%eax, %eax
	cmpb	$0, 16(%rdi)
	je	.L407
	movzwl	%dx, %esi
	call	_ZN8opendnp38Database11GetRawIndexINS_10AnalogSpecEEEtt.part.0
	movzwl	%ax, %ebp
.L407:
	leaq	48(%rbx), %rdi
	call	_ZN8opendnp313StaticBuffers12GetArrayViewINS_10AnalogSpecEEEN7openpal9ArrayViewINS_4CellIT_EEtEEv@PLT
	movl	%eax, %r8d
	xorl	%eax, %eax
	cmpw	%r8w, %bp
	jb	.L421
.L408:
	movq	56(%rsp), %rdx
	subq	%fs:40, %rdx
	jne	.L422
	addq	$72, %rsp
	.cfi_remember_state
	.cfi_def_cfa_offset 40
	popq	%rbx
	.cfi_def_cfa_offset 32
	popq	%rbp
	.cfi_def_cfa_offset 24
	popq	%r12
	.cfi_def_cfa_offset 16
	popq	%r13
	.cfi_def_cfa_offset 8
	ret
	.p2align 4,,10
	.p2align 3
.L421:
	.cfi_restore_state
	movq	%rbp, %rax
	leaq	15(%rsp), %rsi
	salq	$4, %rax
	subq	%rbp, %rax
	leaq	(%rdx,%rax,8), %rbp
	movzbl	27(%rbp), %edi
	call	_ZN8opendnp38Database19ConvertToEventClassENS_10PointClassERNS_10EventClassE@PLT
	testb	%al, %al
	je	.L410
	testb	%r13b, %r13b
	je	.L411
	cmpb	$1, %r13b
	jne	.L410
.L412:
	movdqu	(%r12), %xmm2
	movzwl	24(%rbp), %ecx
	leaq	16(%rsp), %rsi
	movq	8(%rbx), %rdi
	movzbl	28(%rbp), %edx
	movups	%xmm2, 48(%rbp)
	movq	16(%r12), %rax
	movq	%rax, 64(%rbp)
	movq	(%rdi), %rax
	movw	%cx, 16(%rsp)
	movzbl	15(%rsp), %ecx
	movdqu	(%r12), %xmm3
	movq	32(%rax), %rax
	movb	%dl, 48(%rsp)
	movb	%cl, 18(%rsp)
	movq	16(%r12), %rcx
	movups	%xmm3, 24(%rsp)
	movq	%rcx, 40(%rsp)
	call	*%rax
.L410:
	movdqu	(%r12), %xmm1
	movups	%xmm1, 0(%rbp)
	movq	16(%r12), %rax
	movq	%rax, 16(%rbp)
	movl	$1, %eax
	jmp	.L408
	.p2align 4,,10
	.p2align 3
.L411:
	movsd	32(%rbp), %xmm0
	leaq	48(%rbp), %rsi
	movq	%r12, %rdi
	call	_ZN8opendnp312measurements7IsEventERKNS_16TypedMeasurementIdEES4_d@PLT
	testb	%al, %al
	je	.L410
	jmp	.L412
.L422:
	call	__stack_chk_fail@PLT
	.cfi_endproc
.LFE2446:
	.size	_ZN8opendnp38Database6UpdateERKNS_6AnalogEtNS_9EventModeE, .-_ZN8opendnp38Database6UpdateERKNS_6AnalogEtNS_9EventModeE
	.align 2
	.p2align 4
	.globl	_ZN8opendnp38Database6UpdateERKNS_7CounterEtNS_9EventModeE
	.type	_ZN8opendnp38Database6UpdateERKNS_7CounterEtNS_9EventModeE, @function
_ZN8opendnp38Database6UpdateERKNS_7CounterEtNS_9EventModeE:
.LFB2447:
	.cfi_startproc
	endbr64
	pushq	%r13
	.cfi_def_cfa_offset 16
	.cfi_offset 13, -16
	movl	%ecx, %r13d
	pushq	%r12
	.cfi_def_cfa_offset 24
	.cfi_offset 12, -24
	movq	%rsi, %r12
	pushq	%rbp
	.cfi_def_cfa_offset 32
	.cfi_offset 6, -32
	movzwl	%dx, %ebp
	pushq	%rbx
	.cfi_def_cfa_offset 40
	.cfi_offset 3, -40
	movq	%rdi, %rbx
	subq	$72, %rsp
	.cfi_def_cfa_offset 112
	movq	%fs:40, %rax
	movq	%rax, 56(%rsp)
	xorl	%eax, %eax
	cmpb	$0, 16(%rdi)
	je	.L424
	movzwl	%dx, %esi
	call	_ZN8opendnp38Database11GetRawIndexINS_11CounterSpecEEEtt.part.0
	movzwl	%ax, %ebp
.L424:
	leaq	48(%rbx), %rdi
	call	_ZN8opendnp313StaticBuffers12GetArrayViewINS_11CounterSpecEEEN7openpal9ArrayViewINS_4CellIT_EEtEEv@PLT
	movl	%eax, %r8d
	xorl	%eax, %eax
	cmpw	%r8w, %bp
	jb	.L438
.L425:
	movq	56(%rsp), %rdx
	subq	%fs:40, %rdx
	jne	.L439
	addq	$72, %rsp
	.cfi_remember_state
	.cfi_def_cfa_offset 40
	popq	%rbx
	.cfi_def_cfa_offset 32
	popq	%rbp
	.cfi_def_cfa_offset 24
	popq	%r12
	.cfi_def_cfa_offset 16
	popq	%r13
	.cfi_def_cfa_offset 8
	ret
	.p2align 4,,10
	.p2align 3
.L438:
	.cfi_restore_state
	movq	%rbp, %rax
	leaq	15(%rsp), %rsi
	salq	$4, %rax
	subq	%rbp, %rax
	leaq	(%rdx,%rax,8), %rbp
	movzbl	27(%rbp), %edi
	call	_ZN8opendnp38Database19ConvertToEventClassENS_10PointClassERNS_10EventClassE@PLT
	testb	%al, %al
	je	.L426
	testb	%r13b, %r13b
	je	.L427
	cmpb	$1, %r13b
	jne	.L426
.L428:
	movdqu	(%r12), %xmm1
	movzwl	24(%rbp), %ecx
	leaq	16(%rsp), %rsi
	movq	8(%rbx), %rdi
	movzbl	28(%rbp), %edx
	movups	%xmm1, 48(%rbp)
	movl	16(%r12), %eax
	movl	%eax, 64(%rbp)
	movq	(%rdi), %rax
	movw	%cx, 16(%rsp)
	movzbl	15(%rsp), %ecx
	movdqu	(%r12), %xmm2
	movq	40(%rax), %rax
	movb	%dl, 48(%rsp)
	movb	%cl, 18(%rsp)
	movq	16(%r12), %rcx
	movups	%xmm2, 24(%rsp)
	movq	%rcx, 40(%rsp)
	call	*%rax
.L426:
	movdqu	(%r12), %xmm0
	movups	%xmm0, 0(%rbp)
	movl	16(%r12), %eax
	movl	%eax, 16(%rbp)
	movl	$1, %eax
	jmp	.L425
	.p2align 4,,10
	.p2align 3
.L427:
	movzbl	(%r12), %eax
	cmpb	%al, 48(%rbp)
	jne	.L428
	movl	16(%r12), %esi
	movl	64(%rbp), %eax
	movq	%rsi, %rdi
	movq	%rax, %rdx
	subq	%rax, %rdi
	subq	%rsi, %rax
	cmpl	%edx, %esi
	movl	32(%rbp), %edx
	cmova	%rdi, %rax
	cmpq	%rax, %rdx
	jnb	.L426
	jmp	.L428
.L439:
	call	__stack_chk_fail@PLT
	.cfi_endproc
.LFE2447:
	.size	_ZN8opendnp38Database6UpdateERKNS_7CounterEtNS_9EventModeE, .-_ZN8opendnp38Database6UpdateERKNS_7CounterEtNS_9EventModeE
	.align 2
	.p2align 4
	.globl	_ZN8opendnp38Database6UpdateERKNS_13FrozenCounterEtNS_9EventModeE
	.type	_ZN8opendnp38Database6UpdateERKNS_13FrozenCounterEtNS_9EventModeE, @function
_ZN8opendnp38Database6UpdateERKNS_13FrozenCounterEtNS_9EventModeE:
.LFB2448:
	.cfi_startproc
	endbr64
	pushq	%r13
	.cfi_def_cfa_offset 16
	.cfi_offset 13, -16
	movl	%ecx, %r13d
	pushq	%r12
	.cfi_def_cfa_offset 24
	.cfi_offset 12, -24
	movq	%rsi, %r12
	pushq	%rbp
	.cfi_def_cfa_offset 32
	.cfi_offset 6, -32
	movzwl	%dx, %ebp
	pushq	%rbx
	.cfi_def_cfa_offset 40
	.cfi_offset 3, -40
	movq	%rdi, %rbx
	subq	$72, %rsp
	.cfi_def_cfa_offset 112
	movq	%fs:40, %rax
	movq	%rax, 56(%rsp)
	xorl	%eax, %eax
	cmpb	$0, 16(%rdi)
	je	.L441
	movzwl	%dx, %esi
	call	_ZN8opendnp38Database11GetRawIndexINS_17FrozenCounterSpecEEEtt.part.0
	movzwl	%ax, %ebp
.L441:
	leaq	48(%rbx), %rdi
	call	_ZN8opendnp313StaticBuffers12GetArrayViewINS_17FrozenCounterSpecEEEN7openpal9ArrayViewINS_4CellIT_EEtEEv@PLT
	movl	%eax, %r8d
	xorl	%eax, %eax
	cmpw	%r8w, %bp
	jb	.L455
.L442:
	movq	56(%rsp), %rdx
	subq	%fs:40, %rdx
	jne	.L456
	addq	$72, %rsp
	.cfi_remember_state
	.cfi_def_cfa_offset 40
	popq	%rbx
	.cfi_def_cfa_offset 32
	popq	%rbp
	.cfi_def_cfa_offset 24
	popq	%r12
	.cfi_def_cfa_offset 16
	popq	%r13
	.cfi_def_cfa_offset 8
	ret
	.p2align 4,,10
	.p2align 3
.L455:
	.cfi_restore_state
	movq	%rbp, %rax
	leaq	15(%rsp), %rsi
	salq	$4, %rax
	subq	%rbp, %rax
	leaq	(%rdx,%rax,8), %rbp
	movzbl	27(%rbp), %edi
	call	_ZN8opendnp38Database19ConvertToEventClassENS_10PointClassERNS_10EventClassE@PLT
	testb	%al, %al
	je	.L443
	testb	%r13b, %r13b
	je	.L444
	cmpb	$1, %r13b
	jne	.L443
.L445:
	movdqu	(%r12), %xmm1
	movzwl	24(%rbp), %ecx
	leaq	16(%rsp), %rsi
	movq	8(%rbx), %rdi
	movzbl	28(%rbp), %edx
	movups	%xmm1, 48(%rbp)
	movl	16(%r12), %eax
	movl	%eax, 64(%rbp)
	movq	(%rdi), %rax
	movw	%cx, 16(%rsp)
	movzbl	15(%rsp), %ecx
	movdqu	(%r12), %xmm2
	movb	%dl, 48(%rsp)
	movb	%cl, 18(%rsp)
	movq	16(%r12), %rcx
	movups	%xmm2, 24(%rsp)
	movq	%rcx, 40(%rsp)
	call	*48(%rax)
.L443:
	movdqu	(%r12), %xmm0
	movups	%xmm0, 0(%rbp)
	movl	16(%r12), %eax
	movl	%eax, 16(%rbp)
	movl	$1, %eax
	jmp	.L442
	.p2align 4,,10
	.p2align 3
.L444:
	movzbl	(%r12), %eax
	cmpb	%al, 48(%rbp)
	jne	.L445
	movl	16(%r12), %esi
	movl	64(%rbp), %eax
	movq	%rsi, %rdi
	movq	%rax, %rdx
	subq	%rax, %rdi
	subq	%rsi, %rax
	cmpl	%edx, %esi
	movl	32(%rbp), %edx
	cmova	%rdi, %rax
	cmpq	%rax, %rdx
	jnb	.L443
	jmp	.L445
.L456:
	call	__stack_chk_fail@PLT
	.cfi_endproc
.LFE2448:
	.size	_ZN8opendnp38Database6UpdateERKNS_13FrozenCounterEtNS_9EventModeE, .-_ZN8opendnp38Database6UpdateERKNS_13FrozenCounterEtNS_9EventModeE
	.weak	_ZTSN7openpal7HasSizeItEE
	.section	.rodata._ZTSN7openpal7HasSizeItEE,"aG",@progbits,_ZTSN7openpal7HasSizeItEE,comdat
	.align 16
	.type	_ZTSN7openpal7HasSizeItEE, @object
	.size	_ZTSN7openpal7HasSizeItEE, 22
_ZTSN7openpal7HasSizeItEE:
	.string	"N7openpal7HasSizeItEE"
	.weak	_ZTIN7openpal7HasSizeItEE
	.section	.data.rel.ro._ZTIN7openpal7HasSizeItEE,"awG",@progbits,_ZTIN7openpal7HasSizeItEE,comdat
	.align 8
	.type	_ZTIN7openpal7HasSizeItEE, @object
	.size	_ZTIN7openpal7HasSizeItEE, 16
_ZTIN7openpal7HasSizeItEE:
	.quad	_ZTVN10__cxxabiv117__class_type_infoE+16
	.quad	_ZTSN7openpal7HasSizeItEE
	.weak	_ZTSN7openpal10UncopyableE
	.section	.rodata._ZTSN7openpal10UncopyableE,"aG",@progbits,_ZTSN7openpal10UncopyableE,comdat
	.align 16
	.type	_ZTSN7openpal10UncopyableE, @object
	.size	_ZTSN7openpal10UncopyableE, 23
_ZTSN7openpal10UncopyableE:
	.string	"N7openpal10UncopyableE"
	.weak	_ZTIN7openpal10UncopyableE
	.section	.data.rel.ro._ZTIN7openpal10UncopyableE,"awG",@progbits,_ZTIN7openpal10UncopyableE,comdat
	.align 8
	.type	_ZTIN7openpal10UncopyableE, @object
	.size	_ZTIN7openpal10UncopyableE, 16
_ZTIN7openpal10UncopyableE:
	.quad	_ZTVN10__cxxabiv117__class_type_infoE+16
	.quad	_ZTSN7openpal10UncopyableE
	.weak	_ZTSN8opendnp314IUpdateHandlerE
	.section	.rodata._ZTSN8opendnp314IUpdateHandlerE,"aG",@progbits,_ZTSN8opendnp314IUpdateHandlerE,comdat
	.align 16
	.type	_ZTSN8opendnp314IUpdateHandlerE, @object
	.size	_ZTSN8opendnp314IUpdateHandlerE, 28
_ZTSN8opendnp314IUpdateHandlerE:
	.string	"N8opendnp314IUpdateHandlerE"
	.weak	_ZTIN8opendnp314IUpdateHandlerE
	.section	.data.rel.ro._ZTIN8opendnp314IUpdateHandlerE,"awG",@progbits,_ZTIN8opendnp314IUpdateHandlerE,comdat
	.align 8
	.type	_ZTIN8opendnp314IUpdateHandlerE, @object
	.size	_ZTIN8opendnp314IUpdateHandlerE, 16
_ZTIN8opendnp314IUpdateHandlerE:
	.quad	_ZTVN10__cxxabiv117__class_type_infoE+16
	.quad	_ZTSN8opendnp314IUpdateHandlerE
	.weak	_ZTSN8opendnp39IDatabaseE
	.section	.rodata._ZTSN8opendnp39IDatabaseE,"aG",@progbits,_ZTSN8opendnp39IDatabaseE,comdat
	.align 16
	.type	_ZTSN8opendnp39IDatabaseE, @object
	.size	_ZTSN8opendnp39IDatabaseE, 22
_ZTSN8opendnp39IDatabaseE:
	.string	"N8opendnp39IDatabaseE"
	.weak	_ZTIN8opendnp39IDatabaseE
	.section	.data.rel.ro._ZTIN8opendnp39IDatabaseE,"awG",@progbits,_ZTIN8opendnp39IDatabaseE,comdat
	.align 8
	.type	_ZTIN8opendnp39IDatabaseE, @object
	.size	_ZTIN8opendnp39IDatabaseE, 24
_ZTIN8opendnp39IDatabaseE:
	.quad	_ZTVN10__cxxabiv120__si_class_type_infoE+16
	.quad	_ZTSN8opendnp39IDatabaseE
	.quad	_ZTIN8opendnp314IUpdateHandlerE
	.weak	_ZTSN7openpal5ArrayIN8opendnp34CellINS1_10BinarySpecEEEtEE
	.section	.rodata._ZTSN7openpal5ArrayIN8opendnp34CellINS1_10BinarySpecEEEtEE,"aG",@progbits,_ZTSN7openpal5ArrayIN8opendnp34CellINS1_10BinarySpecEEEtEE,comdat
	.align 32
	.type	_ZTSN7openpal5ArrayIN8opendnp34CellINS1_10BinarySpecEEEtEE, @object
	.size	_ZTSN7openpal5ArrayIN8opendnp34CellINS1_10BinarySpecEEEtEE, 55
_ZTSN7openpal5ArrayIN8opendnp34CellINS1_10BinarySpecEEEtEE:
	.string	"N7openpal5ArrayIN8opendnp34CellINS1_10BinarySpecEEEtEE"
	.weak	_ZTIN7openpal5ArrayIN8opendnp34CellINS1_10BinarySpecEEEtEE
	.section	.data.rel.ro._ZTIN7openpal5ArrayIN8opendnp34CellINS1_10BinarySpecEEEtEE,"awG",@progbits,_ZTIN7openpal5ArrayIN8opendnp34CellINS1_10BinarySpecEEEtEE,comdat
	.align 8
	.type	_ZTIN7openpal5ArrayIN8opendnp34CellINS1_10BinarySpecEEEtEE, @object
	.size	_ZTIN7openpal5ArrayIN8opendnp34CellINS1_10BinarySpecEEEtEE, 40
_ZTIN7openpal5ArrayIN8opendnp34CellINS1_10BinarySpecEEEtEE:
	.quad	_ZTVN10__cxxabiv121__vmi_class_type_infoE+16
	.quad	_ZTSN7openpal5ArrayIN8opendnp34CellINS1_10BinarySpecEEEtEE
	.long	0
	.long	1
	.quad	_ZTIN7openpal7HasSizeItEE
	.quad	2050
	.weak	_ZTSN7openpal5ArrayIN8opendnp34CellINS1_19DoubleBitBinarySpecEEEtEE
	.section	.rodata._ZTSN7openpal5ArrayIN8opendnp34CellINS1_19DoubleBitBinarySpecEEEtEE,"aG",@progbits,_ZTSN7openpal5ArrayIN8opendnp34CellINS1_19DoubleBitBinarySpecEEEtEE,comdat
	.align 32
	.type	_ZTSN7openpal5ArrayIN8opendnp34CellINS1_19DoubleBitBinarySpecEEEtEE, @object
	.size	_ZTSN7openpal5ArrayIN8opendnp34CellINS1_19DoubleBitBinarySpecEEEtEE, 64
_ZTSN7openpal5ArrayIN8opendnp34CellINS1_19DoubleBitBinarySpecEEEtEE:
	.string	"N7openpal5ArrayIN8opendnp34CellINS1_19DoubleBitBinarySpecEEEtEE"
	.weak	_ZTIN7openpal5ArrayIN8opendnp34CellINS1_19DoubleBitBinarySpecEEEtEE
	.section	.data.rel.ro._ZTIN7openpal5ArrayIN8opendnp34CellINS1_19DoubleBitBinarySpecEEEtEE,"awG",@progbits,_ZTIN7openpal5ArrayIN8opendnp34CellINS1_19DoubleBitBinarySpecEEEtEE,comdat
	.align 8
	.type	_ZTIN7openpal5ArrayIN8opendnp34CellINS1_19DoubleBitBinarySpecEEEtEE, @object
	.size	_ZTIN7openpal5ArrayIN8opendnp34CellINS1_19DoubleBitBinarySpecEEEtEE, 40
_ZTIN7openpal5ArrayIN8opendnp34CellINS1_19DoubleBitBinarySpecEEEtEE:
	.quad	_ZTVN10__cxxabiv121__vmi_class_type_infoE+16
	.quad	_ZTSN7openpal5ArrayIN8opendnp34CellINS1_19DoubleBitBinarySpecEEEtEE
	.long	0
	.long	1
	.quad	_ZTIN7openpal7HasSizeItEE
	.quad	2050
	.weak	_ZTSN7openpal5ArrayIN8opendnp34CellINS1_10AnalogSpecEEEtEE
	.section	.rodata._ZTSN7openpal5ArrayIN8opendnp34CellINS1_10AnalogSpecEEEtEE,"aG",@progbits,_ZTSN7openpal5ArrayIN8opendnp34CellINS1_10AnalogSpecEEEtEE,comdat
	.align 32
	.type	_ZTSN7openpal5ArrayIN8opendnp34CellINS1_10AnalogSpecEEEtEE, @object
	.size	_ZTSN7openpal5ArrayIN8opendnp34CellINS1_10AnalogSpecEEEtEE, 55
_ZTSN7openpal5ArrayIN8opendnp34CellINS1_10AnalogSpecEEEtEE:
	.string	"N7openpal5ArrayIN8opendnp34CellINS1_10AnalogSpecEEEtEE"
	.weak	_ZTIN7openpal5ArrayIN8opendnp34CellINS1_10AnalogSpecEEEtEE
	.section	.data.rel.ro._ZTIN7openpal5ArrayIN8opendnp34CellINS1_10AnalogSpecEEEtEE,"awG",@progbits,_ZTIN7openpal5ArrayIN8opendnp34CellINS1_10AnalogSpecEEEtEE,comdat
	.align 8
	.type	_ZTIN7openpal5ArrayIN8opendnp34CellINS1_10AnalogSpecEEEtEE, @object
	.size	_ZTIN7openpal5ArrayIN8opendnp34CellINS1_10AnalogSpecEEEtEE, 40
_ZTIN7openpal5ArrayIN8opendnp34CellINS1_10AnalogSpecEEEtEE:
	.quad	_ZTVN10__cxxabiv121__vmi_class_type_infoE+16
	.quad	_ZTSN7openpal5ArrayIN8opendnp34CellINS1_10AnalogSpecEEEtEE
	.long	0
	.long	1
	.quad	_ZTIN7openpal7HasSizeItEE
	.quad	2050
	.weak	_ZTSN7openpal5ArrayIN8opendnp34CellINS1_11CounterSpecEEEtEE
	.section	.rodata._ZTSN7openpal5ArrayIN8opendnp34CellINS1_11CounterSpecEEEtEE,"aG",@progbits,_ZTSN7openpal5ArrayIN8opendnp34CellINS1_11CounterSpecEEEtEE,comdat
	.align 32
	.type	_ZTSN7openpal5ArrayIN8opendnp34CellINS1_11CounterSpecEEEtEE, @object
	.size	_ZTSN7openpal5ArrayIN8opendnp34CellINS1_11CounterSpecEEEtEE, 56
_ZTSN7openpal5ArrayIN8opendnp34CellINS1_11CounterSpecEEEtEE:
	.string	"N7openpal5ArrayIN8opendnp34CellINS1_11CounterSpecEEEtEE"
	.weak	_ZTIN7openpal5ArrayIN8opendnp34CellINS1_11CounterSpecEEEtEE
	.section	.data.rel.ro._ZTIN7openpal5ArrayIN8opendnp34CellINS1_11CounterSpecEEEtEE,"awG",@progbits,_ZTIN7openpal5ArrayIN8opendnp34CellINS1_11CounterSpecEEEtEE,comdat
	.align 8
	.type	_ZTIN7openpal5ArrayIN8opendnp34CellINS1_11CounterSpecEEEtEE, @object
	.size	_ZTIN7openpal5ArrayIN8opendnp34CellINS1_11CounterSpecEEEtEE, 40
_ZTIN7openpal5ArrayIN8opendnp34CellINS1_11CounterSpecEEEtEE:
	.quad	_ZTVN10__cxxabiv121__vmi_class_type_infoE+16
	.quad	_ZTSN7openpal5ArrayIN8opendnp34CellINS1_11CounterSpecEEEtEE
	.long	0
	.long	1
	.quad	_ZTIN7openpal7HasSizeItEE
	.quad	2050
	.weak	_ZTSN7openpal5ArrayIN8opendnp34CellINS1_17FrozenCounterSpecEEEtEE
	.section	.rodata._ZTSN7openpal5ArrayIN8opendnp34CellINS1_17FrozenCounterSpecEEEtEE,"aG",@progbits,_ZTSN7openpal5ArrayIN8opendnp34CellINS1_17FrozenCounterSpecEEEtEE,comdat
	.align 32
	.type	_ZTSN7openpal5ArrayIN8opendnp34CellINS1_17FrozenCounterSpecEEEtEE, @object
	.size	_ZTSN7openpal5ArrayIN8opendnp34CellINS1_17FrozenCounterSpecEEEtEE, 62
_ZTSN7openpal5ArrayIN8opendnp34CellINS1_17FrozenCounterSpecEEEtEE:
	.string	"N7openpal5ArrayIN8opendnp34CellINS1_17FrozenCounterSpecEEEtEE"
	.weak	_ZTIN7openpal5ArrayIN8opendnp34CellINS1_17FrozenCounterSpecEEEtEE
	.section	.data.rel.ro._ZTIN7openpal5ArrayIN8opendnp34CellINS1_17FrozenCounterSpecEEEtEE,"awG",@progbits,_ZTIN7openpal5ArrayIN8opendnp34CellINS1_17FrozenCounterSpecEEEtEE,comdat
	.align 8
	.type	_ZTIN7openpal5ArrayIN8opendnp34CellINS1_17FrozenCounterSpecEEEtEE, @object
	.size	_ZTIN7openpal5ArrayIN8opendnp34CellINS1_17FrozenCounterSpecEEEtEE, 40
_ZTIN7openpal5ArrayIN8opendnp34CellINS1_17FrozenCounterSpecEEEtEE:
	.quad	_ZTVN10__cxxabiv121__vmi_class_type_infoE+16
	.quad	_ZTSN7openpal5ArrayIN8opendnp34CellINS1_17FrozenCounterSpecEEEtEE
	.long	0
	.long	1
	.quad	_ZTIN7openpal7HasSizeItEE
	.quad	2050
	.weak	_ZTSN7openpal5ArrayIN8opendnp34CellINS1_22BinaryOutputStatusSpecEEEtEE
	.section	.rodata._ZTSN7openpal5ArrayIN8opendnp34CellINS1_22BinaryOutputStatusSpecEEEtEE,"aG",@progbits,_ZTSN7openpal5ArrayIN8opendnp34CellINS1_22BinaryOutputStatusSpecEEEtEE,comdat
	.align 32
	.type	_ZTSN7openpal5ArrayIN8opendnp34CellINS1_22BinaryOutputStatusSpecEEEtEE, @object
	.size	_ZTSN7openpal5ArrayIN8opendnp34CellINS1_22BinaryOutputStatusSpecEEEtEE, 67
_ZTSN7openpal5ArrayIN8opendnp34CellINS1_22BinaryOutputStatusSpecEEEtEE:
	.string	"N7openpal5ArrayIN8opendnp34CellINS1_22BinaryOutputStatusSpecEEEtEE"
	.weak	_ZTIN7openpal5ArrayIN8opendnp34CellINS1_22BinaryOutputStatusSpecEEEtEE
	.section	.data.rel.ro._ZTIN7openpal5ArrayIN8opendnp34CellINS1_22BinaryOutputStatusSpecEEEtEE,"awG",@progbits,_ZTIN7openpal5ArrayIN8opendnp34CellINS1_22BinaryOutputStatusSpecEEEtEE,comdat
	.align 8
	.type	_ZTIN7openpal5ArrayIN8opendnp34CellINS1_22BinaryOutputStatusSpecEEEtEE, @object
	.size	_ZTIN7openpal5ArrayIN8opendnp34CellINS1_22BinaryOutputStatusSpecEEEtEE, 40
_ZTIN7openpal5ArrayIN8opendnp34CellINS1_22BinaryOutputStatusSpecEEEtEE:
	.quad	_ZTVN10__cxxabiv121__vmi_class_type_infoE+16
	.quad	_ZTSN7openpal5ArrayIN8opendnp34CellINS1_22BinaryOutputStatusSpecEEEtEE
	.long	0
	.long	1
	.quad	_ZTIN7openpal7HasSizeItEE
	.quad	2050
	.weak	_ZTSN7openpal5ArrayIN8opendnp34CellINS1_22AnalogOutputStatusSpecEEEtEE
	.section	.rodata._ZTSN7openpal5ArrayIN8opendnp34CellINS1_22AnalogOutputStatusSpecEEEtEE,"aG",@progbits,_ZTSN7openpal5ArrayIN8opendnp34CellINS1_22AnalogOutputStatusSpecEEEtEE,comdat
	.align 32
	.type	_ZTSN7openpal5ArrayIN8opendnp34CellINS1_22AnalogOutputStatusSpecEEEtEE, @object
	.size	_ZTSN7openpal5ArrayIN8opendnp34CellINS1_22AnalogOutputStatusSpecEEEtEE, 67
_ZTSN7openpal5ArrayIN8opendnp34CellINS1_22AnalogOutputStatusSpecEEEtEE:
	.string	"N7openpal5ArrayIN8opendnp34CellINS1_22AnalogOutputStatusSpecEEEtEE"
	.weak	_ZTIN7openpal5ArrayIN8opendnp34CellINS1_22AnalogOutputStatusSpecEEEtEE
	.section	.data.rel.ro._ZTIN7openpal5ArrayIN8opendnp34CellINS1_22AnalogOutputStatusSpecEEEtEE,"awG",@progbits,_ZTIN7openpal5ArrayIN8opendnp34CellINS1_22AnalogOutputStatusSpecEEEtEE,comdat
	.align 8
	.type	_ZTIN7openpal5ArrayIN8opendnp34CellINS1_22AnalogOutputStatusSpecEEEtEE, @object
	.size	_ZTIN7openpal5ArrayIN8opendnp34CellINS1_22AnalogOutputStatusSpecEEEtEE, 40
_ZTIN7openpal5ArrayIN8opendnp34CellINS1_22AnalogOutputStatusSpecEEEtEE:
	.quad	_ZTVN10__cxxabiv121__vmi_class_type_infoE+16
	.quad	_ZTSN7openpal5ArrayIN8opendnp34CellINS1_22AnalogOutputStatusSpecEEEtEE
	.long	0
	.long	1
	.quad	_ZTIN7openpal7HasSizeItEE
	.quad	2050
	.weak	_ZTSN7openpal5ArrayIN8opendnp34CellINS1_19TimeAndIntervalSpecEEEtEE
	.section	.rodata._ZTSN7openpal5ArrayIN8opendnp34CellINS1_19TimeAndIntervalSpecEEEtEE,"aG",@progbits,_ZTSN7openpal5ArrayIN8opendnp34CellINS1_19TimeAndIntervalSpecEEEtEE,comdat
	.align 32
	.type	_ZTSN7openpal5ArrayIN8opendnp34CellINS1_19TimeAndIntervalSpecEEEtEE, @object
	.size	_ZTSN7openpal5ArrayIN8opendnp34CellINS1_19TimeAndIntervalSpecEEEtEE, 64
_ZTSN7openpal5ArrayIN8opendnp34CellINS1_19TimeAndIntervalSpecEEEtEE:
	.string	"N7openpal5ArrayIN8opendnp34CellINS1_19TimeAndIntervalSpecEEEtEE"
	.weak	_ZTIN7openpal5ArrayIN8opendnp34CellINS1_19TimeAndIntervalSpecEEEtEE
	.section	.data.rel.ro._ZTIN7openpal5ArrayIN8opendnp34CellINS1_19TimeAndIntervalSpecEEEtEE,"awG",@progbits,_ZTIN7openpal5ArrayIN8opendnp34CellINS1_19TimeAndIntervalSpecEEEtEE,comdat
	.align 8
	.type	_ZTIN7openpal5ArrayIN8opendnp34CellINS1_19TimeAndIntervalSpecEEEtEE, @object
	.size	_ZTIN7openpal5ArrayIN8opendnp34CellINS1_19TimeAndIntervalSpecEEEtEE, 40
_ZTIN7openpal5ArrayIN8opendnp34CellINS1_19TimeAndIntervalSpecEEEtEE:
	.quad	_ZTVN10__cxxabiv121__vmi_class_type_infoE+16
	.quad	_ZTSN7openpal5ArrayIN8opendnp34CellINS1_19TimeAndIntervalSpecEEEtEE
	.long	0
	.long	1
	.quad	_ZTIN7openpal7HasSizeItEE
	.quad	2050
	.weak	_ZTSN8opendnp38DatabaseE
	.section	.rodata._ZTSN8opendnp38DatabaseE,"aG",@progbits,_ZTSN8opendnp38DatabaseE,comdat
	.align 16
	.type	_ZTSN8opendnp38DatabaseE, @object
	.size	_ZTSN8opendnp38DatabaseE, 21
_ZTSN8opendnp38DatabaseE:
	.string	"N8opendnp38DatabaseE"
	.weak	_ZTIN8opendnp38DatabaseE
	.section	.data.rel.ro._ZTIN8opendnp38DatabaseE,"awG",@progbits,_ZTIN8opendnp38DatabaseE,comdat
	.align 8
	.type	_ZTIN8opendnp38DatabaseE, @object
	.size	_ZTIN8opendnp38DatabaseE, 56
_ZTIN8opendnp38DatabaseE:
	.quad	_ZTVN10__cxxabiv121__vmi_class_type_infoE+16
	.quad	_ZTSN8opendnp38DatabaseE
	.long	0
	.long	2
	.quad	_ZTIN8opendnp39IDatabaseE
	.quad	2
	.quad	_ZTIN7openpal10UncopyableE
	.quad	0
	.weak	_ZTVN7openpal5ArrayIN8opendnp34CellINS1_10BinarySpecEEEtEE
	.section	.data.rel.ro._ZTVN7openpal5ArrayIN8opendnp34CellINS1_10BinarySpecEEEtEE,"awG",@progbits,_ZTVN7openpal5ArrayIN8opendnp34CellINS1_10BinarySpecEEEtEE,comdat
	.align 8
	.type	_ZTVN7openpal5ArrayIN8opendnp34CellINS1_10BinarySpecEEEtEE, @object
	.size	_ZTVN7openpal5ArrayIN8opendnp34CellINS1_10BinarySpecEEEtEE, 32
_ZTVN7openpal5ArrayIN8opendnp34CellINS1_10BinarySpecEEEtEE:
	.quad	0
	.quad	_ZTIN7openpal5ArrayIN8opendnp34CellINS1_10BinarySpecEEEtEE
	.quad	_ZN7openpal5ArrayIN8opendnp34CellINS1_10BinarySpecEEEtED1Ev
	.quad	_ZN7openpal5ArrayIN8opendnp34CellINS1_10BinarySpecEEEtED0Ev
	.weak	_ZTVN7openpal5ArrayIN8opendnp34CellINS1_19DoubleBitBinarySpecEEEtEE
	.section	.data.rel.ro._ZTVN7openpal5ArrayIN8opendnp34CellINS1_19DoubleBitBinarySpecEEEtEE,"awG",@progbits,_ZTVN7openpal5ArrayIN8opendnp34CellINS1_19DoubleBitBinarySpecEEEtEE,comdat
	.align 8
	.type	_ZTVN7openpal5ArrayIN8opendnp34CellINS1_19DoubleBitBinarySpecEEEtEE, @object
	.size	_ZTVN7openpal5ArrayIN8opendnp34CellINS1_19DoubleBitBinarySpecEEEtEE, 32
_ZTVN7openpal5ArrayIN8opendnp34CellINS1_19DoubleBitBinarySpecEEEtEE:
	.quad	0
	.quad	_ZTIN7openpal5ArrayIN8opendnp34CellINS1_19DoubleBitBinarySpecEEEtEE
	.quad	_ZN7openpal5ArrayIN8opendnp34CellINS1_19DoubleBitBinarySpecEEEtED1Ev
	.quad	_ZN7openpal5ArrayIN8opendnp34CellINS1_19DoubleBitBinarySpecEEEtED0Ev
	.weak	_ZTVN7openpal5ArrayIN8opendnp34CellINS1_10AnalogSpecEEEtEE
	.section	.data.rel.ro._ZTVN7openpal5ArrayIN8opendnp34CellINS1_10AnalogSpecEEEtEE,"awG",@progbits,_ZTVN7openpal5ArrayIN8opendnp34CellINS1_10AnalogSpecEEEtEE,comdat
	.align 8
	.type	_ZTVN7openpal5ArrayIN8opendnp34CellINS1_10AnalogSpecEEEtEE, @object
	.size	_ZTVN7openpal5ArrayIN8opendnp34CellINS1_10AnalogSpecEEEtEE, 32
_ZTVN7openpal5ArrayIN8opendnp34CellINS1_10AnalogSpecEEEtEE:
	.quad	0
	.quad	_ZTIN7openpal5ArrayIN8opendnp34CellINS1_10AnalogSpecEEEtEE
	.quad	_ZN7openpal5ArrayIN8opendnp34CellINS1_10AnalogSpecEEEtED1Ev
	.quad	_ZN7openpal5ArrayIN8opendnp34CellINS1_10AnalogSpecEEEtED0Ev
	.weak	_ZTVN7openpal5ArrayIN8opendnp34CellINS1_11CounterSpecEEEtEE
	.section	.data.rel.ro._ZTVN7openpal5ArrayIN8opendnp34CellINS1_11CounterSpecEEEtEE,"awG",@progbits,_ZTVN7openpal5ArrayIN8opendnp34CellINS1_11CounterSpecEEEtEE,comdat
	.align 8
	.type	_ZTVN7openpal5ArrayIN8opendnp34CellINS1_11CounterSpecEEEtEE, @object
	.size	_ZTVN7openpal5ArrayIN8opendnp34CellINS1_11CounterSpecEEEtEE, 32
_ZTVN7openpal5ArrayIN8opendnp34CellINS1_11CounterSpecEEEtEE:
	.quad	0
	.quad	_ZTIN7openpal5ArrayIN8opendnp34CellINS1_11CounterSpecEEEtEE
	.quad	_ZN7openpal5ArrayIN8opendnp34CellINS1_11CounterSpecEEEtED1Ev
	.quad	_ZN7openpal5ArrayIN8opendnp34CellINS1_11CounterSpecEEEtED0Ev
	.weak	_ZTVN7openpal5ArrayIN8opendnp34CellINS1_17FrozenCounterSpecEEEtEE
	.section	.data.rel.ro._ZTVN7openpal5ArrayIN8opendnp34CellINS1_17FrozenCounterSpecEEEtEE,"awG",@progbits,_ZTVN7openpal5ArrayIN8opendnp34CellINS1_17FrozenCounterSpecEEEtEE,comdat
	.align 8
	.type	_ZTVN7openpal5ArrayIN8opendnp34CellINS1_17FrozenCounterSpecEEEtEE, @object
	.size	_ZTVN7openpal5ArrayIN8opendnp34CellINS1_17FrozenCounterSpecEEEtEE, 32
_ZTVN7openpal5ArrayIN8opendnp34CellINS1_17FrozenCounterSpecEEEtEE:
	.quad	0
	.quad	_ZTIN7openpal5ArrayIN8opendnp34CellINS1_17FrozenCounterSpecEEEtEE
	.quad	_ZN7openpal5ArrayIN8opendnp34CellINS1_17FrozenCounterSpecEEEtED1Ev
	.quad	_ZN7openpal5ArrayIN8opendnp34CellINS1_17FrozenCounterSpecEEEtED0Ev
	.weak	_ZTVN7openpal5ArrayIN8opendnp34CellINS1_22BinaryOutputStatusSpecEEEtEE
	.section	.data.rel.ro._ZTVN7openpal5ArrayIN8opendnp34CellINS1_22BinaryOutputStatusSpecEEEtEE,"awG",@progbits,_ZTVN7openpal5ArrayIN8opendnp34CellINS1_22BinaryOutputStatusSpecEEEtEE,comdat
	.align 8
	.type	_ZTVN7openpal5ArrayIN8opendnp34CellINS1_22BinaryOutputStatusSpecEEEtEE, @object
	.size	_ZTVN7openpal5ArrayIN8opendnp34CellINS1_22BinaryOutputStatusSpecEEEtEE, 32
_ZTVN7openpal5ArrayIN8opendnp34CellINS1_22BinaryOutputStatusSpecEEEtEE:
	.quad	0
	.quad	_ZTIN7openpal5ArrayIN8opendnp34CellINS1_22BinaryOutputStatusSpecEEEtEE
	.quad	_ZN7openpal5ArrayIN8opendnp34CellINS1_22BinaryOutputStatusSpecEEEtED1Ev
	.quad	_ZN7openpal5ArrayIN8opendnp34CellINS1_22BinaryOutputStatusSpecEEEtED0Ev
	.weak	_ZTVN7openpal5ArrayIN8opendnp34CellINS1_22AnalogOutputStatusSpecEEEtEE
	.section	.data.rel.ro._ZTVN7openpal5ArrayIN8opendnp34CellINS1_22AnalogOutputStatusSpecEEEtEE,"awG",@progbits,_ZTVN7openpal5ArrayIN8opendnp34CellINS1_22AnalogOutputStatusSpecEEEtEE,comdat
	.align 8
	.type	_ZTVN7openpal5ArrayIN8opendnp34CellINS1_22AnalogOutputStatusSpecEEEtEE, @object
	.size	_ZTVN7openpal5ArrayIN8opendnp34CellINS1_22AnalogOutputStatusSpecEEEtEE, 32
_ZTVN7openpal5ArrayIN8opendnp34CellINS1_22AnalogOutputStatusSpecEEEtEE:
	.quad	0
	.quad	_ZTIN7openpal5ArrayIN8opendnp34CellINS1_22AnalogOutputStatusSpecEEEtEE
	.quad	_ZN7openpal5ArrayIN8opendnp34CellINS1_22AnalogOutputStatusSpecEEEtED1Ev
	.quad	_ZN7openpal5ArrayIN8opendnp34CellINS1_22AnalogOutputStatusSpecEEEtED0Ev
	.weak	_ZTVN7openpal5ArrayIN8opendnp34CellINS1_19TimeAndIntervalSpecEEEtEE
	.section	.data.rel.ro._ZTVN7openpal5ArrayIN8opendnp34CellINS1_19TimeAndIntervalSpecEEEtEE,"awG",@progbits,_ZTVN7openpal5ArrayIN8opendnp34CellINS1_19TimeAndIntervalSpecEEEtEE,comdat
	.align 8
	.type	_ZTVN7openpal5ArrayIN8opendnp34CellINS1_19TimeAndIntervalSpecEEEtEE, @object
	.size	_ZTVN7openpal5ArrayIN8opendnp34CellINS1_19TimeAndIntervalSpecEEEtEE, 32
_ZTVN7openpal5ArrayIN8opendnp34CellINS1_19TimeAndIntervalSpecEEEtEE:
	.quad	0
	.quad	_ZTIN7openpal5ArrayIN8opendnp34CellINS1_19TimeAndIntervalSpecEEEtEE
	.quad	_ZN7openpal5ArrayIN8opendnp34CellINS1_19TimeAndIntervalSpecEEEtED1Ev
	.quad	_ZN7openpal5ArrayIN8opendnp34CellINS1_19TimeAndIntervalSpecEEEtED0Ev
	.weak	_ZTVN8opendnp38DatabaseE
	.section	.data.rel.ro._ZTVN8opendnp38DatabaseE,"awG",@progbits,_ZTVN8opendnp38DatabaseE,comdat
	.align 8
	.type	_ZTVN8opendnp38DatabaseE, @object
	.size	_ZTVN8opendnp38DatabaseE, 128
_ZTVN8opendnp38DatabaseE:
	.quad	0
	.quad	_ZTIN8opendnp38DatabaseE
	.quad	_ZN8opendnp38DatabaseD1Ev
	.quad	_ZN8opendnp38DatabaseD0Ev
	.quad	_ZN8opendnp38Database6UpdateERKNS_6BinaryEtNS_9EventModeE
	.quad	_ZN8opendnp38Database6UpdateERKNS_15DoubleBitBinaryEtNS_9EventModeE
	.quad	_ZN8opendnp38Database6UpdateERKNS_6AnalogEtNS_9EventModeE
	.quad	_ZN8opendnp38Database6UpdateERKNS_7CounterEtNS_9EventModeE
	.quad	_ZN8opendnp38Database6UpdateERKNS_13FrozenCounterEtNS_9EventModeE
	.quad	_ZN8opendnp38Database6UpdateERKNS_18BinaryOutputStatusEtNS_9EventModeE
	.quad	_ZN8opendnp38Database6UpdateERKNS_18AnalogOutputStatusEtNS_9EventModeE
	.quad	_ZN8opendnp38Database6UpdateERKNS_15TimeAndIntervalEt
	.quad	_ZN8opendnp38Database6ModifyENS_9FlagsTypeEtth
	.quad	_ZN8opendnp38Database17GetResponseLoaderEv
	.quad	_ZN8opendnp38Database17GetStaticSelectorEv
	.quad	_ZN8opendnp38Database16GetClassAssignerEv
	.ident	"GCC: (Ubuntu 11.4.0-1ubuntu1~22.04) 11.4.0"
	.section	.note.GNU-stack,"",@progbits
	.section	.note.gnu.property,"a"
	.align 8
	.long	1f - 0f
	.long	4f - 1f
	.long	5
0:
	.string	"GNU"
1:
	.align 8
	.long	0xc0000002
	.long	3f - 2f
2:
	.long	0x3
3:
	.align 8
4:
