	.file	"OutstationContext.cpp"
	.text
	.section	.text._ZN8opendnp322IOutstationApplication19SupportsAssignClassEv,"axG",@progbits,_ZN8opendnp322IOutstationApplication19SupportsAssignClassEv,comdat
	.align 2
	.p2align 4
	.weak	_ZN8opendnp322IOutstationApplication19SupportsAssignClassEv
	.type	_ZN8opendnp322IOutstationApplication19SupportsAssignClassEv, @function
_ZN8opendnp322IOutstationApplication19SupportsAssignClassEv:
.LFB2153:
	.cfi_startproc
	endbr64
	xorl	%eax, %eax
	ret
	.cfi_endproc
.LFE2153:
	.size	_ZN8opendnp322IOutstationApplication19SupportsAssignClassEv, .-_ZN8opendnp322IOutstationApplication19SupportsAssignClassEv
	.section	.text._ZNK8opendnp322IOutstationApplication18ColdRestartSupportEv,"axG",@progbits,_ZNK8opendnp322IOutstationApplication18ColdRestartSupportEv,comdat
	.align 2
	.p2align 4
	.weak	_ZNK8opendnp322IOutstationApplication18ColdRestartSupportEv
	.type	_ZNK8opendnp322IOutstationApplication18ColdRestartSupportEv, @function
_ZNK8opendnp322IOutstationApplication18ColdRestartSupportEv:
.LFB2156:
	.cfi_startproc
	endbr64
	xorl	%eax, %eax
	ret
	.cfi_endproc
.LFE2156:
	.size	_ZNK8opendnp322IOutstationApplication18ColdRestartSupportEv, .-_ZNK8opendnp322IOutstationApplication18ColdRestartSupportEv
	.section	.text._ZNK8opendnp322IOutstationApplication18WarmRestartSupportEv,"axG",@progbits,_ZNK8opendnp322IOutstationApplication18WarmRestartSupportEv,comdat
	.align 2
	.p2align 4
	.weak	_ZNK8opendnp322IOutstationApplication18WarmRestartSupportEv
	.type	_ZNK8opendnp322IOutstationApplication18WarmRestartSupportEv, @function
_ZNK8opendnp322IOutstationApplication18WarmRestartSupportEv:
.LFB2157:
	.cfi_startproc
	endbr64
	xorl	%eax, %eax
	ret
	.cfi_endproc
.LFE2157:
	.size	_ZNK8opendnp322IOutstationApplication18WarmRestartSupportEv, .-_ZNK8opendnp322IOutstationApplication18WarmRestartSupportEv
	.section	.text._ZN8opendnp322IOutstationApplication11ColdRestartEv,"axG",@progbits,_ZN8opendnp322IOutstationApplication11ColdRestartEv,comdat
	.align 2
	.p2align 4
	.weak	_ZN8opendnp322IOutstationApplication11ColdRestartEv
	.type	_ZN8opendnp322IOutstationApplication11ColdRestartEv, @function
_ZN8opendnp322IOutstationApplication11ColdRestartEv:
.LFB2158:
	.cfi_startproc
	endbr64
	movl	$-1, %eax
	ret
	.cfi_endproc
.LFE2158:
	.size	_ZN8opendnp322IOutstationApplication11ColdRestartEv, .-_ZN8opendnp322IOutstationApplication11ColdRestartEv
	.section	.text._ZN8opendnp322IOutstationApplication11WarmRestartEv,"axG",@progbits,_ZN8opendnp322IOutstationApplication11WarmRestartEv,comdat
	.align 2
	.p2align 4
	.weak	_ZN8opendnp322IOutstationApplication11WarmRestartEv
	.type	_ZN8opendnp322IOutstationApplication11WarmRestartEv, @function
_ZN8opendnp322IOutstationApplication11WarmRestartEv:
.LFB2159:
	.cfi_startproc
	endbr64
	movl	$-1, %eax
	ret
	.cfi_endproc
.LFE2159:
	.size	_ZN8opendnp322IOutstationApplication11WarmRestartEv, .-_ZN8opendnp322IOutstationApplication11WarmRestartEv
	.section	.text._ZN8opendnp321ConstantCommandAction6ActionERKNS_23ControlRelayOutputBlockEt,"axG",@progbits,_ZN8opendnp321ConstantCommandAction6ActionERKNS_23ControlRelayOutputBlockEt,comdat
	.align 2
	.p2align 4
	.weak	_ZN8opendnp321ConstantCommandAction6ActionERKNS_23ControlRelayOutputBlockEt
	.type	_ZN8opendnp321ConstantCommandAction6ActionERKNS_23ControlRelayOutputBlockEt, @function
_ZN8opendnp321ConstantCommandAction6ActionERKNS_23ControlRelayOutputBlockEt:
.LFB2886:
	.cfi_startproc
	endbr64
	movzbl	8(%rdi), %eax
	ret
	.cfi_endproc
.LFE2886:
	.size	_ZN8opendnp321ConstantCommandAction6ActionERKNS_23ControlRelayOutputBlockEt, .-_ZN8opendnp321ConstantCommandAction6ActionERKNS_23ControlRelayOutputBlockEt
	.section	.text._ZN8opendnp321ConstantCommandAction6ActionERKNS_17AnalogOutputInt16Et,"axG",@progbits,_ZN8opendnp321ConstantCommandAction6ActionERKNS_17AnalogOutputInt16Et,comdat
	.align 2
	.p2align 4
	.weak	_ZN8opendnp321ConstantCommandAction6ActionERKNS_17AnalogOutputInt16Et
	.type	_ZN8opendnp321ConstantCommandAction6ActionERKNS_17AnalogOutputInt16Et, @function
_ZN8opendnp321ConstantCommandAction6ActionERKNS_17AnalogOutputInt16Et:
.LFB2887:
	.cfi_startproc
	endbr64
	movzbl	8(%rdi), %eax
	ret
	.cfi_endproc
.LFE2887:
	.size	_ZN8opendnp321ConstantCommandAction6ActionERKNS_17AnalogOutputInt16Et, .-_ZN8opendnp321ConstantCommandAction6ActionERKNS_17AnalogOutputInt16Et
	.section	.text._ZN8opendnp321ConstantCommandAction6ActionERKNS_17AnalogOutputInt32Et,"axG",@progbits,_ZN8opendnp321ConstantCommandAction6ActionERKNS_17AnalogOutputInt32Et,comdat
	.align 2
	.p2align 4
	.weak	_ZN8opendnp321ConstantCommandAction6ActionERKNS_17AnalogOutputInt32Et
	.type	_ZN8opendnp321ConstantCommandAction6ActionERKNS_17AnalogOutputInt32Et, @function
_ZN8opendnp321ConstantCommandAction6ActionERKNS_17AnalogOutputInt32Et:
.LFB2888:
	.cfi_startproc
	endbr64
	movzbl	8(%rdi), %eax
	ret
	.cfi_endproc
.LFE2888:
	.size	_ZN8opendnp321ConstantCommandAction6ActionERKNS_17AnalogOutputInt32Et, .-_ZN8opendnp321ConstantCommandAction6ActionERKNS_17AnalogOutputInt32Et
	.section	.text._ZN8opendnp321ConstantCommandAction6ActionERKNS_19AnalogOutputFloat32Et,"axG",@progbits,_ZN8opendnp321ConstantCommandAction6ActionERKNS_19AnalogOutputFloat32Et,comdat
	.align 2
	.p2align 4
	.weak	_ZN8opendnp321ConstantCommandAction6ActionERKNS_19AnalogOutputFloat32Et
	.type	_ZN8opendnp321ConstantCommandAction6ActionERKNS_19AnalogOutputFloat32Et, @function
_ZN8opendnp321ConstantCommandAction6ActionERKNS_19AnalogOutputFloat32Et:
.LFB2889:
	.cfi_startproc
	endbr64
	movzbl	8(%rdi), %eax
	ret
	.cfi_endproc
.LFE2889:
	.size	_ZN8opendnp321ConstantCommandAction6ActionERKNS_19AnalogOutputFloat32Et, .-_ZN8opendnp321ConstantCommandAction6ActionERKNS_19AnalogOutputFloat32Et
	.section	.text._ZN8opendnp321ConstantCommandAction6ActionERKNS_20AnalogOutputDouble64Et,"axG",@progbits,_ZN8opendnp321ConstantCommandAction6ActionERKNS_20AnalogOutputDouble64Et,comdat
	.align 2
	.p2align 4
	.weak	_ZN8opendnp321ConstantCommandAction6ActionERKNS_20AnalogOutputDouble64Et
	.type	_ZN8opendnp321ConstantCommandAction6ActionERKNS_20AnalogOutputDouble64Et, @function
_ZN8opendnp321ConstantCommandAction6ActionERKNS_20AnalogOutputDouble64Et:
.LFB2890:
	.cfi_startproc
	endbr64
	movzbl	8(%rdi), %eax
	ret
	.cfi_endproc
.LFE2890:
	.size	_ZN8opendnp321ConstantCommandAction6ActionERKNS_20AnalogOutputDouble64Et, .-_ZN8opendnp321ConstantCommandAction6ActionERKNS_20AnalogOutputDouble64Et
	.section	.text._ZN8opendnp321ConstantCommandActionD2Ev,"axG",@progbits,_ZN8opendnp321ConstantCommandActionD5Ev,comdat
	.align 2
	.p2align 4
	.weak	_ZN8opendnp321ConstantCommandActionD2Ev
	.type	_ZN8opendnp321ConstantCommandActionD2Ev, @function
_ZN8opendnp321ConstantCommandActionD2Ev:
.LFB3867:
	.cfi_startproc
	endbr64
	ret
	.cfi_endproc
.LFE3867:
	.size	_ZN8opendnp321ConstantCommandActionD2Ev, .-_ZN8opendnp321ConstantCommandActionD2Ev
	.weak	_ZN8opendnp321ConstantCommandActionD1Ev
	.set	_ZN8opendnp321ConstantCommandActionD1Ev,_ZN8opendnp321ConstantCommandActionD2Ev
	.section	.text._ZN8opendnp321ConstantCommandActionD0Ev,"axG",@progbits,_ZN8opendnp321ConstantCommandActionD5Ev,comdat
	.align 2
	.p2align 4
	.weak	_ZN8opendnp321ConstantCommandActionD0Ev
	.type	_ZN8opendnp321ConstantCommandActionD0Ev, @function
_ZN8opendnp321ConstantCommandActionD0Ev:
.LFB3869:
	.cfi_startproc
	endbr64
	movl	$16, %esi
	jmp	_ZdlPvm@PLT
	.cfi_endproc
.LFE3869:
	.size	_ZN8opendnp321ConstantCommandActionD0Ev, .-_ZN8opendnp321ConstantCommandActionD0Ev
	.section	.text._ZN7openpal5ArrayIhjED2Ev,"axG",@progbits,_ZN7openpal5ArrayIhjED5Ev,comdat
	.align 2
	.p2align 4
	.weak	_ZN7openpal5ArrayIhjED2Ev
	.type	_ZN7openpal5ArrayIhjED2Ev, @function
_ZN7openpal5ArrayIhjED2Ev:
.LFB3012:
	.cfi_startproc
	endbr64
	movq	_ZTVN7openpal5ArrayIhjEE@GOTPCREL(%rip), %rax
	addq	$16, %rax
	movq	%rax, (%rdi)
	movq	16(%rdi), %rdi
	testq	%rdi, %rdi
	je	.L14
	jmp	_ZdaPv@PLT
	.p2align 4,,10
	.p2align 3
.L14:
	ret
	.cfi_endproc
.LFE3012:
	.size	_ZN7openpal5ArrayIhjED2Ev, .-_ZN7openpal5ArrayIhjED2Ev
	.weak	_ZN7openpal5ArrayIhjED1Ev
	.set	_ZN7openpal5ArrayIhjED1Ev,_ZN7openpal5ArrayIhjED2Ev
	.section	.text._ZN7openpal5ArrayIhjED0Ev,"axG",@progbits,_ZN7openpal5ArrayIhjED5Ev,comdat
	.align 2
	.p2align 4
	.weak	_ZN7openpal5ArrayIhjED0Ev
	.type	_ZN7openpal5ArrayIhjED0Ev, @function
_ZN7openpal5ArrayIhjED0Ev:
.LFB3014:
	.cfi_startproc
	endbr64
	movq	_ZTVN7openpal5ArrayIhjEE@GOTPCREL(%rip), %rax
	pushq	%rbp
	.cfi_def_cfa_offset 16
	.cfi_offset 6, -16
	movq	%rdi, %rbp
	addq	$16, %rax
	movq	%rax, (%rdi)
	movq	16(%rdi), %rdi
	testq	%rdi, %rdi
	je	.L17
	call	_ZdaPv@PLT
.L17:
	movq	%rbp, %rdi
	movl	$24, %esi
	popq	%rbp
	.cfi_def_cfa_offset 8
	jmp	_ZdlPvm@PLT
	.cfi_endproc
.LFE3014:
	.size	_ZN7openpal5ArrayIhjED0Ev, .-_ZN7openpal5ArrayIhjED0Ev
	.section	.text._ZN7openpal5ArrayIN8opendnp34CellINS1_19TimeAndIntervalSpecEEEtED2Ev,"axG",@progbits,_ZN7openpal5ArrayIN8opendnp34CellINS1_19TimeAndIntervalSpecEEEtED5Ev,comdat
	.align 2
	.p2align 4
	.weak	_ZN7openpal5ArrayIN8opendnp34CellINS1_19TimeAndIntervalSpecEEEtED2Ev
	.type	_ZN7openpal5ArrayIN8opendnp34CellINS1_19TimeAndIntervalSpecEEEtED2Ev, @function
_ZN7openpal5ArrayIN8opendnp34CellINS1_19TimeAndIntervalSpecEEEtED2Ev:
.LFB3958:
	.cfi_startproc
	endbr64
	movq	_ZTVN7openpal5ArrayIN8opendnp34CellINS1_19TimeAndIntervalSpecEEEtEE@GOTPCREL(%rip), %rax
	addq	$16, %rax
	movq	%rax, (%rdi)
	movq	16(%rdi), %rdi
	testq	%rdi, %rdi
	je	.L22
	jmp	_ZdaPv@PLT
	.p2align 4,,10
	.p2align 3
.L22:
	ret
	.cfi_endproc
.LFE3958:
	.size	_ZN7openpal5ArrayIN8opendnp34CellINS1_19TimeAndIntervalSpecEEEtED2Ev, .-_ZN7openpal5ArrayIN8opendnp34CellINS1_19TimeAndIntervalSpecEEEtED2Ev
	.weak	_ZN7openpal5ArrayIN8opendnp34CellINS1_19TimeAndIntervalSpecEEEtED1Ev
	.set	_ZN7openpal5ArrayIN8opendnp34CellINS1_19TimeAndIntervalSpecEEEtED1Ev,_ZN7openpal5ArrayIN8opendnp34CellINS1_19TimeAndIntervalSpecEEEtED2Ev
	.section	.text._ZN7openpal5ArrayIN8opendnp34CellINS1_19TimeAndIntervalSpecEEEtED0Ev,"axG",@progbits,_ZN7openpal5ArrayIN8opendnp34CellINS1_19TimeAndIntervalSpecEEEtED5Ev,comdat
	.align 2
	.p2align 4
	.weak	_ZN7openpal5ArrayIN8opendnp34CellINS1_19TimeAndIntervalSpecEEEtED0Ev
	.type	_ZN7openpal5ArrayIN8opendnp34CellINS1_19TimeAndIntervalSpecEEEtED0Ev, @function
_ZN7openpal5ArrayIN8opendnp34CellINS1_19TimeAndIntervalSpecEEEtED0Ev:
.LFB3960:
	.cfi_startproc
	endbr64
	movq	_ZTVN7openpal5ArrayIN8opendnp34CellINS1_19TimeAndIntervalSpecEEEtEE@GOTPCREL(%rip), %rax
	pushq	%rbp
	.cfi_def_cfa_offset 16
	.cfi_offset 6, -16
	movq	%rdi, %rbp
	addq	$16, %rax
	movq	%rax, (%rdi)
	movq	16(%rdi), %rdi
	testq	%rdi, %rdi
	je	.L25
	call	_ZdaPv@PLT
.L25:
	movq	%rbp, %rdi
	movl	$24, %esi
	popq	%rbp
	.cfi_def_cfa_offset 8
	jmp	_ZdlPvm@PLT
	.cfi_endproc
.LFE3960:
	.size	_ZN7openpal5ArrayIN8opendnp34CellINS1_19TimeAndIntervalSpecEEEtED0Ev, .-_ZN7openpal5ArrayIN8opendnp34CellINS1_19TimeAndIntervalSpecEEEtED0Ev
	.section	.text._ZN7openpal5ArrayIN8opendnp34CellINS1_22AnalogOutputStatusSpecEEEtED2Ev,"axG",@progbits,_ZN7openpal5ArrayIN8opendnp34CellINS1_22AnalogOutputStatusSpecEEEtED5Ev,comdat
	.align 2
	.p2align 4
	.weak	_ZN7openpal5ArrayIN8opendnp34CellINS1_22AnalogOutputStatusSpecEEEtED2Ev
	.type	_ZN7openpal5ArrayIN8opendnp34CellINS1_22AnalogOutputStatusSpecEEEtED2Ev, @function
_ZN7openpal5ArrayIN8opendnp34CellINS1_22AnalogOutputStatusSpecEEEtED2Ev:
.LFB3954:
	.cfi_startproc
	endbr64
	movq	_ZTVN7openpal5ArrayIN8opendnp34CellINS1_22AnalogOutputStatusSpecEEEtEE@GOTPCREL(%rip), %rax
	addq	$16, %rax
	movq	%rax, (%rdi)
	movq	16(%rdi), %rdi
	testq	%rdi, %rdi
	je	.L30
	jmp	_ZdaPv@PLT
	.p2align 4,,10
	.p2align 3
.L30:
	ret
	.cfi_endproc
.LFE3954:
	.size	_ZN7openpal5ArrayIN8opendnp34CellINS1_22AnalogOutputStatusSpecEEEtED2Ev, .-_ZN7openpal5ArrayIN8opendnp34CellINS1_22AnalogOutputStatusSpecEEEtED2Ev
	.weak	_ZN7openpal5ArrayIN8opendnp34CellINS1_22AnalogOutputStatusSpecEEEtED1Ev
	.set	_ZN7openpal5ArrayIN8opendnp34CellINS1_22AnalogOutputStatusSpecEEEtED1Ev,_ZN7openpal5ArrayIN8opendnp34CellINS1_22AnalogOutputStatusSpecEEEtED2Ev
	.section	.text._ZN7openpal5ArrayIN8opendnp34CellINS1_22AnalogOutputStatusSpecEEEtED0Ev,"axG",@progbits,_ZN7openpal5ArrayIN8opendnp34CellINS1_22AnalogOutputStatusSpecEEEtED5Ev,comdat
	.align 2
	.p2align 4
	.weak	_ZN7openpal5ArrayIN8opendnp34CellINS1_22AnalogOutputStatusSpecEEEtED0Ev
	.type	_ZN7openpal5ArrayIN8opendnp34CellINS1_22AnalogOutputStatusSpecEEEtED0Ev, @function
_ZN7openpal5ArrayIN8opendnp34CellINS1_22AnalogOutputStatusSpecEEEtED0Ev:
.LFB3956:
	.cfi_startproc
	endbr64
	movq	_ZTVN7openpal5ArrayIN8opendnp34CellINS1_22AnalogOutputStatusSpecEEEtEE@GOTPCREL(%rip), %rax
	pushq	%rbp
	.cfi_def_cfa_offset 16
	.cfi_offset 6, -16
	movq	%rdi, %rbp
	addq	$16, %rax
	movq	%rax, (%rdi)
	movq	16(%rdi), %rdi
	testq	%rdi, %rdi
	je	.L33
	call	_ZdaPv@PLT
.L33:
	movq	%rbp, %rdi
	movl	$24, %esi
	popq	%rbp
	.cfi_def_cfa_offset 8
	jmp	_ZdlPvm@PLT
	.cfi_endproc
.LFE3956:
	.size	_ZN7openpal5ArrayIN8opendnp34CellINS1_22AnalogOutputStatusSpecEEEtED0Ev, .-_ZN7openpal5ArrayIN8opendnp34CellINS1_22AnalogOutputStatusSpecEEEtED0Ev
	.section	.text._ZN7openpal5ArrayIN8opendnp34CellINS1_22BinaryOutputStatusSpecEEEtED2Ev,"axG",@progbits,_ZN7openpal5ArrayIN8opendnp34CellINS1_22BinaryOutputStatusSpecEEEtED5Ev,comdat
	.align 2
	.p2align 4
	.weak	_ZN7openpal5ArrayIN8opendnp34CellINS1_22BinaryOutputStatusSpecEEEtED2Ev
	.type	_ZN7openpal5ArrayIN8opendnp34CellINS1_22BinaryOutputStatusSpecEEEtED2Ev, @function
_ZN7openpal5ArrayIN8opendnp34CellINS1_22BinaryOutputStatusSpecEEEtED2Ev:
.LFB3950:
	.cfi_startproc
	endbr64
	movq	_ZTVN7openpal5ArrayIN8opendnp34CellINS1_22BinaryOutputStatusSpecEEEtEE@GOTPCREL(%rip), %rax
	addq	$16, %rax
	movq	%rax, (%rdi)
	movq	16(%rdi), %rdi
	testq	%rdi, %rdi
	je	.L38
	jmp	_ZdaPv@PLT
	.p2align 4,,10
	.p2align 3
.L38:
	ret
	.cfi_endproc
.LFE3950:
	.size	_ZN7openpal5ArrayIN8opendnp34CellINS1_22BinaryOutputStatusSpecEEEtED2Ev, .-_ZN7openpal5ArrayIN8opendnp34CellINS1_22BinaryOutputStatusSpecEEEtED2Ev
	.weak	_ZN7openpal5ArrayIN8opendnp34CellINS1_22BinaryOutputStatusSpecEEEtED1Ev
	.set	_ZN7openpal5ArrayIN8opendnp34CellINS1_22BinaryOutputStatusSpecEEEtED1Ev,_ZN7openpal5ArrayIN8opendnp34CellINS1_22BinaryOutputStatusSpecEEEtED2Ev
	.section	.text._ZN7openpal5ArrayIN8opendnp34CellINS1_22BinaryOutputStatusSpecEEEtED0Ev,"axG",@progbits,_ZN7openpal5ArrayIN8opendnp34CellINS1_22BinaryOutputStatusSpecEEEtED5Ev,comdat
	.align 2
	.p2align 4
	.weak	_ZN7openpal5ArrayIN8opendnp34CellINS1_22BinaryOutputStatusSpecEEEtED0Ev
	.type	_ZN7openpal5ArrayIN8opendnp34CellINS1_22BinaryOutputStatusSpecEEEtED0Ev, @function
_ZN7openpal5ArrayIN8opendnp34CellINS1_22BinaryOutputStatusSpecEEEtED0Ev:
.LFB3952:
	.cfi_startproc
	endbr64
	movq	_ZTVN7openpal5ArrayIN8opendnp34CellINS1_22BinaryOutputStatusSpecEEEtEE@GOTPCREL(%rip), %rax
	pushq	%rbp
	.cfi_def_cfa_offset 16
	.cfi_offset 6, -16
	movq	%rdi, %rbp
	addq	$16, %rax
	movq	%rax, (%rdi)
	movq	16(%rdi), %rdi
	testq	%rdi, %rdi
	je	.L41
	call	_ZdaPv@PLT
.L41:
	movq	%rbp, %rdi
	movl	$24, %esi
	popq	%rbp
	.cfi_def_cfa_offset 8
	jmp	_ZdlPvm@PLT
	.cfi_endproc
.LFE3952:
	.size	_ZN7openpal5ArrayIN8opendnp34CellINS1_22BinaryOutputStatusSpecEEEtED0Ev, .-_ZN7openpal5ArrayIN8opendnp34CellINS1_22BinaryOutputStatusSpecEEEtED0Ev
	.section	.text._ZN7openpal5ArrayIN8opendnp34CellINS1_17FrozenCounterSpecEEEtED2Ev,"axG",@progbits,_ZN7openpal5ArrayIN8opendnp34CellINS1_17FrozenCounterSpecEEEtED5Ev,comdat
	.align 2
	.p2align 4
	.weak	_ZN7openpal5ArrayIN8opendnp34CellINS1_17FrozenCounterSpecEEEtED2Ev
	.type	_ZN7openpal5ArrayIN8opendnp34CellINS1_17FrozenCounterSpecEEEtED2Ev, @function
_ZN7openpal5ArrayIN8opendnp34CellINS1_17FrozenCounterSpecEEEtED2Ev:
.LFB3946:
	.cfi_startproc
	endbr64
	movq	_ZTVN7openpal5ArrayIN8opendnp34CellINS1_17FrozenCounterSpecEEEtEE@GOTPCREL(%rip), %rax
	addq	$16, %rax
	movq	%rax, (%rdi)
	movq	16(%rdi), %rdi
	testq	%rdi, %rdi
	je	.L46
	jmp	_ZdaPv@PLT
	.p2align 4,,10
	.p2align 3
.L46:
	ret
	.cfi_endproc
.LFE3946:
	.size	_ZN7openpal5ArrayIN8opendnp34CellINS1_17FrozenCounterSpecEEEtED2Ev, .-_ZN7openpal5ArrayIN8opendnp34CellINS1_17FrozenCounterSpecEEEtED2Ev
	.weak	_ZN7openpal5ArrayIN8opendnp34CellINS1_17FrozenCounterSpecEEEtED1Ev
	.set	_ZN7openpal5ArrayIN8opendnp34CellINS1_17FrozenCounterSpecEEEtED1Ev,_ZN7openpal5ArrayIN8opendnp34CellINS1_17FrozenCounterSpecEEEtED2Ev
	.section	.text._ZN7openpal5ArrayIN8opendnp34CellINS1_17FrozenCounterSpecEEEtED0Ev,"axG",@progbits,_ZN7openpal5ArrayIN8opendnp34CellINS1_17FrozenCounterSpecEEEtED5Ev,comdat
	.align 2
	.p2align 4
	.weak	_ZN7openpal5ArrayIN8opendnp34CellINS1_17FrozenCounterSpecEEEtED0Ev
	.type	_ZN7openpal5ArrayIN8opendnp34CellINS1_17FrozenCounterSpecEEEtED0Ev, @function
_ZN7openpal5ArrayIN8opendnp34CellINS1_17FrozenCounterSpecEEEtED0Ev:
.LFB3948:
	.cfi_startproc
	endbr64
	movq	_ZTVN7openpal5ArrayIN8opendnp34CellINS1_17FrozenCounterSpecEEEtEE@GOTPCREL(%rip), %rax
	pushq	%rbp
	.cfi_def_cfa_offset 16
	.cfi_offset 6, -16
	movq	%rdi, %rbp
	addq	$16, %rax
	movq	%rax, (%rdi)
	movq	16(%rdi), %rdi
	testq	%rdi, %rdi
	je	.L49
	call	_ZdaPv@PLT
.L49:
	movq	%rbp, %rdi
	movl	$24, %esi
	popq	%rbp
	.cfi_def_cfa_offset 8
	jmp	_ZdlPvm@PLT
	.cfi_endproc
.LFE3948:
	.size	_ZN7openpal5ArrayIN8opendnp34CellINS1_17FrozenCounterSpecEEEtED0Ev, .-_ZN7openpal5ArrayIN8opendnp34CellINS1_17FrozenCounterSpecEEEtED0Ev
	.section	.text._ZN7openpal5ArrayIN8opendnp34CellINS1_11CounterSpecEEEtED2Ev,"axG",@progbits,_ZN7openpal5ArrayIN8opendnp34CellINS1_11CounterSpecEEEtED5Ev,comdat
	.align 2
	.p2align 4
	.weak	_ZN7openpal5ArrayIN8opendnp34CellINS1_11CounterSpecEEEtED2Ev
	.type	_ZN7openpal5ArrayIN8opendnp34CellINS1_11CounterSpecEEEtED2Ev, @function
_ZN7openpal5ArrayIN8opendnp34CellINS1_11CounterSpecEEEtED2Ev:
.LFB3942:
	.cfi_startproc
	endbr64
	movq	_ZTVN7openpal5ArrayIN8opendnp34CellINS1_11CounterSpecEEEtEE@GOTPCREL(%rip), %rax
	addq	$16, %rax
	movq	%rax, (%rdi)
	movq	16(%rdi), %rdi
	testq	%rdi, %rdi
	je	.L54
	jmp	_ZdaPv@PLT
	.p2align 4,,10
	.p2align 3
.L54:
	ret
	.cfi_endproc
.LFE3942:
	.size	_ZN7openpal5ArrayIN8opendnp34CellINS1_11CounterSpecEEEtED2Ev, .-_ZN7openpal5ArrayIN8opendnp34CellINS1_11CounterSpecEEEtED2Ev
	.weak	_ZN7openpal5ArrayIN8opendnp34CellINS1_11CounterSpecEEEtED1Ev
	.set	_ZN7openpal5ArrayIN8opendnp34CellINS1_11CounterSpecEEEtED1Ev,_ZN7openpal5ArrayIN8opendnp34CellINS1_11CounterSpecEEEtED2Ev
	.section	.text._ZN7openpal5ArrayIN8opendnp34CellINS1_11CounterSpecEEEtED0Ev,"axG",@progbits,_ZN7openpal5ArrayIN8opendnp34CellINS1_11CounterSpecEEEtED5Ev,comdat
	.align 2
	.p2align 4
	.weak	_ZN7openpal5ArrayIN8opendnp34CellINS1_11CounterSpecEEEtED0Ev
	.type	_ZN7openpal5ArrayIN8opendnp34CellINS1_11CounterSpecEEEtED0Ev, @function
_ZN7openpal5ArrayIN8opendnp34CellINS1_11CounterSpecEEEtED0Ev:
.LFB3944:
	.cfi_startproc
	endbr64
	movq	_ZTVN7openpal5ArrayIN8opendnp34CellINS1_11CounterSpecEEEtEE@GOTPCREL(%rip), %rax
	pushq	%rbp
	.cfi_def_cfa_offset 16
	.cfi_offset 6, -16
	movq	%rdi, %rbp
	addq	$16, %rax
	movq	%rax, (%rdi)
	movq	16(%rdi), %rdi
	testq	%rdi, %rdi
	je	.L57
	call	_ZdaPv@PLT
.L57:
	movq	%rbp, %rdi
	movl	$24, %esi
	popq	%rbp
	.cfi_def_cfa_offset 8
	jmp	_ZdlPvm@PLT
	.cfi_endproc
.LFE3944:
	.size	_ZN7openpal5ArrayIN8opendnp34CellINS1_11CounterSpecEEEtED0Ev, .-_ZN7openpal5ArrayIN8opendnp34CellINS1_11CounterSpecEEEtED0Ev
	.section	.text._ZN7openpal5ArrayIN8opendnp34CellINS1_10AnalogSpecEEEtED2Ev,"axG",@progbits,_ZN7openpal5ArrayIN8opendnp34CellINS1_10AnalogSpecEEEtED5Ev,comdat
	.align 2
	.p2align 4
	.weak	_ZN7openpal5ArrayIN8opendnp34CellINS1_10AnalogSpecEEEtED2Ev
	.type	_ZN7openpal5ArrayIN8opendnp34CellINS1_10AnalogSpecEEEtED2Ev, @function
_ZN7openpal5ArrayIN8opendnp34CellINS1_10AnalogSpecEEEtED2Ev:
.LFB3938:
	.cfi_startproc
	endbr64
	movq	_ZTVN7openpal5ArrayIN8opendnp34CellINS1_10AnalogSpecEEEtEE@GOTPCREL(%rip), %rax
	addq	$16, %rax
	movq	%rax, (%rdi)
	movq	16(%rdi), %rdi
	testq	%rdi, %rdi
	je	.L62
	jmp	_ZdaPv@PLT
	.p2align 4,,10
	.p2align 3
.L62:
	ret
	.cfi_endproc
.LFE3938:
	.size	_ZN7openpal5ArrayIN8opendnp34CellINS1_10AnalogSpecEEEtED2Ev, .-_ZN7openpal5ArrayIN8opendnp34CellINS1_10AnalogSpecEEEtED2Ev
	.weak	_ZN7openpal5ArrayIN8opendnp34CellINS1_10AnalogSpecEEEtED1Ev
	.set	_ZN7openpal5ArrayIN8opendnp34CellINS1_10AnalogSpecEEEtED1Ev,_ZN7openpal5ArrayIN8opendnp34CellINS1_10AnalogSpecEEEtED2Ev
	.section	.text._ZN7openpal5ArrayIN8opendnp34CellINS1_10AnalogSpecEEEtED0Ev,"axG",@progbits,_ZN7openpal5ArrayIN8opendnp34CellINS1_10AnalogSpecEEEtED5Ev,comdat
	.align 2
	.p2align 4
	.weak	_ZN7openpal5ArrayIN8opendnp34CellINS1_10AnalogSpecEEEtED0Ev
	.type	_ZN7openpal5ArrayIN8opendnp34CellINS1_10AnalogSpecEEEtED0Ev, @function
_ZN7openpal5ArrayIN8opendnp34CellINS1_10AnalogSpecEEEtED0Ev:
.LFB3940:
	.cfi_startproc
	endbr64
	movq	_ZTVN7openpal5ArrayIN8opendnp34CellINS1_10AnalogSpecEEEtEE@GOTPCREL(%rip), %rax
	pushq	%rbp
	.cfi_def_cfa_offset 16
	.cfi_offset 6, -16
	movq	%rdi, %rbp
	addq	$16, %rax
	movq	%rax, (%rdi)
	movq	16(%rdi), %rdi
	testq	%rdi, %rdi
	je	.L65
	call	_ZdaPv@PLT
.L65:
	movq	%rbp, %rdi
	movl	$24, %esi
	popq	%rbp
	.cfi_def_cfa_offset 8
	jmp	_ZdlPvm@PLT
	.cfi_endproc
.LFE3940:
	.size	_ZN7openpal5ArrayIN8opendnp34CellINS1_10AnalogSpecEEEtED0Ev, .-_ZN7openpal5ArrayIN8opendnp34CellINS1_10AnalogSpecEEEtED0Ev
	.section	.text._ZN7openpal5ArrayIN8opendnp34CellINS1_19DoubleBitBinarySpecEEEtED2Ev,"axG",@progbits,_ZN7openpal5ArrayIN8opendnp34CellINS1_19DoubleBitBinarySpecEEEtED5Ev,comdat
	.align 2
	.p2align 4
	.weak	_ZN7openpal5ArrayIN8opendnp34CellINS1_19DoubleBitBinarySpecEEEtED2Ev
	.type	_ZN7openpal5ArrayIN8opendnp34CellINS1_19DoubleBitBinarySpecEEEtED2Ev, @function
_ZN7openpal5ArrayIN8opendnp34CellINS1_19DoubleBitBinarySpecEEEtED2Ev:
.LFB3934:
	.cfi_startproc
	endbr64
	movq	_ZTVN7openpal5ArrayIN8opendnp34CellINS1_19DoubleBitBinarySpecEEEtEE@GOTPCREL(%rip), %rax
	addq	$16, %rax
	movq	%rax, (%rdi)
	movq	16(%rdi), %rdi
	testq	%rdi, %rdi
	je	.L70
	jmp	_ZdaPv@PLT
	.p2align 4,,10
	.p2align 3
.L70:
	ret
	.cfi_endproc
.LFE3934:
	.size	_ZN7openpal5ArrayIN8opendnp34CellINS1_19DoubleBitBinarySpecEEEtED2Ev, .-_ZN7openpal5ArrayIN8opendnp34CellINS1_19DoubleBitBinarySpecEEEtED2Ev
	.weak	_ZN7openpal5ArrayIN8opendnp34CellINS1_19DoubleBitBinarySpecEEEtED1Ev
	.set	_ZN7openpal5ArrayIN8opendnp34CellINS1_19DoubleBitBinarySpecEEEtED1Ev,_ZN7openpal5ArrayIN8opendnp34CellINS1_19DoubleBitBinarySpecEEEtED2Ev
	.section	.text._ZN7openpal5ArrayIN8opendnp34CellINS1_19DoubleBitBinarySpecEEEtED0Ev,"axG",@progbits,_ZN7openpal5ArrayIN8opendnp34CellINS1_19DoubleBitBinarySpecEEEtED5Ev,comdat
	.align 2
	.p2align 4
	.weak	_ZN7openpal5ArrayIN8opendnp34CellINS1_19DoubleBitBinarySpecEEEtED0Ev
	.type	_ZN7openpal5ArrayIN8opendnp34CellINS1_19DoubleBitBinarySpecEEEtED0Ev, @function
_ZN7openpal5ArrayIN8opendnp34CellINS1_19DoubleBitBinarySpecEEEtED0Ev:
.LFB3936:
	.cfi_startproc
	endbr64
	movq	_ZTVN7openpal5ArrayIN8opendnp34CellINS1_19DoubleBitBinarySpecEEEtEE@GOTPCREL(%rip), %rax
	pushq	%rbp
	.cfi_def_cfa_offset 16
	.cfi_offset 6, -16
	movq	%rdi, %rbp
	addq	$16, %rax
	movq	%rax, (%rdi)
	movq	16(%rdi), %rdi
	testq	%rdi, %rdi
	je	.L73
	call	_ZdaPv@PLT
.L73:
	movq	%rbp, %rdi
	movl	$24, %esi
	popq	%rbp
	.cfi_def_cfa_offset 8
	jmp	_ZdlPvm@PLT
	.cfi_endproc
.LFE3936:
	.size	_ZN7openpal5ArrayIN8opendnp34CellINS1_19DoubleBitBinarySpecEEEtED0Ev, .-_ZN7openpal5ArrayIN8opendnp34CellINS1_19DoubleBitBinarySpecEEEtED0Ev
	.section	.text._ZN7openpal5ArrayIN8opendnp34CellINS1_10BinarySpecEEEtED2Ev,"axG",@progbits,_ZN7openpal5ArrayIN8opendnp34CellINS1_10BinarySpecEEEtED5Ev,comdat
	.align 2
	.p2align 4
	.weak	_ZN7openpal5ArrayIN8opendnp34CellINS1_10BinarySpecEEEtED2Ev
	.type	_ZN7openpal5ArrayIN8opendnp34CellINS1_10BinarySpecEEEtED2Ev, @function
_ZN7openpal5ArrayIN8opendnp34CellINS1_10BinarySpecEEEtED2Ev:
.LFB3930:
	.cfi_startproc
	endbr64
	movq	_ZTVN7openpal5ArrayIN8opendnp34CellINS1_10BinarySpecEEEtEE@GOTPCREL(%rip), %rax
	addq	$16, %rax
	movq	%rax, (%rdi)
	movq	16(%rdi), %rdi
	testq	%rdi, %rdi
	je	.L78
	jmp	_ZdaPv@PLT
	.p2align 4,,10
	.p2align 3
.L78:
	ret
	.cfi_endproc
.LFE3930:
	.size	_ZN7openpal5ArrayIN8opendnp34CellINS1_10BinarySpecEEEtED2Ev, .-_ZN7openpal5ArrayIN8opendnp34CellINS1_10BinarySpecEEEtED2Ev
	.weak	_ZN7openpal5ArrayIN8opendnp34CellINS1_10BinarySpecEEEtED1Ev
	.set	_ZN7openpal5ArrayIN8opendnp34CellINS1_10BinarySpecEEEtED1Ev,_ZN7openpal5ArrayIN8opendnp34CellINS1_10BinarySpecEEEtED2Ev
	.section	.text._ZN7openpal5ArrayIN8opendnp34CellINS1_10BinarySpecEEEtED0Ev,"axG",@progbits,_ZN7openpal5ArrayIN8opendnp34CellINS1_10BinarySpecEEEtED5Ev,comdat
	.align 2
	.p2align 4
	.weak	_ZN7openpal5ArrayIN8opendnp34CellINS1_10BinarySpecEEEtED0Ev
	.type	_ZN7openpal5ArrayIN8opendnp34CellINS1_10BinarySpecEEEtED0Ev, @function
_ZN7openpal5ArrayIN8opendnp34CellINS1_10BinarySpecEEEtED0Ev:
.LFB3932:
	.cfi_startproc
	endbr64
	movq	_ZTVN7openpal5ArrayIN8opendnp34CellINS1_10BinarySpecEEEtEE@GOTPCREL(%rip), %rax
	pushq	%rbp
	.cfi_def_cfa_offset 16
	.cfi_offset 6, -16
	movq	%rdi, %rbp
	addq	$16, %rax
	movq	%rax, (%rdi)
	movq	16(%rdi), %rdi
	testq	%rdi, %rdi
	je	.L81
	call	_ZdaPv@PLT
.L81:
	movq	%rbp, %rdi
	movl	$24, %esi
	popq	%rbp
	.cfi_def_cfa_offset 8
	jmp	_ZdlPvm@PLT
	.cfi_endproc
.LFE3932:
	.size	_ZN7openpal5ArrayIN8opendnp34CellINS1_10BinarySpecEEEtED0Ev, .-_ZN7openpal5ArrayIN8opendnp34CellINS1_10BinarySpecEEEtED0Ev
	.section	.text._ZN7openpal5ArrayINS_8ListNodeIN8opendnp39SOERecordEEEjED2Ev,"axG",@progbits,_ZN7openpal5ArrayINS_8ListNodeIN8opendnp39SOERecordEEEjED5Ev,comdat
	.align 2
	.p2align 4
	.weak	_ZN7openpal5ArrayINS_8ListNodeIN8opendnp39SOERecordEEEjED2Ev
	.type	_ZN7openpal5ArrayINS_8ListNodeIN8opendnp39SOERecordEEEjED2Ev, @function
_ZN7openpal5ArrayINS_8ListNodeIN8opendnp39SOERecordEEEjED2Ev:
.LFB3926:
	.cfi_startproc
	endbr64
	movq	_ZTVN7openpal5ArrayINS_8ListNodeIN8opendnp39SOERecordEEEjEE@GOTPCREL(%rip), %rax
	addq	$16, %rax
	movq	%rax, (%rdi)
	movq	16(%rdi), %rdi
	testq	%rdi, %rdi
	je	.L86
	jmp	_ZdaPv@PLT
	.p2align 4,,10
	.p2align 3
.L86:
	ret
	.cfi_endproc
.LFE3926:
	.size	_ZN7openpal5ArrayINS_8ListNodeIN8opendnp39SOERecordEEEjED2Ev, .-_ZN7openpal5ArrayINS_8ListNodeIN8opendnp39SOERecordEEEjED2Ev
	.weak	_ZN7openpal5ArrayINS_8ListNodeIN8opendnp39SOERecordEEEjED1Ev
	.set	_ZN7openpal5ArrayINS_8ListNodeIN8opendnp39SOERecordEEEjED1Ev,_ZN7openpal5ArrayINS_8ListNodeIN8opendnp39SOERecordEEEjED2Ev
	.section	.text._ZN7openpal5ArrayINS_8ListNodeIN8opendnp39SOERecordEEEjED0Ev,"axG",@progbits,_ZN7openpal5ArrayINS_8ListNodeIN8opendnp39SOERecordEEEjED5Ev,comdat
	.align 2
	.p2align 4
	.weak	_ZN7openpal5ArrayINS_8ListNodeIN8opendnp39SOERecordEEEjED0Ev
	.type	_ZN7openpal5ArrayINS_8ListNodeIN8opendnp39SOERecordEEEjED0Ev, @function
_ZN7openpal5ArrayINS_8ListNodeIN8opendnp39SOERecordEEEjED0Ev:
.LFB3928:
	.cfi_startproc
	endbr64
	movq	_ZTVN7openpal5ArrayINS_8ListNodeIN8opendnp39SOERecordEEEjEE@GOTPCREL(%rip), %rax
	pushq	%rbp
	.cfi_def_cfa_offset 16
	.cfi_offset 6, -16
	movq	%rdi, %rbp
	addq	$16, %rax
	movq	%rax, (%rdi)
	movq	16(%rdi), %rdi
	testq	%rdi, %rdi
	je	.L89
	call	_ZdaPv@PLT
.L89:
	movq	%rbp, %rdi
	movl	$24, %esi
	popq	%rbp
	.cfi_def_cfa_offset 8
	jmp	_ZdlPvm@PLT
	.cfi_endproc
.LFE3928:
	.size	_ZN7openpal5ArrayINS_8ListNodeIN8opendnp39SOERecordEEEjED0Ev, .-_ZN7openpal5ArrayINS_8ListNodeIN8opendnp39SOERecordEEEjED0Ev
	.section	.text._ZNK8opendnp322IOutstationApplication17GetApplicationIINEv,"axG",@progbits,_ZNK8opendnp322IOutstationApplication17GetApplicationIINEv,comdat
	.align 2
	.p2align 4
	.weak	_ZNK8opendnp322IOutstationApplication17GetApplicationIINEv
	.type	_ZNK8opendnp322IOutstationApplication17GetApplicationIINEv, @function
_ZNK8opendnp322IOutstationApplication17GetApplicationIINEv:
.LFB2155:
	.cfi_startproc
	endbr64
	subq	$24, %rsp
	.cfi_def_cfa_offset 32
	movq	%fs:40, %rax
	movq	%rax, 8(%rsp)
	xorl	%eax, %eax
	leaq	4(%rsp), %rdi
	call	_ZN8opendnp314ApplicationIINC1Ev@PLT
	movl	4(%rsp), %eax
	movq	8(%rsp), %rdx
	subq	%fs:40, %rdx
	jne	.L97
	addq	$24, %rsp
	.cfi_remember_state
	.cfi_def_cfa_offset 8
	ret
.L97:
	.cfi_restore_state
	call	__stack_chk_fail@PLT
	.cfi_endproc
.LFE2155:
	.size	_ZNK8opendnp322IOutstationApplication17GetApplicationIINEv, .-_ZNK8opendnp322IOutstationApplication17GetApplicationIINEv
	.section	.rodata.str1.1,"aMS",@progbits,1
.LC0:
	.string	"already offline"
	.section	.rodata.str1.8,"aMS",@progbits,1
	.align 8
.LC1:
	.string	"/home/saptarshi/Desktop/OpenPLC61850/utils/dnp3_src/cpp/libs/src/opendnp3/outstation/OutstationContext.cpp(96)"
	.text
	.align 2
	.p2align 4
	.globl	_ZN8opendnp38OContext16OnLowerLayerDownEv
	.type	_ZN8opendnp38OContext16OnLowerLayerDownEv, @function
_ZN8opendnp38OContext16OnLowerLayerDownEv:
.LFB2970:
	.cfi_startproc
	endbr64
	pushq	%r13
	.cfi_def_cfa_offset 16
	.cfi_offset 13, -16
	pushq	%r12
	.cfi_def_cfa_offset 24
	.cfi_offset 12, -24
	pushq	%rbp
	.cfi_def_cfa_offset 32
	.cfi_offset 6, -32
	movq	%rdi, %rbp
	subq	$16, %rsp
	.cfi_def_cfa_offset 48
	movzbl	720(%rdi), %r12d
	movq	%fs:40, %rax
	movq	%rax, 8(%rsp)
	xorl	%eax, %eax
	testb	%r12b, %r12b
	je	.L107
	movq	_ZN8opendnp39StateIdle8instanceE@GOTPCREL(%rip), %rax
	movb	$0, 888(%rdi)
	leaq	744(%rdi), %rdi
	movq	%rax, 200(%rdi)
	xorl	%eax, %eax
	movw	%ax, -24(%rdi)
	call	_ZN8opendnp314RequestHistory5ResetEv@PLT
	leaq	760(%rbp), %rdi
	call	_ZN8opendnp315DeferredRequest5ResetEv@PLT
	leaq	104(%rbp), %rdi
	call	_ZN8opendnp311EventBuffer8UnselectEv@PLT
	leaq	640(%rbp), %rdi
	call	_ZN8opendnp315ResponseContext5ResetEv@PLT
	leaq	728(%rbp), %rdi
	call	_ZN7openpal8TimerRef6CancelEv@PLT
.L98:
	movq	8(%rsp), %rax
	subq	%fs:40, %rax
	jne	.L108
	addq	$16, %rsp
	.cfi_remember_state
	.cfi_def_cfa_offset 32
	movl	%r12d, %eax
	popq	%rbp
	.cfi_def_cfa_offset 24
	popq	%r12
	.cfi_def_cfa_offset 16
	popq	%r13
	.cfi_def_cfa_offset 8
	ret
	.p2align 4,,10
	.p2align 3
.L107:
	.cfi_restore_state
	addq	$8, %rbp
	leaq	4(%rsp), %r13
	movl	$2, 4(%rsp)
	movq	%r13, %rsi
	movq	%rbp, %rdi
	call	_ZNK7openpal6Logger9IsEnabledERKNS_10LogFiltersE@PLT
	testb	%al, %al
	je	.L98
	leaq	.LC0(%rip), %rcx
	leaq	.LC1(%rip), %rdx
	movq	%r13, %rsi
	movq	%rbp, %rdi
	movl	$2, 4(%rsp)
	call	_ZN7openpal6Logger3LogERKNS_10LogFiltersEPKcS5_@PLT
	jmp	.L98
.L108:
	call	__stack_chk_fail@PLT
	.cfi_endproc
.LFE2970:
	.size	_ZN8opendnp38OContext16OnLowerLayerDownEv, .-_ZN8opendnp38OContext16OnLowerLayerDownEv
	.p2align 4
	.type	_ZNSt17_Function_handlerIFvvEZN7openpal8TimerRef7RestartIZN8opendnp38OContext19RestartConfirmTimerEvEUlvE_EEvRKNS1_12TimeDurationERKT_EUlvE_E10_M_managerERSt9_Any_dataRKSF_St18_Manager_operation, @function
_ZNSt17_Function_handlerIFvvEZN7openpal8TimerRef7RestartIZN8opendnp38OContext19RestartConfirmTimerEvEUlvE_EEvRKNS1_12TimeDurationERKT_EUlvE_E10_M_managerERSt9_Any_dataRKSF_St18_Manager_operation:
.LFB3593:
	.cfi_startproc
	endbr64
	testl	%edx, %edx
	je	.L110
	cmpl	$1, %edx
	je	.L111
	cmpl	$2, %edx
	je	.L115
.L113:
	xorl	%eax, %eax
	ret
	.p2align 4,,10
	.p2align 3
.L110:
	leaq	_ZTIZN7openpal8TimerRef7RestartIZN8opendnp38OContext19RestartConfirmTimerEvEUlvE_EEvRKNS_12TimeDurationERKT_EUlvE_(%rip), %rax
	movq	%rax, (%rdi)
	xorl	%eax, %eax
	ret
	.p2align 4,,10
	.p2align 3
.L111:
	movq	%rsi, (%rdi)
	xorl	%eax, %eax
	ret
	.p2align 4,,10
	.p2align 3
.L115:
	movdqu	(%rsi), %xmm0
	movups	%xmm0, (%rdi)
	jmp	.L113
	.cfi_endproc
.LFE3593:
	.size	_ZNSt17_Function_handlerIFvvEZN7openpal8TimerRef7RestartIZN8opendnp38OContext19RestartConfirmTimerEvEUlvE_EEvRKNS1_12TimeDurationERKT_EUlvE_E10_M_managerERSt9_Any_dataRKSF_St18_Manager_operation, .-_ZNSt17_Function_handlerIFvvEZN7openpal8TimerRef7RestartIZN8opendnp38OContext19RestartConfirmTimerEvEUlvE_EEvRKNS1_12TimeDurationERKT_EUlvE_E10_M_managerERSt9_Any_dataRKSF_St18_Manager_operation
	.section	.text._ZN8opendnp38OContextD0Ev,"axG",@progbits,_ZN8opendnp38OContextD5Ev,comdat
	.align 2
	.p2align 4
	.weak	_ZN8opendnp38OContextD0Ev
	.type	_ZN8opendnp38OContextD0Ev, @function
_ZN8opendnp38OContextD0Ev:
.LFB3865:
	.cfi_startproc
	endbr64
	pushq	%r12
	.cfi_def_cfa_offset 16
	.cfi_offset 12, -16
	pushq	%rbp
	.cfi_def_cfa_offset 24
	.cfi_offset 6, -24
	movq	%rdi, %rbp
	pushq	%rbx
	.cfi_def_cfa_offset 32
	.cfi_offset 3, -32
	subq	$48, %rsp
	.cfi_def_cfa_offset 80
	movq	_ZTVN8opendnp311EventBufferE@GOTPCREL(%rip), %rax
	movq	_ZTVN8opendnp315DatabaseBuffersE@GOTPCREL(%rip), %rbx
	movq	_ZTVN7openpal5ArrayIhjEE@GOTPCREL(%rip), %r12
	leaq	160(%rax), %rdx
	leaq	16(%rax), %rcx
	movq	%rdx, %xmm3
	leaq	224(%rax), %rdx
	addq	$192, %rax
	movq	%rax, %xmm1
	leaq	88(%rbx), %rax
	movq	%rdx, %xmm4
	movq	%rax, %xmm5
	movq	_ZTVN8opendnp38OContextE@GOTPCREL(%rip), %rax
	leaq	16(%rbx), %rdx
	punpcklqdq	%xmm4, %xmm1
	movq	%rcx, %xmm0
	movq	%rdx, %xmm2
	movaps	%xmm1, 16(%rsp)
	addq	$16, %rax
	punpcklqdq	%xmm3, %xmm0
	punpcklqdq	%xmm5, %xmm2
	movq	%rax, (%rdi)
	leaq	16(%r12), %rax
	movq	%rax, 920(%rdi)
	movq	936(%rdi), %rdi
	movaps	%xmm0, (%rsp)
	movaps	%xmm2, 32(%rsp)
	testq	%rdi, %rdi
	je	.L117
	call	_ZdaPv@PLT
.L117:
	movq	880(%rbp), %rdi
	leaq	16(%r12), %rax
	movq	%rax, 864(%rbp)
	testq	%rdi, %rdi
	je	.L118
	call	_ZdaPv@PLT
.L118:
	movq	800(%rbp), %rdi
	leaq	16(%r12), %rax
	movq	%rax, 784(%rbp)
	testq	%rdi, %rdi
	je	.L119
	call	_ZdaPv@PLT
.L119:
	leaq	728(%rbp), %rdi
	call	_ZN7openpal8TimerRefD1Ev@PLT
	movq	_ZTVN8opendnp38DatabaseE@GOTPCREL(%rip), %rax
	movdqa	32(%rsp), %xmm6
	movq	592(%rbp), %rdi
	addq	$16, %rax
	movups	%xmm6, 384(%rbp)
	movq	%rax, 360(%rbp)
	leaq	120(%rbx), %rax
	movq	%rax, 400(%rbp)
	movq	_ZTVN7openpal5ArrayIN8opendnp34CellINS1_19TimeAndIntervalSpecEEEtEE@GOTPCREL(%rip), %rax
	addq	$16, %rax
	movq	%rax, 576(%rbp)
	testq	%rdi, %rdi
	je	.L120
	call	_ZdaPv@PLT
.L120:
	movq	_ZTVN7openpal5ArrayIN8opendnp34CellINS1_22AnalogOutputStatusSpecEEEtEE@GOTPCREL(%rip), %rax
	movq	568(%rbp), %rdi
	addq	$16, %rax
	movq	%rax, 552(%rbp)
	testq	%rdi, %rdi
	je	.L121
	call	_ZdaPv@PLT
.L121:
	movq	_ZTVN7openpal5ArrayIN8opendnp34CellINS1_22BinaryOutputStatusSpecEEEtEE@GOTPCREL(%rip), %rax
	movq	544(%rbp), %rdi
	addq	$16, %rax
	movq	%rax, 528(%rbp)
	testq	%rdi, %rdi
	je	.L122
	call	_ZdaPv@PLT
.L122:
	movq	_ZTVN7openpal5ArrayIN8opendnp34CellINS1_17FrozenCounterSpecEEEtEE@GOTPCREL(%rip), %rax
	movq	520(%rbp), %rdi
	addq	$16, %rax
	movq	%rax, 504(%rbp)
	testq	%rdi, %rdi
	je	.L123
	call	_ZdaPv@PLT
.L123:
	movq	_ZTVN7openpal5ArrayIN8opendnp34CellINS1_11CounterSpecEEEtEE@GOTPCREL(%rip), %rax
	movq	496(%rbp), %rdi
	addq	$16, %rax
	movq	%rax, 480(%rbp)
	testq	%rdi, %rdi
	je	.L124
	call	_ZdaPv@PLT
.L124:
	movq	_ZTVN7openpal5ArrayIN8opendnp34CellINS1_10AnalogSpecEEEtEE@GOTPCREL(%rip), %rax
	movq	472(%rbp), %rdi
	addq	$16, %rax
	movq	%rax, 456(%rbp)
	testq	%rdi, %rdi
	je	.L125
	call	_ZdaPv@PLT
.L125:
	movq	_ZTVN7openpal5ArrayIN8opendnp34CellINS1_19DoubleBitBinarySpecEEEtEE@GOTPCREL(%rip), %rax
	movq	448(%rbp), %rdi
	addq	$16, %rax
	movq	%rax, 432(%rbp)
	testq	%rdi, %rdi
	je	.L126
	call	_ZdaPv@PLT
.L126:
	movq	_ZTVN7openpal5ArrayIN8opendnp34CellINS1_10BinarySpecEEEtEE@GOTPCREL(%rip), %rax
	movq	424(%rbp), %rdi
	addq	$16, %rax
	movq	%rax, 408(%rbp)
	testq	%rdi, %rdi
	je	.L127
	call	_ZdaPv@PLT
.L127:
	movq	_ZTVN7openpal5ArrayINS_8ListNodeIN8opendnp39SOERecordEEEjEE@GOTPCREL(%rip), %rax
	movdqa	(%rsp), %xmm7
	movdqa	16(%rsp), %xmm3
	movq	208(%rbp), %rdi
	addq	$16, %rax
	movups	%xmm7, 104(%rbp)
	movq	%rax, 192(%rbp)
	movups	%xmm3, 120(%rbp)
	testq	%rdi, %rdi
	je	.L128
	call	_ZdaPv@PLT
.L128:
	movq	96(%rbp), %r12
	testq	%r12, %r12
	je	.L130
	movq	__libc_single_threaded@GOTPCREL(%rip), %rbx
	cmpb	$0, (%rbx)
	je	.L131
	movl	8(%r12), %eax
	leal	-1(%rax), %edx
	movl	%edx, 8(%r12)
.L132:
	cmpl	$1, %eax
	je	.L208
.L130:
	movq	80(%rbp), %r12
	testq	%r12, %r12
	je	.L137
	movq	__libc_single_threaded@GOTPCREL(%rip), %rbx
	cmpb	$0, (%rbx)
	je	.L138
	movl	8(%r12), %eax
	leal	-1(%rax), %edx
	movl	%edx, 8(%r12)
.L139:
	cmpl	$1, %eax
	je	.L209
.L137:
	movq	64(%rbp), %r12
	testq	%r12, %r12
	je	.L144
	movq	__libc_single_threaded@GOTPCREL(%rip), %rbx
	cmpb	$0, (%rbx)
	je	.L145
	movl	8(%r12), %eax
	leal	-1(%rax), %edx
	movl	%edx, 8(%r12)
.L146:
	cmpl	$1, %eax
	je	.L210
.L144:
	movq	48(%rbp), %r12
	testq	%r12, %r12
	je	.L151
	movq	__libc_single_threaded@GOTPCREL(%rip), %rbx
	cmpb	$0, (%rbx)
	je	.L152
	movl	8(%r12), %eax
	leal	-1(%rax), %edx
	movl	%edx, 8(%r12)
.L153:
	cmpl	$1, %eax
	je	.L211
.L151:
	movq	32(%rbp), %r12
	testq	%r12, %r12
	je	.L158
	movq	__libc_single_threaded@GOTPCREL(%rip), %rbx
	cmpb	$0, (%rbx)
	je	.L159
	movl	8(%r12), %eax
	leal	-1(%rax), %edx
	movl	%edx, 8(%r12)
.L160:
	cmpl	$1, %eax
	je	.L212
.L158:
	movq	16(%rbp), %r12
	testq	%r12, %r12
	je	.L165
	movq	__libc_single_threaded@GOTPCREL(%rip), %rbx
	cmpb	$0, (%rbx)
	je	.L166
	movl	8(%r12), %eax
	leal	-1(%rax), %edx
	movl	%edx, 8(%r12)
.L167:
	cmpl	$1, %eax
	je	.L213
.L165:
	addq	$48, %rsp
	.cfi_remember_state
	.cfi_def_cfa_offset 32
	movq	%rbp, %rdi
	movl	$952, %esi
	popq	%rbx
	.cfi_def_cfa_offset 24
	popq	%rbp
	.cfi_def_cfa_offset 16
	popq	%r12
	.cfi_def_cfa_offset 8
	jmp	_ZdlPvm@PLT
	.p2align 4,,10
	.p2align 3
.L208:
	.cfi_restore_state
	movq	(%r12), %rax
	movq	%r12, %rdi
	call	*16(%rax)
	cmpb	$0, (%rbx)
	je	.L134
	movl	12(%r12), %eax
	leal	-1(%rax), %edx
	movl	%edx, 12(%r12)
.L135:
	cmpl	$1, %eax
	jne	.L130
	movq	(%r12), %rax
	movq	%r12, %rdi
	call	*24(%rax)
	jmp	.L130
	.p2align 4,,10
	.p2align 3
.L209:
	movq	(%r12), %rax
	movq	%r12, %rdi
	call	*16(%rax)
	cmpb	$0, (%rbx)
	je	.L141
	movl	12(%r12), %eax
	leal	-1(%rax), %edx
	movl	%edx, 12(%r12)
.L142:
	cmpl	$1, %eax
	jne	.L137
	movq	(%r12), %rax
	movq	%r12, %rdi
	call	*24(%rax)
	jmp	.L137
	.p2align 4,,10
	.p2align 3
.L210:
	movq	(%r12), %rax
	movq	%r12, %rdi
	call	*16(%rax)
	cmpb	$0, (%rbx)
	je	.L148
	movl	12(%r12), %eax
	leal	-1(%rax), %edx
	movl	%edx, 12(%r12)
.L149:
	cmpl	$1, %eax
	jne	.L144
	movq	(%r12), %rax
	movq	%r12, %rdi
	call	*24(%rax)
	jmp	.L144
	.p2align 4,,10
	.p2align 3
.L211:
	movq	(%r12), %rax
	movq	%r12, %rdi
	call	*16(%rax)
	cmpb	$0, (%rbx)
	je	.L155
	movl	12(%r12), %eax
	leal	-1(%rax), %edx
	movl	%edx, 12(%r12)
.L156:
	cmpl	$1, %eax
	jne	.L151
	movq	(%r12), %rax
	movq	%r12, %rdi
	call	*24(%rax)
	jmp	.L151
	.p2align 4,,10
	.p2align 3
.L212:
	movq	(%r12), %rax
	movq	%r12, %rdi
	call	*16(%rax)
	cmpb	$0, (%rbx)
	je	.L162
	movl	12(%r12), %eax
	leal	-1(%rax), %edx
	movl	%edx, 12(%r12)
.L163:
	cmpl	$1, %eax
	jne	.L158
	movq	(%r12), %rax
	movq	%r12, %rdi
	call	*24(%rax)
	jmp	.L158
	.p2align 4,,10
	.p2align 3
.L213:
	movq	(%r12), %rax
	movq	%r12, %rdi
	call	*16(%rax)
	cmpb	$0, (%rbx)
	je	.L169
	movl	12(%r12), %eax
	leal	-1(%rax), %edx
	movl	%edx, 12(%r12)
.L170:
	cmpl	$1, %eax
	jne	.L165
	movq	(%r12), %rax
	movq	%r12, %rdi
	call	*24(%rax)
	jmp	.L165
	.p2align 4,,10
	.p2align 3
.L138:
	movl	$-1, %eax
	lock xaddl	%eax, 8(%r12)
	jmp	.L139
	.p2align 4,,10
	.p2align 3
.L152:
	movl	$-1, %eax
	lock xaddl	%eax, 8(%r12)
	jmp	.L153
	.p2align 4,,10
	.p2align 3
.L159:
	movl	$-1, %eax
	lock xaddl	%eax, 8(%r12)
	jmp	.L160
	.p2align 4,,10
	.p2align 3
.L166:
	movl	$-1, %eax
	lock xaddl	%eax, 8(%r12)
	jmp	.L167
	.p2align 4,,10
	.p2align 3
.L131:
	movl	$-1, %eax
	lock xaddl	%eax, 8(%r12)
	jmp	.L132
	.p2align 4,,10
	.p2align 3
.L145:
	movl	$-1, %eax
	lock xaddl	%eax, 8(%r12)
	jmp	.L146
	.p2align 4,,10
	.p2align 3
.L134:
	movl	$-1, %eax
	lock xaddl	%eax, 12(%r12)
	jmp	.L135
	.p2align 4,,10
	.p2align 3
.L169:
	movl	$-1, %eax
	lock xaddl	%eax, 12(%r12)
	jmp	.L170
	.p2align 4,,10
	.p2align 3
.L141:
	movl	$-1, %eax
	lock xaddl	%eax, 12(%r12)
	jmp	.L142
	.p2align 4,,10
	.p2align 3
.L148:
	movl	$-1, %eax
	lock xaddl	%eax, 12(%r12)
	jmp	.L149
	.p2align 4,,10
	.p2align 3
.L155:
	movl	$-1, %eax
	lock xaddl	%eax, 12(%r12)
	jmp	.L156
	.p2align 4,,10
	.p2align 3
.L162:
	movl	$-1, %eax
	lock xaddl	%eax, 12(%r12)
	jmp	.L163
	.cfi_endproc
.LFE3865:
	.size	_ZN8opendnp38OContextD0Ev, .-_ZN8opendnp38OContextD0Ev
	.section	.text._ZN8opendnp38OContextD2Ev,"axG",@progbits,_ZN8opendnp38OContextD5Ev,comdat
	.align 2
	.p2align 4
	.weak	_ZN8opendnp38OContextD2Ev
	.type	_ZN8opendnp38OContextD2Ev, @function
_ZN8opendnp38OContextD2Ev:
.LFB3863:
	.cfi_startproc
	endbr64
	pushq	%r12
	.cfi_def_cfa_offset 16
	.cfi_offset 12, -16
	pushq	%rbp
	.cfi_def_cfa_offset 24
	.cfi_offset 6, -24
	pushq	%rbx
	.cfi_def_cfa_offset 32
	.cfi_offset 3, -32
	movq	%rdi, %rbx
	subq	$48, %rsp
	.cfi_def_cfa_offset 80
	movq	_ZTVN8opendnp311EventBufferE@GOTPCREL(%rip), %rax
	movq	_ZTVN8opendnp315DatabaseBuffersE@GOTPCREL(%rip), %rbp
	movq	_ZTVN7openpal5ArrayIhjEE@GOTPCREL(%rip), %r12
	leaq	160(%rax), %rdx
	leaq	16(%rax), %rcx
	movq	%rdx, %xmm3
	leaq	224(%rax), %rdx
	addq	$192, %rax
	movq	%rax, %xmm1
	leaq	88(%rbp), %rax
	movq	%rdx, %xmm4
	movq	%rax, %xmm5
	movq	_ZTVN8opendnp38OContextE@GOTPCREL(%rip), %rax
	leaq	16(%rbp), %rdx
	punpcklqdq	%xmm4, %xmm1
	movq	%rcx, %xmm0
	movq	%rdx, %xmm2
	movaps	%xmm1, 16(%rsp)
	addq	$16, %rax
	punpcklqdq	%xmm3, %xmm0
	punpcklqdq	%xmm5, %xmm2
	movq	%rax, (%rdi)
	leaq	16(%r12), %rax
	movq	%rax, 920(%rdi)
	movq	936(%rdi), %rdi
	movaps	%xmm0, (%rsp)
	movaps	%xmm2, 32(%rsp)
	testq	%rdi, %rdi
	je	.L215
	call	_ZdaPv@PLT
.L215:
	movq	880(%rbx), %rdi
	leaq	16(%r12), %rax
	movq	%rax, 864(%rbx)
	testq	%rdi, %rdi
	je	.L216
	call	_ZdaPv@PLT
.L216:
	movq	800(%rbx), %rdi
	leaq	16(%r12), %rax
	movq	%rax, 784(%rbx)
	testq	%rdi, %rdi
	je	.L217
	call	_ZdaPv@PLT
.L217:
	leaq	728(%rbx), %rdi
	call	_ZN7openpal8TimerRefD1Ev@PLT
	movq	_ZTVN8opendnp38DatabaseE@GOTPCREL(%rip), %rax
	movdqa	32(%rsp), %xmm6
	movq	592(%rbx), %rdi
	addq	$16, %rax
	movups	%xmm6, 384(%rbx)
	movq	%rax, 360(%rbx)
	leaq	120(%rbp), %rax
	movq	%rax, 400(%rbx)
	movq	_ZTVN7openpal5ArrayIN8opendnp34CellINS1_19TimeAndIntervalSpecEEEtEE@GOTPCREL(%rip), %rax
	addq	$16, %rax
	movq	%rax, 576(%rbx)
	testq	%rdi, %rdi
	je	.L218
	call	_ZdaPv@PLT
.L218:
	movq	_ZTVN7openpal5ArrayIN8opendnp34CellINS1_22AnalogOutputStatusSpecEEEtEE@GOTPCREL(%rip), %rax
	movq	568(%rbx), %rdi
	addq	$16, %rax
	movq	%rax, 552(%rbx)
	testq	%rdi, %rdi
	je	.L219
	call	_ZdaPv@PLT
.L219:
	movq	_ZTVN7openpal5ArrayIN8opendnp34CellINS1_22BinaryOutputStatusSpecEEEtEE@GOTPCREL(%rip), %rax
	movq	544(%rbx), %rdi
	addq	$16, %rax
	movq	%rax, 528(%rbx)
	testq	%rdi, %rdi
	je	.L220
	call	_ZdaPv@PLT
.L220:
	movq	_ZTVN7openpal5ArrayIN8opendnp34CellINS1_17FrozenCounterSpecEEEtEE@GOTPCREL(%rip), %rax
	movq	520(%rbx), %rdi
	addq	$16, %rax
	movq	%rax, 504(%rbx)
	testq	%rdi, %rdi
	je	.L221
	call	_ZdaPv@PLT
.L221:
	movq	_ZTVN7openpal5ArrayIN8opendnp34CellINS1_11CounterSpecEEEtEE@GOTPCREL(%rip), %rax
	movq	496(%rbx), %rdi
	addq	$16, %rax
	movq	%rax, 480(%rbx)
	testq	%rdi, %rdi
	je	.L222
	call	_ZdaPv@PLT
.L222:
	movq	_ZTVN7openpal5ArrayIN8opendnp34CellINS1_10AnalogSpecEEEtEE@GOTPCREL(%rip), %rax
	movq	472(%rbx), %rdi
	addq	$16, %rax
	movq	%rax, 456(%rbx)
	testq	%rdi, %rdi
	je	.L223
	call	_ZdaPv@PLT
.L223:
	movq	_ZTVN7openpal5ArrayIN8opendnp34CellINS1_19DoubleBitBinarySpecEEEtEE@GOTPCREL(%rip), %rax
	movq	448(%rbx), %rdi
	addq	$16, %rax
	movq	%rax, 432(%rbx)
	testq	%rdi, %rdi
	je	.L224
	call	_ZdaPv@PLT
.L224:
	movq	_ZTVN7openpal5ArrayIN8opendnp34CellINS1_10BinarySpecEEEtEE@GOTPCREL(%rip), %rax
	movq	424(%rbx), %rdi
	addq	$16, %rax
	movq	%rax, 408(%rbx)
	testq	%rdi, %rdi
	je	.L225
	call	_ZdaPv@PLT
.L225:
	movq	_ZTVN7openpal5ArrayINS_8ListNodeIN8opendnp39SOERecordEEEjEE@GOTPCREL(%rip), %rax
	movdqa	(%rsp), %xmm7
	movdqa	16(%rsp), %xmm3
	movq	208(%rbx), %rdi
	addq	$16, %rax
	movups	%xmm7, 104(%rbx)
	movq	%rax, 192(%rbx)
	movups	%xmm3, 120(%rbx)
	testq	%rdi, %rdi
	je	.L226
	call	_ZdaPv@PLT
.L226:
	movq	96(%rbx), %r12
	testq	%r12, %r12
	je	.L228
	movq	__libc_single_threaded@GOTPCREL(%rip), %rbp
	cmpb	$0, 0(%rbp)
	je	.L229
	movl	8(%r12), %eax
	leal	-1(%rax), %edx
	movl	%edx, 8(%r12)
.L230:
	cmpl	$1, %eax
	je	.L306
.L228:
	movq	80(%rbx), %r12
	testq	%r12, %r12
	je	.L235
	movq	__libc_single_threaded@GOTPCREL(%rip), %rbp
	cmpb	$0, 0(%rbp)
	je	.L236
	movl	8(%r12), %eax
	leal	-1(%rax), %edx
	movl	%edx, 8(%r12)
.L237:
	cmpl	$1, %eax
	je	.L307
.L235:
	movq	64(%rbx), %r12
	testq	%r12, %r12
	je	.L242
	movq	__libc_single_threaded@GOTPCREL(%rip), %rbp
	cmpb	$0, 0(%rbp)
	je	.L243
	movl	8(%r12), %eax
	leal	-1(%rax), %edx
	movl	%edx, 8(%r12)
.L244:
	cmpl	$1, %eax
	je	.L308
.L242:
	movq	48(%rbx), %r12
	testq	%r12, %r12
	je	.L249
	movq	__libc_single_threaded@GOTPCREL(%rip), %rbp
	cmpb	$0, 0(%rbp)
	je	.L250
	movl	8(%r12), %eax
	leal	-1(%rax), %edx
	movl	%edx, 8(%r12)
.L251:
	cmpl	$1, %eax
	je	.L309
.L249:
	movq	32(%rbx), %r12
	testq	%r12, %r12
	je	.L256
	movq	__libc_single_threaded@GOTPCREL(%rip), %rbp
	cmpb	$0, 0(%rbp)
	je	.L257
	movl	8(%r12), %eax
	leal	-1(%rax), %edx
	movl	%edx, 8(%r12)
.L258:
	cmpl	$1, %eax
	je	.L310
.L256:
	movq	16(%rbx), %r12
	testq	%r12, %r12
	je	.L214
	movq	__libc_single_threaded@GOTPCREL(%rip), %rbp
	cmpb	$0, 0(%rbp)
	je	.L264
	movl	8(%r12), %eax
	leal	-1(%rax), %edx
	movl	%edx, 8(%r12)
.L265:
	cmpl	$1, %eax
	je	.L311
.L214:
	addq	$48, %rsp
	.cfi_remember_state
	.cfi_def_cfa_offset 32
	popq	%rbx
	.cfi_def_cfa_offset 24
	popq	%rbp
	.cfi_def_cfa_offset 16
	popq	%r12
	.cfi_def_cfa_offset 8
	ret
	.p2align 4,,10
	.p2align 3
.L306:
	.cfi_restore_state
	movq	(%r12), %rax
	movq	%r12, %rdi
	call	*16(%rax)
	cmpb	$0, 0(%rbp)
	je	.L232
	movl	12(%r12), %eax
	leal	-1(%rax), %edx
	movl	%edx, 12(%r12)
.L233:
	cmpl	$1, %eax
	jne	.L228
	movq	(%r12), %rax
	movq	%r12, %rdi
	call	*24(%rax)
	jmp	.L228
	.p2align 4,,10
	.p2align 3
.L307:
	movq	(%r12), %rax
	movq	%r12, %rdi
	call	*16(%rax)
	cmpb	$0, 0(%rbp)
	je	.L239
	movl	12(%r12), %eax
	leal	-1(%rax), %edx
	movl	%edx, 12(%r12)
.L240:
	cmpl	$1, %eax
	jne	.L235
	movq	(%r12), %rax
	movq	%r12, %rdi
	call	*24(%rax)
	jmp	.L235
	.p2align 4,,10
	.p2align 3
.L308:
	movq	(%r12), %rax
	movq	%r12, %rdi
	call	*16(%rax)
	cmpb	$0, 0(%rbp)
	je	.L246
	movl	12(%r12), %eax
	leal	-1(%rax), %edx
	movl	%edx, 12(%r12)
.L247:
	cmpl	$1, %eax
	jne	.L242
	movq	(%r12), %rax
	movq	%r12, %rdi
	call	*24(%rax)
	jmp	.L242
	.p2align 4,,10
	.p2align 3
.L309:
	movq	(%r12), %rax
	movq	%r12, %rdi
	call	*16(%rax)
	cmpb	$0, 0(%rbp)
	je	.L253
	movl	12(%r12), %eax
	leal	-1(%rax), %edx
	movl	%edx, 12(%r12)
.L254:
	cmpl	$1, %eax
	jne	.L249
	movq	(%r12), %rax
	movq	%r12, %rdi
	call	*24(%rax)
	jmp	.L249
	.p2align 4,,10
	.p2align 3
.L310:
	movq	(%r12), %rax
	movq	%r12, %rdi
	call	*16(%rax)
	cmpb	$0, 0(%rbp)
	je	.L260
	movl	12(%r12), %eax
	leal	-1(%rax), %edx
	movl	%edx, 12(%r12)
.L261:
	cmpl	$1, %eax
	jne	.L256
	movq	(%r12), %rax
	movq	%r12, %rdi
	call	*24(%rax)
	jmp	.L256
	.p2align 4,,10
	.p2align 3
.L311:
	movq	(%r12), %rax
	movq	%r12, %rdi
	call	*16(%rax)
	cmpb	$0, 0(%rbp)
	je	.L267
	movl	12(%r12), %eax
	leal	-1(%rax), %edx
	movl	%edx, 12(%r12)
.L268:
	cmpl	$1, %eax
	jne	.L214
	movq	(%r12), %rax
	movq	%r12, %rdi
	movq	24(%rax), %rax
	addq	$48, %rsp
	.cfi_remember_state
	.cfi_def_cfa_offset 32
	popq	%rbx
	.cfi_def_cfa_offset 24
	popq	%rbp
	.cfi_def_cfa_offset 16
	popq	%r12
	.cfi_def_cfa_offset 8
	jmp	*%rax
	.p2align 4,,10
	.p2align 3
.L236:
	.cfi_restore_state
	movl	$-1, %eax
	lock xaddl	%eax, 8(%r12)
	jmp	.L237
	.p2align 4,,10
	.p2align 3
.L250:
	movl	$-1, %eax
	lock xaddl	%eax, 8(%r12)
	jmp	.L251
	.p2align 4,,10
	.p2align 3
.L257:
	movl	$-1, %eax
	lock xaddl	%eax, 8(%r12)
	jmp	.L258
	.p2align 4,,10
	.p2align 3
.L264:
	movl	$-1, %eax
	lock xaddl	%eax, 8(%r12)
	jmp	.L265
	.p2align 4,,10
	.p2align 3
.L229:
	movl	$-1, %eax
	lock xaddl	%eax, 8(%r12)
	jmp	.L230
	.p2align 4,,10
	.p2align 3
.L243:
	movl	$-1, %eax
	lock xaddl	%eax, 8(%r12)
	jmp	.L244
	.p2align 4,,10
	.p2align 3
.L232:
	movl	$-1, %eax
	lock xaddl	%eax, 12(%r12)
	jmp	.L233
	.p2align 4,,10
	.p2align 3
.L267:
	movl	$-1, %eax
	lock xaddl	%eax, 12(%r12)
	jmp	.L268
	.p2align 4,,10
	.p2align 3
.L239:
	movl	$-1, %eax
	lock xaddl	%eax, 12(%r12)
	jmp	.L240
	.p2align 4,,10
	.p2align 3
.L246:
	movl	$-1, %eax
	lock xaddl	%eax, 12(%r12)
	jmp	.L247
	.p2align 4,,10
	.p2align 3
.L253:
	movl	$-1, %eax
	lock xaddl	%eax, 12(%r12)
	jmp	.L254
	.p2align 4,,10
	.p2align 3
.L260:
	movl	$-1, %eax
	lock xaddl	%eax, 12(%r12)
	jmp	.L261
	.cfi_endproc
.LFE3863:
	.size	_ZN8opendnp38OContextD2Ev, .-_ZN8opendnp38OContextD2Ev
	.weak	_ZN8opendnp38OContextD1Ev
	.set	_ZN8opendnp38OContextD1Ev,_ZN8opendnp38OContextD2Ev
	.section	.text._ZN7openpal6LoggerD2Ev,"axG",@progbits,_ZN7openpal6LoggerD5Ev,comdat
	.align 2
	.p2align 4
	.weak	_ZN7openpal6LoggerD2Ev
	.type	_ZN7openpal6LoggerD2Ev, @function
_ZN7openpal6LoggerD2Ev:
.LFB2736:
	.cfi_startproc
	endbr64
	pushq	%r12
	.cfi_def_cfa_offset 16
	.cfi_offset 12, -16
	pushq	%rbp
	.cfi_def_cfa_offset 24
	.cfi_offset 6, -24
	pushq	%rbx
	.cfi_def_cfa_offset 32
	.cfi_offset 3, -32
	movq	24(%rdi), %rbp
	movq	%rdi, %rbx
	testq	%rbp, %rbp
	je	.L314
	movq	__libc_single_threaded@GOTPCREL(%rip), %r12
	cmpb	$0, (%r12)
	je	.L315
	movl	8(%rbp), %eax
	leal	-1(%rax), %edx
	movl	%edx, 8(%rbp)
.L316:
	cmpl	$1, %eax
	je	.L328
.L314:
	movq	8(%rbx), %rbp
	testq	%rbp, %rbp
	je	.L312
	movq	__libc_single_threaded@GOTPCREL(%rip), %r12
	cmpb	$0, (%r12)
	je	.L322
	movl	8(%rbp), %eax
	leal	-1(%rax), %edx
	movl	%edx, 8(%rbp)
.L323:
	cmpl	$1, %eax
	je	.L329
.L312:
	popq	%rbx
	.cfi_remember_state
	.cfi_def_cfa_offset 24
	popq	%rbp
	.cfi_def_cfa_offset 16
	popq	%r12
	.cfi_def_cfa_offset 8
	ret
	.p2align 4,,10
	.p2align 3
.L328:
	.cfi_restore_state
	movq	0(%rbp), %rax
	movq	%rbp, %rdi
	call	*16(%rax)
	cmpb	$0, (%r12)
	je	.L318
	movl	12(%rbp), %eax
	leal	-1(%rax), %edx
	movl	%edx, 12(%rbp)
.L319:
	cmpl	$1, %eax
	jne	.L314
	movq	0(%rbp), %rax
	movq	%rbp, %rdi
	call	*24(%rax)
	jmp	.L314
	.p2align 4,,10
	.p2align 3
.L329:
	movq	0(%rbp), %rax
	movq	%rbp, %rdi
	call	*16(%rax)
	cmpb	$0, (%r12)
	je	.L325
	movl	12(%rbp), %eax
	leal	-1(%rax), %edx
	movl	%edx, 12(%rbp)
.L326:
	cmpl	$1, %eax
	jne	.L312
	movq	0(%rbp), %rax
	popq	%rbx
	.cfi_remember_state
	.cfi_def_cfa_offset 24
	movq	%rbp, %rdi
	popq	%rbp
	.cfi_def_cfa_offset 16
	popq	%r12
	.cfi_def_cfa_offset 8
	movq	24(%rax), %rax
	jmp	*%rax
	.p2align 4,,10
	.p2align 3
.L322:
	.cfi_restore_state
	movl	$-1, %eax
	lock xaddl	%eax, 8(%rbp)
	jmp	.L323
	.p2align 4,,10
	.p2align 3
.L315:
	movl	$-1, %eax
	lock xaddl	%eax, 8(%rbp)
	jmp	.L316
	.p2align 4,,10
	.p2align 3
.L318:
	movl	$-1, %eax
	lock xaddl	%eax, 12(%rbp)
	jmp	.L319
	.p2align 4,,10
	.p2align 3
.L325:
	movl	$-1, %eax
	lock xaddl	%eax, 12(%rbp)
	jmp	.L326
	.cfi_endproc
.LFE2736:
	.size	_ZN7openpal6LoggerD2Ev, .-_ZN7openpal6LoggerD2Ev
	.weak	_ZN7openpal6LoggerD1Ev
	.set	_ZN7openpal6LoggerD1Ev,_ZN7openpal6LoggerD2Ev
	.text
	.align 2
	.p2align 4
	.globl	_ZN8opendnp38OContext17ProcessNewRequestERKNS_10APDUHeaderERKN7openpal6RSliceE
	.type	_ZN8opendnp38OContext17ProcessNewRequestERKNS_10APDUHeaderERKN7openpal6RSliceE, @function
_ZN8opendnp38OContext17ProcessNewRequestERKNS_10APDUHeaderERKN7openpal6RSliceE:
.LFB2974:
	.cfi_startproc
	endbr64
	movzbl	5(%rsi), %eax
	movq	%rdi, %r8
	movq	%rdx, %rcx
	movb	%al, 832(%rdi)
	movq	944(%rdi), %rdi
	cmpb	$1, (%rsi)
	movq	(%rdi), %rax
	je	.L332
	movq	%rsi, %rdx
	movq	40(%rax), %rax
	movq	%r8, %rsi
	jmp	*%rax
	.p2align 4,,10
	.p2align 3
.L332:
	movq	%rsi, %rdx
	movq	32(%rax), %rax
	movq	%r8, %rsi
	jmp	*%rax
	.cfi_endproc
.LFE2974:
	.size	_ZN8opendnp38OContext17ProcessNewRequestERKNS_10APDUHeaderERKN7openpal6RSliceE, .-_ZN8opendnp38OContext17ProcessNewRequestERKNS_10APDUHeaderERKN7openpal6RSliceE
	.align 2
	.p2align 4
	.globl	_ZN8opendnp38OContext19OnReceiveSolRequestERKNS_10APDUHeaderERKN7openpal6RSliceE
	.type	_ZN8opendnp38OContext19OnReceiveSolRequestERKNS_10APDUHeaderERKN7openpal6RSliceE, @function
_ZN8opendnp38OContext19OnReceiveSolRequestERKNS_10APDUHeaderERKN7openpal6RSliceE:
.LFB2973:
	.cfi_startproc
	endbr64
	pushq	%rbp
	.cfi_def_cfa_offset 16
	.cfi_offset 6, -16
	movq	%rdi, %rbp
	subq	$16, %rsp
	.cfi_def_cfa_offset 32
	cmpb	$0, 744(%rdi)
	je	.L334
	movzbl	832(%rdi), %eax
	cmpb	%al, 5(%rsi)
	je	.L339
.L334:
	addq	$16, %rsp
	.cfi_remember_state
	.cfi_def_cfa_offset 16
	movq	%rbp, %rdi
	popq	%rbp
	.cfi_def_cfa_offset 8
	jmp	_ZN8opendnp38OContext17ProcessNewRequestERKNS_10APDUHeaderERKN7openpal6RSliceE@PLT
	.p2align 4,,10
	.p2align 3
.L339:
	.cfi_restore_state
	leaq	744(%rdi), %rdi
	movq	%rdx, 8(%rsp)
	movq	%rsi, (%rsp)
	call	_ZNK8opendnp314RequestHistory22FullyEqualsLastRequestERKNS_10APDUHeaderERKN7openpal6RSliceE@PLT
	movq	(%rsp), %rsi
	movq	8(%rsp), %rdx
	testb	%al, %al
	je	.L334
	movq	944(%rbp), %rdi
	cmpb	$1, (%rsi)
	movq	(%rdi), %rax
	je	.L340
	movq	48(%rax), %rax
.L338:
	addq	$16, %rsp
	.cfi_remember_state
	.cfi_def_cfa_offset 16
	movq	%rdx, %rcx
	movq	%rsi, %rdx
	movq	%rbp, %rsi
	popq	%rbp
	.cfi_def_cfa_offset 8
	jmp	*%rax
	.p2align 4,,10
	.p2align 3
.L340:
	.cfi_restore_state
	movq	56(%rax), %rax
	jmp	.L338
	.cfi_endproc
.LFE2973:
	.size	_ZN8opendnp38OContext19OnReceiveSolRequestERKNS_10APDUHeaderERKN7openpal6RSliceE, .-_ZN8opendnp38OContext19OnReceiveSolRequestERKNS_10APDUHeaderERKN7openpal6RSliceE
	.section	.rodata.str1.8
	.align 8
.LC2:
	.string	"Ignoring unsol with invalid function code: %s"
	.align 8
.LC3:
	.string	"/home/saptarshi/Desktop/OpenPLC61850/utils/dnp3_src/cpp/libs/src/opendnp3/outstation/OutstationContext.cpp(222)"
	.text
	.align 2
	.p2align 4
	.globl	_ZN8opendnp38OContext14ProcessRequestERKNS_10APDUHeaderERKN7openpal6RSliceE
	.type	_ZN8opendnp38OContext14ProcessRequestERKNS_10APDUHeaderERKN7openpal6RSliceE, @function
_ZN8opendnp38OContext14ProcessRequestERKNS_10APDUHeaderERKN7openpal6RSliceE:
.LFB2976:
	.cfi_startproc
	endbr64
	pushq	%r13
	.cfi_def_cfa_offset 16
	.cfi_offset 13, -16
	pushq	%r12
	.cfi_def_cfa_offset 24
	.cfi_offset 12, -24
	movq	%rsi, %r12
	pushq	%rbp
	.cfi_def_cfa_offset 32
	.cfi_offset 6, -32
	movq	%rdi, %rbp
	subq	$144, %rsp
	.cfi_def_cfa_offset 176
	movq	%fs:40, %rax
	movq	%rax, 136(%rsp)
	xorl	%eax, %eax
	cmpb	$0, 4(%rsi)
	je	.L342
	addq	$8, %rbp
	leaq	12(%rsp), %r13
	movl	$4, 12(%rsp)
	movq	%r13, %rsi
	movq	%rbp, %rdi
	call	_ZNK7openpal6Logger9IsEnabledERKNS_10LogFiltersE@PLT
	testb	%al, %al
	jne	.L349
.L341:
	movq	136(%rsp), %rax
	subq	%fs:40, %rax
	jne	.L350
	addq	$144, %rsp
	.cfi_remember_state
	.cfi_def_cfa_offset 32
	popq	%rbp
	.cfi_def_cfa_offset 24
	popq	%r12
	.cfi_def_cfa_offset 16
	popq	%r13
	.cfi_def_cfa_offset 8
	ret
	.p2align 4,,10
	.p2align 3
.L342:
	.cfi_restore_state
	call	_ZN8opendnp38OContext19OnReceiveSolRequestERKNS_10APDUHeaderERKN7openpal6RSliceE@PLT
	movq	%rax, 944(%rbp)
	jmp	.L341
	.p2align 4,,10
	.p2align 3
.L349:
	movzbl	(%r12), %edi
	leaq	16(%rsp), %r12
	call	_ZN8opendnp320FunctionCodeToStringENS_12FunctionCodeE@PLT
	movq	%r12, %rdi
	movl	$120, %ecx
	leaq	.LC2(%rip), %r8
	movq	%rax, %r9
	movl	$1, %edx
	movl	$120, %esi
	xorl	%eax, %eax
	call	__snprintf_chk@PLT
	movq	%r12, %rcx
	movq	%r13, %rsi
	movq	%rbp, %rdi
	leaq	.LC3(%rip), %rdx
	movl	$4, 12(%rsp)
	call	_ZN7openpal6Logger3LogERKNS_10LogFiltersEPKcS5_@PLT
	jmp	.L341
.L350:
	call	__stack_chk_fail@PLT
	.cfi_endproc
.LFE2976:
	.size	_ZN8opendnp38OContext14ProcessRequestERKNS_10APDUHeaderERKN7openpal6RSliceE, .-_ZN8opendnp38OContext14ProcessRequestERKNS_10APDUHeaderERKN7openpal6RSliceE
	.align 2
	.p2align 4
	.globl	_ZN8opendnp38OContext14ProcessConfirmERKNS_10APDUHeaderE
	.type	_ZN8opendnp38OContext14ProcessConfirmERKNS_10APDUHeaderE, @function
_ZN8opendnp38OContext14ProcessConfirmERKNS_10APDUHeaderE:
.LFB2977:
	.cfi_startproc
	endbr64
	pushq	%rbx
	.cfi_def_cfa_offset 16
	.cfi_offset 3, -16
	movq	%rdi, %rbx
	movq	944(%rdi), %rdi
	movq	%rsi, %rdx
	movq	%rbx, %rsi
	movq	(%rdi), %rax
	call	*16(%rax)
	movq	%rax, 944(%rbx)
	popq	%rbx
	.cfi_def_cfa_offset 8
	ret
	.cfi_endproc
.LFE2977:
	.size	_ZN8opendnp38OContext14ProcessConfirmERKNS_10APDUHeaderE, .-_ZN8opendnp38OContext14ProcessConfirmERKNS_10APDUHeaderE
	.section	.text.unlikely,"ax",@progbits
	.align 2
.LCOLDB4:
	.text
.LHOTB4:
	.align 2
	.p2align 4
	.globl	_ZN8opendnp38OContext7BeginTxERKN7openpal6RSliceE
	.type	_ZN8opendnp38OContext7BeginTxERKN7openpal6RSliceE, @function
_ZN8opendnp38OContext7BeginTxERKN7openpal6RSliceE:
.LFB2980:
	.cfi_startproc
	.cfi_personality 0x9b,DW.ref.__gxx_personality_v0
	.cfi_lsda 0x1b,.LLSDA2980
	endbr64
	pushq	%r13
	.cfi_def_cfa_offset 16
	.cfi_offset 13, -16
	pushq	%r12
	.cfi_def_cfa_offset 24
	.cfi_offset 12, -24
	pushq	%rbp
	.cfi_def_cfa_offset 32
	.cfi_offset 6, -32
	movq	%rsi, %rbp
	pushq	%rbx
	.cfi_def_cfa_offset 40
	.cfi_offset 3, -40
	movq	%rdi, %rbx
	subq	$56, %rsp
	.cfi_def_cfa_offset 96
	movdqu	8(%rdi), %xmm0
	movq	%fs:40, %rax
	movq	%rax, 40(%rsp)
	movq	16(%rdi), %rax
	movaps	%xmm0, (%rsp)
	testq	%rax, %rax
	je	.L354
	movq	__libc_single_threaded@GOTPCREL(%rip), %rdx
	cmpb	$0, (%rdx)
	je	.L355
	addl	$1, 8(%rax)
.L354:
	movdqu	24(%rbx), %xmm1
	movq	32(%rbx), %rax
	movaps	%xmm1, 16(%rsp)
	testq	%rax, %rax
	je	.L356
	movq	__libc_single_threaded@GOTPCREL(%rip), %rdx
	cmpb	$0, (%rdx)
	je	.L357
	addl	$1, 8(%rax)
.L356:
	movq	%rsp, %r12
	movq	%rbp, %rsi
	movq	%r12, %rdi
.LEHB0:
	call	_ZN8opendnp37logging21ParseAndLogResponseTxEN7openpal6LoggerERKNS1_6RSliceE@PLT
.LEHE0:
	movq	24(%rsp), %r12
	testq	%r12, %r12
	je	.L359
	movq	__libc_single_threaded@GOTPCREL(%rip), %r13
	cmpb	$0, 0(%r13)
	je	.L360
	movl	8(%r12), %eax
	leal	-1(%rax), %edx
	movl	%edx, 8(%r12)
.L361:
	cmpl	$1, %eax
	je	.L383
.L359:
	movq	8(%rsp), %r12
	testq	%r12, %r12
	je	.L366
	movq	__libc_single_threaded@GOTPCREL(%rip), %r13
	cmpb	$0, 0(%r13)
	je	.L367
	movl	8(%r12), %eax
	leal	-1(%rax), %edx
	movl	%edx, 8(%r12)
.L368:
	cmpl	$1, %eax
	je	.L384
.L366:
	movb	$1, 721(%rbx)
	movq	56(%rbx), %rdi
	movq	40(%rsp), %rax
	subq	%fs:40, %rax
	jne	.L385
	movq	(%rdi), %rax
	movq	%rbp, %rsi
	movq	16(%rax), %rax
	addq	$56, %rsp
	.cfi_remember_state
	.cfi_def_cfa_offset 40
	popq	%rbx
	.cfi_def_cfa_offset 32
	popq	%rbp
	.cfi_def_cfa_offset 24
	popq	%r12
	.cfi_def_cfa_offset 16
	popq	%r13
	.cfi_def_cfa_offset 8
.LEHB1:
	jmp	*%rax
.LEHE1:
	.p2align 4,,10
	.p2align 3
.L355:
	.cfi_restore_state
	lock addl	$1, 8(%rax)
	jmp	.L354
	.p2align 4,,10
	.p2align 3
.L357:
	lock addl	$1, 8(%rax)
	jmp	.L356
	.p2align 4,,10
	.p2align 3
.L383:
	movq	(%r12), %rax
	movq	%r12, %rdi
	call	*16(%rax)
	cmpb	$0, 0(%r13)
	je	.L363
	movl	12(%r12), %eax
	leal	-1(%rax), %edx
	movl	%edx, 12(%r12)
.L364:
	cmpl	$1, %eax
	jne	.L359
	movq	(%r12), %rax
	movq	%r12, %rdi
	call	*24(%rax)
	jmp	.L359
	.p2align 4,,10
	.p2align 3
.L384:
	movq	(%r12), %rax
	movq	%r12, %rdi
	call	*16(%rax)
	cmpb	$0, 0(%r13)
	je	.L370
	movl	12(%r12), %eax
	leal	-1(%rax), %edx
	movl	%edx, 12(%r12)
.L371:
	cmpl	$1, %eax
	jne	.L366
	movq	(%r12), %rax
	movq	%r12, %rdi
	call	*24(%rax)
	jmp	.L366
	.p2align 4,,10
	.p2align 3
.L360:
	movl	$-1, %eax
	lock xaddl	%eax, 8(%r12)
	jmp	.L361
	.p2align 4,,10
	.p2align 3
.L367:
	movl	$-1, %eax
	lock xaddl	%eax, 8(%r12)
	jmp	.L368
	.p2align 4,,10
	.p2align 3
.L363:
	movl	$-1, %eax
	lock xaddl	%eax, 12(%r12)
	jmp	.L364
	.p2align 4,,10
	.p2align 3
.L370:
	movl	$-1, %eax
	lock xaddl	%eax, 12(%r12)
	jmp	.L371
.L385:
	call	__stack_chk_fail@PLT
.L375:
	endbr64
	movq	%rax, %rbp
	jmp	.L373
	.globl	__gxx_personality_v0
	.section	.gcc_except_table,"a",@progbits
.LLSDA2980:
	.byte	0xff
	.byte	0xff
	.byte	0x1
	.uleb128 .LLSDACSE2980-.LLSDACSB2980
.LLSDACSB2980:
	.uleb128 .LEHB0-.LFB2980
	.uleb128 .LEHE0-.LEHB0
	.uleb128 .L375-.LFB2980
	.uleb128 0
	.uleb128 .LEHB1-.LFB2980
	.uleb128 .LEHE1-.LEHB1
	.uleb128 0
	.uleb128 0
.LLSDACSE2980:
	.text
	.cfi_endproc
	.section	.text.unlikely
	.cfi_startproc
	.cfi_personality 0x9b,DW.ref.__gxx_personality_v0
	.cfi_lsda 0x1b,.LLSDAC2980
	.type	_ZN8opendnp38OContext7BeginTxERKN7openpal6RSliceE.cold, @function
_ZN8opendnp38OContext7BeginTxERKN7openpal6RSliceE.cold:
.LFSB2980:
.L373:
	.cfi_def_cfa_offset 96
	.cfi_offset 3, -40
	.cfi_offset 6, -32
	.cfi_offset 12, -24
	.cfi_offset 13, -16
	movq	%r12, %rdi
	call	_ZN7openpal6LoggerD1Ev@PLT
	movq	%rbp, %rdi
.LEHB2:
	call	_Unwind_Resume@PLT
.LEHE2:
	.cfi_endproc
.LFE2980:
	.section	.gcc_except_table
.LLSDAC2980:
	.byte	0xff
	.byte	0xff
	.byte	0x1
	.uleb128 .LLSDACSEC2980-.LLSDACSBC2980
.LLSDACSBC2980:
	.uleb128 .LEHB2-.LCOLDB4
	.uleb128 .LEHE2-.LEHB2
	.uleb128 0
	.uleb128 0
.LLSDACSEC2980:
	.section	.text.unlikely
	.text
	.size	_ZN8opendnp38OContext7BeginTxERKN7openpal6RSliceE, .-_ZN8opendnp38OContext7BeginTxERKN7openpal6RSliceE
	.section	.text.unlikely
	.size	_ZN8opendnp38OContext7BeginTxERKN7openpal6RSliceE.cold, .-_ZN8opendnp38OContext7BeginTxERKN7openpal6RSliceE.cold
.LCOLDE4:
	.text
.LHOTE4:
	.align 2
	.p2align 4
	.globl	_ZN8opendnp38OContext15BeginResponseTxERKNS_15AppControlFieldERKN7openpal6RSliceE
	.type	_ZN8opendnp38OContext15BeginResponseTxERKNS_15AppControlFieldERKN7openpal6RSliceE, @function
_ZN8opendnp38OContext15BeginResponseTxERKNS_15AppControlFieldERKN7openpal6RSliceE:
.LFB2978:
	.cfi_startproc
	endbr64
	movq	%rsi, %rax
	movq	%rdx, %rsi
	movl	(%rax), %edx
	movdqu	(%rsi), %xmm0
	movl	%edx, 856(%rdi)
	movzbl	4(%rax), %eax
	movups	%xmm0, 840(%rdi)
	movb	%al, 860(%rdi)
	jmp	_ZN8opendnp38OContext7BeginTxERKN7openpal6RSliceE@PLT
	.cfi_endproc
.LFE2978:
	.size	_ZN8opendnp38OContext15BeginResponseTxERKNS_15AppControlFieldERKN7openpal6RSliceE, .-_ZN8opendnp38OContext15BeginResponseTxERKNS_15AppControlFieldERKN7openpal6RSliceE
	.align 2
	.p2align 4
	.globl	_ZN8opendnp38OContext12BeginUnsolTxERKNS_15AppControlFieldERKN7openpal6RSliceE
	.type	_ZN8opendnp38OContext12BeginUnsolTxERKNS_15AppControlFieldERKN7openpal6RSliceE, @function
_ZN8opendnp38OContext12BeginUnsolTxERKNS_15AppControlFieldERKN7openpal6RSliceE:
.LFB2979:
	.cfi_startproc
	endbr64
	movq	%rsi, %rax
	movq	%rdx, %rsi
	movl	(%rax), %edx
	movdqu	(%rsi), %xmm0
	movl	%edx, 912(%rdi)
	movzbl	4(%rax), %eax
	movups	%xmm0, 896(%rdi)
	movb	%al, 916(%rdi)
	movzbl	889(%rdi), %eax
	movb	%al, 890(%rdi)
	addl	$1, %eax
	andl	$15, %eax
	movb	%al, 889(%rdi)
	jmp	_ZN8opendnp38OContext7BeginTxERKN7openpal6RSliceE@PLT
	.cfi_endproc
.LFE2979:
	.size	_ZN8opendnp38OContext12BeginUnsolTxERKNS_15AppControlFieldERKN7openpal6RSliceE, .-_ZN8opendnp38OContext12BeginUnsolTxERKNS_15AppControlFieldERKN7openpal6RSliceE
	.align 2
	.p2align 4
	.globl	_ZN8opendnp38OContext22ProcessDeferredRequestENS_10APDUHeaderEN7openpal6RSliceE
	.type	_ZN8opendnp38OContext22ProcessDeferredRequestENS_10APDUHeaderEN7openpal6RSliceE, @function
_ZN8opendnp38OContext22ProcessDeferredRequestENS_10APDUHeaderEN7openpal6RSliceE:
.LFB2983:
	.cfi_startproc
	endbr64
	pushq	%rbp
	.cfi_def_cfa_offset 16
	.cfi_offset 6, -16
	movq	%rdi, %rbp
	subq	$32, %rsp
	.cfi_def_cfa_offset 48
	movq	%rsi, 24(%rsp)
	movq	%rdx, (%rsp)
	movq	%rcx, 8(%rsp)
	testb	%sil, %sil
	je	.L396
	cmpb	$1, %sil
	jne	.L391
	movq	944(%rdi), %rdi
	movq	(%rdi), %rax
	call	*(%rax)
	testb	%al, %al
	jne	.L391
	addq	$32, %rsp
	.cfi_remember_state
	.cfi_def_cfa_offset 16
	popq	%rbp
	.cfi_def_cfa_offset 8
	ret
	.p2align 4,,10
	.p2align 3
.L391:
	.cfi_restore_state
	movq	%rsp, %rdx
	leaq	24(%rsp), %rsi
	movq	%rbp, %rdi
	call	_ZN8opendnp38OContext14ProcessRequestERKNS_10APDUHeaderERKN7openpal6RSliceE@PLT
	addq	$32, %rsp
	.cfi_remember_state
	.cfi_def_cfa_offset 16
	movl	$1, %eax
	popq	%rbp
	.cfi_def_cfa_offset 8
	ret
	.p2align 4,,10
	.p2align 3
.L396:
	.cfi_restore_state
	leaq	24(%rsp), %rsi
	call	_ZN8opendnp38OContext14ProcessConfirmERKNS_10APDUHeaderE@PLT
	addq	$32, %rsp
	.cfi_def_cfa_offset 16
	movl	$1, %eax
	popq	%rbp
	.cfi_def_cfa_offset 8
	ret
	.cfi_endproc
.LFE2983:
	.size	_ZN8opendnp38OContext22ProcessDeferredRequestENS_10APDUHeaderEN7openpal6RSliceE, .-_ZN8opendnp38OContext22ProcessDeferredRequestENS_10APDUHeaderEN7openpal6RSliceE
	.section	.text.unlikely
	.align 2
.LCOLDB5:
	.text
.LHOTB5:
	.align 2
	.p2align 4
	.globl	_ZN8opendnp38OContext19RestartConfirmTimerEv
	.type	_ZN8opendnp38OContext19RestartConfirmTimerEv, @function
_ZN8opendnp38OContext19RestartConfirmTimerEv:
.LFB2985:
	.cfi_startproc
	.cfi_personality 0x9b,DW.ref.__gxx_personality_v0
	.cfi_lsda 0x1b,.LLSDA2985
	endbr64
	pushq	%r12
	.cfi_def_cfa_offset 16
	.cfi_offset 12, -16
	leaq	728(%rdi), %r8
	movq	%rdi, %xmm1
	leaq	_ZNSt17_Function_handlerIFvvEZN7openpal8TimerRef7RestartIZN8opendnp38OContext19RestartConfirmTimerEvEUlvE_EEvRKNS1_12TimeDurationERKT_EUlvE_E10_M_managerERSt9_Any_dataRKSF_St18_Manager_operation(%rip), %rcx
	pushq	%rbp
	.cfi_def_cfa_offset 24
	.cfi_offset 6, -24
	movq	%r8, %xmm0
	leaq	688(%rdi), %rsi
	movq	%r8, %rdi
	punpcklqdq	%xmm1, %xmm0
	subq	$56, %rsp
	.cfi_def_cfa_offset 80
	movq	%fs:40, %rax
	movq	%rax, 40(%rsp)
	xorl	%eax, %eax
	leaq	_ZNSt17_Function_handlerIFvvEZN7openpal8TimerRef7RestartIZN8opendnp38OContext19RestartConfirmTimerEvEUlvE_EEvRKNS1_12TimeDurationERKT_EUlvE_E9_M_invokeERKSt9_Any_data(%rip), %rax
	movaps	%xmm0, (%rsp)
	movq	%rsp, %rbp
	movq	%rcx, %xmm0
	movq	%rax, %xmm2
	movq	%rbp, %rdx
	punpcklqdq	%xmm2, %xmm0
	movaps	%xmm0, 16(%rsp)
.LEHB3:
	call	_ZN7openpal8TimerRef13RestartActionERKNS_12TimeDurationERKSt8functionIFvvEE@PLT
.LEHE3:
	movq	16(%rsp), %rax
	testq	%rax, %rax
	je	.L397
	movl	$3, %edx
	movq	%rbp, %rsi
	movq	%rbp, %rdi
	call	*%rax
.L397:
	movq	40(%rsp), %rax
	subq	%fs:40, %rax
	jne	.L410
	addq	$56, %rsp
	.cfi_remember_state
	.cfi_def_cfa_offset 24
	popq	%rbp
	.cfi_def_cfa_offset 16
	popq	%r12
	.cfi_def_cfa_offset 8
	ret
.L410:
	.cfi_restore_state
	call	__stack_chk_fail@PLT
.L402:
	endbr64
	movq	%rax, %r12
	jmp	.L399
	.section	.gcc_except_table
.LLSDA2985:
	.byte	0xff
	.byte	0xff
	.byte	0x1
	.uleb128 .LLSDACSE2985-.LLSDACSB2985
.LLSDACSB2985:
	.uleb128 .LEHB3-.LFB2985
	.uleb128 .LEHE3-.LEHB3
	.uleb128 .L402-.LFB2985
	.uleb128 0
.LLSDACSE2985:
	.text
	.cfi_endproc
	.section	.text.unlikely
	.cfi_startproc
	.cfi_personality 0x9b,DW.ref.__gxx_personality_v0
	.cfi_lsda 0x1b,.LLSDAC2985
	.type	_ZN8opendnp38OContext19RestartConfirmTimerEv.cold, @function
_ZN8opendnp38OContext19RestartConfirmTimerEv.cold:
.LFSB2985:
.L399:
	.cfi_def_cfa_offset 80
	.cfi_offset 6, -24
	.cfi_offset 12, -16
	movq	16(%rsp), %rax
	testq	%rax, %rax
	je	.L400
	movl	$3, %edx
	movq	%rbp, %rsi
	movq	%rbp, %rdi
	call	*%rax
.L400:
	movq	%r12, %rdi
.LEHB4:
	call	_Unwind_Resume@PLT
.LEHE4:
	.cfi_endproc
.LFE2985:
	.section	.gcc_except_table
.LLSDAC2985:
	.byte	0xff
	.byte	0xff
	.byte	0x1
	.uleb128 .LLSDACSEC2985-.LLSDACSBC2985
.LLSDACSBC2985:
	.uleb128 .LEHB4-.LCOLDB5
	.uleb128 .LEHE4-.LEHB4
	.uleb128 0
	.uleb128 0
.LLSDACSEC2985:
	.section	.text.unlikely
	.text
	.size	_ZN8opendnp38OContext19RestartConfirmTimerEv, .-_ZN8opendnp38OContext19RestartConfirmTimerEv
	.section	.text.unlikely
	.size	_ZN8opendnp38OContext19RestartConfirmTimerEv.cold, .-_ZN8opendnp38OContext19RestartConfirmTimerEv.cold
.LCOLDE5:
	.text
.LHOTE5:
	.align 2
	.p2align 4
	.globl	_ZNK8opendnp38OContext11CanTransmitEv
	.type	_ZNK8opendnp38OContext11CanTransmitEv, @function
_ZNK8opendnp38OContext11CanTransmitEv:
.LFB2990:
	.cfi_startproc
	endbr64
	movzbl	720(%rdi), %eax
	testb	%al, %al
	je	.L411
	movzbl	721(%rdi), %eax
	xorl	$1, %eax
.L411:
	ret
	.cfi_endproc
.LFE2990:
	.size	_ZNK8opendnp38OContext11CanTransmitEv, .-_ZNK8opendnp38OContext11CanTransmitEv
	.align 2
	.p2align 4
	.globl	_ZN8opendnp38OContext23CheckForDeferredRequestEv
	.type	_ZN8opendnp38OContext23CheckForDeferredRequestEv, @function
_ZN8opendnp38OContext23CheckForDeferredRequestEv:
.LFB2981:
	.cfi_startproc
	endbr64
	pushq	%rbx
	.cfi_def_cfa_offset 16
	.cfi_offset 3, -16
	movq	%rdi, %rbx
	call	_ZNK8opendnp38OContext11CanTransmitEv@PLT
	testb	%al, %al
	jne	.L424
.L416:
	popq	%rbx
	.cfi_remember_state
	.cfi_def_cfa_offset 8
	ret
	.p2align 4,,10
	.p2align 3
.L424:
	.cfi_restore_state
	leaq	760(%rbx), %rdi
	call	_ZNK8opendnp315DeferredRequest5IsSetEv@PLT
	testb	%al, %al
	je	.L416
	cmpb	$0, 760(%rbx)
	je	.L416
	movzbl	762(%rbx), %esi
	movl	768(%rbx), %edx
	movq	%rbx, %rdi
	movzbl	761(%rbx), %eax
	movq	776(%rbx), %rcx
	salq	$8, %rsi
	orq	%rax, %rsi
	movzbl	763(%rbx), %eax
	salq	$16, %rax
	orq	%rsi, %rax
	movzbl	764(%rbx), %esi
	salq	$24, %rsi
	orq	%rax, %rsi
	movzbl	765(%rbx), %eax
	salq	$32, %rax
	orq	%rsi, %rax
	movzbl	766(%rbx), %esi
	salq	$40, %rsi
	orq	%rax, %rsi
	call	_ZN8opendnp38OContext22ProcessDeferredRequestENS_10APDUHeaderEN7openpal6RSliceE@PLT
	xorl	$1, %eax
	movb	%al, 760(%rbx)
	popq	%rbx
	.cfi_def_cfa_offset 8
	ret
	.cfi_endproc
.LFE2981:
	.size	_ZN8opendnp38OContext23CheckForDeferredRequestEv, .-_ZN8opendnp38OContext23CheckForDeferredRequestEv
	.align 2
	.p2align 4
	.globl	_ZN8opendnp38OContext13GetDynamicIINEv
	.type	_ZN8opendnp38OContext13GetDynamicIINEv, @function
_ZN8opendnp38OContext13GetDynamicIINEv:
.LFB2992:
	.cfi_startproc
	endbr64
	pushq	%r13
	.cfi_def_cfa_offset 16
	.cfi_offset 13, -16
	pushq	%r12
	.cfi_def_cfa_offset 24
	.cfi_offset 12, -24
	leaq	104(%rdi), %r12
	pushq	%rbp
	.cfi_def_cfa_offset 32
	.cfi_offset 6, -32
	movq	%r12, %rdi
	subq	$16, %rsp
	.cfi_def_cfa_offset 48
	movq	%fs:40, %rax
	movq	%rax, 8(%rsp)
	xorl	%eax, %eax
	leaq	5(%rsp), %r13
	leaq	6(%rsp), %rbp
	call	_ZNK8opendnp311EventBuffer19UnwrittenClassFieldEv@PLT
	movq	%r13, %rdi
	movb	%al, 5(%rsp)
	xorl	%eax, %eax
	movw	%ax, 6(%rsp)
	call	_ZNK8opendnp310ClassField9HasClass1Ev@PLT
	movl	$1, %esi
	movq	%rbp, %rdi
	movzbl	%al, %edx
	call	_ZN8opendnp38IINField13SetBitToValueENS_6IINBitEb@PLT
	movq	%r13, %rdi
	call	_ZNK8opendnp310ClassField9HasClass2Ev@PLT
	movl	$2, %esi
	movq	%rbp, %rdi
	movzbl	%al, %edx
	call	_ZN8opendnp38IINField13SetBitToValueENS_6IINBitEb@PLT
	movq	%r13, %rdi
	call	_ZNK8opendnp310ClassField9HasClass3Ev@PLT
	movl	$3, %esi
	movq	%rbp, %rdi
	movzbl	%al, %edx
	call	_ZN8opendnp38IINField13SetBitToValueENS_6IINBitEb@PLT
	movq	%r12, %rdi
	call	_ZN8opendnp311EventBuffer11IsOverflownEv@PLT
	movl	$11, %esi
	movq	%rbp, %rdi
	movzbl	%al, %edx
	call	_ZN8opendnp38IINField13SetBitToValueENS_6IINBitEb@PLT
	movzwl	6(%rsp), %eax
	movq	8(%rsp), %rdx
	subq	%fs:40, %rdx
	jne	.L428
	addq	$16, %rsp
	.cfi_remember_state
	.cfi_def_cfa_offset 32
	popq	%rbp
	.cfi_def_cfa_offset 24
	popq	%r12
	.cfi_def_cfa_offset 16
	popq	%r13
	.cfi_def_cfa_offset 8
	ret
.L428:
	.cfi_restore_state
	call	__stack_chk_fail@PLT
	.cfi_endproc
.LFE2992:
	.size	_ZN8opendnp38OContext13GetDynamicIINEv, .-_ZN8opendnp38OContext13GetDynamicIINEv
	.align 2
	.p2align 4
	.globl	_ZN8opendnp38OContext14GetResponseIINEv
	.type	_ZN8opendnp38OContext14GetResponseIINEv, @function
_ZN8opendnp38OContext14GetResponseIINEv:
.LFB2991:
	.cfi_startproc
	endbr64
	pushq	%r12
	.cfi_def_cfa_offset 16
	.cfi_offset 12, -16
	pushq	%rbp
	.cfi_def_cfa_offset 24
	.cfi_offset 6, -24
	movq	%rdi, %rbp
	pushq	%rbx
	.cfi_def_cfa_offset 32
	.cfi_offset 3, -32
	subq	$16, %rsp
	.cfi_def_cfa_offset 48
	movq	88(%rdi), %rdi
	movq	%fs:40, %rax
	movq	%rax, 8(%rsp)
	xorl	%eax, %eax
	movq	(%rdi), %rax
	movq	80(%rax), %rax
	cmpq	_ZNK8opendnp322IOutstationApplication17GetApplicationIINEv@GOTPCREL(%rip), %rax
	jne	.L430
	leaq	4(%rsp), %r12
	movq	%r12, %rdi
	call	_ZN8opendnp314ApplicationIINC1Ev@PLT
.L431:
	movq	%r12, %rdi
	call	_ZNK8opendnp314ApplicationIIN5ToIINEv@PLT
	movq	%rbp, %rdi
	movl	%eax, %ebx
	call	_ZN8opendnp38OContext13GetDynamicIINEv@PLT
	movl	%ebx, %edx
	xorl	%ecx, %ecx
	movzbl	%bh, %ebx
	orl	%eax, %edx
	movzbl	%ah, %eax
	orb	722(%rbp), %dl
	movb	%dl, %cl
	orl	%eax, %ebx
	orb	723(%rbp), %bl
	movb	%bl, %ch
	movq	8(%rsp), %rax
	subq	%fs:40, %rax
	jne	.L434
	addq	$16, %rsp
	.cfi_remember_state
	.cfi_def_cfa_offset 32
	movl	%ecx, %eax
	popq	%rbx
	.cfi_def_cfa_offset 24
	popq	%rbp
	.cfi_def_cfa_offset 16
	popq	%r12
	.cfi_def_cfa_offset 8
	ret
	.p2align 4,,10
	.p2align 3
.L430:
	.cfi_restore_state
	call	*%rax
	leaq	4(%rsp), %r12
	movl	%eax, 4(%rsp)
	jmp	.L431
.L434:
	call	__stack_chk_fail@PLT
	.cfi_endproc
.LFE2991:
	.size	_ZN8opendnp38OContext14GetResponseIINEv, .-_ZN8opendnp38OContext14GetResponseIINEv
	.align 2
	.p2align 4
	.globl	_ZN8opendnp38OContext19CheckForUnsolicitedEv
	.type	_ZN8opendnp38OContext19CheckForUnsolicitedEv, @function
_ZN8opendnp38OContext19CheckForUnsolicitedEv:
.LFB2984:
	.cfi_startproc
	endbr64
	pushq	%r15
	.cfi_def_cfa_offset 16
	.cfi_offset 15, -16
	pushq	%r14
	.cfi_def_cfa_offset 24
	.cfi_offset 14, -24
	pushq	%r13
	.cfi_def_cfa_offset 32
	.cfi_offset 13, -32
	pushq	%r12
	.cfi_def_cfa_offset 40
	.cfi_offset 12, -40
	pushq	%rbp
	.cfi_def_cfa_offset 48
	.cfi_offset 6, -48
	movq	%rdi, %rbp
	subq	$112, %rsp
	.cfi_def_cfa_offset 160
	movq	%fs:40, %rax
	movq	%rax, 104(%rsp)
	xorl	%eax, %eax
	call	_ZNK8opendnp38OContext11CanTransmitEv@PLT
	testb	%al, %al
	je	.L435
	movq	944(%rbp), %rdi
	movq	(%rdi), %rax
	call	*(%rax)
	testb	%al, %al
	jne	.L448
.L435:
	movq	104(%rsp), %rax
	subq	%fs:40, %rax
	jne	.L449
	addq	$112, %rsp
	.cfi_remember_state
	.cfi_def_cfa_offset 48
	popq	%rbp
	.cfi_def_cfa_offset 40
	popq	%r12
	.cfi_def_cfa_offset 32
	popq	%r13
	.cfi_def_cfa_offset 24
	popq	%r14
	.cfi_def_cfa_offset 16
	popq	%r15
	.cfi_def_cfa_offset 8
	ret
	.p2align 4,,10
	.p2align 3
.L448:
	.cfi_restore_state
	cmpb	$0, 712(%rbp)
	je	.L435
	cmpb	$0, 888(%rbp)
	je	.L439
	leaq	104(%rbp), %r13
	leaq	716(%rbp), %r14
	movq	%r13, %rdi
	leaq	64(%rsp), %r12
	call	_ZNK8opendnp311EventBuffer19UnwrittenClassFieldEv@PLT
	movq	%r12, %rsi
	movq	%r14, %rdi
	movb	%al, 64(%rsp)
	call	_ZNK8opendnp310ClassField10IntersectsERKS0_@PLT
	testb	%al, %al
	je	.L435
	leaq	32(%rsp), %r15
	leaq	920(%rbp), %rdi
	call	_ZN7openpal6Buffer9GetWSliceEv@PLT
	movq	%r15, %rsi
	movq	%r12, %rdi
	movq	%rdx, 40(%rsp)
	movl	%eax, 32(%rsp)
	call	_ZN8opendnp312APDUResponseC1ERKN7openpal6WSliceE@PLT
	movq	%r12, %rsi
	movq	%r15, %rdi
	call	_ZN8opendnp311APDUWrapper9GetWriterEv@PLT
	movq	%r13, %rdi
	call	_ZN8opendnp311EventBuffer8UnselectEv@PLT
	movq	%r14, %rsi
	movq	%r13, %rdi
	call	_ZN8opendnp311EventBuffer16SelectAllByClassERKNS_10ClassFieldE@PLT
	movq	%r15, %rsi
	movq	%r13, %rdi
	leaq	16(%rsp), %r13
	call	_ZN8opendnp311EventBuffer4LoadERNS_12HeaderWriterE@PLT
	movq	%rbp, %rdi
	call	_ZN8opendnp38OContext14GetResponseIINEv@PLT
	movzbl	889(%rbp), %esi
	movq	%r13, %rdx
	movq	%r12, %rdi
	movw	%ax, 16(%rsp)
	call	_ZN8opendnp35build15NullUnsolicitedERNS_12APDUResponseEhRKNS_8IINFieldE@PLT
	movq	%rbp, %rdi
	call	_ZN8opendnp38OContext19RestartConfirmTimerEv@PLT
	movq	_ZN8opendnp327StateUnsolicitedConfirmWait8instanceE@GOTPCREL(%rip), %rax
	movq	%r12, %rdi
	movq	%rax, 944(%rbp)
	call	_ZNK8opendnp311APDUWrapper8ToRSliceEv@PLT
	movq	%r12, %rdi
	movq	%rdx, 24(%rsp)
	movl	%eax, 16(%rsp)
	call	_ZNK8opendnp311APDUWrapper10GetControlEv@PLT
	leaq	11(%rsp), %rsi
	movq	%rbp, %rdi
	movq	%rax, %rdx
	movb	%al, 11(%rsp)
	shrq	$16, %rdx
	movb	%ah, 12(%rsp)
	movb	%dl, 13(%rsp)
	movq	%rax, %rdx
	shrq	$32, %rax
	shrq	$24, %rdx
	movb	%al, 15(%rsp)
	movb	%dl, 14(%rsp)
	movq	%r13, %rdx
	call	_ZN8opendnp38OContext12BeginUnsolTxERKNS_15AppControlFieldERKN7openpal6RSliceE@PLT
	jmp	.L435
	.p2align 4,,10
	.p2align 3
.L439:
	leaq	64(%rsp), %r12
	leaq	32(%rsp), %r13
	leaq	920(%rbp), %rdi
	call	_ZN7openpal6Buffer9GetWSliceEv@PLT
	movq	%r13, %rsi
	movq	%r12, %rdi
	movq	%rdx, 40(%rsp)
	movl	%eax, 32(%rsp)
	call	_ZN8opendnp312APDUResponseC1ERKN7openpal6WSliceE@PLT
	movq	%rbp, %rdi
	call	_ZN8opendnp38OContext14GetResponseIINEv@PLT
	movzbl	889(%rbp), %esi
	movq	%r13, %rdx
	movq	%r12, %rdi
	movw	%ax, 32(%rsp)
	call	_ZN8opendnp35build15NullUnsolicitedERNS_12APDUResponseEhRKNS_8IINFieldE@PLT
	movq	%rbp, %rdi
	call	_ZN8opendnp38OContext19RestartConfirmTimerEv@PLT
	movq	_ZN8opendnp327StateUnsolicitedConfirmWait8instanceE@GOTPCREL(%rip), %rax
	movq	%r12, %rdi
	movq	%rax, 944(%rbp)
	call	_ZNK8opendnp311APDUWrapper8ToRSliceEv@PLT
	movq	%r12, %rdi
	movq	%rdx, 40(%rsp)
	movl	%eax, 32(%rsp)
	call	_ZNK8opendnp311APDUWrapper10GetControlEv@PLT
	leaq	16(%rsp), %rsi
	movq	%rbp, %rdi
	movq	%rax, %rdx
	movb	%al, 16(%rsp)
	shrq	$16, %rdx
	movb	%ah, 17(%rsp)
	movb	%dl, 18(%rsp)
	movq	%rax, %rdx
	shrq	$32, %rax
	shrq	$24, %rdx
	movb	%al, 20(%rsp)
	movb	%dl, 19(%rsp)
	movq	%r13, %rdx
	call	_ZN8opendnp38OContext12BeginUnsolTxERKNS_15AppControlFieldERKN7openpal6RSliceE@PLT
	jmp	.L435
.L449:
	call	__stack_chk_fail@PLT
	.cfi_endproc
.LFE2984:
	.size	_ZN8opendnp38OContext19CheckForUnsolicitedEv, .-_ZN8opendnp38OContext19CheckForUnsolicitedEv
	.align 2
	.p2align 4
	.globl	_ZN8opendnp38OContext25ContinueMultiFragResponseERKN7openpal11SequenceNumIhLh16EEE
	.type	_ZN8opendnp38OContext25ContinueMultiFragResponseERKN7openpal11SequenceNumIhLh16EEE, @function
_ZN8opendnp38OContext25ContinueMultiFragResponseERKN7openpal11SequenceNumIhLh16EEE:
.LFB2989:
	.cfi_startproc
	endbr64
	pushq	%r13
	.cfi_def_cfa_offset 16
	.cfi_offset 13, -16
	pushq	%r12
	.cfi_def_cfa_offset 24
	.cfi_offset 12, -24
	pushq	%rbp
	.cfi_def_cfa_offset 32
	.cfi_offset 6, -32
	movq	%rdi, %rbp
	addq	$864, %rdi
	pushq	%rbx
	.cfi_def_cfa_offset 40
	.cfi_offset 3, -40
	movq	%rsi, %rbx
	subq	$120, %rsp
	.cfi_def_cfa_offset 160
	movq	%fs:40, %rax
	movq	%rax, 104(%rsp)
	xorl	%eax, %eax
	leaq	64(%rsp), %r12
	leaq	32(%rsp), %r13
	call	_ZN7openpal6Buffer9GetWSliceEv@PLT
	movq	%r13, %rsi
	movq	%r12, %rdi
	movq	%rdx, 40(%rsp)
	movl	%eax, 32(%rsp)
	call	_ZN8opendnp312APDUResponseC1ERKN7openpal6WSliceE@PLT
	movq	%r13, %rdi
	movq	%r12, %rsi
	call	_ZN8opendnp311APDUWrapper9GetWriterEv@PLT
	movl	$-127, %esi
	movq	%r12, %rdi
	call	_ZN8opendnp311APDUWrapper11SetFunctionENS_12FunctionCodeE@PLT
	movq	%r13, %rsi
	leaq	640(%rbp), %rdi
	leaq	16(%rsp), %r13
	call	_ZN8opendnp315ResponseContext12LoadResponseERNS_12HeaderWriterE@PLT
	movzbl	(%rbx), %esi
	movq	%r12, %rdi
	movq	%rax, %rdx
	movb	%al, 6(%rsp)
	movb	%ah, 7(%rsp)
	shrq	$16, %rdx
	shrq	$24, %rax
	movb	%dl, 8(%rsp)
	movzwl	6(%rsp), %edx
	movb	%al, 9(%rsp)
	movzwl	8(%rsp), %eax
	movb	%sil, 833(%rbp)
	salq	$32, %rsi
	salq	$16, %rax
	orq	%rdx, %rax
	orq	%rax, %rsi
	call	_ZN8opendnp311APDUWrapper10SetControlENS_15AppControlFieldE@PLT
	movq	%rbp, %rdi
	call	_ZN8opendnp38OContext14GetResponseIINEv@PLT
	movq	%r13, %rsi
	movq	%r12, %rdi
	movw	%ax, 16(%rsp)
	call	_ZN8opendnp312APDUResponse6SetIINERKNS_8IINFieldE@PLT
	movq	%r12, %rdi
	call	_ZNK8opendnp311APDUWrapper8ToRSliceEv@PLT
	movq	%r12, %rdi
	movq	%rdx, 24(%rsp)
	movl	%eax, 16(%rsp)
	call	_ZNK8opendnp311APDUWrapper10GetControlEv@PLT
	leaq	11(%rsp), %rsi
	movq	%rbp, %rdi
	movq	%rax, %rdx
	movb	%al, 11(%rsp)
	shrq	$16, %rdx
	movb	%ah, 12(%rsp)
	movb	%dl, 13(%rsp)
	movq	%rax, %rdx
	shrq	$32, %rax
	shrq	$24, %rdx
	movb	%al, 15(%rsp)
	movb	%dl, 14(%rsp)
	movq	%r13, %rdx
	call	_ZN8opendnp38OContext15BeginResponseTxERKNS_15AppControlFieldERKN7openpal6RSliceE@PLT
	cmpb	$0, 8(%rsp)
	jne	.L455
	movq	_ZN8opendnp39StateIdle8instanceE@GOTPCREL(%rip), %rax
.L450:
	movq	104(%rsp), %rdx
	subq	%fs:40, %rdx
	jne	.L456
	addq	$120, %rsp
	.cfi_remember_state
	.cfi_def_cfa_offset 40
	popq	%rbx
	.cfi_def_cfa_offset 32
	popq	%rbp
	.cfi_def_cfa_offset 24
	popq	%r12
	.cfi_def_cfa_offset 16
	popq	%r13
	.cfi_def_cfa_offset 8
	ret
	.p2align 4,,10
	.p2align 3
.L455:
	.cfi_restore_state
	movq	%rbp, %rdi
	call	_ZN8opendnp38OContext19RestartConfirmTimerEv@PLT
	movq	_ZN8opendnp325StateSolicitedConfirmWait8instanceE@GOTPCREL(%rip), %rax
	jmp	.L450
.L456:
	call	__stack_chk_fail@PLT
	.cfi_endproc
.LFE2989:
	.size	_ZN8opendnp38OContext25ContinueMultiFragResponseERKN7openpal11SequenceNumIhLh16EEE, .-_ZN8opendnp38OContext25ContinueMultiFragResponseERKN7openpal11SequenceNumIhLh16EEE
	.align 2
	.p2align 4
	.globl	_ZN8opendnp38OContext17CheckForTaskStartEv
	.type	_ZN8opendnp38OContext17CheckForTaskStartEv, @function
_ZN8opendnp38OContext17CheckForTaskStartEv:
.LFB2994:
	.cfi_startproc
	endbr64
	pushq	%rbp
	.cfi_def_cfa_offset 16
	.cfi_offset 6, -16
	movq	%rdi, %rbp
	call	_ZN8opendnp38OContext23CheckForDeferredRequestEv@PLT
	movq	%rbp, %rdi
	popq	%rbp
	.cfi_def_cfa_offset 8
	jmp	_ZN8opendnp38OContext19CheckForUnsolicitedEv@PLT
	.cfi_endproc
.LFE2994:
	.size	_ZN8opendnp38OContext17CheckForTaskStartEv, .-_ZN8opendnp38OContext17CheckForTaskStartEv
	.section	.rodata.str1.1
.LC6:
	.string	"already online"
	.section	.rodata.str1.8
	.align 8
.LC7:
	.string	"/home/saptarshi/Desktop/OpenPLC61850/utils/dnp3_src/cpp/libs/src/opendnp3/outstation/OutstationContext.cpp(83)"
	.text
	.align 2
	.p2align 4
	.globl	_ZN8opendnp38OContext14OnLowerLayerUpEv
	.type	_ZN8opendnp38OContext14OnLowerLayerUpEv, @function
_ZN8opendnp38OContext14OnLowerLayerUpEv:
.LFB2969:
	.cfi_startproc
	endbr64
	pushq	%r12
	.cfi_def_cfa_offset 16
	.cfi_offset 12, -16
	pushq	%rbp
	.cfi_def_cfa_offset 24
	.cfi_offset 6, -24
	subq	$24, %rsp
	.cfi_def_cfa_offset 48
	movq	%fs:40, %rax
	movq	%rax, 8(%rsp)
	xorl	%eax, %eax
	cmpb	$0, 720(%rdi)
	jne	.L467
	movb	$1, 720(%rdi)
	call	_ZN8opendnp38OContext17CheckForTaskStartEv@PLT
	movl	$1, %eax
.L459:
	movq	8(%rsp), %rdx
	subq	%fs:40, %rdx
	jne	.L468
	addq	$24, %rsp
	.cfi_remember_state
	.cfi_def_cfa_offset 24
	popq	%rbp
	.cfi_def_cfa_offset 16
	popq	%r12
	.cfi_def_cfa_offset 8
	ret
	.p2align 4,,10
	.p2align 3
.L467:
	.cfi_restore_state
	leaq	8(%rdi), %rbp
	leaq	4(%rsp), %r12
	movl	$2, 4(%rsp)
	movq	%r12, %rsi
	movq	%rbp, %rdi
	call	_ZNK7openpal6Logger9IsEnabledERKNS_10LogFiltersE@PLT
	testb	%al, %al
	je	.L459
	leaq	.LC6(%rip), %rcx
	leaq	.LC7(%rip), %rdx
	movq	%r12, %rsi
	movq	%rbp, %rdi
	movl	$2, 4(%rsp)
	call	_ZN7openpal6Logger3LogERKNS_10LogFiltersEPKcS5_@PLT
	xorl	%eax, %eax
	jmp	.L459
.L468:
	call	__stack_chk_fail@PLT
	.cfi_endproc
.LFE2969:
	.size	_ZN8opendnp38OContext14OnLowerLayerUpEv, .-_ZN8opendnp38OContext14OnLowerLayerUpEv
	.align 2
	.p2align 4
	.globl	_ZN8opendnp38OContext12OnSendResultEb
	.type	_ZN8opendnp38OContext12OnSendResultEb, @function
_ZN8opendnp38OContext12OnSendResultEb:
.LFB2971:
	.cfi_startproc
	endbr64
	pushq	%r12
	.cfi_def_cfa_offset 16
	.cfi_offset 12, -16
	movzbl	720(%rdi), %r12d
	testb	%r12b, %r12b
	je	.L469
	movzbl	721(%rdi), %r12d
	testb	%r12b, %r12b
	jne	.L478
.L469:
	movl	%r12d, %eax
	popq	%r12
	.cfi_remember_state
	.cfi_def_cfa_offset 8
	ret
	.p2align 4,,10
	.p2align 3
.L478:
	.cfi_restore_state
	movb	$0, 721(%rdi)
	call	_ZN8opendnp38OContext17CheckForTaskStartEv@PLT
	movl	%r12d, %eax
	popq	%r12
	.cfi_def_cfa_offset 8
	ret
	.cfi_endproc
.LFE2971:
	.size	_ZN8opendnp38OContext12OnSendResultEb, .-_ZN8opendnp38OContext12OnSendResultEb
	.p2align 4
	.type	_ZNSt17_Function_handlerIFvvEZN7openpal8TimerRef7RestartIZN8opendnp38OContext19RestartConfirmTimerEvEUlvE_EEvRKNS1_12TimeDurationERKT_EUlvE_E9_M_invokeERKSt9_Any_data, @function
_ZNSt17_Function_handlerIFvvEZN7openpal8TimerRef7RestartIZN8opendnp38OContext19RestartConfirmTimerEvEUlvE_EEvRKNS1_12TimeDurationERKT_EUlvE_E9_M_invokeERKSt9_Any_data:
.LFB3592:
	.cfi_startproc
	endbr64
	pushq	%rbp
	.cfi_def_cfa_offset 16
	.cfi_offset 6, -16
	pushq	%rbx
	.cfi_def_cfa_offset 24
	.cfi_offset 3, -24
	movq	%rdi, %rbx
	subq	$8, %rsp
	.cfi_def_cfa_offset 32
	movq	8(%rdi), %rbp
	movq	(%rdi), %rax
	movq	944(%rbp), %rdi
	movq	$0, 8(%rax)
	movq	%rbp, %rsi
	movq	(%rdi), %rax
	call	*24(%rax)
	movq	8(%rbx), %rdi
	movq	%rax, 944(%rbp)
	addq	$8, %rsp
	.cfi_def_cfa_offset 24
	popq	%rbx
	.cfi_def_cfa_offset 16
	popq	%rbp
	.cfi_def_cfa_offset 8
	jmp	_ZN8opendnp38OContext17CheckForTaskStartEv@PLT
	.cfi_endproc
.LFE3592:
	.size	_ZNSt17_Function_handlerIFvvEZN7openpal8TimerRef7RestartIZN8opendnp38OContext19RestartConfirmTimerEvEUlvE_EEvRKNS1_12TimeDurationERKT_EUlvE_E9_M_invokeERKSt9_Any_data, .-_ZNSt17_Function_handlerIFvvEZN7openpal8TimerRef7RestartIZN8opendnp38OContext19RestartConfirmTimerEvEUlvE_EEvRKNS1_12TimeDurationERKT_EUlvE_E9_M_invokeERKSt9_Any_data
	.align 2
	.p2align 4
	.globl	_ZN8opendnp38OContext13SetRestartIINEv
	.type	_ZN8opendnp38OContext13SetRestartIINEv, @function
_ZN8opendnp38OContext13SetRestartIINEv:
.LFB2995:
	.cfi_startproc
	endbr64
	addq	$722, %rdi
	movl	$7, %esi
	jmp	_ZN8opendnp38IINField6SetBitENS_6IINBitE@PLT
	.cfi_endproc
.LFE2995:
	.size	_ZN8opendnp38OContext13SetRestartIINEv, .-_ZN8opendnp38OContext13SetRestartIINEv
	.align 2
	.p2align 4
	.globl	_ZN8opendnp38OContext16GetUpdateHandlerEv
	.type	_ZN8opendnp38OContext16GetUpdateHandlerEv, @function
_ZN8opendnp38OContext16GetUpdateHandlerEv:
.LFB2996:
	.cfi_startproc
	endbr64
	leaq	360(%rdi), %rax
	ret
	.cfi_endproc
.LFE2996:
	.size	_ZN8opendnp38OContext16GetUpdateHandlerEv, .-_ZN8opendnp38OContext16GetUpdateHandlerEv
	.align 2
	.p2align 4
	.globl	_ZN8opendnp38OContext13GetConfigViewEv
	.type	_ZN8opendnp38OContext13GetConfigViewEv, @function
_ZN8opendnp38OContext13GetConfigViewEv:
.LFB2997:
	.cfi_startproc
	endbr64
	pushq	%r12
	.cfi_def_cfa_offset 16
	.cfi_offset 12, -16
	addq	$408, %rsi
	movq	%rdi, %r12
	subq	$16, %rsp
	.cfi_def_cfa_offset 32
	movq	%fs:40, %rax
	movq	%rax, 8(%rsp)
	xorl	%eax, %eax
	call	_ZNK8opendnp313StaticBuffers7GetViewEv@PLT
	movq	8(%rsp), %rax
	subq	%fs:40, %rax
	jne	.L486
	addq	$16, %rsp
	.cfi_remember_state
	.cfi_def_cfa_offset 16
	movq	%r12, %rax
	popq	%r12
	.cfi_def_cfa_offset 8
	ret
.L486:
	.cfi_restore_state
	call	__stack_chk_fail@PLT
	.cfi_endproc
.LFE2997:
	.size	_ZN8opendnp38OContext13GetConfigViewEv, .-_ZN8opendnp38OContext13GetConfigViewEv
	.align 2
	.p2align 4
	.globl	_ZN8opendnp38OContext10HandleReadERKN7openpal6RSliceERNS_12HeaderWriterE
	.type	_ZN8opendnp38OContext10HandleReadERKN7openpal6RSliceERNS_12HeaderWriterE, @function
_ZN8opendnp38OContext10HandleReadERKN7openpal6RSliceERNS_12HeaderWriterE:
.LFB3000:
	.cfi_startproc
	endbr64
	pushq	%r15
	.cfi_def_cfa_offset 16
	.cfi_offset 15, -16
	pushq	%r14
	.cfi_def_cfa_offset 24
	.cfi_offset 14, -24
	leaq	640(%rdi), %r14
	pushq	%r13
	.cfi_def_cfa_offset 32
	.cfi_offset 13, -32
	pushq	%r12
	.cfi_def_cfa_offset 40
	.cfi_offset 12, -40
	movq	%rdx, %r12
	pushq	%rbp
	.cfi_def_cfa_offset 48
	.cfi_offset 6, -48
	movq	%rsi, %rbp
	pushq	%rbx
	.cfi_def_cfa_offset 56
	.cfi_offset 3, -56
	movq	%rdi, %rbx
	movq	%r14, %rdi
	leaq	384(%rbx), %r15
	subq	$72, %rsp
	.cfi_def_cfa_offset 128
	movq	%fs:40, %rax
	movq	%rax, 56(%rsp)
	xorl	%eax, %eax
	leaq	16(%rsp), %r13
	call	_ZN8opendnp315ResponseContext5ResetEv@PLT
	leaq	104(%rbx), %rdi
	call	_ZN8opendnp311EventBuffer8UnselectEv@PLT
	movq	%r15, %rdi
	call	_ZN8opendnp315DatabaseBuffers8UnselectEv@PLT
	leaq	112(%rbx), %rdx
	movq	%r15, %rsi
	movq	%r13, %rdi
	call	_ZN8opendnp311ReadHandlerC1ERNS_15IStaticSelectorERNS_14IEventSelectorE@PLT
	leaq	8(%rbx), %rdx
	movq	%r13, %rsi
	movq	%rbp, %rdi
	movabsq	$35184372088832, %rcx
	call	_ZN8opendnp310APDUParser5ParseERKN7openpal6RSliceERNS_12IAPDUHandlerEPNS1_6LoggerENS_14ParserSettingsE@PLT
	testb	%al, %al
	jne	.L488
	movq	%r14, %rdi
	movq	%r12, %rsi
	call	_ZN8opendnp315ResponseContext12LoadResponseERNS_12HeaderWriterE@PLT
	movq	%r13, %rdi
	movq	%rax, %rdx
	movb	%al, 2(%rsp)
	shrq	$16, %rdx
	movb	%ah, 3(%rsp)
	movb	%dl, 4(%rsp)
	movq	%rax, %rdx
	shrq	$32, %rax
	shrq	$24, %rdx
	movb	%al, 6(%rsp)
	movb	%dl, 5(%rsp)
	call	_ZNK8opendnp312IAPDUHandler6ErrorsEv@PLT
.L492:
	xorl	%edx, %edx
	movzbl	2(%rsp), %ecx
	movb	%al, %dl
	movzbl	%ah, %eax
	movb	%al, %dh
	movzbl	3(%rsp), %eax
	sall	$16, %ecx
	movzwl	%dx, %edx
	sall	$24, %eax
	orl	%ecx, %edx
	orl	%eax, %edx
	movzwl	4(%rsp), %eax
	movl	%edx, 8(%rsp)
	movw	%ax, 12(%rsp)
	movzbl	6(%rsp), %eax
	movzwl	12(%rsp), %ecx
	movb	%al, 14(%rsp)
	movl	8(%rsp), %eax
	movzbl	14(%rsp), %edx
	salq	$32, %rcx
	orq	%rcx, %rax
	salq	$48, %rdx
	orq	%rdx, %rax
	movq	56(%rsp), %rdx
	subq	%fs:40, %rdx
	jne	.L493
	addq	$72, %rsp
	.cfi_remember_state
	.cfi_def_cfa_offset 56
	popq	%rbx
	.cfi_def_cfa_offset 48
	popq	%rbp
	.cfi_def_cfa_offset 40
	popq	%r12
	.cfi_def_cfa_offset 32
	popq	%r13
	.cfi_def_cfa_offset 24
	popq	%r14
	.cfi_def_cfa_offset 16
	popq	%r15
	.cfi_def_cfa_offset 8
	ret
	.p2align 4,,10
	.p2align 3
.L488:
	.cfi_restore_state
	movq	%r14, %rdi
	movl	%eax, %ebp
	call	_ZN8opendnp315ResponseContext5ResetEv@PLT
	leaq	2(%rsp), %rdi
	xorl	%r9d, %r9d
	xorl	%r8d, %r8d
	xorl	%ecx, %ecx
	movl	$1, %edx
	movl	$1, %esi
	call	_ZN8opendnp315AppControlFieldC1Ebbbbh@PLT
	movl	%ebp, %edi
	call	_ZN8opendnp318IINFromParseResultENS_11ParseResultE@PLT
	jmp	.L492
.L493:
	call	__stack_chk_fail@PLT
	.cfi_endproc
.LFE3000:
	.size	_ZN8opendnp38OContext10HandleReadERKN7openpal6RSliceERNS_12HeaderWriterE, .-_ZN8opendnp38OContext10HandleReadERKN7openpal6RSliceERNS_12HeaderWriterE
	.align 2
	.p2align 4
	.globl	_ZN8opendnp38OContext20RespondToReadRequestERKNS_10APDUHeaderERKN7openpal6RSliceE
	.type	_ZN8opendnp38OContext20RespondToReadRequestERKNS_10APDUHeaderERKN7openpal6RSliceE, @function
_ZN8opendnp38OContext20RespondToReadRequestERKNS_10APDUHeaderERKN7openpal6RSliceE:
.LFB2988:
	.cfi_startproc
	endbr64
	pushq	%r14
	.cfi_def_cfa_offset 16
	.cfi_offset 14, -16
	pushq	%r13
	.cfi_def_cfa_offset 24
	.cfi_offset 13, -24
	movq	%rdx, %r13
	pushq	%r12
	.cfi_def_cfa_offset 32
	.cfi_offset 12, -32
	pushq	%rbp
	.cfi_def_cfa_offset 40
	.cfi_offset 6, -40
	movq	%rdi, %rbp
	addq	$744, %rdi
	pushq	%rbx
	.cfi_def_cfa_offset 48
	.cfi_offset 3, -48
	movq	%rsi, %rbx
	subq	$112, %rsp
	.cfi_def_cfa_offset 160
	movq	%fs:40, %rax
	movq	%rax, 104(%rsp)
	xorl	%eax, %eax
	leaq	64(%rsp), %r12
	leaq	32(%rsp), %r14
	call	_ZN8opendnp314RequestHistory26RecordLastProcessedRequestERKNS_10APDUHeaderERKN7openpal6RSliceE@PLT
	leaq	864(%rbp), %rdi
	call	_ZN7openpal6Buffer9GetWSliceEv@PLT
	movq	%r14, %rsi
	movq	%r12, %rdi
	movq	%rdx, 40(%rsp)
	movl	%eax, 32(%rsp)
	call	_ZN8opendnp312APDUResponseC1ERKN7openpal6WSliceE@PLT
	movq	%r12, %rsi
	movq	%r14, %rdi
	call	_ZN8opendnp311APDUWrapper9GetWriterEv@PLT
	movl	$-127, %esi
	movq	%r12, %rdi
	call	_ZN8opendnp311APDUWrapper11SetFunctionENS_12FunctionCodeE@PLT
	movq	%r13, %rsi
	movq	%r14, %rdx
	movq	%rbp, %rdi
	call	_ZN8opendnp38OContext10HandleReadERKN7openpal6RSliceERNS_12HeaderWriterE@PLT
	movzbl	5(%rbx), %esi
	leaq	16(%rsp), %r13
	movq	%rax, %rdi
	movq	%rax, %rdx
	movq	%rax, %rcx
	movb	%al, 9(%rsp)
	shrq	$32, %rdx
	shrq	$16, %rdi
	movb	%ah, 10(%rsp)
	shrq	$16, %rcx
	movb	%dl, 13(%rsp)
	movzbl	%dil, %edi
	movzbl	%dl, %edx
	salq	$16, %rdx
	andl	$65280, %ecx
	shrq	$16, %rax
	movb	%sil, 833(%rbp)
	orq	%rdi, %rcx
	andl	$4278190080, %eax
	salq	$32, %rsi
	movq	%r12, %rdi
	orq	%rcx, %rdx
	orq	%rdx, %rax
	orq	%rax, %rsi
	call	_ZN8opendnp311APDUWrapper10SetControlENS_15AppControlFieldE@PLT
	movq	%rbp, %rdi
	call	_ZN8opendnp38OContext14GetResponseIINEv@PLT
	movzbl	9(%rsp), %ecx
	xorl	%edx, %edx
	movq	%r13, %rsi
	movq	%r12, %rdi
	orl	%eax, %ecx
	movzbl	%ah, %eax
	orb	10(%rsp), %al
	movb	%cl, %dl
	movb	%al, %dh
	movw	%dx, 16(%rsp)
	call	_ZN8opendnp312APDUResponse6SetIINERKNS_8IINFieldE@PLT
	movq	%r12, %rdi
	call	_ZNK8opendnp311APDUWrapper8ToRSliceEv@PLT
	movq	%r12, %rdi
	movq	%rdx, 24(%rsp)
	movl	%eax, 16(%rsp)
	call	_ZNK8opendnp311APDUWrapper10GetControlEv@PLT
	leaq	4(%rsp), %rsi
	movq	%rbp, %rdi
	movq	%rax, %rdx
	movb	%al, 4(%rsp)
	shrq	$16, %rdx
	movb	%ah, 5(%rsp)
	movb	%dl, 6(%rsp)
	movq	%rax, %rdx
	shrq	$32, %rax
	shrq	$24, %rdx
	movb	%al, 8(%rsp)
	movb	%dl, 7(%rsp)
	movq	%r13, %rdx
	call	_ZN8opendnp38OContext15BeginResponseTxERKNS_15AppControlFieldERKN7openpal6RSliceE@PLT
	cmpb	$0, 13(%rsp)
	jne	.L499
	movq	_ZN8opendnp39StateIdle8instanceE@GOTPCREL(%rip), %rax
.L494:
	movq	104(%rsp), %rdx
	subq	%fs:40, %rdx
	jne	.L500
	addq	$112, %rsp
	.cfi_remember_state
	.cfi_def_cfa_offset 48
	popq	%rbx
	.cfi_def_cfa_offset 40
	popq	%rbp
	.cfi_def_cfa_offset 32
	popq	%r12
	.cfi_def_cfa_offset 24
	popq	%r13
	.cfi_def_cfa_offset 16
	popq	%r14
	.cfi_def_cfa_offset 8
	ret
	.p2align 4,,10
	.p2align 3
.L499:
	.cfi_restore_state
	movq	%rbp, %rdi
	call	_ZN8opendnp38OContext19RestartConfirmTimerEv@PLT
	movq	_ZN8opendnp325StateSolicitedConfirmWait8instanceE@GOTPCREL(%rip), %rax
	jmp	.L494
.L500:
	call	__stack_chk_fail@PLT
	.cfi_endproc
.LFE2988:
	.size	_ZN8opendnp38OContext20RespondToReadRequestERKNS_10APDUHeaderERKN7openpal6RSliceE, .-_ZN8opendnp38OContext20RespondToReadRequestERKNS_10APDUHeaderERKN7openpal6RSliceE
	.align 2
	.p2align 4
	.globl	_ZN8opendnp38OContext11HandleWriteERKN7openpal6RSliceE
	.type	_ZN8opendnp38OContext11HandleWriteERKN7openpal6RSliceE, @function
_ZN8opendnp38OContext11HandleWriteERKN7openpal6RSliceE:
.LFB3001:
	.cfi_startproc
	endbr64
	pushq	%r12
	.cfi_def_cfa_offset 16
	.cfi_offset 12, -16
	leaq	722(%rdi), %rdx
	pushq	%rbp
	.cfi_def_cfa_offset 24
	.cfi_offset 6, -24
	movq	%rsi, %rbp
	pushq	%rbx
	.cfi_def_cfa_offset 32
	.cfi_offset 3, -32
	movq	%rdi, %rbx
	subq	$64, %rsp
	.cfi_def_cfa_offset 96
	movq	88(%rdi), %rsi
	movq	%fs:40, %rax
	movq	%rax, 56(%rsp)
	xorl	%eax, %eax
	movq	%rsp, %r12
	movq	%r12, %rdi
	call	_ZN8opendnp312WriteHandlerC1ERNS_22IOutstationApplicationEPNS_8IINFieldE@PLT
	leaq	8(%rbx), %rdx
	movq	%r12, %rsi
	movq	%rbp, %rdi
	movabsq	$35184372088833, %rcx
	call	_ZN8opendnp310APDUParser5ParseERKN7openpal6RSliceERNS_12IAPDUHandlerEPNS1_6LoggerENS_14ParserSettingsE@PLT
	testb	%al, %al
	jne	.L502
	movq	%r12, %rdi
	call	_ZNK8opendnp312IAPDUHandler6ErrorsEv@PLT
.L503:
	movq	56(%rsp), %rdx
	subq	%fs:40, %rdx
	jne	.L506
	addq	$64, %rsp
	.cfi_remember_state
	.cfi_def_cfa_offset 32
	popq	%rbx
	.cfi_def_cfa_offset 24
	popq	%rbp
	.cfi_def_cfa_offset 16
	popq	%r12
	.cfi_def_cfa_offset 8
	ret
	.p2align 4,,10
	.p2align 3
.L502:
	.cfi_restore_state
	movl	%eax, %edi
	call	_ZN8opendnp318IINFromParseResultENS_11ParseResultE@PLT
	jmp	.L503
.L506:
	call	__stack_chk_fail@PLT
	.cfi_endproc
.LFE3001:
	.size	_ZN8opendnp38OContext11HandleWriteERKN7openpal6RSliceE, .-_ZN8opendnp38OContext11HandleWriteERKN7openpal6RSliceE
	.align 2
	.p2align 4
	.globl	_ZN8opendnp38OContext18HandleDelayMeasureERKN7openpal6RSliceERNS_12HeaderWriterE
	.type	_ZN8opendnp38OContext18HandleDelayMeasureERKN7openpal6RSliceERNS_12HeaderWriterE, @function
_ZN8opendnp38OContext18HandleDelayMeasureERKN7openpal6RSliceERNS_12HeaderWriterE:
.LFB3005:
	.cfi_startproc
	endbr64
	pushq	%rbp
	.cfi_def_cfa_offset 16
	.cfi_offset 6, -16
	pushq	%rbx
	.cfi_def_cfa_offset 24
	.cfi_offset 3, -24
	subq	$24, %rsp
	.cfi_def_cfa_offset 48
	movl	(%rsi), %ecx
	movq	%fs:40, %rax
	movq	%rax, 8(%rsp)
	xorl	%eax, %eax
	testl	%ecx, %ecx
	jne	.L508
	leaq	6(%rsp), %rbp
	movq	%rdx, %rbx
	movq	%rbp, %rdi
	call	_ZN8opendnp311Group52Var2C1Ev@PLT
	xorl	%edx, %edx
	movl	$3, %ecx
	movq	%rbx, %rdi
	movw	%dx, 6(%rsp)
	movl	$564, %esi
	movl	$7, %edx
	call	_ZN8opendnp312HeaderWriter22WriteHeaderWithReserveENS_16GroupVariationIDENS_13QualifierCodeEj@PLT
	testb	%al, %al
	jne	.L516
.L509:
	xorl	%eax, %eax
.L510:
	movq	8(%rsp), %rdx
	subq	%fs:40, %rdx
	jne	.L517
	addq	$24, %rsp
	.cfi_remember_state
	.cfi_def_cfa_offset 24
	popq	%rbx
	.cfi_def_cfa_offset 16
	popq	%rbp
	.cfi_def_cfa_offset 8
	ret
	.p2align 4,,10
	.p2align 3
.L508:
	.cfi_restore_state
	xorl	%eax, %eax
	leaq	6(%rsp), %rdi
	movl	$10, %esi
	movw	%ax, 6(%rsp)
	call	_ZN8opendnp38IINField6SetBitENS_6IINBitE@PLT
	movzwl	6(%rsp), %eax
	jmp	.L510
	.p2align 4,,10
	.p2align 3
.L516:
	movq	(%rbx), %rdi
	movl	$1, %esi
	movq	8(%rdi), %rax
	movb	$1, (%rax)
	call	_ZN7openpal6WSlice7AdvanceEj@PLT
	movq	(%rbx), %rsi
	movq	%rbp, %rdi
	call	_ZN8opendnp311Group52Var25WriteERKS0_RN7openpal6WSliceE@PLT
	jmp	.L509
.L517:
	call	__stack_chk_fail@PLT
	.cfi_endproc
.LFE3005:
	.size	_ZN8opendnp38OContext18HandleDelayMeasureERKN7openpal6RSliceERNS_12HeaderWriterE, .-_ZN8opendnp38OContext18HandleDelayMeasureERKN7openpal6RSliceERNS_12HeaderWriterE
	.align 2
	.p2align 4
	.globl	_ZN8opendnp38OContext13HandleRestartERKN7openpal6RSliceEbPNS_12HeaderWriterE
	.type	_ZN8opendnp38OContext13HandleRestartERKN7openpal6RSliceEbPNS_12HeaderWriterE, @function
_ZN8opendnp38OContext13HandleRestartERKN7openpal6RSliceEbPNS_12HeaderWriterE:
.LFB3006:
	.cfi_startproc
	endbr64
	pushq	%r12
	.cfi_def_cfa_offset 16
	.cfi_offset 12, -16
	pushq	%rbp
	.cfi_def_cfa_offset 24
	.cfi_offset 6, -24
	pushq	%rbx
	.cfi_def_cfa_offset 32
	.cfi_offset 3, -32
	subq	$16, %rsp
	.cfi_def_cfa_offset 48
	movl	(%rsi), %esi
	movq	%fs:40, %rax
	movq	%rax, 8(%rsp)
	xorl	%eax, %eax
	testl	%esi, %esi
	jne	.L519
	movq	%rdi, %rbx
	movq	88(%rdi), %rdi
	movq	%rcx, %rbp
	movq	(%rdi), %rax
	testb	%dl, %dl
	jne	.L561
	movq	88(%rax), %rax
	cmpq	_ZNK8opendnp322IOutstationApplication18ColdRestartSupportEv@GOTPCREL(%rip), %rax
	jne	.L562
.L521:
	xorl	%edx, %edx
	leaq	6(%rsp), %rdi
	movl	$8, %esi
	movw	%dx, 6(%rsp)
	call	_ZN8opendnp38IINField6SetBitENS_6IINBitE@PLT
	movzwl	6(%rsp), %eax
.L539:
	movq	8(%rsp), %rdx
	subq	%fs:40, %rdx
	jne	.L563
	addq	$16, %rsp
	.cfi_remember_state
	.cfi_def_cfa_offset 32
	popq	%rbx
	.cfi_def_cfa_offset 24
	popq	%rbp
	.cfi_def_cfa_offset 16
	popq	%r12
	.cfi_def_cfa_offset 8
	ret
	.p2align 4,,10
	.p2align 3
.L561:
	.cfi_restore_state
	movq	96(%rax), %rax
	cmpq	_ZNK8opendnp322IOutstationApplication18WarmRestartSupportEv@GOTPCREL(%rip), %rax
	je	.L521
	call	*%rax
	testb	%al, %al
	je	.L521
	cmpb	$2, %al
	jne	.L564
	movq	88(%rbx), %rdi
	movq	(%rdi), %rax
	movq	112(%rax), %rax
	cmpq	_ZN8opendnp322IOutstationApplication11WarmRestartEv@GOTPCREL(%rip), %rax
	jne	.L559
.L530:
	movl	$-1, %ebx
.L529:
	testq	%rbp, %rbp
	je	.L532
	leaq	6(%rsp), %r12
	movq	%r12, %rdi
	call	_ZN8opendnp311Group52Var1C1Ev@PLT
	movl	$3, %ecx
	movl	$7, %edx
	movq	%rbp, %rdi
	movl	$308, %esi
	movw	%bx, 6(%rsp)
	call	_ZN8opendnp312HeaderWriter22WriteHeaderWithReserveENS_16GroupVariationIDENS_13QualifierCodeEj@PLT
	testb	%al, %al
	jne	.L565
.L532:
	xorl	%eax, %eax
	jmp	.L539
	.p2align 4,,10
	.p2align 3
.L519:
	xorl	%eax, %eax
	leaq	6(%rsp), %rdi
	movl	$10, %esi
	movw	%ax, 6(%rsp)
	call	_ZN8opendnp38IINField6SetBitENS_6IINBitE@PLT
	movzwl	6(%rsp), %eax
	jmp	.L539
.L564:
	movq	88(%rbx), %rdi
	movq	(%rdi), %rax
	movq	112(%rax), %rax
	cmpq	_ZN8opendnp322IOutstationApplication11WarmRestartEv@GOTPCREL(%rip), %rax
	jne	.L560
.L536:
	movl	$-1, %ebx
.L535:
	testq	%rbp, %rbp
	je	.L532
	leaq	6(%rsp), %r12
	movq	%r12, %rdi
	call	_ZN8opendnp311Group52Var2C1Ev@PLT
	movl	$3, %ecx
	movl	$7, %edx
	movq	%rbp, %rdi
	movl	$564, %esi
	movw	%bx, 6(%rsp)
	call	_ZN8opendnp312HeaderWriter22WriteHeaderWithReserveENS_16GroupVariationIDENS_13QualifierCodeEj@PLT
	testb	%al, %al
	je	.L532
	movq	0(%rbp), %rdi
	movl	$1, %esi
	movq	8(%rdi), %rax
	movb	$1, (%rax)
	call	_ZN7openpal6WSlice7AdvanceEj@PLT
	movq	0(%rbp), %rsi
	movq	%r12, %rdi
	call	_ZN8opendnp311Group52Var25WriteERKS0_RN7openpal6WSliceE@PLT
	xorl	%eax, %eax
	jmp	.L539
	.p2align 4,,10
	.p2align 3
.L562:
	call	*%rax
	testb	%al, %al
	je	.L521
	cmpb	$2, %al
	je	.L566
	movq	88(%rbx), %rdi
	movq	(%rdi), %rax
	movq	104(%rax), %rax
	cmpq	_ZN8opendnp322IOutstationApplication11ColdRestartEv@GOTPCREL(%rip), %rax
	je	.L536
.L560:
	call	*%rax
	movl	%eax, %ebx
	jmp	.L535
.L566:
	movq	88(%rbx), %rdi
	movq	(%rdi), %rax
	movq	104(%rax), %rax
	cmpq	_ZN8opendnp322IOutstationApplication11ColdRestartEv@GOTPCREL(%rip), %rax
	je	.L530
.L559:
	call	*%rax
	movl	%eax, %ebx
	jmp	.L529
	.p2align 4,,10
	.p2align 3
.L565:
	movq	0(%rbp), %rdi
	movl	$1, %esi
	movq	8(%rdi), %rax
	movb	$1, (%rax)
	call	_ZN7openpal6WSlice7AdvanceEj@PLT
	movq	0(%rbp), %rsi
	movq	%r12, %rdi
	call	_ZN8opendnp311Group52Var15WriteERKS0_RN7openpal6WSliceE@PLT
	xorl	%eax, %eax
	jmp	.L539
.L563:
	call	__stack_chk_fail@PLT
	.cfi_endproc
.LFE3006:
	.size	_ZN8opendnp38OContext13HandleRestartERKN7openpal6RSliceEbPNS_12HeaderWriterE, .-_ZN8opendnp38OContext13HandleRestartERKN7openpal6RSliceEbPNS_12HeaderWriterE
	.align 2
	.p2align 4
	.globl	_ZN8opendnp38OContext17HandleAssignClassERKN7openpal6RSliceE
	.type	_ZN8opendnp38OContext17HandleAssignClassERKN7openpal6RSliceE, @function
_ZN8opendnp38OContext17HandleAssignClassERKN7openpal6RSliceE:
.LFB3007:
	.cfi_startproc
	endbr64
	pushq	%r12
	.cfi_def_cfa_offset 16
	.cfi_offset 12, -16
	pushq	%rbp
	.cfi_def_cfa_offset 24
	.cfi_offset 6, -24
	pushq	%rbx
	.cfi_def_cfa_offset 32
	.cfi_offset 3, -32
	movq	%rdi, %rbx
	subq	$64, %rsp
	.cfi_def_cfa_offset 96
	movq	88(%rdi), %rdi
	movq	%fs:40, %rax
	movq	%rax, 56(%rsp)
	xorl	%eax, %eax
	movq	(%rdi), %rax
	movq	64(%rax), %rax
	cmpq	_ZN8opendnp322IOutstationApplication19SupportsAssignClassEv@GOTPCREL(%rip), %rax
	jne	.L577
.L568:
	xorl	%eax, %eax
	movq	%rsp, %rdi
	movl	$8, %esi
	movw	%ax, (%rsp)
	call	_ZN8opendnp38IINField6SetBitENS_6IINBitE@PLT
	movzwl	(%rsp), %eax
.L571:
	movq	56(%rsp), %rdx
	subq	%fs:40, %rdx
	jne	.L578
	addq	$64, %rsp
	.cfi_remember_state
	.cfi_def_cfa_offset 32
	popq	%rbx
	.cfi_def_cfa_offset 24
	popq	%rbp
	.cfi_def_cfa_offset 16
	popq	%r12
	.cfi_def_cfa_offset 8
	ret
	.p2align 4,,10
	.p2align 3
.L577:
	.cfi_restore_state
	movq	%rsi, %rbp
	call	*%rax
	testb	%al, %al
	je	.L568
	movq	88(%rbx), %rdx
	movq	40(%rbx), %rsi
	movq	%rsp, %r12
	leaq	400(%rbx), %rcx
	movq	%r12, %rdi
	call	_ZN8opendnp318AssignClassHandlerC1ERN7openpal9IExecutorERNS_22IOutstationApplicationERNS_14IClassAssignerE@PLT
	movq	%rbp, %rdi
	leaq	8(%rbx), %rdx
	movq	%r12, %rsi
	movabsq	$35184372088832, %rcx
	call	_ZN8opendnp310APDUParser5ParseERKN7openpal6RSliceERNS_12IAPDUHandlerEPNS1_6LoggerENS_14ParserSettingsE@PLT
	movl	%eax, %edi
	testb	%al, %al
	jne	.L569
	movq	%r12, %rdi
	call	_ZNK8opendnp312IAPDUHandler6ErrorsEv@PLT
	jmp	.L571
	.p2align 4,,10
	.p2align 3
.L569:
	call	_ZN8opendnp318IINFromParseResultENS_11ParseResultE@PLT
	jmp	.L571
.L578:
	call	__stack_chk_fail@PLT
	.cfi_endproc
.LFE3007:
	.size	_ZN8opendnp38OContext17HandleAssignClassERKN7openpal6RSliceE, .-_ZN8opendnp38OContext17HandleAssignClassERKN7openpal6RSliceE
	.align 2
	.p2align 4
	.globl	_ZN8opendnp38OContext24HandleDisableUnsolicitedERKN7openpal6RSliceERNS_12HeaderWriterE
	.type	_ZN8opendnp38OContext24HandleDisableUnsolicitedERKN7openpal6RSliceERNS_12HeaderWriterE, @function
_ZN8opendnp38OContext24HandleDisableUnsolicitedERKN7openpal6RSliceERNS_12HeaderWriterE:
.LFB3008:
	.cfi_startproc
	endbr64
	pushq	%r12
	.cfi_def_cfa_offset 16
	.cfi_offset 12, -16
	pushq	%rbp
	.cfi_def_cfa_offset 24
	.cfi_offset 6, -24
	movq	%rsi, %rbp
	pushq	%rbx
	.cfi_def_cfa_offset 32
	.cfi_offset 3, -32
	movq	%rdi, %rbx
	subq	$48, %rsp
	.cfi_def_cfa_offset 80
	movq	%fs:40, %rax
	movq	%rax, 40(%rsp)
	xorl	%eax, %eax
	leaq	16(%rsp), %r12
	movq	%r12, %rdi
	call	_ZN8opendnp312IAPDUHandlerC2Ev@PLT
	movq	_ZTVN8opendnp324ClassBasedRequestHandlerE@GOTPCREL(%rip), %rax
	leaq	36(%rsp), %rdi
	addq	$16, %rax
	movq	%rax, 16(%rsp)
	call	_ZN8opendnp310ClassFieldC1Ev@PLT
	leaq	8(%rbx), %rdx
	movq	%r12, %rsi
	movq	%rbp, %rdi
	movabsq	$35184372088833, %rcx
	call	_ZN8opendnp310APDUParser5ParseERKN7openpal6RSliceERNS_12IAPDUHandlerEPNS1_6LoggerENS_14ParserSettingsE@PLT
	testb	%al, %al
	jne	.L580
	movzbl	36(%rsp), %eax
	leaq	716(%rbx), %rdi
	leaq	15(%rsp), %rsi
	movb	%al, 15(%rsp)
	call	_ZN8opendnp310ClassField5ClearERKS0_@PLT
	movq	%r12, %rdi
	call	_ZNK8opendnp312IAPDUHandler6ErrorsEv@PLT
.L581:
	movq	40(%rsp), %rdx
	subq	%fs:40, %rdx
	jne	.L584
	addq	$48, %rsp
	.cfi_remember_state
	.cfi_def_cfa_offset 32
	popq	%rbx
	.cfi_def_cfa_offset 24
	popq	%rbp
	.cfi_def_cfa_offset 16
	popq	%r12
	.cfi_def_cfa_offset 8
	ret
	.p2align 4,,10
	.p2align 3
.L580:
	.cfi_restore_state
	movl	%eax, %edi
	call	_ZN8opendnp318IINFromParseResultENS_11ParseResultE@PLT
	jmp	.L581
.L584:
	call	__stack_chk_fail@PLT
	.cfi_endproc
.LFE3008:
	.size	_ZN8opendnp38OContext24HandleDisableUnsolicitedERKN7openpal6RSliceERNS_12HeaderWriterE, .-_ZN8opendnp38OContext24HandleDisableUnsolicitedERKN7openpal6RSliceERNS_12HeaderWriterE
	.align 2
	.p2align 4
	.globl	_ZN8opendnp38OContext23HandleEnableUnsolicitedERKN7openpal6RSliceERNS_12HeaderWriterE
	.type	_ZN8opendnp38OContext23HandleEnableUnsolicitedERKN7openpal6RSliceERNS_12HeaderWriterE, @function
_ZN8opendnp38OContext23HandleEnableUnsolicitedERKN7openpal6RSliceERNS_12HeaderWriterE:
.LFB3009:
	.cfi_startproc
	endbr64
	pushq	%r12
	.cfi_def_cfa_offset 16
	.cfi_offset 12, -16
	pushq	%rbp
	.cfi_def_cfa_offset 24
	.cfi_offset 6, -24
	movq	%rsi, %rbp
	pushq	%rbx
	.cfi_def_cfa_offset 32
	.cfi_offset 3, -32
	movq	%rdi, %rbx
	subq	$48, %rsp
	.cfi_def_cfa_offset 80
	movq	%fs:40, %rax
	movq	%rax, 40(%rsp)
	xorl	%eax, %eax
	leaq	16(%rsp), %r12
	movq	%r12, %rdi
	call	_ZN8opendnp312IAPDUHandlerC2Ev@PLT
	movq	_ZTVN8opendnp324ClassBasedRequestHandlerE@GOTPCREL(%rip), %rax
	leaq	36(%rsp), %rdi
	addq	$16, %rax
	movq	%rax, 16(%rsp)
	call	_ZN8opendnp310ClassFieldC1Ev@PLT
	leaq	8(%rbx), %rdx
	movq	%r12, %rsi
	movq	%rbp, %rdi
	movabsq	$35184372088833, %rcx
	call	_ZN8opendnp310APDUParser5ParseERKN7openpal6RSliceERNS_12IAPDUHandlerEPNS1_6LoggerENS_14ParserSettingsE@PLT
	testb	%al, %al
	jne	.L586
	movzbl	36(%rsp), %eax
	leaq	716(%rbx), %rdi
	leaq	15(%rsp), %rsi
	movb	%al, 15(%rsp)
	call	_ZN8opendnp310ClassField3SetERKS0_@PLT
	movq	%r12, %rdi
	call	_ZNK8opendnp312IAPDUHandler6ErrorsEv@PLT
.L587:
	movq	40(%rsp), %rdx
	subq	%fs:40, %rdx
	jne	.L590
	addq	$48, %rsp
	.cfi_remember_state
	.cfi_def_cfa_offset 32
	popq	%rbx
	.cfi_def_cfa_offset 24
	popq	%rbp
	.cfi_def_cfa_offset 16
	popq	%r12
	.cfi_def_cfa_offset 8
	ret
	.p2align 4,,10
	.p2align 3
.L586:
	.cfi_restore_state
	movl	%eax, %edi
	call	_ZN8opendnp318IINFromParseResultENS_11ParseResultE@PLT
	jmp	.L587
.L590:
	call	__stack_chk_fail@PLT
	.cfi_endproc
.LFE3009:
	.size	_ZN8opendnp38OContext23HandleEnableUnsolicitedERKN7openpal6RSliceERNS_12HeaderWriterE, .-_ZN8opendnp38OContext23HandleEnableUnsolicitedERKN7openpal6RSliceERNS_12HeaderWriterE
	.align 2
	.p2align 4
	.globl	_ZN8opendnp38OContext25HandleCommandWithConstantERKN7openpal6RSliceERNS_12HeaderWriterENS_13CommandStatusE
	.type	_ZN8opendnp38OContext25HandleCommandWithConstantERKN7openpal6RSliceERNS_12HeaderWriterENS_13CommandStatusE, @function
_ZN8opendnp38OContext25HandleCommandWithConstantERKN7openpal6RSliceERNS_12HeaderWriterENS_13CommandStatusE:
.LFB3010:
	.cfi_startproc
	endbr64
	pushq	%r12
	.cfi_def_cfa_offset 16
	.cfi_offset 12, -16
	movq	%rdx, %r8
	pushq	%rbp
	.cfi_def_cfa_offset 24
	.cfi_offset 6, -24
	movq	%rsi, %rbp
	pushq	%rbx
	.cfi_def_cfa_offset 32
	.cfi_offset 3, -32
	movq	%rdi, %rbx
	subq	$80, %rsp
	.cfi_def_cfa_offset 112
	movzbl	665(%rdi), %esi
	movq	%fs:40, %rax
	movq	%rax, 72(%rsp)
	movq	_ZTVN8opendnp321ConstantCommandActionE@GOTPCREL(%rip), %rax
	leaq	16(%rsp), %r12
	movb	%cl, 8(%rsp)
	movq	%rsp, %rdx
	movq	%r8, %rcx
	movq	%r12, %rdi
	addq	$16, %rax
	movq	%rax, (%rsp)
	call	_ZN8opendnp322CommandResponseHandlerC1EhPNS_14ICommandActionEPNS_12HeaderWriterE@PLT
	leaq	8(%rbx), %rdx
	movq	%rbp, %rdi
	movq	%r12, %rsi
	movabsq	$35184372088833, %rcx
	call	_ZN8opendnp310APDUParser5ParseERKN7openpal6RSliceERNS_12IAPDUHandlerEPNS1_6LoggerENS_14ParserSettingsE@PLT
	movl	%eax, %edi
	call	_ZN8opendnp318IINFromParseResultENS_11ParseResultE@PLT
	movq	72(%rsp), %rdx
	subq	%fs:40, %rdx
	jne	.L594
	addq	$80, %rsp
	.cfi_remember_state
	.cfi_def_cfa_offset 32
	popq	%rbx
	.cfi_def_cfa_offset 24
	popq	%rbp
	.cfi_def_cfa_offset 16
	popq	%r12
	.cfi_def_cfa_offset 8
	ret
.L594:
	.cfi_restore_state
	call	__stack_chk_fail@PLT
	.cfi_endproc
.LFE3010:
	.size	_ZN8opendnp38OContext25HandleCommandWithConstantERKN7openpal6RSliceERNS_12HeaderWriterENS_13CommandStatusE, .-_ZN8opendnp38OContext25HandleCommandWithConstantERKN7openpal6RSliceERNS_12HeaderWriterENS_13CommandStatusE
	.section	.text._ZNSt16_Sp_counted_baseILN9__gnu_cxx12_Lock_policyE2EE10_M_releaseEv,"axG",@progbits,_ZNSt16_Sp_counted_baseILN9__gnu_cxx12_Lock_policyE2EE10_M_releaseEv,comdat
	.align 2
	.p2align 4
	.weak	_ZNSt16_Sp_counted_baseILN9__gnu_cxx12_Lock_policyE2EE10_M_releaseEv
	.type	_ZNSt16_Sp_counted_baseILN9__gnu_cxx12_Lock_policyE2EE10_M_releaseEv, @function
_ZNSt16_Sp_counted_baseILN9__gnu_cxx12_Lock_policyE2EE10_M_releaseEv:
.LFB3373:
	.cfi_startproc
	endbr64
	pushq	%rbp
	.cfi_def_cfa_offset 16
	.cfi_offset 6, -16
	movq	%rdi, %rbp
	pushq	%rbx
	.cfi_def_cfa_offset 24
	.cfi_offset 3, -24
	subq	$8, %rsp
	.cfi_def_cfa_offset 32
	movq	__libc_single_threaded@GOTPCREL(%rip), %rbx
	cmpb	$0, (%rbx)
	je	.L596
	movl	8(%rdi), %eax
	leal	-1(%rax), %edx
	movl	%edx, 8(%rdi)
.L597:
	cmpl	$1, %eax
	je	.L604
.L595:
	addq	$8, %rsp
	.cfi_remember_state
	.cfi_def_cfa_offset 24
	popq	%rbx
	.cfi_def_cfa_offset 16
	popq	%rbp
	.cfi_def_cfa_offset 8
	ret
	.p2align 4,,10
	.p2align 3
.L604:
	.cfi_restore_state
	movq	0(%rbp), %rax
	movq	%rbp, %rdi
	call	*16(%rax)
	cmpb	$0, (%rbx)
	je	.L600
	movl	12(%rbp), %eax
	leal	-1(%rax), %edx
	movl	%edx, 12(%rbp)
.L601:
	cmpl	$1, %eax
	jne	.L595
	movq	0(%rbp), %rax
	movq	%rbp, %rdi
	movq	24(%rax), %rax
	addq	$8, %rsp
	.cfi_remember_state
	.cfi_def_cfa_offset 24
	popq	%rbx
	.cfi_def_cfa_offset 16
	popq	%rbp
	.cfi_def_cfa_offset 8
	jmp	*%rax
	.p2align 4,,10
	.p2align 3
.L596:
	.cfi_restore_state
	movl	$-1, %eax
	lock xaddl	%eax, 8(%rdi)
	jmp	.L597
	.p2align 4,,10
	.p2align 3
.L600:
	movl	$-1, %eax
	lock xaddl	%eax, 12(%rbp)
	jmp	.L601
	.cfi_endproc
.LFE3373:
	.size	_ZNSt16_Sp_counted_baseILN9__gnu_cxx12_Lock_policyE2EE10_M_releaseEv, .-_ZNSt16_Sp_counted_baseILN9__gnu_cxx12_Lock_policyE2EE10_M_releaseEv
	.section	.text.unlikely
	.align 2
.LCOLDB8:
	.text
.LHOTB8:
	.align 2
	.p2align 4
	.globl	_ZN8opendnp38OContextC2ERKNS_16OutstationConfigERKNS_13DatabaseSizesERKN7openpal6LoggerERKSt10shared_ptrINS7_9IExecutorEERKSB_INS_11ILowerLayerEERKSB_INS_15ICommandHandlerEERKSB_INS_22IOutstationApplicationEE
	.type	_ZN8opendnp38OContextC2ERKNS_16OutstationConfigERKNS_13DatabaseSizesERKN7openpal6LoggerERKSt10shared_ptrINS7_9IExecutorEERKSB_INS_11ILowerLayerEERKSB_INS_15ICommandHandlerEERKSB_INS_22IOutstationApplicationEE, @function
_ZN8opendnp38OContextC2ERKNS_16OutstationConfigERKNS_13DatabaseSizesERKN7openpal6LoggerERKSt10shared_ptrINS7_9IExecutorEERKSB_INS_11ILowerLayerEERKSB_INS_15ICommandHandlerEERKSB_INS_22IOutstationApplicationEE:
.LFB2967:
	.cfi_startproc
	.cfi_personality 0x9b,DW.ref.__gxx_personality_v0
	.cfi_lsda 0x1b,.LLSDA2967
	endbr64
	pushq	%r15
	.cfi_def_cfa_offset 16
	.cfi_offset 15, -16
	movq	%rcx, %rax
	pushq	%r14
	.cfi_def_cfa_offset 24
	.cfi_offset 14, -24
	pushq	%r13
	.cfi_def_cfa_offset 32
	.cfi_offset 13, -32
	movq	%rdx, %r13
	pushq	%r12
	.cfi_def_cfa_offset 40
	.cfi_offset 12, -40
	movq	%r8, %r12
	pushq	%rbp
	.cfi_def_cfa_offset 48
	.cfi_offset 6, -48
	movq	%rsi, %rbp
	pushq	%rbx
	.cfi_def_cfa_offset 56
	.cfi_offset 3, -56
	movq	%rdi, %rbx
	subq	$56, %rsp
	.cfi_def_cfa_offset 112
	movq	_ZTVN8opendnp311EventBufferE@GOTPCREL(%rip), %rdx
	movq	_ZTVN8opendnp315DatabaseBuffersE@GOTPCREL(%rip), %r14
	leaq	160(%rdx), %rcx
	leaq	16(%rdx), %rsi
	movq	%rcx, %xmm3
	leaq	224(%rdx), %rcx
	movq	%rsi, %xmm0
	addq	$192, %rdx
	movq	%rdx, %xmm1
	leaq	88(%r14), %rdx
	movq	%rcx, %xmm4
	movq	%rdx, %xmm5
	movq	_ZTVN8opendnp38OContextE@GOTPCREL(%rip), %rdx
	leaq	16(%r14), %rcx
	punpcklqdq	%xmm3, %xmm0
	movq	%rcx, %xmm2
	punpcklqdq	%xmm4, %xmm1
	movaps	%xmm0, 32(%rsp)
	addq	$16, %rdx
	punpcklqdq	%xmm5, %xmm2
	movaps	%xmm1, 16(%rsp)
	movq	%rdx, (%rdi)
	movq	(%rax), %rdx
	movaps	%xmm2, (%rsp)
	movq	%rdx, 8(%rdi)
	movq	8(%rax), %rdx
	movq	%rdx, 16(%rdi)
	testq	%rdx, %rdx
	je	.L606
	movq	__libc_single_threaded@GOTPCREL(%rip), %rcx
	cmpb	$0, (%rcx)
	je	.L607
	addl	$1, 8(%rdx)
.L606:
	movdqu	16(%rax), %xmm6
	movups	%xmm6, 24(%rbx)
	movq	32(%rbx), %rax
	testq	%rax, %rax
	je	.L608
	movq	__libc_single_threaded@GOTPCREL(%rip), %rdx
	cmpb	$0, (%rdx)
	je	.L609
	addl	$1, 8(%rax)
.L608:
	movdqu	(%r12), %xmm7
	movq	8(%r12), %rax
	movups	%xmm7, 40(%rbx)
	testq	%rax, %rax
	je	.L610
	movq	__libc_single_threaded@GOTPCREL(%rip), %rdx
	cmpb	$0, (%rdx)
	je	.L611
	addl	$1, 8(%rax)
.L610:
	movdqu	(%r9), %xmm3
	movups	%xmm3, 56(%rbx)
	movq	64(%rbx), %rax
	testq	%rax, %rax
	je	.L612
	movq	__libc_single_threaded@GOTPCREL(%rip), %rdx
	cmpb	$0, (%rdx)
	je	.L613
	addl	$1, 8(%rax)
.L612:
	movq	112(%rsp), %rax
	movdqu	(%rax), %xmm4
	movups	%xmm4, 72(%rbx)
	movq	80(%rbx), %rax
	testq	%rax, %rax
	je	.L614
	movq	__libc_single_threaded@GOTPCREL(%rip), %rdx
	cmpb	$0, (%rdx)
	je	.L615
	addl	$1, 8(%rax)
.L614:
	movq	120(%rsp), %rax
	movdqu	(%rax), %xmm5
	movups	%xmm5, 88(%rbx)
	movq	96(%rbx), %rax
	testq	%rax, %rax
	je	.L616
	movq	__libc_single_threaded@GOTPCREL(%rip), %rdx
	cmpb	$0, (%rdx)
	je	.L617
	addl	$1, 8(%rax)
.L616:
	leaq	104(%rbx), %r15
	leaq	56(%rbp), %rsi
	movq	%r15, %rdi
.LEHB5:
	call	_ZN8opendnp311EventBufferC1ERKNS_17EventBufferConfigE@PLT
.LEHE5:
	movzwl	50(%rbp), %r8d
	movzbl	0(%rbp), %ecx
	movq	%r15, %rdx
	movq	%r13, %rsi
	leaq	360(%rbx), %rdi
.LEHB6:
	call	_ZN8opendnp38DatabaseC1ERKNS_13DatabaseSizesERNS_14IEventReceiverENS_9IndexModeENS_18StaticTypeBitFieldE@PLT
.LEHE6:
	leaq	120(%rbx), %rdx
	leaq	392(%rbx), %rsi
	leaq	640(%rbx), %rdi
.LEHB7:
	call	_ZN8opendnp315ResponseContextC1ERNS_15IResponseLoaderES2_@PLT
	movq	48(%rbp), %rax
	movdqu	0(%rbp), %xmm6
	leaq	722(%rbx), %rdi
	movl	$7, %esi
	movdqu	16(%rbp), %xmm7
	movdqu	32(%rbp), %xmm3
	movl	$0, 720(%rbx)
	movq	%rax, 712(%rbx)
	movups	%xmm6, 664(%rbx)
	movups	%xmm7, 680(%rbx)
	movups	%xmm3, 696(%rbx)
	call	_ZN8opendnp38IINField6SetBitENS_6IINBitE@PLT
	leaq	728(%rbx), %r13
	movq	(%r12), %rsi
	movq	%r13, %rdi
	call	_ZN7openpal8TimerRefC1ERNS_9IExecutorE@PLT
.LEHE7:
	leaq	744(%rbx), %rdi
.LEHB8:
	call	_ZN8opendnp314RequestHistoryC1Ev@PLT
	movl	44(%rbp), %esi
	leaq	760(%rbx), %rdi
	call	_ZN8opendnp315DeferredRequestC1Ej@PLT
.LEHE8:
	movb	$0, 808(%rbx)
	leaq	816(%rbx), %rdi
.LEHB9:
	call	_ZN7openpal18MonotonicTimestampC1Ev@PLT
	xorl	%edx, %edx
	xorl	%ecx, %ecx
	movl	40(%rbp), %r12d
	leaq	840(%rbx), %rdi
	movw	%dx, 824(%rbx)
	movl	$0, 828(%rbx)
	movw	%cx, 832(%rbx)
	call	_ZN7openpal6RSliceC1Ev@PLT
	leaq	856(%rbx), %rdi
	call	_ZN8opendnp315AppControlFieldC1Ev@PLT
	leaq	864(%rbx), %rdi
	movl	%r12d, %esi
	call	_ZN7openpal6BufferC1Ej@PLT
.LEHE9:
	xorl	%eax, %eax
	movl	40(%rbp), %ebp
	movb	$0, 890(%rbx)
	leaq	896(%rbx), %rdi
	movw	%ax, 888(%rbx)
.LEHB10:
	call	_ZN7openpal6RSliceC1Ev@PLT
	leaq	912(%rbx), %rdi
	call	_ZN8opendnp315AppControlFieldC1Ev@PLT
	leaq	920(%rbx), %rdi
	movl	%ebp, %esi
	call	_ZN7openpal6BufferC1Ej@PLT
.LEHE10:
	movq	_ZN8opendnp39StateIdle8instanceE@GOTPCREL(%rip), %rax
	movq	%rax, 944(%rbx)
	addq	$56, %rsp
	.cfi_remember_state
	.cfi_def_cfa_offset 56
	popq	%rbx
	.cfi_def_cfa_offset 48
	popq	%rbp
	.cfi_def_cfa_offset 40
	popq	%r12
	.cfi_def_cfa_offset 32
	popq	%r13
	.cfi_def_cfa_offset 24
	popq	%r14
	.cfi_def_cfa_offset 16
	popq	%r15
	.cfi_def_cfa_offset 8
	ret
	.p2align 4,,10
	.p2align 3
.L615:
	.cfi_restore_state
	lock addl	$1, 8(%rax)
	jmp	.L614
	.p2align 4,,10
	.p2align 3
.L613:
	lock addl	$1, 8(%rax)
	jmp	.L612
	.p2align 4,,10
	.p2align 3
.L611:
	lock addl	$1, 8(%rax)
	jmp	.L610
	.p2align 4,,10
	.p2align 3
.L609:
	lock addl	$1, 8(%rax)
	jmp	.L608
	.p2align 4,,10
	.p2align 3
.L607:
	lock addl	$1, 8(%rdx)
	jmp	.L606
	.p2align 4,,10
	.p2align 3
.L617:
	lock addl	$1, 8(%rax)
	jmp	.L616
.L643:
	endbr64
	movq	_ZTVN7openpal5ArrayIhjEE@GOTPCREL(%rip), %r12
	movq	%rax, %rbp
	jmp	.L620
.L642:
	endbr64
	movq	%rax, %rbp
	jmp	.L622
.L644:
	endbr64
	movq	%rax, %rbp
	jmp	.L618
.L639:
	endbr64
	movq	%rax, %rbp
	jmp	.L634
.L641:
	endbr64
	movq	%rax, %rbp
	jmp	.L623
.L640:
	endbr64
	movq	%rax, %rbp
	jmp	.L632
	.section	.gcc_except_table
.LLSDA2967:
	.byte	0xff
	.byte	0xff
	.byte	0x1
	.uleb128 .LLSDACSE2967-.LLSDACSB2967
.LLSDACSB2967:
	.uleb128 .LEHB5-.LFB2967
	.uleb128 .LEHE5-.LEHB5
	.uleb128 .L639-.LFB2967
	.uleb128 0
	.uleb128 .LEHB6-.LFB2967
	.uleb128 .LEHE6-.LEHB6
	.uleb128 .L640-.LFB2967
	.uleb128 0
	.uleb128 .LEHB7-.LFB2967
	.uleb128 .LEHE7-.LEHB7
	.uleb128 .L641-.LFB2967
	.uleb128 0
	.uleb128 .LEHB8-.LFB2967
	.uleb128 .LEHE8-.LEHB8
	.uleb128 .L642-.LFB2967
	.uleb128 0
	.uleb128 .LEHB9-.LFB2967
	.uleb128 .LEHE9-.LEHB9
	.uleb128 .L643-.LFB2967
	.uleb128 0
	.uleb128 .LEHB10-.LFB2967
	.uleb128 .LEHE10-.LEHB10
	.uleb128 .L644-.LFB2967
	.uleb128 0
.LLSDACSE2967:
	.text
	.cfi_endproc
	.section	.text.unlikely
	.cfi_startproc
	.cfi_personality 0x9b,DW.ref.__gxx_personality_v0
	.cfi_lsda 0x1b,.LLSDAC2967
	.type	_ZN8opendnp38OContextC2ERKNS_16OutstationConfigERKNS_13DatabaseSizesERKN7openpal6LoggerERKSt10shared_ptrINS7_9IExecutorEERKSB_INS_11ILowerLayerEERKSB_INS_15ICommandHandlerEERKSB_INS_22IOutstationApplicationEE.cold, @function
_ZN8opendnp38OContextC2ERKNS_16OutstationConfigERKNS_13DatabaseSizesERKN7openpal6LoggerERKSt10shared_ptrINS7_9IExecutorEERKSB_INS_11ILowerLayerEERKSB_INS_15ICommandHandlerEERKSB_INS_22IOutstationApplicationEE.cold:
.LFSB2967:
.L618:
	.cfi_def_cfa_offset 112
	.cfi_offset 3, -56
	.cfi_offset 6, -48
	.cfi_offset 12, -40
	.cfi_offset 13, -32
	.cfi_offset 14, -24
	.cfi_offset 15, -16
	movq	_ZTVN7openpal5ArrayIhjEE@GOTPCREL(%rip), %r12
	movq	880(%rbx), %rdi
	leaq	16(%r12), %rax
	movq	%rax, 864(%rbx)
	testq	%rdi, %rdi
	je	.L620
	call	_ZdaPv@PLT
.L620:
	movq	800(%rbx), %rdi
	leaq	16(%r12), %rax
	movq	%rax, 784(%rbx)
	testq	%rdi, %rdi
	jne	.L710
.L622:
	movq	%r13, %rdi
	call	_ZN7openpal8TimerRefD1Ev@PLT
.L623:
	movq	_ZTVN8opendnp38DatabaseE@GOTPCREL(%rip), %rax
	movdqa	(%rsp), %xmm4
	movq	592(%rbx), %rdi
	addq	$16, %rax
	movups	%xmm4, 384(%rbx)
	movq	%rax, 360(%rbx)
	leaq	120(%r14), %rax
	movq	%rax, 400(%rbx)
	movq	_ZTVN7openpal5ArrayIN8opendnp34CellINS1_19TimeAndIntervalSpecEEEtEE@GOTPCREL(%rip), %rax
	addq	$16, %rax
	movq	%rax, 576(%rbx)
	testq	%rdi, %rdi
	je	.L624
	call	_ZdaPv@PLT
.L624:
	movq	_ZTVN7openpal5ArrayIN8opendnp34CellINS1_22AnalogOutputStatusSpecEEEtEE@GOTPCREL(%rip), %rax
	movq	568(%rbx), %rdi
	addq	$16, %rax
	movq	%rax, 552(%rbx)
	testq	%rdi, %rdi
	je	.L625
	call	_ZdaPv@PLT
.L625:
	movq	_ZTVN7openpal5ArrayIN8opendnp34CellINS1_22BinaryOutputStatusSpecEEEtEE@GOTPCREL(%rip), %rax
	movq	544(%rbx), %rdi
	addq	$16, %rax
	movq	%rax, 528(%rbx)
	testq	%rdi, %rdi
	je	.L626
	call	_ZdaPv@PLT
.L626:
	movq	_ZTVN7openpal5ArrayIN8opendnp34CellINS1_17FrozenCounterSpecEEEtEE@GOTPCREL(%rip), %rax
	movq	520(%rbx), %rdi
	addq	$16, %rax
	movq	%rax, 504(%rbx)
	testq	%rdi, %rdi
	je	.L627
	call	_ZdaPv@PLT
.L627:
	movq	_ZTVN7openpal5ArrayIN8opendnp34CellINS1_11CounterSpecEEEtEE@GOTPCREL(%rip), %rax
	movq	496(%rbx), %rdi
	addq	$16, %rax
	movq	%rax, 480(%rbx)
	testq	%rdi, %rdi
	je	.L628
	call	_ZdaPv@PLT
.L628:
	movq	_ZTVN7openpal5ArrayIN8opendnp34CellINS1_10AnalogSpecEEEtEE@GOTPCREL(%rip), %rax
	movq	472(%rbx), %rdi
	addq	$16, %rax
	movq	%rax, 456(%rbx)
	testq	%rdi, %rdi
	je	.L629
	call	_ZdaPv@PLT
.L629:
	movq	_ZTVN7openpal5ArrayIN8opendnp34CellINS1_19DoubleBitBinarySpecEEEtEE@GOTPCREL(%rip), %rax
	movq	448(%rbx), %rdi
	addq	$16, %rax
	movq	%rax, 432(%rbx)
	testq	%rdi, %rdi
	je	.L630
	call	_ZdaPv@PLT
.L630:
	movq	_ZTVN7openpal5ArrayIN8opendnp34CellINS1_10BinarySpecEEEtEE@GOTPCREL(%rip), %rax
	movq	424(%rbx), %rdi
	addq	$16, %rax
	movq	%rax, 408(%rbx)
	testq	%rdi, %rdi
	je	.L632
	call	_ZdaPv@PLT
.L632:
	movq	_ZTVN7openpal5ArrayINS_8ListNodeIN8opendnp39SOERecordEEEjEE@GOTPCREL(%rip), %rax
	movdqa	32(%rsp), %xmm5
	movdqa	16(%rsp), %xmm6
	movq	208(%rbx), %rdi
	addq	$16, %rax
	movups	%xmm5, 104(%rbx)
	movq	%rax, 192(%rbx)
	movups	%xmm6, 120(%rbx)
	testq	%rdi, %rdi
	je	.L634
	call	_ZdaPv@PLT
.L634:
	movq	96(%rbx), %rdi
	testq	%rdi, %rdi
	je	.L635
	call	_ZNSt16_Sp_counted_baseILN9__gnu_cxx12_Lock_policyE2EE10_M_releaseEv@PLT
.L635:
	movq	80(%rbx), %rdi
	testq	%rdi, %rdi
	je	.L636
	call	_ZNSt16_Sp_counted_baseILN9__gnu_cxx12_Lock_policyE2EE10_M_releaseEv@PLT
.L636:
	movq	64(%rbx), %rdi
	testq	%rdi, %rdi
	je	.L637
	call	_ZNSt16_Sp_counted_baseILN9__gnu_cxx12_Lock_policyE2EE10_M_releaseEv@PLT
.L637:
	movq	48(%rbx), %rdi
	testq	%rdi, %rdi
	je	.L638
	call	_ZNSt16_Sp_counted_baseILN9__gnu_cxx12_Lock_policyE2EE10_M_releaseEv@PLT
.L638:
	leaq	8(%rbx), %rdi
	call	_ZN7openpal6LoggerD1Ev@PLT
	movq	%rbp, %rdi
.LEHB11:
	call	_Unwind_Resume@PLT
.LEHE11:
.L710:
	call	_ZdaPv@PLT
	jmp	.L622
	.cfi_endproc
.LFE2967:
	.section	.gcc_except_table
.LLSDAC2967:
	.byte	0xff
	.byte	0xff
	.byte	0x1
	.uleb128 .LLSDACSEC2967-.LLSDACSBC2967
.LLSDACSBC2967:
	.uleb128 .LEHB11-.LCOLDB8
	.uleb128 .LEHE11-.LEHB11
	.uleb128 0
	.uleb128 0
.LLSDACSEC2967:
	.section	.text.unlikely
	.text
	.size	_ZN8opendnp38OContextC2ERKNS_16OutstationConfigERKNS_13DatabaseSizesERKN7openpal6LoggerERKSt10shared_ptrINS7_9IExecutorEERKSB_INS_11ILowerLayerEERKSB_INS_15ICommandHandlerEERKSB_INS_22IOutstationApplicationEE, .-_ZN8opendnp38OContextC2ERKNS_16OutstationConfigERKNS_13DatabaseSizesERKN7openpal6LoggerERKSt10shared_ptrINS7_9IExecutorEERKSB_INS_11ILowerLayerEERKSB_INS_15ICommandHandlerEERKSB_INS_22IOutstationApplicationEE
	.section	.text.unlikely
	.size	_ZN8opendnp38OContextC2ERKNS_16OutstationConfigERKNS_13DatabaseSizesERKN7openpal6LoggerERKSt10shared_ptrINS7_9IExecutorEERKSB_INS_11ILowerLayerEERKSB_INS_15ICommandHandlerEERKSB_INS_22IOutstationApplicationEE.cold, .-_ZN8opendnp38OContextC2ERKNS_16OutstationConfigERKNS_13DatabaseSizesERKN7openpal6LoggerERKSt10shared_ptrINS7_9IExecutorEERKSB_INS_11ILowerLayerEERKSB_INS_15ICommandHandlerEERKSB_INS_22IOutstationApplicationEE.cold
.LCOLDE8:
	.text
.LHOTE8:
	.globl	_ZN8opendnp38OContextC1ERKNS_16OutstationConfigERKNS_13DatabaseSizesERKN7openpal6LoggerERKSt10shared_ptrINS7_9IExecutorEERKSB_INS_11ILowerLayerEERKSB_INS_15ICommandHandlerEERKSB_INS_22IOutstationApplicationEE
	.set	_ZN8opendnp38OContextC1ERKNS_16OutstationConfigERKNS_13DatabaseSizesERKN7openpal6LoggerERKSt10shared_ptrINS7_9IExecutorEERKSB_INS_11ILowerLayerEERKSB_INS_15ICommandHandlerEERKSB_INS_22IOutstationApplicationEE,_ZN8opendnp38OContextC2ERKNS_16OutstationConfigERKNS_13DatabaseSizesERKN7openpal6LoggerERKSt10shared_ptrINS7_9IExecutorEERKSB_INS_11ILowerLayerEERKSB_INS_15ICommandHandlerEERKSB_INS_22IOutstationApplicationEE
	.section	.text.startup,"ax",@progbits
	.p2align 4
	.type	_GLOBAL__sub_I_OutstationContext.cpp, @function
_GLOBAL__sub_I_OutstationContext.cpp:
.LFB3972:
	.cfi_startproc
	endbr64
	subq	$8, %rsp
	.cfi_def_cfa_offset 16
	movl	$5000, %edi
	call	_ZN7openpal12TimeDuration12MillisecondsEl@PLT
	movq	_ZGVN7openpal7Bit16LEItE3MaxE@GOTPCREL(%rip), %rax
	cmpb	$0, (%rax)
	je	.L714
.L711:
	addq	$8, %rsp
	.cfi_remember_state
	.cfi_def_cfa_offset 8
	ret
.L714:
	.cfi_restore_state
	movb	$1, (%rax)
	call	_ZN7openpal8MaxValueItEET_v@PLT
	movq	_ZN7openpal7Bit16LEItE3MaxE@GOTPCREL(%rip), %rdx
	movw	%ax, (%rdx)
	jmp	.L711
	.cfi_endproc
.LFE3972:
	.size	_GLOBAL__sub_I_OutstationContext.cpp, .-_GLOBAL__sub_I_OutstationContext.cpp
	.section	.init_array,"aw"
	.align 8
	.quad	_GLOBAL__sub_I_OutstationContext.cpp
	.section	.rodata.str1.8
	.align 8
.LC9:
	.string	"Igonring command request due to oversized payload size of %u"
	.align 8
.LC10:
	.string	"/home/saptarshi/Desktop/OpenPLC61850/utils/dnp3_src/cpp/libs/src/opendnp3/outstation/OutstationContext.cpp(556)"
	.section	.text.unlikely
	.align 2
.LCOLDB11:
	.text
.LHOTB11:
	.align 2
	.p2align 4
	.globl	_ZN8opendnp38OContext19HandleDirectOperateERKN7openpal6RSliceENS_11OperateTypeEPNS_12HeaderWriterE
	.type	_ZN8opendnp38OContext19HandleDirectOperateERKN7openpal6RSliceENS_11OperateTypeEPNS_12HeaderWriterE, @function
_ZN8opendnp38OContext19HandleDirectOperateERKN7openpal6RSliceENS_11OperateTypeEPNS_12HeaderWriterE:
.LFB3002:
	.cfi_startproc
	.cfi_personality 0x9b,DW.ref.__gxx_personality_v0
	.cfi_lsda 0x1b,.LLSDA3002
	endbr64
	pushq	%r14
	.cfi_def_cfa_offset 16
	.cfi_offset 14, -16
	pushq	%r13
	.cfi_def_cfa_offset 24
	.cfi_offset 13, -24
	movl	%edx, %r13d
	pushq	%r12
	.cfi_def_cfa_offset 32
	.cfi_offset 12, -32
	movq	%rcx, %r12
	pushq	%rbp
	.cfi_def_cfa_offset 40
	.cfi_offset 6, -40
	movq	%rsi, %rbp
	pushq	%rbx
	.cfi_def_cfa_offset 48
	.cfi_offset 3, -48
	movq	%rdi, %rbx
	subq	$224, %rsp
	.cfi_def_cfa_offset 272
	movq	%fs:40, %rax
	movq	%rax, 216(%rsp)
	xorl	%eax, %eax
	testq	%rcx, %rcx
	je	.L716
	movl	(%rsi), %r14d
	movq	%rcx, %rdi
.LEHB12:
	call	_ZNK8opendnp312HeaderWriter9RemainingEv@PLT
	cmpl	%eax, %r14d
	ja	.L733
.L716:
	movq	72(%rbx), %rsi
	movq	%rsp, %r14
	movl	%r13d, %ecx
	xorl	%edx, %edx
	movq	%r14, %rdi
	leaq	32(%rsp), %r13
	call	_ZN8opendnp320CommandActionAdapterC1EPNS_15ICommandHandlerEbNS_11OperateTypeE@PLT
.LEHE12:
	movq	%r12, %rcx
	movq	%r14, %rdx
	movq	%r13, %rdi
	movzbl	665(%rbx), %esi
.LEHB13:
	call	_ZN8opendnp322CommandResponseHandlerC1EhPNS_14ICommandActionEPNS_12HeaderWriterE@PLT
	leaq	8(%rbx), %rdx
	movq	%r13, %rsi
	movq	%rbp, %rdi
	movabsq	$35184372088833, %rcx
	call	_ZN8opendnp310APDUParser5ParseERKN7openpal6RSliceERNS_12IAPDUHandlerEPNS1_6LoggerENS_14ParserSettingsE@PLT
	movl	%eax, %edi
	testb	%al, %al
	je	.L734
	call	_ZN8opendnp318IINFromParseResultENS_11ParseResultE@PLT
.L732:
	movq	%r14, %rdi
	movl	%eax, %r12d
	call	_ZN8opendnp320CommandActionAdapterD1Ev@PLT
.L720:
	movq	216(%rsp), %rax
	subq	%fs:40, %rax
	jne	.L735
	addq	$224, %rsp
	.cfi_remember_state
	.cfi_def_cfa_offset 48
	movl	%r12d, %eax
	popq	%rbx
	.cfi_def_cfa_offset 40
	popq	%rbp
	.cfi_def_cfa_offset 32
	popq	%r12
	.cfi_def_cfa_offset 24
	popq	%r13
	.cfi_def_cfa_offset 16
	popq	%r14
	.cfi_def_cfa_offset 8
	ret
	.p2align 4,,10
	.p2align 3
.L734:
	.cfi_restore_state
	movq	%r13, %rdi
	call	_ZNK8opendnp312IAPDUHandler6ErrorsEv@PLT
.LEHE13:
	jmp	.L732
	.p2align 4,,10
	.p2align 3
.L733:
	leaq	8(%rbx), %r12
	leaq	32(%rsp), %r13
	movl	$4, 32(%rsp)
	movq	%r13, %rsi
	movq	%r12, %rdi
.LEHB14:
	call	_ZNK7openpal6Logger9IsEnabledERKNS_10LogFiltersE@PLT
	testb	%al, %al
	jne	.L736
.L718:
	xorl	%eax, %eax
	movl	$10, %esi
	movq	%r13, %rdi
	movw	%ax, 32(%rsp)
	call	_ZN8opendnp38IINField6SetBitENS_6IINBitE@PLT
	movzwl	32(%rsp), %r12d
	jmp	.L720
	.p2align 4,,10
	.p2align 3
.L736:
	leaq	96(%rsp), %r14
	movl	0(%rbp), %r9d
	movl	$120, %ecx
	xorl	%eax, %eax
	movq	%r14, %rdi
	movl	$1, %edx
	movl	$120, %esi
	leaq	.LC9(%rip), %r8
	call	__snprintf_chk@PLT
	movq	%r14, %rcx
	movq	%r13, %rsi
	movq	%r12, %rdi
	leaq	.LC10(%rip), %rdx
	movl	$4, 32(%rsp)
	call	_ZN7openpal6Logger3LogERKNS_10LogFiltersEPKcS5_@PLT
.LEHE14:
	jmp	.L718
.L735:
	call	__stack_chk_fail@PLT
.L725:
	endbr64
	movq	%rax, %rbp
	jmp	.L723
	.section	.gcc_except_table
.LLSDA3002:
	.byte	0xff
	.byte	0xff
	.byte	0x1
	.uleb128 .LLSDACSE3002-.LLSDACSB3002
.LLSDACSB3002:
	.uleb128 .LEHB12-.LFB3002
	.uleb128 .LEHE12-.LEHB12
	.uleb128 0
	.uleb128 0
	.uleb128 .LEHB13-.LFB3002
	.uleb128 .LEHE13-.LEHB13
	.uleb128 .L725-.LFB3002
	.uleb128 0
	.uleb128 .LEHB14-.LFB3002
	.uleb128 .LEHE14-.LEHB14
	.uleb128 0
	.uleb128 0
.LLSDACSE3002:
	.text
	.cfi_endproc
	.section	.text.unlikely
	.cfi_startproc
	.cfi_personality 0x9b,DW.ref.__gxx_personality_v0
	.cfi_lsda 0x1b,.LLSDAC3002
	.type	_ZN8opendnp38OContext19HandleDirectOperateERKN7openpal6RSliceENS_11OperateTypeEPNS_12HeaderWriterE.cold, @function
_ZN8opendnp38OContext19HandleDirectOperateERKN7openpal6RSliceENS_11OperateTypeEPNS_12HeaderWriterE.cold:
.LFSB3002:
.L723:
	.cfi_def_cfa_offset 272
	.cfi_offset 3, -48
	.cfi_offset 6, -40
	.cfi_offset 12, -32
	.cfi_offset 13, -24
	.cfi_offset 14, -16
	movq	%r14, %rdi
	call	_ZN8opendnp320CommandActionAdapterD1Ev@PLT
	movq	%rbp, %rdi
.LEHB15:
	call	_Unwind_Resume@PLT
.LEHE15:
	.cfi_endproc
.LFE3002:
	.section	.gcc_except_table
.LLSDAC3002:
	.byte	0xff
	.byte	0xff
	.byte	0x1
	.uleb128 .LLSDACSEC3002-.LLSDACSBC3002
.LLSDACSBC3002:
	.uleb128 .LEHB15-.LCOLDB11
	.uleb128 .LEHE15-.LEHB15
	.uleb128 0
	.uleb128 0
.LLSDACSEC3002:
	.section	.text.unlikely
	.text
	.size	_ZN8opendnp38OContext19HandleDirectOperateERKN7openpal6RSliceENS_11OperateTypeEPNS_12HeaderWriterE, .-_ZN8opendnp38OContext19HandleDirectOperateERKN7openpal6RSliceENS_11OperateTypeEPNS_12HeaderWriterE
	.section	.text.unlikely
	.size	_ZN8opendnp38OContext19HandleDirectOperateERKN7openpal6RSliceENS_11OperateTypeEPNS_12HeaderWriterE.cold, .-_ZN8opendnp38OContext19HandleDirectOperateERKN7openpal6RSliceENS_11OperateTypeEPNS_12HeaderWriterE.cold
.LCOLDE11:
	.text
.LHOTE11:
	.section	.rodata.str1.1
.LC12:
	.string	"Ignoring NR function code: %s"
	.section	.rodata.str1.8
	.align 8
.LC13:
	.string	"/home/saptarshi/Desktop/OpenPLC61850/utils/dnp3_src/cpp/libs/src/opendnp3/outstation/OutstationContext.cpp(490)"
	.text
	.align 2
	.p2align 4
	.globl	_ZN8opendnp38OContext19ProcessRequestNoAckERKNS_10APDUHeaderERKN7openpal6RSliceE
	.type	_ZN8opendnp38OContext19ProcessRequestNoAckERKNS_10APDUHeaderERKN7openpal6RSliceE, @function
_ZN8opendnp38OContext19ProcessRequestNoAckERKNS_10APDUHeaderERKN7openpal6RSliceE:
.LFB2998:
	.cfi_startproc
	endbr64
	pushq	%r13
	.cfi_def_cfa_offset 16
	.cfi_offset 13, -16
	pushq	%r12
	.cfi_def_cfa_offset 24
	.cfi_offset 12, -24
	pushq	%rbp
	.cfi_def_cfa_offset 32
	.cfi_offset 6, -32
	pushq	%rbx
	.cfi_def_cfa_offset 40
	.cfi_offset 3, -40
	movq	%rsi, %rbx
	subq	$152, %rsp
	.cfi_def_cfa_offset 192
	movq	%fs:40, %rax
	movq	%rax, 136(%rsp)
	xorl	%eax, %eax
	cmpb	$6, (%rsi)
	je	.L747
	leaq	8(%rdi), %rbp
	leaq	12(%rsp), %r12
	movl	$4, 12(%rsp)
	movq	%r12, %rsi
	movq	%rbp, %rdi
	call	_ZNK7openpal6Logger9IsEnabledERKNS_10LogFiltersE@PLT
	testb	%al, %al
	jne	.L748
.L737:
	movq	136(%rsp), %rax
	subq	%fs:40, %rax
	jne	.L746
	addq	$152, %rsp
	.cfi_remember_state
	.cfi_def_cfa_offset 40
	popq	%rbx
	.cfi_def_cfa_offset 32
	popq	%rbp
	.cfi_def_cfa_offset 24
	popq	%r12
	.cfi_def_cfa_offset 16
	popq	%r13
	.cfi_def_cfa_offset 8
	ret
	.p2align 4,,10
	.p2align 3
.L748:
	.cfi_restore_state
	movzbl	(%rbx), %edi
	leaq	16(%rsp), %r13
	call	_ZN8opendnp320FunctionCodeToStringENS_12FunctionCodeE@PLT
	movq	%r13, %rdi
	movl	$120, %ecx
	leaq	.LC12(%rip), %r8
	movq	%rax, %r9
	movl	$1, %edx
	movl	$120, %esi
	xorl	%eax, %eax
	call	__snprintf_chk@PLT
	movq	%r13, %rcx
	movq	%r12, %rsi
	movq	%rbp, %rdi
	leaq	.LC13(%rip), %rdx
	movl	$4, 12(%rsp)
	call	_ZN7openpal6Logger3LogERKNS_10LogFiltersEPKcS5_@PLT
	jmp	.L737
	.p2align 4,,10
	.p2align 3
.L747:
	movq	136(%rsp), %rax
	subq	%fs:40, %rax
	jne	.L746
	addq	$152, %rsp
	.cfi_remember_state
	.cfi_def_cfa_offset 40
	movq	%rdx, %rsi
	xorl	%ecx, %ecx
	movl	$2, %edx
	popq	%rbx
	.cfi_def_cfa_offset 32
	popq	%rbp
	.cfi_def_cfa_offset 24
	popq	%r12
	.cfi_def_cfa_offset 16
	popq	%r13
	.cfi_def_cfa_offset 8
	jmp	_ZN8opendnp38OContext19HandleDirectOperateERKN7openpal6RSliceENS_11OperateTypeEPNS_12HeaderWriterE@PLT
.L746:
	.cfi_restore_state
	call	__stack_chk_fail@PLT
	.cfi_endproc
.LFE2998:
	.size	_ZN8opendnp38OContext19ProcessRequestNoAckERKNS_10APDUHeaderERKN7openpal6RSliceE, .-_ZN8opendnp38OContext19ProcessRequestNoAckERKNS_10APDUHeaderERKN7openpal6RSliceE
	.align 2
	.p2align 4
	.globl	_ZN8opendnp38OContext11ProcessAPDUERKN7openpal6RSliceERKNS_10APDUHeaderES4_
	.type	_ZN8opendnp38OContext11ProcessAPDUERKN7openpal6RSliceERKNS_10APDUHeaderES4_, @function
_ZN8opendnp38OContext11ProcessAPDUERKN7openpal6RSliceERKNS_10APDUHeaderES4_:
.LFB2975:
	.cfi_startproc
	endbr64
	pushq	%r13
	.cfi_def_cfa_offset 16
	.cfi_offset 13, -16
	movq	%rcx, %r13
	pushq	%r12
	.cfi_def_cfa_offset 24
	.cfi_offset 12, -24
	movq	%rdi, %r12
	pushq	%rbp
	.cfi_def_cfa_offset 32
	.cfi_offset 6, -32
	movzbl	(%rdx), %edi
	movq	%rdx, %rbp
	call	_ZN8opendnp39Functions15IsNoAckFuncCodeENS_12FunctionCodeE@PLT
	testb	%al, %al
	jne	.L754
	cmpb	$0, 721(%r12)
	jne	.L755
	cmpb	$0, 0(%rbp)
	jne	.L752
	movq	%rbp, %rsi
	movq	%r12, %rdi
	popq	%rbp
	.cfi_remember_state
	.cfi_def_cfa_offset 24
	popq	%r12
	.cfi_def_cfa_offset 16
	popq	%r13
	.cfi_def_cfa_offset 8
	jmp	_ZN8opendnp38OContext14ProcessConfirmERKNS_10APDUHeaderE@PLT
	.p2align 4,,10
	.p2align 3
.L755:
	.cfi_restore_state
	movzbl	1(%rbp), %esi
	movzbl	0(%rbp), %eax
	leaq	760(%r12), %rdi
	movl	0(%r13), %edx
	movq	8(%r13), %rcx
	salq	$8, %rsi
	orq	%rax, %rsi
	movzbl	2(%rbp), %eax
	salq	$16, %rax
	orq	%rsi, %rax
	movzbl	3(%rbp), %esi
	salq	$24, %rsi
	orq	%rax, %rsi
	movzbl	4(%rbp), %eax
	salq	$32, %rax
	orq	%rsi, %rax
	movzbl	5(%rbp), %esi
	popq	%rbp
	.cfi_remember_state
	.cfi_def_cfa_offset 24
	popq	%r12
	.cfi_def_cfa_offset 16
	popq	%r13
	.cfi_def_cfa_offset 8
	salq	$40, %rsi
	orq	%rax, %rsi
	jmp	_ZN8opendnp315DeferredRequest3SetENS_10APDUHeaderEN7openpal6RSliceE@PLT
	.p2align 4,,10
	.p2align 3
.L754:
	.cfi_restore_state
	movq	%r13, %rdx
	movq	%rbp, %rsi
	movq	%r12, %rdi
	popq	%rbp
	.cfi_remember_state
	.cfi_def_cfa_offset 24
	popq	%r12
	.cfi_def_cfa_offset 16
	popq	%r13
	.cfi_def_cfa_offset 8
	jmp	_ZN8opendnp38OContext19ProcessRequestNoAckERKNS_10APDUHeaderERKN7openpal6RSliceE@PLT
	.p2align 4,,10
	.p2align 3
.L752:
	.cfi_restore_state
	movq	%r13, %rdx
	movq	%rbp, %rsi
	movq	%r12, %rdi
	popq	%rbp
	.cfi_def_cfa_offset 24
	popq	%r12
	.cfi_def_cfa_offset 16
	popq	%r13
	.cfi_def_cfa_offset 8
	jmp	_ZN8opendnp38OContext14ProcessRequestERKNS_10APDUHeaderERKN7openpal6RSliceE@PLT
	.cfi_endproc
.LFE2975:
	.size	_ZN8opendnp38OContext11ProcessAPDUERKN7openpal6RSliceERKNS_10APDUHeaderES4_, .-_ZN8opendnp38OContext11ProcessAPDUERKN7openpal6RSliceERKNS_10APDUHeaderES4_
	.section	.rodata.str1.8
	.align 8
.LC14:
	.string	"FIR: %i FIN: %i CON: %i UNS: %i SEQ: %i FUNC: %s"
	.align 8
.LC15:
	.string	"/home/saptarshi/Desktop/OpenPLC61850/utils/dnp3_src/cpp/libs/src/opendnp3/outstation/OutstationContext.cpp(437)"
	.align 8
.LC16:
	.string	"Ignoring fragment. Request must be FIR/FIN/!CON"
	.align 8
.LC17:
	.string	"/home/saptarshi/Desktop/OpenPLC61850/utils/dnp3_src/cpp/libs/src/opendnp3/outstation/OutstationContext.cpp(449)"
	.text
	.align 2
	.p2align 4
	.globl	_ZN8opendnp38OContext11ParseHeaderERKN7openpal6RSliceE
	.type	_ZN8opendnp38OContext11ParseHeaderERKN7openpal6RSliceE, @function
_ZN8opendnp38OContext11ParseHeaderERKN7openpal6RSliceE:
.LFB2993:
	.cfi_startproc
	endbr64
	pushq	%r15
	.cfi_def_cfa_offset 16
	.cfi_offset 15, -16
	pushq	%r14
	.cfi_def_cfa_offset 24
	.cfi_offset 14, -24
	pushq	%r13
	.cfi_def_cfa_offset 32
	.cfi_offset 13, -32
	movq	%rdi, %r13
	pushq	%r12
	.cfi_def_cfa_offset 40
	.cfi_offset 12, -40
	movq	%rsi, %r12
	pushq	%rbp
	.cfi_def_cfa_offset 48
	.cfi_offset 6, -48
	leaq	8(%rdi), %rbp
	pushq	%rbx
	.cfi_def_cfa_offset 56
	.cfi_offset 3, -56
	movq	%rbp, %rdi
	subq	$168, %rsp
	.cfi_def_cfa_offset 224
	movq	%fs:40, %rax
	movq	%rax, 152(%rsp)
	xorl	%eax, %eax
	leaq	16(%rsp), %r14
	movl	$32768, 16(%rsp)
	movq	%r14, %rsi
	call	_ZNK7openpal6Logger9IsEnabledERKNS_10LogFiltersE@PLT
	testb	%al, %al
	jne	.L775
.L757:
	leaq	11(%rsp), %rdi
	xorl	%r9d, %r9d
	xorl	%r8d, %r8d
	xorl	%ecx, %ecx
	movl	$1, %edx
	movl	$1, %esi
	leaq	10(%rsp), %r15
	movb	$-1, 10(%rsp)
	call	_ZN8opendnp315AppControlFieldC1Ebbbbh@PLT
	movq	%rbp, %rdx
	movq	%r15, %rsi
	movq	%r12, %rdi
	call	_ZN8opendnp316APDUHeaderParser12ParseRequestERKN7openpal6RSliceERNS_10APDUHeaderEPNS1_6LoggerE@PLT
	testb	%al, %al
	jne	.L776
.L756:
	movq	152(%rsp), %rax
	subq	%fs:40, %rax
	jne	.L777
	addq	$168, %rsp
	.cfi_remember_state
	.cfi_def_cfa_offset 56
	popq	%rbx
	.cfi_def_cfa_offset 48
	popq	%rbp
	.cfi_def_cfa_offset 40
	popq	%r12
	.cfi_def_cfa_offset 32
	popq	%r13
	.cfi_def_cfa_offset 24
	popq	%r14
	.cfi_def_cfa_offset 16
	popq	%r15
	.cfi_def_cfa_offset 8
	ret
	.p2align 4,,10
	.p2align 3
.L776:
	.cfi_restore_state
	movq	%r14, %rsi
	movq	%rbp, %rdi
	movl	$2048, 16(%rsp)
	call	_ZNK7openpal6Logger9IsEnabledERKNS_10LogFiltersE@PLT
	testb	%al, %al
	jne	.L778
.L760:
	cmpb	$0, 11(%rsp)
	je	.L761
	cmpb	$0, 12(%rsp)
	je	.L761
	cmpb	$0, 13(%rsp)
	jne	.L761
	movq	%r12, %rdi
	movl	$2, %esi
	call	_ZNK7openpal6RSlice4SkipEj@PLT
	movq	%r14, %rcx
	movq	%r12, %rsi
	movq	%r13, %rdi
	movq	%rdx, 24(%rsp)
	movq	%r15, %rdx
	movl	%eax, 16(%rsp)
	call	_ZN8opendnp38OContext11ProcessAPDUERKN7openpal6RSliceERKNS_10APDUHeaderES4_@PLT
	jmp	.L756
	.p2align 4,,10
	.p2align 3
.L761:
	movq	%r14, %rsi
	movq	%rbp, %rdi
	movl	$4, 16(%rsp)
	call	_ZNK7openpal6Logger9IsEnabledERKNS_10LogFiltersE@PLT
	testb	%al, %al
	je	.L756
	leaq	.LC16(%rip), %rcx
	leaq	.LC17(%rip), %rdx
	movq	%r14, %rsi
	movq	%rbp, %rdi
	movl	$4, 16(%rsp)
	call	_ZN7openpal6Logger3LogERKNS_10LogFiltersEPKcS5_@PLT
	jmp	.L756
	.p2align 4,,10
	.p2align 3
.L775:
	movl	$18, %r8d
	movq	%r12, %rdx
	movq	%r14, %rsi
	movq	%rbp, %rdi
	movl	$18, %ecx
	movl	$32768, 16(%rsp)
	call	_ZN7openpal6LogHexERNS_6LoggerERKNS_10LogFiltersERKNS_6RSliceEjj@PLT
	jmp	.L757
	.p2align 4,,10
	.p2align 3
.L778:
	movzbl	10(%rsp), %edi
	leaq	32(%rsp), %rbx
	call	_ZN8opendnp320FunctionCodeToStringENS_12FunctionCodeE@PLT
	subq	$8, %rsp
	.cfi_def_cfa_offset 232
	movq	%rbx, %rdi
	leaq	.LC14(%rip), %r8
	pushq	%rax
	.cfi_def_cfa_offset 240
	movzbl	31(%rsp), %eax
	movl	$120, %ecx
	movl	$1, %edx
	movl	$120, %esi
	pushq	%rax
	.cfi_def_cfa_offset 248
	movzbl	38(%rsp), %eax
	pushq	%rax
	.cfi_def_cfa_offset 256
	movzbl	45(%rsp), %eax
	pushq	%rax
	.cfi_def_cfa_offset 264
	movzbl	52(%rsp), %eax
	pushq	%rax
	.cfi_def_cfa_offset 272
	movzbl	59(%rsp), %r9d
	xorl	%eax, %eax
	call	__snprintf_chk@PLT
	movq	%rbx, %rcx
	movq	%r14, %rsi
	movq	%rbp, %rdi
	movl	$2048, 64(%rsp)
	leaq	.LC15(%rip), %rdx
	addq	$48, %rsp
	.cfi_def_cfa_offset 224
	call	_ZN7openpal6Logger3LogERKNS_10LogFiltersEPKcS5_@PLT
	jmp	.L760
.L777:
	call	__stack_chk_fail@PLT
	.cfi_endproc
.LFE2993:
	.size	_ZN8opendnp38OContext11ParseHeaderERKN7openpal6RSliceE, .-_ZN8opendnp38OContext11ParseHeaderERKN7openpal6RSliceE
	.section	.rodata.str1.8
	.align 8
.LC18:
	.string	"ignoring received data while offline"
	.align 8
.LC19:
	.string	"/home/saptarshi/Desktop/OpenPLC61850/utils/dnp3_src/cpp/libs/src/opendnp3/outstation/OutstationContext.cpp(132)"
	.text
	.align 2
	.p2align 4
	.globl	_ZN8opendnp38OContext9OnReceiveERKN7openpal6RSliceE
	.type	_ZN8opendnp38OContext9OnReceiveERKN7openpal6RSliceE, @function
_ZN8opendnp38OContext9OnReceiveERKN7openpal6RSliceE:
.LFB2972:
	.cfi_startproc
	endbr64
	pushq	%r13
	.cfi_def_cfa_offset 16
	.cfi_offset 13, -16
	pushq	%r12
	.cfi_def_cfa_offset 24
	.cfi_offset 12, -24
	pushq	%rbp
	.cfi_def_cfa_offset 32
	.cfi_offset 6, -32
	movq	%rdi, %rbp
	subq	$16, %rsp
	.cfi_def_cfa_offset 48
	movzbl	720(%rdi), %r12d
	movq	%fs:40, %rax
	movq	%rax, 8(%rsp)
	xorl	%eax, %eax
	testb	%r12b, %r12b
	je	.L788
	call	_ZN8opendnp38OContext11ParseHeaderERKN7openpal6RSliceE@PLT
	movq	%rbp, %rdi
	call	_ZN8opendnp38OContext17CheckForTaskStartEv@PLT
.L779:
	movq	8(%rsp), %rax
	subq	%fs:40, %rax
	jne	.L789
	addq	$16, %rsp
	.cfi_remember_state
	.cfi_def_cfa_offset 32
	movl	%r12d, %eax
	popq	%rbp
	.cfi_def_cfa_offset 24
	popq	%r12
	.cfi_def_cfa_offset 16
	popq	%r13
	.cfi_def_cfa_offset 8
	ret
	.p2align 4,,10
	.p2align 3
.L788:
	.cfi_restore_state
	addq	$8, %rbp
	leaq	4(%rsp), %r13
	movl	$2, 4(%rsp)
	movq	%r13, %rsi
	movq	%rbp, %rdi
	call	_ZNK7openpal6Logger9IsEnabledERKNS_10LogFiltersE@PLT
	testb	%al, %al
	je	.L779
	leaq	.LC18(%rip), %rcx
	leaq	.LC19(%rip), %rdx
	movq	%r13, %rsi
	movq	%rbp, %rdi
	movl	$2, 4(%rsp)
	call	_ZN7openpal6Logger3LogERKNS_10LogFiltersEPKcS5_@PLT
	jmp	.L779
.L789:
	call	__stack_chk_fail@PLT
	.cfi_endproc
.LFE2972:
	.size	_ZN8opendnp38OContext9OnReceiveERKN7openpal6RSliceE, .-_ZN8opendnp38OContext9OnReceiveERKN7openpal6RSliceE
	.section	.rodata.str1.8
	.align 8
.LC20:
	.string	"Igonring command request due to oversized payload size of %i"
	.align 8
.LC21:
	.string	"/home/saptarshi/Desktop/OpenPLC61850/utils/dnp3_src/cpp/libs/src/opendnp3/outstation/OutstationContext.cpp(573)"
	.section	.text.unlikely
	.align 2
.LCOLDB22:
	.text
.LHOTB22:
	.align 2
	.p2align 4
	.globl	_ZN8opendnp38OContext12HandleSelectERKN7openpal6RSliceERNS_12HeaderWriterE
	.type	_ZN8opendnp38OContext12HandleSelectERKN7openpal6RSliceERNS_12HeaderWriterE, @function
_ZN8opendnp38OContext12HandleSelectERKN7openpal6RSliceERNS_12HeaderWriterE:
.LFB3003:
	.cfi_startproc
	.cfi_personality 0x9b,DW.ref.__gxx_personality_v0
	.cfi_lsda 0x1b,.LLSDA3003
	endbr64
	pushq	%r14
	.cfi_def_cfa_offset 16
	.cfi_offset 14, -16
	pushq	%r13
	.cfi_def_cfa_offset 24
	.cfi_offset 13, -24
	pushq	%r12
	.cfi_def_cfa_offset 32
	.cfi_offset 12, -32
	movq	%rdx, %r12
	pushq	%rbp
	.cfi_def_cfa_offset 40
	.cfi_offset 6, -40
	movq	%rsi, %rbp
	pushq	%rbx
	.cfi_def_cfa_offset 48
	.cfi_offset 3, -48
	movq	%rdi, %rbx
	movq	%rdx, %rdi
	subq	$224, %rsp
	.cfi_def_cfa_offset 272
	movl	(%rsi), %r13d
	movq	%fs:40, %rax
	movq	%rax, 216(%rsp)
	xorl	%eax, %eax
.LEHB16:
	call	_ZNK8opendnp312HeaderWriter9RemainingEv@PLT
	cmpl	%r13d, %eax
	jnb	.L791
	leaq	8(%rbx), %r12
	leaq	32(%rsp), %r13
	movl	$4, 32(%rsp)
	movq	%r13, %rsi
	movq	%r12, %rdi
	call	_ZNK7openpal6Logger9IsEnabledERKNS_10LogFiltersE@PLT
	testb	%al, %al
	jne	.L806
.L792:
	xorl	%eax, %eax
	movl	$10, %esi
	movq	%r13, %rdi
	movw	%ax, 32(%rsp)
	call	_ZN8opendnp38IINField6SetBitENS_6IINBitE@PLT
	movzwl	32(%rsp), %r12d
.L793:
	movq	216(%rsp), %rax
	subq	%fs:40, %rax
	jne	.L807
	addq	$224, %rsp
	.cfi_remember_state
	.cfi_def_cfa_offset 48
	movl	%r12d, %eax
	popq	%rbx
	.cfi_def_cfa_offset 40
	popq	%rbp
	.cfi_def_cfa_offset 32
	popq	%r12
	.cfi_def_cfa_offset 24
	popq	%r13
	.cfi_def_cfa_offset 16
	popq	%r14
	.cfi_def_cfa_offset 8
	ret
	.p2align 4,,10
	.p2align 3
.L791:
	.cfi_restore_state
	movq	72(%rbx), %rsi
	movq	%rsp, %r14
	movl	$1, %ecx
	movl	$1, %edx
	movq	%r14, %rdi
	leaq	32(%rsp), %r13
	call	_ZN8opendnp320CommandActionAdapterC1EPNS_15ICommandHandlerEbNS_11OperateTypeE@PLT
.LEHE16:
	movq	%r12, %rcx
	movq	%r14, %rdx
	movq	%r13, %rdi
	movzbl	665(%rbx), %esi
.LEHB17:
	call	_ZN8opendnp322CommandResponseHandlerC1EhPNS_14ICommandActionEPNS_12HeaderWriterE@PLT
	leaq	8(%rbx), %rdx
	movq	%r13, %rsi
	movq	%rbp, %rdi
	movabsq	$35184372088833, %rcx
	call	_ZN8opendnp310APDUParser5ParseERKN7openpal6RSliceERNS_12IAPDUHandlerEPNS1_6LoggerENS_14ParserSettingsE@PLT
	testb	%al, %al
	jne	.L794
	movl	68(%rsp), %eax
	cmpl	%eax, 64(%rsp)
	jne	.L795
	movq	40(%rbx), %rdi
	movq	(%rdi), %rax
	call	*16(%rax)
	movq	%rax, 816(%rbx)
	movzbl	832(%rbx), %eax
	movq	%rbp, %rdi
	addl	$1, %eax
	andl	$15, %eax
	movb	%al, 808(%rbx)
	call	_ZN8opendnp33CRC7CalcCrcERKN7openpal6RSliceE@PLT
	movw	%ax, 824(%rbx)
	movl	0(%rbp), %eax
	movl	%eax, 828(%rbx)
.L795:
	movq	%r13, %rdi
	call	_ZNK8opendnp312IAPDUHandler6ErrorsEv@PLT
.L805:
	movq	%r14, %rdi
	movl	%eax, %r12d
	call	_ZN8opendnp320CommandActionAdapterD1Ev@PLT
	jmp	.L793
	.p2align 4,,10
	.p2align 3
.L794:
	movl	%eax, %edi
	call	_ZN8opendnp318IINFromParseResultENS_11ParseResultE@PLT
.LEHE17:
	jmp	.L805
	.p2align 4,,10
	.p2align 3
.L806:
	leaq	96(%rsp), %r14
	movl	0(%rbp), %r9d
	movl	$120, %ecx
	xorl	%eax, %eax
	movq	%r14, %rdi
	movl	$1, %edx
	movl	$120, %esi
	leaq	.LC20(%rip), %r8
	call	__snprintf_chk@PLT
	movq	%r14, %rcx
	movq	%r13, %rsi
	movq	%r12, %rdi
	leaq	.LC21(%rip), %rdx
	movl	$4, 32(%rsp)
.LEHB18:
	call	_ZN7openpal6Logger3LogERKNS_10LogFiltersEPKcS5_@PLT
.LEHE18:
	jmp	.L792
.L807:
	call	__stack_chk_fail@PLT
.L799:
	endbr64
	movq	%rax, %rbp
	jmp	.L797
	.section	.gcc_except_table
.LLSDA3003:
	.byte	0xff
	.byte	0xff
	.byte	0x1
	.uleb128 .LLSDACSE3003-.LLSDACSB3003
.LLSDACSB3003:
	.uleb128 .LEHB16-.LFB3003
	.uleb128 .LEHE16-.LEHB16
	.uleb128 0
	.uleb128 0
	.uleb128 .LEHB17-.LFB3003
	.uleb128 .LEHE17-.LEHB17
	.uleb128 .L799-.LFB3003
	.uleb128 0
	.uleb128 .LEHB18-.LFB3003
	.uleb128 .LEHE18-.LEHB18
	.uleb128 0
	.uleb128 0
.LLSDACSE3003:
	.text
	.cfi_endproc
	.section	.text.unlikely
	.cfi_startproc
	.cfi_personality 0x9b,DW.ref.__gxx_personality_v0
	.cfi_lsda 0x1b,.LLSDAC3003
	.type	_ZN8opendnp38OContext12HandleSelectERKN7openpal6RSliceERNS_12HeaderWriterE.cold, @function
_ZN8opendnp38OContext12HandleSelectERKN7openpal6RSliceERNS_12HeaderWriterE.cold:
.LFSB3003:
.L797:
	.cfi_def_cfa_offset 272
	.cfi_offset 3, -48
	.cfi_offset 6, -40
	.cfi_offset 12, -32
	.cfi_offset 13, -24
	.cfi_offset 14, -16
	movq	%r14, %rdi
	call	_ZN8opendnp320CommandActionAdapterD1Ev@PLT
	movq	%rbp, %rdi
.LEHB19:
	call	_Unwind_Resume@PLT
.LEHE19:
	.cfi_endproc
.LFE3003:
	.section	.gcc_except_table
.LLSDAC3003:
	.byte	0xff
	.byte	0xff
	.byte	0x1
	.uleb128 .LLSDACSEC3003-.LLSDACSBC3003
.LLSDACSBC3003:
	.uleb128 .LEHB19-.LCOLDB22
	.uleb128 .LEHE19-.LEHB19
	.uleb128 0
	.uleb128 0
.LLSDACSEC3003:
	.section	.text.unlikely
	.text
	.size	_ZN8opendnp38OContext12HandleSelectERKN7openpal6RSliceERNS_12HeaderWriterE, .-_ZN8opendnp38OContext12HandleSelectERKN7openpal6RSliceERNS_12HeaderWriterE
	.section	.text.unlikely
	.size	_ZN8opendnp38OContext12HandleSelectERKN7openpal6RSliceERNS_12HeaderWriterE.cold, .-_ZN8opendnp38OContext12HandleSelectERKN7openpal6RSliceERNS_12HeaderWriterE.cold
.LCOLDE22:
	.text
.LHOTE22:
	.section	.rodata.str1.8
	.align 8
.LC23:
	.string	"/home/saptarshi/Desktop/OpenPLC61850/utils/dnp3_src/cpp/libs/src/opendnp3/outstation/OutstationContext.cpp(603)"
	.section	.text.unlikely
	.align 2
.LCOLDB24:
	.text
.LHOTB24:
	.align 2
	.p2align 4
	.globl	_ZN8opendnp38OContext13HandleOperateERKN7openpal6RSliceERNS_12HeaderWriterE
	.type	_ZN8opendnp38OContext13HandleOperateERKN7openpal6RSliceERNS_12HeaderWriterE, @function
_ZN8opendnp38OContext13HandleOperateERKN7openpal6RSliceERNS_12HeaderWriterE:
.LFB3004:
	.cfi_startproc
	.cfi_personality 0x9b,DW.ref.__gxx_personality_v0
	.cfi_lsda 0x1b,.LLSDA3004
	endbr64
	pushq	%r15
	.cfi_def_cfa_offset 16
	.cfi_offset 15, -16
	pushq	%r14
	.cfi_def_cfa_offset 24
	.cfi_offset 14, -24
	pushq	%r13
	.cfi_def_cfa_offset 32
	.cfi_offset 13, -32
	movq	%rdx, %r13
	pushq	%r12
	.cfi_def_cfa_offset 40
	.cfi_offset 12, -40
	movq	%rsi, %r12
	pushq	%rbp
	.cfi_def_cfa_offset 48
	.cfi_offset 6, -48
	movq	%rdi, %rbp
	movq	%rdx, %rdi
	pushq	%rbx
	.cfi_def_cfa_offset 56
	.cfi_offset 3, -56
	subq	$248, %rsp
	.cfi_def_cfa_offset 304
	movl	(%rsi), %ebx
	movq	%fs:40, %rax
	movq	%rax, 232(%rsp)
	xorl	%eax, %eax
.LEHB20:
	call	_ZNK8opendnp312HeaderWriter9RemainingEv@PLT
	cmpl	%ebx, %eax
	jb	.L828
	movq	40(%rbp), %rdi
	movq	(%rdi), %rax
	call	*16(%rax)
	movzbl	808(%rbp), %ebx
	cmpb	%bl, 832(%rbp)
	jne	.L812
	movq	816(%rbp), %rdx
	cmpq	%rax, %rdx
	jg	.L821
	subq	%rdx, %rax
	cmpq	672(%rbp), %rax
	jge	.L821
	movzwl	824(%rbp), %ebx
	movl	(%r12), %eax
	cmpl	%eax, 828(%rbp)
	jne	.L812
	movq	%r12, %rdi
	call	_ZN8opendnp33CRC7CalcCrcERKN7openpal6RSliceE@PLT
	cmpw	%ax, %bx
	je	.L829
	.p2align 4,,10
	.p2align 3
.L812:
	movl	$2, %ecx
.L813:
	movq	232(%rsp), %rax
	subq	%fs:40, %rax
	jne	.L826
	addq	$248, %rsp
	.cfi_remember_state
	.cfi_def_cfa_offset 56
	movq	%r13, %rdx
	movq	%r12, %rsi
	movq	%rbp, %rdi
	popq	%rbx
	.cfi_def_cfa_offset 48
	popq	%rbp
	.cfi_def_cfa_offset 40
	popq	%r12
	.cfi_def_cfa_offset 32
	popq	%r13
	.cfi_def_cfa_offset 24
	popq	%r14
	.cfi_def_cfa_offset 16
	popq	%r15
	.cfi_def_cfa_offset 8
	jmp	_ZN8opendnp38OContext25HandleCommandWithConstantERKN7openpal6RSliceERNS_12HeaderWriterENS_13CommandStatusE@PLT
	.p2align 4,,10
	.p2align 3
.L821:
	.cfi_restore_state
	movl	$1, %ecx
	jmp	.L813
	.p2align 4,,10
	.p2align 3
.L828:
	addq	$8, %rbp
	leaq	48(%rsp), %r14
	movl	$4, 48(%rsp)
	movq	%r14, %rsi
	movq	%rbp, %rdi
	call	_ZNK7openpal6Logger9IsEnabledERKNS_10LogFiltersE@PLT
	testb	%al, %al
	jne	.L830
.L810:
	xorl	%eax, %eax
	movl	$10, %esi
	movq	%r14, %rdi
	movw	%ax, 48(%rsp)
	call	_ZN8opendnp38IINField6SetBitENS_6IINBitE@PLT
	movzwl	48(%rsp), %eax
.L811:
	movq	232(%rsp), %rdx
	subq	%fs:40, %rdx
	jne	.L826
	addq	$248, %rsp
	.cfi_remember_state
	.cfi_def_cfa_offset 56
	popq	%rbx
	.cfi_def_cfa_offset 48
	popq	%rbp
	.cfi_def_cfa_offset 40
	popq	%r12
	.cfi_def_cfa_offset 32
	popq	%r13
	.cfi_def_cfa_offset 24
	popq	%r14
	.cfi_def_cfa_offset 16
	popq	%r15
	.cfi_def_cfa_offset 8
	ret
	.p2align 4,,10
	.p2align 3
.L829:
	.cfi_restore_state
	movq	72(%rbp), %rsi
	leaq	16(%rsp), %r15
	xorl	%ecx, %ecx
	xorl	%edx, %edx
	movq	%r15, %rdi
	leaq	48(%rsp), %r14
	call	_ZN8opendnp320CommandActionAdapterC1EPNS_15ICommandHandlerEbNS_11OperateTypeE@PLT
.LEHE20:
	movq	%r13, %rcx
	movq	%r15, %rdx
	movq	%r14, %rdi
	movzbl	665(%rbp), %esi
.LEHB21:
	call	_ZN8opendnp322CommandResponseHandlerC1EhPNS_14ICommandActionEPNS_12HeaderWriterE@PLT
	leaq	8(%rbp), %rdx
	movq	%r14, %rsi
	movq	%r12, %rdi
	movabsq	$35184372088833, %rcx
	call	_ZN8opendnp310APDUParser5ParseERKN7openpal6RSliceERNS_12IAPDUHandlerEPNS1_6LoggerENS_14ParserSettingsE@PLT
	movl	%eax, %edi
	testb	%al, %al
	je	.L831
	call	_ZN8opendnp318IINFromParseResultENS_11ParseResultE@PLT
.LEHE21:
.L816:
	movq	%r15, %rdi
	movl	%eax, 12(%rsp)
	call	_ZN8opendnp320CommandActionAdapterD1Ev@PLT
	movl	12(%rsp), %eax
	jmp	.L811
	.p2align 4,,10
	.p2align 3
.L830:
	leaq	112(%rsp), %r13
	movl	(%r12), %r9d
	movl	$120, %ecx
	xorl	%eax, %eax
	movq	%r13, %rdi
	movl	$1, %edx
	movl	$120, %esi
	leaq	.LC20(%rip), %r8
	call	__snprintf_chk@PLT
	movq	%r13, %rcx
	movq	%r14, %rsi
	movq	%rbp, %rdi
	leaq	.LC23(%rip), %rdx
	movl	$4, 48(%rsp)
.LEHB22:
	call	_ZN7openpal6Logger3LogERKNS_10LogFiltersEPKcS5_@PLT
.LEHE22:
	jmp	.L810
	.p2align 4,,10
	.p2align 3
.L831:
	movq	%r14, %rdi
.LEHB23:
	call	_ZNK8opendnp312IAPDUHandler6ErrorsEv@PLT
.LEHE23:
	jmp	.L816
.L826:
	call	__stack_chk_fail@PLT
.L822:
	endbr64
	movq	%rax, %rbp
	jmp	.L818
	.section	.gcc_except_table
.LLSDA3004:
	.byte	0xff
	.byte	0xff
	.byte	0x1
	.uleb128 .LLSDACSE3004-.LLSDACSB3004
.LLSDACSB3004:
	.uleb128 .LEHB20-.LFB3004
	.uleb128 .LEHE20-.LEHB20
	.uleb128 0
	.uleb128 0
	.uleb128 .LEHB21-.LFB3004
	.uleb128 .LEHE21-.LEHB21
	.uleb128 .L822-.LFB3004
	.uleb128 0
	.uleb128 .LEHB22-.LFB3004
	.uleb128 .LEHE22-.LEHB22
	.uleb128 0
	.uleb128 0
	.uleb128 .LEHB23-.LFB3004
	.uleb128 .LEHE23-.LEHB23
	.uleb128 .L822-.LFB3004
	.uleb128 0
.LLSDACSE3004:
	.text
	.cfi_endproc
	.section	.text.unlikely
	.cfi_startproc
	.cfi_personality 0x9b,DW.ref.__gxx_personality_v0
	.cfi_lsda 0x1b,.LLSDAC3004
	.type	_ZN8opendnp38OContext13HandleOperateERKN7openpal6RSliceERNS_12HeaderWriterE.cold, @function
_ZN8opendnp38OContext13HandleOperateERKN7openpal6RSliceERNS_12HeaderWriterE.cold:
.LFSB3004:
.L818:
	.cfi_def_cfa_offset 304
	.cfi_offset 3, -56
	.cfi_offset 6, -48
	.cfi_offset 12, -40
	.cfi_offset 13, -32
	.cfi_offset 14, -24
	.cfi_offset 15, -16
	movq	%r15, %rdi
	call	_ZN8opendnp320CommandActionAdapterD1Ev@PLT
	movq	%rbp, %rdi
.LEHB24:
	call	_Unwind_Resume@PLT
.LEHE24:
	.cfi_endproc
.LFE3004:
	.section	.gcc_except_table
.LLSDAC3004:
	.byte	0xff
	.byte	0xff
	.byte	0x1
	.uleb128 .LLSDACSEC3004-.LLSDACSBC3004
.LLSDACSBC3004:
	.uleb128 .LEHB24-.LCOLDB24
	.uleb128 .LEHE24-.LEHB24
	.uleb128 0
	.uleb128 0
.LLSDACSEC3004:
	.section	.text.unlikely
	.text
	.size	_ZN8opendnp38OContext13HandleOperateERKN7openpal6RSliceERNS_12HeaderWriterE, .-_ZN8opendnp38OContext13HandleOperateERKN7openpal6RSliceERNS_12HeaderWriterE
	.section	.text.unlikely
	.size	_ZN8opendnp38OContext13HandleOperateERKN7openpal6RSliceERNS_12HeaderWriterE.cold, .-_ZN8opendnp38OContext13HandleOperateERKN7openpal6RSliceERNS_12HeaderWriterE.cold
.LCOLDE24:
	.text
.LHOTE24:
	.align 2
	.p2align 4
	.globl	_ZN8opendnp38OContext21HandleNonReadResponseERKNS_10APDUHeaderERKN7openpal6RSliceERNS_12HeaderWriterE
	.type	_ZN8opendnp38OContext21HandleNonReadResponseERKNS_10APDUHeaderERKN7openpal6RSliceERNS_12HeaderWriterE, @function
_ZN8opendnp38OContext21HandleNonReadResponseERKNS_10APDUHeaderERKN7openpal6RSliceERNS_12HeaderWriterE:
.LFB2999:
	.cfi_startproc
	endbr64
	subq	$24, %rsp
	.cfi_def_cfa_offset 32
	movq	%rsi, %rax
	movq	%rdx, %rsi
	movq	%fs:40, %rdx
	movq	%rdx, 8(%rsp)
	xorl	%edx, %edx
	cmpb	$23, (%rax)
	ja	.L833
	movzbl	(%rax), %eax
	leaq	.L835(%rip), %rdx
	movslq	(%rdx,%rax,4), %rax
	addq	%rdx, %rax
	notrack jmp	*%rax
	.section	.rodata
	.align 4
	.align 4
.L835:
	.long	.L833-.L835
	.long	.L833-.L835
	.long	.L844-.L835
	.long	.L843-.L835
	.long	.L842-.L835
	.long	.L841-.L835
	.long	.L833-.L835
	.long	.L833-.L835
	.long	.L833-.L835
	.long	.L833-.L835
	.long	.L833-.L835
	.long	.L833-.L835
	.long	.L833-.L835
	.long	.L840-.L835
	.long	.L839-.L835
	.long	.L833-.L835
	.long	.L833-.L835
	.long	.L833-.L835
	.long	.L833-.L835
	.long	.L833-.L835
	.long	.L838-.L835
	.long	.L837-.L835
	.long	.L836-.L835
	.long	.L834-.L835
	.text
	.p2align 4,,10
	.p2align 3
.L833:
	xorl	%eax, %eax
	leaq	4(%rsp), %rdi
	movl	$8, %esi
	movw	%ax, 4(%rsp)
	call	_ZN8opendnp38IINField6SetBitENS_6IINBitE@PLT
	movzwl	4(%rsp), %eax
	movw	%ax, 6(%rsp)
	.p2align 4,,10
	.p2align 3
.L845:
	movq	8(%rsp), %rdx
	subq	%fs:40, %rdx
	jne	.L850
	addq	$24, %rsp
	.cfi_remember_state
	.cfi_def_cfa_offset 8
	ret
	.p2align 4,,10
	.p2align 3
.L844:
	.cfi_restore_state
	call	_ZN8opendnp38OContext11HandleWriteERKN7openpal6RSliceE@PLT
	movw	%ax, 6(%rsp)
	jmp	.L845
	.p2align 4,,10
	.p2align 3
.L843:
	movq	%rcx, %rdx
	call	_ZN8opendnp38OContext12HandleSelectERKN7openpal6RSliceERNS_12HeaderWriterE@PLT
	movw	%ax, 6(%rsp)
	jmp	.L845
	.p2align 4,,10
	.p2align 3
.L842:
	movq	%rcx, %rdx
	call	_ZN8opendnp38OContext13HandleOperateERKN7openpal6RSliceERNS_12HeaderWriterE@PLT
	movw	%ax, 6(%rsp)
	jmp	.L845
	.p2align 4,,10
	.p2align 3
.L841:
	movl	$1, %edx
	call	_ZN8opendnp38OContext19HandleDirectOperateERKN7openpal6RSliceENS_11OperateTypeEPNS_12HeaderWriterE@PLT
	movw	%ax, 6(%rsp)
	jmp	.L845
	.p2align 4,,10
	.p2align 3
.L840:
	xorl	%edx, %edx
	call	_ZN8opendnp38OContext13HandleRestartERKN7openpal6RSliceEbPNS_12HeaderWriterE@PLT
	movw	%ax, 6(%rsp)
	jmp	.L845
	.p2align 4,,10
	.p2align 3
.L839:
	movl	$1, %edx
	call	_ZN8opendnp38OContext13HandleRestartERKN7openpal6RSliceEbPNS_12HeaderWriterE@PLT
	movw	%ax, 6(%rsp)
	jmp	.L845
	.p2align 4,,10
	.p2align 3
.L838:
	cmpb	$0, 712(%rdi)
	je	.L847
	movq	%rcx, %rdx
	call	_ZN8opendnp38OContext23HandleEnableUnsolicitedERKN7openpal6RSliceERNS_12HeaderWriterE@PLT
	movw	%ax, 6(%rsp)
	jmp	.L845
	.p2align 4,,10
	.p2align 3
.L837:
	cmpb	$0, 712(%rdi)
	jne	.L851
.L847:
	xorl	%edx, %edx
	leaq	6(%rsp), %rdi
	movl	$8, %esi
	movw	%dx, 6(%rsp)
	call	_ZN8opendnp38IINField6SetBitENS_6IINBitE@PLT
	movzwl	6(%rsp), %eax
	jmp	.L845
	.p2align 4,,10
	.p2align 3
.L836:
	call	_ZN8opendnp38OContext17HandleAssignClassERKN7openpal6RSliceE@PLT
	movw	%ax, 6(%rsp)
	jmp	.L845
	.p2align 4,,10
	.p2align 3
.L834:
	movq	%rcx, %rdx
	call	_ZN8opendnp38OContext18HandleDelayMeasureERKN7openpal6RSliceERNS_12HeaderWriterE@PLT
	movw	%ax, 6(%rsp)
	jmp	.L845
	.p2align 4,,10
	.p2align 3
.L851:
	movq	%rcx, %rdx
	call	_ZN8opendnp38OContext24HandleDisableUnsolicitedERKN7openpal6RSliceERNS_12HeaderWriterE@PLT
	movw	%ax, 6(%rsp)
	jmp	.L845
.L850:
	call	__stack_chk_fail@PLT
	.cfi_endproc
.LFE2999:
	.size	_ZN8opendnp38OContext21HandleNonReadResponseERKNS_10APDUHeaderERKN7openpal6RSliceERNS_12HeaderWriterE, .-_ZN8opendnp38OContext21HandleNonReadResponseERKNS_10APDUHeaderERKN7openpal6RSliceERNS_12HeaderWriterE
	.align 2
	.p2align 4
	.globl	_ZN8opendnp38OContext23RespondToNonReadRequestERKNS_10APDUHeaderERKN7openpal6RSliceE
	.type	_ZN8opendnp38OContext23RespondToNonReadRequestERKNS_10APDUHeaderERKN7openpal6RSliceE, @function
_ZN8opendnp38OContext23RespondToNonReadRequestERKNS_10APDUHeaderERKN7openpal6RSliceE:
.LFB2987:
	.cfi_startproc
	endbr64
	pushq	%r15
	.cfi_def_cfa_offset 16
	.cfi_offset 15, -16
	movq	%rdx, %r15
	pushq	%r14
	.cfi_def_cfa_offset 24
	.cfi_offset 14, -24
	movq	%rsi, %r14
	pushq	%r13
	.cfi_def_cfa_offset 32
	.cfi_offset 13, -32
	pushq	%r12
	.cfi_def_cfa_offset 40
	.cfi_offset 12, -40
	pushq	%rbp
	.cfi_def_cfa_offset 48
	.cfi_offset 6, -48
	movq	%rdi, %rbp
	addq	$744, %rdi
	pushq	%rbx
	.cfi_def_cfa_offset 56
	.cfi_offset 3, -56
	subq	$120, %rsp
	.cfi_def_cfa_offset 176
	movq	%fs:40, %rax
	movq	%rax, 104(%rsp)
	xorl	%eax, %eax
	leaq	64(%rsp), %r13
	leaq	32(%rsp), %rbx
	call	_ZN8opendnp314RequestHistory26RecordLastProcessedRequestERKNS_10APDUHeaderERKN7openpal6RSliceE@PLT
	leaq	864(%rbp), %rdi
	leaq	16(%rsp), %r12
	call	_ZN7openpal6Buffer9GetWSliceEv@PLT
	movq	%rbx, %rsi
	movq	%r13, %rdi
	movq	%rdx, 40(%rsp)
	movl	%eax, 32(%rsp)
	call	_ZN8opendnp312APDUResponseC1ERKN7openpal6WSliceE@PLT
	movq	%rbx, %rdi
	movq	%r13, %rsi
	call	_ZN8opendnp311APDUWrapper9GetWriterEv@PLT
	movl	$-127, %esi
	movq	%r13, %rdi
	call	_ZN8opendnp311APDUWrapper11SetFunctionENS_12FunctionCodeE@PLT
	movzbl	5(%r14), %r9d
	xorl	%r8d, %r8d
	xorl	%ecx, %ecx
	movl	$1, %edx
	movl	$1, %esi
	movq	%r12, %rdi
	call	_ZN8opendnp315AppControlFieldC1Ebbbbh@PLT
	movq	16(%rsp), %rsi
	movq	%r13, %rdi
	call	_ZN8opendnp311APDUWrapper10SetControlENS_15AppControlFieldE@PLT
	movq	%rbx, %rcx
	movq	%r15, %rdx
	movq	%r14, %rsi
	movq	%rbp, %rdi
	call	_ZN8opendnp38OContext21HandleNonReadResponseERKNS_10APDUHeaderERKN7openpal6RSliceERNS_12HeaderWriterE@PLT
	movq	%rbp, %rdi
	movl	%eax, %ebx
	call	_ZN8opendnp38OContext14GetResponseIINEv@PLT
	movl	%ebx, %ecx
	xorl	%edx, %edx
	movzbl	%bh, %ebx
	orl	%eax, %ecx
	movzbl	%ah, %eax
	movq	%r12, %rsi
	movq	%r13, %rdi
	orl	%eax, %ebx
	movb	%cl, %dl
	movb	%bl, %dh
	movw	%dx, 16(%rsp)
	call	_ZN8opendnp312APDUResponse6SetIINERKNS_8IINFieldE@PLT
	movq	%r13, %rdi
	call	_ZNK8opendnp311APDUWrapper8ToRSliceEv@PLT
	movq	%r13, %rdi
	movq	%rdx, 24(%rsp)
	movl	%eax, 16(%rsp)
	call	_ZNK8opendnp311APDUWrapper10GetControlEv@PLT
	leaq	11(%rsp), %rsi
	movq	%rbp, %rdi
	movq	%rax, %rdx
	movb	%al, 11(%rsp)
	shrq	$16, %rdx
	movb	%ah, 12(%rsp)
	movb	%dl, 13(%rsp)
	movq	%rax, %rdx
	shrq	$32, %rax
	shrq	$24, %rdx
	movb	%al, 15(%rsp)
	movb	%dl, 14(%rsp)
	movq	%r12, %rdx
	call	_ZN8opendnp38OContext15BeginResponseTxERKNS_15AppControlFieldERKN7openpal6RSliceE@PLT
	movq	104(%rsp), %rax
	subq	%fs:40, %rax
	jne	.L855
	addq	$120, %rsp
	.cfi_remember_state
	.cfi_def_cfa_offset 56
	popq	%rbx
	.cfi_def_cfa_offset 48
	popq	%rbp
	.cfi_def_cfa_offset 40
	popq	%r12
	.cfi_def_cfa_offset 32
	popq	%r13
	.cfi_def_cfa_offset 24
	popq	%r14
	.cfi_def_cfa_offset 16
	popq	%r15
	.cfi_def_cfa_offset 8
	ret
.L855:
	.cfi_restore_state
	call	__stack_chk_fail@PLT
	.cfi_endproc
.LFE2987:
	.size	_ZN8opendnp38OContext23RespondToNonReadRequestERKNS_10APDUHeaderERKN7openpal6RSliceE, .-_ZN8opendnp38OContext23RespondToNonReadRequestERKNS_10APDUHeaderERKN7openpal6RSliceE
	.weak	_ZTSN7openpal7HasSizeItEE
	.section	.rodata._ZTSN7openpal7HasSizeItEE,"aG",@progbits,_ZTSN7openpal7HasSizeItEE,comdat
	.align 16
	.type	_ZTSN7openpal7HasSizeItEE, @object
	.size	_ZTSN7openpal7HasSizeItEE, 22
_ZTSN7openpal7HasSizeItEE:
	.string	"N7openpal7HasSizeItEE"
	.weak	_ZTIN7openpal7HasSizeItEE
	.section	.data.rel.ro._ZTIN7openpal7HasSizeItEE,"awG",@progbits,_ZTIN7openpal7HasSizeItEE,comdat
	.align 8
	.type	_ZTIN7openpal7HasSizeItEE, @object
	.size	_ZTIN7openpal7HasSizeItEE, 16
_ZTIN7openpal7HasSizeItEE:
	.quad	_ZTVN10__cxxabiv117__class_type_infoE+16
	.quad	_ZTSN7openpal7HasSizeItEE
	.weak	_ZTSN7openpal7HasSizeIjEE
	.section	.rodata._ZTSN7openpal7HasSizeIjEE,"aG",@progbits,_ZTSN7openpal7HasSizeIjEE,comdat
	.align 16
	.type	_ZTSN7openpal7HasSizeIjEE, @object
	.size	_ZTSN7openpal7HasSizeIjEE, 22
_ZTSN7openpal7HasSizeIjEE:
	.string	"N7openpal7HasSizeIjEE"
	.weak	_ZTIN7openpal7HasSizeIjEE
	.section	.data.rel.ro._ZTIN7openpal7HasSizeIjEE,"awG",@progbits,_ZTIN7openpal7HasSizeIjEE,comdat
	.align 8
	.type	_ZTIN7openpal7HasSizeIjEE, @object
	.size	_ZTIN7openpal7HasSizeIjEE, 16
_ZTIN7openpal7HasSizeIjEE:
	.quad	_ZTVN10__cxxabiv117__class_type_infoE+16
	.quad	_ZTSN7openpal7HasSizeIjEE
	.weak	_ZTSN7openpal5ArrayIN8opendnp34CellINS1_10BinarySpecEEEtEE
	.section	.rodata._ZTSN7openpal5ArrayIN8opendnp34CellINS1_10BinarySpecEEEtEE,"aG",@progbits,_ZTSN7openpal5ArrayIN8opendnp34CellINS1_10BinarySpecEEEtEE,comdat
	.align 32
	.type	_ZTSN7openpal5ArrayIN8opendnp34CellINS1_10BinarySpecEEEtEE, @object
	.size	_ZTSN7openpal5ArrayIN8opendnp34CellINS1_10BinarySpecEEEtEE, 55
_ZTSN7openpal5ArrayIN8opendnp34CellINS1_10BinarySpecEEEtEE:
	.string	"N7openpal5ArrayIN8opendnp34CellINS1_10BinarySpecEEEtEE"
	.weak	_ZTSN7openpal5ArrayIN8opendnp34CellINS1_19DoubleBitBinarySpecEEEtEE
	.section	.rodata._ZTSN7openpal5ArrayIN8opendnp34CellINS1_19DoubleBitBinarySpecEEEtEE,"aG",@progbits,_ZTSN7openpal5ArrayIN8opendnp34CellINS1_19DoubleBitBinarySpecEEEtEE,comdat
	.align 32
	.type	_ZTSN7openpal5ArrayIN8opendnp34CellINS1_19DoubleBitBinarySpecEEEtEE, @object
	.size	_ZTSN7openpal5ArrayIN8opendnp34CellINS1_19DoubleBitBinarySpecEEEtEE, 64
_ZTSN7openpal5ArrayIN8opendnp34CellINS1_19DoubleBitBinarySpecEEEtEE:
	.string	"N7openpal5ArrayIN8opendnp34CellINS1_19DoubleBitBinarySpecEEEtEE"
	.weak	_ZTSN7openpal5ArrayIN8opendnp34CellINS1_10AnalogSpecEEEtEE
	.section	.rodata._ZTSN7openpal5ArrayIN8opendnp34CellINS1_10AnalogSpecEEEtEE,"aG",@progbits,_ZTSN7openpal5ArrayIN8opendnp34CellINS1_10AnalogSpecEEEtEE,comdat
	.align 32
	.type	_ZTSN7openpal5ArrayIN8opendnp34CellINS1_10AnalogSpecEEEtEE, @object
	.size	_ZTSN7openpal5ArrayIN8opendnp34CellINS1_10AnalogSpecEEEtEE, 55
_ZTSN7openpal5ArrayIN8opendnp34CellINS1_10AnalogSpecEEEtEE:
	.string	"N7openpal5ArrayIN8opendnp34CellINS1_10AnalogSpecEEEtEE"
	.weak	_ZTSN7openpal5ArrayIN8opendnp34CellINS1_11CounterSpecEEEtEE
	.section	.rodata._ZTSN7openpal5ArrayIN8opendnp34CellINS1_11CounterSpecEEEtEE,"aG",@progbits,_ZTSN7openpal5ArrayIN8opendnp34CellINS1_11CounterSpecEEEtEE,comdat
	.align 32
	.type	_ZTSN7openpal5ArrayIN8opendnp34CellINS1_11CounterSpecEEEtEE, @object
	.size	_ZTSN7openpal5ArrayIN8opendnp34CellINS1_11CounterSpecEEEtEE, 56
_ZTSN7openpal5ArrayIN8opendnp34CellINS1_11CounterSpecEEEtEE:
	.string	"N7openpal5ArrayIN8opendnp34CellINS1_11CounterSpecEEEtEE"
	.weak	_ZTSN7openpal5ArrayIN8opendnp34CellINS1_17FrozenCounterSpecEEEtEE
	.section	.rodata._ZTSN7openpal5ArrayIN8opendnp34CellINS1_17FrozenCounterSpecEEEtEE,"aG",@progbits,_ZTSN7openpal5ArrayIN8opendnp34CellINS1_17FrozenCounterSpecEEEtEE,comdat
	.align 32
	.type	_ZTSN7openpal5ArrayIN8opendnp34CellINS1_17FrozenCounterSpecEEEtEE, @object
	.size	_ZTSN7openpal5ArrayIN8opendnp34CellINS1_17FrozenCounterSpecEEEtEE, 62
_ZTSN7openpal5ArrayIN8opendnp34CellINS1_17FrozenCounterSpecEEEtEE:
	.string	"N7openpal5ArrayIN8opendnp34CellINS1_17FrozenCounterSpecEEEtEE"
	.weak	_ZTSN7openpal5ArrayIN8opendnp34CellINS1_22BinaryOutputStatusSpecEEEtEE
	.section	.rodata._ZTSN7openpal5ArrayIN8opendnp34CellINS1_22BinaryOutputStatusSpecEEEtEE,"aG",@progbits,_ZTSN7openpal5ArrayIN8opendnp34CellINS1_22BinaryOutputStatusSpecEEEtEE,comdat
	.align 32
	.type	_ZTSN7openpal5ArrayIN8opendnp34CellINS1_22BinaryOutputStatusSpecEEEtEE, @object
	.size	_ZTSN7openpal5ArrayIN8opendnp34CellINS1_22BinaryOutputStatusSpecEEEtEE, 67
_ZTSN7openpal5ArrayIN8opendnp34CellINS1_22BinaryOutputStatusSpecEEEtEE:
	.string	"N7openpal5ArrayIN8opendnp34CellINS1_22BinaryOutputStatusSpecEEEtEE"
	.weak	_ZTSN7openpal5ArrayIN8opendnp34CellINS1_22AnalogOutputStatusSpecEEEtEE
	.section	.rodata._ZTSN7openpal5ArrayIN8opendnp34CellINS1_22AnalogOutputStatusSpecEEEtEE,"aG",@progbits,_ZTSN7openpal5ArrayIN8opendnp34CellINS1_22AnalogOutputStatusSpecEEEtEE,comdat
	.align 32
	.type	_ZTSN7openpal5ArrayIN8opendnp34CellINS1_22AnalogOutputStatusSpecEEEtEE, @object
	.size	_ZTSN7openpal5ArrayIN8opendnp34CellINS1_22AnalogOutputStatusSpecEEEtEE, 67
_ZTSN7openpal5ArrayIN8opendnp34CellINS1_22AnalogOutputStatusSpecEEEtEE:
	.string	"N7openpal5ArrayIN8opendnp34CellINS1_22AnalogOutputStatusSpecEEEtEE"
	.weak	_ZTSN7openpal5ArrayIN8opendnp34CellINS1_19TimeAndIntervalSpecEEEtEE
	.section	.rodata._ZTSN7openpal5ArrayIN8opendnp34CellINS1_19TimeAndIntervalSpecEEEtEE,"aG",@progbits,_ZTSN7openpal5ArrayIN8opendnp34CellINS1_19TimeAndIntervalSpecEEEtEE,comdat
	.align 32
	.type	_ZTSN7openpal5ArrayIN8opendnp34CellINS1_19TimeAndIntervalSpecEEEtEE, @object
	.size	_ZTSN7openpal5ArrayIN8opendnp34CellINS1_19TimeAndIntervalSpecEEEtEE, 64
_ZTSN7openpal5ArrayIN8opendnp34CellINS1_19TimeAndIntervalSpecEEEtEE:
	.string	"N7openpal5ArrayIN8opendnp34CellINS1_19TimeAndIntervalSpecEEEtEE"
	.weak	_ZTSN7openpal5ArrayINS_8ListNodeIN8opendnp39SOERecordEEEjEE
	.section	.rodata._ZTSN7openpal5ArrayINS_8ListNodeIN8opendnp39SOERecordEEEjEE,"aG",@progbits,_ZTSN7openpal5ArrayINS_8ListNodeIN8opendnp39SOERecordEEEjEE,comdat
	.align 32
	.type	_ZTSN7openpal5ArrayINS_8ListNodeIN8opendnp39SOERecordEEEjEE, @object
	.size	_ZTSN7openpal5ArrayINS_8ListNodeIN8opendnp39SOERecordEEEjEE, 56
_ZTSN7openpal5ArrayINS_8ListNodeIN8opendnp39SOERecordEEEjEE:
	.string	"N7openpal5ArrayINS_8ListNodeIN8opendnp39SOERecordEEEjEE"
	.weak	_ZGVN7openpal7Bit16LEItE3MaxE
	.section	.bss._ZGVN7openpal7Bit16LEItE3MaxE,"awG",@nobits,_ZGVN7openpal7Bit16LEItE3MaxE,comdat
	.align 8
	.type	_ZGVN7openpal7Bit16LEItE3MaxE, @gnu_unique_object
	.size	_ZGVN7openpal7Bit16LEItE3MaxE, 8
_ZGVN7openpal7Bit16LEItE3MaxE:
	.zero	8
	.weak	_ZN7openpal7Bit16LEItE3MaxE
	.section	.bss._ZN7openpal7Bit16LEItE3MaxE,"awG",@nobits,_ZN7openpal7Bit16LEItE3MaxE,comdat
	.align 2
	.type	_ZN7openpal7Bit16LEItE3MaxE, @gnu_unique_object
	.size	_ZN7openpal7Bit16LEItE3MaxE, 2
_ZN7openpal7Bit16LEItE3MaxE:
	.zero	2
	.weak	_ZTSN8opendnp37IUpDownE
	.section	.rodata._ZTSN8opendnp37IUpDownE,"aG",@progbits,_ZTSN8opendnp37IUpDownE,comdat
	.align 16
	.type	_ZTSN8opendnp37IUpDownE, @object
	.size	_ZTSN8opendnp37IUpDownE, 20
_ZTSN8opendnp37IUpDownE:
	.string	"N8opendnp37IUpDownE"
	.weak	_ZTIN8opendnp37IUpDownE
	.section	.data.rel.ro._ZTIN8opendnp37IUpDownE,"awG",@progbits,_ZTIN8opendnp37IUpDownE,comdat
	.align 8
	.type	_ZTIN8opendnp37IUpDownE, @object
	.size	_ZTIN8opendnp37IUpDownE, 16
_ZTIN8opendnp37IUpDownE:
	.quad	_ZTVN10__cxxabiv117__class_type_infoE+16
	.quad	_ZTSN8opendnp37IUpDownE
	.weak	_ZTSN8opendnp311IUpperLayerE
	.section	.rodata._ZTSN8opendnp311IUpperLayerE,"aG",@progbits,_ZTSN8opendnp311IUpperLayerE,comdat
	.align 16
	.type	_ZTSN8opendnp311IUpperLayerE, @object
	.size	_ZTSN8opendnp311IUpperLayerE, 25
_ZTSN8opendnp311IUpperLayerE:
	.string	"N8opendnp311IUpperLayerE"
	.weak	_ZTIN8opendnp311IUpperLayerE
	.section	.data.rel.ro._ZTIN8opendnp311IUpperLayerE,"awG",@progbits,_ZTIN8opendnp311IUpperLayerE,comdat
	.align 8
	.type	_ZTIN8opendnp311IUpperLayerE, @object
	.size	_ZTIN8opendnp311IUpperLayerE, 24
_ZTIN8opendnp311IUpperLayerE:
	.quad	_ZTVN10__cxxabiv120__si_class_type_infoE+16
	.quad	_ZTSN8opendnp311IUpperLayerE
	.quad	_ZTIN8opendnp37IUpDownE
	.weak	_ZTSN7openpal5ArrayIhjEE
	.section	.rodata._ZTSN7openpal5ArrayIhjEE,"aG",@progbits,_ZTSN7openpal5ArrayIhjEE,comdat
	.align 16
	.type	_ZTSN7openpal5ArrayIhjEE, @object
	.size	_ZTSN7openpal5ArrayIhjEE, 21
_ZTSN7openpal5ArrayIhjEE:
	.string	"N7openpal5ArrayIhjEE"
	.weak	_ZTIN7openpal5ArrayIhjEE
	.section	.data.rel.ro._ZTIN7openpal5ArrayIhjEE,"awG",@progbits,_ZTIN7openpal5ArrayIhjEE,comdat
	.align 8
	.type	_ZTIN7openpal5ArrayIhjEE, @object
	.size	_ZTIN7openpal5ArrayIhjEE, 40
_ZTIN7openpal5ArrayIhjEE:
	.quad	_ZTVN10__cxxabiv121__vmi_class_type_infoE+16
	.quad	_ZTSN7openpal5ArrayIhjEE
	.long	0
	.long	1
	.quad	_ZTIN7openpal7HasSizeIjEE
	.quad	2050
	.weak	_ZTIN7openpal5ArrayIN8opendnp34CellINS1_10BinarySpecEEEtEE
	.section	.data.rel.ro._ZTIN7openpal5ArrayIN8opendnp34CellINS1_10BinarySpecEEEtEE,"awG",@progbits,_ZTIN7openpal5ArrayIN8opendnp34CellINS1_10BinarySpecEEEtEE,comdat
	.align 8
	.type	_ZTIN7openpal5ArrayIN8opendnp34CellINS1_10BinarySpecEEEtEE, @object
	.size	_ZTIN7openpal5ArrayIN8opendnp34CellINS1_10BinarySpecEEEtEE, 40
_ZTIN7openpal5ArrayIN8opendnp34CellINS1_10BinarySpecEEEtEE:
	.quad	_ZTVN10__cxxabiv121__vmi_class_type_infoE+16
	.quad	_ZTSN7openpal5ArrayIN8opendnp34CellINS1_10BinarySpecEEEtEE
	.long	0
	.long	1
	.quad	_ZTIN7openpal7HasSizeItEE
	.quad	2050
	.weak	_ZTIN7openpal5ArrayIN8opendnp34CellINS1_19DoubleBitBinarySpecEEEtEE
	.section	.data.rel.ro._ZTIN7openpal5ArrayIN8opendnp34CellINS1_19DoubleBitBinarySpecEEEtEE,"awG",@progbits,_ZTIN7openpal5ArrayIN8opendnp34CellINS1_19DoubleBitBinarySpecEEEtEE,comdat
	.align 8
	.type	_ZTIN7openpal5ArrayIN8opendnp34CellINS1_19DoubleBitBinarySpecEEEtEE, @object
	.size	_ZTIN7openpal5ArrayIN8opendnp34CellINS1_19DoubleBitBinarySpecEEEtEE, 40
_ZTIN7openpal5ArrayIN8opendnp34CellINS1_19DoubleBitBinarySpecEEEtEE:
	.quad	_ZTVN10__cxxabiv121__vmi_class_type_infoE+16
	.quad	_ZTSN7openpal5ArrayIN8opendnp34CellINS1_19DoubleBitBinarySpecEEEtEE
	.long	0
	.long	1
	.quad	_ZTIN7openpal7HasSizeItEE
	.quad	2050
	.weak	_ZTIN7openpal5ArrayIN8opendnp34CellINS1_10AnalogSpecEEEtEE
	.section	.data.rel.ro._ZTIN7openpal5ArrayIN8opendnp34CellINS1_10AnalogSpecEEEtEE,"awG",@progbits,_ZTIN7openpal5ArrayIN8opendnp34CellINS1_10AnalogSpecEEEtEE,comdat
	.align 8
	.type	_ZTIN7openpal5ArrayIN8opendnp34CellINS1_10AnalogSpecEEEtEE, @object
	.size	_ZTIN7openpal5ArrayIN8opendnp34CellINS1_10AnalogSpecEEEtEE, 40
_ZTIN7openpal5ArrayIN8opendnp34CellINS1_10AnalogSpecEEEtEE:
	.quad	_ZTVN10__cxxabiv121__vmi_class_type_infoE+16
	.quad	_ZTSN7openpal5ArrayIN8opendnp34CellINS1_10AnalogSpecEEEtEE
	.long	0
	.long	1
	.quad	_ZTIN7openpal7HasSizeItEE
	.quad	2050
	.weak	_ZTIN7openpal5ArrayIN8opendnp34CellINS1_11CounterSpecEEEtEE
	.section	.data.rel.ro._ZTIN7openpal5ArrayIN8opendnp34CellINS1_11CounterSpecEEEtEE,"awG",@progbits,_ZTIN7openpal5ArrayIN8opendnp34CellINS1_11CounterSpecEEEtEE,comdat
	.align 8
	.type	_ZTIN7openpal5ArrayIN8opendnp34CellINS1_11CounterSpecEEEtEE, @object
	.size	_ZTIN7openpal5ArrayIN8opendnp34CellINS1_11CounterSpecEEEtEE, 40
_ZTIN7openpal5ArrayIN8opendnp34CellINS1_11CounterSpecEEEtEE:
	.quad	_ZTVN10__cxxabiv121__vmi_class_type_infoE+16
	.quad	_ZTSN7openpal5ArrayIN8opendnp34CellINS1_11CounterSpecEEEtEE
	.long	0
	.long	1
	.quad	_ZTIN7openpal7HasSizeItEE
	.quad	2050
	.weak	_ZTIN7openpal5ArrayIN8opendnp34CellINS1_17FrozenCounterSpecEEEtEE
	.section	.data.rel.ro._ZTIN7openpal5ArrayIN8opendnp34CellINS1_17FrozenCounterSpecEEEtEE,"awG",@progbits,_ZTIN7openpal5ArrayIN8opendnp34CellINS1_17FrozenCounterSpecEEEtEE,comdat
	.align 8
	.type	_ZTIN7openpal5ArrayIN8opendnp34CellINS1_17FrozenCounterSpecEEEtEE, @object
	.size	_ZTIN7openpal5ArrayIN8opendnp34CellINS1_17FrozenCounterSpecEEEtEE, 40
_ZTIN7openpal5ArrayIN8opendnp34CellINS1_17FrozenCounterSpecEEEtEE:
	.quad	_ZTVN10__cxxabiv121__vmi_class_type_infoE+16
	.quad	_ZTSN7openpal5ArrayIN8opendnp34CellINS1_17FrozenCounterSpecEEEtEE
	.long	0
	.long	1
	.quad	_ZTIN7openpal7HasSizeItEE
	.quad	2050
	.weak	_ZTIN7openpal5ArrayIN8opendnp34CellINS1_22BinaryOutputStatusSpecEEEtEE
	.section	.data.rel.ro._ZTIN7openpal5ArrayIN8opendnp34CellINS1_22BinaryOutputStatusSpecEEEtEE,"awG",@progbits,_ZTIN7openpal5ArrayIN8opendnp34CellINS1_22BinaryOutputStatusSpecEEEtEE,comdat
	.align 8
	.type	_ZTIN7openpal5ArrayIN8opendnp34CellINS1_22BinaryOutputStatusSpecEEEtEE, @object
	.size	_ZTIN7openpal5ArrayIN8opendnp34CellINS1_22BinaryOutputStatusSpecEEEtEE, 40
_ZTIN7openpal5ArrayIN8opendnp34CellINS1_22BinaryOutputStatusSpecEEEtEE:
	.quad	_ZTVN10__cxxabiv121__vmi_class_type_infoE+16
	.quad	_ZTSN7openpal5ArrayIN8opendnp34CellINS1_22BinaryOutputStatusSpecEEEtEE
	.long	0
	.long	1
	.quad	_ZTIN7openpal7HasSizeItEE
	.quad	2050
	.weak	_ZTIN7openpal5ArrayIN8opendnp34CellINS1_22AnalogOutputStatusSpecEEEtEE
	.section	.data.rel.ro._ZTIN7openpal5ArrayIN8opendnp34CellINS1_22AnalogOutputStatusSpecEEEtEE,"awG",@progbits,_ZTIN7openpal5ArrayIN8opendnp34CellINS1_22AnalogOutputStatusSpecEEEtEE,comdat
	.align 8
	.type	_ZTIN7openpal5ArrayIN8opendnp34CellINS1_22AnalogOutputStatusSpecEEEtEE, @object
	.size	_ZTIN7openpal5ArrayIN8opendnp34CellINS1_22AnalogOutputStatusSpecEEEtEE, 40
_ZTIN7openpal5ArrayIN8opendnp34CellINS1_22AnalogOutputStatusSpecEEEtEE:
	.quad	_ZTVN10__cxxabiv121__vmi_class_type_infoE+16
	.quad	_ZTSN7openpal5ArrayIN8opendnp34CellINS1_22AnalogOutputStatusSpecEEEtEE
	.long	0
	.long	1
	.quad	_ZTIN7openpal7HasSizeItEE
	.quad	2050
	.weak	_ZTIN7openpal5ArrayIN8opendnp34CellINS1_19TimeAndIntervalSpecEEEtEE
	.section	.data.rel.ro._ZTIN7openpal5ArrayIN8opendnp34CellINS1_19TimeAndIntervalSpecEEEtEE,"awG",@progbits,_ZTIN7openpal5ArrayIN8opendnp34CellINS1_19TimeAndIntervalSpecEEEtEE,comdat
	.align 8
	.type	_ZTIN7openpal5ArrayIN8opendnp34CellINS1_19TimeAndIntervalSpecEEEtEE, @object
	.size	_ZTIN7openpal5ArrayIN8opendnp34CellINS1_19TimeAndIntervalSpecEEEtEE, 40
_ZTIN7openpal5ArrayIN8opendnp34CellINS1_19TimeAndIntervalSpecEEEtEE:
	.quad	_ZTVN10__cxxabiv121__vmi_class_type_infoE+16
	.quad	_ZTSN7openpal5ArrayIN8opendnp34CellINS1_19TimeAndIntervalSpecEEEtEE
	.long	0
	.long	1
	.quad	_ZTIN7openpal7HasSizeItEE
	.quad	2050
	.weak	_ZTIN7openpal5ArrayINS_8ListNodeIN8opendnp39SOERecordEEEjEE
	.section	.data.rel.ro._ZTIN7openpal5ArrayINS_8ListNodeIN8opendnp39SOERecordEEEjEE,"awG",@progbits,_ZTIN7openpal5ArrayINS_8ListNodeIN8opendnp39SOERecordEEEjEE,comdat
	.align 8
	.type	_ZTIN7openpal5ArrayINS_8ListNodeIN8opendnp39SOERecordEEEjEE, @object
	.size	_ZTIN7openpal5ArrayINS_8ListNodeIN8opendnp39SOERecordEEEjEE, 40
_ZTIN7openpal5ArrayINS_8ListNodeIN8opendnp39SOERecordEEEjEE:
	.quad	_ZTVN10__cxxabiv121__vmi_class_type_infoE+16
	.quad	_ZTSN7openpal5ArrayINS_8ListNodeIN8opendnp39SOERecordEEEjEE
	.long	0
	.long	1
	.quad	_ZTIN7openpal7HasSizeIjEE
	.quad	2050
	.weak	_ZTSN8opendnp38OContextE
	.section	.rodata._ZTSN8opendnp38OContextE,"aG",@progbits,_ZTSN8opendnp38OContextE,comdat
	.align 16
	.type	_ZTSN8opendnp38OContextE, @object
	.size	_ZTSN8opendnp38OContextE, 21
_ZTSN8opendnp38OContextE:
	.string	"N8opendnp38OContextE"
	.weak	_ZTIN8opendnp38OContextE
	.section	.data.rel.ro._ZTIN8opendnp38OContextE,"awG",@progbits,_ZTIN8opendnp38OContextE,comdat
	.align 8
	.type	_ZTIN8opendnp38OContextE, @object
	.size	_ZTIN8opendnp38OContextE, 24
_ZTIN8opendnp38OContextE:
	.quad	_ZTVN10__cxxabiv120__si_class_type_infoE+16
	.quad	_ZTSN8opendnp38OContextE
	.quad	_ZTIN8opendnp311IUpperLayerE
	.weak	_ZTSN8opendnp314ICommandActionE
	.section	.rodata._ZTSN8opendnp314ICommandActionE,"aG",@progbits,_ZTSN8opendnp314ICommandActionE,comdat
	.align 16
	.type	_ZTSN8opendnp314ICommandActionE, @object
	.size	_ZTSN8opendnp314ICommandActionE, 28
_ZTSN8opendnp314ICommandActionE:
	.string	"N8opendnp314ICommandActionE"
	.weak	_ZTIN8opendnp314ICommandActionE
	.section	.data.rel.ro._ZTIN8opendnp314ICommandActionE,"awG",@progbits,_ZTIN8opendnp314ICommandActionE,comdat
	.align 8
	.type	_ZTIN8opendnp314ICommandActionE, @object
	.size	_ZTIN8opendnp314ICommandActionE, 16
_ZTIN8opendnp314ICommandActionE:
	.quad	_ZTVN10__cxxabiv117__class_type_infoE+16
	.quad	_ZTSN8opendnp314ICommandActionE
	.weak	_ZTSN8opendnp321ConstantCommandActionE
	.section	.rodata._ZTSN8opendnp321ConstantCommandActionE,"aG",@progbits,_ZTSN8opendnp321ConstantCommandActionE,comdat
	.align 32
	.type	_ZTSN8opendnp321ConstantCommandActionE, @object
	.size	_ZTSN8opendnp321ConstantCommandActionE, 35
_ZTSN8opendnp321ConstantCommandActionE:
	.string	"N8opendnp321ConstantCommandActionE"
	.weak	_ZTIN8opendnp321ConstantCommandActionE
	.section	.data.rel.ro._ZTIN8opendnp321ConstantCommandActionE,"awG",@progbits,_ZTIN8opendnp321ConstantCommandActionE,comdat
	.align 8
	.type	_ZTIN8opendnp321ConstantCommandActionE, @object
	.size	_ZTIN8opendnp321ConstantCommandActionE, 24
_ZTIN8opendnp321ConstantCommandActionE:
	.quad	_ZTVN10__cxxabiv120__si_class_type_infoE+16
	.quad	_ZTSN8opendnp321ConstantCommandActionE
	.quad	_ZTIN8opendnp314ICommandActionE
	.section	.data.rel.ro,"aw"
	.align 8
	.type	_ZTIZN7openpal8TimerRef7RestartIZN8opendnp38OContext19RestartConfirmTimerEvEUlvE_EEvRKNS_12TimeDurationERKT_EUlvE_, @object
	.size	_ZTIZN7openpal8TimerRef7RestartIZN8opendnp38OContext19RestartConfirmTimerEvEUlvE_EEvRKNS_12TimeDurationERKT_EUlvE_, 16
_ZTIZN7openpal8TimerRef7RestartIZN8opendnp38OContext19RestartConfirmTimerEvEUlvE_EEvRKNS_12TimeDurationERKT_EUlvE_:
	.quad	_ZTVN10__cxxabiv117__class_type_infoE+16
	.quad	_ZTSZN7openpal8TimerRef7RestartIZN8opendnp38OContext19RestartConfirmTimerEvEUlvE_EEvRKNS_12TimeDurationERKT_EUlvE_
	.section	.rodata
	.align 32
	.type	_ZTSZN7openpal8TimerRef7RestartIZN8opendnp38OContext19RestartConfirmTimerEvEUlvE_EEvRKNS_12TimeDurationERKT_EUlvE_, @object
	.size	_ZTSZN7openpal8TimerRef7RestartIZN8opendnp38OContext19RestartConfirmTimerEvEUlvE_EEvRKNS_12TimeDurationERKT_EUlvE_, 112
_ZTSZN7openpal8TimerRef7RestartIZN8opendnp38OContext19RestartConfirmTimerEvEUlvE_EEvRKNS_12TimeDurationERKT_EUlvE_:
	.string	"*ZN7openpal8TimerRef7RestartIZN8opendnp38OContext19RestartConfirmTimerEvEUlvE_EEvRKNS_12TimeDurationERKT_EUlvE_"
	.weak	_ZTVN7openpal5ArrayIhjEE
	.section	.data.rel.ro._ZTVN7openpal5ArrayIhjEE,"awG",@progbits,_ZTVN7openpal5ArrayIhjEE,comdat
	.align 8
	.type	_ZTVN7openpal5ArrayIhjEE, @object
	.size	_ZTVN7openpal5ArrayIhjEE, 32
_ZTVN7openpal5ArrayIhjEE:
	.quad	0
	.quad	_ZTIN7openpal5ArrayIhjEE
	.quad	_ZN7openpal5ArrayIhjED1Ev
	.quad	_ZN7openpal5ArrayIhjED0Ev
	.weak	_ZTVN7openpal5ArrayIN8opendnp34CellINS1_10BinarySpecEEEtEE
	.section	.data.rel.ro._ZTVN7openpal5ArrayIN8opendnp34CellINS1_10BinarySpecEEEtEE,"awG",@progbits,_ZTVN7openpal5ArrayIN8opendnp34CellINS1_10BinarySpecEEEtEE,comdat
	.align 8
	.type	_ZTVN7openpal5ArrayIN8opendnp34CellINS1_10BinarySpecEEEtEE, @object
	.size	_ZTVN7openpal5ArrayIN8opendnp34CellINS1_10BinarySpecEEEtEE, 32
_ZTVN7openpal5ArrayIN8opendnp34CellINS1_10BinarySpecEEEtEE:
	.quad	0
	.quad	_ZTIN7openpal5ArrayIN8opendnp34CellINS1_10BinarySpecEEEtEE
	.quad	_ZN7openpal5ArrayIN8opendnp34CellINS1_10BinarySpecEEEtED1Ev
	.quad	_ZN7openpal5ArrayIN8opendnp34CellINS1_10BinarySpecEEEtED0Ev
	.weak	_ZTVN7openpal5ArrayIN8opendnp34CellINS1_19DoubleBitBinarySpecEEEtEE
	.section	.data.rel.ro._ZTVN7openpal5ArrayIN8opendnp34CellINS1_19DoubleBitBinarySpecEEEtEE,"awG",@progbits,_ZTVN7openpal5ArrayIN8opendnp34CellINS1_19DoubleBitBinarySpecEEEtEE,comdat
	.align 8
	.type	_ZTVN7openpal5ArrayIN8opendnp34CellINS1_19DoubleBitBinarySpecEEEtEE, @object
	.size	_ZTVN7openpal5ArrayIN8opendnp34CellINS1_19DoubleBitBinarySpecEEEtEE, 32
_ZTVN7openpal5ArrayIN8opendnp34CellINS1_19DoubleBitBinarySpecEEEtEE:
	.quad	0
	.quad	_ZTIN7openpal5ArrayIN8opendnp34CellINS1_19DoubleBitBinarySpecEEEtEE
	.quad	_ZN7openpal5ArrayIN8opendnp34CellINS1_19DoubleBitBinarySpecEEEtED1Ev
	.quad	_ZN7openpal5ArrayIN8opendnp34CellINS1_19DoubleBitBinarySpecEEEtED0Ev
	.weak	_ZTVN7openpal5ArrayIN8opendnp34CellINS1_10AnalogSpecEEEtEE
	.section	.data.rel.ro._ZTVN7openpal5ArrayIN8opendnp34CellINS1_10AnalogSpecEEEtEE,"awG",@progbits,_ZTVN7openpal5ArrayIN8opendnp34CellINS1_10AnalogSpecEEEtEE,comdat
	.align 8
	.type	_ZTVN7openpal5ArrayIN8opendnp34CellINS1_10AnalogSpecEEEtEE, @object
	.size	_ZTVN7openpal5ArrayIN8opendnp34CellINS1_10AnalogSpecEEEtEE, 32
_ZTVN7openpal5ArrayIN8opendnp34CellINS1_10AnalogSpecEEEtEE:
	.quad	0
	.quad	_ZTIN7openpal5ArrayIN8opendnp34CellINS1_10AnalogSpecEEEtEE
	.quad	_ZN7openpal5ArrayIN8opendnp34CellINS1_10AnalogSpecEEEtED1Ev
	.quad	_ZN7openpal5ArrayIN8opendnp34CellINS1_10AnalogSpecEEEtED0Ev
	.weak	_ZTVN7openpal5ArrayIN8opendnp34CellINS1_11CounterSpecEEEtEE
	.section	.data.rel.ro._ZTVN7openpal5ArrayIN8opendnp34CellINS1_11CounterSpecEEEtEE,"awG",@progbits,_ZTVN7openpal5ArrayIN8opendnp34CellINS1_11CounterSpecEEEtEE,comdat
	.align 8
	.type	_ZTVN7openpal5ArrayIN8opendnp34CellINS1_11CounterSpecEEEtEE, @object
	.size	_ZTVN7openpal5ArrayIN8opendnp34CellINS1_11CounterSpecEEEtEE, 32
_ZTVN7openpal5ArrayIN8opendnp34CellINS1_11CounterSpecEEEtEE:
	.quad	0
	.quad	_ZTIN7openpal5ArrayIN8opendnp34CellINS1_11CounterSpecEEEtEE
	.quad	_ZN7openpal5ArrayIN8opendnp34CellINS1_11CounterSpecEEEtED1Ev
	.quad	_ZN7openpal5ArrayIN8opendnp34CellINS1_11CounterSpecEEEtED0Ev
	.weak	_ZTVN7openpal5ArrayIN8opendnp34CellINS1_17FrozenCounterSpecEEEtEE
	.section	.data.rel.ro._ZTVN7openpal5ArrayIN8opendnp34CellINS1_17FrozenCounterSpecEEEtEE,"awG",@progbits,_ZTVN7openpal5ArrayIN8opendnp34CellINS1_17FrozenCounterSpecEEEtEE,comdat
	.align 8
	.type	_ZTVN7openpal5ArrayIN8opendnp34CellINS1_17FrozenCounterSpecEEEtEE, @object
	.size	_ZTVN7openpal5ArrayIN8opendnp34CellINS1_17FrozenCounterSpecEEEtEE, 32
_ZTVN7openpal5ArrayIN8opendnp34CellINS1_17FrozenCounterSpecEEEtEE:
	.quad	0
	.quad	_ZTIN7openpal5ArrayIN8opendnp34CellINS1_17FrozenCounterSpecEEEtEE
	.quad	_ZN7openpal5ArrayIN8opendnp34CellINS1_17FrozenCounterSpecEEEtED1Ev
	.quad	_ZN7openpal5ArrayIN8opendnp34CellINS1_17FrozenCounterSpecEEEtED0Ev
	.weak	_ZTVN7openpal5ArrayIN8opendnp34CellINS1_22BinaryOutputStatusSpecEEEtEE
	.section	.data.rel.ro._ZTVN7openpal5ArrayIN8opendnp34CellINS1_22BinaryOutputStatusSpecEEEtEE,"awG",@progbits,_ZTVN7openpal5ArrayIN8opendnp34CellINS1_22BinaryOutputStatusSpecEEEtEE,comdat
	.align 8
	.type	_ZTVN7openpal5ArrayIN8opendnp34CellINS1_22BinaryOutputStatusSpecEEEtEE, @object
	.size	_ZTVN7openpal5ArrayIN8opendnp34CellINS1_22BinaryOutputStatusSpecEEEtEE, 32
_ZTVN7openpal5ArrayIN8opendnp34CellINS1_22BinaryOutputStatusSpecEEEtEE:
	.quad	0
	.quad	_ZTIN7openpal5ArrayIN8opendnp34CellINS1_22BinaryOutputStatusSpecEEEtEE
	.quad	_ZN7openpal5ArrayIN8opendnp34CellINS1_22BinaryOutputStatusSpecEEEtED1Ev
	.quad	_ZN7openpal5ArrayIN8opendnp34CellINS1_22BinaryOutputStatusSpecEEEtED0Ev
	.weak	_ZTVN7openpal5ArrayIN8opendnp34CellINS1_22AnalogOutputStatusSpecEEEtEE
	.section	.data.rel.ro._ZTVN7openpal5ArrayIN8opendnp34CellINS1_22AnalogOutputStatusSpecEEEtEE,"awG",@progbits,_ZTVN7openpal5ArrayIN8opendnp34CellINS1_22AnalogOutputStatusSpecEEEtEE,comdat
	.align 8
	.type	_ZTVN7openpal5ArrayIN8opendnp34CellINS1_22AnalogOutputStatusSpecEEEtEE, @object
	.size	_ZTVN7openpal5ArrayIN8opendnp34CellINS1_22AnalogOutputStatusSpecEEEtEE, 32
_ZTVN7openpal5ArrayIN8opendnp34CellINS1_22AnalogOutputStatusSpecEEEtEE:
	.quad	0
	.quad	_ZTIN7openpal5ArrayIN8opendnp34CellINS1_22AnalogOutputStatusSpecEEEtEE
	.quad	_ZN7openpal5ArrayIN8opendnp34CellINS1_22AnalogOutputStatusSpecEEEtED1Ev
	.quad	_ZN7openpal5ArrayIN8opendnp34CellINS1_22AnalogOutputStatusSpecEEEtED0Ev
	.weak	_ZTVN7openpal5ArrayIN8opendnp34CellINS1_19TimeAndIntervalSpecEEEtEE
	.section	.data.rel.ro._ZTVN7openpal5ArrayIN8opendnp34CellINS1_19TimeAndIntervalSpecEEEtEE,"awG",@progbits,_ZTVN7openpal5ArrayIN8opendnp34CellINS1_19TimeAndIntervalSpecEEEtEE,comdat
	.align 8
	.type	_ZTVN7openpal5ArrayIN8opendnp34CellINS1_19TimeAndIntervalSpecEEEtEE, @object
	.size	_ZTVN7openpal5ArrayIN8opendnp34CellINS1_19TimeAndIntervalSpecEEEtEE, 32
_ZTVN7openpal5ArrayIN8opendnp34CellINS1_19TimeAndIntervalSpecEEEtEE:
	.quad	0
	.quad	_ZTIN7openpal5ArrayIN8opendnp34CellINS1_19TimeAndIntervalSpecEEEtEE
	.quad	_ZN7openpal5ArrayIN8opendnp34CellINS1_19TimeAndIntervalSpecEEEtED1Ev
	.quad	_ZN7openpal5ArrayIN8opendnp34CellINS1_19TimeAndIntervalSpecEEEtED0Ev
	.weak	_ZTVN7openpal5ArrayINS_8ListNodeIN8opendnp39SOERecordEEEjEE
	.section	.data.rel.ro._ZTVN7openpal5ArrayINS_8ListNodeIN8opendnp39SOERecordEEEjEE,"awG",@progbits,_ZTVN7openpal5ArrayINS_8ListNodeIN8opendnp39SOERecordEEEjEE,comdat
	.align 8
	.type	_ZTVN7openpal5ArrayINS_8ListNodeIN8opendnp39SOERecordEEEjEE, @object
	.size	_ZTVN7openpal5ArrayINS_8ListNodeIN8opendnp39SOERecordEEEjEE, 32
_ZTVN7openpal5ArrayINS_8ListNodeIN8opendnp39SOERecordEEEjEE:
	.quad	0
	.quad	_ZTIN7openpal5ArrayINS_8ListNodeIN8opendnp39SOERecordEEEjEE
	.quad	_ZN7openpal5ArrayINS_8ListNodeIN8opendnp39SOERecordEEEjED1Ev
	.quad	_ZN7openpal5ArrayINS_8ListNodeIN8opendnp39SOERecordEEEjED0Ev
	.weak	_ZTVN8opendnp321ConstantCommandActionE
	.section	.data.rel.ro._ZTVN8opendnp321ConstantCommandActionE,"awG",@progbits,_ZTVN8opendnp321ConstantCommandActionE,comdat
	.align 8
	.type	_ZTVN8opendnp321ConstantCommandActionE, @object
	.size	_ZTVN8opendnp321ConstantCommandActionE, 72
_ZTVN8opendnp321ConstantCommandActionE:
	.quad	0
	.quad	_ZTIN8opendnp321ConstantCommandActionE
	.quad	_ZN8opendnp321ConstantCommandActionD1Ev
	.quad	_ZN8opendnp321ConstantCommandActionD0Ev
	.quad	_ZN8opendnp321ConstantCommandAction6ActionERKNS_23ControlRelayOutputBlockEt
	.quad	_ZN8opendnp321ConstantCommandAction6ActionERKNS_17AnalogOutputInt16Et
	.quad	_ZN8opendnp321ConstantCommandAction6ActionERKNS_17AnalogOutputInt32Et
	.quad	_ZN8opendnp321ConstantCommandAction6ActionERKNS_19AnalogOutputFloat32Et
	.quad	_ZN8opendnp321ConstantCommandAction6ActionERKNS_20AnalogOutputDouble64Et
	.weak	_ZTVN8opendnp38OContextE
	.section	.data.rel.ro._ZTVN8opendnp38OContextE,"awG",@progbits,_ZTVN8opendnp38OContextE,comdat
	.align 8
	.type	_ZTVN8opendnp38OContextE, @object
	.size	_ZTVN8opendnp38OContextE, 64
_ZTVN8opendnp38OContextE:
	.quad	0
	.quad	_ZTIN8opendnp38OContextE
	.quad	_ZN8opendnp38OContextD1Ev
	.quad	_ZN8opendnp38OContextD0Ev
	.quad	_ZN8opendnp38OContext14OnLowerLayerUpEv
	.quad	_ZN8opendnp38OContext16OnLowerLayerDownEv
	.quad	_ZN8opendnp38OContext9OnReceiveERKN7openpal6RSliceE
	.quad	_ZN8opendnp38OContext12OnSendResultEb
	.hidden	DW.ref.__gxx_personality_v0
	.weak	DW.ref.__gxx_personality_v0
	.section	.data.rel.local.DW.ref.__gxx_personality_v0,"awG",@progbits,DW.ref.__gxx_personality_v0,comdat
	.align 8
	.type	DW.ref.__gxx_personality_v0, @object
	.size	DW.ref.__gxx_personality_v0, 8
DW.ref.__gxx_personality_v0:
	.quad	__gxx_personality_v0
	.ident	"GCC: (Ubuntu 11.4.0-1ubuntu1~22.04) 11.4.0"
	.section	.note.GNU-stack,"",@progbits
	.section	.note.gnu.property,"a"
	.align 8
	.long	1f - 0f
	.long	4f - 1f
	.long	5
0:
	.string	"GNU"
1:
	.align 8
	.long	0xc0000002
	.long	3f - 2f
2:
	.long	0x3
3:
	.align 8
4:
