	.file	"RequestHistory.cpp"
	.text
	.align 2
	.p2align 4
	.globl	_ZN8opendnp314RequestHistoryC2Ev
	.type	_ZN8opendnp314RequestHistoryC2Ev, @function
_ZN8opendnp314RequestHistoryC2Ev:
.LFB49:
	.cfi_startproc
	endbr64
	movl	$-256, %eax
	pushq	%rbx
	.cfi_def_cfa_offset 16
	.cfi_offset 3, -16
	movl	$1, %edx
	movq	%rdi, %rbx
	movw	%ax, (%rdi)
	xorl	%r9d, %r9d
	leaq	2(%rdi), %rdi
	xorl	%r8d, %r8d
	xorl	%ecx, %ecx
	movl	$1, %esi
	call	_ZN8opendnp315AppControlFieldC1Ebbbbh@PLT
	xorl	%edx, %edx
	movl	$0, 12(%rbx)
	movw	%dx, 8(%rbx)
	popq	%rbx
	.cfi_def_cfa_offset 8
	ret
	.cfi_endproc
.LFE49:
	.size	_ZN8opendnp314RequestHistoryC2Ev, .-_ZN8opendnp314RequestHistoryC2Ev
	.globl	_ZN8opendnp314RequestHistoryC1Ev
	.set	_ZN8opendnp314RequestHistoryC1Ev,_ZN8opendnp314RequestHistoryC2Ev
	.align 2
	.p2align 4
	.globl	_ZN8opendnp314RequestHistory5ResetEv
	.type	_ZN8opendnp314RequestHistory5ResetEv, @function
_ZN8opendnp314RequestHistory5ResetEv:
.LFB51:
	.cfi_startproc
	endbr64
	movb	$0, (%rdi)
	ret
	.cfi_endproc
.LFE51:
	.size	_ZN8opendnp314RequestHistory5ResetEv, .-_ZN8opendnp314RequestHistory5ResetEv
	.align 2
	.p2align 4
	.globl	_ZN8opendnp314RequestHistory26RecordLastProcessedRequestERKNS_10APDUHeaderERKN7openpal6RSliceE
	.type	_ZN8opendnp314RequestHistory26RecordLastProcessedRequestERKNS_10APDUHeaderERKN7openpal6RSliceE, @function
_ZN8opendnp314RequestHistory26RecordLastProcessedRequestERKNS_10APDUHeaderERKN7openpal6RSliceE:
.LFB52:
	.cfi_startproc
	endbr64
	movl	(%rsi), %eax
	pushq	%rbx
	.cfi_def_cfa_offset 16
	.cfi_offset 3, -16
	movq	%rdi, %rbx
	movq	%rdx, %rdi
	movb	$1, (%rbx)
	movl	%eax, 1(%rbx)
	movzwl	4(%rsi), %eax
	movw	%ax, 5(%rbx)
	movl	(%rdx), %eax
	movl	%eax, 12(%rbx)
	call	_ZN8opendnp33CRC7CalcCrcERKN7openpal6RSliceE@PLT
	movw	%ax, 8(%rbx)
	popq	%rbx
	.cfi_def_cfa_offset 8
	ret
	.cfi_endproc
.LFE52:
	.size	_ZN8opendnp314RequestHistory26RecordLastProcessedRequestERKNS_10APDUHeaderERKN7openpal6RSliceE, .-_ZN8opendnp314RequestHistory26RecordLastProcessedRequestERKNS_10APDUHeaderERKN7openpal6RSliceE
	.align 2
	.p2align 4
	.globl	_ZNK8opendnp314RequestHistory13GetLastHeaderEv
	.type	_ZNK8opendnp314RequestHistory13GetLastHeaderEv, @function
_ZNK8opendnp314RequestHistory13GetLastHeaderEv:
.LFB54:
	.cfi_startproc
	endbr64
	subq	$24, %rsp
	.cfi_def_cfa_offset 32
	movq	%fs:40, %rax
	movq	%rax, 8(%rsp)
	xorl	%eax, %eax
	cmpb	$0, (%rdi)
	je	.L8
	movl	1(%rdi), %eax
	movl	%eax, 2(%rsp)
	movzwl	5(%rdi), %eax
	movw	%ax, 6(%rsp)
.L9:
	movzwl	6(%rsp), %edx
	movl	2(%rsp), %eax
	salq	$32, %rdx
	orq	%rdx, %rax
	movq	8(%rsp), %rdx
	subq	%fs:40, %rdx
	jne	.L12
	addq	$24, %rsp
	.cfi_remember_state
	.cfi_def_cfa_offset 8
	ret
	.p2align 4,,10
	.p2align 3
.L8:
	.cfi_restore_state
	leaq	3(%rsp), %rdi
	xorl	%r9d, %r9d
	xorl	%r8d, %r8d
	xorl	%ecx, %ecx
	movl	$1, %edx
	movl	$1, %esi
	movb	$-1, 2(%rsp)
	call	_ZN8opendnp315AppControlFieldC1Ebbbbh@PLT
	jmp	.L9
.L12:
	call	__stack_chk_fail@PLT
	.cfi_endproc
.LFE54:
	.size	_ZNK8opendnp314RequestHistory13GetLastHeaderEv, .-_ZNK8opendnp314RequestHistory13GetLastHeaderEv
	.align 2
	.p2align 4
	.globl	_ZNK8opendnp314RequestHistory17EqualsLastObjectsERKN7openpal6RSliceE
	.type	_ZNK8opendnp314RequestHistory17EqualsLastObjectsERKN7openpal6RSliceE, @function
_ZNK8opendnp314RequestHistory17EqualsLastObjectsERKN7openpal6RSliceE:
.LFB55:
	.cfi_startproc
	endbr64
	movzbl	(%rdi), %r8d
	testb	%r8b, %r8b
	je	.L20
	movl	(%rsi), %edx
	xorl	%r8d, %r8d
	cmpl	%edx, 12(%rdi)
	je	.L23
.L20:
	movl	%r8d, %eax
	ret
	.p2align 4,,10
	.p2align 3
.L23:
	pushq	%rbx
	.cfi_def_cfa_offset 16
	.cfi_offset 3, -16
	movzwl	8(%rdi), %ebx
	movq	%rsi, %rdi
	call	_ZN8opendnp33CRC7CalcCrcERKN7openpal6RSliceE@PLT
	cmpw	%ax, %bx
	popq	%rbx
	.cfi_def_cfa_offset 8
	sete	%r8b
	movl	%r8d, %eax
	ret
	.cfi_endproc
.LFE55:
	.size	_ZNK8opendnp314RequestHistory17EqualsLastObjectsERKN7openpal6RSliceE, .-_ZNK8opendnp314RequestHistory17EqualsLastObjectsERKN7openpal6RSliceE
	.align 2
	.p2align 4
	.globl	_ZNK8opendnp314RequestHistory22FullyEqualsLastRequestERKNS_10APDUHeaderERKN7openpal6RSliceE
	.type	_ZNK8opendnp314RequestHistory22FullyEqualsLastRequestERKNS_10APDUHeaderERKN7openpal6RSliceE, @function
_ZNK8opendnp314RequestHistory22FullyEqualsLastRequestERKNS_10APDUHeaderERKN7openpal6RSliceE:
.LFB53:
	.cfi_startproc
	endbr64
	pushq	%r12
	.cfi_def_cfa_offset 16
	.cfi_offset 12, -16
	pushq	%rbp
	.cfi_def_cfa_offset 24
	.cfi_offset 6, -24
	movq	%rdi, %rbp
	pushq	%rbx
	.cfi_def_cfa_offset 32
	.cfi_offset 3, -32
	movzbl	1(%rdi), %eax
	cmpb	%al, (%rsi)
	je	.L29
.L26:
	popq	%rbx
	.cfi_remember_state
	.cfi_def_cfa_offset 24
	xorl	%eax, %eax
	popq	%rbp
	.cfi_def_cfa_offset 16
	popq	%r12
	.cfi_def_cfa_offset 8
	ret
	.p2align 4,,10
	.p2align 3
.L29:
	.cfi_restore_state
	movq	%rsi, %rdi
	movq	%rdx, %r12
	addq	$1, %rdi
	call	_ZNK8opendnp315AppControlField6ToByteEv@PLT
	leaq	2(%rbp), %rdi
	movl	%eax, %ebx
	call	_ZNK8opendnp315AppControlField6ToByteEv@PLT
	cmpb	%al, %bl
	jne	.L26
	popq	%rbx
	.cfi_def_cfa_offset 24
	movq	%r12, %rsi
	movq	%rbp, %rdi
	popq	%rbp
	.cfi_def_cfa_offset 16
	popq	%r12
	.cfi_def_cfa_offset 8
	jmp	_ZNK8opendnp314RequestHistory17EqualsLastObjectsERKN7openpal6RSliceE@PLT
	.cfi_endproc
.LFE53:
	.size	_ZNK8opendnp314RequestHistory22FullyEqualsLastRequestERKNS_10APDUHeaderERKN7openpal6RSliceE, .-_ZNK8opendnp314RequestHistory22FullyEqualsLastRequestERKNS_10APDUHeaderERKN7openpal6RSliceE
	.ident	"GCC: (Ubuntu 11.4.0-1ubuntu1~22.04) 11.4.0"
	.section	.note.GNU-stack,"",@progbits
	.section	.note.gnu.property,"a"
	.align 8
	.long	1f - 0f
	.long	4f - 1f
	.long	5
0:
	.string	"GNU"
1:
	.align 8
	.long	0xc0000002
	.long	3f - 2f
2:
	.long	0x3
3:
	.align 8
4:
