	.file	"ResponseContext.cpp"
	.text
	.align 2
	.p2align 4
	.globl	_ZN8opendnp315ResponseContextC2ERNS_15IResponseLoaderES2_
	.type	_ZN8opendnp315ResponseContextC2ERNS_15IResponseLoaderES2_, @function
_ZN8opendnp315ResponseContextC2ERNS_15IResponseLoaderES2_:
.LFB184:
	.cfi_startproc
	endbr64
	movq	%rsi, %xmm0
	movq	%rdx, %xmm1
	xorl	%eax, %eax
	punpcklqdq	%xmm1, %xmm0
	movw	%ax, (%rdi)
	movups	%xmm0, 8(%rdi)
	ret
	.cfi_endproc
.LFE184:
	.size	_ZN8opendnp315ResponseContextC2ERNS_15IResponseLoaderES2_, .-_ZN8opendnp315ResponseContextC2ERNS_15IResponseLoaderES2_
	.globl	_ZN8opendnp315ResponseContextC1ERNS_15IResponseLoaderES2_
	.set	_ZN8opendnp315ResponseContextC1ERNS_15IResponseLoaderES2_,_ZN8opendnp315ResponseContextC2ERNS_15IResponseLoaderES2_
	.align 2
	.p2align 4
	.globl	_ZNK8opendnp315ResponseContext12HasSelectionEv
	.type	_ZNK8opendnp315ResponseContext12HasSelectionEv, @function
_ZNK8opendnp315ResponseContext12HasSelectionEv:
.LFB186:
	.cfi_startproc
	endbr64
	pushq	%rbx
	.cfi_def_cfa_offset 16
	.cfi_offset 3, -16
	movq	%rdi, %rbx
	movq	8(%rdi), %rdi
	movq	(%rdi), %rax
	call	*(%rax)
	testb	%al, %al
	jne	.L3
	movq	16(%rbx), %rdi
	popq	%rbx
	.cfi_remember_state
	.cfi_def_cfa_offset 8
	movq	(%rdi), %rax
	movq	(%rax), %rax
	jmp	*%rax
	.p2align 4,,10
	.p2align 3
.L3:
	.cfi_restore_state
	popq	%rbx
	.cfi_def_cfa_offset 8
	ret
	.cfi_endproc
.LFE186:
	.size	_ZNK8opendnp315ResponseContext12HasSelectionEv, .-_ZNK8opendnp315ResponseContext12HasSelectionEv
	.align 2
	.p2align 4
	.globl	_ZN8opendnp315ResponseContext5ResetEv
	.type	_ZN8opendnp315ResponseContext5ResetEv, @function
_ZN8opendnp315ResponseContext5ResetEv:
.LFB187:
	.cfi_startproc
	endbr64
	xorl	%eax, %eax
	movw	%ax, (%rdi)
	ret
	.cfi_endproc
.LFE187:
	.size	_ZN8opendnp315ResponseContext5ResetEv, .-_ZN8opendnp315ResponseContext5ResetEv
	.align 2
	.p2align 4
	.globl	_ZN8opendnp315ResponseContext12LoadResponseERNS_12HeaderWriterE
	.type	_ZN8opendnp315ResponseContext12LoadResponseERNS_12HeaderWriterE, @function
_ZN8opendnp315ResponseContext12LoadResponseERNS_12HeaderWriterE:
.LFB188:
	.cfi_startproc
	endbr64
	pushq	%r15
	.cfi_def_cfa_offset 16
	.cfi_offset 15, -16
	pushq	%r14
	.cfi_def_cfa_offset 24
	.cfi_offset 14, -24
	pushq	%r13
	.cfi_def_cfa_offset 32
	.cfi_offset 13, -32
	pushq	%r12
	.cfi_def_cfa_offset 40
	.cfi_offset 12, -40
	pushq	%rbp
	.cfi_def_cfa_offset 48
	.cfi_offset 6, -48
	movq	%rsi, %rbp
	pushq	%rbx
	.cfi_def_cfa_offset 56
	.cfi_offset 3, -56
	movq	%rdi, %rbx
	subq	$40, %rsp
	.cfi_def_cfa_offset 96
	movzwl	(%rdi), %r12d
	movq	%fs:40, %rax
	movq	%rax, 24(%rsp)
	xorl	%eax, %eax
	leal	1(%r12), %eax
	movw	%ax, (%rdi)
	movq	%rsi, %rdi
	call	_ZNK8opendnp312HeaderWriter9RemainingEv@PLT
	movq	16(%rbx), %rdi
	movq	%rbp, %rsi
	movl	%eax, %r13d
	movq	(%rdi), %rax
	call	*8(%rax)
	movq	%rbp, %rdi
	movl	%eax, %r14d
	call	_ZNK8opendnp312HeaderWriter9RemainingEv@PLT
	testw	%r12w, %r12w
	sete	%r12b
	movzbl	%r12b, %r12d
	testb	%r14b, %r14b
	je	.L8
	movq	8(%rbx), %rdi
	movl	%eax, %r15d
	movq	%rbp, %rsi
	movq	(%rdi), %rax
	call	*8(%rax)
	leaq	14(%rsp), %rdi
	movl	%eax, %ecx
	xorl	$1, %ecx
	cmpl	%r15d, %r13d
	seta	%dl
	xorl	%r9d, %r9d
	xorl	%r8d, %r8d
	orl	%edx, %ecx
	movzbl	%al, %edx
	movzbl	%cl, %ecx
.L12:
	movl	%r12d, %esi
	call	_ZN8opendnp315AppControlFieldC1Ebbbbh@PLT
	movl	14(%rsp), %eax
	movl	%eax, 19(%rsp)
	movzbl	18(%rsp), %eax
	movb	%al, 23(%rsp)
	movzbl	23(%rsp), %edx
	movl	19(%rsp), %eax
	salq	$32, %rdx
	orq	%rdx, %rax
	movq	24(%rsp), %rdx
	subq	%fs:40, %rdx
	jne	.L13
	addq	$40, %rsp
	.cfi_remember_state
	.cfi_def_cfa_offset 56
	popq	%rbx
	.cfi_def_cfa_offset 48
	popq	%rbp
	.cfi_def_cfa_offset 40
	popq	%r12
	.cfi_def_cfa_offset 32
	popq	%r13
	.cfi_def_cfa_offset 24
	popq	%r14
	.cfi_def_cfa_offset 16
	popq	%r15
	.cfi_def_cfa_offset 8
	ret
	.p2align 4,,10
	.p2align 3
.L8:
	.cfi_restore_state
	leaq	14(%rsp), %rdi
	xorl	%r9d, %r9d
	xorl	%r8d, %r8d
	movl	$1, %ecx
	xorl	%edx, %edx
	jmp	.L12
.L13:
	call	__stack_chk_fail@PLT
	.cfi_endproc
.LFE188:
	.size	_ZN8opendnp315ResponseContext12LoadResponseERNS_12HeaderWriterE, .-_ZN8opendnp315ResponseContext12LoadResponseERNS_12HeaderWriterE
	.ident	"GCC: (Ubuntu 11.4.0-1ubuntu1~22.04) 11.4.0"
	.section	.note.GNU-stack,"",@progbits
	.section	.note.gnu.property,"a"
	.align 8
	.long	1f - 0f
	.long	4f - 1f
	.long	5
0:
	.string	"GNU"
1:
	.align 8
	.long	0xc0000002
	.long	3f - 2f
2:
	.long	0x3
3:
	.align 8
4:
