	.file	"SimpleCommandHandler.cpp"
	.text
	.section	.text._ZN8opendnp320SimpleCommandHandler8DoSelectERKNS_23ControlRelayOutputBlockEt,"axG",@progbits,_ZN8opendnp320SimpleCommandHandler8DoSelectERKNS_23ControlRelayOutputBlockEt,comdat
	.align 2
	.p2align 4
	.weak	_ZN8opendnp320SimpleCommandHandler8DoSelectERKNS_23ControlRelayOutputBlockEt
	.type	_ZN8opendnp320SimpleCommandHandler8DoSelectERKNS_23ControlRelayOutputBlockEt, @function
_ZN8opendnp320SimpleCommandHandler8DoSelectERKNS_23ControlRelayOutputBlockEt:
.LFB1667:
	.cfi_startproc
	endbr64
	ret
	.cfi_endproc
.LFE1667:
	.size	_ZN8opendnp320SimpleCommandHandler8DoSelectERKNS_23ControlRelayOutputBlockEt, .-_ZN8opendnp320SimpleCommandHandler8DoSelectERKNS_23ControlRelayOutputBlockEt
	.section	.text._ZN8opendnp320SimpleCommandHandler9DoOperateERKNS_23ControlRelayOutputBlockEtNS_11OperateTypeE,"axG",@progbits,_ZN8opendnp320SimpleCommandHandler9DoOperateERKNS_23ControlRelayOutputBlockEtNS_11OperateTypeE,comdat
	.align 2
	.p2align 4
	.weak	_ZN8opendnp320SimpleCommandHandler9DoOperateERKNS_23ControlRelayOutputBlockEtNS_11OperateTypeE
	.type	_ZN8opendnp320SimpleCommandHandler9DoOperateERKNS_23ControlRelayOutputBlockEtNS_11OperateTypeE, @function
_ZN8opendnp320SimpleCommandHandler9DoOperateERKNS_23ControlRelayOutputBlockEtNS_11OperateTypeE:
.LFB1668:
	.cfi_startproc
	endbr64
	ret
	.cfi_endproc
.LFE1668:
	.size	_ZN8opendnp320SimpleCommandHandler9DoOperateERKNS_23ControlRelayOutputBlockEtNS_11OperateTypeE, .-_ZN8opendnp320SimpleCommandHandler9DoOperateERKNS_23ControlRelayOutputBlockEtNS_11OperateTypeE
	.section	.text._ZN8opendnp320SimpleCommandHandler8DoSelectERKNS_17AnalogOutputInt16Et,"axG",@progbits,_ZN8opendnp320SimpleCommandHandler8DoSelectERKNS_17AnalogOutputInt16Et,comdat
	.align 2
	.p2align 4
	.weak	_ZN8opendnp320SimpleCommandHandler8DoSelectERKNS_17AnalogOutputInt16Et
	.type	_ZN8opendnp320SimpleCommandHandler8DoSelectERKNS_17AnalogOutputInt16Et, @function
_ZN8opendnp320SimpleCommandHandler8DoSelectERKNS_17AnalogOutputInt16Et:
.LFB1669:
	.cfi_startproc
	endbr64
	ret
	.cfi_endproc
.LFE1669:
	.size	_ZN8opendnp320SimpleCommandHandler8DoSelectERKNS_17AnalogOutputInt16Et, .-_ZN8opendnp320SimpleCommandHandler8DoSelectERKNS_17AnalogOutputInt16Et
	.section	.text._ZN8opendnp320SimpleCommandHandler9DoOperateERKNS_17AnalogOutputInt16EtNS_11OperateTypeE,"axG",@progbits,_ZN8opendnp320SimpleCommandHandler9DoOperateERKNS_17AnalogOutputInt16EtNS_11OperateTypeE,comdat
	.align 2
	.p2align 4
	.weak	_ZN8opendnp320SimpleCommandHandler9DoOperateERKNS_17AnalogOutputInt16EtNS_11OperateTypeE
	.type	_ZN8opendnp320SimpleCommandHandler9DoOperateERKNS_17AnalogOutputInt16EtNS_11OperateTypeE, @function
_ZN8opendnp320SimpleCommandHandler9DoOperateERKNS_17AnalogOutputInt16EtNS_11OperateTypeE:
.LFB1670:
	.cfi_startproc
	endbr64
	ret
	.cfi_endproc
.LFE1670:
	.size	_ZN8opendnp320SimpleCommandHandler9DoOperateERKNS_17AnalogOutputInt16EtNS_11OperateTypeE, .-_ZN8opendnp320SimpleCommandHandler9DoOperateERKNS_17AnalogOutputInt16EtNS_11OperateTypeE
	.section	.text._ZN8opendnp320SimpleCommandHandler8DoSelectERKNS_17AnalogOutputInt32Et,"axG",@progbits,_ZN8opendnp320SimpleCommandHandler8DoSelectERKNS_17AnalogOutputInt32Et,comdat
	.align 2
	.p2align 4
	.weak	_ZN8opendnp320SimpleCommandHandler8DoSelectERKNS_17AnalogOutputInt32Et
	.type	_ZN8opendnp320SimpleCommandHandler8DoSelectERKNS_17AnalogOutputInt32Et, @function
_ZN8opendnp320SimpleCommandHandler8DoSelectERKNS_17AnalogOutputInt32Et:
.LFB1671:
	.cfi_startproc
	endbr64
	ret
	.cfi_endproc
.LFE1671:
	.size	_ZN8opendnp320SimpleCommandHandler8DoSelectERKNS_17AnalogOutputInt32Et, .-_ZN8opendnp320SimpleCommandHandler8DoSelectERKNS_17AnalogOutputInt32Et
	.section	.text._ZN8opendnp320SimpleCommandHandler9DoOperateERKNS_17AnalogOutputInt32EtNS_11OperateTypeE,"axG",@progbits,_ZN8opendnp320SimpleCommandHandler9DoOperateERKNS_17AnalogOutputInt32EtNS_11OperateTypeE,comdat
	.align 2
	.p2align 4
	.weak	_ZN8opendnp320SimpleCommandHandler9DoOperateERKNS_17AnalogOutputInt32EtNS_11OperateTypeE
	.type	_ZN8opendnp320SimpleCommandHandler9DoOperateERKNS_17AnalogOutputInt32EtNS_11OperateTypeE, @function
_ZN8opendnp320SimpleCommandHandler9DoOperateERKNS_17AnalogOutputInt32EtNS_11OperateTypeE:
.LFB1672:
	.cfi_startproc
	endbr64
	ret
	.cfi_endproc
.LFE1672:
	.size	_ZN8opendnp320SimpleCommandHandler9DoOperateERKNS_17AnalogOutputInt32EtNS_11OperateTypeE, .-_ZN8opendnp320SimpleCommandHandler9DoOperateERKNS_17AnalogOutputInt32EtNS_11OperateTypeE
	.section	.text._ZN8opendnp320SimpleCommandHandler8DoSelectERKNS_19AnalogOutputFloat32Et,"axG",@progbits,_ZN8opendnp320SimpleCommandHandler8DoSelectERKNS_19AnalogOutputFloat32Et,comdat
	.align 2
	.p2align 4
	.weak	_ZN8opendnp320SimpleCommandHandler8DoSelectERKNS_19AnalogOutputFloat32Et
	.type	_ZN8opendnp320SimpleCommandHandler8DoSelectERKNS_19AnalogOutputFloat32Et, @function
_ZN8opendnp320SimpleCommandHandler8DoSelectERKNS_19AnalogOutputFloat32Et:
.LFB1673:
	.cfi_startproc
	endbr64
	ret
	.cfi_endproc
.LFE1673:
	.size	_ZN8opendnp320SimpleCommandHandler8DoSelectERKNS_19AnalogOutputFloat32Et, .-_ZN8opendnp320SimpleCommandHandler8DoSelectERKNS_19AnalogOutputFloat32Et
	.section	.text._ZN8opendnp320SimpleCommandHandler9DoOperateERKNS_19AnalogOutputFloat32EtNS_11OperateTypeE,"axG",@progbits,_ZN8opendnp320SimpleCommandHandler9DoOperateERKNS_19AnalogOutputFloat32EtNS_11OperateTypeE,comdat
	.align 2
	.p2align 4
	.weak	_ZN8opendnp320SimpleCommandHandler9DoOperateERKNS_19AnalogOutputFloat32EtNS_11OperateTypeE
	.type	_ZN8opendnp320SimpleCommandHandler9DoOperateERKNS_19AnalogOutputFloat32EtNS_11OperateTypeE, @function
_ZN8opendnp320SimpleCommandHandler9DoOperateERKNS_19AnalogOutputFloat32EtNS_11OperateTypeE:
.LFB1674:
	.cfi_startproc
	endbr64
	ret
	.cfi_endproc
.LFE1674:
	.size	_ZN8opendnp320SimpleCommandHandler9DoOperateERKNS_19AnalogOutputFloat32EtNS_11OperateTypeE, .-_ZN8opendnp320SimpleCommandHandler9DoOperateERKNS_19AnalogOutputFloat32EtNS_11OperateTypeE
	.section	.text._ZN8opendnp320SimpleCommandHandler8DoSelectERKNS_20AnalogOutputDouble64Et,"axG",@progbits,_ZN8opendnp320SimpleCommandHandler8DoSelectERKNS_20AnalogOutputDouble64Et,comdat
	.align 2
	.p2align 4
	.weak	_ZN8opendnp320SimpleCommandHandler8DoSelectERKNS_20AnalogOutputDouble64Et
	.type	_ZN8opendnp320SimpleCommandHandler8DoSelectERKNS_20AnalogOutputDouble64Et, @function
_ZN8opendnp320SimpleCommandHandler8DoSelectERKNS_20AnalogOutputDouble64Et:
.LFB1675:
	.cfi_startproc
	endbr64
	ret
	.cfi_endproc
.LFE1675:
	.size	_ZN8opendnp320SimpleCommandHandler8DoSelectERKNS_20AnalogOutputDouble64Et, .-_ZN8opendnp320SimpleCommandHandler8DoSelectERKNS_20AnalogOutputDouble64Et
	.section	.text._ZN8opendnp320SimpleCommandHandler9DoOperateERKNS_20AnalogOutputDouble64EtNS_11OperateTypeE,"axG",@progbits,_ZN8opendnp320SimpleCommandHandler9DoOperateERKNS_20AnalogOutputDouble64EtNS_11OperateTypeE,comdat
	.align 2
	.p2align 4
	.weak	_ZN8opendnp320SimpleCommandHandler9DoOperateERKNS_20AnalogOutputDouble64EtNS_11OperateTypeE
	.type	_ZN8opendnp320SimpleCommandHandler9DoOperateERKNS_20AnalogOutputDouble64EtNS_11OperateTypeE, @function
_ZN8opendnp320SimpleCommandHandler9DoOperateERKNS_20AnalogOutputDouble64EtNS_11OperateTypeE:
.LFB1676:
	.cfi_startproc
	endbr64
	ret
	.cfi_endproc
.LFE1676:
	.size	_ZN8opendnp320SimpleCommandHandler9DoOperateERKNS_20AnalogOutputDouble64EtNS_11OperateTypeE, .-_ZN8opendnp320SimpleCommandHandler9DoOperateERKNS_20AnalogOutputDouble64EtNS_11OperateTypeE
	.section	.text._ZN8opendnp320SimpleCommandHandlerD2Ev,"axG",@progbits,_ZN8opendnp320SimpleCommandHandlerD5Ev,comdat
	.align 2
	.p2align 4
	.weak	_ZN8opendnp320SimpleCommandHandlerD2Ev
	.type	_ZN8opendnp320SimpleCommandHandlerD2Ev, @function
_ZN8opendnp320SimpleCommandHandlerD2Ev:
.LFB1694:
	.cfi_startproc
	endbr64
	ret
	.cfi_endproc
.LFE1694:
	.size	_ZN8opendnp320SimpleCommandHandlerD2Ev, .-_ZN8opendnp320SimpleCommandHandlerD2Ev
	.weak	_ZN8opendnp320SimpleCommandHandlerD1Ev
	.set	_ZN8opendnp320SimpleCommandHandlerD1Ev,_ZN8opendnp320SimpleCommandHandlerD2Ev
	.text
	.align 2
	.p2align 4
	.globl	_ZN8opendnp320SimpleCommandHandler5StartEv
	.type	_ZN8opendnp320SimpleCommandHandler5StartEv, @function
_ZN8opendnp320SimpleCommandHandler5StartEv:
.LFB1718:
	.cfi_startproc
	endbr64
	addl	$1, 20(%rdi)
	ret
	.cfi_endproc
.LFE1718:
	.size	_ZN8opendnp320SimpleCommandHandler5StartEv, .-_ZN8opendnp320SimpleCommandHandler5StartEv
	.align 2
	.p2align 4
	.globl	_ZN8opendnp320SimpleCommandHandler3EndEv
	.type	_ZN8opendnp320SimpleCommandHandler3EndEv, @function
_ZN8opendnp320SimpleCommandHandler3EndEv:
.LFB1719:
	.cfi_startproc
	endbr64
	addl	$1, 24(%rdi)
	ret
	.cfi_endproc
.LFE1719:
	.size	_ZN8opendnp320SimpleCommandHandler3EndEv, .-_ZN8opendnp320SimpleCommandHandler3EndEv
	.section	.text._ZN8opendnp320SimpleCommandHandlerD0Ev,"axG",@progbits,_ZN8opendnp320SimpleCommandHandlerD5Ev,comdat
	.align 2
	.p2align 4
	.weak	_ZN8opendnp320SimpleCommandHandlerD0Ev
	.type	_ZN8opendnp320SimpleCommandHandlerD0Ev, @function
_ZN8opendnp320SimpleCommandHandlerD0Ev:
.LFB1696:
	.cfi_startproc
	endbr64
	movl	$32, %esi
	jmp	_ZdlPvm@PLT
	.cfi_endproc
.LFE1696:
	.size	_ZN8opendnp320SimpleCommandHandlerD0Ev, .-_ZN8opendnp320SimpleCommandHandlerD0Ev
	.text
	.align 2
	.p2align 4
	.globl	_ZN8opendnp320SimpleCommandHandler7OperateERKNS_20AnalogOutputDouble64EtNS_11OperateTypeE
	.type	_ZN8opendnp320SimpleCommandHandler7OperateERKNS_20AnalogOutputDouble64EtNS_11OperateTypeE, @function
_ZN8opendnp320SimpleCommandHandler7OperateERKNS_20AnalogOutputDouble64EtNS_11OperateTypeE:
.LFB1717:
	.cfi_startproc
	endbr64
	movq	(%rdi), %rax
	pushq	%rbx
	.cfi_def_cfa_offset 16
	.cfi_offset 3, -16
	movq	%rdi, %rbx
	movq	184(%rax), %rax
	cmpq	_ZN8opendnp320SimpleCommandHandler9DoOperateERKNS_20AnalogOutputDouble64EtNS_11OperateTypeE@GOTPCREL(%rip), %rax
	jne	.L19
	movzbl	8(%rbx), %eax
	addl	$1, 12(%rbx)
	popq	%rbx
	.cfi_remember_state
	.cfi_def_cfa_offset 8
	ret
	.p2align 4,,10
	.p2align 3
.L19:
	.cfi_restore_state
	movzwl	%dx, %edx
	call	*%rax
	movzbl	8(%rbx), %eax
	addl	$1, 12(%rbx)
	popq	%rbx
	.cfi_def_cfa_offset 8
	ret
	.cfi_endproc
.LFE1717:
	.size	_ZN8opendnp320SimpleCommandHandler7OperateERKNS_20AnalogOutputDouble64EtNS_11OperateTypeE, .-_ZN8opendnp320SimpleCommandHandler7OperateERKNS_20AnalogOutputDouble64EtNS_11OperateTypeE
	.align 2
	.p2align 4
	.globl	_ZN8opendnp320SimpleCommandHandler6SelectERKNS_20AnalogOutputDouble64Et
	.type	_ZN8opendnp320SimpleCommandHandler6SelectERKNS_20AnalogOutputDouble64Et, @function
_ZN8opendnp320SimpleCommandHandler6SelectERKNS_20AnalogOutputDouble64Et:
.LFB1716:
	.cfi_startproc
	endbr64
	movq	(%rdi), %rax
	pushq	%rbx
	.cfi_def_cfa_offset 16
	.cfi_offset 3, -16
	movq	%rdi, %rbx
	movq	176(%rax), %rax
	cmpq	_ZN8opendnp320SimpleCommandHandler8DoSelectERKNS_20AnalogOutputDouble64Et@GOTPCREL(%rip), %rax
	jne	.L23
	movzbl	8(%rbx), %eax
	addl	$1, 16(%rbx)
	popq	%rbx
	.cfi_remember_state
	.cfi_def_cfa_offset 8
	ret
	.p2align 4,,10
	.p2align 3
.L23:
	.cfi_restore_state
	movzwl	%dx, %edx
	call	*%rax
	movzbl	8(%rbx), %eax
	addl	$1, 16(%rbx)
	popq	%rbx
	.cfi_def_cfa_offset 8
	ret
	.cfi_endproc
.LFE1716:
	.size	_ZN8opendnp320SimpleCommandHandler6SelectERKNS_20AnalogOutputDouble64Et, .-_ZN8opendnp320SimpleCommandHandler6SelectERKNS_20AnalogOutputDouble64Et
	.align 2
	.p2align 4
	.globl	_ZN8opendnp320SimpleCommandHandler7OperateERKNS_19AnalogOutputFloat32EtNS_11OperateTypeE
	.type	_ZN8opendnp320SimpleCommandHandler7OperateERKNS_19AnalogOutputFloat32EtNS_11OperateTypeE, @function
_ZN8opendnp320SimpleCommandHandler7OperateERKNS_19AnalogOutputFloat32EtNS_11OperateTypeE:
.LFB1715:
	.cfi_startproc
	endbr64
	movq	(%rdi), %rax
	pushq	%rbx
	.cfi_def_cfa_offset 16
	.cfi_offset 3, -16
	movq	%rdi, %rbx
	movq	168(%rax), %rax
	cmpq	_ZN8opendnp320SimpleCommandHandler9DoOperateERKNS_19AnalogOutputFloat32EtNS_11OperateTypeE@GOTPCREL(%rip), %rax
	jne	.L27
	movzbl	8(%rbx), %eax
	addl	$1, 12(%rbx)
	popq	%rbx
	.cfi_remember_state
	.cfi_def_cfa_offset 8
	ret
	.p2align 4,,10
	.p2align 3
.L27:
	.cfi_restore_state
	movzwl	%dx, %edx
	call	*%rax
	movzbl	8(%rbx), %eax
	addl	$1, 12(%rbx)
	popq	%rbx
	.cfi_def_cfa_offset 8
	ret
	.cfi_endproc
.LFE1715:
	.size	_ZN8opendnp320SimpleCommandHandler7OperateERKNS_19AnalogOutputFloat32EtNS_11OperateTypeE, .-_ZN8opendnp320SimpleCommandHandler7OperateERKNS_19AnalogOutputFloat32EtNS_11OperateTypeE
	.align 2
	.p2align 4
	.globl	_ZN8opendnp320SimpleCommandHandler6SelectERKNS_19AnalogOutputFloat32Et
	.type	_ZN8opendnp320SimpleCommandHandler6SelectERKNS_19AnalogOutputFloat32Et, @function
_ZN8opendnp320SimpleCommandHandler6SelectERKNS_19AnalogOutputFloat32Et:
.LFB1714:
	.cfi_startproc
	endbr64
	movq	(%rdi), %rax
	pushq	%rbx
	.cfi_def_cfa_offset 16
	.cfi_offset 3, -16
	movq	%rdi, %rbx
	movq	160(%rax), %rax
	cmpq	_ZN8opendnp320SimpleCommandHandler8DoSelectERKNS_19AnalogOutputFloat32Et@GOTPCREL(%rip), %rax
	jne	.L31
	movzbl	8(%rbx), %eax
	addl	$1, 16(%rbx)
	popq	%rbx
	.cfi_remember_state
	.cfi_def_cfa_offset 8
	ret
	.p2align 4,,10
	.p2align 3
.L31:
	.cfi_restore_state
	movzwl	%dx, %edx
	call	*%rax
	movzbl	8(%rbx), %eax
	addl	$1, 16(%rbx)
	popq	%rbx
	.cfi_def_cfa_offset 8
	ret
	.cfi_endproc
.LFE1714:
	.size	_ZN8opendnp320SimpleCommandHandler6SelectERKNS_19AnalogOutputFloat32Et, .-_ZN8opendnp320SimpleCommandHandler6SelectERKNS_19AnalogOutputFloat32Et
	.align 2
	.p2align 4
	.globl	_ZN8opendnp320SimpleCommandHandler7OperateERKNS_17AnalogOutputInt32EtNS_11OperateTypeE
	.type	_ZN8opendnp320SimpleCommandHandler7OperateERKNS_17AnalogOutputInt32EtNS_11OperateTypeE, @function
_ZN8opendnp320SimpleCommandHandler7OperateERKNS_17AnalogOutputInt32EtNS_11OperateTypeE:
.LFB1713:
	.cfi_startproc
	endbr64
	movq	(%rdi), %rax
	pushq	%rbx
	.cfi_def_cfa_offset 16
	.cfi_offset 3, -16
	movq	%rdi, %rbx
	movq	152(%rax), %rax
	cmpq	_ZN8opendnp320SimpleCommandHandler9DoOperateERKNS_17AnalogOutputInt32EtNS_11OperateTypeE@GOTPCREL(%rip), %rax
	jne	.L35
	movzbl	8(%rbx), %eax
	addl	$1, 12(%rbx)
	popq	%rbx
	.cfi_remember_state
	.cfi_def_cfa_offset 8
	ret
	.p2align 4,,10
	.p2align 3
.L35:
	.cfi_restore_state
	movzwl	%dx, %edx
	call	*%rax
	movzbl	8(%rbx), %eax
	addl	$1, 12(%rbx)
	popq	%rbx
	.cfi_def_cfa_offset 8
	ret
	.cfi_endproc
.LFE1713:
	.size	_ZN8opendnp320SimpleCommandHandler7OperateERKNS_17AnalogOutputInt32EtNS_11OperateTypeE, .-_ZN8opendnp320SimpleCommandHandler7OperateERKNS_17AnalogOutputInt32EtNS_11OperateTypeE
	.align 2
	.p2align 4
	.globl	_ZN8opendnp320SimpleCommandHandler6SelectERKNS_17AnalogOutputInt32Et
	.type	_ZN8opendnp320SimpleCommandHandler6SelectERKNS_17AnalogOutputInt32Et, @function
_ZN8opendnp320SimpleCommandHandler6SelectERKNS_17AnalogOutputInt32Et:
.LFB1712:
	.cfi_startproc
	endbr64
	movq	(%rdi), %rax
	pushq	%rbx
	.cfi_def_cfa_offset 16
	.cfi_offset 3, -16
	movq	%rdi, %rbx
	movq	144(%rax), %rax
	cmpq	_ZN8opendnp320SimpleCommandHandler8DoSelectERKNS_17AnalogOutputInt32Et@GOTPCREL(%rip), %rax
	jne	.L39
	movzbl	8(%rbx), %eax
	addl	$1, 16(%rbx)
	popq	%rbx
	.cfi_remember_state
	.cfi_def_cfa_offset 8
	ret
	.p2align 4,,10
	.p2align 3
.L39:
	.cfi_restore_state
	movzwl	%dx, %edx
	call	*%rax
	movzbl	8(%rbx), %eax
	addl	$1, 16(%rbx)
	popq	%rbx
	.cfi_def_cfa_offset 8
	ret
	.cfi_endproc
.LFE1712:
	.size	_ZN8opendnp320SimpleCommandHandler6SelectERKNS_17AnalogOutputInt32Et, .-_ZN8opendnp320SimpleCommandHandler6SelectERKNS_17AnalogOutputInt32Et
	.align 2
	.p2align 4
	.globl	_ZN8opendnp320SimpleCommandHandler7OperateERKNS_17AnalogOutputInt16EtNS_11OperateTypeE
	.type	_ZN8opendnp320SimpleCommandHandler7OperateERKNS_17AnalogOutputInt16EtNS_11OperateTypeE, @function
_ZN8opendnp320SimpleCommandHandler7OperateERKNS_17AnalogOutputInt16EtNS_11OperateTypeE:
.LFB1711:
	.cfi_startproc
	endbr64
	movq	(%rdi), %rax
	pushq	%rbx
	.cfi_def_cfa_offset 16
	.cfi_offset 3, -16
	movq	%rdi, %rbx
	movq	136(%rax), %rax
	cmpq	_ZN8opendnp320SimpleCommandHandler9DoOperateERKNS_17AnalogOutputInt16EtNS_11OperateTypeE@GOTPCREL(%rip), %rax
	jne	.L43
	movzbl	8(%rbx), %eax
	addl	$1, 12(%rbx)
	popq	%rbx
	.cfi_remember_state
	.cfi_def_cfa_offset 8
	ret
	.p2align 4,,10
	.p2align 3
.L43:
	.cfi_restore_state
	movzwl	%dx, %edx
	call	*%rax
	movzbl	8(%rbx), %eax
	addl	$1, 12(%rbx)
	popq	%rbx
	.cfi_def_cfa_offset 8
	ret
	.cfi_endproc
.LFE1711:
	.size	_ZN8opendnp320SimpleCommandHandler7OperateERKNS_17AnalogOutputInt16EtNS_11OperateTypeE, .-_ZN8opendnp320SimpleCommandHandler7OperateERKNS_17AnalogOutputInt16EtNS_11OperateTypeE
	.align 2
	.p2align 4
	.globl	_ZN8opendnp320SimpleCommandHandler6SelectERKNS_17AnalogOutputInt16Et
	.type	_ZN8opendnp320SimpleCommandHandler6SelectERKNS_17AnalogOutputInt16Et, @function
_ZN8opendnp320SimpleCommandHandler6SelectERKNS_17AnalogOutputInt16Et:
.LFB1710:
	.cfi_startproc
	endbr64
	movq	(%rdi), %rax
	pushq	%rbx
	.cfi_def_cfa_offset 16
	.cfi_offset 3, -16
	movq	%rdi, %rbx
	movq	128(%rax), %rax
	cmpq	_ZN8opendnp320SimpleCommandHandler8DoSelectERKNS_17AnalogOutputInt16Et@GOTPCREL(%rip), %rax
	jne	.L47
	movzbl	8(%rbx), %eax
	addl	$1, 16(%rbx)
	popq	%rbx
	.cfi_remember_state
	.cfi_def_cfa_offset 8
	ret
	.p2align 4,,10
	.p2align 3
.L47:
	.cfi_restore_state
	movzwl	%dx, %edx
	call	*%rax
	movzbl	8(%rbx), %eax
	addl	$1, 16(%rbx)
	popq	%rbx
	.cfi_def_cfa_offset 8
	ret
	.cfi_endproc
.LFE1710:
	.size	_ZN8opendnp320SimpleCommandHandler6SelectERKNS_17AnalogOutputInt16Et, .-_ZN8opendnp320SimpleCommandHandler6SelectERKNS_17AnalogOutputInt16Et
	.align 2
	.p2align 4
	.globl	_ZN8opendnp320SimpleCommandHandler7OperateERKNS_23ControlRelayOutputBlockEtNS_11OperateTypeE
	.type	_ZN8opendnp320SimpleCommandHandler7OperateERKNS_23ControlRelayOutputBlockEtNS_11OperateTypeE, @function
_ZN8opendnp320SimpleCommandHandler7OperateERKNS_23ControlRelayOutputBlockEtNS_11OperateTypeE:
.LFB1709:
	.cfi_startproc
	endbr64
	movq	(%rdi), %rax
	pushq	%rbx
	.cfi_def_cfa_offset 16
	.cfi_offset 3, -16
	movq	%rdi, %rbx
	movq	120(%rax), %rax
	cmpq	_ZN8opendnp320SimpleCommandHandler9DoOperateERKNS_23ControlRelayOutputBlockEtNS_11OperateTypeE@GOTPCREL(%rip), %rax
	jne	.L51
	movzbl	8(%rbx), %eax
	addl	$1, 12(%rbx)
	popq	%rbx
	.cfi_remember_state
	.cfi_def_cfa_offset 8
	ret
	.p2align 4,,10
	.p2align 3
.L51:
	.cfi_restore_state
	movzwl	%dx, %edx
	call	*%rax
	movzbl	8(%rbx), %eax
	addl	$1, 12(%rbx)
	popq	%rbx
	.cfi_def_cfa_offset 8
	ret
	.cfi_endproc
.LFE1709:
	.size	_ZN8opendnp320SimpleCommandHandler7OperateERKNS_23ControlRelayOutputBlockEtNS_11OperateTypeE, .-_ZN8opendnp320SimpleCommandHandler7OperateERKNS_23ControlRelayOutputBlockEtNS_11OperateTypeE
	.align 2
	.p2align 4
	.globl	_ZN8opendnp320SimpleCommandHandler6SelectERKNS_23ControlRelayOutputBlockEt
	.type	_ZN8opendnp320SimpleCommandHandler6SelectERKNS_23ControlRelayOutputBlockEt, @function
_ZN8opendnp320SimpleCommandHandler6SelectERKNS_23ControlRelayOutputBlockEt:
.LFB1708:
	.cfi_startproc
	endbr64
	movq	(%rdi), %rax
	pushq	%rbx
	.cfi_def_cfa_offset 16
	.cfi_offset 3, -16
	movq	%rdi, %rbx
	movq	112(%rax), %rax
	cmpq	_ZN8opendnp320SimpleCommandHandler8DoSelectERKNS_23ControlRelayOutputBlockEt@GOTPCREL(%rip), %rax
	jne	.L55
	movzbl	8(%rbx), %eax
	addl	$1, 16(%rbx)
	popq	%rbx
	.cfi_remember_state
	.cfi_def_cfa_offset 8
	ret
	.p2align 4,,10
	.p2align 3
.L55:
	.cfi_restore_state
	movzwl	%dx, %edx
	call	*%rax
	movzbl	8(%rbx), %eax
	addl	$1, 16(%rbx)
	popq	%rbx
	.cfi_def_cfa_offset 8
	ret
	.cfi_endproc
.LFE1708:
	.size	_ZN8opendnp320SimpleCommandHandler6SelectERKNS_23ControlRelayOutputBlockEt, .-_ZN8opendnp320SimpleCommandHandler6SelectERKNS_23ControlRelayOutputBlockEt
	.align 2
	.p2align 4
	.globl	_ZN8opendnp320SimpleCommandHandlerC2ENS_13CommandStatusE
	.type	_ZN8opendnp320SimpleCommandHandlerC2ENS_13CommandStatusE, @function
_ZN8opendnp320SimpleCommandHandlerC2ENS_13CommandStatusE:
.LFB1706:
	.cfi_startproc
	endbr64
	movq	_ZTVN8opendnp320SimpleCommandHandlerE@GOTPCREL(%rip), %rax
	pxor	%xmm0, %xmm0
	movb	%sil, 8(%rdi)
	movups	%xmm0, 12(%rdi)
	addq	$16, %rax
	movq	%rax, (%rdi)
	ret
	.cfi_endproc
.LFE1706:
	.size	_ZN8opendnp320SimpleCommandHandlerC2ENS_13CommandStatusE, .-_ZN8opendnp320SimpleCommandHandlerC2ENS_13CommandStatusE
	.globl	_ZN8opendnp320SimpleCommandHandlerC1ENS_13CommandStatusE
	.set	_ZN8opendnp320SimpleCommandHandlerC1ENS_13CommandStatusE,_ZN8opendnp320SimpleCommandHandlerC2ENS_13CommandStatusE
	.weak	_ZTSN8opendnp313ITransactableE
	.section	.rodata._ZTSN8opendnp313ITransactableE,"aG",@progbits,_ZTSN8opendnp313ITransactableE,comdat
	.align 16
	.type	_ZTSN8opendnp313ITransactableE, @object
	.size	_ZTSN8opendnp313ITransactableE, 27
_ZTSN8opendnp313ITransactableE:
	.string	"N8opendnp313ITransactableE"
	.weak	_ZTIN8opendnp313ITransactableE
	.section	.data.rel.ro._ZTIN8opendnp313ITransactableE,"awG",@progbits,_ZTIN8opendnp313ITransactableE,comdat
	.align 8
	.type	_ZTIN8opendnp313ITransactableE, @object
	.size	_ZTIN8opendnp313ITransactableE, 16
_ZTIN8opendnp313ITransactableE:
	.quad	_ZTVN10__cxxabiv117__class_type_infoE+16
	.quad	_ZTSN8opendnp313ITransactableE
	.weak	_ZTSN8opendnp315ICommandHandlerE
	.section	.rodata._ZTSN8opendnp315ICommandHandlerE,"aG",@progbits,_ZTSN8opendnp315ICommandHandlerE,comdat
	.align 16
	.type	_ZTSN8opendnp315ICommandHandlerE, @object
	.size	_ZTSN8opendnp315ICommandHandlerE, 29
_ZTSN8opendnp315ICommandHandlerE:
	.string	"N8opendnp315ICommandHandlerE"
	.weak	_ZTIN8opendnp315ICommandHandlerE
	.section	.data.rel.ro._ZTIN8opendnp315ICommandHandlerE,"awG",@progbits,_ZTIN8opendnp315ICommandHandlerE,comdat
	.align 8
	.type	_ZTIN8opendnp315ICommandHandlerE, @object
	.size	_ZTIN8opendnp315ICommandHandlerE, 24
_ZTIN8opendnp315ICommandHandlerE:
	.quad	_ZTVN10__cxxabiv120__si_class_type_infoE+16
	.quad	_ZTSN8opendnp315ICommandHandlerE
	.quad	_ZTIN8opendnp313ITransactableE
	.weak	_ZTSN8opendnp320SimpleCommandHandlerE
	.section	.rodata._ZTSN8opendnp320SimpleCommandHandlerE,"aG",@progbits,_ZTSN8opendnp320SimpleCommandHandlerE,comdat
	.align 32
	.type	_ZTSN8opendnp320SimpleCommandHandlerE, @object
	.size	_ZTSN8opendnp320SimpleCommandHandlerE, 34
_ZTSN8opendnp320SimpleCommandHandlerE:
	.string	"N8opendnp320SimpleCommandHandlerE"
	.weak	_ZTIN8opendnp320SimpleCommandHandlerE
	.section	.data.rel.ro._ZTIN8opendnp320SimpleCommandHandlerE,"awG",@progbits,_ZTIN8opendnp320SimpleCommandHandlerE,comdat
	.align 8
	.type	_ZTIN8opendnp320SimpleCommandHandlerE, @object
	.size	_ZTIN8opendnp320SimpleCommandHandlerE, 24
_ZTIN8opendnp320SimpleCommandHandlerE:
	.quad	_ZTVN10__cxxabiv120__si_class_type_infoE+16
	.quad	_ZTSN8opendnp320SimpleCommandHandlerE
	.quad	_ZTIN8opendnp315ICommandHandlerE
	.weak	_ZTVN8opendnp320SimpleCommandHandlerE
	.section	.data.rel.ro._ZTVN8opendnp320SimpleCommandHandlerE,"awG",@progbits,_ZTVN8opendnp320SimpleCommandHandlerE,comdat
	.align 8
	.type	_ZTVN8opendnp320SimpleCommandHandlerE, @object
	.size	_ZTVN8opendnp320SimpleCommandHandlerE, 208
_ZTVN8opendnp320SimpleCommandHandlerE:
	.quad	0
	.quad	_ZTIN8opendnp320SimpleCommandHandlerE
	.quad	_ZN8opendnp320SimpleCommandHandlerD1Ev
	.quad	_ZN8opendnp320SimpleCommandHandlerD0Ev
	.quad	_ZN8opendnp320SimpleCommandHandler5StartEv
	.quad	_ZN8opendnp320SimpleCommandHandler3EndEv
	.quad	_ZN8opendnp320SimpleCommandHandler6SelectERKNS_23ControlRelayOutputBlockEt
	.quad	_ZN8opendnp320SimpleCommandHandler7OperateERKNS_23ControlRelayOutputBlockEtNS_11OperateTypeE
	.quad	_ZN8opendnp320SimpleCommandHandler6SelectERKNS_17AnalogOutputInt16Et
	.quad	_ZN8opendnp320SimpleCommandHandler7OperateERKNS_17AnalogOutputInt16EtNS_11OperateTypeE
	.quad	_ZN8opendnp320SimpleCommandHandler6SelectERKNS_17AnalogOutputInt32Et
	.quad	_ZN8opendnp320SimpleCommandHandler7OperateERKNS_17AnalogOutputInt32EtNS_11OperateTypeE
	.quad	_ZN8opendnp320SimpleCommandHandler6SelectERKNS_19AnalogOutputFloat32Et
	.quad	_ZN8opendnp320SimpleCommandHandler7OperateERKNS_19AnalogOutputFloat32EtNS_11OperateTypeE
	.quad	_ZN8opendnp320SimpleCommandHandler6SelectERKNS_20AnalogOutputDouble64Et
	.quad	_ZN8opendnp320SimpleCommandHandler7OperateERKNS_20AnalogOutputDouble64EtNS_11OperateTypeE
	.quad	_ZN8opendnp320SimpleCommandHandler8DoSelectERKNS_23ControlRelayOutputBlockEt
	.quad	_ZN8opendnp320SimpleCommandHandler9DoOperateERKNS_23ControlRelayOutputBlockEtNS_11OperateTypeE
	.quad	_ZN8opendnp320SimpleCommandHandler8DoSelectERKNS_17AnalogOutputInt16Et
	.quad	_ZN8opendnp320SimpleCommandHandler9DoOperateERKNS_17AnalogOutputInt16EtNS_11OperateTypeE
	.quad	_ZN8opendnp320SimpleCommandHandler8DoSelectERKNS_17AnalogOutputInt32Et
	.quad	_ZN8opendnp320SimpleCommandHandler9DoOperateERKNS_17AnalogOutputInt32EtNS_11OperateTypeE
	.quad	_ZN8opendnp320SimpleCommandHandler8DoSelectERKNS_19AnalogOutputFloat32Et
	.quad	_ZN8opendnp320SimpleCommandHandler9DoOperateERKNS_19AnalogOutputFloat32EtNS_11OperateTypeE
	.quad	_ZN8opendnp320SimpleCommandHandler8DoSelectERKNS_20AnalogOutputDouble64Et
	.quad	_ZN8opendnp320SimpleCommandHandler9DoOperateERKNS_20AnalogOutputDouble64EtNS_11OperateTypeE
	.ident	"GCC: (Ubuntu 11.4.0-1ubuntu1~22.04) 11.4.0"
	.section	.note.GNU-stack,"",@progbits
	.section	.note.gnu.property,"a"
	.align 8
	.long	1f - 0f
	.long	4f - 1f
	.long	5
0:
	.string	"GNU"
1:
	.align 8
	.long	0xc0000002
	.long	3f - 2f
2:
	.long	0x3
3:
	.align 8
4:
