	.file	"StaticBuffers.cpp"
	.text
	.section	.text._ZN7openpal5ArrayIN8opendnp34CellINS1_10BinarySpecEEEtED2Ev,"axG",@progbits,_ZN7openpal5ArrayIN8opendnp34CellINS1_10BinarySpecEEEtED5Ev,comdat
	.align 2
	.p2align 4
	.weak	_ZN7openpal5ArrayIN8opendnp34CellINS1_10BinarySpecEEEtED2Ev
	.type	_ZN7openpal5ArrayIN8opendnp34CellINS1_10BinarySpecEEEtED2Ev, @function
_ZN7openpal5ArrayIN8opendnp34CellINS1_10BinarySpecEEEtED2Ev:
.LFB160:
	.cfi_startproc
	endbr64
	movq	_ZTVN7openpal5ArrayIN8opendnp34CellINS1_10BinarySpecEEEtEE@GOTPCREL(%rip), %rax
	addq	$16, %rax
	movq	%rax, (%rdi)
	movq	16(%rdi), %rdi
	testq	%rdi, %rdi
	je	.L1
	jmp	_ZdaPv@PLT
	.p2align 4,,10
	.p2align 3
.L1:
	ret
	.cfi_endproc
.LFE160:
	.size	_ZN7openpal5ArrayIN8opendnp34CellINS1_10BinarySpecEEEtED2Ev, .-_ZN7openpal5ArrayIN8opendnp34CellINS1_10BinarySpecEEEtED2Ev
	.weak	_ZN7openpal5ArrayIN8opendnp34CellINS1_10BinarySpecEEEtED1Ev
	.set	_ZN7openpal5ArrayIN8opendnp34CellINS1_10BinarySpecEEEtED1Ev,_ZN7openpal5ArrayIN8opendnp34CellINS1_10BinarySpecEEEtED2Ev
	.section	.text._ZN7openpal5ArrayIN8opendnp34CellINS1_19DoubleBitBinarySpecEEEtED2Ev,"axG",@progbits,_ZN7openpal5ArrayIN8opendnp34CellINS1_19DoubleBitBinarySpecEEEtED5Ev,comdat
	.align 2
	.p2align 4
	.weak	_ZN7openpal5ArrayIN8opendnp34CellINS1_19DoubleBitBinarySpecEEEtED2Ev
	.type	_ZN7openpal5ArrayIN8opendnp34CellINS1_19DoubleBitBinarySpecEEEtED2Ev, @function
_ZN7openpal5ArrayIN8opendnp34CellINS1_19DoubleBitBinarySpecEEEtED2Ev:
.LFB182:
	.cfi_startproc
	endbr64
	movq	_ZTVN7openpal5ArrayIN8opendnp34CellINS1_19DoubleBitBinarySpecEEEtEE@GOTPCREL(%rip), %rax
	addq	$16, %rax
	movq	%rax, (%rdi)
	movq	16(%rdi), %rdi
	testq	%rdi, %rdi
	je	.L4
	jmp	_ZdaPv@PLT
	.p2align 4,,10
	.p2align 3
.L4:
	ret
	.cfi_endproc
.LFE182:
	.size	_ZN7openpal5ArrayIN8opendnp34CellINS1_19DoubleBitBinarySpecEEEtED2Ev, .-_ZN7openpal5ArrayIN8opendnp34CellINS1_19DoubleBitBinarySpecEEEtED2Ev
	.weak	_ZN7openpal5ArrayIN8opendnp34CellINS1_19DoubleBitBinarySpecEEEtED1Ev
	.set	_ZN7openpal5ArrayIN8opendnp34CellINS1_19DoubleBitBinarySpecEEEtED1Ev,_ZN7openpal5ArrayIN8opendnp34CellINS1_19DoubleBitBinarySpecEEEtED2Ev
	.section	.text._ZN7openpal5ArrayIN8opendnp34CellINS1_10AnalogSpecEEEtED2Ev,"axG",@progbits,_ZN7openpal5ArrayIN8opendnp34CellINS1_10AnalogSpecEEEtED5Ev,comdat
	.align 2
	.p2align 4
	.weak	_ZN7openpal5ArrayIN8opendnp34CellINS1_10AnalogSpecEEEtED2Ev
	.type	_ZN7openpal5ArrayIN8opendnp34CellINS1_10AnalogSpecEEEtED2Ev, @function
_ZN7openpal5ArrayIN8opendnp34CellINS1_10AnalogSpecEEEtED2Ev:
.LFB210:
	.cfi_startproc
	endbr64
	movq	_ZTVN7openpal5ArrayIN8opendnp34CellINS1_10AnalogSpecEEEtEE@GOTPCREL(%rip), %rax
	addq	$16, %rax
	movq	%rax, (%rdi)
	movq	16(%rdi), %rdi
	testq	%rdi, %rdi
	je	.L6
	jmp	_ZdaPv@PLT
	.p2align 4,,10
	.p2align 3
.L6:
	ret
	.cfi_endproc
.LFE210:
	.size	_ZN7openpal5ArrayIN8opendnp34CellINS1_10AnalogSpecEEEtED2Ev, .-_ZN7openpal5ArrayIN8opendnp34CellINS1_10AnalogSpecEEEtED2Ev
	.weak	_ZN7openpal5ArrayIN8opendnp34CellINS1_10AnalogSpecEEEtED1Ev
	.set	_ZN7openpal5ArrayIN8opendnp34CellINS1_10AnalogSpecEEEtED1Ev,_ZN7openpal5ArrayIN8opendnp34CellINS1_10AnalogSpecEEEtED2Ev
	.section	.text._ZN7openpal5ArrayIN8opendnp34CellINS1_11CounterSpecEEEtED2Ev,"axG",@progbits,_ZN7openpal5ArrayIN8opendnp34CellINS1_11CounterSpecEEEtED5Ev,comdat
	.align 2
	.p2align 4
	.weak	_ZN7openpal5ArrayIN8opendnp34CellINS1_11CounterSpecEEEtED2Ev
	.type	_ZN7openpal5ArrayIN8opendnp34CellINS1_11CounterSpecEEEtED2Ev, @function
_ZN7openpal5ArrayIN8opendnp34CellINS1_11CounterSpecEEEtED2Ev:
.LFB238:
	.cfi_startproc
	endbr64
	movq	_ZTVN7openpal5ArrayIN8opendnp34CellINS1_11CounterSpecEEEtEE@GOTPCREL(%rip), %rax
	addq	$16, %rax
	movq	%rax, (%rdi)
	movq	16(%rdi), %rdi
	testq	%rdi, %rdi
	je	.L8
	jmp	_ZdaPv@PLT
	.p2align 4,,10
	.p2align 3
.L8:
	ret
	.cfi_endproc
.LFE238:
	.size	_ZN7openpal5ArrayIN8opendnp34CellINS1_11CounterSpecEEEtED2Ev, .-_ZN7openpal5ArrayIN8opendnp34CellINS1_11CounterSpecEEEtED2Ev
	.weak	_ZN7openpal5ArrayIN8opendnp34CellINS1_11CounterSpecEEEtED1Ev
	.set	_ZN7openpal5ArrayIN8opendnp34CellINS1_11CounterSpecEEEtED1Ev,_ZN7openpal5ArrayIN8opendnp34CellINS1_11CounterSpecEEEtED2Ev
	.section	.text._ZN7openpal5ArrayIN8opendnp34CellINS1_17FrozenCounterSpecEEEtED2Ev,"axG",@progbits,_ZN7openpal5ArrayIN8opendnp34CellINS1_17FrozenCounterSpecEEEtED5Ev,comdat
	.align 2
	.p2align 4
	.weak	_ZN7openpal5ArrayIN8opendnp34CellINS1_17FrozenCounterSpecEEEtED2Ev
	.type	_ZN7openpal5ArrayIN8opendnp34CellINS1_17FrozenCounterSpecEEEtED2Ev, @function
_ZN7openpal5ArrayIN8opendnp34CellINS1_17FrozenCounterSpecEEEtED2Ev:
.LFB266:
	.cfi_startproc
	endbr64
	movq	_ZTVN7openpal5ArrayIN8opendnp34CellINS1_17FrozenCounterSpecEEEtEE@GOTPCREL(%rip), %rax
	addq	$16, %rax
	movq	%rax, (%rdi)
	movq	16(%rdi), %rdi
	testq	%rdi, %rdi
	je	.L10
	jmp	_ZdaPv@PLT
	.p2align 4,,10
	.p2align 3
.L10:
	ret
	.cfi_endproc
.LFE266:
	.size	_ZN7openpal5ArrayIN8opendnp34CellINS1_17FrozenCounterSpecEEEtED2Ev, .-_ZN7openpal5ArrayIN8opendnp34CellINS1_17FrozenCounterSpecEEEtED2Ev
	.weak	_ZN7openpal5ArrayIN8opendnp34CellINS1_17FrozenCounterSpecEEEtED1Ev
	.set	_ZN7openpal5ArrayIN8opendnp34CellINS1_17FrozenCounterSpecEEEtED1Ev,_ZN7openpal5ArrayIN8opendnp34CellINS1_17FrozenCounterSpecEEEtED2Ev
	.section	.text._ZN7openpal5ArrayIN8opendnp34CellINS1_22BinaryOutputStatusSpecEEEtED2Ev,"axG",@progbits,_ZN7openpal5ArrayIN8opendnp34CellINS1_22BinaryOutputStatusSpecEEEtED5Ev,comdat
	.align 2
	.p2align 4
	.weak	_ZN7openpal5ArrayIN8opendnp34CellINS1_22BinaryOutputStatusSpecEEEtED2Ev
	.type	_ZN7openpal5ArrayIN8opendnp34CellINS1_22BinaryOutputStatusSpecEEEtED2Ev, @function
_ZN7openpal5ArrayIN8opendnp34CellINS1_22BinaryOutputStatusSpecEEEtED2Ev:
.LFB288:
	.cfi_startproc
	endbr64
	movq	_ZTVN7openpal5ArrayIN8opendnp34CellINS1_22BinaryOutputStatusSpecEEEtEE@GOTPCREL(%rip), %rax
	addq	$16, %rax
	movq	%rax, (%rdi)
	movq	16(%rdi), %rdi
	testq	%rdi, %rdi
	je	.L12
	jmp	_ZdaPv@PLT
	.p2align 4,,10
	.p2align 3
.L12:
	ret
	.cfi_endproc
.LFE288:
	.size	_ZN7openpal5ArrayIN8opendnp34CellINS1_22BinaryOutputStatusSpecEEEtED2Ev, .-_ZN7openpal5ArrayIN8opendnp34CellINS1_22BinaryOutputStatusSpecEEEtED2Ev
	.weak	_ZN7openpal5ArrayIN8opendnp34CellINS1_22BinaryOutputStatusSpecEEEtED1Ev
	.set	_ZN7openpal5ArrayIN8opendnp34CellINS1_22BinaryOutputStatusSpecEEEtED1Ev,_ZN7openpal5ArrayIN8opendnp34CellINS1_22BinaryOutputStatusSpecEEEtED2Ev
	.section	.text._ZN7openpal5ArrayIN8opendnp34CellINS1_22AnalogOutputStatusSpecEEEtED2Ev,"axG",@progbits,_ZN7openpal5ArrayIN8opendnp34CellINS1_22AnalogOutputStatusSpecEEEtED5Ev,comdat
	.align 2
	.p2align 4
	.weak	_ZN7openpal5ArrayIN8opendnp34CellINS1_22AnalogOutputStatusSpecEEEtED2Ev
	.type	_ZN7openpal5ArrayIN8opendnp34CellINS1_22AnalogOutputStatusSpecEEEtED2Ev, @function
_ZN7openpal5ArrayIN8opendnp34CellINS1_22AnalogOutputStatusSpecEEEtED2Ev:
.LFB316:
	.cfi_startproc
	endbr64
	movq	_ZTVN7openpal5ArrayIN8opendnp34CellINS1_22AnalogOutputStatusSpecEEEtEE@GOTPCREL(%rip), %rax
	addq	$16, %rax
	movq	%rax, (%rdi)
	movq	16(%rdi), %rdi
	testq	%rdi, %rdi
	je	.L14
	jmp	_ZdaPv@PLT
	.p2align 4,,10
	.p2align 3
.L14:
	ret
	.cfi_endproc
.LFE316:
	.size	_ZN7openpal5ArrayIN8opendnp34CellINS1_22AnalogOutputStatusSpecEEEtED2Ev, .-_ZN7openpal5ArrayIN8opendnp34CellINS1_22AnalogOutputStatusSpecEEEtED2Ev
	.weak	_ZN7openpal5ArrayIN8opendnp34CellINS1_22AnalogOutputStatusSpecEEEtED1Ev
	.set	_ZN7openpal5ArrayIN8opendnp34CellINS1_22AnalogOutputStatusSpecEEEtED1Ev,_ZN7openpal5ArrayIN8opendnp34CellINS1_22AnalogOutputStatusSpecEEEtED2Ev
	.section	.text._ZN7openpal5ArrayIN8opendnp34CellINS1_19TimeAndIntervalSpecEEEtED2Ev,"axG",@progbits,_ZN7openpal5ArrayIN8opendnp34CellINS1_19TimeAndIntervalSpecEEEtED5Ev,comdat
	.align 2
	.p2align 4
	.weak	_ZN7openpal5ArrayIN8opendnp34CellINS1_19TimeAndIntervalSpecEEEtED2Ev
	.type	_ZN7openpal5ArrayIN8opendnp34CellINS1_19TimeAndIntervalSpecEEEtED2Ev, @function
_ZN7openpal5ArrayIN8opendnp34CellINS1_19TimeAndIntervalSpecEEEtED2Ev:
.LFB332:
	.cfi_startproc
	endbr64
	movq	_ZTVN7openpal5ArrayIN8opendnp34CellINS1_19TimeAndIntervalSpecEEEtEE@GOTPCREL(%rip), %rax
	addq	$16, %rax
	movq	%rax, (%rdi)
	movq	16(%rdi), %rdi
	testq	%rdi, %rdi
	je	.L16
	jmp	_ZdaPv@PLT
	.p2align 4,,10
	.p2align 3
.L16:
	ret
	.cfi_endproc
.LFE332:
	.size	_ZN7openpal5ArrayIN8opendnp34CellINS1_19TimeAndIntervalSpecEEEtED2Ev, .-_ZN7openpal5ArrayIN8opendnp34CellINS1_19TimeAndIntervalSpecEEEtED2Ev
	.weak	_ZN7openpal5ArrayIN8opendnp34CellINS1_19TimeAndIntervalSpecEEEtED1Ev
	.set	_ZN7openpal5ArrayIN8opendnp34CellINS1_19TimeAndIntervalSpecEEEtED1Ev,_ZN7openpal5ArrayIN8opendnp34CellINS1_19TimeAndIntervalSpecEEEtED2Ev
	.section	.text._ZN7openpal5ArrayIN8opendnp34CellINS1_10BinarySpecEEEtED0Ev,"axG",@progbits,_ZN7openpal5ArrayIN8opendnp34CellINS1_10BinarySpecEEEtED5Ev,comdat
	.align 2
	.p2align 4
	.weak	_ZN7openpal5ArrayIN8opendnp34CellINS1_10BinarySpecEEEtED0Ev
	.type	_ZN7openpal5ArrayIN8opendnp34CellINS1_10BinarySpecEEEtED0Ev, @function
_ZN7openpal5ArrayIN8opendnp34CellINS1_10BinarySpecEEEtED0Ev:
.LFB162:
	.cfi_startproc
	endbr64
	movq	_ZTVN7openpal5ArrayIN8opendnp34CellINS1_10BinarySpecEEEtEE@GOTPCREL(%rip), %rax
	pushq	%rbp
	.cfi_def_cfa_offset 16
	.cfi_offset 6, -16
	movq	%rdi, %rbp
	addq	$16, %rax
	movq	%rax, (%rdi)
	movq	16(%rdi), %rdi
	testq	%rdi, %rdi
	je	.L19
	call	_ZdaPv@PLT
.L19:
	movq	%rbp, %rdi
	movl	$24, %esi
	popq	%rbp
	.cfi_def_cfa_offset 8
	jmp	_ZdlPvm@PLT
	.cfi_endproc
.LFE162:
	.size	_ZN7openpal5ArrayIN8opendnp34CellINS1_10BinarySpecEEEtED0Ev, .-_ZN7openpal5ArrayIN8opendnp34CellINS1_10BinarySpecEEEtED0Ev
	.section	.text._ZN7openpal5ArrayIN8opendnp34CellINS1_19DoubleBitBinarySpecEEEtED0Ev,"axG",@progbits,_ZN7openpal5ArrayIN8opendnp34CellINS1_19DoubleBitBinarySpecEEEtED5Ev,comdat
	.align 2
	.p2align 4
	.weak	_ZN7openpal5ArrayIN8opendnp34CellINS1_19DoubleBitBinarySpecEEEtED0Ev
	.type	_ZN7openpal5ArrayIN8opendnp34CellINS1_19DoubleBitBinarySpecEEEtED0Ev, @function
_ZN7openpal5ArrayIN8opendnp34CellINS1_19DoubleBitBinarySpecEEEtED0Ev:
.LFB184:
	.cfi_startproc
	endbr64
	movq	_ZTVN7openpal5ArrayIN8opendnp34CellINS1_19DoubleBitBinarySpecEEEtEE@GOTPCREL(%rip), %rax
	pushq	%rbp
	.cfi_def_cfa_offset 16
	.cfi_offset 6, -16
	movq	%rdi, %rbp
	addq	$16, %rax
	movq	%rax, (%rdi)
	movq	16(%rdi), %rdi
	testq	%rdi, %rdi
	je	.L25
	call	_ZdaPv@PLT
.L25:
	movq	%rbp, %rdi
	movl	$24, %esi
	popq	%rbp
	.cfi_def_cfa_offset 8
	jmp	_ZdlPvm@PLT
	.cfi_endproc
.LFE184:
	.size	_ZN7openpal5ArrayIN8opendnp34CellINS1_19DoubleBitBinarySpecEEEtED0Ev, .-_ZN7openpal5ArrayIN8opendnp34CellINS1_19DoubleBitBinarySpecEEEtED0Ev
	.section	.text._ZN7openpal5ArrayIN8opendnp34CellINS1_10AnalogSpecEEEtED0Ev,"axG",@progbits,_ZN7openpal5ArrayIN8opendnp34CellINS1_10AnalogSpecEEEtED5Ev,comdat
	.align 2
	.p2align 4
	.weak	_ZN7openpal5ArrayIN8opendnp34CellINS1_10AnalogSpecEEEtED0Ev
	.type	_ZN7openpal5ArrayIN8opendnp34CellINS1_10AnalogSpecEEEtED0Ev, @function
_ZN7openpal5ArrayIN8opendnp34CellINS1_10AnalogSpecEEEtED0Ev:
.LFB212:
	.cfi_startproc
	endbr64
	movq	_ZTVN7openpal5ArrayIN8opendnp34CellINS1_10AnalogSpecEEEtEE@GOTPCREL(%rip), %rax
	pushq	%rbp
	.cfi_def_cfa_offset 16
	.cfi_offset 6, -16
	movq	%rdi, %rbp
	addq	$16, %rax
	movq	%rax, (%rdi)
	movq	16(%rdi), %rdi
	testq	%rdi, %rdi
	je	.L31
	call	_ZdaPv@PLT
.L31:
	movq	%rbp, %rdi
	movl	$24, %esi
	popq	%rbp
	.cfi_def_cfa_offset 8
	jmp	_ZdlPvm@PLT
	.cfi_endproc
.LFE212:
	.size	_ZN7openpal5ArrayIN8opendnp34CellINS1_10AnalogSpecEEEtED0Ev, .-_ZN7openpal5ArrayIN8opendnp34CellINS1_10AnalogSpecEEEtED0Ev
	.section	.text._ZN7openpal5ArrayIN8opendnp34CellINS1_11CounterSpecEEEtED0Ev,"axG",@progbits,_ZN7openpal5ArrayIN8opendnp34CellINS1_11CounterSpecEEEtED5Ev,comdat
	.align 2
	.p2align 4
	.weak	_ZN7openpal5ArrayIN8opendnp34CellINS1_11CounterSpecEEEtED0Ev
	.type	_ZN7openpal5ArrayIN8opendnp34CellINS1_11CounterSpecEEEtED0Ev, @function
_ZN7openpal5ArrayIN8opendnp34CellINS1_11CounterSpecEEEtED0Ev:
.LFB240:
	.cfi_startproc
	endbr64
	movq	_ZTVN7openpal5ArrayIN8opendnp34CellINS1_11CounterSpecEEEtEE@GOTPCREL(%rip), %rax
	pushq	%rbp
	.cfi_def_cfa_offset 16
	.cfi_offset 6, -16
	movq	%rdi, %rbp
	addq	$16, %rax
	movq	%rax, (%rdi)
	movq	16(%rdi), %rdi
	testq	%rdi, %rdi
	je	.L37
	call	_ZdaPv@PLT
.L37:
	movq	%rbp, %rdi
	movl	$24, %esi
	popq	%rbp
	.cfi_def_cfa_offset 8
	jmp	_ZdlPvm@PLT
	.cfi_endproc
.LFE240:
	.size	_ZN7openpal5ArrayIN8opendnp34CellINS1_11CounterSpecEEEtED0Ev, .-_ZN7openpal5ArrayIN8opendnp34CellINS1_11CounterSpecEEEtED0Ev
	.section	.text._ZN7openpal5ArrayIN8opendnp34CellINS1_17FrozenCounterSpecEEEtED0Ev,"axG",@progbits,_ZN7openpal5ArrayIN8opendnp34CellINS1_17FrozenCounterSpecEEEtED5Ev,comdat
	.align 2
	.p2align 4
	.weak	_ZN7openpal5ArrayIN8opendnp34CellINS1_17FrozenCounterSpecEEEtED0Ev
	.type	_ZN7openpal5ArrayIN8opendnp34CellINS1_17FrozenCounterSpecEEEtED0Ev, @function
_ZN7openpal5ArrayIN8opendnp34CellINS1_17FrozenCounterSpecEEEtED0Ev:
.LFB268:
	.cfi_startproc
	endbr64
	movq	_ZTVN7openpal5ArrayIN8opendnp34CellINS1_17FrozenCounterSpecEEEtEE@GOTPCREL(%rip), %rax
	pushq	%rbp
	.cfi_def_cfa_offset 16
	.cfi_offset 6, -16
	movq	%rdi, %rbp
	addq	$16, %rax
	movq	%rax, (%rdi)
	movq	16(%rdi), %rdi
	testq	%rdi, %rdi
	je	.L43
	call	_ZdaPv@PLT
.L43:
	movq	%rbp, %rdi
	movl	$24, %esi
	popq	%rbp
	.cfi_def_cfa_offset 8
	jmp	_ZdlPvm@PLT
	.cfi_endproc
.LFE268:
	.size	_ZN7openpal5ArrayIN8opendnp34CellINS1_17FrozenCounterSpecEEEtED0Ev, .-_ZN7openpal5ArrayIN8opendnp34CellINS1_17FrozenCounterSpecEEEtED0Ev
	.section	.text._ZN7openpal5ArrayIN8opendnp34CellINS1_22BinaryOutputStatusSpecEEEtED0Ev,"axG",@progbits,_ZN7openpal5ArrayIN8opendnp34CellINS1_22BinaryOutputStatusSpecEEEtED5Ev,comdat
	.align 2
	.p2align 4
	.weak	_ZN7openpal5ArrayIN8opendnp34CellINS1_22BinaryOutputStatusSpecEEEtED0Ev
	.type	_ZN7openpal5ArrayIN8opendnp34CellINS1_22BinaryOutputStatusSpecEEEtED0Ev, @function
_ZN7openpal5ArrayIN8opendnp34CellINS1_22BinaryOutputStatusSpecEEEtED0Ev:
.LFB290:
	.cfi_startproc
	endbr64
	movq	_ZTVN7openpal5ArrayIN8opendnp34CellINS1_22BinaryOutputStatusSpecEEEtEE@GOTPCREL(%rip), %rax
	pushq	%rbp
	.cfi_def_cfa_offset 16
	.cfi_offset 6, -16
	movq	%rdi, %rbp
	addq	$16, %rax
	movq	%rax, (%rdi)
	movq	16(%rdi), %rdi
	testq	%rdi, %rdi
	je	.L49
	call	_ZdaPv@PLT
.L49:
	movq	%rbp, %rdi
	movl	$24, %esi
	popq	%rbp
	.cfi_def_cfa_offset 8
	jmp	_ZdlPvm@PLT
	.cfi_endproc
.LFE290:
	.size	_ZN7openpal5ArrayIN8opendnp34CellINS1_22BinaryOutputStatusSpecEEEtED0Ev, .-_ZN7openpal5ArrayIN8opendnp34CellINS1_22BinaryOutputStatusSpecEEEtED0Ev
	.section	.text._ZN7openpal5ArrayIN8opendnp34CellINS1_22AnalogOutputStatusSpecEEEtED0Ev,"axG",@progbits,_ZN7openpal5ArrayIN8opendnp34CellINS1_22AnalogOutputStatusSpecEEEtED5Ev,comdat
	.align 2
	.p2align 4
	.weak	_ZN7openpal5ArrayIN8opendnp34CellINS1_22AnalogOutputStatusSpecEEEtED0Ev
	.type	_ZN7openpal5ArrayIN8opendnp34CellINS1_22AnalogOutputStatusSpecEEEtED0Ev, @function
_ZN7openpal5ArrayIN8opendnp34CellINS1_22AnalogOutputStatusSpecEEEtED0Ev:
.LFB318:
	.cfi_startproc
	endbr64
	movq	_ZTVN7openpal5ArrayIN8opendnp34CellINS1_22AnalogOutputStatusSpecEEEtEE@GOTPCREL(%rip), %rax
	pushq	%rbp
	.cfi_def_cfa_offset 16
	.cfi_offset 6, -16
	movq	%rdi, %rbp
	addq	$16, %rax
	movq	%rax, (%rdi)
	movq	16(%rdi), %rdi
	testq	%rdi, %rdi
	je	.L55
	call	_ZdaPv@PLT
.L55:
	movq	%rbp, %rdi
	movl	$24, %esi
	popq	%rbp
	.cfi_def_cfa_offset 8
	jmp	_ZdlPvm@PLT
	.cfi_endproc
.LFE318:
	.size	_ZN7openpal5ArrayIN8opendnp34CellINS1_22AnalogOutputStatusSpecEEEtED0Ev, .-_ZN7openpal5ArrayIN8opendnp34CellINS1_22AnalogOutputStatusSpecEEEtED0Ev
	.section	.text._ZN7openpal5ArrayIN8opendnp34CellINS1_19TimeAndIntervalSpecEEEtED0Ev,"axG",@progbits,_ZN7openpal5ArrayIN8opendnp34CellINS1_19TimeAndIntervalSpecEEEtED5Ev,comdat
	.align 2
	.p2align 4
	.weak	_ZN7openpal5ArrayIN8opendnp34CellINS1_19TimeAndIntervalSpecEEEtED0Ev
	.type	_ZN7openpal5ArrayIN8opendnp34CellINS1_19TimeAndIntervalSpecEEEtED0Ev, @function
_ZN7openpal5ArrayIN8opendnp34CellINS1_19TimeAndIntervalSpecEEEtED0Ev:
.LFB334:
	.cfi_startproc
	endbr64
	movq	_ZTVN7openpal5ArrayIN8opendnp34CellINS1_19TimeAndIntervalSpecEEEtEE@GOTPCREL(%rip), %rax
	pushq	%rbp
	.cfi_def_cfa_offset 16
	.cfi_offset 6, -16
	movq	%rdi, %rbp
	addq	$16, %rax
	movq	%rax, (%rdi)
	movq	16(%rdi), %rdi
	testq	%rdi, %rdi
	je	.L61
	call	_ZdaPv@PLT
.L61:
	movq	%rbp, %rdi
	movl	$24, %esi
	popq	%rbp
	.cfi_def_cfa_offset 8
	jmp	_ZdlPvm@PLT
	.cfi_endproc
.LFE334:
	.size	_ZN7openpal5ArrayIN8opendnp34CellINS1_19TimeAndIntervalSpecEEEtED0Ev, .-_ZN7openpal5ArrayIN8opendnp34CellINS1_19TimeAndIntervalSpecEEEtED0Ev
	.text
	.align 2
	.p2align 4
	.globl	_ZNK8opendnp313StaticBuffers7GetViewEv
	.type	_ZNK8opendnp313StaticBuffers7GetViewEv, @function
_ZNK8opendnp313StaticBuffers7GetViewEv:
.LFB116:
	.cfi_startproc
	endbr64
	pushq	%r15
	.cfi_def_cfa_offset 16
	.cfi_offset 15, -16
	xorl	%ecx, %ecx
	movq	%rdi, %r15
	xorl	%r10d, %r10d
	pushq	%r14
	.cfi_def_cfa_offset 24
	.cfi_offset 14, -24
	movq	%rsi, %r14
	xorl	%r8d, %r8d
	xorl	%eax, %eax
	pushq	%r13
	.cfi_def_cfa_offset 32
	.cfi_offset 13, -32
	pushq	%r12
	.cfi_def_cfa_offset 40
	.cfi_offset 12, -40
	xorl	%r12d, %r12d
	pushq	%rbp
	.cfi_def_cfa_offset 48
	.cfi_offset 6, -48
	pushq	%rbx
	.cfi_def_cfa_offset 56
	.cfi_offset 3, -56
	subq	$24, %rsp
	.cfi_def_cfa_offset 80
	movq	16(%r14), %rbp
	movq	112(%r14), %rdi
	movw	176(%rsi), %cx
	movq	184(%rsi), %rbx
	movq	%rbp, (%rsp)
	movw	152(%rsi), %r10w
	movq	160(%rsi), %r11
	movw	128(%rsi), %r8w
	movq	136(%rsi), %r9
	movw	80(%r14), %ax
	xorl	%esi, %esi
	movw	56(%r14), %r12w
	movw	104(%r14), %si
	movq	64(%r14), %r13
	movzwl	32(%r14), %ebp
	movq	88(%r14), %rdx
	movl	%ebp, 12(%rsp)
	movzwl	8(%r14), %ebp
	pushq	%rbx
	.cfi_def_cfa_offset 88
	pushq	%rcx
	.cfi_def_cfa_offset 96
	pushq	%r11
	.cfi_def_cfa_offset 104
	pushq	%r10
	.cfi_def_cfa_offset 112
	pushq	%r9
	.cfi_def_cfa_offset 120
	pushq	%r8
	.cfi_def_cfa_offset 128
	pushq	%rdi
	.cfi_def_cfa_offset 136
	movq	%r15, %rdi
	pushq	%rsi
	.cfi_def_cfa_offset 144
	movl	%ebp, %esi
	pushq	%rdx
	.cfi_def_cfa_offset 152
	movq	40(%r14), %r8
	pushq	%rax
	.cfi_def_cfa_offset 160
	pushq	%r13
	.cfi_def_cfa_offset 168
	pushq	%r12
	.cfi_def_cfa_offset 176
	movl	108(%rsp), %ecx
	movq	96(%rsp), %rdx
	call	_ZN8opendnp318DatabaseConfigViewC1EN7openpal9ArrayViewINS_4CellINS_10BinarySpecEEEtEENS2_INS3_INS_19DoubleBitBinarySpecEEEtEENS2_INS3_INS_10AnalogSpecEEEtEENS2_INS3_INS_11CounterSpecEEEtEENS2_INS3_INS_17FrozenCounterSpecEEEtEENS2_INS3_INS_22BinaryOutputStatusSpecEEEtEENS2_INS3_INS_22AnalogOutputStatusSpecEEEtEENS2_INS3_INS_19TimeAndIntervalSpecEEEtEE@PLT
	addq	$120, %rsp
	.cfi_def_cfa_offset 56
	movq	%r15, %rax
	popq	%rbx
	.cfi_def_cfa_offset 48
	popq	%rbp
	.cfi_def_cfa_offset 40
	popq	%r12
	.cfi_def_cfa_offset 32
	popq	%r13
	.cfi_def_cfa_offset 24
	popq	%r14
	.cfi_def_cfa_offset 16
	popq	%r15
	.cfi_def_cfa_offset 8
	ret
	.cfi_endproc
.LFE116:
	.size	_ZNK8opendnp313StaticBuffers7GetViewEv, .-_ZNK8opendnp313StaticBuffers7GetViewEv
	.align 2
	.p2align 4
	.globl	_ZN8opendnp313StaticBuffers12GetArrayViewINS_10BinarySpecEEEN7openpal9ArrayViewINS_4CellIT_EEtEEv
	.type	_ZN8opendnp313StaticBuffers12GetArrayViewINS_10BinarySpecEEEN7openpal9ArrayViewINS_4CellIT_EEtEEv, @function
_ZN8opendnp313StaticBuffers12GetArrayViewINS_10BinarySpecEEEN7openpal9ArrayViewINS_4CellIT_EEtEEv:
.LFB117:
	.cfi_startproc
	endbr64
	movq	16(%rdi), %rdx
	movzwl	8(%rdi), %eax
	ret
	.cfi_endproc
.LFE117:
	.size	_ZN8opendnp313StaticBuffers12GetArrayViewINS_10BinarySpecEEEN7openpal9ArrayViewINS_4CellIT_EEtEEv, .-_ZN8opendnp313StaticBuffers12GetArrayViewINS_10BinarySpecEEEN7openpal9ArrayViewINS_4CellIT_EEtEEv
	.align 2
	.p2align 4
	.globl	_ZN8opendnp313StaticBuffers12GetArrayViewINS_19DoubleBitBinarySpecEEEN7openpal9ArrayViewINS_4CellIT_EEtEEv
	.type	_ZN8opendnp313StaticBuffers12GetArrayViewINS_19DoubleBitBinarySpecEEEN7openpal9ArrayViewINS_4CellIT_EEtEEv, @function
_ZN8opendnp313StaticBuffers12GetArrayViewINS_19DoubleBitBinarySpecEEEN7openpal9ArrayViewINS_4CellIT_EEtEEv:
.LFB118:
	.cfi_startproc
	endbr64
	movq	40(%rdi), %rdx
	movzwl	32(%rdi), %eax
	ret
	.cfi_endproc
.LFE118:
	.size	_ZN8opendnp313StaticBuffers12GetArrayViewINS_19DoubleBitBinarySpecEEEN7openpal9ArrayViewINS_4CellIT_EEtEEv, .-_ZN8opendnp313StaticBuffers12GetArrayViewINS_19DoubleBitBinarySpecEEEN7openpal9ArrayViewINS_4CellIT_EEtEEv
	.align 2
	.p2align 4
	.globl	_ZN8opendnp313StaticBuffers12GetArrayViewINS_11CounterSpecEEEN7openpal9ArrayViewINS_4CellIT_EEtEEv
	.type	_ZN8opendnp313StaticBuffers12GetArrayViewINS_11CounterSpecEEEN7openpal9ArrayViewINS_4CellIT_EEtEEv, @function
_ZN8opendnp313StaticBuffers12GetArrayViewINS_11CounterSpecEEEN7openpal9ArrayViewINS_4CellIT_EEtEEv:
.LFB119:
	.cfi_startproc
	endbr64
	movq	88(%rdi), %rdx
	movzwl	80(%rdi), %eax
	ret
	.cfi_endproc
.LFE119:
	.size	_ZN8opendnp313StaticBuffers12GetArrayViewINS_11CounterSpecEEEN7openpal9ArrayViewINS_4CellIT_EEtEEv, .-_ZN8opendnp313StaticBuffers12GetArrayViewINS_11CounterSpecEEEN7openpal9ArrayViewINS_4CellIT_EEtEEv
	.align 2
	.p2align 4
	.globl	_ZN8opendnp313StaticBuffers12GetArrayViewINS_17FrozenCounterSpecEEEN7openpal9ArrayViewINS_4CellIT_EEtEEv
	.type	_ZN8opendnp313StaticBuffers12GetArrayViewINS_17FrozenCounterSpecEEEN7openpal9ArrayViewINS_4CellIT_EEtEEv, @function
_ZN8opendnp313StaticBuffers12GetArrayViewINS_17FrozenCounterSpecEEEN7openpal9ArrayViewINS_4CellIT_EEtEEv:
.LFB120:
	.cfi_startproc
	endbr64
	movq	112(%rdi), %rdx
	movzwl	104(%rdi), %eax
	ret
	.cfi_endproc
.LFE120:
	.size	_ZN8opendnp313StaticBuffers12GetArrayViewINS_17FrozenCounterSpecEEEN7openpal9ArrayViewINS_4CellIT_EEtEEv, .-_ZN8opendnp313StaticBuffers12GetArrayViewINS_17FrozenCounterSpecEEEN7openpal9ArrayViewINS_4CellIT_EEtEEv
	.align 2
	.p2align 4
	.globl	_ZN8opendnp313StaticBuffers12GetArrayViewINS_10AnalogSpecEEEN7openpal9ArrayViewINS_4CellIT_EEtEEv
	.type	_ZN8opendnp313StaticBuffers12GetArrayViewINS_10AnalogSpecEEEN7openpal9ArrayViewINS_4CellIT_EEtEEv, @function
_ZN8opendnp313StaticBuffers12GetArrayViewINS_10AnalogSpecEEEN7openpal9ArrayViewINS_4CellIT_EEtEEv:
.LFB121:
	.cfi_startproc
	endbr64
	movq	64(%rdi), %rdx
	movzwl	56(%rdi), %eax
	ret
	.cfi_endproc
.LFE121:
	.size	_ZN8opendnp313StaticBuffers12GetArrayViewINS_10AnalogSpecEEEN7openpal9ArrayViewINS_4CellIT_EEtEEv, .-_ZN8opendnp313StaticBuffers12GetArrayViewINS_10AnalogSpecEEEN7openpal9ArrayViewINS_4CellIT_EEtEEv
	.align 2
	.p2align 4
	.globl	_ZN8opendnp313StaticBuffers12GetArrayViewINS_22BinaryOutputStatusSpecEEEN7openpal9ArrayViewINS_4CellIT_EEtEEv
	.type	_ZN8opendnp313StaticBuffers12GetArrayViewINS_22BinaryOutputStatusSpecEEEN7openpal9ArrayViewINS_4CellIT_EEtEEv, @function
_ZN8opendnp313StaticBuffers12GetArrayViewINS_22BinaryOutputStatusSpecEEEN7openpal9ArrayViewINS_4CellIT_EEtEEv:
.LFB122:
	.cfi_startproc
	endbr64
	movq	136(%rdi), %rdx
	movzwl	128(%rdi), %eax
	ret
	.cfi_endproc
.LFE122:
	.size	_ZN8opendnp313StaticBuffers12GetArrayViewINS_22BinaryOutputStatusSpecEEEN7openpal9ArrayViewINS_4CellIT_EEtEEv, .-_ZN8opendnp313StaticBuffers12GetArrayViewINS_22BinaryOutputStatusSpecEEEN7openpal9ArrayViewINS_4CellIT_EEtEEv
	.align 2
	.p2align 4
	.globl	_ZN8opendnp313StaticBuffers12GetArrayViewINS_22AnalogOutputStatusSpecEEEN7openpal9ArrayViewINS_4CellIT_EEtEEv
	.type	_ZN8opendnp313StaticBuffers12GetArrayViewINS_22AnalogOutputStatusSpecEEEN7openpal9ArrayViewINS_4CellIT_EEtEEv, @function
_ZN8opendnp313StaticBuffers12GetArrayViewINS_22AnalogOutputStatusSpecEEEN7openpal9ArrayViewINS_4CellIT_EEtEEv:
.LFB123:
	.cfi_startproc
	endbr64
	movq	160(%rdi), %rdx
	movzwl	152(%rdi), %eax
	ret
	.cfi_endproc
.LFE123:
	.size	_ZN8opendnp313StaticBuffers12GetArrayViewINS_22AnalogOutputStatusSpecEEEN7openpal9ArrayViewINS_4CellIT_EEtEEv, .-_ZN8opendnp313StaticBuffers12GetArrayViewINS_22AnalogOutputStatusSpecEEEN7openpal9ArrayViewINS_4CellIT_EEtEEv
	.align 2
	.p2align 4
	.globl	_ZN8opendnp313StaticBuffers12GetArrayViewINS_19TimeAndIntervalSpecEEEN7openpal9ArrayViewINS_4CellIT_EEtEEv
	.type	_ZN8opendnp313StaticBuffers12GetArrayViewINS_19TimeAndIntervalSpecEEEN7openpal9ArrayViewINS_4CellIT_EEtEEv, @function
_ZN8opendnp313StaticBuffers12GetArrayViewINS_19TimeAndIntervalSpecEEEN7openpal9ArrayViewINS_4CellIT_EEtEEv:
.LFB124:
	.cfi_startproc
	endbr64
	movq	184(%rdi), %rdx
	movzwl	176(%rdi), %eax
	ret
	.cfi_endproc
.LFE124:
	.size	_ZN8opendnp313StaticBuffers12GetArrayViewINS_19TimeAndIntervalSpecEEEN7openpal9ArrayViewINS_4CellIT_EEtEEv, .-_ZN8opendnp313StaticBuffers12GetArrayViewINS_19TimeAndIntervalSpecEEEN7openpal9ArrayViewINS_4CellIT_EEtEEv
	.section	.text.unlikely,"ax",@progbits
	.align 2
.LCOLDB1:
	.text
.LHOTB1:
	.align 2
	.p2align 4
	.globl	_ZN8opendnp313StaticBuffersC2ERKNS_13DatabaseSizesE
	.type	_ZN8opendnp313StaticBuffersC2ERKNS_13DatabaseSizesE, @function
_ZN8opendnp313StaticBuffersC2ERKNS_13DatabaseSizesE:
.LFB114:
	.cfi_startproc
	.cfi_personality 0x9b,DW.ref.__gxx_personality_v0
	.cfi_lsda 0x1b,.LLSDA114
	endbr64
	pushq	%r15
	.cfi_def_cfa_offset 16
	.cfi_offset 15, -16
	pushq	%r14
	.cfi_def_cfa_offset 24
	.cfi_offset 14, -24
	pushq	%r13
	.cfi_def_cfa_offset 32
	.cfi_offset 13, -32
	movq	%rsi, %r13
	pushq	%r12
	.cfi_def_cfa_offset 40
	.cfi_offset 12, -40
	pushq	%rbp
	.cfi_def_cfa_offset 48
	.cfi_offset 6, -48
	pushq	%rbx
	.cfi_def_cfa_offset 56
	.cfi_offset 3, -56
	movq	%rdi, %rbx
	subq	$8, %rsp
	.cfi_def_cfa_offset 64
	movq	_ZTVN7openpal5ArrayIN8opendnp34CellINS1_10BinarySpecEEEtEE@GOTPCREL(%rip), %rax
	movzwl	(%rsi), %ebp
	addq	$16, %rax
	movw	%bp, 8(%rdi)
	movq	%rax, (%rdi)
	leaq	0(,%rbp,8), %rdi
	subq	%rbp, %rdi
	salq	$4, %rdi
.LEHB0:
	call	_Znam@PLT
.LEHE0:
	movq	%rax, %r15
	testq	%rbp, %rbp
	je	.L77
	leaq	-1(%rbp), %r12
	xorl	%r14d, %r14d
	movq	%rax, %rbp
	.p2align 4,,10
	.p2align 3
.L78:
	movl	$14, %ecx
	movq	%rbp, %rdi
	movq	%r14, %rax
	rep stosq
	movq	%rbp, %rdi
.LEHB1:
	call	_ZN8opendnp36BinaryC1Ev@PLT
	xorl	%eax, %eax
	movl	$513, %edx
	movb	$0, 28(%rbp)
	leaq	40(%rbp), %rdi
	movw	%ax, 24(%rbp)
	movw	%dx, 26(%rbp)
	movb	$2, 32(%rbp)
	call	_ZN8opendnp36BinaryC1Ev@PLT
	movb	$0, 64(%rbp)
	leaq	80(%rbp), %rdi
	movb	$0, 72(%rbp)
	call	_ZN8opendnp36BinaryC1Ev@PLT
.LEHE1:
	subq	$1, %r12
	movb	$1, 104(%rbp)
	addq	$112, %rbp
	cmpq	$-1, %r12
	jne	.L78
.L77:
	movq	_ZTVN7openpal5ArrayIN8opendnp34CellINS1_19DoubleBitBinarySpecEEEtEE@GOTPCREL(%rip), %rax
	movzwl	2(%r13), %ebp
	movq	%r15, 16(%rbx)
	addq	$16, %rax
	leaq	0(,%rbp,8), %rdi
	movw	%bp, 32(%rbx)
	movq	%rax, 24(%rbx)
	subq	%rbp, %rdi
	salq	$4, %rdi
.LEHB2:
	call	_Znam@PLT
.LEHE2:
	movq	%rax, %r15
	leaq	-1(%rbp), %r12
	testq	%rbp, %rbp
	je	.L81
	movq	%rax, %rbp
	xorl	%r14d, %r14d
	.p2align 4,,10
	.p2align 3
.L82:
	movl	$14, %ecx
	movq	%rbp, %rdi
	movq	%r14, %rax
	rep stosq
	movq	%rbp, %rdi
.LEHB3:
	call	_ZN8opendnp315DoubleBitBinaryC1Ev@PLT
	xorl	%eax, %eax
	movb	$0, 28(%rbp)
	leaq	40(%rbp), %rdi
	movw	%ax, 24(%rbp)
	movl	$512, %eax
	movw	%ax, 26(%rbp)
	movb	$2, 32(%rbp)
	call	_ZN8opendnp315DoubleBitBinaryC1Ev@PLT
	movb	$0, 64(%rbp)
	leaq	80(%rbp), %rdi
	movb	$0, 72(%rbp)
	call	_ZN8opendnp315DoubleBitBinaryC1Ev@PLT
.LEHE3:
	subq	$1, %r12
	movb	$0, 104(%rbp)
	addq	$112, %rbp
	cmpq	$-1, %r12
	jne	.L82
.L81:
	movzwl	4(%r13), %ebp
	movq	_ZTVN7openpal5ArrayIN8opendnp34CellINS1_10AnalogSpecEEEtEE@GOTPCREL(%rip), %rax
	movq	%r15, 40(%rbx)
	addq	$16, %rax
	movq	%rbp, %rdi
	movw	%bp, 56(%rbx)
	salq	$4, %rdi
	movq	%rax, 48(%rbx)
	subq	%rbp, %rdi
	salq	$3, %rdi
.LEHB4:
	call	_Znam@PLT
.LEHE4:
	movq	%rax, %r15
	leaq	-1(%rbp), %r12
	testq	%rbp, %rbp
	je	.L86
	movq	%rax, %rbp
	xorl	%r14d, %r14d
	.p2align 4,,10
	.p2align 3
.L87:
	movl	$15, %ecx
	movq	%rbp, %rdi
	movq	%r14, %rax
	rep stosq
	movq	%rbp, %rdi
.LEHB5:
	call	_ZN8opendnp36AnalogC1Ev@PLT
	xorl	%eax, %eax
	movb	$0, 28(%rbp)
	leaq	48(%rbp), %rdi
	movw	%ax, 24(%rbp)
	movl	$512, %eax
	movw	%ax, 26(%rbp)
	movq	$0x000000000, 32(%rbp)
	movb	$2, 40(%rbp)
	call	_ZN8opendnp36AnalogC1Ev@PLT
	movb	$0, 72(%rbp)
	leaq	88(%rbp), %rdi
	movb	$0, 80(%rbp)
	call	_ZN8opendnp36AnalogC1Ev@PLT
.LEHE5:
	subq	$1, %r12
	movb	$0, 112(%rbp)
	addq	$120, %rbp
	cmpq	$-1, %r12
	jne	.L87
.L86:
	movzwl	6(%r13), %ebp
	movq	_ZTVN7openpal5ArrayIN8opendnp34CellINS1_11CounterSpecEEEtEE@GOTPCREL(%rip), %rax
	movq	%r15, 64(%rbx)
	addq	$16, %rax
	movq	%rbp, %rdi
	movw	%bp, 80(%rbx)
	salq	$4, %rdi
	movq	%rax, 72(%rbx)
	subq	%rbp, %rdi
	salq	$3, %rdi
.LEHB6:
	call	_Znam@PLT
.LEHE6:
	movq	%rax, %r15
	leaq	-1(%rbp), %r12
	testq	%rbp, %rbp
	je	.L91
	movq	%rax, %rbp
	xorl	%r14d, %r14d
	.p2align 4,,10
	.p2align 3
.L92:
	movl	$15, %ecx
	movq	%rbp, %rdi
	movq	%r14, %rax
	rep stosq
	movq	%rbp, %rdi
.LEHB7:
	call	_ZN8opendnp37CounterC1Ev@PLT
	xorl	%r10d, %r10d
	movb	$0, 28(%rbp)
	leaq	48(%rbp), %rdi
	movl	$512, %r11d
	movw	%r10w, 24(%rbp)
	movw	%r11w, 26(%rbp)
	movl	$0, 32(%rbp)
	movb	$2, 40(%rbp)
	call	_ZN8opendnp37CounterC1Ev@PLT
	movb	$0, 72(%rbp)
	leaq	88(%rbp), %rdi
	movb	$0, 80(%rbp)
	call	_ZN8opendnp37CounterC1Ev@PLT
.LEHE7:
	movb	$0, 112(%rbp)
	addq	$120, %rbp
	subq	$1, %r12
	jnb	.L92
.L91:
	movzwl	8(%r13), %ebp
	movq	_ZTVN7openpal5ArrayIN8opendnp34CellINS1_17FrozenCounterSpecEEEtEE@GOTPCREL(%rip), %rax
	movq	%r15, 88(%rbx)
	addq	$16, %rax
	movq	%rbp, %rdi
	movw	%bp, 104(%rbx)
	salq	$4, %rdi
	movq	%rax, 96(%rbx)
	subq	%rbp, %rdi
	salq	$3, %rdi
.LEHB8:
	call	_Znam@PLT
.LEHE8:
	movq	%rax, %r15
	leaq	-1(%rbp), %r12
	testq	%rbp, %rbp
	je	.L96
	movq	%rax, %rbp
	xorl	%r14d, %r14d
	.p2align 4,,10
	.p2align 3
.L97:
	movl	$15, %ecx
	movq	%rbp, %rdi
	movq	%r14, %rax
	rep stosq
	movq	%rbp, %rdi
.LEHB9:
	call	_ZN8opendnp313FrozenCounterC1Ev@PLT
	xorl	%r8d, %r8d
	movb	$0, 28(%rbp)
	leaq	48(%rbp), %rdi
	movl	$512, %r9d
	movw	%r8w, 24(%rbp)
	movw	%r9w, 26(%rbp)
	movl	$0, 32(%rbp)
	movb	$2, 40(%rbp)
	call	_ZN8opendnp313FrozenCounterC1Ev@PLT
	movb	$0, 72(%rbp)
	leaq	88(%rbp), %rdi
	movb	$0, 80(%rbp)
	call	_ZN8opendnp313FrozenCounterC1Ev@PLT
.LEHE9:
	movb	$0, 112(%rbp)
	addq	$120, %rbp
	subq	$1, %r12
	jnb	.L97
.L96:
	movq	_ZTVN7openpal5ArrayIN8opendnp34CellINS1_22BinaryOutputStatusSpecEEEtEE@GOTPCREL(%rip), %rax
	movzwl	10(%r13), %ebp
	movq	%r15, 112(%rbx)
	addq	$16, %rax
	leaq	0(,%rbp,8), %rdi
	movw	%bp, 128(%rbx)
	movq	%rax, 120(%rbx)
	subq	%rbp, %rdi
	salq	$4, %rdi
.LEHB10:
	call	_Znam@PLT
.LEHE10:
	movq	%rax, %r15
	leaq	-1(%rbp), %r12
	testq	%rbp, %rbp
	je	.L101
	movq	%rax, %rbp
	xorl	%r14d, %r14d
	.p2align 4,,10
	.p2align 3
.L102:
	movl	$14, %ecx
	movq	%rbp, %rdi
	movq	%r14, %rax
	rep stosq
	movq	%rbp, %rdi
.LEHB11:
	call	_ZN8opendnp318BinaryOutputStatusC1Ev@PLT
	movl	$512, %edi
	xorl	%esi, %esi
	movb	$0, 28(%rbp)
	movw	%di, 26(%rbp)
	leaq	40(%rbp), %rdi
	movw	%si, 24(%rbp)
	movb	$2, 32(%rbp)
	call	_ZN8opendnp318BinaryOutputStatusC1Ev@PLT
	movb	$0, 64(%rbp)
	leaq	80(%rbp), %rdi
	movb	$0, 72(%rbp)
	call	_ZN8opendnp318BinaryOutputStatusC1Ev@PLT
.LEHE11:
	movb	$0, 104(%rbp)
	addq	$112, %rbp
	subq	$1, %r12
	jnb	.L102
.L101:
	movzwl	12(%r13), %ebp
	movq	_ZTVN7openpal5ArrayIN8opendnp34CellINS1_22AnalogOutputStatusSpecEEEtEE@GOTPCREL(%rip), %rax
	movq	%r15, 136(%rbx)
	addq	$16, %rax
	movq	%rbp, %rdi
	movw	%bp, 152(%rbx)
	salq	$4, %rdi
	movq	%rax, 144(%rbx)
	subq	%rbp, %rdi
	salq	$3, %rdi
.LEHB12:
	call	_Znam@PLT
.LEHE12:
	movq	%rax, %r15
	leaq	-1(%rbp), %r12
	testq	%rbp, %rbp
	je	.L106
	movq	%rax, %rbp
	xorl	%r14d, %r14d
	.p2align 4,,10
	.p2align 3
.L107:
	movl	$15, %ecx
	movq	%rbp, %rdi
	movq	%r14, %rax
	rep stosq
	movq	%rbp, %rdi
.LEHB13:
	call	_ZN8opendnp318AnalogOutputStatusC1Ev@PLT
	xorl	%edx, %edx
	movl	$512, %ecx
	movb	$0, 28(%rbp)
	leaq	48(%rbp), %rdi
	movw	%dx, 24(%rbp)
	movw	%cx, 26(%rbp)
	movq	$0x000000000, 32(%rbp)
	movb	$2, 40(%rbp)
	call	_ZN8opendnp318AnalogOutputStatusC1Ev@PLT
	movb	$0, 72(%rbp)
	leaq	88(%rbp), %rdi
	movb	$0, 80(%rbp)
	call	_ZN8opendnp318AnalogOutputStatusC1Ev@PLT
.LEHE13:
	movb	$0, 112(%rbp)
	addq	$120, %rbp
	subq	$1, %r12
	jnb	.L107
.L106:
	movq	_ZTVN7openpal5ArrayIN8opendnp34CellINS1_19TimeAndIntervalSpecEEEtEE@GOTPCREL(%rip), %r14
	movzwl	14(%r13), %ebp
	movq	%r15, 160(%rbx)
	leaq	16(%r14), %rax
	leaq	0(,%rbp,8), %rdi
	movw	%bp, 176(%rbx)
	movq	%rax, 168(%rbx)
	subq	%rbp, %rdi
	salq	$3, %rdi
.LEHB14:
	call	_Znam@PLT
.LEHE14:
	movq	%rax, %r13
	leaq	-1(%rbp), %r12
	testq	%rbp, %rbp
	je	.L111
	movq	%rax, %rbp
	.p2align 4,,10
	.p2align 3
.L112:
	movq	$0, 48(%rbp)
	pxor	%xmm0, %xmm0
	movq	%rbp, %rdi
	movups	%xmm0, 0(%rbp)
	movups	%xmm0, 16(%rbp)
	movups	%xmm0, 32(%rbp)
.LEHB15:
	call	_ZN8opendnp315TimeAndIntervalC1Ev@PLT
	xorl	%eax, %eax
	movb	$0, 18(%rbp)
	leaq	32(%rbp), %rdi
	movw	%ax, 16(%rbp)
	movb	$0, 24(%rbp)
	call	_ZN8opendnp315TimeAndIntervalC1Ev@PLT
.LEHE15:
	movb	$0, 48(%rbp)
	addq	$56, %rbp
	subq	$1, %r12
	jnb	.L112
.L111:
	movq	%r13, 184(%rbx)
	movq	%rbx, %rdi
.LEHB16:
	call	_ZN8opendnp313StaticBuffers12GetArrayViewINS_10BinarySpecEEEN7openpal9ArrayViewINS_4CellIT_EEtEEv@PLT
	movl	%eax, %esi
	addq	$24, %rdx
	xorl	%ecx, %ecx
	testw	%ax, %ax
	je	.L114
	.p2align 4,,10
	.p2align 3
.L117:
	movw	%cx, (%rdx)
	addl	$1, %ecx
	addq	$112, %rdx
	cmpw	%si, %cx
	jne	.L117
.L114:
	movq	%rbx, %rdi
	call	_ZN8opendnp313StaticBuffers12GetArrayViewINS_19DoubleBitBinarySpecEEEN7openpal9ArrayViewINS_4CellIT_EEtEEv@PLT
	movl	%eax, %ecx
	testw	%ax, %ax
	je	.L118
	addq	$24, %rdx
	xorl	%eax, %eax
	.p2align 4,,10
	.p2align 3
.L119:
	movw	%ax, (%rdx)
	addl	$1, %eax
	addq	$112, %rdx
	cmpw	%cx, %ax
	jne	.L119
.L118:
	movq	%rbx, %rdi
	call	_ZN8opendnp313StaticBuffers12GetArrayViewINS_11CounterSpecEEEN7openpal9ArrayViewINS_4CellIT_EEtEEv@PLT
	movl	%eax, %ecx
	testw	%ax, %ax
	je	.L120
	addq	$24, %rdx
	xorl	%eax, %eax
	.p2align 4,,10
	.p2align 3
.L121:
	movw	%ax, (%rdx)
	addl	$1, %eax
	addq	$120, %rdx
	cmpw	%cx, %ax
	jne	.L121
.L120:
	movq	%rbx, %rdi
	call	_ZN8opendnp313StaticBuffers12GetArrayViewINS_17FrozenCounterSpecEEEN7openpal9ArrayViewINS_4CellIT_EEtEEv@PLT
	movl	%eax, %ecx
	testw	%ax, %ax
	je	.L122
	addq	$24, %rdx
	xorl	%eax, %eax
	.p2align 4,,10
	.p2align 3
.L123:
	movw	%ax, (%rdx)
	addl	$1, %eax
	addq	$120, %rdx
	cmpw	%cx, %ax
	jne	.L123
.L122:
	movq	%rbx, %rdi
	call	_ZN8opendnp313StaticBuffers12GetArrayViewINS_10AnalogSpecEEEN7openpal9ArrayViewINS_4CellIT_EEtEEv@PLT
	movl	%eax, %ecx
	testw	%ax, %ax
	je	.L124
	addq	$24, %rdx
	xorl	%eax, %eax
	.p2align 4,,10
	.p2align 3
.L125:
	movw	%ax, (%rdx)
	addl	$1, %eax
	addq	$120, %rdx
	cmpw	%cx, %ax
	jne	.L125
.L124:
	movq	%rbx, %rdi
	call	_ZN8opendnp313StaticBuffers12GetArrayViewINS_22BinaryOutputStatusSpecEEEN7openpal9ArrayViewINS_4CellIT_EEtEEv@PLT
	movl	%eax, %ecx
	testw	%ax, %ax
	je	.L126
	addq	$24, %rdx
	xorl	%eax, %eax
	.p2align 4,,10
	.p2align 3
.L127:
	movw	%ax, (%rdx)
	addl	$1, %eax
	addq	$112, %rdx
	cmpw	%cx, %ax
	jne	.L127
.L126:
	movq	%rbx, %rdi
	call	_ZN8opendnp313StaticBuffers12GetArrayViewINS_22AnalogOutputStatusSpecEEEN7openpal9ArrayViewINS_4CellIT_EEtEEv@PLT
	movl	%eax, %ecx
	testw	%ax, %ax
	je	.L128
	addq	$24, %rdx
	xorl	%eax, %eax
	.p2align 4,,10
	.p2align 3
.L129:
	movw	%ax, (%rdx)
	addl	$1, %eax
	addq	$120, %rdx
	cmpw	%cx, %ax
	jne	.L129
.L128:
	movq	%rbx, %rdi
	call	_ZN8opendnp313StaticBuffers12GetArrayViewINS_19TimeAndIntervalSpecEEEN7openpal9ArrayViewINS_4CellIT_EEtEEv@PLT
.LEHE16:
	movl	%eax, %ecx
	testw	%ax, %ax
	je	.L157
	addq	$16, %rdx
	xorl	%eax, %eax
	.p2align 4,,10
	.p2align 3
.L131:
	movw	%ax, (%rdx)
	addl	$1, %eax
	addq	$56, %rdx
	cmpw	%cx, %ax
	jne	.L131
.L157:
	addq	$8, %rsp
	.cfi_remember_state
	.cfi_def_cfa_offset 56
	popq	%rbx
	.cfi_def_cfa_offset 48
	popq	%rbp
	.cfi_def_cfa_offset 40
	popq	%r12
	.cfi_def_cfa_offset 32
	popq	%r13
	.cfi_def_cfa_offset 24
	popq	%r14
	.cfi_def_cfa_offset 16
	popq	%r15
	.cfi_def_cfa_offset 8
	ret
.L150:
	.cfi_restore_state
	endbr64
	movq	%rax, %rbp
	jmp	.L80
.L148:
	endbr64
	movq	%rax, %rbp
	jmp	.L132
.L156:
	endbr64
	movq	%rax, %rbp
	jmp	.L115
.L147:
	endbr64
	movq	%rax, %rbp
	jmp	.L116
.L155:
	endbr64
	movq	%rax, %rbp
	jmp	.L109
.L146:
	endbr64
	movq	%rax, %rbp
	jmp	.L110
.L154:
	endbr64
	movq	%rax, %rbp
	jmp	.L104
.L145:
	endbr64
	movq	%rax, %rbp
	jmp	.L105
.L153:
	endbr64
	movq	%rax, %rbp
	jmp	.L99
.L144:
	endbr64
	movq	%rax, %rbp
	jmp	.L100
.L152:
	endbr64
	movq	%rax, %rbp
	jmp	.L94
.L143:
	endbr64
	movq	%rax, %rbp
	jmp	.L95
.L151:
	endbr64
	movq	%rax, %rbp
	jmp	.L89
.L142:
	endbr64
	movq	%rax, %rbp
	jmp	.L90
.L149:
	endbr64
	movq	%rax, %rbp
	jmp	.L84
.L141:
	endbr64
	movq	%rax, %rbp
	jmp	.L85
	.globl	__gxx_personality_v0
	.section	.gcc_except_table,"a",@progbits
.LLSDA114:
	.byte	0xff
	.byte	0xff
	.byte	0x1
	.uleb128 .LLSDACSE114-.LLSDACSB114
.LLSDACSB114:
	.uleb128 .LEHB0-.LFB114
	.uleb128 .LEHE0-.LEHB0
	.uleb128 0
	.uleb128 0
	.uleb128 .LEHB1-.LFB114
	.uleb128 .LEHE1-.LEHB1
	.uleb128 .L150-.LFB114
	.uleb128 0
	.uleb128 .LEHB2-.LFB114
	.uleb128 .LEHE2-.LEHB2
	.uleb128 .L141-.LFB114
	.uleb128 0
	.uleb128 .LEHB3-.LFB114
	.uleb128 .LEHE3-.LEHB3
	.uleb128 .L149-.LFB114
	.uleb128 0
	.uleb128 .LEHB4-.LFB114
	.uleb128 .LEHE4-.LEHB4
	.uleb128 .L142-.LFB114
	.uleb128 0
	.uleb128 .LEHB5-.LFB114
	.uleb128 .LEHE5-.LEHB5
	.uleb128 .L151-.LFB114
	.uleb128 0
	.uleb128 .LEHB6-.LFB114
	.uleb128 .LEHE6-.LEHB6
	.uleb128 .L143-.LFB114
	.uleb128 0
	.uleb128 .LEHB7-.LFB114
	.uleb128 .LEHE7-.LEHB7
	.uleb128 .L152-.LFB114
	.uleb128 0
	.uleb128 .LEHB8-.LFB114
	.uleb128 .LEHE8-.LEHB8
	.uleb128 .L144-.LFB114
	.uleb128 0
	.uleb128 .LEHB9-.LFB114
	.uleb128 .LEHE9-.LEHB9
	.uleb128 .L153-.LFB114
	.uleb128 0
	.uleb128 .LEHB10-.LFB114
	.uleb128 .LEHE10-.LEHB10
	.uleb128 .L145-.LFB114
	.uleb128 0
	.uleb128 .LEHB11-.LFB114
	.uleb128 .LEHE11-.LEHB11
	.uleb128 .L154-.LFB114
	.uleb128 0
	.uleb128 .LEHB12-.LFB114
	.uleb128 .LEHE12-.LEHB12
	.uleb128 .L146-.LFB114
	.uleb128 0
	.uleb128 .LEHB13-.LFB114
	.uleb128 .LEHE13-.LEHB13
	.uleb128 .L155-.LFB114
	.uleb128 0
	.uleb128 .LEHB14-.LFB114
	.uleb128 .LEHE14-.LEHB14
	.uleb128 .L147-.LFB114
	.uleb128 0
	.uleb128 .LEHB15-.LFB114
	.uleb128 .LEHE15-.LEHB15
	.uleb128 .L156-.LFB114
	.uleb128 0
	.uleb128 .LEHB16-.LFB114
	.uleb128 .LEHE16-.LEHB16
	.uleb128 .L148-.LFB114
	.uleb128 0
.LLSDACSE114:
	.text
	.cfi_endproc
	.section	.text.unlikely
	.cfi_startproc
	.cfi_personality 0x9b,DW.ref.__gxx_personality_v0
	.cfi_lsda 0x1b,.LLSDAC114
	.type	_ZN8opendnp313StaticBuffersC2ERKNS_13DatabaseSizesE.cold, @function
_ZN8opendnp313StaticBuffersC2ERKNS_13DatabaseSizesE.cold:
.LFSB114:
.L80:
	.cfi_def_cfa_offset 64
	.cfi_offset 3, -56
	.cfi_offset 6, -48
	.cfi_offset 12, -40
	.cfi_offset 13, -32
	.cfi_offset 14, -24
	.cfi_offset 15, -16
	movq	%r15, %rdi
	call	_ZdaPv@PLT
	movq	%rbp, %rdi
.LEHB17:
	call	_Unwind_Resume@PLT
.L132:
	movq	184(%rbx), %rdi
	leaq	16(%r14), %rax
	movq	%rax, 168(%rbx)
	testq	%rdi, %rdi
	je	.L116
	call	_ZdaPv@PLT
	jmp	.L116
.L115:
	movq	%r13, %rdi
	call	_ZdaPv@PLT
.L116:
	movq	_ZTVN7openpal5ArrayIN8opendnp34CellINS1_22AnalogOutputStatusSpecEEEtEE@GOTPCREL(%rip), %rax
	movq	160(%rbx), %rdi
	addq	$16, %rax
	movq	%rax, 144(%rbx)
	testq	%rdi, %rdi
	je	.L110
	call	_ZdaPv@PLT
.L110:
	movq	_ZTVN7openpal5ArrayIN8opendnp34CellINS1_22BinaryOutputStatusSpecEEEtEE@GOTPCREL(%rip), %rax
	movq	136(%rbx), %rdi
	addq	$16, %rax
	movq	%rax, 120(%rbx)
	testq	%rdi, %rdi
	je	.L105
	call	_ZdaPv@PLT
.L105:
	movq	_ZTVN7openpal5ArrayIN8opendnp34CellINS1_17FrozenCounterSpecEEEtEE@GOTPCREL(%rip), %rax
	movq	112(%rbx), %rdi
	addq	$16, %rax
	movq	%rax, 96(%rbx)
	testq	%rdi, %rdi
	je	.L100
	call	_ZdaPv@PLT
.L100:
	movq	_ZTVN7openpal5ArrayIN8opendnp34CellINS1_11CounterSpecEEEtEE@GOTPCREL(%rip), %rax
	movq	88(%rbx), %rdi
	addq	$16, %rax
	movq	%rax, 72(%rbx)
	testq	%rdi, %rdi
	je	.L95
	call	_ZdaPv@PLT
.L95:
	movq	_ZTVN7openpal5ArrayIN8opendnp34CellINS1_10AnalogSpecEEEtEE@GOTPCREL(%rip), %rax
	movq	64(%rbx), %rdi
	addq	$16, %rax
	movq	%rax, 48(%rbx)
	testq	%rdi, %rdi
	je	.L90
	call	_ZdaPv@PLT
.L90:
	movq	_ZTVN7openpal5ArrayIN8opendnp34CellINS1_19DoubleBitBinarySpecEEEtEE@GOTPCREL(%rip), %rax
	movq	40(%rbx), %rdi
	addq	$16, %rax
	movq	%rax, 24(%rbx)
	testq	%rdi, %rdi
	je	.L85
	call	_ZdaPv@PLT
.L85:
	movq	_ZTVN7openpal5ArrayIN8opendnp34CellINS1_10BinarySpecEEEtEE@GOTPCREL(%rip), %rax
	movq	16(%rbx), %rdi
	addq	$16, %rax
	movq	%rax, (%rbx)
	testq	%rdi, %rdi
	je	.L140
	call	_ZdaPv@PLT
.L140:
	movq	%rbp, %rdi
	call	_Unwind_Resume@PLT
.LEHE17:
.L109:
	movq	%r15, %rdi
	call	_ZdaPv@PLT
	jmp	.L110
.L104:
	movq	%r15, %rdi
	call	_ZdaPv@PLT
	jmp	.L105
.L99:
	movq	%r15, %rdi
	call	_ZdaPv@PLT
	jmp	.L100
.L94:
	movq	%r15, %rdi
	call	_ZdaPv@PLT
	jmp	.L95
.L89:
	movq	%r15, %rdi
	call	_ZdaPv@PLT
	jmp	.L90
.L84:
	movq	%r15, %rdi
	call	_ZdaPv@PLT
	jmp	.L85
	.cfi_endproc
.LFE114:
	.section	.gcc_except_table
.LLSDAC114:
	.byte	0xff
	.byte	0xff
	.byte	0x1
	.uleb128 .LLSDACSEC114-.LLSDACSBC114
.LLSDACSBC114:
	.uleb128 .LEHB17-.LCOLDB1
	.uleb128 .LEHE17-.LEHB17
	.uleb128 0
	.uleb128 0
.LLSDACSEC114:
	.section	.text.unlikely
	.text
	.size	_ZN8opendnp313StaticBuffersC2ERKNS_13DatabaseSizesE, .-_ZN8opendnp313StaticBuffersC2ERKNS_13DatabaseSizesE
	.section	.text.unlikely
	.size	_ZN8opendnp313StaticBuffersC2ERKNS_13DatabaseSizesE.cold, .-_ZN8opendnp313StaticBuffersC2ERKNS_13DatabaseSizesE.cold
.LCOLDE1:
	.text
.LHOTE1:
	.globl	_ZN8opendnp313StaticBuffersC1ERKNS_13DatabaseSizesE
	.set	_ZN8opendnp313StaticBuffersC1ERKNS_13DatabaseSizesE,_ZN8opendnp313StaticBuffersC2ERKNS_13DatabaseSizesE
	.weak	_ZTSN7openpal7HasSizeItEE
	.section	.rodata._ZTSN7openpal7HasSizeItEE,"aG",@progbits,_ZTSN7openpal7HasSizeItEE,comdat
	.align 16
	.type	_ZTSN7openpal7HasSizeItEE, @object
	.size	_ZTSN7openpal7HasSizeItEE, 22
_ZTSN7openpal7HasSizeItEE:
	.string	"N7openpal7HasSizeItEE"
	.weak	_ZTIN7openpal7HasSizeItEE
	.section	.data.rel.ro._ZTIN7openpal7HasSizeItEE,"awG",@progbits,_ZTIN7openpal7HasSizeItEE,comdat
	.align 8
	.type	_ZTIN7openpal7HasSizeItEE, @object
	.size	_ZTIN7openpal7HasSizeItEE, 16
_ZTIN7openpal7HasSizeItEE:
	.quad	_ZTVN10__cxxabiv117__class_type_infoE+16
	.quad	_ZTSN7openpal7HasSizeItEE
	.weak	_ZTSN7openpal5ArrayIN8opendnp34CellINS1_10BinarySpecEEEtEE
	.section	.rodata._ZTSN7openpal5ArrayIN8opendnp34CellINS1_10BinarySpecEEEtEE,"aG",@progbits,_ZTSN7openpal5ArrayIN8opendnp34CellINS1_10BinarySpecEEEtEE,comdat
	.align 32
	.type	_ZTSN7openpal5ArrayIN8opendnp34CellINS1_10BinarySpecEEEtEE, @object
	.size	_ZTSN7openpal5ArrayIN8opendnp34CellINS1_10BinarySpecEEEtEE, 55
_ZTSN7openpal5ArrayIN8opendnp34CellINS1_10BinarySpecEEEtEE:
	.string	"N7openpal5ArrayIN8opendnp34CellINS1_10BinarySpecEEEtEE"
	.weak	_ZTIN7openpal5ArrayIN8opendnp34CellINS1_10BinarySpecEEEtEE
	.section	.data.rel.ro._ZTIN7openpal5ArrayIN8opendnp34CellINS1_10BinarySpecEEEtEE,"awG",@progbits,_ZTIN7openpal5ArrayIN8opendnp34CellINS1_10BinarySpecEEEtEE,comdat
	.align 8
	.type	_ZTIN7openpal5ArrayIN8opendnp34CellINS1_10BinarySpecEEEtEE, @object
	.size	_ZTIN7openpal5ArrayIN8opendnp34CellINS1_10BinarySpecEEEtEE, 40
_ZTIN7openpal5ArrayIN8opendnp34CellINS1_10BinarySpecEEEtEE:
	.quad	_ZTVN10__cxxabiv121__vmi_class_type_infoE+16
	.quad	_ZTSN7openpal5ArrayIN8opendnp34CellINS1_10BinarySpecEEEtEE
	.long	0
	.long	1
	.quad	_ZTIN7openpal7HasSizeItEE
	.quad	2050
	.weak	_ZTSN7openpal5ArrayIN8opendnp34CellINS1_19DoubleBitBinarySpecEEEtEE
	.section	.rodata._ZTSN7openpal5ArrayIN8opendnp34CellINS1_19DoubleBitBinarySpecEEEtEE,"aG",@progbits,_ZTSN7openpal5ArrayIN8opendnp34CellINS1_19DoubleBitBinarySpecEEEtEE,comdat
	.align 32
	.type	_ZTSN7openpal5ArrayIN8opendnp34CellINS1_19DoubleBitBinarySpecEEEtEE, @object
	.size	_ZTSN7openpal5ArrayIN8opendnp34CellINS1_19DoubleBitBinarySpecEEEtEE, 64
_ZTSN7openpal5ArrayIN8opendnp34CellINS1_19DoubleBitBinarySpecEEEtEE:
	.string	"N7openpal5ArrayIN8opendnp34CellINS1_19DoubleBitBinarySpecEEEtEE"
	.weak	_ZTIN7openpal5ArrayIN8opendnp34CellINS1_19DoubleBitBinarySpecEEEtEE
	.section	.data.rel.ro._ZTIN7openpal5ArrayIN8opendnp34CellINS1_19DoubleBitBinarySpecEEEtEE,"awG",@progbits,_ZTIN7openpal5ArrayIN8opendnp34CellINS1_19DoubleBitBinarySpecEEEtEE,comdat
	.align 8
	.type	_ZTIN7openpal5ArrayIN8opendnp34CellINS1_19DoubleBitBinarySpecEEEtEE, @object
	.size	_ZTIN7openpal5ArrayIN8opendnp34CellINS1_19DoubleBitBinarySpecEEEtEE, 40
_ZTIN7openpal5ArrayIN8opendnp34CellINS1_19DoubleBitBinarySpecEEEtEE:
	.quad	_ZTVN10__cxxabiv121__vmi_class_type_infoE+16
	.quad	_ZTSN7openpal5ArrayIN8opendnp34CellINS1_19DoubleBitBinarySpecEEEtEE
	.long	0
	.long	1
	.quad	_ZTIN7openpal7HasSizeItEE
	.quad	2050
	.weak	_ZTSN7openpal5ArrayIN8opendnp34CellINS1_10AnalogSpecEEEtEE
	.section	.rodata._ZTSN7openpal5ArrayIN8opendnp34CellINS1_10AnalogSpecEEEtEE,"aG",@progbits,_ZTSN7openpal5ArrayIN8opendnp34CellINS1_10AnalogSpecEEEtEE,comdat
	.align 32
	.type	_ZTSN7openpal5ArrayIN8opendnp34CellINS1_10AnalogSpecEEEtEE, @object
	.size	_ZTSN7openpal5ArrayIN8opendnp34CellINS1_10AnalogSpecEEEtEE, 55
_ZTSN7openpal5ArrayIN8opendnp34CellINS1_10AnalogSpecEEEtEE:
	.string	"N7openpal5ArrayIN8opendnp34CellINS1_10AnalogSpecEEEtEE"
	.weak	_ZTIN7openpal5ArrayIN8opendnp34CellINS1_10AnalogSpecEEEtEE
	.section	.data.rel.ro._ZTIN7openpal5ArrayIN8opendnp34CellINS1_10AnalogSpecEEEtEE,"awG",@progbits,_ZTIN7openpal5ArrayIN8opendnp34CellINS1_10AnalogSpecEEEtEE,comdat
	.align 8
	.type	_ZTIN7openpal5ArrayIN8opendnp34CellINS1_10AnalogSpecEEEtEE, @object
	.size	_ZTIN7openpal5ArrayIN8opendnp34CellINS1_10AnalogSpecEEEtEE, 40
_ZTIN7openpal5ArrayIN8opendnp34CellINS1_10AnalogSpecEEEtEE:
	.quad	_ZTVN10__cxxabiv121__vmi_class_type_infoE+16
	.quad	_ZTSN7openpal5ArrayIN8opendnp34CellINS1_10AnalogSpecEEEtEE
	.long	0
	.long	1
	.quad	_ZTIN7openpal7HasSizeItEE
	.quad	2050
	.weak	_ZTSN7openpal5ArrayIN8opendnp34CellINS1_11CounterSpecEEEtEE
	.section	.rodata._ZTSN7openpal5ArrayIN8opendnp34CellINS1_11CounterSpecEEEtEE,"aG",@progbits,_ZTSN7openpal5ArrayIN8opendnp34CellINS1_11CounterSpecEEEtEE,comdat
	.align 32
	.type	_ZTSN7openpal5ArrayIN8opendnp34CellINS1_11CounterSpecEEEtEE, @object
	.size	_ZTSN7openpal5ArrayIN8opendnp34CellINS1_11CounterSpecEEEtEE, 56
_ZTSN7openpal5ArrayIN8opendnp34CellINS1_11CounterSpecEEEtEE:
	.string	"N7openpal5ArrayIN8opendnp34CellINS1_11CounterSpecEEEtEE"
	.weak	_ZTIN7openpal5ArrayIN8opendnp34CellINS1_11CounterSpecEEEtEE
	.section	.data.rel.ro._ZTIN7openpal5ArrayIN8opendnp34CellINS1_11CounterSpecEEEtEE,"awG",@progbits,_ZTIN7openpal5ArrayIN8opendnp34CellINS1_11CounterSpecEEEtEE,comdat
	.align 8
	.type	_ZTIN7openpal5ArrayIN8opendnp34CellINS1_11CounterSpecEEEtEE, @object
	.size	_ZTIN7openpal5ArrayIN8opendnp34CellINS1_11CounterSpecEEEtEE, 40
_ZTIN7openpal5ArrayIN8opendnp34CellINS1_11CounterSpecEEEtEE:
	.quad	_ZTVN10__cxxabiv121__vmi_class_type_infoE+16
	.quad	_ZTSN7openpal5ArrayIN8opendnp34CellINS1_11CounterSpecEEEtEE
	.long	0
	.long	1
	.quad	_ZTIN7openpal7HasSizeItEE
	.quad	2050
	.weak	_ZTSN7openpal5ArrayIN8opendnp34CellINS1_17FrozenCounterSpecEEEtEE
	.section	.rodata._ZTSN7openpal5ArrayIN8opendnp34CellINS1_17FrozenCounterSpecEEEtEE,"aG",@progbits,_ZTSN7openpal5ArrayIN8opendnp34CellINS1_17FrozenCounterSpecEEEtEE,comdat
	.align 32
	.type	_ZTSN7openpal5ArrayIN8opendnp34CellINS1_17FrozenCounterSpecEEEtEE, @object
	.size	_ZTSN7openpal5ArrayIN8opendnp34CellINS1_17FrozenCounterSpecEEEtEE, 62
_ZTSN7openpal5ArrayIN8opendnp34CellINS1_17FrozenCounterSpecEEEtEE:
	.string	"N7openpal5ArrayIN8opendnp34CellINS1_17FrozenCounterSpecEEEtEE"
	.weak	_ZTIN7openpal5ArrayIN8opendnp34CellINS1_17FrozenCounterSpecEEEtEE
	.section	.data.rel.ro._ZTIN7openpal5ArrayIN8opendnp34CellINS1_17FrozenCounterSpecEEEtEE,"awG",@progbits,_ZTIN7openpal5ArrayIN8opendnp34CellINS1_17FrozenCounterSpecEEEtEE,comdat
	.align 8
	.type	_ZTIN7openpal5ArrayIN8opendnp34CellINS1_17FrozenCounterSpecEEEtEE, @object
	.size	_ZTIN7openpal5ArrayIN8opendnp34CellINS1_17FrozenCounterSpecEEEtEE, 40
_ZTIN7openpal5ArrayIN8opendnp34CellINS1_17FrozenCounterSpecEEEtEE:
	.quad	_ZTVN10__cxxabiv121__vmi_class_type_infoE+16
	.quad	_ZTSN7openpal5ArrayIN8opendnp34CellINS1_17FrozenCounterSpecEEEtEE
	.long	0
	.long	1
	.quad	_ZTIN7openpal7HasSizeItEE
	.quad	2050
	.weak	_ZTSN7openpal5ArrayIN8opendnp34CellINS1_22BinaryOutputStatusSpecEEEtEE
	.section	.rodata._ZTSN7openpal5ArrayIN8opendnp34CellINS1_22BinaryOutputStatusSpecEEEtEE,"aG",@progbits,_ZTSN7openpal5ArrayIN8opendnp34CellINS1_22BinaryOutputStatusSpecEEEtEE,comdat
	.align 32
	.type	_ZTSN7openpal5ArrayIN8opendnp34CellINS1_22BinaryOutputStatusSpecEEEtEE, @object
	.size	_ZTSN7openpal5ArrayIN8opendnp34CellINS1_22BinaryOutputStatusSpecEEEtEE, 67
_ZTSN7openpal5ArrayIN8opendnp34CellINS1_22BinaryOutputStatusSpecEEEtEE:
	.string	"N7openpal5ArrayIN8opendnp34CellINS1_22BinaryOutputStatusSpecEEEtEE"
	.weak	_ZTIN7openpal5ArrayIN8opendnp34CellINS1_22BinaryOutputStatusSpecEEEtEE
	.section	.data.rel.ro._ZTIN7openpal5ArrayIN8opendnp34CellINS1_22BinaryOutputStatusSpecEEEtEE,"awG",@progbits,_ZTIN7openpal5ArrayIN8opendnp34CellINS1_22BinaryOutputStatusSpecEEEtEE,comdat
	.align 8
	.type	_ZTIN7openpal5ArrayIN8opendnp34CellINS1_22BinaryOutputStatusSpecEEEtEE, @object
	.size	_ZTIN7openpal5ArrayIN8opendnp34CellINS1_22BinaryOutputStatusSpecEEEtEE, 40
_ZTIN7openpal5ArrayIN8opendnp34CellINS1_22BinaryOutputStatusSpecEEEtEE:
	.quad	_ZTVN10__cxxabiv121__vmi_class_type_infoE+16
	.quad	_ZTSN7openpal5ArrayIN8opendnp34CellINS1_22BinaryOutputStatusSpecEEEtEE
	.long	0
	.long	1
	.quad	_ZTIN7openpal7HasSizeItEE
	.quad	2050
	.weak	_ZTSN7openpal5ArrayIN8opendnp34CellINS1_22AnalogOutputStatusSpecEEEtEE
	.section	.rodata._ZTSN7openpal5ArrayIN8opendnp34CellINS1_22AnalogOutputStatusSpecEEEtEE,"aG",@progbits,_ZTSN7openpal5ArrayIN8opendnp34CellINS1_22AnalogOutputStatusSpecEEEtEE,comdat
	.align 32
	.type	_ZTSN7openpal5ArrayIN8opendnp34CellINS1_22AnalogOutputStatusSpecEEEtEE, @object
	.size	_ZTSN7openpal5ArrayIN8opendnp34CellINS1_22AnalogOutputStatusSpecEEEtEE, 67
_ZTSN7openpal5ArrayIN8opendnp34CellINS1_22AnalogOutputStatusSpecEEEtEE:
	.string	"N7openpal5ArrayIN8opendnp34CellINS1_22AnalogOutputStatusSpecEEEtEE"
	.weak	_ZTIN7openpal5ArrayIN8opendnp34CellINS1_22AnalogOutputStatusSpecEEEtEE
	.section	.data.rel.ro._ZTIN7openpal5ArrayIN8opendnp34CellINS1_22AnalogOutputStatusSpecEEEtEE,"awG",@progbits,_ZTIN7openpal5ArrayIN8opendnp34CellINS1_22AnalogOutputStatusSpecEEEtEE,comdat
	.align 8
	.type	_ZTIN7openpal5ArrayIN8opendnp34CellINS1_22AnalogOutputStatusSpecEEEtEE, @object
	.size	_ZTIN7openpal5ArrayIN8opendnp34CellINS1_22AnalogOutputStatusSpecEEEtEE, 40
_ZTIN7openpal5ArrayIN8opendnp34CellINS1_22AnalogOutputStatusSpecEEEtEE:
	.quad	_ZTVN10__cxxabiv121__vmi_class_type_infoE+16
	.quad	_ZTSN7openpal5ArrayIN8opendnp34CellINS1_22AnalogOutputStatusSpecEEEtEE
	.long	0
	.long	1
	.quad	_ZTIN7openpal7HasSizeItEE
	.quad	2050
	.weak	_ZTSN7openpal5ArrayIN8opendnp34CellINS1_19TimeAndIntervalSpecEEEtEE
	.section	.rodata._ZTSN7openpal5ArrayIN8opendnp34CellINS1_19TimeAndIntervalSpecEEEtEE,"aG",@progbits,_ZTSN7openpal5ArrayIN8opendnp34CellINS1_19TimeAndIntervalSpecEEEtEE,comdat
	.align 32
	.type	_ZTSN7openpal5ArrayIN8opendnp34CellINS1_19TimeAndIntervalSpecEEEtEE, @object
	.size	_ZTSN7openpal5ArrayIN8opendnp34CellINS1_19TimeAndIntervalSpecEEEtEE, 64
_ZTSN7openpal5ArrayIN8opendnp34CellINS1_19TimeAndIntervalSpecEEEtEE:
	.string	"N7openpal5ArrayIN8opendnp34CellINS1_19TimeAndIntervalSpecEEEtEE"
	.weak	_ZTIN7openpal5ArrayIN8opendnp34CellINS1_19TimeAndIntervalSpecEEEtEE
	.section	.data.rel.ro._ZTIN7openpal5ArrayIN8opendnp34CellINS1_19TimeAndIntervalSpecEEEtEE,"awG",@progbits,_ZTIN7openpal5ArrayIN8opendnp34CellINS1_19TimeAndIntervalSpecEEEtEE,comdat
	.align 8
	.type	_ZTIN7openpal5ArrayIN8opendnp34CellINS1_19TimeAndIntervalSpecEEEtEE, @object
	.size	_ZTIN7openpal5ArrayIN8opendnp34CellINS1_19TimeAndIntervalSpecEEEtEE, 40
_ZTIN7openpal5ArrayIN8opendnp34CellINS1_19TimeAndIntervalSpecEEEtEE:
	.quad	_ZTVN10__cxxabiv121__vmi_class_type_infoE+16
	.quad	_ZTSN7openpal5ArrayIN8opendnp34CellINS1_19TimeAndIntervalSpecEEEtEE
	.long	0
	.long	1
	.quad	_ZTIN7openpal7HasSizeItEE
	.quad	2050
	.weak	_ZTVN7openpal5ArrayIN8opendnp34CellINS1_10BinarySpecEEEtEE
	.section	.data.rel.ro._ZTVN7openpal5ArrayIN8opendnp34CellINS1_10BinarySpecEEEtEE,"awG",@progbits,_ZTVN7openpal5ArrayIN8opendnp34CellINS1_10BinarySpecEEEtEE,comdat
	.align 8
	.type	_ZTVN7openpal5ArrayIN8opendnp34CellINS1_10BinarySpecEEEtEE, @object
	.size	_ZTVN7openpal5ArrayIN8opendnp34CellINS1_10BinarySpecEEEtEE, 32
_ZTVN7openpal5ArrayIN8opendnp34CellINS1_10BinarySpecEEEtEE:
	.quad	0
	.quad	_ZTIN7openpal5ArrayIN8opendnp34CellINS1_10BinarySpecEEEtEE
	.quad	_ZN7openpal5ArrayIN8opendnp34CellINS1_10BinarySpecEEEtED1Ev
	.quad	_ZN7openpal5ArrayIN8opendnp34CellINS1_10BinarySpecEEEtED0Ev
	.weak	_ZTVN7openpal5ArrayIN8opendnp34CellINS1_19DoubleBitBinarySpecEEEtEE
	.section	.data.rel.ro._ZTVN7openpal5ArrayIN8opendnp34CellINS1_19DoubleBitBinarySpecEEEtEE,"awG",@progbits,_ZTVN7openpal5ArrayIN8opendnp34CellINS1_19DoubleBitBinarySpecEEEtEE,comdat
	.align 8
	.type	_ZTVN7openpal5ArrayIN8opendnp34CellINS1_19DoubleBitBinarySpecEEEtEE, @object
	.size	_ZTVN7openpal5ArrayIN8opendnp34CellINS1_19DoubleBitBinarySpecEEEtEE, 32
_ZTVN7openpal5ArrayIN8opendnp34CellINS1_19DoubleBitBinarySpecEEEtEE:
	.quad	0
	.quad	_ZTIN7openpal5ArrayIN8opendnp34CellINS1_19DoubleBitBinarySpecEEEtEE
	.quad	_ZN7openpal5ArrayIN8opendnp34CellINS1_19DoubleBitBinarySpecEEEtED1Ev
	.quad	_ZN7openpal5ArrayIN8opendnp34CellINS1_19DoubleBitBinarySpecEEEtED0Ev
	.weak	_ZTVN7openpal5ArrayIN8opendnp34CellINS1_10AnalogSpecEEEtEE
	.section	.data.rel.ro._ZTVN7openpal5ArrayIN8opendnp34CellINS1_10AnalogSpecEEEtEE,"awG",@progbits,_ZTVN7openpal5ArrayIN8opendnp34CellINS1_10AnalogSpecEEEtEE,comdat
	.align 8
	.type	_ZTVN7openpal5ArrayIN8opendnp34CellINS1_10AnalogSpecEEEtEE, @object
	.size	_ZTVN7openpal5ArrayIN8opendnp34CellINS1_10AnalogSpecEEEtEE, 32
_ZTVN7openpal5ArrayIN8opendnp34CellINS1_10AnalogSpecEEEtEE:
	.quad	0
	.quad	_ZTIN7openpal5ArrayIN8opendnp34CellINS1_10AnalogSpecEEEtEE
	.quad	_ZN7openpal5ArrayIN8opendnp34CellINS1_10AnalogSpecEEEtED1Ev
	.quad	_ZN7openpal5ArrayIN8opendnp34CellINS1_10AnalogSpecEEEtED0Ev
	.weak	_ZTVN7openpal5ArrayIN8opendnp34CellINS1_11CounterSpecEEEtEE
	.section	.data.rel.ro._ZTVN7openpal5ArrayIN8opendnp34CellINS1_11CounterSpecEEEtEE,"awG",@progbits,_ZTVN7openpal5ArrayIN8opendnp34CellINS1_11CounterSpecEEEtEE,comdat
	.align 8
	.type	_ZTVN7openpal5ArrayIN8opendnp34CellINS1_11CounterSpecEEEtEE, @object
	.size	_ZTVN7openpal5ArrayIN8opendnp34CellINS1_11CounterSpecEEEtEE, 32
_ZTVN7openpal5ArrayIN8opendnp34CellINS1_11CounterSpecEEEtEE:
	.quad	0
	.quad	_ZTIN7openpal5ArrayIN8opendnp34CellINS1_11CounterSpecEEEtEE
	.quad	_ZN7openpal5ArrayIN8opendnp34CellINS1_11CounterSpecEEEtED1Ev
	.quad	_ZN7openpal5ArrayIN8opendnp34CellINS1_11CounterSpecEEEtED0Ev
	.weak	_ZTVN7openpal5ArrayIN8opendnp34CellINS1_17FrozenCounterSpecEEEtEE
	.section	.data.rel.ro._ZTVN7openpal5ArrayIN8opendnp34CellINS1_17FrozenCounterSpecEEEtEE,"awG",@progbits,_ZTVN7openpal5ArrayIN8opendnp34CellINS1_17FrozenCounterSpecEEEtEE,comdat
	.align 8
	.type	_ZTVN7openpal5ArrayIN8opendnp34CellINS1_17FrozenCounterSpecEEEtEE, @object
	.size	_ZTVN7openpal5ArrayIN8opendnp34CellINS1_17FrozenCounterSpecEEEtEE, 32
_ZTVN7openpal5ArrayIN8opendnp34CellINS1_17FrozenCounterSpecEEEtEE:
	.quad	0
	.quad	_ZTIN7openpal5ArrayIN8opendnp34CellINS1_17FrozenCounterSpecEEEtEE
	.quad	_ZN7openpal5ArrayIN8opendnp34CellINS1_17FrozenCounterSpecEEEtED1Ev
	.quad	_ZN7openpal5ArrayIN8opendnp34CellINS1_17FrozenCounterSpecEEEtED0Ev
	.weak	_ZTVN7openpal5ArrayIN8opendnp34CellINS1_22BinaryOutputStatusSpecEEEtEE
	.section	.data.rel.ro._ZTVN7openpal5ArrayIN8opendnp34CellINS1_22BinaryOutputStatusSpecEEEtEE,"awG",@progbits,_ZTVN7openpal5ArrayIN8opendnp34CellINS1_22BinaryOutputStatusSpecEEEtEE,comdat
	.align 8
	.type	_ZTVN7openpal5ArrayIN8opendnp34CellINS1_22BinaryOutputStatusSpecEEEtEE, @object
	.size	_ZTVN7openpal5ArrayIN8opendnp34CellINS1_22BinaryOutputStatusSpecEEEtEE, 32
_ZTVN7openpal5ArrayIN8opendnp34CellINS1_22BinaryOutputStatusSpecEEEtEE:
	.quad	0
	.quad	_ZTIN7openpal5ArrayIN8opendnp34CellINS1_22BinaryOutputStatusSpecEEEtEE
	.quad	_ZN7openpal5ArrayIN8opendnp34CellINS1_22BinaryOutputStatusSpecEEEtED1Ev
	.quad	_ZN7openpal5ArrayIN8opendnp34CellINS1_22BinaryOutputStatusSpecEEEtED0Ev
	.weak	_ZTVN7openpal5ArrayIN8opendnp34CellINS1_22AnalogOutputStatusSpecEEEtEE
	.section	.data.rel.ro._ZTVN7openpal5ArrayIN8opendnp34CellINS1_22AnalogOutputStatusSpecEEEtEE,"awG",@progbits,_ZTVN7openpal5ArrayIN8opendnp34CellINS1_22AnalogOutputStatusSpecEEEtEE,comdat
	.align 8
	.type	_ZTVN7openpal5ArrayIN8opendnp34CellINS1_22AnalogOutputStatusSpecEEEtEE, @object
	.size	_ZTVN7openpal5ArrayIN8opendnp34CellINS1_22AnalogOutputStatusSpecEEEtEE, 32
_ZTVN7openpal5ArrayIN8opendnp34CellINS1_22AnalogOutputStatusSpecEEEtEE:
	.quad	0
	.quad	_ZTIN7openpal5ArrayIN8opendnp34CellINS1_22AnalogOutputStatusSpecEEEtEE
	.quad	_ZN7openpal5ArrayIN8opendnp34CellINS1_22AnalogOutputStatusSpecEEEtED1Ev
	.quad	_ZN7openpal5ArrayIN8opendnp34CellINS1_22AnalogOutputStatusSpecEEEtED0Ev
	.weak	_ZTVN7openpal5ArrayIN8opendnp34CellINS1_19TimeAndIntervalSpecEEEtEE
	.section	.data.rel.ro._ZTVN7openpal5ArrayIN8opendnp34CellINS1_19TimeAndIntervalSpecEEEtEE,"awG",@progbits,_ZTVN7openpal5ArrayIN8opendnp34CellINS1_19TimeAndIntervalSpecEEEtEE,comdat
	.align 8
	.type	_ZTVN7openpal5ArrayIN8opendnp34CellINS1_19TimeAndIntervalSpecEEEtEE, @object
	.size	_ZTVN7openpal5ArrayIN8opendnp34CellINS1_19TimeAndIntervalSpecEEEtEE, 32
_ZTVN7openpal5ArrayIN8opendnp34CellINS1_19TimeAndIntervalSpecEEEtEE:
	.quad	0
	.quad	_ZTIN7openpal5ArrayIN8opendnp34CellINS1_19TimeAndIntervalSpecEEEtEE
	.quad	_ZN7openpal5ArrayIN8opendnp34CellINS1_19TimeAndIntervalSpecEEEtED1Ev
	.quad	_ZN7openpal5ArrayIN8opendnp34CellINS1_19TimeAndIntervalSpecEEEtED0Ev
	.hidden	DW.ref.__gxx_personality_v0
	.weak	DW.ref.__gxx_personality_v0
	.section	.data.rel.local.DW.ref.__gxx_personality_v0,"awG",@progbits,DW.ref.__gxx_personality_v0,comdat
	.align 8
	.type	DW.ref.__gxx_personality_v0, @object
	.size	DW.ref.__gxx_personality_v0, 8
DW.ref.__gxx_personality_v0:
	.quad	__gxx_personality_v0
	.ident	"GCC: (Ubuntu 11.4.0-1ubuntu1~22.04) 11.4.0"
	.section	.note.GNU-stack,"",@progbits
	.section	.note.gnu.property,"a"
	.align 8
	.long	1f - 0f
	.long	4f - 1f
	.long	5
0:
	.string	"GNU"
1:
	.align 8
	.long	0xc0000002
	.long	3f - 2f
2:
	.long	0x3
3:
	.align 8
4:
