	.file	"CountParser.cpp"
	.text
	.section	.text._ZNK8opendnp318BufferedCollectionINS_12Group120Var4EZNS_11CountParser13InvokeCountOfIS1_EEvRKNS_12HeaderRecordEtRKN7openpal6RSliceERNS_12IAPDUHandlerEEUlRS8_jE_E5CountEv,"axG",@progbits,_ZNK8opendnp318BufferedCollectionINS_12Group120Var4EZNS_11CountParser13InvokeCountOfIS1_EEvRKNS_12HeaderRecordEtRKN7openpal6RSliceERNS_12IAPDUHandlerEEUlRS8_jE_E5CountEv,comdat
	.align 2
	.p2align 4
	.weak	_ZNK8opendnp318BufferedCollectionINS_12Group120Var4EZNS_11CountParser13InvokeCountOfIS1_EEvRKNS_12HeaderRecordEtRKN7openpal6RSliceERNS_12IAPDUHandlerEEUlRS8_jE_E5CountEv
	.type	_ZNK8opendnp318BufferedCollectionINS_12Group120Var4EZNS_11CountParser13InvokeCountOfIS1_EEvRKNS_12HeaderRecordEtRKN7openpal6RSliceERNS_12IAPDUHandlerEEUlRS8_jE_E5CountEv, @function
_ZNK8opendnp318BufferedCollectionINS_12Group120Var4EZNS_11CountParser13InvokeCountOfIS1_EEvRKNS_12HeaderRecordEtRKN7openpal6RSliceERNS_12IAPDUHandlerEEUlRS8_jE_E5CountEv:
.LFB3188:
	.cfi_startproc
	endbr64
	movq	24(%rdi), %rax
	ret
	.cfi_endproc
.LFE3188:
	.size	_ZNK8opendnp318BufferedCollectionINS_12Group120Var4EZNS_11CountParser13InvokeCountOfIS1_EEvRKNS_12HeaderRecordEtRKN7openpal6RSliceERNS_12IAPDUHandlerEEUlRS8_jE_E5CountEv, .-_ZNK8opendnp318BufferedCollectionINS_12Group120Var4EZNS_11CountParser13InvokeCountOfIS1_EEvRKNS_12HeaderRecordEtRKN7openpal6RSliceERNS_12IAPDUHandlerEEUlRS8_jE_E5CountEv
	.section	.text._ZNK8opendnp318BufferedCollectionINS_12Group120Var3EZNS_11CountParser13InvokeCountOfIS1_EEvRKNS_12HeaderRecordEtRKN7openpal6RSliceERNS_12IAPDUHandlerEEUlRS8_jE_E5CountEv,"axG",@progbits,_ZNK8opendnp318BufferedCollectionINS_12Group120Var3EZNS_11CountParser13InvokeCountOfIS1_EEvRKNS_12HeaderRecordEtRKN7openpal6RSliceERNS_12IAPDUHandlerEEUlRS8_jE_E5CountEv,comdat
	.align 2
	.p2align 4
	.weak	_ZNK8opendnp318BufferedCollectionINS_12Group120Var3EZNS_11CountParser13InvokeCountOfIS1_EEvRKNS_12HeaderRecordEtRKN7openpal6RSliceERNS_12IAPDUHandlerEEUlRS8_jE_E5CountEv
	.type	_ZNK8opendnp318BufferedCollectionINS_12Group120Var3EZNS_11CountParser13InvokeCountOfIS1_EEvRKNS_12HeaderRecordEtRKN7openpal6RSliceERNS_12IAPDUHandlerEEUlRS8_jE_E5CountEv, @function
_ZNK8opendnp318BufferedCollectionINS_12Group120Var3EZNS_11CountParser13InvokeCountOfIS1_EEvRKNS_12HeaderRecordEtRKN7openpal6RSliceERNS_12IAPDUHandlerEEUlRS8_jE_E5CountEv:
.LFB3190:
	.cfi_startproc
	endbr64
	movq	24(%rdi), %rax
	ret
	.cfi_endproc
.LFE3190:
	.size	_ZNK8opendnp318BufferedCollectionINS_12Group120Var3EZNS_11CountParser13InvokeCountOfIS1_EEvRKNS_12HeaderRecordEtRKN7openpal6RSliceERNS_12IAPDUHandlerEEUlRS8_jE_E5CountEv, .-_ZNK8opendnp318BufferedCollectionINS_12Group120Var3EZNS_11CountParser13InvokeCountOfIS1_EEvRKNS_12HeaderRecordEtRKN7openpal6RSliceERNS_12IAPDUHandlerEEUlRS8_jE_E5CountEv
	.section	.text._ZNK8opendnp318BufferedCollectionINS_11Group52Var2EZNS_11CountParser13InvokeCountOfIS1_EEvRKNS_12HeaderRecordEtRKN7openpal6RSliceERNS_12IAPDUHandlerEEUlRS8_jE_E5CountEv,"axG",@progbits,_ZNK8opendnp318BufferedCollectionINS_11Group52Var2EZNS_11CountParser13InvokeCountOfIS1_EEvRKNS_12HeaderRecordEtRKN7openpal6RSliceERNS_12IAPDUHandlerEEUlRS8_jE_E5CountEv,comdat
	.align 2
	.p2align 4
	.weak	_ZNK8opendnp318BufferedCollectionINS_11Group52Var2EZNS_11CountParser13InvokeCountOfIS1_EEvRKNS_12HeaderRecordEtRKN7openpal6RSliceERNS_12IAPDUHandlerEEUlRS8_jE_E5CountEv
	.type	_ZNK8opendnp318BufferedCollectionINS_11Group52Var2EZNS_11CountParser13InvokeCountOfIS1_EEvRKNS_12HeaderRecordEtRKN7openpal6RSliceERNS_12IAPDUHandlerEEUlRS8_jE_E5CountEv, @function
_ZNK8opendnp318BufferedCollectionINS_11Group52Var2EZNS_11CountParser13InvokeCountOfIS1_EEvRKNS_12HeaderRecordEtRKN7openpal6RSliceERNS_12IAPDUHandlerEEUlRS8_jE_E5CountEv:
.LFB3192:
	.cfi_startproc
	endbr64
	movq	24(%rdi), %rax
	ret
	.cfi_endproc
.LFE3192:
	.size	_ZNK8opendnp318BufferedCollectionINS_11Group52Var2EZNS_11CountParser13InvokeCountOfIS1_EEvRKNS_12HeaderRecordEtRKN7openpal6RSliceERNS_12IAPDUHandlerEEUlRS8_jE_E5CountEv, .-_ZNK8opendnp318BufferedCollectionINS_11Group52Var2EZNS_11CountParser13InvokeCountOfIS1_EEvRKNS_12HeaderRecordEtRKN7openpal6RSliceERNS_12IAPDUHandlerEEUlRS8_jE_E5CountEv
	.section	.text._ZNK8opendnp318BufferedCollectionINS_11Group52Var1EZNS_11CountParser13InvokeCountOfIS1_EEvRKNS_12HeaderRecordEtRKN7openpal6RSliceERNS_12IAPDUHandlerEEUlRS8_jE_E5CountEv,"axG",@progbits,_ZNK8opendnp318BufferedCollectionINS_11Group52Var1EZNS_11CountParser13InvokeCountOfIS1_EEvRKNS_12HeaderRecordEtRKN7openpal6RSliceERNS_12IAPDUHandlerEEUlRS8_jE_E5CountEv,comdat
	.align 2
	.p2align 4
	.weak	_ZNK8opendnp318BufferedCollectionINS_11Group52Var1EZNS_11CountParser13InvokeCountOfIS1_EEvRKNS_12HeaderRecordEtRKN7openpal6RSliceERNS_12IAPDUHandlerEEUlRS8_jE_E5CountEv
	.type	_ZNK8opendnp318BufferedCollectionINS_11Group52Var1EZNS_11CountParser13InvokeCountOfIS1_EEvRKNS_12HeaderRecordEtRKN7openpal6RSliceERNS_12IAPDUHandlerEEUlRS8_jE_E5CountEv, @function
_ZNK8opendnp318BufferedCollectionINS_11Group52Var1EZNS_11CountParser13InvokeCountOfIS1_EEvRKNS_12HeaderRecordEtRKN7openpal6RSliceERNS_12IAPDUHandlerEEUlRS8_jE_E5CountEv:
.LFB3194:
	.cfi_startproc
	endbr64
	movq	24(%rdi), %rax
	ret
	.cfi_endproc
.LFE3194:
	.size	_ZNK8opendnp318BufferedCollectionINS_11Group52Var1EZNS_11CountParser13InvokeCountOfIS1_EEvRKNS_12HeaderRecordEtRKN7openpal6RSliceERNS_12IAPDUHandlerEEUlRS8_jE_E5CountEv, .-_ZNK8opendnp318BufferedCollectionINS_11Group52Var1EZNS_11CountParser13InvokeCountOfIS1_EEvRKNS_12HeaderRecordEtRKN7openpal6RSliceERNS_12IAPDUHandlerEEUlRS8_jE_E5CountEv
	.section	.text._ZNK8opendnp318BufferedCollectionINS_11Group51Var2EZNS_11CountParser13InvokeCountOfIS1_EEvRKNS_12HeaderRecordEtRKN7openpal6RSliceERNS_12IAPDUHandlerEEUlRS8_jE_E5CountEv,"axG",@progbits,_ZNK8opendnp318BufferedCollectionINS_11Group51Var2EZNS_11CountParser13InvokeCountOfIS1_EEvRKNS_12HeaderRecordEtRKN7openpal6RSliceERNS_12IAPDUHandlerEEUlRS8_jE_E5CountEv,comdat
	.align 2
	.p2align 4
	.weak	_ZNK8opendnp318BufferedCollectionINS_11Group51Var2EZNS_11CountParser13InvokeCountOfIS1_EEvRKNS_12HeaderRecordEtRKN7openpal6RSliceERNS_12IAPDUHandlerEEUlRS8_jE_E5CountEv
	.type	_ZNK8opendnp318BufferedCollectionINS_11Group51Var2EZNS_11CountParser13InvokeCountOfIS1_EEvRKNS_12HeaderRecordEtRKN7openpal6RSliceERNS_12IAPDUHandlerEEUlRS8_jE_E5CountEv, @function
_ZNK8opendnp318BufferedCollectionINS_11Group51Var2EZNS_11CountParser13InvokeCountOfIS1_EEvRKNS_12HeaderRecordEtRKN7openpal6RSliceERNS_12IAPDUHandlerEEUlRS8_jE_E5CountEv:
.LFB3196:
	.cfi_startproc
	endbr64
	movq	24(%rdi), %rax
	ret
	.cfi_endproc
.LFE3196:
	.size	_ZNK8opendnp318BufferedCollectionINS_11Group51Var2EZNS_11CountParser13InvokeCountOfIS1_EEvRKNS_12HeaderRecordEtRKN7openpal6RSliceERNS_12IAPDUHandlerEEUlRS8_jE_E5CountEv, .-_ZNK8opendnp318BufferedCollectionINS_11Group51Var2EZNS_11CountParser13InvokeCountOfIS1_EEvRKNS_12HeaderRecordEtRKN7openpal6RSliceERNS_12IAPDUHandlerEEUlRS8_jE_E5CountEv
	.section	.text._ZNK8opendnp318BufferedCollectionINS_11Group51Var1EZNS_11CountParser13InvokeCountOfIS1_EEvRKNS_12HeaderRecordEtRKN7openpal6RSliceERNS_12IAPDUHandlerEEUlRS8_jE_E5CountEv,"axG",@progbits,_ZNK8opendnp318BufferedCollectionINS_11Group51Var1EZNS_11CountParser13InvokeCountOfIS1_EEvRKNS_12HeaderRecordEtRKN7openpal6RSliceERNS_12IAPDUHandlerEEUlRS8_jE_E5CountEv,comdat
	.align 2
	.p2align 4
	.weak	_ZNK8opendnp318BufferedCollectionINS_11Group51Var1EZNS_11CountParser13InvokeCountOfIS1_EEvRKNS_12HeaderRecordEtRKN7openpal6RSliceERNS_12IAPDUHandlerEEUlRS8_jE_E5CountEv
	.type	_ZNK8opendnp318BufferedCollectionINS_11Group51Var1EZNS_11CountParser13InvokeCountOfIS1_EEvRKNS_12HeaderRecordEtRKN7openpal6RSliceERNS_12IAPDUHandlerEEUlRS8_jE_E5CountEv, @function
_ZNK8opendnp318BufferedCollectionINS_11Group51Var1EZNS_11CountParser13InvokeCountOfIS1_EEvRKNS_12HeaderRecordEtRKN7openpal6RSliceERNS_12IAPDUHandlerEEUlRS8_jE_E5CountEv:
.LFB3198:
	.cfi_startproc
	endbr64
	movq	24(%rdi), %rax
	ret
	.cfi_endproc
.LFE3198:
	.size	_ZNK8opendnp318BufferedCollectionINS_11Group51Var1EZNS_11CountParser13InvokeCountOfIS1_EEvRKNS_12HeaderRecordEtRKN7openpal6RSliceERNS_12IAPDUHandlerEEUlRS8_jE_E5CountEv, .-_ZNK8opendnp318BufferedCollectionINS_11Group51Var1EZNS_11CountParser13InvokeCountOfIS1_EEvRKNS_12HeaderRecordEtRKN7openpal6RSliceERNS_12IAPDUHandlerEEUlRS8_jE_E5CountEv
	.section	.text._ZNK8opendnp318BufferedCollectionINS_11Group50Var1EZNS_11CountParser13InvokeCountOfIS1_EEvRKNS_12HeaderRecordEtRKN7openpal6RSliceERNS_12IAPDUHandlerEEUlRS8_jE_E5CountEv,"axG",@progbits,_ZNK8opendnp318BufferedCollectionINS_11Group50Var1EZNS_11CountParser13InvokeCountOfIS1_EEvRKNS_12HeaderRecordEtRKN7openpal6RSliceERNS_12IAPDUHandlerEEUlRS8_jE_E5CountEv,comdat
	.align 2
	.p2align 4
	.weak	_ZNK8opendnp318BufferedCollectionINS_11Group50Var1EZNS_11CountParser13InvokeCountOfIS1_EEvRKNS_12HeaderRecordEtRKN7openpal6RSliceERNS_12IAPDUHandlerEEUlRS8_jE_E5CountEv
	.type	_ZNK8opendnp318BufferedCollectionINS_11Group50Var1EZNS_11CountParser13InvokeCountOfIS1_EEvRKNS_12HeaderRecordEtRKN7openpal6RSliceERNS_12IAPDUHandlerEEUlRS8_jE_E5CountEv, @function
_ZNK8opendnp318BufferedCollectionINS_11Group50Var1EZNS_11CountParser13InvokeCountOfIS1_EEvRKNS_12HeaderRecordEtRKN7openpal6RSliceERNS_12IAPDUHandlerEEUlRS8_jE_E5CountEv:
.LFB3200:
	.cfi_startproc
	endbr64
	movq	24(%rdi), %rax
	ret
	.cfi_endproc
.LFE3200:
	.size	_ZNK8opendnp318BufferedCollectionINS_11Group50Var1EZNS_11CountParser13InvokeCountOfIS1_EEvRKNS_12HeaderRecordEtRKN7openpal6RSliceERNS_12IAPDUHandlerEEUlRS8_jE_E5CountEv, .-_ZNK8opendnp318BufferedCollectionINS_11Group50Var1EZNS_11CountParser13InvokeCountOfIS1_EEvRKNS_12HeaderRecordEtRKN7openpal6RSliceERNS_12IAPDUHandlerEEUlRS8_jE_E5CountEv
	.section	.text._ZN8opendnp311CountParser13InvokeCountOfINS_11Group50Var1EEEvRKNS_12HeaderRecordEtRKN7openpal6RSliceERNS_12IAPDUHandlerE,"axG",@progbits,_ZN8opendnp311CountParser13InvokeCountOfINS_11Group50Var1EEEvRKNS_12HeaderRecordEtRKN7openpal6RSliceERNS_12IAPDUHandlerE,comdat
	.align 2
	.p2align 4
	.weak	_ZN8opendnp311CountParser13InvokeCountOfINS_11Group50Var1EEEvRKNS_12HeaderRecordEtRKN7openpal6RSliceERNS_12IAPDUHandlerE
	.type	_ZN8opendnp311CountParser13InvokeCountOfINS_11Group50Var1EEEvRKNS_12HeaderRecordEtRKN7openpal6RSliceERNS_12IAPDUHandlerE, @function
_ZN8opendnp311CountParser13InvokeCountOfINS_11Group50Var1EEEvRKNS_12HeaderRecordEtRKN7openpal6RSliceERNS_12IAPDUHandlerE:
.LFB2811:
	.cfi_startproc
	endbr64
	subq	$88, %rsp
	.cfi_def_cfa_offset 96
	movq	%rdi, %r8
	movdqu	(%rdx), %xmm0
	movq	%rcx, %rdi
	movq	%fs:40, %rax
	movq	%rax, 72(%rsp)
	movq	_ZTVN8opendnp318BufferedCollectionINS_11Group50Var1EZNS_11CountParser13InvokeCountOfIS1_EEvRKNS_12HeaderRecordEtRKN7openpal6RSliceERNS_12IAPDUHandlerEEUlRS8_jE_EE@GOTPCREL(%rip), %rax
	movdqu	(%r8), %xmm1
	movw	%si, 16(%rsp)
	leaq	32(%rsp), %rdx
	movups	%xmm0, 40(%rsp)
	movaps	%xmm1, (%rsp)
	addq	$16, %rax
	movq	%rax, 32(%rsp)
	movzwl	%si, %eax
	movq	%rsp, %rsi
	movq	%rax, 56(%rsp)
	call	_ZN8opendnp312IAPDUHandler8OnHeaderERKNS_11CountHeaderERKNS_11ICollectionINS_11Group50Var1EEE@PLT
	movq	72(%rsp), %rax
	subq	%fs:40, %rax
	jne	.L12
	addq	$88, %rsp
	.cfi_remember_state
	.cfi_def_cfa_offset 8
	ret
.L12:
	.cfi_restore_state
	call	__stack_chk_fail@PLT
	.cfi_endproc
.LFE2811:
	.size	_ZN8opendnp311CountParser13InvokeCountOfINS_11Group50Var1EEEvRKNS_12HeaderRecordEtRKN7openpal6RSliceERNS_12IAPDUHandlerE, .-_ZN8opendnp311CountParser13InvokeCountOfINS_11Group50Var1EEEvRKNS_12HeaderRecordEtRKN7openpal6RSliceERNS_12IAPDUHandlerE
	.section	.text._ZNK8opendnp318BufferedCollectionINS_11Group50Var1EZNS_11CountParser13InvokeCountOfIS1_EEvRKNS_12HeaderRecordEtRKN7openpal6RSliceERNS_12IAPDUHandlerEEUlRS8_jE_E7ForeachERNS_8IVisitorIS1_EE,"axG",@progbits,_ZNK8opendnp318BufferedCollectionINS_11Group50Var1EZNS_11CountParser13InvokeCountOfIS1_EEvRKNS_12HeaderRecordEtRKN7openpal6RSliceERNS_12IAPDUHandlerEEUlRS8_jE_E7ForeachERNS_8IVisitorIS1_EE,comdat
	.align 2
	.p2align 4
	.weak	_ZNK8opendnp318BufferedCollectionINS_11Group50Var1EZNS_11CountParser13InvokeCountOfIS1_EEvRKNS_12HeaderRecordEtRKN7openpal6RSliceERNS_12IAPDUHandlerEEUlRS8_jE_E7ForeachERNS_8IVisitorIS1_EE
	.type	_ZNK8opendnp318BufferedCollectionINS_11Group50Var1EZNS_11CountParser13InvokeCountOfIS1_EEvRKNS_12HeaderRecordEtRKN7openpal6RSliceERNS_12IAPDUHandlerEEUlRS8_jE_E7ForeachERNS_8IVisitorIS1_EE, @function
_ZNK8opendnp318BufferedCollectionINS_11Group50Var1EZNS_11CountParser13InvokeCountOfIS1_EEvRKNS_12HeaderRecordEtRKN7openpal6RSliceERNS_12IAPDUHandlerEEUlRS8_jE_E7ForeachERNS_8IVisitorIS1_EE:
.LFB3201:
	.cfi_startproc
	endbr64
	pushq	%r15
	.cfi_def_cfa_offset 16
	.cfi_offset 15, -16
	pushq	%r14
	.cfi_def_cfa_offset 24
	.cfi_offset 14, -24
	pushq	%r13
	.cfi_def_cfa_offset 32
	.cfi_offset 13, -32
	pushq	%r12
	.cfi_def_cfa_offset 40
	.cfi_offset 12, -40
	pushq	%rbp
	.cfi_def_cfa_offset 48
	.cfi_offset 6, -48
	pushq	%rbx
	.cfi_def_cfa_offset 56
	.cfi_offset 3, -56
	subq	$56, %rsp
	.cfi_def_cfa_offset 112
	movdqu	8(%rdi), %xmm0
	movq	%fs:40, %rax
	movq	%rax, 40(%rsp)
	xorl	%eax, %eax
	cmpq	$0, 24(%rdi)
	movaps	%xmm0, 16(%rsp)
	je	.L13
	movq	%rdi, %r13
	movq	%rsi, %r12
	leaq	8(%rsp), %rbx
	xorl	%ebp, %ebp
	leaq	16(%rsp), %r14
	.p2align 4,,10
	.p2align 3
.L15:
	movq	(%r12), %rax
	movq	%rbx, %rdi
	movq	(%rax), %r15
	call	_ZN8opendnp311Group50Var1C1Ev@PLT
	movq	%rbx, %rsi
	movq	%r14, %rdi
	call	_ZN8opendnp311Group50Var14ReadERN7openpal6RSliceERS0_@PLT
	movq	%rbx, %rsi
	movq	%r12, %rdi
	call	*%r15
	leal	1(%rbp), %eax
	movq	%rax, %rbp
	cmpq	24(%r13), %rax
	jb	.L15
.L13:
	movq	40(%rsp), %rax
	subq	%fs:40, %rax
	jne	.L19
	addq	$56, %rsp
	.cfi_remember_state
	.cfi_def_cfa_offset 56
	popq	%rbx
	.cfi_def_cfa_offset 48
	popq	%rbp
	.cfi_def_cfa_offset 40
	popq	%r12
	.cfi_def_cfa_offset 32
	popq	%r13
	.cfi_def_cfa_offset 24
	popq	%r14
	.cfi_def_cfa_offset 16
	popq	%r15
	.cfi_def_cfa_offset 8
	ret
.L19:
	.cfi_restore_state
	call	__stack_chk_fail@PLT
	.cfi_endproc
.LFE3201:
	.size	_ZNK8opendnp318BufferedCollectionINS_11Group50Var1EZNS_11CountParser13InvokeCountOfIS1_EEvRKNS_12HeaderRecordEtRKN7openpal6RSliceERNS_12IAPDUHandlerEEUlRS8_jE_E7ForeachERNS_8IVisitorIS1_EE, .-_ZNK8opendnp318BufferedCollectionINS_11Group50Var1EZNS_11CountParser13InvokeCountOfIS1_EEvRKNS_12HeaderRecordEtRKN7openpal6RSliceERNS_12IAPDUHandlerEEUlRS8_jE_E7ForeachERNS_8IVisitorIS1_EE
	.section	.text._ZN8opendnp311CountParser13InvokeCountOfINS_11Group51Var1EEEvRKNS_12HeaderRecordEtRKN7openpal6RSliceERNS_12IAPDUHandlerE,"axG",@progbits,_ZN8opendnp311CountParser13InvokeCountOfINS_11Group51Var1EEEvRKNS_12HeaderRecordEtRKN7openpal6RSliceERNS_12IAPDUHandlerE,comdat
	.align 2
	.p2align 4
	.weak	_ZN8opendnp311CountParser13InvokeCountOfINS_11Group51Var1EEEvRKNS_12HeaderRecordEtRKN7openpal6RSliceERNS_12IAPDUHandlerE
	.type	_ZN8opendnp311CountParser13InvokeCountOfINS_11Group51Var1EEEvRKNS_12HeaderRecordEtRKN7openpal6RSliceERNS_12IAPDUHandlerE, @function
_ZN8opendnp311CountParser13InvokeCountOfINS_11Group51Var1EEEvRKNS_12HeaderRecordEtRKN7openpal6RSliceERNS_12IAPDUHandlerE:
.LFB2821:
	.cfi_startproc
	endbr64
	subq	$88, %rsp
	.cfi_def_cfa_offset 96
	movq	%rdi, %r8
	movdqu	(%rdx), %xmm0
	movq	%rcx, %rdi
	movq	%fs:40, %rax
	movq	%rax, 72(%rsp)
	movq	_ZTVN8opendnp318BufferedCollectionINS_11Group51Var1EZNS_11CountParser13InvokeCountOfIS1_EEvRKNS_12HeaderRecordEtRKN7openpal6RSliceERNS_12IAPDUHandlerEEUlRS8_jE_EE@GOTPCREL(%rip), %rax
	movdqu	(%r8), %xmm1
	movw	%si, 16(%rsp)
	leaq	32(%rsp), %rdx
	movups	%xmm0, 40(%rsp)
	movaps	%xmm1, (%rsp)
	addq	$16, %rax
	movq	%rax, 32(%rsp)
	movzwl	%si, %eax
	movq	%rsp, %rsi
	movq	%rax, 56(%rsp)
	call	_ZN8opendnp312IAPDUHandler8OnHeaderERKNS_11CountHeaderERKNS_11ICollectionINS_11Group51Var1EEE@PLT
	movq	72(%rsp), %rax
	subq	%fs:40, %rax
	jne	.L23
	addq	$88, %rsp
	.cfi_remember_state
	.cfi_def_cfa_offset 8
	ret
.L23:
	.cfi_restore_state
	call	__stack_chk_fail@PLT
	.cfi_endproc
.LFE2821:
	.size	_ZN8opendnp311CountParser13InvokeCountOfINS_11Group51Var1EEEvRKNS_12HeaderRecordEtRKN7openpal6RSliceERNS_12IAPDUHandlerE, .-_ZN8opendnp311CountParser13InvokeCountOfINS_11Group51Var1EEEvRKNS_12HeaderRecordEtRKN7openpal6RSliceERNS_12IAPDUHandlerE
	.section	.text._ZNK8opendnp318BufferedCollectionINS_11Group51Var1EZNS_11CountParser13InvokeCountOfIS1_EEvRKNS_12HeaderRecordEtRKN7openpal6RSliceERNS_12IAPDUHandlerEEUlRS8_jE_E7ForeachERNS_8IVisitorIS1_EE,"axG",@progbits,_ZNK8opendnp318BufferedCollectionINS_11Group51Var1EZNS_11CountParser13InvokeCountOfIS1_EEvRKNS_12HeaderRecordEtRKN7openpal6RSliceERNS_12IAPDUHandlerEEUlRS8_jE_E7ForeachERNS_8IVisitorIS1_EE,comdat
	.align 2
	.p2align 4
	.weak	_ZNK8opendnp318BufferedCollectionINS_11Group51Var1EZNS_11CountParser13InvokeCountOfIS1_EEvRKNS_12HeaderRecordEtRKN7openpal6RSliceERNS_12IAPDUHandlerEEUlRS8_jE_E7ForeachERNS_8IVisitorIS1_EE
	.type	_ZNK8opendnp318BufferedCollectionINS_11Group51Var1EZNS_11CountParser13InvokeCountOfIS1_EEvRKNS_12HeaderRecordEtRKN7openpal6RSliceERNS_12IAPDUHandlerEEUlRS8_jE_E7ForeachERNS_8IVisitorIS1_EE, @function
_ZNK8opendnp318BufferedCollectionINS_11Group51Var1EZNS_11CountParser13InvokeCountOfIS1_EEvRKNS_12HeaderRecordEtRKN7openpal6RSliceERNS_12IAPDUHandlerEEUlRS8_jE_E7ForeachERNS_8IVisitorIS1_EE:
.LFB3199:
	.cfi_startproc
	endbr64
	pushq	%r15
	.cfi_def_cfa_offset 16
	.cfi_offset 15, -16
	pushq	%r14
	.cfi_def_cfa_offset 24
	.cfi_offset 14, -24
	pushq	%r13
	.cfi_def_cfa_offset 32
	.cfi_offset 13, -32
	pushq	%r12
	.cfi_def_cfa_offset 40
	.cfi_offset 12, -40
	pushq	%rbp
	.cfi_def_cfa_offset 48
	.cfi_offset 6, -48
	pushq	%rbx
	.cfi_def_cfa_offset 56
	.cfi_offset 3, -56
	subq	$56, %rsp
	.cfi_def_cfa_offset 112
	movdqu	8(%rdi), %xmm0
	movq	%fs:40, %rax
	movq	%rax, 40(%rsp)
	xorl	%eax, %eax
	cmpq	$0, 24(%rdi)
	movaps	%xmm0, 16(%rsp)
	je	.L24
	movq	%rdi, %r13
	movq	%rsi, %r12
	leaq	8(%rsp), %rbx
	xorl	%ebp, %ebp
	leaq	16(%rsp), %r14
	.p2align 4,,10
	.p2align 3
.L26:
	movq	(%r12), %rax
	movq	%rbx, %rdi
	movq	(%rax), %r15
	call	_ZN8opendnp311Group51Var1C1Ev@PLT
	movq	%rbx, %rsi
	movq	%r14, %rdi
	call	_ZN8opendnp311Group51Var14ReadERN7openpal6RSliceERS0_@PLT
	movq	%rbx, %rsi
	movq	%r12, %rdi
	call	*%r15
	leal	1(%rbp), %eax
	movq	%rax, %rbp
	cmpq	24(%r13), %rax
	jb	.L26
.L24:
	movq	40(%rsp), %rax
	subq	%fs:40, %rax
	jne	.L30
	addq	$56, %rsp
	.cfi_remember_state
	.cfi_def_cfa_offset 56
	popq	%rbx
	.cfi_def_cfa_offset 48
	popq	%rbp
	.cfi_def_cfa_offset 40
	popq	%r12
	.cfi_def_cfa_offset 32
	popq	%r13
	.cfi_def_cfa_offset 24
	popq	%r14
	.cfi_def_cfa_offset 16
	popq	%r15
	.cfi_def_cfa_offset 8
	ret
.L30:
	.cfi_restore_state
	call	__stack_chk_fail@PLT
	.cfi_endproc
.LFE3199:
	.size	_ZNK8opendnp318BufferedCollectionINS_11Group51Var1EZNS_11CountParser13InvokeCountOfIS1_EEvRKNS_12HeaderRecordEtRKN7openpal6RSliceERNS_12IAPDUHandlerEEUlRS8_jE_E7ForeachERNS_8IVisitorIS1_EE, .-_ZNK8opendnp318BufferedCollectionINS_11Group51Var1EZNS_11CountParser13InvokeCountOfIS1_EEvRKNS_12HeaderRecordEtRKN7openpal6RSliceERNS_12IAPDUHandlerEEUlRS8_jE_E7ForeachERNS_8IVisitorIS1_EE
	.section	.text._ZN8opendnp311CountParser13InvokeCountOfINS_11Group51Var2EEEvRKNS_12HeaderRecordEtRKN7openpal6RSliceERNS_12IAPDUHandlerE,"axG",@progbits,_ZN8opendnp311CountParser13InvokeCountOfINS_11Group51Var2EEEvRKNS_12HeaderRecordEtRKN7openpal6RSliceERNS_12IAPDUHandlerE,comdat
	.align 2
	.p2align 4
	.weak	_ZN8opendnp311CountParser13InvokeCountOfINS_11Group51Var2EEEvRKNS_12HeaderRecordEtRKN7openpal6RSliceERNS_12IAPDUHandlerE
	.type	_ZN8opendnp311CountParser13InvokeCountOfINS_11Group51Var2EEEvRKNS_12HeaderRecordEtRKN7openpal6RSliceERNS_12IAPDUHandlerE, @function
_ZN8opendnp311CountParser13InvokeCountOfINS_11Group51Var2EEEvRKNS_12HeaderRecordEtRKN7openpal6RSliceERNS_12IAPDUHandlerE:
.LFB2831:
	.cfi_startproc
	endbr64
	subq	$88, %rsp
	.cfi_def_cfa_offset 96
	movq	%rdi, %r8
	movdqu	(%rdx), %xmm0
	movq	%rcx, %rdi
	movq	%fs:40, %rax
	movq	%rax, 72(%rsp)
	movq	_ZTVN8opendnp318BufferedCollectionINS_11Group51Var2EZNS_11CountParser13InvokeCountOfIS1_EEvRKNS_12HeaderRecordEtRKN7openpal6RSliceERNS_12IAPDUHandlerEEUlRS8_jE_EE@GOTPCREL(%rip), %rax
	movdqu	(%r8), %xmm1
	movw	%si, 16(%rsp)
	leaq	32(%rsp), %rdx
	movups	%xmm0, 40(%rsp)
	movaps	%xmm1, (%rsp)
	addq	$16, %rax
	movq	%rax, 32(%rsp)
	movzwl	%si, %eax
	movq	%rsp, %rsi
	movq	%rax, 56(%rsp)
	call	_ZN8opendnp312IAPDUHandler8OnHeaderERKNS_11CountHeaderERKNS_11ICollectionINS_11Group51Var2EEE@PLT
	movq	72(%rsp), %rax
	subq	%fs:40, %rax
	jne	.L34
	addq	$88, %rsp
	.cfi_remember_state
	.cfi_def_cfa_offset 8
	ret
.L34:
	.cfi_restore_state
	call	__stack_chk_fail@PLT
	.cfi_endproc
.LFE2831:
	.size	_ZN8opendnp311CountParser13InvokeCountOfINS_11Group51Var2EEEvRKNS_12HeaderRecordEtRKN7openpal6RSliceERNS_12IAPDUHandlerE, .-_ZN8opendnp311CountParser13InvokeCountOfINS_11Group51Var2EEEvRKNS_12HeaderRecordEtRKN7openpal6RSliceERNS_12IAPDUHandlerE
	.section	.text._ZNK8opendnp318BufferedCollectionINS_11Group51Var2EZNS_11CountParser13InvokeCountOfIS1_EEvRKNS_12HeaderRecordEtRKN7openpal6RSliceERNS_12IAPDUHandlerEEUlRS8_jE_E7ForeachERNS_8IVisitorIS1_EE,"axG",@progbits,_ZNK8opendnp318BufferedCollectionINS_11Group51Var2EZNS_11CountParser13InvokeCountOfIS1_EEvRKNS_12HeaderRecordEtRKN7openpal6RSliceERNS_12IAPDUHandlerEEUlRS8_jE_E7ForeachERNS_8IVisitorIS1_EE,comdat
	.align 2
	.p2align 4
	.weak	_ZNK8opendnp318BufferedCollectionINS_11Group51Var2EZNS_11CountParser13InvokeCountOfIS1_EEvRKNS_12HeaderRecordEtRKN7openpal6RSliceERNS_12IAPDUHandlerEEUlRS8_jE_E7ForeachERNS_8IVisitorIS1_EE
	.type	_ZNK8opendnp318BufferedCollectionINS_11Group51Var2EZNS_11CountParser13InvokeCountOfIS1_EEvRKNS_12HeaderRecordEtRKN7openpal6RSliceERNS_12IAPDUHandlerEEUlRS8_jE_E7ForeachERNS_8IVisitorIS1_EE, @function
_ZNK8opendnp318BufferedCollectionINS_11Group51Var2EZNS_11CountParser13InvokeCountOfIS1_EEvRKNS_12HeaderRecordEtRKN7openpal6RSliceERNS_12IAPDUHandlerEEUlRS8_jE_E7ForeachERNS_8IVisitorIS1_EE:
.LFB3197:
	.cfi_startproc
	endbr64
	pushq	%r15
	.cfi_def_cfa_offset 16
	.cfi_offset 15, -16
	pushq	%r14
	.cfi_def_cfa_offset 24
	.cfi_offset 14, -24
	pushq	%r13
	.cfi_def_cfa_offset 32
	.cfi_offset 13, -32
	pushq	%r12
	.cfi_def_cfa_offset 40
	.cfi_offset 12, -40
	pushq	%rbp
	.cfi_def_cfa_offset 48
	.cfi_offset 6, -48
	pushq	%rbx
	.cfi_def_cfa_offset 56
	.cfi_offset 3, -56
	subq	$56, %rsp
	.cfi_def_cfa_offset 112
	movdqu	8(%rdi), %xmm0
	movq	%fs:40, %rax
	movq	%rax, 40(%rsp)
	xorl	%eax, %eax
	cmpq	$0, 24(%rdi)
	movaps	%xmm0, 16(%rsp)
	je	.L35
	movq	%rdi, %r13
	movq	%rsi, %r12
	leaq	8(%rsp), %rbx
	xorl	%ebp, %ebp
	leaq	16(%rsp), %r14
	.p2align 4,,10
	.p2align 3
.L37:
	movq	(%r12), %rax
	movq	%rbx, %rdi
	movq	(%rax), %r15
	call	_ZN8opendnp311Group51Var2C1Ev@PLT
	movq	%rbx, %rsi
	movq	%r14, %rdi
	call	_ZN8opendnp311Group51Var24ReadERN7openpal6RSliceERS0_@PLT
	movq	%rbx, %rsi
	movq	%r12, %rdi
	call	*%r15
	leal	1(%rbp), %eax
	movq	%rax, %rbp
	cmpq	24(%r13), %rax
	jb	.L37
.L35:
	movq	40(%rsp), %rax
	subq	%fs:40, %rax
	jne	.L41
	addq	$56, %rsp
	.cfi_remember_state
	.cfi_def_cfa_offset 56
	popq	%rbx
	.cfi_def_cfa_offset 48
	popq	%rbp
	.cfi_def_cfa_offset 40
	popq	%r12
	.cfi_def_cfa_offset 32
	popq	%r13
	.cfi_def_cfa_offset 24
	popq	%r14
	.cfi_def_cfa_offset 16
	popq	%r15
	.cfi_def_cfa_offset 8
	ret
.L41:
	.cfi_restore_state
	call	__stack_chk_fail@PLT
	.cfi_endproc
.LFE3197:
	.size	_ZNK8opendnp318BufferedCollectionINS_11Group51Var2EZNS_11CountParser13InvokeCountOfIS1_EEvRKNS_12HeaderRecordEtRKN7openpal6RSliceERNS_12IAPDUHandlerEEUlRS8_jE_E7ForeachERNS_8IVisitorIS1_EE, .-_ZNK8opendnp318BufferedCollectionINS_11Group51Var2EZNS_11CountParser13InvokeCountOfIS1_EEvRKNS_12HeaderRecordEtRKN7openpal6RSliceERNS_12IAPDUHandlerEEUlRS8_jE_E7ForeachERNS_8IVisitorIS1_EE
	.section	.text._ZN8opendnp311CountParser13InvokeCountOfINS_11Group52Var1EEEvRKNS_12HeaderRecordEtRKN7openpal6RSliceERNS_12IAPDUHandlerE,"axG",@progbits,_ZN8opendnp311CountParser13InvokeCountOfINS_11Group52Var1EEEvRKNS_12HeaderRecordEtRKN7openpal6RSliceERNS_12IAPDUHandlerE,comdat
	.align 2
	.p2align 4
	.weak	_ZN8opendnp311CountParser13InvokeCountOfINS_11Group52Var1EEEvRKNS_12HeaderRecordEtRKN7openpal6RSliceERNS_12IAPDUHandlerE
	.type	_ZN8opendnp311CountParser13InvokeCountOfINS_11Group52Var1EEEvRKNS_12HeaderRecordEtRKN7openpal6RSliceERNS_12IAPDUHandlerE, @function
_ZN8opendnp311CountParser13InvokeCountOfINS_11Group52Var1EEEvRKNS_12HeaderRecordEtRKN7openpal6RSliceERNS_12IAPDUHandlerE:
.LFB2841:
	.cfi_startproc
	endbr64
	subq	$88, %rsp
	.cfi_def_cfa_offset 96
	movq	%rdi, %r8
	movdqu	(%rdx), %xmm0
	movq	%rcx, %rdi
	movq	%fs:40, %rax
	movq	%rax, 72(%rsp)
	movq	_ZTVN8opendnp318BufferedCollectionINS_11Group52Var1EZNS_11CountParser13InvokeCountOfIS1_EEvRKNS_12HeaderRecordEtRKN7openpal6RSliceERNS_12IAPDUHandlerEEUlRS8_jE_EE@GOTPCREL(%rip), %rax
	movdqu	(%r8), %xmm1
	movw	%si, 16(%rsp)
	leaq	32(%rsp), %rdx
	movups	%xmm0, 40(%rsp)
	movaps	%xmm1, (%rsp)
	addq	$16, %rax
	movq	%rax, 32(%rsp)
	movzwl	%si, %eax
	movq	%rsp, %rsi
	movq	%rax, 56(%rsp)
	call	_ZN8opendnp312IAPDUHandler8OnHeaderERKNS_11CountHeaderERKNS_11ICollectionINS_11Group52Var1EEE@PLT
	movq	72(%rsp), %rax
	subq	%fs:40, %rax
	jne	.L45
	addq	$88, %rsp
	.cfi_remember_state
	.cfi_def_cfa_offset 8
	ret
.L45:
	.cfi_restore_state
	call	__stack_chk_fail@PLT
	.cfi_endproc
.LFE2841:
	.size	_ZN8opendnp311CountParser13InvokeCountOfINS_11Group52Var1EEEvRKNS_12HeaderRecordEtRKN7openpal6RSliceERNS_12IAPDUHandlerE, .-_ZN8opendnp311CountParser13InvokeCountOfINS_11Group52Var1EEEvRKNS_12HeaderRecordEtRKN7openpal6RSliceERNS_12IAPDUHandlerE
	.section	.text._ZNK8opendnp318BufferedCollectionINS_11Group52Var1EZNS_11CountParser13InvokeCountOfIS1_EEvRKNS_12HeaderRecordEtRKN7openpal6RSliceERNS_12IAPDUHandlerEEUlRS8_jE_E7ForeachERNS_8IVisitorIS1_EE,"axG",@progbits,_ZNK8opendnp318BufferedCollectionINS_11Group52Var1EZNS_11CountParser13InvokeCountOfIS1_EEvRKNS_12HeaderRecordEtRKN7openpal6RSliceERNS_12IAPDUHandlerEEUlRS8_jE_E7ForeachERNS_8IVisitorIS1_EE,comdat
	.align 2
	.p2align 4
	.weak	_ZNK8opendnp318BufferedCollectionINS_11Group52Var1EZNS_11CountParser13InvokeCountOfIS1_EEvRKNS_12HeaderRecordEtRKN7openpal6RSliceERNS_12IAPDUHandlerEEUlRS8_jE_E7ForeachERNS_8IVisitorIS1_EE
	.type	_ZNK8opendnp318BufferedCollectionINS_11Group52Var1EZNS_11CountParser13InvokeCountOfIS1_EEvRKNS_12HeaderRecordEtRKN7openpal6RSliceERNS_12IAPDUHandlerEEUlRS8_jE_E7ForeachERNS_8IVisitorIS1_EE, @function
_ZNK8opendnp318BufferedCollectionINS_11Group52Var1EZNS_11CountParser13InvokeCountOfIS1_EEvRKNS_12HeaderRecordEtRKN7openpal6RSliceERNS_12IAPDUHandlerEEUlRS8_jE_E7ForeachERNS_8IVisitorIS1_EE:
.LFB3195:
	.cfi_startproc
	endbr64
	pushq	%r15
	.cfi_def_cfa_offset 16
	.cfi_offset 15, -16
	pushq	%r14
	.cfi_def_cfa_offset 24
	.cfi_offset 14, -24
	pushq	%r13
	.cfi_def_cfa_offset 32
	.cfi_offset 13, -32
	pushq	%r12
	.cfi_def_cfa_offset 40
	.cfi_offset 12, -40
	pushq	%rbp
	.cfi_def_cfa_offset 48
	.cfi_offset 6, -48
	pushq	%rbx
	.cfi_def_cfa_offset 56
	.cfi_offset 3, -56
	subq	$56, %rsp
	.cfi_def_cfa_offset 112
	movdqu	8(%rdi), %xmm0
	movq	%fs:40, %rax
	movq	%rax, 40(%rsp)
	xorl	%eax, %eax
	cmpq	$0, 24(%rdi)
	movaps	%xmm0, 16(%rsp)
	je	.L46
	movq	%rdi, %r13
	movq	%rsi, %r12
	leaq	14(%rsp), %rbx
	xorl	%ebp, %ebp
	leaq	16(%rsp), %r14
	.p2align 4,,10
	.p2align 3
.L48:
	movq	(%r12), %rax
	movq	%rbx, %rdi
	movq	(%rax), %r15
	call	_ZN8opendnp311Group52Var1C1Ev@PLT
	movq	%rbx, %rsi
	movq	%r14, %rdi
	call	_ZN8opendnp311Group52Var14ReadERN7openpal6RSliceERS0_@PLT
	movq	%rbx, %rsi
	movq	%r12, %rdi
	call	*%r15
	leal	1(%rbp), %eax
	movq	%rax, %rbp
	cmpq	24(%r13), %rax
	jb	.L48
.L46:
	movq	40(%rsp), %rax
	subq	%fs:40, %rax
	jne	.L52
	addq	$56, %rsp
	.cfi_remember_state
	.cfi_def_cfa_offset 56
	popq	%rbx
	.cfi_def_cfa_offset 48
	popq	%rbp
	.cfi_def_cfa_offset 40
	popq	%r12
	.cfi_def_cfa_offset 32
	popq	%r13
	.cfi_def_cfa_offset 24
	popq	%r14
	.cfi_def_cfa_offset 16
	popq	%r15
	.cfi_def_cfa_offset 8
	ret
.L52:
	.cfi_restore_state
	call	__stack_chk_fail@PLT
	.cfi_endproc
.LFE3195:
	.size	_ZNK8opendnp318BufferedCollectionINS_11Group52Var1EZNS_11CountParser13InvokeCountOfIS1_EEvRKNS_12HeaderRecordEtRKN7openpal6RSliceERNS_12IAPDUHandlerEEUlRS8_jE_E7ForeachERNS_8IVisitorIS1_EE, .-_ZNK8opendnp318BufferedCollectionINS_11Group52Var1EZNS_11CountParser13InvokeCountOfIS1_EEvRKNS_12HeaderRecordEtRKN7openpal6RSliceERNS_12IAPDUHandlerEEUlRS8_jE_E7ForeachERNS_8IVisitorIS1_EE
	.section	.text._ZN8opendnp311CountParser13InvokeCountOfINS_11Group52Var2EEEvRKNS_12HeaderRecordEtRKN7openpal6RSliceERNS_12IAPDUHandlerE,"axG",@progbits,_ZN8opendnp311CountParser13InvokeCountOfINS_11Group52Var2EEEvRKNS_12HeaderRecordEtRKN7openpal6RSliceERNS_12IAPDUHandlerE,comdat
	.align 2
	.p2align 4
	.weak	_ZN8opendnp311CountParser13InvokeCountOfINS_11Group52Var2EEEvRKNS_12HeaderRecordEtRKN7openpal6RSliceERNS_12IAPDUHandlerE
	.type	_ZN8opendnp311CountParser13InvokeCountOfINS_11Group52Var2EEEvRKNS_12HeaderRecordEtRKN7openpal6RSliceERNS_12IAPDUHandlerE, @function
_ZN8opendnp311CountParser13InvokeCountOfINS_11Group52Var2EEEvRKNS_12HeaderRecordEtRKN7openpal6RSliceERNS_12IAPDUHandlerE:
.LFB2851:
	.cfi_startproc
	endbr64
	subq	$88, %rsp
	.cfi_def_cfa_offset 96
	movq	%rdi, %r8
	movdqu	(%rdx), %xmm0
	movq	%rcx, %rdi
	movq	%fs:40, %rax
	movq	%rax, 72(%rsp)
	movq	_ZTVN8opendnp318BufferedCollectionINS_11Group52Var2EZNS_11CountParser13InvokeCountOfIS1_EEvRKNS_12HeaderRecordEtRKN7openpal6RSliceERNS_12IAPDUHandlerEEUlRS8_jE_EE@GOTPCREL(%rip), %rax
	movdqu	(%r8), %xmm1
	movw	%si, 16(%rsp)
	leaq	32(%rsp), %rdx
	movups	%xmm0, 40(%rsp)
	movaps	%xmm1, (%rsp)
	addq	$16, %rax
	movq	%rax, 32(%rsp)
	movzwl	%si, %eax
	movq	%rsp, %rsi
	movq	%rax, 56(%rsp)
	call	_ZN8opendnp312IAPDUHandler8OnHeaderERKNS_11CountHeaderERKNS_11ICollectionINS_11Group52Var2EEE@PLT
	movq	72(%rsp), %rax
	subq	%fs:40, %rax
	jne	.L56
	addq	$88, %rsp
	.cfi_remember_state
	.cfi_def_cfa_offset 8
	ret
.L56:
	.cfi_restore_state
	call	__stack_chk_fail@PLT
	.cfi_endproc
.LFE2851:
	.size	_ZN8opendnp311CountParser13InvokeCountOfINS_11Group52Var2EEEvRKNS_12HeaderRecordEtRKN7openpal6RSliceERNS_12IAPDUHandlerE, .-_ZN8opendnp311CountParser13InvokeCountOfINS_11Group52Var2EEEvRKNS_12HeaderRecordEtRKN7openpal6RSliceERNS_12IAPDUHandlerE
	.section	.text._ZNK8opendnp318BufferedCollectionINS_11Group52Var2EZNS_11CountParser13InvokeCountOfIS1_EEvRKNS_12HeaderRecordEtRKN7openpal6RSliceERNS_12IAPDUHandlerEEUlRS8_jE_E7ForeachERNS_8IVisitorIS1_EE,"axG",@progbits,_ZNK8opendnp318BufferedCollectionINS_11Group52Var2EZNS_11CountParser13InvokeCountOfIS1_EEvRKNS_12HeaderRecordEtRKN7openpal6RSliceERNS_12IAPDUHandlerEEUlRS8_jE_E7ForeachERNS_8IVisitorIS1_EE,comdat
	.align 2
	.p2align 4
	.weak	_ZNK8opendnp318BufferedCollectionINS_11Group52Var2EZNS_11CountParser13InvokeCountOfIS1_EEvRKNS_12HeaderRecordEtRKN7openpal6RSliceERNS_12IAPDUHandlerEEUlRS8_jE_E7ForeachERNS_8IVisitorIS1_EE
	.type	_ZNK8opendnp318BufferedCollectionINS_11Group52Var2EZNS_11CountParser13InvokeCountOfIS1_EEvRKNS_12HeaderRecordEtRKN7openpal6RSliceERNS_12IAPDUHandlerEEUlRS8_jE_E7ForeachERNS_8IVisitorIS1_EE, @function
_ZNK8opendnp318BufferedCollectionINS_11Group52Var2EZNS_11CountParser13InvokeCountOfIS1_EEvRKNS_12HeaderRecordEtRKN7openpal6RSliceERNS_12IAPDUHandlerEEUlRS8_jE_E7ForeachERNS_8IVisitorIS1_EE:
.LFB3193:
	.cfi_startproc
	endbr64
	pushq	%r15
	.cfi_def_cfa_offset 16
	.cfi_offset 15, -16
	pushq	%r14
	.cfi_def_cfa_offset 24
	.cfi_offset 14, -24
	pushq	%r13
	.cfi_def_cfa_offset 32
	.cfi_offset 13, -32
	pushq	%r12
	.cfi_def_cfa_offset 40
	.cfi_offset 12, -40
	pushq	%rbp
	.cfi_def_cfa_offset 48
	.cfi_offset 6, -48
	pushq	%rbx
	.cfi_def_cfa_offset 56
	.cfi_offset 3, -56
	subq	$56, %rsp
	.cfi_def_cfa_offset 112
	movdqu	8(%rdi), %xmm0
	movq	%fs:40, %rax
	movq	%rax, 40(%rsp)
	xorl	%eax, %eax
	cmpq	$0, 24(%rdi)
	movaps	%xmm0, 16(%rsp)
	je	.L57
	movq	%rdi, %r13
	movq	%rsi, %r12
	leaq	14(%rsp), %rbx
	xorl	%ebp, %ebp
	leaq	16(%rsp), %r14
	.p2align 4,,10
	.p2align 3
.L59:
	movq	(%r12), %rax
	movq	%rbx, %rdi
	movq	(%rax), %r15
	call	_ZN8opendnp311Group52Var2C1Ev@PLT
	movq	%rbx, %rsi
	movq	%r14, %rdi
	call	_ZN8opendnp311Group52Var24ReadERN7openpal6RSliceERS0_@PLT
	movq	%rbx, %rsi
	movq	%r12, %rdi
	call	*%r15
	leal	1(%rbp), %eax
	movq	%rax, %rbp
	cmpq	24(%r13), %rax
	jb	.L59
.L57:
	movq	40(%rsp), %rax
	subq	%fs:40, %rax
	jne	.L63
	addq	$56, %rsp
	.cfi_remember_state
	.cfi_def_cfa_offset 56
	popq	%rbx
	.cfi_def_cfa_offset 48
	popq	%rbp
	.cfi_def_cfa_offset 40
	popq	%r12
	.cfi_def_cfa_offset 32
	popq	%r13
	.cfi_def_cfa_offset 24
	popq	%r14
	.cfi_def_cfa_offset 16
	popq	%r15
	.cfi_def_cfa_offset 8
	ret
.L63:
	.cfi_restore_state
	call	__stack_chk_fail@PLT
	.cfi_endproc
.LFE3193:
	.size	_ZNK8opendnp318BufferedCollectionINS_11Group52Var2EZNS_11CountParser13InvokeCountOfIS1_EEvRKNS_12HeaderRecordEtRKN7openpal6RSliceERNS_12IAPDUHandlerEEUlRS8_jE_E7ForeachERNS_8IVisitorIS1_EE, .-_ZNK8opendnp318BufferedCollectionINS_11Group52Var2EZNS_11CountParser13InvokeCountOfIS1_EEvRKNS_12HeaderRecordEtRKN7openpal6RSliceERNS_12IAPDUHandlerEEUlRS8_jE_E7ForeachERNS_8IVisitorIS1_EE
	.section	.text._ZN8opendnp311CountParser13InvokeCountOfINS_12Group120Var3EEEvRKNS_12HeaderRecordEtRKN7openpal6RSliceERNS_12IAPDUHandlerE,"axG",@progbits,_ZN8opendnp311CountParser13InvokeCountOfINS_12Group120Var3EEEvRKNS_12HeaderRecordEtRKN7openpal6RSliceERNS_12IAPDUHandlerE,comdat
	.align 2
	.p2align 4
	.weak	_ZN8opendnp311CountParser13InvokeCountOfINS_12Group120Var3EEEvRKNS_12HeaderRecordEtRKN7openpal6RSliceERNS_12IAPDUHandlerE
	.type	_ZN8opendnp311CountParser13InvokeCountOfINS_12Group120Var3EEEvRKNS_12HeaderRecordEtRKN7openpal6RSliceERNS_12IAPDUHandlerE, @function
_ZN8opendnp311CountParser13InvokeCountOfINS_12Group120Var3EEEvRKNS_12HeaderRecordEtRKN7openpal6RSliceERNS_12IAPDUHandlerE:
.LFB2861:
	.cfi_startproc
	endbr64
	subq	$88, %rsp
	.cfi_def_cfa_offset 96
	movq	%rdi, %r8
	movdqu	(%rdx), %xmm0
	movq	%rcx, %rdi
	movq	%fs:40, %rax
	movq	%rax, 72(%rsp)
	movq	_ZTVN8opendnp318BufferedCollectionINS_12Group120Var3EZNS_11CountParser13InvokeCountOfIS1_EEvRKNS_12HeaderRecordEtRKN7openpal6RSliceERNS_12IAPDUHandlerEEUlRS8_jE_EE@GOTPCREL(%rip), %rax
	movdqu	(%r8), %xmm1
	movw	%si, 16(%rsp)
	leaq	32(%rsp), %rdx
	movups	%xmm0, 40(%rsp)
	movaps	%xmm1, (%rsp)
	addq	$16, %rax
	movq	%rax, 32(%rsp)
	movzwl	%si, %eax
	movq	%rsp, %rsi
	movq	%rax, 56(%rsp)
	call	_ZN8opendnp312IAPDUHandler8OnHeaderERKNS_11CountHeaderERKNS_11ICollectionINS_12Group120Var3EEE@PLT
	movq	72(%rsp), %rax
	subq	%fs:40, %rax
	jne	.L67
	addq	$88, %rsp
	.cfi_remember_state
	.cfi_def_cfa_offset 8
	ret
.L67:
	.cfi_restore_state
	call	__stack_chk_fail@PLT
	.cfi_endproc
.LFE2861:
	.size	_ZN8opendnp311CountParser13InvokeCountOfINS_12Group120Var3EEEvRKNS_12HeaderRecordEtRKN7openpal6RSliceERNS_12IAPDUHandlerE, .-_ZN8opendnp311CountParser13InvokeCountOfINS_12Group120Var3EEEvRKNS_12HeaderRecordEtRKN7openpal6RSliceERNS_12IAPDUHandlerE
	.section	.text._ZNK8opendnp318BufferedCollectionINS_12Group120Var3EZNS_11CountParser13InvokeCountOfIS1_EEvRKNS_12HeaderRecordEtRKN7openpal6RSliceERNS_12IAPDUHandlerEEUlRS8_jE_E7ForeachERNS_8IVisitorIS1_EE,"axG",@progbits,_ZNK8opendnp318BufferedCollectionINS_12Group120Var3EZNS_11CountParser13InvokeCountOfIS1_EEvRKNS_12HeaderRecordEtRKN7openpal6RSliceERNS_12IAPDUHandlerEEUlRS8_jE_E7ForeachERNS_8IVisitorIS1_EE,comdat
	.align 2
	.p2align 4
	.weak	_ZNK8opendnp318BufferedCollectionINS_12Group120Var3EZNS_11CountParser13InvokeCountOfIS1_EEvRKNS_12HeaderRecordEtRKN7openpal6RSliceERNS_12IAPDUHandlerEEUlRS8_jE_E7ForeachERNS_8IVisitorIS1_EE
	.type	_ZNK8opendnp318BufferedCollectionINS_12Group120Var3EZNS_11CountParser13InvokeCountOfIS1_EEvRKNS_12HeaderRecordEtRKN7openpal6RSliceERNS_12IAPDUHandlerEEUlRS8_jE_E7ForeachERNS_8IVisitorIS1_EE, @function
_ZNK8opendnp318BufferedCollectionINS_12Group120Var3EZNS_11CountParser13InvokeCountOfIS1_EEvRKNS_12HeaderRecordEtRKN7openpal6RSliceERNS_12IAPDUHandlerEEUlRS8_jE_E7ForeachERNS_8IVisitorIS1_EE:
.LFB3191:
	.cfi_startproc
	endbr64
	pushq	%r15
	.cfi_def_cfa_offset 16
	.cfi_offset 15, -16
	pushq	%r14
	.cfi_def_cfa_offset 24
	.cfi_offset 14, -24
	pushq	%r13
	.cfi_def_cfa_offset 32
	.cfi_offset 13, -32
	pushq	%r12
	.cfi_def_cfa_offset 40
	.cfi_offset 12, -40
	pushq	%rbp
	.cfi_def_cfa_offset 48
	.cfi_offset 6, -48
	pushq	%rbx
	.cfi_def_cfa_offset 56
	.cfi_offset 3, -56
	subq	$56, %rsp
	.cfi_def_cfa_offset 112
	movdqu	8(%rdi), %xmm0
	movq	%fs:40, %rax
	movq	%rax, 40(%rsp)
	xorl	%eax, %eax
	cmpq	$0, 24(%rdi)
	movaps	%xmm0, 16(%rsp)
	je	.L68
	movq	%rdi, %r13
	movq	%rsi, %r12
	leaq	8(%rsp), %rbx
	xorl	%ebp, %ebp
	leaq	16(%rsp), %r14
	.p2align 4,,10
	.p2align 3
.L70:
	movq	(%r12), %rax
	movq	%rbx, %rdi
	movq	(%rax), %r15
	call	_ZN8opendnp312Group120Var3C1Ev@PLT
	movq	%rbx, %rsi
	movq	%r14, %rdi
	call	_ZN8opendnp312Group120Var34ReadERN7openpal6RSliceERS0_@PLT
	movq	%rbx, %rsi
	movq	%r12, %rdi
	call	*%r15
	leal	1(%rbp), %eax
	movq	%rax, %rbp
	cmpq	24(%r13), %rax
	jb	.L70
.L68:
	movq	40(%rsp), %rax
	subq	%fs:40, %rax
	jne	.L74
	addq	$56, %rsp
	.cfi_remember_state
	.cfi_def_cfa_offset 56
	popq	%rbx
	.cfi_def_cfa_offset 48
	popq	%rbp
	.cfi_def_cfa_offset 40
	popq	%r12
	.cfi_def_cfa_offset 32
	popq	%r13
	.cfi_def_cfa_offset 24
	popq	%r14
	.cfi_def_cfa_offset 16
	popq	%r15
	.cfi_def_cfa_offset 8
	ret
.L74:
	.cfi_restore_state
	call	__stack_chk_fail@PLT
	.cfi_endproc
.LFE3191:
	.size	_ZNK8opendnp318BufferedCollectionINS_12Group120Var3EZNS_11CountParser13InvokeCountOfIS1_EEvRKNS_12HeaderRecordEtRKN7openpal6RSliceERNS_12IAPDUHandlerEEUlRS8_jE_E7ForeachERNS_8IVisitorIS1_EE, .-_ZNK8opendnp318BufferedCollectionINS_12Group120Var3EZNS_11CountParser13InvokeCountOfIS1_EEvRKNS_12HeaderRecordEtRKN7openpal6RSliceERNS_12IAPDUHandlerEEUlRS8_jE_E7ForeachERNS_8IVisitorIS1_EE
	.section	.text._ZN8opendnp311CountParser13InvokeCountOfINS_12Group120Var4EEEvRKNS_12HeaderRecordEtRKN7openpal6RSliceERNS_12IAPDUHandlerE,"axG",@progbits,_ZN8opendnp311CountParser13InvokeCountOfINS_12Group120Var4EEEvRKNS_12HeaderRecordEtRKN7openpal6RSliceERNS_12IAPDUHandlerE,comdat
	.align 2
	.p2align 4
	.weak	_ZN8opendnp311CountParser13InvokeCountOfINS_12Group120Var4EEEvRKNS_12HeaderRecordEtRKN7openpal6RSliceERNS_12IAPDUHandlerE
	.type	_ZN8opendnp311CountParser13InvokeCountOfINS_12Group120Var4EEEvRKNS_12HeaderRecordEtRKN7openpal6RSliceERNS_12IAPDUHandlerE, @function
_ZN8opendnp311CountParser13InvokeCountOfINS_12Group120Var4EEEvRKNS_12HeaderRecordEtRKN7openpal6RSliceERNS_12IAPDUHandlerE:
.LFB2871:
	.cfi_startproc
	endbr64
	subq	$88, %rsp
	.cfi_def_cfa_offset 96
	movq	%rdi, %r8
	movdqu	(%rdx), %xmm0
	movq	%rcx, %rdi
	movq	%fs:40, %rax
	movq	%rax, 72(%rsp)
	movq	_ZTVN8opendnp318BufferedCollectionINS_12Group120Var4EZNS_11CountParser13InvokeCountOfIS1_EEvRKNS_12HeaderRecordEtRKN7openpal6RSliceERNS_12IAPDUHandlerEEUlRS8_jE_EE@GOTPCREL(%rip), %rax
	movdqu	(%r8), %xmm1
	movw	%si, 16(%rsp)
	leaq	32(%rsp), %rdx
	movups	%xmm0, 40(%rsp)
	movaps	%xmm1, (%rsp)
	addq	$16, %rax
	movq	%rax, 32(%rsp)
	movzwl	%si, %eax
	movq	%rsp, %rsi
	movq	%rax, 56(%rsp)
	call	_ZN8opendnp312IAPDUHandler8OnHeaderERKNS_11CountHeaderERKNS_11ICollectionINS_12Group120Var4EEE@PLT
	movq	72(%rsp), %rax
	subq	%fs:40, %rax
	jne	.L78
	addq	$88, %rsp
	.cfi_remember_state
	.cfi_def_cfa_offset 8
	ret
.L78:
	.cfi_restore_state
	call	__stack_chk_fail@PLT
	.cfi_endproc
.LFE2871:
	.size	_ZN8opendnp311CountParser13InvokeCountOfINS_12Group120Var4EEEvRKNS_12HeaderRecordEtRKN7openpal6RSliceERNS_12IAPDUHandlerE, .-_ZN8opendnp311CountParser13InvokeCountOfINS_12Group120Var4EEEvRKNS_12HeaderRecordEtRKN7openpal6RSliceERNS_12IAPDUHandlerE
	.section	.text._ZNK8opendnp318BufferedCollectionINS_12Group120Var4EZNS_11CountParser13InvokeCountOfIS1_EEvRKNS_12HeaderRecordEtRKN7openpal6RSliceERNS_12IAPDUHandlerEEUlRS8_jE_E7ForeachERNS_8IVisitorIS1_EE,"axG",@progbits,_ZNK8opendnp318BufferedCollectionINS_12Group120Var4EZNS_11CountParser13InvokeCountOfIS1_EEvRKNS_12HeaderRecordEtRKN7openpal6RSliceERNS_12IAPDUHandlerEEUlRS8_jE_E7ForeachERNS_8IVisitorIS1_EE,comdat
	.align 2
	.p2align 4
	.weak	_ZNK8opendnp318BufferedCollectionINS_12Group120Var4EZNS_11CountParser13InvokeCountOfIS1_EEvRKNS_12HeaderRecordEtRKN7openpal6RSliceERNS_12IAPDUHandlerEEUlRS8_jE_E7ForeachERNS_8IVisitorIS1_EE
	.type	_ZNK8opendnp318BufferedCollectionINS_12Group120Var4EZNS_11CountParser13InvokeCountOfIS1_EEvRKNS_12HeaderRecordEtRKN7openpal6RSliceERNS_12IAPDUHandlerEEUlRS8_jE_E7ForeachERNS_8IVisitorIS1_EE, @function
_ZNK8opendnp318BufferedCollectionINS_12Group120Var4EZNS_11CountParser13InvokeCountOfIS1_EEvRKNS_12HeaderRecordEtRKN7openpal6RSliceERNS_12IAPDUHandlerEEUlRS8_jE_E7ForeachERNS_8IVisitorIS1_EE:
.LFB3189:
	.cfi_startproc
	endbr64
	pushq	%r15
	.cfi_def_cfa_offset 16
	.cfi_offset 15, -16
	pushq	%r14
	.cfi_def_cfa_offset 24
	.cfi_offset 14, -24
	pushq	%r13
	.cfi_def_cfa_offset 32
	.cfi_offset 13, -32
	pushq	%r12
	.cfi_def_cfa_offset 40
	.cfi_offset 12, -40
	pushq	%rbp
	.cfi_def_cfa_offset 48
	.cfi_offset 6, -48
	pushq	%rbx
	.cfi_def_cfa_offset 56
	.cfi_offset 3, -56
	subq	$56, %rsp
	.cfi_def_cfa_offset 112
	movdqu	8(%rdi), %xmm0
	movq	%fs:40, %rax
	movq	%rax, 40(%rsp)
	xorl	%eax, %eax
	cmpq	$0, 24(%rdi)
	movaps	%xmm0, 16(%rsp)
	je	.L79
	movq	%rdi, %r13
	movq	%rsi, %r12
	leaq	14(%rsp), %rbx
	xorl	%ebp, %ebp
	leaq	16(%rsp), %r14
	.p2align 4,,10
	.p2align 3
.L81:
	movq	(%r12), %rax
	movq	%rbx, %rdi
	movq	(%rax), %r15
	call	_ZN8opendnp312Group120Var4C1Ev@PLT
	movq	%rbx, %rsi
	movq	%r14, %rdi
	call	_ZN8opendnp312Group120Var44ReadERN7openpal6RSliceERS0_@PLT
	movq	%rbx, %rsi
	movq	%r12, %rdi
	call	*%r15
	leal	1(%rbp), %eax
	movq	%rax, %rbp
	cmpq	24(%r13), %rax
	jb	.L81
.L79:
	movq	40(%rsp), %rax
	subq	%fs:40, %rax
	jne	.L85
	addq	$56, %rsp
	.cfi_remember_state
	.cfi_def_cfa_offset 56
	popq	%rbx
	.cfi_def_cfa_offset 48
	popq	%rbp
	.cfi_def_cfa_offset 40
	popq	%r12
	.cfi_def_cfa_offset 32
	popq	%r13
	.cfi_def_cfa_offset 24
	popq	%r14
	.cfi_def_cfa_offset 16
	popq	%r15
	.cfi_def_cfa_offset 8
	ret
.L85:
	.cfi_restore_state
	call	__stack_chk_fail@PLT
	.cfi_endproc
.LFE3189:
	.size	_ZNK8opendnp318BufferedCollectionINS_12Group120Var4EZNS_11CountParser13InvokeCountOfIS1_EEvRKNS_12HeaderRecordEtRKN7openpal6RSliceERNS_12IAPDUHandlerEEUlRS8_jE_E7ForeachERNS_8IVisitorIS1_EE, .-_ZNK8opendnp318BufferedCollectionINS_12Group120Var4EZNS_11CountParser13InvokeCountOfIS1_EEvRKNS_12HeaderRecordEtRKN7openpal6RSliceERNS_12IAPDUHandlerEEUlRS8_jE_E7ForeachERNS_8IVisitorIS1_EE
	.text
	.align 2
	.p2align 4
	.globl	_ZN8opendnp311CountParserC2EtjPFvRKNS_12HeaderRecordEtRKN7openpal6RSliceERNS_12IAPDUHandlerEE
	.type	_ZN8opendnp311CountParserC2EtjPFvRKNS_12HeaderRecordEtRKN7openpal6RSliceERNS_12IAPDUHandlerEE, @function
_ZN8opendnp311CountParserC2EtjPFvRKNS_12HeaderRecordEtRKN7openpal6RSliceERNS_12IAPDUHandlerEE:
.LFB2372:
	.cfi_startproc
	endbr64
	movw	%si, (%rdi)
	movl	%edx, 4(%rdi)
	movq	%rcx, 8(%rdi)
	ret
	.cfi_endproc
.LFE2372:
	.size	_ZN8opendnp311CountParserC2EtjPFvRKNS_12HeaderRecordEtRKN7openpal6RSliceERNS_12IAPDUHandlerEE, .-_ZN8opendnp311CountParserC2EtjPFvRKNS_12HeaderRecordEtRKN7openpal6RSliceERNS_12IAPDUHandlerEE
	.globl	_ZN8opendnp311CountParserC1EtjPFvRKNS_12HeaderRecordEtRKN7openpal6RSliceERNS_12IAPDUHandlerEE
	.set	_ZN8opendnp311CountParserC1EtjPFvRKNS_12HeaderRecordEtRKN7openpal6RSliceERNS_12IAPDUHandlerEE,_ZN8opendnp311CountParserC2EtjPFvRKNS_12HeaderRecordEtRKN7openpal6RSliceERNS_12IAPDUHandlerEE
	.section	.rodata.str1.8,"aMS",@progbits,1
	.align 8
.LC0:
	.string	"Not enough data for specified objects"
	.align 8
.LC1:
	.string	"/home/saptarshi/Desktop/OpenPLC61850/utils/dnp3_src/cpp/libs/src/opendnp3/app/parsing/CountParser.cpp(42)"
	.text
	.align 2
	.p2align 4
	.globl	_ZNK8opendnp311CountParser7ProcessERKNS_12HeaderRecordERN7openpal6RSliceEPNS_12IAPDUHandlerEPNS4_6LoggerE
	.type	_ZNK8opendnp311CountParser7ProcessERKNS_12HeaderRecordERN7openpal6RSliceEPNS_12IAPDUHandlerEPNS4_6LoggerE, @function
_ZNK8opendnp311CountParser7ProcessERKNS_12HeaderRecordERN7openpal6RSliceEPNS_12IAPDUHandlerEPNS4_6LoggerE:
.LFB2374:
	.cfi_startproc
	endbr64
	pushq	%r12
	.cfi_def_cfa_offset 16
	.cfi_offset 12, -16
	pushq	%rbp
	.cfi_def_cfa_offset 24
	.cfi_offset 6, -24
	pushq	%rbx
	.cfi_def_cfa_offset 32
	.cfi_offset 3, -32
	movq	%rdi, %rbx
	movq	%rsi, %rdi
	subq	$16, %rsp
	.cfi_def_cfa_offset 48
	movl	4(%rbx), %esi
	movq	%fs:40, %rax
	movq	%rax, 8(%rsp)
	xorl	%eax, %eax
	cmpl	(%rdx), %esi
	ja	.L103
	movq	%rdx, %rbp
	testq	%rcx, %rcx
	je	.L91
	movzwl	(%rbx), %esi
	call	*8(%rbx)
	movl	4(%rbx), %esi
.L91:
	movq	%rbp, %rdi
	call	_ZN7openpal6RSlice7AdvanceEj@PLT
	xorl	%eax, %eax
.L87:
	movq	8(%rsp), %rdx
	subq	%fs:40, %rdx
	jne	.L104
	addq	$16, %rsp
	.cfi_remember_state
	.cfi_def_cfa_offset 32
	popq	%rbx
	.cfi_def_cfa_offset 24
	popq	%rbp
	.cfi_def_cfa_offset 16
	popq	%r12
	.cfi_def_cfa_offset 8
	ret
	.p2align 4,,10
	.p2align 3
.L103:
	.cfi_restore_state
	movq	%r8, %r12
	testq	%r8, %r8
	je	.L89
	leaq	4(%rsp), %rbp
	movq	%r8, %rdi
	movl	$4, 4(%rsp)
	movq	%rbp, %rsi
	call	_ZNK7openpal6Logger9IsEnabledERKNS_10LogFiltersE@PLT
	testb	%al, %al
	je	.L89
	leaq	.LC0(%rip), %rcx
	leaq	.LC1(%rip), %rdx
	movq	%rbp, %rsi
	movq	%r12, %rdi
	movl	$4, 4(%rsp)
	call	_ZN7openpal6Logger3LogERKNS_10LogFiltersEPKcS5_@PLT
	movl	$4, %eax
	jmp	.L87
	.p2align 4,,10
	.p2align 3
.L89:
	movl	$4, %eax
	jmp	.L87
.L104:
	call	__stack_chk_fail@PLT
	.cfi_endproc
.LFE2374:
	.size	_ZNK8opendnp311CountParser7ProcessERKNS_12HeaderRecordERN7openpal6RSliceEPNS_12IAPDUHandlerEPNS4_6LoggerE, .-_ZNK8opendnp311CountParser7ProcessERKNS_12HeaderRecordERN7openpal6RSliceEPNS_12IAPDUHandlerEPNS4_6LoggerE
	.section	.rodata.str1.8
	.align 8
.LC2:
	.string	"Unsupported qualifier/object - %s - %i / %i"
	.align 8
.LC3:
	.string	"/home/saptarshi/Desktop/OpenPLC61850/utils/dnp3_src/cpp/libs/src/opendnp3/app/parsing/CountParser.cpp(116)"
	.text
	.align 2
	.p2align 4
	.globl	_ZN8opendnp311CountParser19ParseCountOfObjectsERN7openpal6RSliceERKNS_12HeaderRecordEtPNS1_6LoggerEPNS_12IAPDUHandlerE
	.type	_ZN8opendnp311CountParser19ParseCountOfObjectsERN7openpal6RSliceERKNS_12HeaderRecordEtPNS1_6LoggerEPNS_12IAPDUHandlerE, @function
_ZN8opendnp311CountParser19ParseCountOfObjectsERN7openpal6RSliceERKNS_12HeaderRecordEtPNS1_6LoggerEPNS_12IAPDUHandlerE:
.LFB2376:
	.cfi_startproc
	endbr64
	pushq	%r15
	.cfi_def_cfa_offset 16
	.cfi_offset 15, -16
	pushq	%r14
	.cfi_def_cfa_offset 24
	.cfi_offset 14, -24
	movq	%r8, %r14
	pushq	%r13
	.cfi_def_cfa_offset 32
	.cfi_offset 13, -32
	movq	%rdi, %r13
	pushq	%r12
	.cfi_def_cfa_offset 40
	.cfi_offset 12, -40
	movq	%rcx, %r12
	pushq	%rbp
	.cfi_def_cfa_offset 48
	.cfi_offset 6, -48
	movq	%rsi, %rbp
	pushq	%rbx
	.cfi_def_cfa_offset 56
	.cfi_offset 3, -56
	subq	$152, %rsp
	.cfi_def_cfa_offset 208
	movq	%fs:40, %rax
	movq	%rax, 136(%rsp)
	xorl	%eax, %eax
	movzwl	(%rsi), %eax
	cmpw	$13313, %ax
	je	.L106
	ja	.L107
	cmpw	$13057, %ax
	je	.L108
	cmpw	$13058, %ax
	jne	.L126
	movzwl	%dx, %esi
	movq	_ZN8opendnp311CountParser13InvokeCountOfINS_11Group51Var2EEEvRKNS_12HeaderRecordEtRKN7openpal6RSliceERNS_12IAPDUHandlerE@GOTPCREL(%rip), %rcx
	movq	%rsp, %r15
	leal	(%rsi,%rsi,2), %edx
	addl	%edx, %edx
	.p2align 4,,10
	.p2align 3
.L125:
	movq	%r15, %rdi
	call	_ZN8opendnp311CountParserC1EtjPFvRKNS_12HeaderRecordEtRKN7openpal6RSliceERNS_12IAPDUHandlerEE@PLT
	movq	%r12, %r8
	movq	%r14, %rcx
	movq	%r13, %rdx
	movq	%rbp, %rsi
	movq	%r15, %rdi
	call	_ZNK8opendnp311CountParser7ProcessERKNS_12HeaderRecordERN7openpal6RSliceEPNS_12IAPDUHandlerEPNS4_6LoggerE@PLT
.L105:
	movq	136(%rsp), %rdx
	subq	%fs:40, %rdx
	jne	.L127
	addq	$152, %rsp
	.cfi_remember_state
	.cfi_def_cfa_offset 56
	popq	%rbx
	.cfi_def_cfa_offset 48
	popq	%rbp
	.cfi_def_cfa_offset 40
	popq	%r12
	.cfi_def_cfa_offset 32
	popq	%r13
	.cfi_def_cfa_offset 24
	popq	%r14
	.cfi_def_cfa_offset 16
	popq	%r15
	.cfi_def_cfa_offset 8
	ret
	.p2align 4,,10
	.p2align 3
.L126:
	.cfi_restore_state
	cmpw	$12801, %ax
	jne	.L111
	movzwl	%dx, %esi
	movq	_ZN8opendnp311CountParser13InvokeCountOfINS_11Group50Var1EEEvRKNS_12HeaderRecordEtRKN7openpal6RSliceERNS_12IAPDUHandlerE@GOTPCREL(%rip), %rcx
	movq	%rsp, %r15
	leal	(%rsi,%rsi,2), %edx
	addl	%edx, %edx
	jmp	.L125
	.p2align 4,,10
	.p2align 3
.L107:
	cmpw	$30723, %ax
	je	.L112
	cmpw	$30724, %ax
	jne	.L128
	movzwl	%dx, %esi
	movq	_ZN8opendnp311CountParser13InvokeCountOfINS_12Group120Var4EEEvRKNS_12HeaderRecordEtRKN7openpal6RSliceERNS_12IAPDUHandlerE@GOTPCREL(%rip), %rcx
	movq	%rsp, %r15
	leal	(%rsi,%rsi), %edx
	jmp	.L125
	.p2align 4,,10
	.p2align 3
.L128:
	cmpw	$13314, %ax
	jne	.L111
	movzwl	%dx, %esi
	movq	_ZN8opendnp311CountParser13InvokeCountOfINS_11Group52Var2EEEvRKNS_12HeaderRecordEtRKN7openpal6RSliceERNS_12IAPDUHandlerE@GOTPCREL(%rip), %rcx
	movq	%rsp, %r15
	leal	(%rsi,%rsi), %edx
	jmp	.L125
	.p2align 4,,10
	.p2align 3
.L106:
	movzwl	%dx, %esi
	movq	_ZN8opendnp311CountParser13InvokeCountOfINS_11Group52Var1EEEvRKNS_12HeaderRecordEtRKN7openpal6RSliceERNS_12IAPDUHandlerE@GOTPCREL(%rip), %rcx
	movq	%rsp, %r15
	leal	(%rsi,%rsi), %edx
	jmp	.L125
	.p2align 4,,10
	.p2align 3
.L108:
	movzwl	%dx, %esi
	movq	_ZN8opendnp311CountParser13InvokeCountOfINS_11Group51Var1EEEvRKNS_12HeaderRecordEtRKN7openpal6RSliceERNS_12IAPDUHandlerE@GOTPCREL(%rip), %rcx
	movq	%rsp, %r15
	leal	(%rsi,%rsi,2), %edx
	addl	%edx, %edx
	jmp	.L125
	.p2align 4,,10
	.p2align 3
.L111:
	testq	%r12, %r12
	je	.L116
	movl	$4, (%rsp)
	movq	%rsp, %r13
	movq	%r12, %rdi
	movq	%r13, %rsi
	call	_ZNK7openpal6Logger9IsEnabledERKNS_10LogFiltersE@PLT
	testb	%al, %al
	jne	.L129
.L116:
	movl	$8, %eax
	jmp	.L105
	.p2align 4,,10
	.p2align 3
.L112:
	movzwl	%dx, %esi
	movq	_ZN8opendnp311CountParser13InvokeCountOfINS_12Group120Var3EEEvRKNS_12HeaderRecordEtRKN7openpal6RSliceERNS_12IAPDUHandlerE@GOTPCREL(%rip), %rcx
	movq	%rsp, %r15
	leal	(%rsi,%rsi,2), %edx
	addl	%edx, %edx
	jmp	.L125
	.p2align 4,,10
	.p2align 3
.L129:
	movq	%rbp, %rdi
	movzbl	9(%rbp), %ebx
	movzbl	8(%rbp), %r15d
	leaq	16(%rsp), %r14
	call	_ZNK8opendnp312HeaderRecord16GetQualifierCodeEv@PLT
	movl	%eax, %edi
	call	_ZN8opendnp321QualifierCodeToStringENS_13QualifierCodeE@PLT
	pushq	%rbx
	.cfi_def_cfa_offset 216
	leaq	.LC2(%rip), %r8
	movq	%r14, %rdi
	pushq	%r15
	.cfi_def_cfa_offset 224
	movq	%rax, %r9
	movl	$120, %ecx
	movl	$1, %edx
	movl	$120, %esi
	xorl	%eax, %eax
	call	__snprintf_chk@PLT
	movq	%r14, %rcx
	movq	%r13, %rsi
	movq	%r12, %rdi
	movl	$4, 16(%rsp)
	leaq	.LC3(%rip), %rdx
	movq	%r13, %rsp
	.cfi_def_cfa_offset 208
	call	_ZN7openpal6Logger3LogERKNS_10LogFiltersEPKcS5_@PLT
	movl	$8, %eax
	jmp	.L105
.L127:
	call	__stack_chk_fail@PLT
	.cfi_endproc
.LFE2376:
	.size	_ZN8opendnp311CountParser19ParseCountOfObjectsERN7openpal6RSliceERKNS_12HeaderRecordEtPNS1_6LoggerEPNS_12IAPDUHandlerE, .-_ZN8opendnp311CountParser19ParseCountOfObjectsERN7openpal6RSliceERKNS_12HeaderRecordEtPNS1_6LoggerEPNS_12IAPDUHandlerE
	.section	.rodata.str1.1,"aMS",@progbits,1
.LC4:
	.string	"%03u,%03u %s, %s [%u]"
	.section	.rodata.str1.8
	.align 8
.LC5:
	.string	"/home/saptarshi/Desktop/OpenPLC61850/utils/dnp3_src/cpp/libs/src/opendnp3/app/parsing/CountParser.cpp(62)"
	.text
	.align 2
	.p2align 4
	.globl	_ZN8opendnp311CountParser11ParseHeaderERN7openpal6RSliceERKNS_9NumParserERKNS_14ParserSettingsERKNS_12HeaderRecordEPNS1_6LoggerEPNS_12IAPDUHandlerE
	.type	_ZN8opendnp311CountParser11ParseHeaderERN7openpal6RSliceERKNS_9NumParserERKNS_14ParserSettingsERKNS_12HeaderRecordEPNS1_6LoggerEPNS_12IAPDUHandlerE, @function
_ZN8opendnp311CountParser11ParseHeaderERN7openpal6RSliceERKNS_9NumParserERKNS_14ParserSettingsERKNS_12HeaderRecordEPNS1_6LoggerEPNS_12IAPDUHandlerE:
.LFB2375:
	.cfi_startproc
	endbr64
	pushq	%r15
	.cfi_def_cfa_offset 16
	.cfi_offset 15, -16
	movq	%rdi, %r15
	movq	%rsi, %rdi
	pushq	%r14
	.cfi_def_cfa_offset 24
	.cfi_offset 14, -24
	movq	%r15, %rsi
	movq	%r9, %r14
	pushq	%r13
	.cfi_def_cfa_offset 32
	.cfi_offset 13, -32
	movq	%r8, %r13
	pushq	%r12
	.cfi_def_cfa_offset 40
	.cfi_offset 12, -40
	pushq	%rbp
	.cfi_def_cfa_offset 48
	.cfi_offset 6, -48
	movq	%rcx, %rbp
	movq	%r8, %rcx
	pushq	%rbx
	.cfi_def_cfa_offset 56
	.cfi_offset 3, -56
	movq	%rdx, %rbx
	subq	$216, %rsp
	.cfi_def_cfa_offset 272
	movq	%fs:40, %rax
	movq	%rax, 200(%rsp)
	xorl	%eax, %eax
	leaq	46(%rsp), %rdx
	call	_ZNK8opendnp39NumParser10ParseCountERN7openpal6RSliceERtPNS1_6LoggerE@PLT
	movl	%eax, %r12d
	testb	%al, %al
	jne	.L130
	testq	%r13, %r13
	je	.L133
	leaq	48(%rsp), %r10
	movl	4(%rbx), %eax
	movq	%r13, %rdi
	movq	%r10, %rsi
	movq	%r10, 8(%rsp)
	movl	%eax, 48(%rsp)
	call	_ZNK7openpal6Logger9IsEnabledERKNS_10LogFiltersE@PLT
	movq	8(%rsp), %r10
	testb	%al, %al
	jne	.L146
.L133:
	cmpb	$0, (%rbx)
	jne	.L147
.L134:
	testq	%r14, %r14
	je	.L130
	movdqu	0(%rbp), %xmm0
	movzwl	46(%rsp), %eax
	leaq	48(%rsp), %rsi
	movq	%r14, %rdi
	movw	%ax, 64(%rsp)
	movaps	%xmm0, 48(%rsp)
	call	_ZN8opendnp312IAPDUHandler8OnHeaderERKNS_11CountHeaderE@PLT
	.p2align 4,,10
	.p2align 3
.L130:
	movq	200(%rsp), %rax
	subq	%fs:40, %rax
	jne	.L148
	addq	$216, %rsp
	.cfi_remember_state
	.cfi_def_cfa_offset 56
	movl	%r12d, %eax
	popq	%rbx
	.cfi_def_cfa_offset 48
	popq	%rbp
	.cfi_def_cfa_offset 40
	popq	%r12
	.cfi_def_cfa_offset 32
	popq	%r13
	.cfi_def_cfa_offset 24
	popq	%r14
	.cfi_def_cfa_offset 16
	popq	%r15
	.cfi_def_cfa_offset 8
	ret
	.p2align 4,,10
	.p2align 3
.L147:
	.cfi_restore_state
	movzwl	46(%rsp), %edx
	movq	%r14, %r8
	movq	%r13, %rcx
	movq	%rbp, %rsi
	movq	%r15, %rdi
	call	_ZN8opendnp311CountParser19ParseCountOfObjectsERN7openpal6RSliceERKNS_12HeaderRecordEtPNS1_6LoggerEPNS_12IAPDUHandlerE@PLT
	movl	%eax, %r12d
	jmp	.L130
	.p2align 4,,10
	.p2align 3
.L146:
	movzwl	46(%rsp), %ecx
	movq	%rbp, %rdi
	movq	%r10, 24(%rsp)
	movl	%ecx, 20(%rsp)
	call	_ZNK8opendnp312HeaderRecord16GetQualifierCodeEv@PLT
	movl	%eax, %edi
	call	_ZN8opendnp321QualifierCodeToStringENS_13QualifierCodeE@PLT
	movzwl	0(%rbp), %edi
	movq	%rax, 8(%rsp)
	call	_ZN8opendnp322GroupVariationToStringENS_14GroupVariationE@PLT
	movl	20(%rsp), %ecx
	leaq	80(%rsp), %r11
	movzbl	8(%rbp), %r9d
	movq	%r11, %rdi
	leaq	.LC4(%rip), %r8
	movl	$120, %esi
	pushq	%rcx
	.cfi_def_cfa_offset 280
	movq	16(%rsp), %rdx
	movl	$120, %ecx
	pushq	%rdx
	.cfi_def_cfa_offset 288
	movl	$1, %edx
	pushq	%rax
	.cfi_def_cfa_offset 296
	movzbl	9(%rbp), %eax
	pushq	%rax
	.cfi_def_cfa_offset 304
	xorl	%eax, %eax
	movq	%r11, 40(%rsp)
	call	__snprintf_chk@PLT
	movl	4(%rbx), %eax
	leaq	.LC5(%rip), %rdx
	movq	%r13, %rdi
	movl	%eax, 80(%rsp)
	movq	40(%rsp), %rcx
	addq	$32, %rsp
	.cfi_def_cfa_offset 272
	movq	24(%rsp), %rsi
	call	_ZN7openpal6Logger3LogERKNS_10LogFiltersEPKcS5_@PLT
	cmpb	$0, (%rbx)
	je	.L134
	jmp	.L147
.L148:
	call	__stack_chk_fail@PLT
	.cfi_endproc
.LFE2375:
	.size	_ZN8opendnp311CountParser11ParseHeaderERN7openpal6RSliceERKNS_9NumParserERKNS_14ParserSettingsERKNS_12HeaderRecordEPNS1_6LoggerEPNS_12IAPDUHandlerE, .-_ZN8opendnp311CountParser11ParseHeaderERN7openpal6RSliceERKNS_9NumParserERKNS_14ParserSettingsERKNS_12HeaderRecordEPNS1_6LoggerEPNS_12IAPDUHandlerE
	.weak	_ZTSN8opendnp311ICollectionINS_11Group50Var1EEE
	.section	.rodata._ZTSN8opendnp311ICollectionINS_11Group50Var1EEE,"aG",@progbits,_ZTSN8opendnp311ICollectionINS_11Group50Var1EEE,comdat
	.align 32
	.type	_ZTSN8opendnp311ICollectionINS_11Group50Var1EEE, @object
	.size	_ZTSN8opendnp311ICollectionINS_11Group50Var1EEE, 44
_ZTSN8opendnp311ICollectionINS_11Group50Var1EEE:
	.string	"N8opendnp311ICollectionINS_11Group50Var1EEE"
	.weak	_ZTIN8opendnp311ICollectionINS_11Group50Var1EEE
	.section	.data.rel.ro._ZTIN8opendnp311ICollectionINS_11Group50Var1EEE,"awG",@progbits,_ZTIN8opendnp311ICollectionINS_11Group50Var1EEE,comdat
	.align 8
	.type	_ZTIN8opendnp311ICollectionINS_11Group50Var1EEE, @object
	.size	_ZTIN8opendnp311ICollectionINS_11Group50Var1EEE, 16
_ZTIN8opendnp311ICollectionINS_11Group50Var1EEE:
	.quad	_ZTVN10__cxxabiv117__class_type_infoE+16
	.quad	_ZTSN8opendnp311ICollectionINS_11Group50Var1EEE
	.weak	_ZTSN8opendnp318BufferedCollectionINS_11Group50Var1EZNS_11CountParser13InvokeCountOfIS1_EEvRKNS_12HeaderRecordEtRKN7openpal6RSliceERNS_12IAPDUHandlerEEUlRS8_jE_EE
	.section	.rodata._ZTSN8opendnp318BufferedCollectionINS_11Group50Var1EZNS_11CountParser13InvokeCountOfIS1_EEvRKNS_12HeaderRecordEtRKN7openpal6RSliceERNS_12IAPDUHandlerEEUlRS8_jE_EE,"aG",@progbits,_ZTSN8opendnp318BufferedCollectionINS_11Group50Var1EZNS_11CountParser13InvokeCountOfIS1_EEvRKNS_12HeaderRecordEtRKN7openpal6RSliceERNS_12IAPDUHandlerEEUlRS8_jE_EE,comdat
	.align 32
	.type	_ZTSN8opendnp318BufferedCollectionINS_11Group50Var1EZNS_11CountParser13InvokeCountOfIS1_EEvRKNS_12HeaderRecordEtRKN7openpal6RSliceERNS_12IAPDUHandlerEEUlRS8_jE_EE, @object
	.size	_ZTSN8opendnp318BufferedCollectionINS_11Group50Var1EZNS_11CountParser13InvokeCountOfIS1_EEvRKNS_12HeaderRecordEtRKN7openpal6RSliceERNS_12IAPDUHandlerEEUlRS8_jE_EE, 159
_ZTSN8opendnp318BufferedCollectionINS_11Group50Var1EZNS_11CountParser13InvokeCountOfIS1_EEvRKNS_12HeaderRecordEtRKN7openpal6RSliceERNS_12IAPDUHandlerEEUlRS8_jE_EE:
	.string	"N8opendnp318BufferedCollectionINS_11Group50Var1EZNS_11CountParser13InvokeCountOfIS1_EEvRKNS_12HeaderRecordEtRKN7openpal6RSliceERNS_12IAPDUHandlerEEUlRS8_jE_EE"
	.weak	_ZTIN8opendnp318BufferedCollectionINS_11Group50Var1EZNS_11CountParser13InvokeCountOfIS1_EEvRKNS_12HeaderRecordEtRKN7openpal6RSliceERNS_12IAPDUHandlerEEUlRS8_jE_EE
	.section	.data.rel.ro._ZTIN8opendnp318BufferedCollectionINS_11Group50Var1EZNS_11CountParser13InvokeCountOfIS1_EEvRKNS_12HeaderRecordEtRKN7openpal6RSliceERNS_12IAPDUHandlerEEUlRS8_jE_EE,"awG",@progbits,_ZTIN8opendnp318BufferedCollectionINS_11Group50Var1EZNS_11CountParser13InvokeCountOfIS1_EEvRKNS_12HeaderRecordEtRKN7openpal6RSliceERNS_12IAPDUHandlerEEUlRS8_jE_EE,comdat
	.align 8
	.type	_ZTIN8opendnp318BufferedCollectionINS_11Group50Var1EZNS_11CountParser13InvokeCountOfIS1_EEvRKNS_12HeaderRecordEtRKN7openpal6RSliceERNS_12IAPDUHandlerEEUlRS8_jE_EE, @object
	.size	_ZTIN8opendnp318BufferedCollectionINS_11Group50Var1EZNS_11CountParser13InvokeCountOfIS1_EEvRKNS_12HeaderRecordEtRKN7openpal6RSliceERNS_12IAPDUHandlerEEUlRS8_jE_EE, 24
_ZTIN8opendnp318BufferedCollectionINS_11Group50Var1EZNS_11CountParser13InvokeCountOfIS1_EEvRKNS_12HeaderRecordEtRKN7openpal6RSliceERNS_12IAPDUHandlerEEUlRS8_jE_EE:
	.quad	_ZTVN10__cxxabiv120__si_class_type_infoE+16
	.quad	_ZTSN8opendnp318BufferedCollectionINS_11Group50Var1EZNS_11CountParser13InvokeCountOfIS1_EEvRKNS_12HeaderRecordEtRKN7openpal6RSliceERNS_12IAPDUHandlerEEUlRS8_jE_EE
	.quad	_ZTIN8opendnp311ICollectionINS_11Group50Var1EEE
	.weak	_ZTSN8opendnp311ICollectionINS_12Group120Var4EEE
	.section	.rodata._ZTSN8opendnp311ICollectionINS_12Group120Var4EEE,"aG",@progbits,_ZTSN8opendnp311ICollectionINS_12Group120Var4EEE,comdat
	.align 32
	.type	_ZTSN8opendnp311ICollectionINS_12Group120Var4EEE, @object
	.size	_ZTSN8opendnp311ICollectionINS_12Group120Var4EEE, 45
_ZTSN8opendnp311ICollectionINS_12Group120Var4EEE:
	.string	"N8opendnp311ICollectionINS_12Group120Var4EEE"
	.weak	_ZTIN8opendnp311ICollectionINS_12Group120Var4EEE
	.section	.data.rel.ro._ZTIN8opendnp311ICollectionINS_12Group120Var4EEE,"awG",@progbits,_ZTIN8opendnp311ICollectionINS_12Group120Var4EEE,comdat
	.align 8
	.type	_ZTIN8opendnp311ICollectionINS_12Group120Var4EEE, @object
	.size	_ZTIN8opendnp311ICollectionINS_12Group120Var4EEE, 16
_ZTIN8opendnp311ICollectionINS_12Group120Var4EEE:
	.quad	_ZTVN10__cxxabiv117__class_type_infoE+16
	.quad	_ZTSN8opendnp311ICollectionINS_12Group120Var4EEE
	.weak	_ZTSN8opendnp311ICollectionINS_12Group120Var3EEE
	.section	.rodata._ZTSN8opendnp311ICollectionINS_12Group120Var3EEE,"aG",@progbits,_ZTSN8opendnp311ICollectionINS_12Group120Var3EEE,comdat
	.align 32
	.type	_ZTSN8opendnp311ICollectionINS_12Group120Var3EEE, @object
	.size	_ZTSN8opendnp311ICollectionINS_12Group120Var3EEE, 45
_ZTSN8opendnp311ICollectionINS_12Group120Var3EEE:
	.string	"N8opendnp311ICollectionINS_12Group120Var3EEE"
	.weak	_ZTIN8opendnp311ICollectionINS_12Group120Var3EEE
	.section	.data.rel.ro._ZTIN8opendnp311ICollectionINS_12Group120Var3EEE,"awG",@progbits,_ZTIN8opendnp311ICollectionINS_12Group120Var3EEE,comdat
	.align 8
	.type	_ZTIN8opendnp311ICollectionINS_12Group120Var3EEE, @object
	.size	_ZTIN8opendnp311ICollectionINS_12Group120Var3EEE, 16
_ZTIN8opendnp311ICollectionINS_12Group120Var3EEE:
	.quad	_ZTVN10__cxxabiv117__class_type_infoE+16
	.quad	_ZTSN8opendnp311ICollectionINS_12Group120Var3EEE
	.weak	_ZTSN8opendnp311ICollectionINS_11Group52Var2EEE
	.section	.rodata._ZTSN8opendnp311ICollectionINS_11Group52Var2EEE,"aG",@progbits,_ZTSN8opendnp311ICollectionINS_11Group52Var2EEE,comdat
	.align 32
	.type	_ZTSN8opendnp311ICollectionINS_11Group52Var2EEE, @object
	.size	_ZTSN8opendnp311ICollectionINS_11Group52Var2EEE, 44
_ZTSN8opendnp311ICollectionINS_11Group52Var2EEE:
	.string	"N8opendnp311ICollectionINS_11Group52Var2EEE"
	.weak	_ZTIN8opendnp311ICollectionINS_11Group52Var2EEE
	.section	.data.rel.ro._ZTIN8opendnp311ICollectionINS_11Group52Var2EEE,"awG",@progbits,_ZTIN8opendnp311ICollectionINS_11Group52Var2EEE,comdat
	.align 8
	.type	_ZTIN8opendnp311ICollectionINS_11Group52Var2EEE, @object
	.size	_ZTIN8opendnp311ICollectionINS_11Group52Var2EEE, 16
_ZTIN8opendnp311ICollectionINS_11Group52Var2EEE:
	.quad	_ZTVN10__cxxabiv117__class_type_infoE+16
	.quad	_ZTSN8opendnp311ICollectionINS_11Group52Var2EEE
	.weak	_ZTSN8opendnp311ICollectionINS_11Group52Var1EEE
	.section	.rodata._ZTSN8opendnp311ICollectionINS_11Group52Var1EEE,"aG",@progbits,_ZTSN8opendnp311ICollectionINS_11Group52Var1EEE,comdat
	.align 32
	.type	_ZTSN8opendnp311ICollectionINS_11Group52Var1EEE, @object
	.size	_ZTSN8opendnp311ICollectionINS_11Group52Var1EEE, 44
_ZTSN8opendnp311ICollectionINS_11Group52Var1EEE:
	.string	"N8opendnp311ICollectionINS_11Group52Var1EEE"
	.weak	_ZTIN8opendnp311ICollectionINS_11Group52Var1EEE
	.section	.data.rel.ro._ZTIN8opendnp311ICollectionINS_11Group52Var1EEE,"awG",@progbits,_ZTIN8opendnp311ICollectionINS_11Group52Var1EEE,comdat
	.align 8
	.type	_ZTIN8opendnp311ICollectionINS_11Group52Var1EEE, @object
	.size	_ZTIN8opendnp311ICollectionINS_11Group52Var1EEE, 16
_ZTIN8opendnp311ICollectionINS_11Group52Var1EEE:
	.quad	_ZTVN10__cxxabiv117__class_type_infoE+16
	.quad	_ZTSN8opendnp311ICollectionINS_11Group52Var1EEE
	.weak	_ZTSN8opendnp311ICollectionINS_11Group51Var2EEE
	.section	.rodata._ZTSN8opendnp311ICollectionINS_11Group51Var2EEE,"aG",@progbits,_ZTSN8opendnp311ICollectionINS_11Group51Var2EEE,comdat
	.align 32
	.type	_ZTSN8opendnp311ICollectionINS_11Group51Var2EEE, @object
	.size	_ZTSN8opendnp311ICollectionINS_11Group51Var2EEE, 44
_ZTSN8opendnp311ICollectionINS_11Group51Var2EEE:
	.string	"N8opendnp311ICollectionINS_11Group51Var2EEE"
	.weak	_ZTIN8opendnp311ICollectionINS_11Group51Var2EEE
	.section	.data.rel.ro._ZTIN8opendnp311ICollectionINS_11Group51Var2EEE,"awG",@progbits,_ZTIN8opendnp311ICollectionINS_11Group51Var2EEE,comdat
	.align 8
	.type	_ZTIN8opendnp311ICollectionINS_11Group51Var2EEE, @object
	.size	_ZTIN8opendnp311ICollectionINS_11Group51Var2EEE, 16
_ZTIN8opendnp311ICollectionINS_11Group51Var2EEE:
	.quad	_ZTVN10__cxxabiv117__class_type_infoE+16
	.quad	_ZTSN8opendnp311ICollectionINS_11Group51Var2EEE
	.weak	_ZTSN8opendnp311ICollectionINS_11Group51Var1EEE
	.section	.rodata._ZTSN8opendnp311ICollectionINS_11Group51Var1EEE,"aG",@progbits,_ZTSN8opendnp311ICollectionINS_11Group51Var1EEE,comdat
	.align 32
	.type	_ZTSN8opendnp311ICollectionINS_11Group51Var1EEE, @object
	.size	_ZTSN8opendnp311ICollectionINS_11Group51Var1EEE, 44
_ZTSN8opendnp311ICollectionINS_11Group51Var1EEE:
	.string	"N8opendnp311ICollectionINS_11Group51Var1EEE"
	.weak	_ZTIN8opendnp311ICollectionINS_11Group51Var1EEE
	.section	.data.rel.ro._ZTIN8opendnp311ICollectionINS_11Group51Var1EEE,"awG",@progbits,_ZTIN8opendnp311ICollectionINS_11Group51Var1EEE,comdat
	.align 8
	.type	_ZTIN8opendnp311ICollectionINS_11Group51Var1EEE, @object
	.size	_ZTIN8opendnp311ICollectionINS_11Group51Var1EEE, 16
_ZTIN8opendnp311ICollectionINS_11Group51Var1EEE:
	.quad	_ZTVN10__cxxabiv117__class_type_infoE+16
	.quad	_ZTSN8opendnp311ICollectionINS_11Group51Var1EEE
	.weak	_ZTSN8opendnp318BufferedCollectionINS_11Group51Var1EZNS_11CountParser13InvokeCountOfIS1_EEvRKNS_12HeaderRecordEtRKN7openpal6RSliceERNS_12IAPDUHandlerEEUlRS8_jE_EE
	.section	.rodata._ZTSN8opendnp318BufferedCollectionINS_11Group51Var1EZNS_11CountParser13InvokeCountOfIS1_EEvRKNS_12HeaderRecordEtRKN7openpal6RSliceERNS_12IAPDUHandlerEEUlRS8_jE_EE,"aG",@progbits,_ZTSN8opendnp318BufferedCollectionINS_11Group51Var1EZNS_11CountParser13InvokeCountOfIS1_EEvRKNS_12HeaderRecordEtRKN7openpal6RSliceERNS_12IAPDUHandlerEEUlRS8_jE_EE,comdat
	.align 32
	.type	_ZTSN8opendnp318BufferedCollectionINS_11Group51Var1EZNS_11CountParser13InvokeCountOfIS1_EEvRKNS_12HeaderRecordEtRKN7openpal6RSliceERNS_12IAPDUHandlerEEUlRS8_jE_EE, @object
	.size	_ZTSN8opendnp318BufferedCollectionINS_11Group51Var1EZNS_11CountParser13InvokeCountOfIS1_EEvRKNS_12HeaderRecordEtRKN7openpal6RSliceERNS_12IAPDUHandlerEEUlRS8_jE_EE, 159
_ZTSN8opendnp318BufferedCollectionINS_11Group51Var1EZNS_11CountParser13InvokeCountOfIS1_EEvRKNS_12HeaderRecordEtRKN7openpal6RSliceERNS_12IAPDUHandlerEEUlRS8_jE_EE:
	.string	"N8opendnp318BufferedCollectionINS_11Group51Var1EZNS_11CountParser13InvokeCountOfIS1_EEvRKNS_12HeaderRecordEtRKN7openpal6RSliceERNS_12IAPDUHandlerEEUlRS8_jE_EE"
	.weak	_ZTIN8opendnp318BufferedCollectionINS_11Group51Var1EZNS_11CountParser13InvokeCountOfIS1_EEvRKNS_12HeaderRecordEtRKN7openpal6RSliceERNS_12IAPDUHandlerEEUlRS8_jE_EE
	.section	.data.rel.ro._ZTIN8opendnp318BufferedCollectionINS_11Group51Var1EZNS_11CountParser13InvokeCountOfIS1_EEvRKNS_12HeaderRecordEtRKN7openpal6RSliceERNS_12IAPDUHandlerEEUlRS8_jE_EE,"awG",@progbits,_ZTIN8opendnp318BufferedCollectionINS_11Group51Var1EZNS_11CountParser13InvokeCountOfIS1_EEvRKNS_12HeaderRecordEtRKN7openpal6RSliceERNS_12IAPDUHandlerEEUlRS8_jE_EE,comdat
	.align 8
	.type	_ZTIN8opendnp318BufferedCollectionINS_11Group51Var1EZNS_11CountParser13InvokeCountOfIS1_EEvRKNS_12HeaderRecordEtRKN7openpal6RSliceERNS_12IAPDUHandlerEEUlRS8_jE_EE, @object
	.size	_ZTIN8opendnp318BufferedCollectionINS_11Group51Var1EZNS_11CountParser13InvokeCountOfIS1_EEvRKNS_12HeaderRecordEtRKN7openpal6RSliceERNS_12IAPDUHandlerEEUlRS8_jE_EE, 24
_ZTIN8opendnp318BufferedCollectionINS_11Group51Var1EZNS_11CountParser13InvokeCountOfIS1_EEvRKNS_12HeaderRecordEtRKN7openpal6RSliceERNS_12IAPDUHandlerEEUlRS8_jE_EE:
	.quad	_ZTVN10__cxxabiv120__si_class_type_infoE+16
	.quad	_ZTSN8opendnp318BufferedCollectionINS_11Group51Var1EZNS_11CountParser13InvokeCountOfIS1_EEvRKNS_12HeaderRecordEtRKN7openpal6RSliceERNS_12IAPDUHandlerEEUlRS8_jE_EE
	.quad	_ZTIN8opendnp311ICollectionINS_11Group51Var1EEE
	.weak	_ZTSN8opendnp318BufferedCollectionINS_11Group51Var2EZNS_11CountParser13InvokeCountOfIS1_EEvRKNS_12HeaderRecordEtRKN7openpal6RSliceERNS_12IAPDUHandlerEEUlRS8_jE_EE
	.section	.rodata._ZTSN8opendnp318BufferedCollectionINS_11Group51Var2EZNS_11CountParser13InvokeCountOfIS1_EEvRKNS_12HeaderRecordEtRKN7openpal6RSliceERNS_12IAPDUHandlerEEUlRS8_jE_EE,"aG",@progbits,_ZTSN8opendnp318BufferedCollectionINS_11Group51Var2EZNS_11CountParser13InvokeCountOfIS1_EEvRKNS_12HeaderRecordEtRKN7openpal6RSliceERNS_12IAPDUHandlerEEUlRS8_jE_EE,comdat
	.align 32
	.type	_ZTSN8opendnp318BufferedCollectionINS_11Group51Var2EZNS_11CountParser13InvokeCountOfIS1_EEvRKNS_12HeaderRecordEtRKN7openpal6RSliceERNS_12IAPDUHandlerEEUlRS8_jE_EE, @object
	.size	_ZTSN8opendnp318BufferedCollectionINS_11Group51Var2EZNS_11CountParser13InvokeCountOfIS1_EEvRKNS_12HeaderRecordEtRKN7openpal6RSliceERNS_12IAPDUHandlerEEUlRS8_jE_EE, 159
_ZTSN8opendnp318BufferedCollectionINS_11Group51Var2EZNS_11CountParser13InvokeCountOfIS1_EEvRKNS_12HeaderRecordEtRKN7openpal6RSliceERNS_12IAPDUHandlerEEUlRS8_jE_EE:
	.string	"N8opendnp318BufferedCollectionINS_11Group51Var2EZNS_11CountParser13InvokeCountOfIS1_EEvRKNS_12HeaderRecordEtRKN7openpal6RSliceERNS_12IAPDUHandlerEEUlRS8_jE_EE"
	.weak	_ZTIN8opendnp318BufferedCollectionINS_11Group51Var2EZNS_11CountParser13InvokeCountOfIS1_EEvRKNS_12HeaderRecordEtRKN7openpal6RSliceERNS_12IAPDUHandlerEEUlRS8_jE_EE
	.section	.data.rel.ro._ZTIN8opendnp318BufferedCollectionINS_11Group51Var2EZNS_11CountParser13InvokeCountOfIS1_EEvRKNS_12HeaderRecordEtRKN7openpal6RSliceERNS_12IAPDUHandlerEEUlRS8_jE_EE,"awG",@progbits,_ZTIN8opendnp318BufferedCollectionINS_11Group51Var2EZNS_11CountParser13InvokeCountOfIS1_EEvRKNS_12HeaderRecordEtRKN7openpal6RSliceERNS_12IAPDUHandlerEEUlRS8_jE_EE,comdat
	.align 8
	.type	_ZTIN8opendnp318BufferedCollectionINS_11Group51Var2EZNS_11CountParser13InvokeCountOfIS1_EEvRKNS_12HeaderRecordEtRKN7openpal6RSliceERNS_12IAPDUHandlerEEUlRS8_jE_EE, @object
	.size	_ZTIN8opendnp318BufferedCollectionINS_11Group51Var2EZNS_11CountParser13InvokeCountOfIS1_EEvRKNS_12HeaderRecordEtRKN7openpal6RSliceERNS_12IAPDUHandlerEEUlRS8_jE_EE, 24
_ZTIN8opendnp318BufferedCollectionINS_11Group51Var2EZNS_11CountParser13InvokeCountOfIS1_EEvRKNS_12HeaderRecordEtRKN7openpal6RSliceERNS_12IAPDUHandlerEEUlRS8_jE_EE:
	.quad	_ZTVN10__cxxabiv120__si_class_type_infoE+16
	.quad	_ZTSN8opendnp318BufferedCollectionINS_11Group51Var2EZNS_11CountParser13InvokeCountOfIS1_EEvRKNS_12HeaderRecordEtRKN7openpal6RSliceERNS_12IAPDUHandlerEEUlRS8_jE_EE
	.quad	_ZTIN8opendnp311ICollectionINS_11Group51Var2EEE
	.weak	_ZTSN8opendnp318BufferedCollectionINS_11Group52Var1EZNS_11CountParser13InvokeCountOfIS1_EEvRKNS_12HeaderRecordEtRKN7openpal6RSliceERNS_12IAPDUHandlerEEUlRS8_jE_EE
	.section	.rodata._ZTSN8opendnp318BufferedCollectionINS_11Group52Var1EZNS_11CountParser13InvokeCountOfIS1_EEvRKNS_12HeaderRecordEtRKN7openpal6RSliceERNS_12IAPDUHandlerEEUlRS8_jE_EE,"aG",@progbits,_ZTSN8opendnp318BufferedCollectionINS_11Group52Var1EZNS_11CountParser13InvokeCountOfIS1_EEvRKNS_12HeaderRecordEtRKN7openpal6RSliceERNS_12IAPDUHandlerEEUlRS8_jE_EE,comdat
	.align 32
	.type	_ZTSN8opendnp318BufferedCollectionINS_11Group52Var1EZNS_11CountParser13InvokeCountOfIS1_EEvRKNS_12HeaderRecordEtRKN7openpal6RSliceERNS_12IAPDUHandlerEEUlRS8_jE_EE, @object
	.size	_ZTSN8opendnp318BufferedCollectionINS_11Group52Var1EZNS_11CountParser13InvokeCountOfIS1_EEvRKNS_12HeaderRecordEtRKN7openpal6RSliceERNS_12IAPDUHandlerEEUlRS8_jE_EE, 159
_ZTSN8opendnp318BufferedCollectionINS_11Group52Var1EZNS_11CountParser13InvokeCountOfIS1_EEvRKNS_12HeaderRecordEtRKN7openpal6RSliceERNS_12IAPDUHandlerEEUlRS8_jE_EE:
	.string	"N8opendnp318BufferedCollectionINS_11Group52Var1EZNS_11CountParser13InvokeCountOfIS1_EEvRKNS_12HeaderRecordEtRKN7openpal6RSliceERNS_12IAPDUHandlerEEUlRS8_jE_EE"
	.weak	_ZTIN8opendnp318BufferedCollectionINS_11Group52Var1EZNS_11CountParser13InvokeCountOfIS1_EEvRKNS_12HeaderRecordEtRKN7openpal6RSliceERNS_12IAPDUHandlerEEUlRS8_jE_EE
	.section	.data.rel.ro._ZTIN8opendnp318BufferedCollectionINS_11Group52Var1EZNS_11CountParser13InvokeCountOfIS1_EEvRKNS_12HeaderRecordEtRKN7openpal6RSliceERNS_12IAPDUHandlerEEUlRS8_jE_EE,"awG",@progbits,_ZTIN8opendnp318BufferedCollectionINS_11Group52Var1EZNS_11CountParser13InvokeCountOfIS1_EEvRKNS_12HeaderRecordEtRKN7openpal6RSliceERNS_12IAPDUHandlerEEUlRS8_jE_EE,comdat
	.align 8
	.type	_ZTIN8opendnp318BufferedCollectionINS_11Group52Var1EZNS_11CountParser13InvokeCountOfIS1_EEvRKNS_12HeaderRecordEtRKN7openpal6RSliceERNS_12IAPDUHandlerEEUlRS8_jE_EE, @object
	.size	_ZTIN8opendnp318BufferedCollectionINS_11Group52Var1EZNS_11CountParser13InvokeCountOfIS1_EEvRKNS_12HeaderRecordEtRKN7openpal6RSliceERNS_12IAPDUHandlerEEUlRS8_jE_EE, 24
_ZTIN8opendnp318BufferedCollectionINS_11Group52Var1EZNS_11CountParser13InvokeCountOfIS1_EEvRKNS_12HeaderRecordEtRKN7openpal6RSliceERNS_12IAPDUHandlerEEUlRS8_jE_EE:
	.quad	_ZTVN10__cxxabiv120__si_class_type_infoE+16
	.quad	_ZTSN8opendnp318BufferedCollectionINS_11Group52Var1EZNS_11CountParser13InvokeCountOfIS1_EEvRKNS_12HeaderRecordEtRKN7openpal6RSliceERNS_12IAPDUHandlerEEUlRS8_jE_EE
	.quad	_ZTIN8opendnp311ICollectionINS_11Group52Var1EEE
	.weak	_ZTSN8opendnp318BufferedCollectionINS_11Group52Var2EZNS_11CountParser13InvokeCountOfIS1_EEvRKNS_12HeaderRecordEtRKN7openpal6RSliceERNS_12IAPDUHandlerEEUlRS8_jE_EE
	.section	.rodata._ZTSN8opendnp318BufferedCollectionINS_11Group52Var2EZNS_11CountParser13InvokeCountOfIS1_EEvRKNS_12HeaderRecordEtRKN7openpal6RSliceERNS_12IAPDUHandlerEEUlRS8_jE_EE,"aG",@progbits,_ZTSN8opendnp318BufferedCollectionINS_11Group52Var2EZNS_11CountParser13InvokeCountOfIS1_EEvRKNS_12HeaderRecordEtRKN7openpal6RSliceERNS_12IAPDUHandlerEEUlRS8_jE_EE,comdat
	.align 32
	.type	_ZTSN8opendnp318BufferedCollectionINS_11Group52Var2EZNS_11CountParser13InvokeCountOfIS1_EEvRKNS_12HeaderRecordEtRKN7openpal6RSliceERNS_12IAPDUHandlerEEUlRS8_jE_EE, @object
	.size	_ZTSN8opendnp318BufferedCollectionINS_11Group52Var2EZNS_11CountParser13InvokeCountOfIS1_EEvRKNS_12HeaderRecordEtRKN7openpal6RSliceERNS_12IAPDUHandlerEEUlRS8_jE_EE, 159
_ZTSN8opendnp318BufferedCollectionINS_11Group52Var2EZNS_11CountParser13InvokeCountOfIS1_EEvRKNS_12HeaderRecordEtRKN7openpal6RSliceERNS_12IAPDUHandlerEEUlRS8_jE_EE:
	.string	"N8opendnp318BufferedCollectionINS_11Group52Var2EZNS_11CountParser13InvokeCountOfIS1_EEvRKNS_12HeaderRecordEtRKN7openpal6RSliceERNS_12IAPDUHandlerEEUlRS8_jE_EE"
	.weak	_ZTIN8opendnp318BufferedCollectionINS_11Group52Var2EZNS_11CountParser13InvokeCountOfIS1_EEvRKNS_12HeaderRecordEtRKN7openpal6RSliceERNS_12IAPDUHandlerEEUlRS8_jE_EE
	.section	.data.rel.ro._ZTIN8opendnp318BufferedCollectionINS_11Group52Var2EZNS_11CountParser13InvokeCountOfIS1_EEvRKNS_12HeaderRecordEtRKN7openpal6RSliceERNS_12IAPDUHandlerEEUlRS8_jE_EE,"awG",@progbits,_ZTIN8opendnp318BufferedCollectionINS_11Group52Var2EZNS_11CountParser13InvokeCountOfIS1_EEvRKNS_12HeaderRecordEtRKN7openpal6RSliceERNS_12IAPDUHandlerEEUlRS8_jE_EE,comdat
	.align 8
	.type	_ZTIN8opendnp318BufferedCollectionINS_11Group52Var2EZNS_11CountParser13InvokeCountOfIS1_EEvRKNS_12HeaderRecordEtRKN7openpal6RSliceERNS_12IAPDUHandlerEEUlRS8_jE_EE, @object
	.size	_ZTIN8opendnp318BufferedCollectionINS_11Group52Var2EZNS_11CountParser13InvokeCountOfIS1_EEvRKNS_12HeaderRecordEtRKN7openpal6RSliceERNS_12IAPDUHandlerEEUlRS8_jE_EE, 24
_ZTIN8opendnp318BufferedCollectionINS_11Group52Var2EZNS_11CountParser13InvokeCountOfIS1_EEvRKNS_12HeaderRecordEtRKN7openpal6RSliceERNS_12IAPDUHandlerEEUlRS8_jE_EE:
	.quad	_ZTVN10__cxxabiv120__si_class_type_infoE+16
	.quad	_ZTSN8opendnp318BufferedCollectionINS_11Group52Var2EZNS_11CountParser13InvokeCountOfIS1_EEvRKNS_12HeaderRecordEtRKN7openpal6RSliceERNS_12IAPDUHandlerEEUlRS8_jE_EE
	.quad	_ZTIN8opendnp311ICollectionINS_11Group52Var2EEE
	.weak	_ZTSN8opendnp318BufferedCollectionINS_12Group120Var3EZNS_11CountParser13InvokeCountOfIS1_EEvRKNS_12HeaderRecordEtRKN7openpal6RSliceERNS_12IAPDUHandlerEEUlRS8_jE_EE
	.section	.rodata._ZTSN8opendnp318BufferedCollectionINS_12Group120Var3EZNS_11CountParser13InvokeCountOfIS1_EEvRKNS_12HeaderRecordEtRKN7openpal6RSliceERNS_12IAPDUHandlerEEUlRS8_jE_EE,"aG",@progbits,_ZTSN8opendnp318BufferedCollectionINS_12Group120Var3EZNS_11CountParser13InvokeCountOfIS1_EEvRKNS_12HeaderRecordEtRKN7openpal6RSliceERNS_12IAPDUHandlerEEUlRS8_jE_EE,comdat
	.align 32
	.type	_ZTSN8opendnp318BufferedCollectionINS_12Group120Var3EZNS_11CountParser13InvokeCountOfIS1_EEvRKNS_12HeaderRecordEtRKN7openpal6RSliceERNS_12IAPDUHandlerEEUlRS8_jE_EE, @object
	.size	_ZTSN8opendnp318BufferedCollectionINS_12Group120Var3EZNS_11CountParser13InvokeCountOfIS1_EEvRKNS_12HeaderRecordEtRKN7openpal6RSliceERNS_12IAPDUHandlerEEUlRS8_jE_EE, 160
_ZTSN8opendnp318BufferedCollectionINS_12Group120Var3EZNS_11CountParser13InvokeCountOfIS1_EEvRKNS_12HeaderRecordEtRKN7openpal6RSliceERNS_12IAPDUHandlerEEUlRS8_jE_EE:
	.string	"N8opendnp318BufferedCollectionINS_12Group120Var3EZNS_11CountParser13InvokeCountOfIS1_EEvRKNS_12HeaderRecordEtRKN7openpal6RSliceERNS_12IAPDUHandlerEEUlRS8_jE_EE"
	.weak	_ZTIN8opendnp318BufferedCollectionINS_12Group120Var3EZNS_11CountParser13InvokeCountOfIS1_EEvRKNS_12HeaderRecordEtRKN7openpal6RSliceERNS_12IAPDUHandlerEEUlRS8_jE_EE
	.section	.data.rel.ro._ZTIN8opendnp318BufferedCollectionINS_12Group120Var3EZNS_11CountParser13InvokeCountOfIS1_EEvRKNS_12HeaderRecordEtRKN7openpal6RSliceERNS_12IAPDUHandlerEEUlRS8_jE_EE,"awG",@progbits,_ZTIN8opendnp318BufferedCollectionINS_12Group120Var3EZNS_11CountParser13InvokeCountOfIS1_EEvRKNS_12HeaderRecordEtRKN7openpal6RSliceERNS_12IAPDUHandlerEEUlRS8_jE_EE,comdat
	.align 8
	.type	_ZTIN8opendnp318BufferedCollectionINS_12Group120Var3EZNS_11CountParser13InvokeCountOfIS1_EEvRKNS_12HeaderRecordEtRKN7openpal6RSliceERNS_12IAPDUHandlerEEUlRS8_jE_EE, @object
	.size	_ZTIN8opendnp318BufferedCollectionINS_12Group120Var3EZNS_11CountParser13InvokeCountOfIS1_EEvRKNS_12HeaderRecordEtRKN7openpal6RSliceERNS_12IAPDUHandlerEEUlRS8_jE_EE, 24
_ZTIN8opendnp318BufferedCollectionINS_12Group120Var3EZNS_11CountParser13InvokeCountOfIS1_EEvRKNS_12HeaderRecordEtRKN7openpal6RSliceERNS_12IAPDUHandlerEEUlRS8_jE_EE:
	.quad	_ZTVN10__cxxabiv120__si_class_type_infoE+16
	.quad	_ZTSN8opendnp318BufferedCollectionINS_12Group120Var3EZNS_11CountParser13InvokeCountOfIS1_EEvRKNS_12HeaderRecordEtRKN7openpal6RSliceERNS_12IAPDUHandlerEEUlRS8_jE_EE
	.quad	_ZTIN8opendnp311ICollectionINS_12Group120Var3EEE
	.weak	_ZTSN8opendnp318BufferedCollectionINS_12Group120Var4EZNS_11CountParser13InvokeCountOfIS1_EEvRKNS_12HeaderRecordEtRKN7openpal6RSliceERNS_12IAPDUHandlerEEUlRS8_jE_EE
	.section	.rodata._ZTSN8opendnp318BufferedCollectionINS_12Group120Var4EZNS_11CountParser13InvokeCountOfIS1_EEvRKNS_12HeaderRecordEtRKN7openpal6RSliceERNS_12IAPDUHandlerEEUlRS8_jE_EE,"aG",@progbits,_ZTSN8opendnp318BufferedCollectionINS_12Group120Var4EZNS_11CountParser13InvokeCountOfIS1_EEvRKNS_12HeaderRecordEtRKN7openpal6RSliceERNS_12IAPDUHandlerEEUlRS8_jE_EE,comdat
	.align 32
	.type	_ZTSN8opendnp318BufferedCollectionINS_12Group120Var4EZNS_11CountParser13InvokeCountOfIS1_EEvRKNS_12HeaderRecordEtRKN7openpal6RSliceERNS_12IAPDUHandlerEEUlRS8_jE_EE, @object
	.size	_ZTSN8opendnp318BufferedCollectionINS_12Group120Var4EZNS_11CountParser13InvokeCountOfIS1_EEvRKNS_12HeaderRecordEtRKN7openpal6RSliceERNS_12IAPDUHandlerEEUlRS8_jE_EE, 160
_ZTSN8opendnp318BufferedCollectionINS_12Group120Var4EZNS_11CountParser13InvokeCountOfIS1_EEvRKNS_12HeaderRecordEtRKN7openpal6RSliceERNS_12IAPDUHandlerEEUlRS8_jE_EE:
	.string	"N8opendnp318BufferedCollectionINS_12Group120Var4EZNS_11CountParser13InvokeCountOfIS1_EEvRKNS_12HeaderRecordEtRKN7openpal6RSliceERNS_12IAPDUHandlerEEUlRS8_jE_EE"
	.weak	_ZTIN8opendnp318BufferedCollectionINS_12Group120Var4EZNS_11CountParser13InvokeCountOfIS1_EEvRKNS_12HeaderRecordEtRKN7openpal6RSliceERNS_12IAPDUHandlerEEUlRS8_jE_EE
	.section	.data.rel.ro._ZTIN8opendnp318BufferedCollectionINS_12Group120Var4EZNS_11CountParser13InvokeCountOfIS1_EEvRKNS_12HeaderRecordEtRKN7openpal6RSliceERNS_12IAPDUHandlerEEUlRS8_jE_EE,"awG",@progbits,_ZTIN8opendnp318BufferedCollectionINS_12Group120Var4EZNS_11CountParser13InvokeCountOfIS1_EEvRKNS_12HeaderRecordEtRKN7openpal6RSliceERNS_12IAPDUHandlerEEUlRS8_jE_EE,comdat
	.align 8
	.type	_ZTIN8opendnp318BufferedCollectionINS_12Group120Var4EZNS_11CountParser13InvokeCountOfIS1_EEvRKNS_12HeaderRecordEtRKN7openpal6RSliceERNS_12IAPDUHandlerEEUlRS8_jE_EE, @object
	.size	_ZTIN8opendnp318BufferedCollectionINS_12Group120Var4EZNS_11CountParser13InvokeCountOfIS1_EEvRKNS_12HeaderRecordEtRKN7openpal6RSliceERNS_12IAPDUHandlerEEUlRS8_jE_EE, 24
_ZTIN8opendnp318BufferedCollectionINS_12Group120Var4EZNS_11CountParser13InvokeCountOfIS1_EEvRKNS_12HeaderRecordEtRKN7openpal6RSliceERNS_12IAPDUHandlerEEUlRS8_jE_EE:
	.quad	_ZTVN10__cxxabiv120__si_class_type_infoE+16
	.quad	_ZTSN8opendnp318BufferedCollectionINS_12Group120Var4EZNS_11CountParser13InvokeCountOfIS1_EEvRKNS_12HeaderRecordEtRKN7openpal6RSliceERNS_12IAPDUHandlerEEUlRS8_jE_EE
	.quad	_ZTIN8opendnp311ICollectionINS_12Group120Var4EEE
	.weak	_ZTVN8opendnp318BufferedCollectionINS_11Group50Var1EZNS_11CountParser13InvokeCountOfIS1_EEvRKNS_12HeaderRecordEtRKN7openpal6RSliceERNS_12IAPDUHandlerEEUlRS8_jE_EE
	.section	.data.rel.ro._ZTVN8opendnp318BufferedCollectionINS_11Group50Var1EZNS_11CountParser13InvokeCountOfIS1_EEvRKNS_12HeaderRecordEtRKN7openpal6RSliceERNS_12IAPDUHandlerEEUlRS8_jE_EE,"awG",@progbits,_ZTVN8opendnp318BufferedCollectionINS_11Group50Var1EZNS_11CountParser13InvokeCountOfIS1_EEvRKNS_12HeaderRecordEtRKN7openpal6RSliceERNS_12IAPDUHandlerEEUlRS8_jE_EE,comdat
	.align 8
	.type	_ZTVN8opendnp318BufferedCollectionINS_11Group50Var1EZNS_11CountParser13InvokeCountOfIS1_EEvRKNS_12HeaderRecordEtRKN7openpal6RSliceERNS_12IAPDUHandlerEEUlRS8_jE_EE, @object
	.size	_ZTVN8opendnp318BufferedCollectionINS_11Group50Var1EZNS_11CountParser13InvokeCountOfIS1_EEvRKNS_12HeaderRecordEtRKN7openpal6RSliceERNS_12IAPDUHandlerEEUlRS8_jE_EE, 32
_ZTVN8opendnp318BufferedCollectionINS_11Group50Var1EZNS_11CountParser13InvokeCountOfIS1_EEvRKNS_12HeaderRecordEtRKN7openpal6RSliceERNS_12IAPDUHandlerEEUlRS8_jE_EE:
	.quad	0
	.quad	_ZTIN8opendnp318BufferedCollectionINS_11Group50Var1EZNS_11CountParser13InvokeCountOfIS1_EEvRKNS_12HeaderRecordEtRKN7openpal6RSliceERNS_12IAPDUHandlerEEUlRS8_jE_EE
	.quad	_ZNK8opendnp318BufferedCollectionINS_11Group50Var1EZNS_11CountParser13InvokeCountOfIS1_EEvRKNS_12HeaderRecordEtRKN7openpal6RSliceERNS_12IAPDUHandlerEEUlRS8_jE_E5CountEv
	.quad	_ZNK8opendnp318BufferedCollectionINS_11Group50Var1EZNS_11CountParser13InvokeCountOfIS1_EEvRKNS_12HeaderRecordEtRKN7openpal6RSliceERNS_12IAPDUHandlerEEUlRS8_jE_E7ForeachERNS_8IVisitorIS1_EE
	.weak	_ZTVN8opendnp318BufferedCollectionINS_11Group51Var1EZNS_11CountParser13InvokeCountOfIS1_EEvRKNS_12HeaderRecordEtRKN7openpal6RSliceERNS_12IAPDUHandlerEEUlRS8_jE_EE
	.section	.data.rel.ro._ZTVN8opendnp318BufferedCollectionINS_11Group51Var1EZNS_11CountParser13InvokeCountOfIS1_EEvRKNS_12HeaderRecordEtRKN7openpal6RSliceERNS_12IAPDUHandlerEEUlRS8_jE_EE,"awG",@progbits,_ZTVN8opendnp318BufferedCollectionINS_11Group51Var1EZNS_11CountParser13InvokeCountOfIS1_EEvRKNS_12HeaderRecordEtRKN7openpal6RSliceERNS_12IAPDUHandlerEEUlRS8_jE_EE,comdat
	.align 8
	.type	_ZTVN8opendnp318BufferedCollectionINS_11Group51Var1EZNS_11CountParser13InvokeCountOfIS1_EEvRKNS_12HeaderRecordEtRKN7openpal6RSliceERNS_12IAPDUHandlerEEUlRS8_jE_EE, @object
	.size	_ZTVN8opendnp318BufferedCollectionINS_11Group51Var1EZNS_11CountParser13InvokeCountOfIS1_EEvRKNS_12HeaderRecordEtRKN7openpal6RSliceERNS_12IAPDUHandlerEEUlRS8_jE_EE, 32
_ZTVN8opendnp318BufferedCollectionINS_11Group51Var1EZNS_11CountParser13InvokeCountOfIS1_EEvRKNS_12HeaderRecordEtRKN7openpal6RSliceERNS_12IAPDUHandlerEEUlRS8_jE_EE:
	.quad	0
	.quad	_ZTIN8opendnp318BufferedCollectionINS_11Group51Var1EZNS_11CountParser13InvokeCountOfIS1_EEvRKNS_12HeaderRecordEtRKN7openpal6RSliceERNS_12IAPDUHandlerEEUlRS8_jE_EE
	.quad	_ZNK8opendnp318BufferedCollectionINS_11Group51Var1EZNS_11CountParser13InvokeCountOfIS1_EEvRKNS_12HeaderRecordEtRKN7openpal6RSliceERNS_12IAPDUHandlerEEUlRS8_jE_E5CountEv
	.quad	_ZNK8opendnp318BufferedCollectionINS_11Group51Var1EZNS_11CountParser13InvokeCountOfIS1_EEvRKNS_12HeaderRecordEtRKN7openpal6RSliceERNS_12IAPDUHandlerEEUlRS8_jE_E7ForeachERNS_8IVisitorIS1_EE
	.weak	_ZTVN8opendnp318BufferedCollectionINS_11Group51Var2EZNS_11CountParser13InvokeCountOfIS1_EEvRKNS_12HeaderRecordEtRKN7openpal6RSliceERNS_12IAPDUHandlerEEUlRS8_jE_EE
	.section	.data.rel.ro._ZTVN8opendnp318BufferedCollectionINS_11Group51Var2EZNS_11CountParser13InvokeCountOfIS1_EEvRKNS_12HeaderRecordEtRKN7openpal6RSliceERNS_12IAPDUHandlerEEUlRS8_jE_EE,"awG",@progbits,_ZTVN8opendnp318BufferedCollectionINS_11Group51Var2EZNS_11CountParser13InvokeCountOfIS1_EEvRKNS_12HeaderRecordEtRKN7openpal6RSliceERNS_12IAPDUHandlerEEUlRS8_jE_EE,comdat
	.align 8
	.type	_ZTVN8opendnp318BufferedCollectionINS_11Group51Var2EZNS_11CountParser13InvokeCountOfIS1_EEvRKNS_12HeaderRecordEtRKN7openpal6RSliceERNS_12IAPDUHandlerEEUlRS8_jE_EE, @object
	.size	_ZTVN8opendnp318BufferedCollectionINS_11Group51Var2EZNS_11CountParser13InvokeCountOfIS1_EEvRKNS_12HeaderRecordEtRKN7openpal6RSliceERNS_12IAPDUHandlerEEUlRS8_jE_EE, 32
_ZTVN8opendnp318BufferedCollectionINS_11Group51Var2EZNS_11CountParser13InvokeCountOfIS1_EEvRKNS_12HeaderRecordEtRKN7openpal6RSliceERNS_12IAPDUHandlerEEUlRS8_jE_EE:
	.quad	0
	.quad	_ZTIN8opendnp318BufferedCollectionINS_11Group51Var2EZNS_11CountParser13InvokeCountOfIS1_EEvRKNS_12HeaderRecordEtRKN7openpal6RSliceERNS_12IAPDUHandlerEEUlRS8_jE_EE
	.quad	_ZNK8opendnp318BufferedCollectionINS_11Group51Var2EZNS_11CountParser13InvokeCountOfIS1_EEvRKNS_12HeaderRecordEtRKN7openpal6RSliceERNS_12IAPDUHandlerEEUlRS8_jE_E5CountEv
	.quad	_ZNK8opendnp318BufferedCollectionINS_11Group51Var2EZNS_11CountParser13InvokeCountOfIS1_EEvRKNS_12HeaderRecordEtRKN7openpal6RSliceERNS_12IAPDUHandlerEEUlRS8_jE_E7ForeachERNS_8IVisitorIS1_EE
	.weak	_ZTVN8opendnp318BufferedCollectionINS_11Group52Var1EZNS_11CountParser13InvokeCountOfIS1_EEvRKNS_12HeaderRecordEtRKN7openpal6RSliceERNS_12IAPDUHandlerEEUlRS8_jE_EE
	.section	.data.rel.ro._ZTVN8opendnp318BufferedCollectionINS_11Group52Var1EZNS_11CountParser13InvokeCountOfIS1_EEvRKNS_12HeaderRecordEtRKN7openpal6RSliceERNS_12IAPDUHandlerEEUlRS8_jE_EE,"awG",@progbits,_ZTVN8opendnp318BufferedCollectionINS_11Group52Var1EZNS_11CountParser13InvokeCountOfIS1_EEvRKNS_12HeaderRecordEtRKN7openpal6RSliceERNS_12IAPDUHandlerEEUlRS8_jE_EE,comdat
	.align 8
	.type	_ZTVN8opendnp318BufferedCollectionINS_11Group52Var1EZNS_11CountParser13InvokeCountOfIS1_EEvRKNS_12HeaderRecordEtRKN7openpal6RSliceERNS_12IAPDUHandlerEEUlRS8_jE_EE, @object
	.size	_ZTVN8opendnp318BufferedCollectionINS_11Group52Var1EZNS_11CountParser13InvokeCountOfIS1_EEvRKNS_12HeaderRecordEtRKN7openpal6RSliceERNS_12IAPDUHandlerEEUlRS8_jE_EE, 32
_ZTVN8opendnp318BufferedCollectionINS_11Group52Var1EZNS_11CountParser13InvokeCountOfIS1_EEvRKNS_12HeaderRecordEtRKN7openpal6RSliceERNS_12IAPDUHandlerEEUlRS8_jE_EE:
	.quad	0
	.quad	_ZTIN8opendnp318BufferedCollectionINS_11Group52Var1EZNS_11CountParser13InvokeCountOfIS1_EEvRKNS_12HeaderRecordEtRKN7openpal6RSliceERNS_12IAPDUHandlerEEUlRS8_jE_EE
	.quad	_ZNK8opendnp318BufferedCollectionINS_11Group52Var1EZNS_11CountParser13InvokeCountOfIS1_EEvRKNS_12HeaderRecordEtRKN7openpal6RSliceERNS_12IAPDUHandlerEEUlRS8_jE_E5CountEv
	.quad	_ZNK8opendnp318BufferedCollectionINS_11Group52Var1EZNS_11CountParser13InvokeCountOfIS1_EEvRKNS_12HeaderRecordEtRKN7openpal6RSliceERNS_12IAPDUHandlerEEUlRS8_jE_E7ForeachERNS_8IVisitorIS1_EE
	.weak	_ZTVN8opendnp318BufferedCollectionINS_11Group52Var2EZNS_11CountParser13InvokeCountOfIS1_EEvRKNS_12HeaderRecordEtRKN7openpal6RSliceERNS_12IAPDUHandlerEEUlRS8_jE_EE
	.section	.data.rel.ro._ZTVN8opendnp318BufferedCollectionINS_11Group52Var2EZNS_11CountParser13InvokeCountOfIS1_EEvRKNS_12HeaderRecordEtRKN7openpal6RSliceERNS_12IAPDUHandlerEEUlRS8_jE_EE,"awG",@progbits,_ZTVN8opendnp318BufferedCollectionINS_11Group52Var2EZNS_11CountParser13InvokeCountOfIS1_EEvRKNS_12HeaderRecordEtRKN7openpal6RSliceERNS_12IAPDUHandlerEEUlRS8_jE_EE,comdat
	.align 8
	.type	_ZTVN8opendnp318BufferedCollectionINS_11Group52Var2EZNS_11CountParser13InvokeCountOfIS1_EEvRKNS_12HeaderRecordEtRKN7openpal6RSliceERNS_12IAPDUHandlerEEUlRS8_jE_EE, @object
	.size	_ZTVN8opendnp318BufferedCollectionINS_11Group52Var2EZNS_11CountParser13InvokeCountOfIS1_EEvRKNS_12HeaderRecordEtRKN7openpal6RSliceERNS_12IAPDUHandlerEEUlRS8_jE_EE, 32
_ZTVN8opendnp318BufferedCollectionINS_11Group52Var2EZNS_11CountParser13InvokeCountOfIS1_EEvRKNS_12HeaderRecordEtRKN7openpal6RSliceERNS_12IAPDUHandlerEEUlRS8_jE_EE:
	.quad	0
	.quad	_ZTIN8opendnp318BufferedCollectionINS_11Group52Var2EZNS_11CountParser13InvokeCountOfIS1_EEvRKNS_12HeaderRecordEtRKN7openpal6RSliceERNS_12IAPDUHandlerEEUlRS8_jE_EE
	.quad	_ZNK8opendnp318BufferedCollectionINS_11Group52Var2EZNS_11CountParser13InvokeCountOfIS1_EEvRKNS_12HeaderRecordEtRKN7openpal6RSliceERNS_12IAPDUHandlerEEUlRS8_jE_E5CountEv
	.quad	_ZNK8opendnp318BufferedCollectionINS_11Group52Var2EZNS_11CountParser13InvokeCountOfIS1_EEvRKNS_12HeaderRecordEtRKN7openpal6RSliceERNS_12IAPDUHandlerEEUlRS8_jE_E7ForeachERNS_8IVisitorIS1_EE
	.weak	_ZTVN8opendnp318BufferedCollectionINS_12Group120Var3EZNS_11CountParser13InvokeCountOfIS1_EEvRKNS_12HeaderRecordEtRKN7openpal6RSliceERNS_12IAPDUHandlerEEUlRS8_jE_EE
	.section	.data.rel.ro._ZTVN8opendnp318BufferedCollectionINS_12Group120Var3EZNS_11CountParser13InvokeCountOfIS1_EEvRKNS_12HeaderRecordEtRKN7openpal6RSliceERNS_12IAPDUHandlerEEUlRS8_jE_EE,"awG",@progbits,_ZTVN8opendnp318BufferedCollectionINS_12Group120Var3EZNS_11CountParser13InvokeCountOfIS1_EEvRKNS_12HeaderRecordEtRKN7openpal6RSliceERNS_12IAPDUHandlerEEUlRS8_jE_EE,comdat
	.align 8
	.type	_ZTVN8opendnp318BufferedCollectionINS_12Group120Var3EZNS_11CountParser13InvokeCountOfIS1_EEvRKNS_12HeaderRecordEtRKN7openpal6RSliceERNS_12IAPDUHandlerEEUlRS8_jE_EE, @object
	.size	_ZTVN8opendnp318BufferedCollectionINS_12Group120Var3EZNS_11CountParser13InvokeCountOfIS1_EEvRKNS_12HeaderRecordEtRKN7openpal6RSliceERNS_12IAPDUHandlerEEUlRS8_jE_EE, 32
_ZTVN8opendnp318BufferedCollectionINS_12Group120Var3EZNS_11CountParser13InvokeCountOfIS1_EEvRKNS_12HeaderRecordEtRKN7openpal6RSliceERNS_12IAPDUHandlerEEUlRS8_jE_EE:
	.quad	0
	.quad	_ZTIN8opendnp318BufferedCollectionINS_12Group120Var3EZNS_11CountParser13InvokeCountOfIS1_EEvRKNS_12HeaderRecordEtRKN7openpal6RSliceERNS_12IAPDUHandlerEEUlRS8_jE_EE
	.quad	_ZNK8opendnp318BufferedCollectionINS_12Group120Var3EZNS_11CountParser13InvokeCountOfIS1_EEvRKNS_12HeaderRecordEtRKN7openpal6RSliceERNS_12IAPDUHandlerEEUlRS8_jE_E5CountEv
	.quad	_ZNK8opendnp318BufferedCollectionINS_12Group120Var3EZNS_11CountParser13InvokeCountOfIS1_EEvRKNS_12HeaderRecordEtRKN7openpal6RSliceERNS_12IAPDUHandlerEEUlRS8_jE_E7ForeachERNS_8IVisitorIS1_EE
	.weak	_ZTVN8opendnp318BufferedCollectionINS_12Group120Var4EZNS_11CountParser13InvokeCountOfIS1_EEvRKNS_12HeaderRecordEtRKN7openpal6RSliceERNS_12IAPDUHandlerEEUlRS8_jE_EE
	.section	.data.rel.ro._ZTVN8opendnp318BufferedCollectionINS_12Group120Var4EZNS_11CountParser13InvokeCountOfIS1_EEvRKNS_12HeaderRecordEtRKN7openpal6RSliceERNS_12IAPDUHandlerEEUlRS8_jE_EE,"awG",@progbits,_ZTVN8opendnp318BufferedCollectionINS_12Group120Var4EZNS_11CountParser13InvokeCountOfIS1_EEvRKNS_12HeaderRecordEtRKN7openpal6RSliceERNS_12IAPDUHandlerEEUlRS8_jE_EE,comdat
	.align 8
	.type	_ZTVN8opendnp318BufferedCollectionINS_12Group120Var4EZNS_11CountParser13InvokeCountOfIS1_EEvRKNS_12HeaderRecordEtRKN7openpal6RSliceERNS_12IAPDUHandlerEEUlRS8_jE_EE, @object
	.size	_ZTVN8opendnp318BufferedCollectionINS_12Group120Var4EZNS_11CountParser13InvokeCountOfIS1_EEvRKNS_12HeaderRecordEtRKN7openpal6RSliceERNS_12IAPDUHandlerEEUlRS8_jE_EE, 32
_ZTVN8opendnp318BufferedCollectionINS_12Group120Var4EZNS_11CountParser13InvokeCountOfIS1_EEvRKNS_12HeaderRecordEtRKN7openpal6RSliceERNS_12IAPDUHandlerEEUlRS8_jE_EE:
	.quad	0
	.quad	_ZTIN8opendnp318BufferedCollectionINS_12Group120Var4EZNS_11CountParser13InvokeCountOfIS1_EEvRKNS_12HeaderRecordEtRKN7openpal6RSliceERNS_12IAPDUHandlerEEUlRS8_jE_EE
	.quad	_ZNK8opendnp318BufferedCollectionINS_12Group120Var4EZNS_11CountParser13InvokeCountOfIS1_EEvRKNS_12HeaderRecordEtRKN7openpal6RSliceERNS_12IAPDUHandlerEEUlRS8_jE_E5CountEv
	.quad	_ZNK8opendnp318BufferedCollectionINS_12Group120Var4EZNS_11CountParser13InvokeCountOfIS1_EEvRKNS_12HeaderRecordEtRKN7openpal6RSliceERNS_12IAPDUHandlerEEUlRS8_jE_E7ForeachERNS_8IVisitorIS1_EE
	.ident	"GCC: (Ubuntu 11.4.0-1ubuntu1~22.04) 11.4.0"
	.section	.note.GNU-stack,"",@progbits
	.section	.note.gnu.property,"a"
	.align 8
	.long	1f - 0f
	.long	4f - 1f
	.long	5
0:
	.string	"GNU"
1:
	.align 8
	.long	0xc0000002
	.long	3f - 2f
2:
	.long	0x3
3:
	.align 8
4:
