	.file	"CountIndexParser.cpp"
	.text
	.section	.text._ZN7openpal12StaticBufferILj255EED2Ev,"axG",@progbits,_ZN7openpal12StaticBufferILj255EED5Ev,comdat
	.align 2
	.p2align 4
	.weak	_ZN7openpal12StaticBufferILj255EED2Ev
	.type	_ZN7openpal12StaticBufferILj255EED2Ev, @function
_ZN7openpal12StaticBufferILj255EED2Ev:
.LFB2830:
	.cfi_startproc
	endbr64
	ret
	.cfi_endproc
.LFE2830:
	.size	_ZN7openpal12StaticBufferILj255EED2Ev, .-_ZN7openpal12StaticBufferILj255EED2Ev
	.weak	_ZN7openpal12StaticBufferILj255EED1Ev
	.set	_ZN7openpal12StaticBufferILj255EED1Ev,_ZN7openpal12StaticBufferILj255EED2Ev
	.section	.text._ZNK8opendnp318BufferedCollectionINS_7IndexedINS_12Group122Var2EEEZNS_16CountIndexParser17InvokeCountOfTypeIS2_EEvRKNS_12HeaderRecordEtRKNS_9NumParserERKN7openpal6RSliceERNS_12IAPDUHandlerEEUlRSD_jE_E5CountEv,"axG",@progbits,_ZNK8opendnp318BufferedCollectionINS_7IndexedINS_12Group122Var2EEEZNS_16CountIndexParser17InvokeCountOfTypeIS2_EEvRKNS_12HeaderRecordEtRKNS_9NumParserERKN7openpal6RSliceERNS_12IAPDUHandlerEEUlRSD_jE_E5CountEv,comdat
	.align 2
	.p2align 4
	.weak	_ZNK8opendnp318BufferedCollectionINS_7IndexedINS_12Group122Var2EEEZNS_16CountIndexParser17InvokeCountOfTypeIS2_EEvRKNS_12HeaderRecordEtRKNS_9NumParserERKN7openpal6RSliceERNS_12IAPDUHandlerEEUlRSD_jE_E5CountEv
	.type	_ZNK8opendnp318BufferedCollectionINS_7IndexedINS_12Group122Var2EEEZNS_16CountIndexParser17InvokeCountOfTypeIS2_EEvRKNS_12HeaderRecordEtRKNS_9NumParserERKN7openpal6RSliceERNS_12IAPDUHandlerEEUlRSD_jE_E5CountEv, @function
_ZNK8opendnp318BufferedCollectionINS_7IndexedINS_12Group122Var2EEEZNS_16CountIndexParser17InvokeCountOfTypeIS2_EEvRKNS_12HeaderRecordEtRKNS_9NumParserERKN7openpal6RSliceERNS_12IAPDUHandlerEEUlRSD_jE_E5CountEv:
.LFB3980:
	.cfi_startproc
	endbr64
	movq	24(%rdi), %rax
	ret
	.cfi_endproc
.LFE3980:
	.size	_ZNK8opendnp318BufferedCollectionINS_7IndexedINS_12Group122Var2EEEZNS_16CountIndexParser17InvokeCountOfTypeIS2_EEvRKNS_12HeaderRecordEtRKNS_9NumParserERKN7openpal6RSliceERNS_12IAPDUHandlerEEUlRSD_jE_E5CountEv, .-_ZNK8opendnp318BufferedCollectionINS_7IndexedINS_12Group122Var2EEEZNS_16CountIndexParser17InvokeCountOfTypeIS2_EEvRKNS_12HeaderRecordEtRKNS_9NumParserERKN7openpal6RSliceERNS_12IAPDUHandlerEEUlRSD_jE_E5CountEv
	.section	.text._ZNK8opendnp318BufferedCollectionINS_7IndexedINS_12Group122Var1EEEZNS_16CountIndexParser17InvokeCountOfTypeIS2_EEvRKNS_12HeaderRecordEtRKNS_9NumParserERKN7openpal6RSliceERNS_12IAPDUHandlerEEUlRSD_jE_E5CountEv,"axG",@progbits,_ZNK8opendnp318BufferedCollectionINS_7IndexedINS_12Group122Var1EEEZNS_16CountIndexParser17InvokeCountOfTypeIS2_EEvRKNS_12HeaderRecordEtRKNS_9NumParserERKN7openpal6RSliceERNS_12IAPDUHandlerEEUlRSD_jE_E5CountEv,comdat
	.align 2
	.p2align 4
	.weak	_ZNK8opendnp318BufferedCollectionINS_7IndexedINS_12Group122Var1EEEZNS_16CountIndexParser17InvokeCountOfTypeIS2_EEvRKNS_12HeaderRecordEtRKNS_9NumParserERKN7openpal6RSliceERNS_12IAPDUHandlerEEUlRSD_jE_E5CountEv
	.type	_ZNK8opendnp318BufferedCollectionINS_7IndexedINS_12Group122Var1EEEZNS_16CountIndexParser17InvokeCountOfTypeIS2_EEvRKNS_12HeaderRecordEtRKNS_9NumParserERKN7openpal6RSliceERNS_12IAPDUHandlerEEUlRSD_jE_E5CountEv, @function
_ZNK8opendnp318BufferedCollectionINS_7IndexedINS_12Group122Var1EEEZNS_16CountIndexParser17InvokeCountOfTypeIS2_EEvRKNS_12HeaderRecordEtRKNS_9NumParserERKN7openpal6RSliceERNS_12IAPDUHandlerEEUlRSD_jE_E5CountEv:
.LFB3982:
	.cfi_startproc
	endbr64
	movq	24(%rdi), %rax
	ret
	.cfi_endproc
.LFE3982:
	.size	_ZNK8opendnp318BufferedCollectionINS_7IndexedINS_12Group122Var1EEEZNS_16CountIndexParser17InvokeCountOfTypeIS2_EEvRKNS_12HeaderRecordEtRKNS_9NumParserERKN7openpal6RSliceERNS_12IAPDUHandlerEEUlRSD_jE_E5CountEv, .-_ZNK8opendnp318BufferedCollectionINS_7IndexedINS_12Group122Var1EEEZNS_16CountIndexParser17InvokeCountOfTypeIS2_EEvRKNS_12HeaderRecordEtRKNS_9NumParserERKN7openpal6RSliceERNS_12IAPDUHandlerEEUlRSD_jE_E5CountEv
	.section	.text._ZNK8opendnp318BufferedCollectionINS_7IndexedINS_15TimeAndIntervalEEEZNS_16CountIndexParser13InvokeCountOfINS_11Group50Var4EEEvRKNS_12HeaderRecordEtRKNS_9NumParserERKN7openpal6RSliceERNS_12IAPDUHandlerEEUlRSE_jE_E5CountEv,"axG",@progbits,_ZNK8opendnp318BufferedCollectionINS_7IndexedINS_15TimeAndIntervalEEEZNS_16CountIndexParser13InvokeCountOfINS_11Group50Var4EEEvRKNS_12HeaderRecordEtRKNS_9NumParserERKN7openpal6RSliceERNS_12IAPDUHandlerEEUlRSE_jE_E5CountEv,comdat
	.align 2
	.p2align 4
	.weak	_ZNK8opendnp318BufferedCollectionINS_7IndexedINS_15TimeAndIntervalEEEZNS_16CountIndexParser13InvokeCountOfINS_11Group50Var4EEEvRKNS_12HeaderRecordEtRKNS_9NumParserERKN7openpal6RSliceERNS_12IAPDUHandlerEEUlRSE_jE_E5CountEv
	.type	_ZNK8opendnp318BufferedCollectionINS_7IndexedINS_15TimeAndIntervalEEEZNS_16CountIndexParser13InvokeCountOfINS_11Group50Var4EEEvRKNS_12HeaderRecordEtRKNS_9NumParserERKN7openpal6RSliceERNS_12IAPDUHandlerEEUlRSE_jE_E5CountEv, @function
_ZNK8opendnp318BufferedCollectionINS_7IndexedINS_15TimeAndIntervalEEEZNS_16CountIndexParser13InvokeCountOfINS_11Group50Var4EEEvRKNS_12HeaderRecordEtRKNS_9NumParserERKN7openpal6RSliceERNS_12IAPDUHandlerEEUlRSE_jE_E5CountEv:
.LFB3984:
	.cfi_startproc
	endbr64
	movq	24(%rdi), %rax
	ret
	.cfi_endproc
.LFE3984:
	.size	_ZNK8opendnp318BufferedCollectionINS_7IndexedINS_15TimeAndIntervalEEEZNS_16CountIndexParser13InvokeCountOfINS_11Group50Var4EEEvRKNS_12HeaderRecordEtRKNS_9NumParserERKN7openpal6RSliceERNS_12IAPDUHandlerEEUlRSE_jE_E5CountEv, .-_ZNK8opendnp318BufferedCollectionINS_7IndexedINS_15TimeAndIntervalEEEZNS_16CountIndexParser13InvokeCountOfINS_11Group50Var4EEEvRKNS_12HeaderRecordEtRKNS_9NumParserERKN7openpal6RSliceERNS_12IAPDUHandlerEEUlRSE_jE_E5CountEv
	.section	.text._ZNK8opendnp318BufferedCollectionINS_7IndexedINS_18AnalogCommandEventEEEZNS_16CountIndexParser13InvokeCountOfINS_11Group43Var8EEEvRKNS_12HeaderRecordEtRKNS_9NumParserERKN7openpal6RSliceERNS_12IAPDUHandlerEEUlRSE_jE_E5CountEv,"axG",@progbits,_ZNK8opendnp318BufferedCollectionINS_7IndexedINS_18AnalogCommandEventEEEZNS_16CountIndexParser13InvokeCountOfINS_11Group43Var8EEEvRKNS_12HeaderRecordEtRKNS_9NumParserERKN7openpal6RSliceERNS_12IAPDUHandlerEEUlRSE_jE_E5CountEv,comdat
	.align 2
	.p2align 4
	.weak	_ZNK8opendnp318BufferedCollectionINS_7IndexedINS_18AnalogCommandEventEEEZNS_16CountIndexParser13InvokeCountOfINS_11Group43Var8EEEvRKNS_12HeaderRecordEtRKNS_9NumParserERKN7openpal6RSliceERNS_12IAPDUHandlerEEUlRSE_jE_E5CountEv
	.type	_ZNK8opendnp318BufferedCollectionINS_7IndexedINS_18AnalogCommandEventEEEZNS_16CountIndexParser13InvokeCountOfINS_11Group43Var8EEEvRKNS_12HeaderRecordEtRKNS_9NumParserERKN7openpal6RSliceERNS_12IAPDUHandlerEEUlRSE_jE_E5CountEv, @function
_ZNK8opendnp318BufferedCollectionINS_7IndexedINS_18AnalogCommandEventEEEZNS_16CountIndexParser13InvokeCountOfINS_11Group43Var8EEEvRKNS_12HeaderRecordEtRKNS_9NumParserERKN7openpal6RSliceERNS_12IAPDUHandlerEEUlRSE_jE_E5CountEv:
.LFB3986:
	.cfi_startproc
	endbr64
	movq	24(%rdi), %rax
	ret
	.cfi_endproc
.LFE3986:
	.size	_ZNK8opendnp318BufferedCollectionINS_7IndexedINS_18AnalogCommandEventEEEZNS_16CountIndexParser13InvokeCountOfINS_11Group43Var8EEEvRKNS_12HeaderRecordEtRKNS_9NumParserERKN7openpal6RSliceERNS_12IAPDUHandlerEEUlRSE_jE_E5CountEv, .-_ZNK8opendnp318BufferedCollectionINS_7IndexedINS_18AnalogCommandEventEEEZNS_16CountIndexParser13InvokeCountOfINS_11Group43Var8EEEvRKNS_12HeaderRecordEtRKNS_9NumParserERKN7openpal6RSliceERNS_12IAPDUHandlerEEUlRSE_jE_E5CountEv
	.section	.text._ZNK8opendnp318BufferedCollectionINS_7IndexedINS_18AnalogCommandEventEEEZNS_16CountIndexParser13InvokeCountOfINS_11Group43Var7EEEvRKNS_12HeaderRecordEtRKNS_9NumParserERKN7openpal6RSliceERNS_12IAPDUHandlerEEUlRSE_jE_E5CountEv,"axG",@progbits,_ZNK8opendnp318BufferedCollectionINS_7IndexedINS_18AnalogCommandEventEEEZNS_16CountIndexParser13InvokeCountOfINS_11Group43Var7EEEvRKNS_12HeaderRecordEtRKNS_9NumParserERKN7openpal6RSliceERNS_12IAPDUHandlerEEUlRSE_jE_E5CountEv,comdat
	.align 2
	.p2align 4
	.weak	_ZNK8opendnp318BufferedCollectionINS_7IndexedINS_18AnalogCommandEventEEEZNS_16CountIndexParser13InvokeCountOfINS_11Group43Var7EEEvRKNS_12HeaderRecordEtRKNS_9NumParserERKN7openpal6RSliceERNS_12IAPDUHandlerEEUlRSE_jE_E5CountEv
	.type	_ZNK8opendnp318BufferedCollectionINS_7IndexedINS_18AnalogCommandEventEEEZNS_16CountIndexParser13InvokeCountOfINS_11Group43Var7EEEvRKNS_12HeaderRecordEtRKNS_9NumParserERKN7openpal6RSliceERNS_12IAPDUHandlerEEUlRSE_jE_E5CountEv, @function
_ZNK8opendnp318BufferedCollectionINS_7IndexedINS_18AnalogCommandEventEEEZNS_16CountIndexParser13InvokeCountOfINS_11Group43Var7EEEvRKNS_12HeaderRecordEtRKNS_9NumParserERKN7openpal6RSliceERNS_12IAPDUHandlerEEUlRSE_jE_E5CountEv:
.LFB3988:
	.cfi_startproc
	endbr64
	movq	24(%rdi), %rax
	ret
	.cfi_endproc
.LFE3988:
	.size	_ZNK8opendnp318BufferedCollectionINS_7IndexedINS_18AnalogCommandEventEEEZNS_16CountIndexParser13InvokeCountOfINS_11Group43Var7EEEvRKNS_12HeaderRecordEtRKNS_9NumParserERKN7openpal6RSliceERNS_12IAPDUHandlerEEUlRSE_jE_E5CountEv, .-_ZNK8opendnp318BufferedCollectionINS_7IndexedINS_18AnalogCommandEventEEEZNS_16CountIndexParser13InvokeCountOfINS_11Group43Var7EEEvRKNS_12HeaderRecordEtRKNS_9NumParserERKN7openpal6RSliceERNS_12IAPDUHandlerEEUlRSE_jE_E5CountEv
	.section	.text._ZNK8opendnp318BufferedCollectionINS_7IndexedINS_18AnalogCommandEventEEEZNS_16CountIndexParser13InvokeCountOfINS_11Group43Var6EEEvRKNS_12HeaderRecordEtRKNS_9NumParserERKN7openpal6RSliceERNS_12IAPDUHandlerEEUlRSE_jE_E5CountEv,"axG",@progbits,_ZNK8opendnp318BufferedCollectionINS_7IndexedINS_18AnalogCommandEventEEEZNS_16CountIndexParser13InvokeCountOfINS_11Group43Var6EEEvRKNS_12HeaderRecordEtRKNS_9NumParserERKN7openpal6RSliceERNS_12IAPDUHandlerEEUlRSE_jE_E5CountEv,comdat
	.align 2
	.p2align 4
	.weak	_ZNK8opendnp318BufferedCollectionINS_7IndexedINS_18AnalogCommandEventEEEZNS_16CountIndexParser13InvokeCountOfINS_11Group43Var6EEEvRKNS_12HeaderRecordEtRKNS_9NumParserERKN7openpal6RSliceERNS_12IAPDUHandlerEEUlRSE_jE_E5CountEv
	.type	_ZNK8opendnp318BufferedCollectionINS_7IndexedINS_18AnalogCommandEventEEEZNS_16CountIndexParser13InvokeCountOfINS_11Group43Var6EEEvRKNS_12HeaderRecordEtRKNS_9NumParserERKN7openpal6RSliceERNS_12IAPDUHandlerEEUlRSE_jE_E5CountEv, @function
_ZNK8opendnp318BufferedCollectionINS_7IndexedINS_18AnalogCommandEventEEEZNS_16CountIndexParser13InvokeCountOfINS_11Group43Var6EEEvRKNS_12HeaderRecordEtRKNS_9NumParserERKN7openpal6RSliceERNS_12IAPDUHandlerEEUlRSE_jE_E5CountEv:
.LFB3990:
	.cfi_startproc
	endbr64
	movq	24(%rdi), %rax
	ret
	.cfi_endproc
.LFE3990:
	.size	_ZNK8opendnp318BufferedCollectionINS_7IndexedINS_18AnalogCommandEventEEEZNS_16CountIndexParser13InvokeCountOfINS_11Group43Var6EEEvRKNS_12HeaderRecordEtRKNS_9NumParserERKN7openpal6RSliceERNS_12IAPDUHandlerEEUlRSE_jE_E5CountEv, .-_ZNK8opendnp318BufferedCollectionINS_7IndexedINS_18AnalogCommandEventEEEZNS_16CountIndexParser13InvokeCountOfINS_11Group43Var6EEEvRKNS_12HeaderRecordEtRKNS_9NumParserERKN7openpal6RSliceERNS_12IAPDUHandlerEEUlRSE_jE_E5CountEv
	.section	.text._ZNK8opendnp318BufferedCollectionINS_7IndexedINS_18AnalogCommandEventEEEZNS_16CountIndexParser13InvokeCountOfINS_11Group43Var5EEEvRKNS_12HeaderRecordEtRKNS_9NumParserERKN7openpal6RSliceERNS_12IAPDUHandlerEEUlRSE_jE_E5CountEv,"axG",@progbits,_ZNK8opendnp318BufferedCollectionINS_7IndexedINS_18AnalogCommandEventEEEZNS_16CountIndexParser13InvokeCountOfINS_11Group43Var5EEEvRKNS_12HeaderRecordEtRKNS_9NumParserERKN7openpal6RSliceERNS_12IAPDUHandlerEEUlRSE_jE_E5CountEv,comdat
	.align 2
	.p2align 4
	.weak	_ZNK8opendnp318BufferedCollectionINS_7IndexedINS_18AnalogCommandEventEEEZNS_16CountIndexParser13InvokeCountOfINS_11Group43Var5EEEvRKNS_12HeaderRecordEtRKNS_9NumParserERKN7openpal6RSliceERNS_12IAPDUHandlerEEUlRSE_jE_E5CountEv
	.type	_ZNK8opendnp318BufferedCollectionINS_7IndexedINS_18AnalogCommandEventEEEZNS_16CountIndexParser13InvokeCountOfINS_11Group43Var5EEEvRKNS_12HeaderRecordEtRKNS_9NumParserERKN7openpal6RSliceERNS_12IAPDUHandlerEEUlRSE_jE_E5CountEv, @function
_ZNK8opendnp318BufferedCollectionINS_7IndexedINS_18AnalogCommandEventEEEZNS_16CountIndexParser13InvokeCountOfINS_11Group43Var5EEEvRKNS_12HeaderRecordEtRKNS_9NumParserERKN7openpal6RSliceERNS_12IAPDUHandlerEEUlRSE_jE_E5CountEv:
.LFB3992:
	.cfi_startproc
	endbr64
	movq	24(%rdi), %rax
	ret
	.cfi_endproc
.LFE3992:
	.size	_ZNK8opendnp318BufferedCollectionINS_7IndexedINS_18AnalogCommandEventEEEZNS_16CountIndexParser13InvokeCountOfINS_11Group43Var5EEEvRKNS_12HeaderRecordEtRKNS_9NumParserERKN7openpal6RSliceERNS_12IAPDUHandlerEEUlRSE_jE_E5CountEv, .-_ZNK8opendnp318BufferedCollectionINS_7IndexedINS_18AnalogCommandEventEEEZNS_16CountIndexParser13InvokeCountOfINS_11Group43Var5EEEvRKNS_12HeaderRecordEtRKNS_9NumParserERKN7openpal6RSliceERNS_12IAPDUHandlerEEUlRSE_jE_E5CountEv
	.section	.text._ZNK8opendnp318BufferedCollectionINS_7IndexedINS_18AnalogCommandEventEEEZNS_16CountIndexParser13InvokeCountOfINS_11Group43Var4EEEvRKNS_12HeaderRecordEtRKNS_9NumParserERKN7openpal6RSliceERNS_12IAPDUHandlerEEUlRSE_jE_E5CountEv,"axG",@progbits,_ZNK8opendnp318BufferedCollectionINS_7IndexedINS_18AnalogCommandEventEEEZNS_16CountIndexParser13InvokeCountOfINS_11Group43Var4EEEvRKNS_12HeaderRecordEtRKNS_9NumParserERKN7openpal6RSliceERNS_12IAPDUHandlerEEUlRSE_jE_E5CountEv,comdat
	.align 2
	.p2align 4
	.weak	_ZNK8opendnp318BufferedCollectionINS_7IndexedINS_18AnalogCommandEventEEEZNS_16CountIndexParser13InvokeCountOfINS_11Group43Var4EEEvRKNS_12HeaderRecordEtRKNS_9NumParserERKN7openpal6RSliceERNS_12IAPDUHandlerEEUlRSE_jE_E5CountEv
	.type	_ZNK8opendnp318BufferedCollectionINS_7IndexedINS_18AnalogCommandEventEEEZNS_16CountIndexParser13InvokeCountOfINS_11Group43Var4EEEvRKNS_12HeaderRecordEtRKNS_9NumParserERKN7openpal6RSliceERNS_12IAPDUHandlerEEUlRSE_jE_E5CountEv, @function
_ZNK8opendnp318BufferedCollectionINS_7IndexedINS_18AnalogCommandEventEEEZNS_16CountIndexParser13InvokeCountOfINS_11Group43Var4EEEvRKNS_12HeaderRecordEtRKNS_9NumParserERKN7openpal6RSliceERNS_12IAPDUHandlerEEUlRSE_jE_E5CountEv:
.LFB3994:
	.cfi_startproc
	endbr64
	movq	24(%rdi), %rax
	ret
	.cfi_endproc
.LFE3994:
	.size	_ZNK8opendnp318BufferedCollectionINS_7IndexedINS_18AnalogCommandEventEEEZNS_16CountIndexParser13InvokeCountOfINS_11Group43Var4EEEvRKNS_12HeaderRecordEtRKNS_9NumParserERKN7openpal6RSliceERNS_12IAPDUHandlerEEUlRSE_jE_E5CountEv, .-_ZNK8opendnp318BufferedCollectionINS_7IndexedINS_18AnalogCommandEventEEEZNS_16CountIndexParser13InvokeCountOfINS_11Group43Var4EEEvRKNS_12HeaderRecordEtRKNS_9NumParserERKN7openpal6RSliceERNS_12IAPDUHandlerEEUlRSE_jE_E5CountEv
	.section	.text._ZNK8opendnp318BufferedCollectionINS_7IndexedINS_18AnalogCommandEventEEEZNS_16CountIndexParser13InvokeCountOfINS_11Group43Var3EEEvRKNS_12HeaderRecordEtRKNS_9NumParserERKN7openpal6RSliceERNS_12IAPDUHandlerEEUlRSE_jE_E5CountEv,"axG",@progbits,_ZNK8opendnp318BufferedCollectionINS_7IndexedINS_18AnalogCommandEventEEEZNS_16CountIndexParser13InvokeCountOfINS_11Group43Var3EEEvRKNS_12HeaderRecordEtRKNS_9NumParserERKN7openpal6RSliceERNS_12IAPDUHandlerEEUlRSE_jE_E5CountEv,comdat
	.align 2
	.p2align 4
	.weak	_ZNK8opendnp318BufferedCollectionINS_7IndexedINS_18AnalogCommandEventEEEZNS_16CountIndexParser13InvokeCountOfINS_11Group43Var3EEEvRKNS_12HeaderRecordEtRKNS_9NumParserERKN7openpal6RSliceERNS_12IAPDUHandlerEEUlRSE_jE_E5CountEv
	.type	_ZNK8opendnp318BufferedCollectionINS_7IndexedINS_18AnalogCommandEventEEEZNS_16CountIndexParser13InvokeCountOfINS_11Group43Var3EEEvRKNS_12HeaderRecordEtRKNS_9NumParserERKN7openpal6RSliceERNS_12IAPDUHandlerEEUlRSE_jE_E5CountEv, @function
_ZNK8opendnp318BufferedCollectionINS_7IndexedINS_18AnalogCommandEventEEEZNS_16CountIndexParser13InvokeCountOfINS_11Group43Var3EEEvRKNS_12HeaderRecordEtRKNS_9NumParserERKN7openpal6RSliceERNS_12IAPDUHandlerEEUlRSE_jE_E5CountEv:
.LFB3996:
	.cfi_startproc
	endbr64
	movq	24(%rdi), %rax
	ret
	.cfi_endproc
.LFE3996:
	.size	_ZNK8opendnp318BufferedCollectionINS_7IndexedINS_18AnalogCommandEventEEEZNS_16CountIndexParser13InvokeCountOfINS_11Group43Var3EEEvRKNS_12HeaderRecordEtRKNS_9NumParserERKN7openpal6RSliceERNS_12IAPDUHandlerEEUlRSE_jE_E5CountEv, .-_ZNK8opendnp318BufferedCollectionINS_7IndexedINS_18AnalogCommandEventEEEZNS_16CountIndexParser13InvokeCountOfINS_11Group43Var3EEEvRKNS_12HeaderRecordEtRKNS_9NumParserERKN7openpal6RSliceERNS_12IAPDUHandlerEEUlRSE_jE_E5CountEv
	.section	.text._ZNK8opendnp318BufferedCollectionINS_7IndexedINS_18AnalogCommandEventEEEZNS_16CountIndexParser13InvokeCountOfINS_11Group43Var2EEEvRKNS_12HeaderRecordEtRKNS_9NumParserERKN7openpal6RSliceERNS_12IAPDUHandlerEEUlRSE_jE_E5CountEv,"axG",@progbits,_ZNK8opendnp318BufferedCollectionINS_7IndexedINS_18AnalogCommandEventEEEZNS_16CountIndexParser13InvokeCountOfINS_11Group43Var2EEEvRKNS_12HeaderRecordEtRKNS_9NumParserERKN7openpal6RSliceERNS_12IAPDUHandlerEEUlRSE_jE_E5CountEv,comdat
	.align 2
	.p2align 4
	.weak	_ZNK8opendnp318BufferedCollectionINS_7IndexedINS_18AnalogCommandEventEEEZNS_16CountIndexParser13InvokeCountOfINS_11Group43Var2EEEvRKNS_12HeaderRecordEtRKNS_9NumParserERKN7openpal6RSliceERNS_12IAPDUHandlerEEUlRSE_jE_E5CountEv
	.type	_ZNK8opendnp318BufferedCollectionINS_7IndexedINS_18AnalogCommandEventEEEZNS_16CountIndexParser13InvokeCountOfINS_11Group43Var2EEEvRKNS_12HeaderRecordEtRKNS_9NumParserERKN7openpal6RSliceERNS_12IAPDUHandlerEEUlRSE_jE_E5CountEv, @function
_ZNK8opendnp318BufferedCollectionINS_7IndexedINS_18AnalogCommandEventEEEZNS_16CountIndexParser13InvokeCountOfINS_11Group43Var2EEEvRKNS_12HeaderRecordEtRKNS_9NumParserERKN7openpal6RSliceERNS_12IAPDUHandlerEEUlRSE_jE_E5CountEv:
.LFB3998:
	.cfi_startproc
	endbr64
	movq	24(%rdi), %rax
	ret
	.cfi_endproc
.LFE3998:
	.size	_ZNK8opendnp318BufferedCollectionINS_7IndexedINS_18AnalogCommandEventEEEZNS_16CountIndexParser13InvokeCountOfINS_11Group43Var2EEEvRKNS_12HeaderRecordEtRKNS_9NumParserERKN7openpal6RSliceERNS_12IAPDUHandlerEEUlRSE_jE_E5CountEv, .-_ZNK8opendnp318BufferedCollectionINS_7IndexedINS_18AnalogCommandEventEEEZNS_16CountIndexParser13InvokeCountOfINS_11Group43Var2EEEvRKNS_12HeaderRecordEtRKNS_9NumParserERKN7openpal6RSliceERNS_12IAPDUHandlerEEUlRSE_jE_E5CountEv
	.section	.text._ZNK8opendnp318BufferedCollectionINS_7IndexedINS_18AnalogCommandEventEEEZNS_16CountIndexParser13InvokeCountOfINS_11Group43Var1EEEvRKNS_12HeaderRecordEtRKNS_9NumParserERKN7openpal6RSliceERNS_12IAPDUHandlerEEUlRSE_jE_E5CountEv,"axG",@progbits,_ZNK8opendnp318BufferedCollectionINS_7IndexedINS_18AnalogCommandEventEEEZNS_16CountIndexParser13InvokeCountOfINS_11Group43Var1EEEvRKNS_12HeaderRecordEtRKNS_9NumParserERKN7openpal6RSliceERNS_12IAPDUHandlerEEUlRSE_jE_E5CountEv,comdat
	.align 2
	.p2align 4
	.weak	_ZNK8opendnp318BufferedCollectionINS_7IndexedINS_18AnalogCommandEventEEEZNS_16CountIndexParser13InvokeCountOfINS_11Group43Var1EEEvRKNS_12HeaderRecordEtRKNS_9NumParserERKN7openpal6RSliceERNS_12IAPDUHandlerEEUlRSE_jE_E5CountEv
	.type	_ZNK8opendnp318BufferedCollectionINS_7IndexedINS_18AnalogCommandEventEEEZNS_16CountIndexParser13InvokeCountOfINS_11Group43Var1EEEvRKNS_12HeaderRecordEtRKNS_9NumParserERKN7openpal6RSliceERNS_12IAPDUHandlerEEUlRSE_jE_E5CountEv, @function
_ZNK8opendnp318BufferedCollectionINS_7IndexedINS_18AnalogCommandEventEEEZNS_16CountIndexParser13InvokeCountOfINS_11Group43Var1EEEvRKNS_12HeaderRecordEtRKNS_9NumParserERKN7openpal6RSliceERNS_12IAPDUHandlerEEUlRSE_jE_E5CountEv:
.LFB4000:
	.cfi_startproc
	endbr64
	movq	24(%rdi), %rax
	ret
	.cfi_endproc
.LFE4000:
	.size	_ZNK8opendnp318BufferedCollectionINS_7IndexedINS_18AnalogCommandEventEEEZNS_16CountIndexParser13InvokeCountOfINS_11Group43Var1EEEvRKNS_12HeaderRecordEtRKNS_9NumParserERKN7openpal6RSliceERNS_12IAPDUHandlerEEUlRSE_jE_E5CountEv, .-_ZNK8opendnp318BufferedCollectionINS_7IndexedINS_18AnalogCommandEventEEEZNS_16CountIndexParser13InvokeCountOfINS_11Group43Var1EEEvRKNS_12HeaderRecordEtRKNS_9NumParserERKN7openpal6RSliceERNS_12IAPDUHandlerEEUlRSE_jE_E5CountEv
	.section	.text._ZNK8opendnp318BufferedCollectionINS_7IndexedINS_18AnalogOutputStatusEEEZNS_16CountIndexParser13InvokeCountOfINS_11Group42Var8EEEvRKNS_12HeaderRecordEtRKNS_9NumParserERKN7openpal6RSliceERNS_12IAPDUHandlerEEUlRSE_jE_E5CountEv,"axG",@progbits,_ZNK8opendnp318BufferedCollectionINS_7IndexedINS_18AnalogOutputStatusEEEZNS_16CountIndexParser13InvokeCountOfINS_11Group42Var8EEEvRKNS_12HeaderRecordEtRKNS_9NumParserERKN7openpal6RSliceERNS_12IAPDUHandlerEEUlRSE_jE_E5CountEv,comdat
	.align 2
	.p2align 4
	.weak	_ZNK8opendnp318BufferedCollectionINS_7IndexedINS_18AnalogOutputStatusEEEZNS_16CountIndexParser13InvokeCountOfINS_11Group42Var8EEEvRKNS_12HeaderRecordEtRKNS_9NumParserERKN7openpal6RSliceERNS_12IAPDUHandlerEEUlRSE_jE_E5CountEv
	.type	_ZNK8opendnp318BufferedCollectionINS_7IndexedINS_18AnalogOutputStatusEEEZNS_16CountIndexParser13InvokeCountOfINS_11Group42Var8EEEvRKNS_12HeaderRecordEtRKNS_9NumParserERKN7openpal6RSliceERNS_12IAPDUHandlerEEUlRSE_jE_E5CountEv, @function
_ZNK8opendnp318BufferedCollectionINS_7IndexedINS_18AnalogOutputStatusEEEZNS_16CountIndexParser13InvokeCountOfINS_11Group42Var8EEEvRKNS_12HeaderRecordEtRKNS_9NumParserERKN7openpal6RSliceERNS_12IAPDUHandlerEEUlRSE_jE_E5CountEv:
.LFB4002:
	.cfi_startproc
	endbr64
	movq	24(%rdi), %rax
	ret
	.cfi_endproc
.LFE4002:
	.size	_ZNK8opendnp318BufferedCollectionINS_7IndexedINS_18AnalogOutputStatusEEEZNS_16CountIndexParser13InvokeCountOfINS_11Group42Var8EEEvRKNS_12HeaderRecordEtRKNS_9NumParserERKN7openpal6RSliceERNS_12IAPDUHandlerEEUlRSE_jE_E5CountEv, .-_ZNK8opendnp318BufferedCollectionINS_7IndexedINS_18AnalogOutputStatusEEEZNS_16CountIndexParser13InvokeCountOfINS_11Group42Var8EEEvRKNS_12HeaderRecordEtRKNS_9NumParserERKN7openpal6RSliceERNS_12IAPDUHandlerEEUlRSE_jE_E5CountEv
	.section	.text._ZNK8opendnp318BufferedCollectionINS_7IndexedINS_18AnalogOutputStatusEEEZNS_16CountIndexParser13InvokeCountOfINS_11Group42Var7EEEvRKNS_12HeaderRecordEtRKNS_9NumParserERKN7openpal6RSliceERNS_12IAPDUHandlerEEUlRSE_jE_E5CountEv,"axG",@progbits,_ZNK8opendnp318BufferedCollectionINS_7IndexedINS_18AnalogOutputStatusEEEZNS_16CountIndexParser13InvokeCountOfINS_11Group42Var7EEEvRKNS_12HeaderRecordEtRKNS_9NumParserERKN7openpal6RSliceERNS_12IAPDUHandlerEEUlRSE_jE_E5CountEv,comdat
	.align 2
	.p2align 4
	.weak	_ZNK8opendnp318BufferedCollectionINS_7IndexedINS_18AnalogOutputStatusEEEZNS_16CountIndexParser13InvokeCountOfINS_11Group42Var7EEEvRKNS_12HeaderRecordEtRKNS_9NumParserERKN7openpal6RSliceERNS_12IAPDUHandlerEEUlRSE_jE_E5CountEv
	.type	_ZNK8opendnp318BufferedCollectionINS_7IndexedINS_18AnalogOutputStatusEEEZNS_16CountIndexParser13InvokeCountOfINS_11Group42Var7EEEvRKNS_12HeaderRecordEtRKNS_9NumParserERKN7openpal6RSliceERNS_12IAPDUHandlerEEUlRSE_jE_E5CountEv, @function
_ZNK8opendnp318BufferedCollectionINS_7IndexedINS_18AnalogOutputStatusEEEZNS_16CountIndexParser13InvokeCountOfINS_11Group42Var7EEEvRKNS_12HeaderRecordEtRKNS_9NumParserERKN7openpal6RSliceERNS_12IAPDUHandlerEEUlRSE_jE_E5CountEv:
.LFB4004:
	.cfi_startproc
	endbr64
	movq	24(%rdi), %rax
	ret
	.cfi_endproc
.LFE4004:
	.size	_ZNK8opendnp318BufferedCollectionINS_7IndexedINS_18AnalogOutputStatusEEEZNS_16CountIndexParser13InvokeCountOfINS_11Group42Var7EEEvRKNS_12HeaderRecordEtRKNS_9NumParserERKN7openpal6RSliceERNS_12IAPDUHandlerEEUlRSE_jE_E5CountEv, .-_ZNK8opendnp318BufferedCollectionINS_7IndexedINS_18AnalogOutputStatusEEEZNS_16CountIndexParser13InvokeCountOfINS_11Group42Var7EEEvRKNS_12HeaderRecordEtRKNS_9NumParserERKN7openpal6RSliceERNS_12IAPDUHandlerEEUlRSE_jE_E5CountEv
	.section	.text._ZNK8opendnp318BufferedCollectionINS_7IndexedINS_18AnalogOutputStatusEEEZNS_16CountIndexParser13InvokeCountOfINS_11Group42Var6EEEvRKNS_12HeaderRecordEtRKNS_9NumParserERKN7openpal6RSliceERNS_12IAPDUHandlerEEUlRSE_jE_E5CountEv,"axG",@progbits,_ZNK8opendnp318BufferedCollectionINS_7IndexedINS_18AnalogOutputStatusEEEZNS_16CountIndexParser13InvokeCountOfINS_11Group42Var6EEEvRKNS_12HeaderRecordEtRKNS_9NumParserERKN7openpal6RSliceERNS_12IAPDUHandlerEEUlRSE_jE_E5CountEv,comdat
	.align 2
	.p2align 4
	.weak	_ZNK8opendnp318BufferedCollectionINS_7IndexedINS_18AnalogOutputStatusEEEZNS_16CountIndexParser13InvokeCountOfINS_11Group42Var6EEEvRKNS_12HeaderRecordEtRKNS_9NumParserERKN7openpal6RSliceERNS_12IAPDUHandlerEEUlRSE_jE_E5CountEv
	.type	_ZNK8opendnp318BufferedCollectionINS_7IndexedINS_18AnalogOutputStatusEEEZNS_16CountIndexParser13InvokeCountOfINS_11Group42Var6EEEvRKNS_12HeaderRecordEtRKNS_9NumParserERKN7openpal6RSliceERNS_12IAPDUHandlerEEUlRSE_jE_E5CountEv, @function
_ZNK8opendnp318BufferedCollectionINS_7IndexedINS_18AnalogOutputStatusEEEZNS_16CountIndexParser13InvokeCountOfINS_11Group42Var6EEEvRKNS_12HeaderRecordEtRKNS_9NumParserERKN7openpal6RSliceERNS_12IAPDUHandlerEEUlRSE_jE_E5CountEv:
.LFB4006:
	.cfi_startproc
	endbr64
	movq	24(%rdi), %rax
	ret
	.cfi_endproc
.LFE4006:
	.size	_ZNK8opendnp318BufferedCollectionINS_7IndexedINS_18AnalogOutputStatusEEEZNS_16CountIndexParser13InvokeCountOfINS_11Group42Var6EEEvRKNS_12HeaderRecordEtRKNS_9NumParserERKN7openpal6RSliceERNS_12IAPDUHandlerEEUlRSE_jE_E5CountEv, .-_ZNK8opendnp318BufferedCollectionINS_7IndexedINS_18AnalogOutputStatusEEEZNS_16CountIndexParser13InvokeCountOfINS_11Group42Var6EEEvRKNS_12HeaderRecordEtRKNS_9NumParserERKN7openpal6RSliceERNS_12IAPDUHandlerEEUlRSE_jE_E5CountEv
	.section	.text._ZNK8opendnp318BufferedCollectionINS_7IndexedINS_18AnalogOutputStatusEEEZNS_16CountIndexParser13InvokeCountOfINS_11Group42Var5EEEvRKNS_12HeaderRecordEtRKNS_9NumParserERKN7openpal6RSliceERNS_12IAPDUHandlerEEUlRSE_jE_E5CountEv,"axG",@progbits,_ZNK8opendnp318BufferedCollectionINS_7IndexedINS_18AnalogOutputStatusEEEZNS_16CountIndexParser13InvokeCountOfINS_11Group42Var5EEEvRKNS_12HeaderRecordEtRKNS_9NumParserERKN7openpal6RSliceERNS_12IAPDUHandlerEEUlRSE_jE_E5CountEv,comdat
	.align 2
	.p2align 4
	.weak	_ZNK8opendnp318BufferedCollectionINS_7IndexedINS_18AnalogOutputStatusEEEZNS_16CountIndexParser13InvokeCountOfINS_11Group42Var5EEEvRKNS_12HeaderRecordEtRKNS_9NumParserERKN7openpal6RSliceERNS_12IAPDUHandlerEEUlRSE_jE_E5CountEv
	.type	_ZNK8opendnp318BufferedCollectionINS_7IndexedINS_18AnalogOutputStatusEEEZNS_16CountIndexParser13InvokeCountOfINS_11Group42Var5EEEvRKNS_12HeaderRecordEtRKNS_9NumParserERKN7openpal6RSliceERNS_12IAPDUHandlerEEUlRSE_jE_E5CountEv, @function
_ZNK8opendnp318BufferedCollectionINS_7IndexedINS_18AnalogOutputStatusEEEZNS_16CountIndexParser13InvokeCountOfINS_11Group42Var5EEEvRKNS_12HeaderRecordEtRKNS_9NumParserERKN7openpal6RSliceERNS_12IAPDUHandlerEEUlRSE_jE_E5CountEv:
.LFB4008:
	.cfi_startproc
	endbr64
	movq	24(%rdi), %rax
	ret
	.cfi_endproc
.LFE4008:
	.size	_ZNK8opendnp318BufferedCollectionINS_7IndexedINS_18AnalogOutputStatusEEEZNS_16CountIndexParser13InvokeCountOfINS_11Group42Var5EEEvRKNS_12HeaderRecordEtRKNS_9NumParserERKN7openpal6RSliceERNS_12IAPDUHandlerEEUlRSE_jE_E5CountEv, .-_ZNK8opendnp318BufferedCollectionINS_7IndexedINS_18AnalogOutputStatusEEEZNS_16CountIndexParser13InvokeCountOfINS_11Group42Var5EEEvRKNS_12HeaderRecordEtRKNS_9NumParserERKN7openpal6RSliceERNS_12IAPDUHandlerEEUlRSE_jE_E5CountEv
	.section	.text._ZNK8opendnp318BufferedCollectionINS_7IndexedINS_18AnalogOutputStatusEEEZNS_16CountIndexParser13InvokeCountOfINS_11Group42Var4EEEvRKNS_12HeaderRecordEtRKNS_9NumParserERKN7openpal6RSliceERNS_12IAPDUHandlerEEUlRSE_jE_E5CountEv,"axG",@progbits,_ZNK8opendnp318BufferedCollectionINS_7IndexedINS_18AnalogOutputStatusEEEZNS_16CountIndexParser13InvokeCountOfINS_11Group42Var4EEEvRKNS_12HeaderRecordEtRKNS_9NumParserERKN7openpal6RSliceERNS_12IAPDUHandlerEEUlRSE_jE_E5CountEv,comdat
	.align 2
	.p2align 4
	.weak	_ZNK8opendnp318BufferedCollectionINS_7IndexedINS_18AnalogOutputStatusEEEZNS_16CountIndexParser13InvokeCountOfINS_11Group42Var4EEEvRKNS_12HeaderRecordEtRKNS_9NumParserERKN7openpal6RSliceERNS_12IAPDUHandlerEEUlRSE_jE_E5CountEv
	.type	_ZNK8opendnp318BufferedCollectionINS_7IndexedINS_18AnalogOutputStatusEEEZNS_16CountIndexParser13InvokeCountOfINS_11Group42Var4EEEvRKNS_12HeaderRecordEtRKNS_9NumParserERKN7openpal6RSliceERNS_12IAPDUHandlerEEUlRSE_jE_E5CountEv, @function
_ZNK8opendnp318BufferedCollectionINS_7IndexedINS_18AnalogOutputStatusEEEZNS_16CountIndexParser13InvokeCountOfINS_11Group42Var4EEEvRKNS_12HeaderRecordEtRKNS_9NumParserERKN7openpal6RSliceERNS_12IAPDUHandlerEEUlRSE_jE_E5CountEv:
.LFB4010:
	.cfi_startproc
	endbr64
	movq	24(%rdi), %rax
	ret
	.cfi_endproc
.LFE4010:
	.size	_ZNK8opendnp318BufferedCollectionINS_7IndexedINS_18AnalogOutputStatusEEEZNS_16CountIndexParser13InvokeCountOfINS_11Group42Var4EEEvRKNS_12HeaderRecordEtRKNS_9NumParserERKN7openpal6RSliceERNS_12IAPDUHandlerEEUlRSE_jE_E5CountEv, .-_ZNK8opendnp318BufferedCollectionINS_7IndexedINS_18AnalogOutputStatusEEEZNS_16CountIndexParser13InvokeCountOfINS_11Group42Var4EEEvRKNS_12HeaderRecordEtRKNS_9NumParserERKN7openpal6RSliceERNS_12IAPDUHandlerEEUlRSE_jE_E5CountEv
	.section	.text._ZNK8opendnp318BufferedCollectionINS_7IndexedINS_18AnalogOutputStatusEEEZNS_16CountIndexParser13InvokeCountOfINS_11Group42Var3EEEvRKNS_12HeaderRecordEtRKNS_9NumParserERKN7openpal6RSliceERNS_12IAPDUHandlerEEUlRSE_jE_E5CountEv,"axG",@progbits,_ZNK8opendnp318BufferedCollectionINS_7IndexedINS_18AnalogOutputStatusEEEZNS_16CountIndexParser13InvokeCountOfINS_11Group42Var3EEEvRKNS_12HeaderRecordEtRKNS_9NumParserERKN7openpal6RSliceERNS_12IAPDUHandlerEEUlRSE_jE_E5CountEv,comdat
	.align 2
	.p2align 4
	.weak	_ZNK8opendnp318BufferedCollectionINS_7IndexedINS_18AnalogOutputStatusEEEZNS_16CountIndexParser13InvokeCountOfINS_11Group42Var3EEEvRKNS_12HeaderRecordEtRKNS_9NumParserERKN7openpal6RSliceERNS_12IAPDUHandlerEEUlRSE_jE_E5CountEv
	.type	_ZNK8opendnp318BufferedCollectionINS_7IndexedINS_18AnalogOutputStatusEEEZNS_16CountIndexParser13InvokeCountOfINS_11Group42Var3EEEvRKNS_12HeaderRecordEtRKNS_9NumParserERKN7openpal6RSliceERNS_12IAPDUHandlerEEUlRSE_jE_E5CountEv, @function
_ZNK8opendnp318BufferedCollectionINS_7IndexedINS_18AnalogOutputStatusEEEZNS_16CountIndexParser13InvokeCountOfINS_11Group42Var3EEEvRKNS_12HeaderRecordEtRKNS_9NumParserERKN7openpal6RSliceERNS_12IAPDUHandlerEEUlRSE_jE_E5CountEv:
.LFB4012:
	.cfi_startproc
	endbr64
	movq	24(%rdi), %rax
	ret
	.cfi_endproc
.LFE4012:
	.size	_ZNK8opendnp318BufferedCollectionINS_7IndexedINS_18AnalogOutputStatusEEEZNS_16CountIndexParser13InvokeCountOfINS_11Group42Var3EEEvRKNS_12HeaderRecordEtRKNS_9NumParserERKN7openpal6RSliceERNS_12IAPDUHandlerEEUlRSE_jE_E5CountEv, .-_ZNK8opendnp318BufferedCollectionINS_7IndexedINS_18AnalogOutputStatusEEEZNS_16CountIndexParser13InvokeCountOfINS_11Group42Var3EEEvRKNS_12HeaderRecordEtRKNS_9NumParserERKN7openpal6RSliceERNS_12IAPDUHandlerEEUlRSE_jE_E5CountEv
	.section	.text._ZNK8opendnp318BufferedCollectionINS_7IndexedINS_18AnalogOutputStatusEEEZNS_16CountIndexParser13InvokeCountOfINS_11Group42Var2EEEvRKNS_12HeaderRecordEtRKNS_9NumParserERKN7openpal6RSliceERNS_12IAPDUHandlerEEUlRSE_jE_E5CountEv,"axG",@progbits,_ZNK8opendnp318BufferedCollectionINS_7IndexedINS_18AnalogOutputStatusEEEZNS_16CountIndexParser13InvokeCountOfINS_11Group42Var2EEEvRKNS_12HeaderRecordEtRKNS_9NumParserERKN7openpal6RSliceERNS_12IAPDUHandlerEEUlRSE_jE_E5CountEv,comdat
	.align 2
	.p2align 4
	.weak	_ZNK8opendnp318BufferedCollectionINS_7IndexedINS_18AnalogOutputStatusEEEZNS_16CountIndexParser13InvokeCountOfINS_11Group42Var2EEEvRKNS_12HeaderRecordEtRKNS_9NumParserERKN7openpal6RSliceERNS_12IAPDUHandlerEEUlRSE_jE_E5CountEv
	.type	_ZNK8opendnp318BufferedCollectionINS_7IndexedINS_18AnalogOutputStatusEEEZNS_16CountIndexParser13InvokeCountOfINS_11Group42Var2EEEvRKNS_12HeaderRecordEtRKNS_9NumParserERKN7openpal6RSliceERNS_12IAPDUHandlerEEUlRSE_jE_E5CountEv, @function
_ZNK8opendnp318BufferedCollectionINS_7IndexedINS_18AnalogOutputStatusEEEZNS_16CountIndexParser13InvokeCountOfINS_11Group42Var2EEEvRKNS_12HeaderRecordEtRKNS_9NumParserERKN7openpal6RSliceERNS_12IAPDUHandlerEEUlRSE_jE_E5CountEv:
.LFB4014:
	.cfi_startproc
	endbr64
	movq	24(%rdi), %rax
	ret
	.cfi_endproc
.LFE4014:
	.size	_ZNK8opendnp318BufferedCollectionINS_7IndexedINS_18AnalogOutputStatusEEEZNS_16CountIndexParser13InvokeCountOfINS_11Group42Var2EEEvRKNS_12HeaderRecordEtRKNS_9NumParserERKN7openpal6RSliceERNS_12IAPDUHandlerEEUlRSE_jE_E5CountEv, .-_ZNK8opendnp318BufferedCollectionINS_7IndexedINS_18AnalogOutputStatusEEEZNS_16CountIndexParser13InvokeCountOfINS_11Group42Var2EEEvRKNS_12HeaderRecordEtRKNS_9NumParserERKN7openpal6RSliceERNS_12IAPDUHandlerEEUlRSE_jE_E5CountEv
	.section	.text._ZNK8opendnp318BufferedCollectionINS_7IndexedINS_18AnalogOutputStatusEEEZNS_16CountIndexParser13InvokeCountOfINS_11Group42Var1EEEvRKNS_12HeaderRecordEtRKNS_9NumParserERKN7openpal6RSliceERNS_12IAPDUHandlerEEUlRSE_jE_E5CountEv,"axG",@progbits,_ZNK8opendnp318BufferedCollectionINS_7IndexedINS_18AnalogOutputStatusEEEZNS_16CountIndexParser13InvokeCountOfINS_11Group42Var1EEEvRKNS_12HeaderRecordEtRKNS_9NumParserERKN7openpal6RSliceERNS_12IAPDUHandlerEEUlRSE_jE_E5CountEv,comdat
	.align 2
	.p2align 4
	.weak	_ZNK8opendnp318BufferedCollectionINS_7IndexedINS_18AnalogOutputStatusEEEZNS_16CountIndexParser13InvokeCountOfINS_11Group42Var1EEEvRKNS_12HeaderRecordEtRKNS_9NumParserERKN7openpal6RSliceERNS_12IAPDUHandlerEEUlRSE_jE_E5CountEv
	.type	_ZNK8opendnp318BufferedCollectionINS_7IndexedINS_18AnalogOutputStatusEEEZNS_16CountIndexParser13InvokeCountOfINS_11Group42Var1EEEvRKNS_12HeaderRecordEtRKNS_9NumParserERKN7openpal6RSliceERNS_12IAPDUHandlerEEUlRSE_jE_E5CountEv, @function
_ZNK8opendnp318BufferedCollectionINS_7IndexedINS_18AnalogOutputStatusEEEZNS_16CountIndexParser13InvokeCountOfINS_11Group42Var1EEEvRKNS_12HeaderRecordEtRKNS_9NumParserERKN7openpal6RSliceERNS_12IAPDUHandlerEEUlRSE_jE_E5CountEv:
.LFB4016:
	.cfi_startproc
	endbr64
	movq	24(%rdi), %rax
	ret
	.cfi_endproc
.LFE4016:
	.size	_ZNK8opendnp318BufferedCollectionINS_7IndexedINS_18AnalogOutputStatusEEEZNS_16CountIndexParser13InvokeCountOfINS_11Group42Var1EEEvRKNS_12HeaderRecordEtRKNS_9NumParserERKN7openpal6RSliceERNS_12IAPDUHandlerEEUlRSE_jE_E5CountEv, .-_ZNK8opendnp318BufferedCollectionINS_7IndexedINS_18AnalogOutputStatusEEEZNS_16CountIndexParser13InvokeCountOfINS_11Group42Var1EEEvRKNS_12HeaderRecordEtRKNS_9NumParserERKN7openpal6RSliceERNS_12IAPDUHandlerEEUlRSE_jE_E5CountEv
	.section	.text._ZNK8opendnp318BufferedCollectionINS_7IndexedINS_20AnalogOutputDouble64EEEZNS_16CountIndexParser13InvokeCountOfINS_11Group41Var4EEEvRKNS_12HeaderRecordEtRKNS_9NumParserERKN7openpal6RSliceERNS_12IAPDUHandlerEEUlRSE_jE_E5CountEv,"axG",@progbits,_ZNK8opendnp318BufferedCollectionINS_7IndexedINS_20AnalogOutputDouble64EEEZNS_16CountIndexParser13InvokeCountOfINS_11Group41Var4EEEvRKNS_12HeaderRecordEtRKNS_9NumParserERKN7openpal6RSliceERNS_12IAPDUHandlerEEUlRSE_jE_E5CountEv,comdat
	.align 2
	.p2align 4
	.weak	_ZNK8opendnp318BufferedCollectionINS_7IndexedINS_20AnalogOutputDouble64EEEZNS_16CountIndexParser13InvokeCountOfINS_11Group41Var4EEEvRKNS_12HeaderRecordEtRKNS_9NumParserERKN7openpal6RSliceERNS_12IAPDUHandlerEEUlRSE_jE_E5CountEv
	.type	_ZNK8opendnp318BufferedCollectionINS_7IndexedINS_20AnalogOutputDouble64EEEZNS_16CountIndexParser13InvokeCountOfINS_11Group41Var4EEEvRKNS_12HeaderRecordEtRKNS_9NumParserERKN7openpal6RSliceERNS_12IAPDUHandlerEEUlRSE_jE_E5CountEv, @function
_ZNK8opendnp318BufferedCollectionINS_7IndexedINS_20AnalogOutputDouble64EEEZNS_16CountIndexParser13InvokeCountOfINS_11Group41Var4EEEvRKNS_12HeaderRecordEtRKNS_9NumParserERKN7openpal6RSliceERNS_12IAPDUHandlerEEUlRSE_jE_E5CountEv:
.LFB4018:
	.cfi_startproc
	endbr64
	movq	24(%rdi), %rax
	ret
	.cfi_endproc
.LFE4018:
	.size	_ZNK8opendnp318BufferedCollectionINS_7IndexedINS_20AnalogOutputDouble64EEEZNS_16CountIndexParser13InvokeCountOfINS_11Group41Var4EEEvRKNS_12HeaderRecordEtRKNS_9NumParserERKN7openpal6RSliceERNS_12IAPDUHandlerEEUlRSE_jE_E5CountEv, .-_ZNK8opendnp318BufferedCollectionINS_7IndexedINS_20AnalogOutputDouble64EEEZNS_16CountIndexParser13InvokeCountOfINS_11Group41Var4EEEvRKNS_12HeaderRecordEtRKNS_9NumParserERKN7openpal6RSliceERNS_12IAPDUHandlerEEUlRSE_jE_E5CountEv
	.section	.text._ZNK8opendnp318BufferedCollectionINS_7IndexedINS_19AnalogOutputFloat32EEEZNS_16CountIndexParser13InvokeCountOfINS_11Group41Var3EEEvRKNS_12HeaderRecordEtRKNS_9NumParserERKN7openpal6RSliceERNS_12IAPDUHandlerEEUlRSE_jE_E5CountEv,"axG",@progbits,_ZNK8opendnp318BufferedCollectionINS_7IndexedINS_19AnalogOutputFloat32EEEZNS_16CountIndexParser13InvokeCountOfINS_11Group41Var3EEEvRKNS_12HeaderRecordEtRKNS_9NumParserERKN7openpal6RSliceERNS_12IAPDUHandlerEEUlRSE_jE_E5CountEv,comdat
	.align 2
	.p2align 4
	.weak	_ZNK8opendnp318BufferedCollectionINS_7IndexedINS_19AnalogOutputFloat32EEEZNS_16CountIndexParser13InvokeCountOfINS_11Group41Var3EEEvRKNS_12HeaderRecordEtRKNS_9NumParserERKN7openpal6RSliceERNS_12IAPDUHandlerEEUlRSE_jE_E5CountEv
	.type	_ZNK8opendnp318BufferedCollectionINS_7IndexedINS_19AnalogOutputFloat32EEEZNS_16CountIndexParser13InvokeCountOfINS_11Group41Var3EEEvRKNS_12HeaderRecordEtRKNS_9NumParserERKN7openpal6RSliceERNS_12IAPDUHandlerEEUlRSE_jE_E5CountEv, @function
_ZNK8opendnp318BufferedCollectionINS_7IndexedINS_19AnalogOutputFloat32EEEZNS_16CountIndexParser13InvokeCountOfINS_11Group41Var3EEEvRKNS_12HeaderRecordEtRKNS_9NumParserERKN7openpal6RSliceERNS_12IAPDUHandlerEEUlRSE_jE_E5CountEv:
.LFB4020:
	.cfi_startproc
	endbr64
	movq	24(%rdi), %rax
	ret
	.cfi_endproc
.LFE4020:
	.size	_ZNK8opendnp318BufferedCollectionINS_7IndexedINS_19AnalogOutputFloat32EEEZNS_16CountIndexParser13InvokeCountOfINS_11Group41Var3EEEvRKNS_12HeaderRecordEtRKNS_9NumParserERKN7openpal6RSliceERNS_12IAPDUHandlerEEUlRSE_jE_E5CountEv, .-_ZNK8opendnp318BufferedCollectionINS_7IndexedINS_19AnalogOutputFloat32EEEZNS_16CountIndexParser13InvokeCountOfINS_11Group41Var3EEEvRKNS_12HeaderRecordEtRKNS_9NumParserERKN7openpal6RSliceERNS_12IAPDUHandlerEEUlRSE_jE_E5CountEv
	.section	.text._ZNK8opendnp318BufferedCollectionINS_7IndexedINS_17AnalogOutputInt16EEEZNS_16CountIndexParser13InvokeCountOfINS_11Group41Var2EEEvRKNS_12HeaderRecordEtRKNS_9NumParserERKN7openpal6RSliceERNS_12IAPDUHandlerEEUlRSE_jE_E5CountEv,"axG",@progbits,_ZNK8opendnp318BufferedCollectionINS_7IndexedINS_17AnalogOutputInt16EEEZNS_16CountIndexParser13InvokeCountOfINS_11Group41Var2EEEvRKNS_12HeaderRecordEtRKNS_9NumParserERKN7openpal6RSliceERNS_12IAPDUHandlerEEUlRSE_jE_E5CountEv,comdat
	.align 2
	.p2align 4
	.weak	_ZNK8opendnp318BufferedCollectionINS_7IndexedINS_17AnalogOutputInt16EEEZNS_16CountIndexParser13InvokeCountOfINS_11Group41Var2EEEvRKNS_12HeaderRecordEtRKNS_9NumParserERKN7openpal6RSliceERNS_12IAPDUHandlerEEUlRSE_jE_E5CountEv
	.type	_ZNK8opendnp318BufferedCollectionINS_7IndexedINS_17AnalogOutputInt16EEEZNS_16CountIndexParser13InvokeCountOfINS_11Group41Var2EEEvRKNS_12HeaderRecordEtRKNS_9NumParserERKN7openpal6RSliceERNS_12IAPDUHandlerEEUlRSE_jE_E5CountEv, @function
_ZNK8opendnp318BufferedCollectionINS_7IndexedINS_17AnalogOutputInt16EEEZNS_16CountIndexParser13InvokeCountOfINS_11Group41Var2EEEvRKNS_12HeaderRecordEtRKNS_9NumParserERKN7openpal6RSliceERNS_12IAPDUHandlerEEUlRSE_jE_E5CountEv:
.LFB4022:
	.cfi_startproc
	endbr64
	movq	24(%rdi), %rax
	ret
	.cfi_endproc
.LFE4022:
	.size	_ZNK8opendnp318BufferedCollectionINS_7IndexedINS_17AnalogOutputInt16EEEZNS_16CountIndexParser13InvokeCountOfINS_11Group41Var2EEEvRKNS_12HeaderRecordEtRKNS_9NumParserERKN7openpal6RSliceERNS_12IAPDUHandlerEEUlRSE_jE_E5CountEv, .-_ZNK8opendnp318BufferedCollectionINS_7IndexedINS_17AnalogOutputInt16EEEZNS_16CountIndexParser13InvokeCountOfINS_11Group41Var2EEEvRKNS_12HeaderRecordEtRKNS_9NumParserERKN7openpal6RSliceERNS_12IAPDUHandlerEEUlRSE_jE_E5CountEv
	.section	.text._ZNK8opendnp318BufferedCollectionINS_7IndexedINS_17AnalogOutputInt32EEEZNS_16CountIndexParser13InvokeCountOfINS_11Group41Var1EEEvRKNS_12HeaderRecordEtRKNS_9NumParserERKN7openpal6RSliceERNS_12IAPDUHandlerEEUlRSE_jE_E5CountEv,"axG",@progbits,_ZNK8opendnp318BufferedCollectionINS_7IndexedINS_17AnalogOutputInt32EEEZNS_16CountIndexParser13InvokeCountOfINS_11Group41Var1EEEvRKNS_12HeaderRecordEtRKNS_9NumParserERKN7openpal6RSliceERNS_12IAPDUHandlerEEUlRSE_jE_E5CountEv,comdat
	.align 2
	.p2align 4
	.weak	_ZNK8opendnp318BufferedCollectionINS_7IndexedINS_17AnalogOutputInt32EEEZNS_16CountIndexParser13InvokeCountOfINS_11Group41Var1EEEvRKNS_12HeaderRecordEtRKNS_9NumParserERKN7openpal6RSliceERNS_12IAPDUHandlerEEUlRSE_jE_E5CountEv
	.type	_ZNK8opendnp318BufferedCollectionINS_7IndexedINS_17AnalogOutputInt32EEEZNS_16CountIndexParser13InvokeCountOfINS_11Group41Var1EEEvRKNS_12HeaderRecordEtRKNS_9NumParserERKN7openpal6RSliceERNS_12IAPDUHandlerEEUlRSE_jE_E5CountEv, @function
_ZNK8opendnp318BufferedCollectionINS_7IndexedINS_17AnalogOutputInt32EEEZNS_16CountIndexParser13InvokeCountOfINS_11Group41Var1EEEvRKNS_12HeaderRecordEtRKNS_9NumParserERKN7openpal6RSliceERNS_12IAPDUHandlerEEUlRSE_jE_E5CountEv:
.LFB4024:
	.cfi_startproc
	endbr64
	movq	24(%rdi), %rax
	ret
	.cfi_endproc
.LFE4024:
	.size	_ZNK8opendnp318BufferedCollectionINS_7IndexedINS_17AnalogOutputInt32EEEZNS_16CountIndexParser13InvokeCountOfINS_11Group41Var1EEEvRKNS_12HeaderRecordEtRKNS_9NumParserERKN7openpal6RSliceERNS_12IAPDUHandlerEEUlRSE_jE_E5CountEv, .-_ZNK8opendnp318BufferedCollectionINS_7IndexedINS_17AnalogOutputInt32EEEZNS_16CountIndexParser13InvokeCountOfINS_11Group41Var1EEEvRKNS_12HeaderRecordEtRKNS_9NumParserERKN7openpal6RSliceERNS_12IAPDUHandlerEEUlRSE_jE_E5CountEv
	.section	.text._ZNK8opendnp318BufferedCollectionINS_7IndexedINS_6AnalogEEEZNS_16CountIndexParser13InvokeCountOfINS_11Group32Var8EEEvRKNS_12HeaderRecordEtRKNS_9NumParserERKN7openpal6RSliceERNS_12IAPDUHandlerEEUlRSE_jE_E5CountEv,"axG",@progbits,_ZNK8opendnp318BufferedCollectionINS_7IndexedINS_6AnalogEEEZNS_16CountIndexParser13InvokeCountOfINS_11Group32Var8EEEvRKNS_12HeaderRecordEtRKNS_9NumParserERKN7openpal6RSliceERNS_12IAPDUHandlerEEUlRSE_jE_E5CountEv,comdat
	.align 2
	.p2align 4
	.weak	_ZNK8opendnp318BufferedCollectionINS_7IndexedINS_6AnalogEEEZNS_16CountIndexParser13InvokeCountOfINS_11Group32Var8EEEvRKNS_12HeaderRecordEtRKNS_9NumParserERKN7openpal6RSliceERNS_12IAPDUHandlerEEUlRSE_jE_E5CountEv
	.type	_ZNK8opendnp318BufferedCollectionINS_7IndexedINS_6AnalogEEEZNS_16CountIndexParser13InvokeCountOfINS_11Group32Var8EEEvRKNS_12HeaderRecordEtRKNS_9NumParserERKN7openpal6RSliceERNS_12IAPDUHandlerEEUlRSE_jE_E5CountEv, @function
_ZNK8opendnp318BufferedCollectionINS_7IndexedINS_6AnalogEEEZNS_16CountIndexParser13InvokeCountOfINS_11Group32Var8EEEvRKNS_12HeaderRecordEtRKNS_9NumParserERKN7openpal6RSliceERNS_12IAPDUHandlerEEUlRSE_jE_E5CountEv:
.LFB4026:
	.cfi_startproc
	endbr64
	movq	24(%rdi), %rax
	ret
	.cfi_endproc
.LFE4026:
	.size	_ZNK8opendnp318BufferedCollectionINS_7IndexedINS_6AnalogEEEZNS_16CountIndexParser13InvokeCountOfINS_11Group32Var8EEEvRKNS_12HeaderRecordEtRKNS_9NumParserERKN7openpal6RSliceERNS_12IAPDUHandlerEEUlRSE_jE_E5CountEv, .-_ZNK8opendnp318BufferedCollectionINS_7IndexedINS_6AnalogEEEZNS_16CountIndexParser13InvokeCountOfINS_11Group32Var8EEEvRKNS_12HeaderRecordEtRKNS_9NumParserERKN7openpal6RSliceERNS_12IAPDUHandlerEEUlRSE_jE_E5CountEv
	.section	.text._ZNK8opendnp318BufferedCollectionINS_7IndexedINS_6AnalogEEEZNS_16CountIndexParser13InvokeCountOfINS_11Group32Var7EEEvRKNS_12HeaderRecordEtRKNS_9NumParserERKN7openpal6RSliceERNS_12IAPDUHandlerEEUlRSE_jE_E5CountEv,"axG",@progbits,_ZNK8opendnp318BufferedCollectionINS_7IndexedINS_6AnalogEEEZNS_16CountIndexParser13InvokeCountOfINS_11Group32Var7EEEvRKNS_12HeaderRecordEtRKNS_9NumParserERKN7openpal6RSliceERNS_12IAPDUHandlerEEUlRSE_jE_E5CountEv,comdat
	.align 2
	.p2align 4
	.weak	_ZNK8opendnp318BufferedCollectionINS_7IndexedINS_6AnalogEEEZNS_16CountIndexParser13InvokeCountOfINS_11Group32Var7EEEvRKNS_12HeaderRecordEtRKNS_9NumParserERKN7openpal6RSliceERNS_12IAPDUHandlerEEUlRSE_jE_E5CountEv
	.type	_ZNK8opendnp318BufferedCollectionINS_7IndexedINS_6AnalogEEEZNS_16CountIndexParser13InvokeCountOfINS_11Group32Var7EEEvRKNS_12HeaderRecordEtRKNS_9NumParserERKN7openpal6RSliceERNS_12IAPDUHandlerEEUlRSE_jE_E5CountEv, @function
_ZNK8opendnp318BufferedCollectionINS_7IndexedINS_6AnalogEEEZNS_16CountIndexParser13InvokeCountOfINS_11Group32Var7EEEvRKNS_12HeaderRecordEtRKNS_9NumParserERKN7openpal6RSliceERNS_12IAPDUHandlerEEUlRSE_jE_E5CountEv:
.LFB4028:
	.cfi_startproc
	endbr64
	movq	24(%rdi), %rax
	ret
	.cfi_endproc
.LFE4028:
	.size	_ZNK8opendnp318BufferedCollectionINS_7IndexedINS_6AnalogEEEZNS_16CountIndexParser13InvokeCountOfINS_11Group32Var7EEEvRKNS_12HeaderRecordEtRKNS_9NumParserERKN7openpal6RSliceERNS_12IAPDUHandlerEEUlRSE_jE_E5CountEv, .-_ZNK8opendnp318BufferedCollectionINS_7IndexedINS_6AnalogEEEZNS_16CountIndexParser13InvokeCountOfINS_11Group32Var7EEEvRKNS_12HeaderRecordEtRKNS_9NumParserERKN7openpal6RSliceERNS_12IAPDUHandlerEEUlRSE_jE_E5CountEv
	.section	.text._ZNK8opendnp318BufferedCollectionINS_7IndexedINS_6AnalogEEEZNS_16CountIndexParser13InvokeCountOfINS_11Group32Var6EEEvRKNS_12HeaderRecordEtRKNS_9NumParserERKN7openpal6RSliceERNS_12IAPDUHandlerEEUlRSE_jE_E5CountEv,"axG",@progbits,_ZNK8opendnp318BufferedCollectionINS_7IndexedINS_6AnalogEEEZNS_16CountIndexParser13InvokeCountOfINS_11Group32Var6EEEvRKNS_12HeaderRecordEtRKNS_9NumParserERKN7openpal6RSliceERNS_12IAPDUHandlerEEUlRSE_jE_E5CountEv,comdat
	.align 2
	.p2align 4
	.weak	_ZNK8opendnp318BufferedCollectionINS_7IndexedINS_6AnalogEEEZNS_16CountIndexParser13InvokeCountOfINS_11Group32Var6EEEvRKNS_12HeaderRecordEtRKNS_9NumParserERKN7openpal6RSliceERNS_12IAPDUHandlerEEUlRSE_jE_E5CountEv
	.type	_ZNK8opendnp318BufferedCollectionINS_7IndexedINS_6AnalogEEEZNS_16CountIndexParser13InvokeCountOfINS_11Group32Var6EEEvRKNS_12HeaderRecordEtRKNS_9NumParserERKN7openpal6RSliceERNS_12IAPDUHandlerEEUlRSE_jE_E5CountEv, @function
_ZNK8opendnp318BufferedCollectionINS_7IndexedINS_6AnalogEEEZNS_16CountIndexParser13InvokeCountOfINS_11Group32Var6EEEvRKNS_12HeaderRecordEtRKNS_9NumParserERKN7openpal6RSliceERNS_12IAPDUHandlerEEUlRSE_jE_E5CountEv:
.LFB4030:
	.cfi_startproc
	endbr64
	movq	24(%rdi), %rax
	ret
	.cfi_endproc
.LFE4030:
	.size	_ZNK8opendnp318BufferedCollectionINS_7IndexedINS_6AnalogEEEZNS_16CountIndexParser13InvokeCountOfINS_11Group32Var6EEEvRKNS_12HeaderRecordEtRKNS_9NumParserERKN7openpal6RSliceERNS_12IAPDUHandlerEEUlRSE_jE_E5CountEv, .-_ZNK8opendnp318BufferedCollectionINS_7IndexedINS_6AnalogEEEZNS_16CountIndexParser13InvokeCountOfINS_11Group32Var6EEEvRKNS_12HeaderRecordEtRKNS_9NumParserERKN7openpal6RSliceERNS_12IAPDUHandlerEEUlRSE_jE_E5CountEv
	.section	.text._ZNK8opendnp318BufferedCollectionINS_7IndexedINS_6AnalogEEEZNS_16CountIndexParser13InvokeCountOfINS_11Group32Var5EEEvRKNS_12HeaderRecordEtRKNS_9NumParserERKN7openpal6RSliceERNS_12IAPDUHandlerEEUlRSE_jE_E5CountEv,"axG",@progbits,_ZNK8opendnp318BufferedCollectionINS_7IndexedINS_6AnalogEEEZNS_16CountIndexParser13InvokeCountOfINS_11Group32Var5EEEvRKNS_12HeaderRecordEtRKNS_9NumParserERKN7openpal6RSliceERNS_12IAPDUHandlerEEUlRSE_jE_E5CountEv,comdat
	.align 2
	.p2align 4
	.weak	_ZNK8opendnp318BufferedCollectionINS_7IndexedINS_6AnalogEEEZNS_16CountIndexParser13InvokeCountOfINS_11Group32Var5EEEvRKNS_12HeaderRecordEtRKNS_9NumParserERKN7openpal6RSliceERNS_12IAPDUHandlerEEUlRSE_jE_E5CountEv
	.type	_ZNK8opendnp318BufferedCollectionINS_7IndexedINS_6AnalogEEEZNS_16CountIndexParser13InvokeCountOfINS_11Group32Var5EEEvRKNS_12HeaderRecordEtRKNS_9NumParserERKN7openpal6RSliceERNS_12IAPDUHandlerEEUlRSE_jE_E5CountEv, @function
_ZNK8opendnp318BufferedCollectionINS_7IndexedINS_6AnalogEEEZNS_16CountIndexParser13InvokeCountOfINS_11Group32Var5EEEvRKNS_12HeaderRecordEtRKNS_9NumParserERKN7openpal6RSliceERNS_12IAPDUHandlerEEUlRSE_jE_E5CountEv:
.LFB4032:
	.cfi_startproc
	endbr64
	movq	24(%rdi), %rax
	ret
	.cfi_endproc
.LFE4032:
	.size	_ZNK8opendnp318BufferedCollectionINS_7IndexedINS_6AnalogEEEZNS_16CountIndexParser13InvokeCountOfINS_11Group32Var5EEEvRKNS_12HeaderRecordEtRKNS_9NumParserERKN7openpal6RSliceERNS_12IAPDUHandlerEEUlRSE_jE_E5CountEv, .-_ZNK8opendnp318BufferedCollectionINS_7IndexedINS_6AnalogEEEZNS_16CountIndexParser13InvokeCountOfINS_11Group32Var5EEEvRKNS_12HeaderRecordEtRKNS_9NumParserERKN7openpal6RSliceERNS_12IAPDUHandlerEEUlRSE_jE_E5CountEv
	.section	.text._ZNK8opendnp318BufferedCollectionINS_7IndexedINS_6AnalogEEEZNS_16CountIndexParser13InvokeCountOfINS_11Group32Var4EEEvRKNS_12HeaderRecordEtRKNS_9NumParserERKN7openpal6RSliceERNS_12IAPDUHandlerEEUlRSE_jE_E5CountEv,"axG",@progbits,_ZNK8opendnp318BufferedCollectionINS_7IndexedINS_6AnalogEEEZNS_16CountIndexParser13InvokeCountOfINS_11Group32Var4EEEvRKNS_12HeaderRecordEtRKNS_9NumParserERKN7openpal6RSliceERNS_12IAPDUHandlerEEUlRSE_jE_E5CountEv,comdat
	.align 2
	.p2align 4
	.weak	_ZNK8opendnp318BufferedCollectionINS_7IndexedINS_6AnalogEEEZNS_16CountIndexParser13InvokeCountOfINS_11Group32Var4EEEvRKNS_12HeaderRecordEtRKNS_9NumParserERKN7openpal6RSliceERNS_12IAPDUHandlerEEUlRSE_jE_E5CountEv
	.type	_ZNK8opendnp318BufferedCollectionINS_7IndexedINS_6AnalogEEEZNS_16CountIndexParser13InvokeCountOfINS_11Group32Var4EEEvRKNS_12HeaderRecordEtRKNS_9NumParserERKN7openpal6RSliceERNS_12IAPDUHandlerEEUlRSE_jE_E5CountEv, @function
_ZNK8opendnp318BufferedCollectionINS_7IndexedINS_6AnalogEEEZNS_16CountIndexParser13InvokeCountOfINS_11Group32Var4EEEvRKNS_12HeaderRecordEtRKNS_9NumParserERKN7openpal6RSliceERNS_12IAPDUHandlerEEUlRSE_jE_E5CountEv:
.LFB4034:
	.cfi_startproc
	endbr64
	movq	24(%rdi), %rax
	ret
	.cfi_endproc
.LFE4034:
	.size	_ZNK8opendnp318BufferedCollectionINS_7IndexedINS_6AnalogEEEZNS_16CountIndexParser13InvokeCountOfINS_11Group32Var4EEEvRKNS_12HeaderRecordEtRKNS_9NumParserERKN7openpal6RSliceERNS_12IAPDUHandlerEEUlRSE_jE_E5CountEv, .-_ZNK8opendnp318BufferedCollectionINS_7IndexedINS_6AnalogEEEZNS_16CountIndexParser13InvokeCountOfINS_11Group32Var4EEEvRKNS_12HeaderRecordEtRKNS_9NumParserERKN7openpal6RSliceERNS_12IAPDUHandlerEEUlRSE_jE_E5CountEv
	.section	.text._ZNK8opendnp318BufferedCollectionINS_7IndexedINS_6AnalogEEEZNS_16CountIndexParser13InvokeCountOfINS_11Group32Var3EEEvRKNS_12HeaderRecordEtRKNS_9NumParserERKN7openpal6RSliceERNS_12IAPDUHandlerEEUlRSE_jE_E5CountEv,"axG",@progbits,_ZNK8opendnp318BufferedCollectionINS_7IndexedINS_6AnalogEEEZNS_16CountIndexParser13InvokeCountOfINS_11Group32Var3EEEvRKNS_12HeaderRecordEtRKNS_9NumParserERKN7openpal6RSliceERNS_12IAPDUHandlerEEUlRSE_jE_E5CountEv,comdat
	.align 2
	.p2align 4
	.weak	_ZNK8opendnp318BufferedCollectionINS_7IndexedINS_6AnalogEEEZNS_16CountIndexParser13InvokeCountOfINS_11Group32Var3EEEvRKNS_12HeaderRecordEtRKNS_9NumParserERKN7openpal6RSliceERNS_12IAPDUHandlerEEUlRSE_jE_E5CountEv
	.type	_ZNK8opendnp318BufferedCollectionINS_7IndexedINS_6AnalogEEEZNS_16CountIndexParser13InvokeCountOfINS_11Group32Var3EEEvRKNS_12HeaderRecordEtRKNS_9NumParserERKN7openpal6RSliceERNS_12IAPDUHandlerEEUlRSE_jE_E5CountEv, @function
_ZNK8opendnp318BufferedCollectionINS_7IndexedINS_6AnalogEEEZNS_16CountIndexParser13InvokeCountOfINS_11Group32Var3EEEvRKNS_12HeaderRecordEtRKNS_9NumParserERKN7openpal6RSliceERNS_12IAPDUHandlerEEUlRSE_jE_E5CountEv:
.LFB4036:
	.cfi_startproc
	endbr64
	movq	24(%rdi), %rax
	ret
	.cfi_endproc
.LFE4036:
	.size	_ZNK8opendnp318BufferedCollectionINS_7IndexedINS_6AnalogEEEZNS_16CountIndexParser13InvokeCountOfINS_11Group32Var3EEEvRKNS_12HeaderRecordEtRKNS_9NumParserERKN7openpal6RSliceERNS_12IAPDUHandlerEEUlRSE_jE_E5CountEv, .-_ZNK8opendnp318BufferedCollectionINS_7IndexedINS_6AnalogEEEZNS_16CountIndexParser13InvokeCountOfINS_11Group32Var3EEEvRKNS_12HeaderRecordEtRKNS_9NumParserERKN7openpal6RSliceERNS_12IAPDUHandlerEEUlRSE_jE_E5CountEv
	.section	.text._ZNK8opendnp318BufferedCollectionINS_7IndexedINS_6AnalogEEEZNS_16CountIndexParser13InvokeCountOfINS_11Group32Var2EEEvRKNS_12HeaderRecordEtRKNS_9NumParserERKN7openpal6RSliceERNS_12IAPDUHandlerEEUlRSE_jE_E5CountEv,"axG",@progbits,_ZNK8opendnp318BufferedCollectionINS_7IndexedINS_6AnalogEEEZNS_16CountIndexParser13InvokeCountOfINS_11Group32Var2EEEvRKNS_12HeaderRecordEtRKNS_9NumParserERKN7openpal6RSliceERNS_12IAPDUHandlerEEUlRSE_jE_E5CountEv,comdat
	.align 2
	.p2align 4
	.weak	_ZNK8opendnp318BufferedCollectionINS_7IndexedINS_6AnalogEEEZNS_16CountIndexParser13InvokeCountOfINS_11Group32Var2EEEvRKNS_12HeaderRecordEtRKNS_9NumParserERKN7openpal6RSliceERNS_12IAPDUHandlerEEUlRSE_jE_E5CountEv
	.type	_ZNK8opendnp318BufferedCollectionINS_7IndexedINS_6AnalogEEEZNS_16CountIndexParser13InvokeCountOfINS_11Group32Var2EEEvRKNS_12HeaderRecordEtRKNS_9NumParserERKN7openpal6RSliceERNS_12IAPDUHandlerEEUlRSE_jE_E5CountEv, @function
_ZNK8opendnp318BufferedCollectionINS_7IndexedINS_6AnalogEEEZNS_16CountIndexParser13InvokeCountOfINS_11Group32Var2EEEvRKNS_12HeaderRecordEtRKNS_9NumParserERKN7openpal6RSliceERNS_12IAPDUHandlerEEUlRSE_jE_E5CountEv:
.LFB4038:
	.cfi_startproc
	endbr64
	movq	24(%rdi), %rax
	ret
	.cfi_endproc
.LFE4038:
	.size	_ZNK8opendnp318BufferedCollectionINS_7IndexedINS_6AnalogEEEZNS_16CountIndexParser13InvokeCountOfINS_11Group32Var2EEEvRKNS_12HeaderRecordEtRKNS_9NumParserERKN7openpal6RSliceERNS_12IAPDUHandlerEEUlRSE_jE_E5CountEv, .-_ZNK8opendnp318BufferedCollectionINS_7IndexedINS_6AnalogEEEZNS_16CountIndexParser13InvokeCountOfINS_11Group32Var2EEEvRKNS_12HeaderRecordEtRKNS_9NumParserERKN7openpal6RSliceERNS_12IAPDUHandlerEEUlRSE_jE_E5CountEv
	.section	.text._ZNK8opendnp318BufferedCollectionINS_7IndexedINS_6AnalogEEEZNS_16CountIndexParser13InvokeCountOfINS_11Group32Var1EEEvRKNS_12HeaderRecordEtRKNS_9NumParserERKN7openpal6RSliceERNS_12IAPDUHandlerEEUlRSE_jE_E5CountEv,"axG",@progbits,_ZNK8opendnp318BufferedCollectionINS_7IndexedINS_6AnalogEEEZNS_16CountIndexParser13InvokeCountOfINS_11Group32Var1EEEvRKNS_12HeaderRecordEtRKNS_9NumParserERKN7openpal6RSliceERNS_12IAPDUHandlerEEUlRSE_jE_E5CountEv,comdat
	.align 2
	.p2align 4
	.weak	_ZNK8opendnp318BufferedCollectionINS_7IndexedINS_6AnalogEEEZNS_16CountIndexParser13InvokeCountOfINS_11Group32Var1EEEvRKNS_12HeaderRecordEtRKNS_9NumParserERKN7openpal6RSliceERNS_12IAPDUHandlerEEUlRSE_jE_E5CountEv
	.type	_ZNK8opendnp318BufferedCollectionINS_7IndexedINS_6AnalogEEEZNS_16CountIndexParser13InvokeCountOfINS_11Group32Var1EEEvRKNS_12HeaderRecordEtRKNS_9NumParserERKN7openpal6RSliceERNS_12IAPDUHandlerEEUlRSE_jE_E5CountEv, @function
_ZNK8opendnp318BufferedCollectionINS_7IndexedINS_6AnalogEEEZNS_16CountIndexParser13InvokeCountOfINS_11Group32Var1EEEvRKNS_12HeaderRecordEtRKNS_9NumParserERKN7openpal6RSliceERNS_12IAPDUHandlerEEUlRSE_jE_E5CountEv:
.LFB4040:
	.cfi_startproc
	endbr64
	movq	24(%rdi), %rax
	ret
	.cfi_endproc
.LFE4040:
	.size	_ZNK8opendnp318BufferedCollectionINS_7IndexedINS_6AnalogEEEZNS_16CountIndexParser13InvokeCountOfINS_11Group32Var1EEEvRKNS_12HeaderRecordEtRKNS_9NumParserERKN7openpal6RSliceERNS_12IAPDUHandlerEEUlRSE_jE_E5CountEv, .-_ZNK8opendnp318BufferedCollectionINS_7IndexedINS_6AnalogEEEZNS_16CountIndexParser13InvokeCountOfINS_11Group32Var1EEEvRKNS_12HeaderRecordEtRKNS_9NumParserERKN7openpal6RSliceERNS_12IAPDUHandlerEEUlRSE_jE_E5CountEv
	.section	.text._ZNK8opendnp318BufferedCollectionINS_7IndexedINS_13FrozenCounterEEEZNS_16CountIndexParser13InvokeCountOfINS_11Group23Var6EEEvRKNS_12HeaderRecordEtRKNS_9NumParserERKN7openpal6RSliceERNS_12IAPDUHandlerEEUlRSE_jE_E5CountEv,"axG",@progbits,_ZNK8opendnp318BufferedCollectionINS_7IndexedINS_13FrozenCounterEEEZNS_16CountIndexParser13InvokeCountOfINS_11Group23Var6EEEvRKNS_12HeaderRecordEtRKNS_9NumParserERKN7openpal6RSliceERNS_12IAPDUHandlerEEUlRSE_jE_E5CountEv,comdat
	.align 2
	.p2align 4
	.weak	_ZNK8opendnp318BufferedCollectionINS_7IndexedINS_13FrozenCounterEEEZNS_16CountIndexParser13InvokeCountOfINS_11Group23Var6EEEvRKNS_12HeaderRecordEtRKNS_9NumParserERKN7openpal6RSliceERNS_12IAPDUHandlerEEUlRSE_jE_E5CountEv
	.type	_ZNK8opendnp318BufferedCollectionINS_7IndexedINS_13FrozenCounterEEEZNS_16CountIndexParser13InvokeCountOfINS_11Group23Var6EEEvRKNS_12HeaderRecordEtRKNS_9NumParserERKN7openpal6RSliceERNS_12IAPDUHandlerEEUlRSE_jE_E5CountEv, @function
_ZNK8opendnp318BufferedCollectionINS_7IndexedINS_13FrozenCounterEEEZNS_16CountIndexParser13InvokeCountOfINS_11Group23Var6EEEvRKNS_12HeaderRecordEtRKNS_9NumParserERKN7openpal6RSliceERNS_12IAPDUHandlerEEUlRSE_jE_E5CountEv:
.LFB4042:
	.cfi_startproc
	endbr64
	movq	24(%rdi), %rax
	ret
	.cfi_endproc
.LFE4042:
	.size	_ZNK8opendnp318BufferedCollectionINS_7IndexedINS_13FrozenCounterEEEZNS_16CountIndexParser13InvokeCountOfINS_11Group23Var6EEEvRKNS_12HeaderRecordEtRKNS_9NumParserERKN7openpal6RSliceERNS_12IAPDUHandlerEEUlRSE_jE_E5CountEv, .-_ZNK8opendnp318BufferedCollectionINS_7IndexedINS_13FrozenCounterEEEZNS_16CountIndexParser13InvokeCountOfINS_11Group23Var6EEEvRKNS_12HeaderRecordEtRKNS_9NumParserERKN7openpal6RSliceERNS_12IAPDUHandlerEEUlRSE_jE_E5CountEv
	.section	.text._ZNK8opendnp318BufferedCollectionINS_7IndexedINS_13FrozenCounterEEEZNS_16CountIndexParser13InvokeCountOfINS_11Group23Var5EEEvRKNS_12HeaderRecordEtRKNS_9NumParserERKN7openpal6RSliceERNS_12IAPDUHandlerEEUlRSE_jE_E5CountEv,"axG",@progbits,_ZNK8opendnp318BufferedCollectionINS_7IndexedINS_13FrozenCounterEEEZNS_16CountIndexParser13InvokeCountOfINS_11Group23Var5EEEvRKNS_12HeaderRecordEtRKNS_9NumParserERKN7openpal6RSliceERNS_12IAPDUHandlerEEUlRSE_jE_E5CountEv,comdat
	.align 2
	.p2align 4
	.weak	_ZNK8opendnp318BufferedCollectionINS_7IndexedINS_13FrozenCounterEEEZNS_16CountIndexParser13InvokeCountOfINS_11Group23Var5EEEvRKNS_12HeaderRecordEtRKNS_9NumParserERKN7openpal6RSliceERNS_12IAPDUHandlerEEUlRSE_jE_E5CountEv
	.type	_ZNK8opendnp318BufferedCollectionINS_7IndexedINS_13FrozenCounterEEEZNS_16CountIndexParser13InvokeCountOfINS_11Group23Var5EEEvRKNS_12HeaderRecordEtRKNS_9NumParserERKN7openpal6RSliceERNS_12IAPDUHandlerEEUlRSE_jE_E5CountEv, @function
_ZNK8opendnp318BufferedCollectionINS_7IndexedINS_13FrozenCounterEEEZNS_16CountIndexParser13InvokeCountOfINS_11Group23Var5EEEvRKNS_12HeaderRecordEtRKNS_9NumParserERKN7openpal6RSliceERNS_12IAPDUHandlerEEUlRSE_jE_E5CountEv:
.LFB4044:
	.cfi_startproc
	endbr64
	movq	24(%rdi), %rax
	ret
	.cfi_endproc
.LFE4044:
	.size	_ZNK8opendnp318BufferedCollectionINS_7IndexedINS_13FrozenCounterEEEZNS_16CountIndexParser13InvokeCountOfINS_11Group23Var5EEEvRKNS_12HeaderRecordEtRKNS_9NumParserERKN7openpal6RSliceERNS_12IAPDUHandlerEEUlRSE_jE_E5CountEv, .-_ZNK8opendnp318BufferedCollectionINS_7IndexedINS_13FrozenCounterEEEZNS_16CountIndexParser13InvokeCountOfINS_11Group23Var5EEEvRKNS_12HeaderRecordEtRKNS_9NumParserERKN7openpal6RSliceERNS_12IAPDUHandlerEEUlRSE_jE_E5CountEv
	.section	.text._ZNK8opendnp318BufferedCollectionINS_7IndexedINS_13FrozenCounterEEEZNS_16CountIndexParser13InvokeCountOfINS_11Group23Var2EEEvRKNS_12HeaderRecordEtRKNS_9NumParserERKN7openpal6RSliceERNS_12IAPDUHandlerEEUlRSE_jE_E5CountEv,"axG",@progbits,_ZNK8opendnp318BufferedCollectionINS_7IndexedINS_13FrozenCounterEEEZNS_16CountIndexParser13InvokeCountOfINS_11Group23Var2EEEvRKNS_12HeaderRecordEtRKNS_9NumParserERKN7openpal6RSliceERNS_12IAPDUHandlerEEUlRSE_jE_E5CountEv,comdat
	.align 2
	.p2align 4
	.weak	_ZNK8opendnp318BufferedCollectionINS_7IndexedINS_13FrozenCounterEEEZNS_16CountIndexParser13InvokeCountOfINS_11Group23Var2EEEvRKNS_12HeaderRecordEtRKNS_9NumParserERKN7openpal6RSliceERNS_12IAPDUHandlerEEUlRSE_jE_E5CountEv
	.type	_ZNK8opendnp318BufferedCollectionINS_7IndexedINS_13FrozenCounterEEEZNS_16CountIndexParser13InvokeCountOfINS_11Group23Var2EEEvRKNS_12HeaderRecordEtRKNS_9NumParserERKN7openpal6RSliceERNS_12IAPDUHandlerEEUlRSE_jE_E5CountEv, @function
_ZNK8opendnp318BufferedCollectionINS_7IndexedINS_13FrozenCounterEEEZNS_16CountIndexParser13InvokeCountOfINS_11Group23Var2EEEvRKNS_12HeaderRecordEtRKNS_9NumParserERKN7openpal6RSliceERNS_12IAPDUHandlerEEUlRSE_jE_E5CountEv:
.LFB4046:
	.cfi_startproc
	endbr64
	movq	24(%rdi), %rax
	ret
	.cfi_endproc
.LFE4046:
	.size	_ZNK8opendnp318BufferedCollectionINS_7IndexedINS_13FrozenCounterEEEZNS_16CountIndexParser13InvokeCountOfINS_11Group23Var2EEEvRKNS_12HeaderRecordEtRKNS_9NumParserERKN7openpal6RSliceERNS_12IAPDUHandlerEEUlRSE_jE_E5CountEv, .-_ZNK8opendnp318BufferedCollectionINS_7IndexedINS_13FrozenCounterEEEZNS_16CountIndexParser13InvokeCountOfINS_11Group23Var2EEEvRKNS_12HeaderRecordEtRKNS_9NumParserERKN7openpal6RSliceERNS_12IAPDUHandlerEEUlRSE_jE_E5CountEv
	.section	.text._ZNK8opendnp318BufferedCollectionINS_7IndexedINS_13FrozenCounterEEEZNS_16CountIndexParser13InvokeCountOfINS_11Group23Var1EEEvRKNS_12HeaderRecordEtRKNS_9NumParserERKN7openpal6RSliceERNS_12IAPDUHandlerEEUlRSE_jE_E5CountEv,"axG",@progbits,_ZNK8opendnp318BufferedCollectionINS_7IndexedINS_13FrozenCounterEEEZNS_16CountIndexParser13InvokeCountOfINS_11Group23Var1EEEvRKNS_12HeaderRecordEtRKNS_9NumParserERKN7openpal6RSliceERNS_12IAPDUHandlerEEUlRSE_jE_E5CountEv,comdat
	.align 2
	.p2align 4
	.weak	_ZNK8opendnp318BufferedCollectionINS_7IndexedINS_13FrozenCounterEEEZNS_16CountIndexParser13InvokeCountOfINS_11Group23Var1EEEvRKNS_12HeaderRecordEtRKNS_9NumParserERKN7openpal6RSliceERNS_12IAPDUHandlerEEUlRSE_jE_E5CountEv
	.type	_ZNK8opendnp318BufferedCollectionINS_7IndexedINS_13FrozenCounterEEEZNS_16CountIndexParser13InvokeCountOfINS_11Group23Var1EEEvRKNS_12HeaderRecordEtRKNS_9NumParserERKN7openpal6RSliceERNS_12IAPDUHandlerEEUlRSE_jE_E5CountEv, @function
_ZNK8opendnp318BufferedCollectionINS_7IndexedINS_13FrozenCounterEEEZNS_16CountIndexParser13InvokeCountOfINS_11Group23Var1EEEvRKNS_12HeaderRecordEtRKNS_9NumParserERKN7openpal6RSliceERNS_12IAPDUHandlerEEUlRSE_jE_E5CountEv:
.LFB4048:
	.cfi_startproc
	endbr64
	movq	24(%rdi), %rax
	ret
	.cfi_endproc
.LFE4048:
	.size	_ZNK8opendnp318BufferedCollectionINS_7IndexedINS_13FrozenCounterEEEZNS_16CountIndexParser13InvokeCountOfINS_11Group23Var1EEEvRKNS_12HeaderRecordEtRKNS_9NumParserERKN7openpal6RSliceERNS_12IAPDUHandlerEEUlRSE_jE_E5CountEv, .-_ZNK8opendnp318BufferedCollectionINS_7IndexedINS_13FrozenCounterEEEZNS_16CountIndexParser13InvokeCountOfINS_11Group23Var1EEEvRKNS_12HeaderRecordEtRKNS_9NumParserERKN7openpal6RSliceERNS_12IAPDUHandlerEEUlRSE_jE_E5CountEv
	.section	.text._ZNK8opendnp318BufferedCollectionINS_7IndexedINS_7CounterEEEZNS_16CountIndexParser13InvokeCountOfINS_11Group22Var6EEEvRKNS_12HeaderRecordEtRKNS_9NumParserERKN7openpal6RSliceERNS_12IAPDUHandlerEEUlRSE_jE_E5CountEv,"axG",@progbits,_ZNK8opendnp318BufferedCollectionINS_7IndexedINS_7CounterEEEZNS_16CountIndexParser13InvokeCountOfINS_11Group22Var6EEEvRKNS_12HeaderRecordEtRKNS_9NumParserERKN7openpal6RSliceERNS_12IAPDUHandlerEEUlRSE_jE_E5CountEv,comdat
	.align 2
	.p2align 4
	.weak	_ZNK8opendnp318BufferedCollectionINS_7IndexedINS_7CounterEEEZNS_16CountIndexParser13InvokeCountOfINS_11Group22Var6EEEvRKNS_12HeaderRecordEtRKNS_9NumParserERKN7openpal6RSliceERNS_12IAPDUHandlerEEUlRSE_jE_E5CountEv
	.type	_ZNK8opendnp318BufferedCollectionINS_7IndexedINS_7CounterEEEZNS_16CountIndexParser13InvokeCountOfINS_11Group22Var6EEEvRKNS_12HeaderRecordEtRKNS_9NumParserERKN7openpal6RSliceERNS_12IAPDUHandlerEEUlRSE_jE_E5CountEv, @function
_ZNK8opendnp318BufferedCollectionINS_7IndexedINS_7CounterEEEZNS_16CountIndexParser13InvokeCountOfINS_11Group22Var6EEEvRKNS_12HeaderRecordEtRKNS_9NumParserERKN7openpal6RSliceERNS_12IAPDUHandlerEEUlRSE_jE_E5CountEv:
.LFB4050:
	.cfi_startproc
	endbr64
	movq	24(%rdi), %rax
	ret
	.cfi_endproc
.LFE4050:
	.size	_ZNK8opendnp318BufferedCollectionINS_7IndexedINS_7CounterEEEZNS_16CountIndexParser13InvokeCountOfINS_11Group22Var6EEEvRKNS_12HeaderRecordEtRKNS_9NumParserERKN7openpal6RSliceERNS_12IAPDUHandlerEEUlRSE_jE_E5CountEv, .-_ZNK8opendnp318BufferedCollectionINS_7IndexedINS_7CounterEEEZNS_16CountIndexParser13InvokeCountOfINS_11Group22Var6EEEvRKNS_12HeaderRecordEtRKNS_9NumParserERKN7openpal6RSliceERNS_12IAPDUHandlerEEUlRSE_jE_E5CountEv
	.section	.text._ZNK8opendnp318BufferedCollectionINS_7IndexedINS_7CounterEEEZNS_16CountIndexParser13InvokeCountOfINS_11Group22Var5EEEvRKNS_12HeaderRecordEtRKNS_9NumParserERKN7openpal6RSliceERNS_12IAPDUHandlerEEUlRSE_jE_E5CountEv,"axG",@progbits,_ZNK8opendnp318BufferedCollectionINS_7IndexedINS_7CounterEEEZNS_16CountIndexParser13InvokeCountOfINS_11Group22Var5EEEvRKNS_12HeaderRecordEtRKNS_9NumParserERKN7openpal6RSliceERNS_12IAPDUHandlerEEUlRSE_jE_E5CountEv,comdat
	.align 2
	.p2align 4
	.weak	_ZNK8opendnp318BufferedCollectionINS_7IndexedINS_7CounterEEEZNS_16CountIndexParser13InvokeCountOfINS_11Group22Var5EEEvRKNS_12HeaderRecordEtRKNS_9NumParserERKN7openpal6RSliceERNS_12IAPDUHandlerEEUlRSE_jE_E5CountEv
	.type	_ZNK8opendnp318BufferedCollectionINS_7IndexedINS_7CounterEEEZNS_16CountIndexParser13InvokeCountOfINS_11Group22Var5EEEvRKNS_12HeaderRecordEtRKNS_9NumParserERKN7openpal6RSliceERNS_12IAPDUHandlerEEUlRSE_jE_E5CountEv, @function
_ZNK8opendnp318BufferedCollectionINS_7IndexedINS_7CounterEEEZNS_16CountIndexParser13InvokeCountOfINS_11Group22Var5EEEvRKNS_12HeaderRecordEtRKNS_9NumParserERKN7openpal6RSliceERNS_12IAPDUHandlerEEUlRSE_jE_E5CountEv:
.LFB4052:
	.cfi_startproc
	endbr64
	movq	24(%rdi), %rax
	ret
	.cfi_endproc
.LFE4052:
	.size	_ZNK8opendnp318BufferedCollectionINS_7IndexedINS_7CounterEEEZNS_16CountIndexParser13InvokeCountOfINS_11Group22Var5EEEvRKNS_12HeaderRecordEtRKNS_9NumParserERKN7openpal6RSliceERNS_12IAPDUHandlerEEUlRSE_jE_E5CountEv, .-_ZNK8opendnp318BufferedCollectionINS_7IndexedINS_7CounterEEEZNS_16CountIndexParser13InvokeCountOfINS_11Group22Var5EEEvRKNS_12HeaderRecordEtRKNS_9NumParserERKN7openpal6RSliceERNS_12IAPDUHandlerEEUlRSE_jE_E5CountEv
	.section	.text._ZNK8opendnp318BufferedCollectionINS_7IndexedINS_7CounterEEEZNS_16CountIndexParser13InvokeCountOfINS_11Group22Var2EEEvRKNS_12HeaderRecordEtRKNS_9NumParserERKN7openpal6RSliceERNS_12IAPDUHandlerEEUlRSE_jE_E5CountEv,"axG",@progbits,_ZNK8opendnp318BufferedCollectionINS_7IndexedINS_7CounterEEEZNS_16CountIndexParser13InvokeCountOfINS_11Group22Var2EEEvRKNS_12HeaderRecordEtRKNS_9NumParserERKN7openpal6RSliceERNS_12IAPDUHandlerEEUlRSE_jE_E5CountEv,comdat
	.align 2
	.p2align 4
	.weak	_ZNK8opendnp318BufferedCollectionINS_7IndexedINS_7CounterEEEZNS_16CountIndexParser13InvokeCountOfINS_11Group22Var2EEEvRKNS_12HeaderRecordEtRKNS_9NumParserERKN7openpal6RSliceERNS_12IAPDUHandlerEEUlRSE_jE_E5CountEv
	.type	_ZNK8opendnp318BufferedCollectionINS_7IndexedINS_7CounterEEEZNS_16CountIndexParser13InvokeCountOfINS_11Group22Var2EEEvRKNS_12HeaderRecordEtRKNS_9NumParserERKN7openpal6RSliceERNS_12IAPDUHandlerEEUlRSE_jE_E5CountEv, @function
_ZNK8opendnp318BufferedCollectionINS_7IndexedINS_7CounterEEEZNS_16CountIndexParser13InvokeCountOfINS_11Group22Var2EEEvRKNS_12HeaderRecordEtRKNS_9NumParserERKN7openpal6RSliceERNS_12IAPDUHandlerEEUlRSE_jE_E5CountEv:
.LFB4054:
	.cfi_startproc
	endbr64
	movq	24(%rdi), %rax
	ret
	.cfi_endproc
.LFE4054:
	.size	_ZNK8opendnp318BufferedCollectionINS_7IndexedINS_7CounterEEEZNS_16CountIndexParser13InvokeCountOfINS_11Group22Var2EEEvRKNS_12HeaderRecordEtRKNS_9NumParserERKN7openpal6RSliceERNS_12IAPDUHandlerEEUlRSE_jE_E5CountEv, .-_ZNK8opendnp318BufferedCollectionINS_7IndexedINS_7CounterEEEZNS_16CountIndexParser13InvokeCountOfINS_11Group22Var2EEEvRKNS_12HeaderRecordEtRKNS_9NumParserERKN7openpal6RSliceERNS_12IAPDUHandlerEEUlRSE_jE_E5CountEv
	.section	.text._ZNK8opendnp318BufferedCollectionINS_7IndexedINS_7CounterEEEZNS_16CountIndexParser13InvokeCountOfINS_11Group22Var1EEEvRKNS_12HeaderRecordEtRKNS_9NumParserERKN7openpal6RSliceERNS_12IAPDUHandlerEEUlRSE_jE_E5CountEv,"axG",@progbits,_ZNK8opendnp318BufferedCollectionINS_7IndexedINS_7CounterEEEZNS_16CountIndexParser13InvokeCountOfINS_11Group22Var1EEEvRKNS_12HeaderRecordEtRKNS_9NumParserERKN7openpal6RSliceERNS_12IAPDUHandlerEEUlRSE_jE_E5CountEv,comdat
	.align 2
	.p2align 4
	.weak	_ZNK8opendnp318BufferedCollectionINS_7IndexedINS_7CounterEEEZNS_16CountIndexParser13InvokeCountOfINS_11Group22Var1EEEvRKNS_12HeaderRecordEtRKNS_9NumParserERKN7openpal6RSliceERNS_12IAPDUHandlerEEUlRSE_jE_E5CountEv
	.type	_ZNK8opendnp318BufferedCollectionINS_7IndexedINS_7CounterEEEZNS_16CountIndexParser13InvokeCountOfINS_11Group22Var1EEEvRKNS_12HeaderRecordEtRKNS_9NumParserERKN7openpal6RSliceERNS_12IAPDUHandlerEEUlRSE_jE_E5CountEv, @function
_ZNK8opendnp318BufferedCollectionINS_7IndexedINS_7CounterEEEZNS_16CountIndexParser13InvokeCountOfINS_11Group22Var1EEEvRKNS_12HeaderRecordEtRKNS_9NumParserERKN7openpal6RSliceERNS_12IAPDUHandlerEEUlRSE_jE_E5CountEv:
.LFB4056:
	.cfi_startproc
	endbr64
	movq	24(%rdi), %rax
	ret
	.cfi_endproc
.LFE4056:
	.size	_ZNK8opendnp318BufferedCollectionINS_7IndexedINS_7CounterEEEZNS_16CountIndexParser13InvokeCountOfINS_11Group22Var1EEEvRKNS_12HeaderRecordEtRKNS_9NumParserERKN7openpal6RSliceERNS_12IAPDUHandlerEEUlRSE_jE_E5CountEv, .-_ZNK8opendnp318BufferedCollectionINS_7IndexedINS_7CounterEEEZNS_16CountIndexParser13InvokeCountOfINS_11Group22Var1EEEvRKNS_12HeaderRecordEtRKNS_9NumParserERKN7openpal6RSliceERNS_12IAPDUHandlerEEUlRSE_jE_E5CountEv
	.section	.text._ZNK8opendnp318BufferedCollectionINS_7IndexedINS_18BinaryCommandEventEEEZNS_16CountIndexParser13InvokeCountOfINS_11Group13Var2EEEvRKNS_12HeaderRecordEtRKNS_9NumParserERKN7openpal6RSliceERNS_12IAPDUHandlerEEUlRSE_jE_E5CountEv,"axG",@progbits,_ZNK8opendnp318BufferedCollectionINS_7IndexedINS_18BinaryCommandEventEEEZNS_16CountIndexParser13InvokeCountOfINS_11Group13Var2EEEvRKNS_12HeaderRecordEtRKNS_9NumParserERKN7openpal6RSliceERNS_12IAPDUHandlerEEUlRSE_jE_E5CountEv,comdat
	.align 2
	.p2align 4
	.weak	_ZNK8opendnp318BufferedCollectionINS_7IndexedINS_18BinaryCommandEventEEEZNS_16CountIndexParser13InvokeCountOfINS_11Group13Var2EEEvRKNS_12HeaderRecordEtRKNS_9NumParserERKN7openpal6RSliceERNS_12IAPDUHandlerEEUlRSE_jE_E5CountEv
	.type	_ZNK8opendnp318BufferedCollectionINS_7IndexedINS_18BinaryCommandEventEEEZNS_16CountIndexParser13InvokeCountOfINS_11Group13Var2EEEvRKNS_12HeaderRecordEtRKNS_9NumParserERKN7openpal6RSliceERNS_12IAPDUHandlerEEUlRSE_jE_E5CountEv, @function
_ZNK8opendnp318BufferedCollectionINS_7IndexedINS_18BinaryCommandEventEEEZNS_16CountIndexParser13InvokeCountOfINS_11Group13Var2EEEvRKNS_12HeaderRecordEtRKNS_9NumParserERKN7openpal6RSliceERNS_12IAPDUHandlerEEUlRSE_jE_E5CountEv:
.LFB4058:
	.cfi_startproc
	endbr64
	movq	24(%rdi), %rax
	ret
	.cfi_endproc
.LFE4058:
	.size	_ZNK8opendnp318BufferedCollectionINS_7IndexedINS_18BinaryCommandEventEEEZNS_16CountIndexParser13InvokeCountOfINS_11Group13Var2EEEvRKNS_12HeaderRecordEtRKNS_9NumParserERKN7openpal6RSliceERNS_12IAPDUHandlerEEUlRSE_jE_E5CountEv, .-_ZNK8opendnp318BufferedCollectionINS_7IndexedINS_18BinaryCommandEventEEEZNS_16CountIndexParser13InvokeCountOfINS_11Group13Var2EEEvRKNS_12HeaderRecordEtRKNS_9NumParserERKN7openpal6RSliceERNS_12IAPDUHandlerEEUlRSE_jE_E5CountEv
	.section	.text._ZNK8opendnp318BufferedCollectionINS_7IndexedINS_18BinaryCommandEventEEEZNS_16CountIndexParser13InvokeCountOfINS_11Group13Var1EEEvRKNS_12HeaderRecordEtRKNS_9NumParserERKN7openpal6RSliceERNS_12IAPDUHandlerEEUlRSE_jE_E5CountEv,"axG",@progbits,_ZNK8opendnp318BufferedCollectionINS_7IndexedINS_18BinaryCommandEventEEEZNS_16CountIndexParser13InvokeCountOfINS_11Group13Var1EEEvRKNS_12HeaderRecordEtRKNS_9NumParserERKN7openpal6RSliceERNS_12IAPDUHandlerEEUlRSE_jE_E5CountEv,comdat
	.align 2
	.p2align 4
	.weak	_ZNK8opendnp318BufferedCollectionINS_7IndexedINS_18BinaryCommandEventEEEZNS_16CountIndexParser13InvokeCountOfINS_11Group13Var1EEEvRKNS_12HeaderRecordEtRKNS_9NumParserERKN7openpal6RSliceERNS_12IAPDUHandlerEEUlRSE_jE_E5CountEv
	.type	_ZNK8opendnp318BufferedCollectionINS_7IndexedINS_18BinaryCommandEventEEEZNS_16CountIndexParser13InvokeCountOfINS_11Group13Var1EEEvRKNS_12HeaderRecordEtRKNS_9NumParserERKN7openpal6RSliceERNS_12IAPDUHandlerEEUlRSE_jE_E5CountEv, @function
_ZNK8opendnp318BufferedCollectionINS_7IndexedINS_18BinaryCommandEventEEEZNS_16CountIndexParser13InvokeCountOfINS_11Group13Var1EEEvRKNS_12HeaderRecordEtRKNS_9NumParserERKN7openpal6RSliceERNS_12IAPDUHandlerEEUlRSE_jE_E5CountEv:
.LFB4060:
	.cfi_startproc
	endbr64
	movq	24(%rdi), %rax
	ret
	.cfi_endproc
.LFE4060:
	.size	_ZNK8opendnp318BufferedCollectionINS_7IndexedINS_18BinaryCommandEventEEEZNS_16CountIndexParser13InvokeCountOfINS_11Group13Var1EEEvRKNS_12HeaderRecordEtRKNS_9NumParserERKN7openpal6RSliceERNS_12IAPDUHandlerEEUlRSE_jE_E5CountEv, .-_ZNK8opendnp318BufferedCollectionINS_7IndexedINS_18BinaryCommandEventEEEZNS_16CountIndexParser13InvokeCountOfINS_11Group13Var1EEEvRKNS_12HeaderRecordEtRKNS_9NumParserERKN7openpal6RSliceERNS_12IAPDUHandlerEEUlRSE_jE_E5CountEv
	.section	.text._ZNK8opendnp318BufferedCollectionINS_7IndexedINS_23ControlRelayOutputBlockEEEZNS_16CountIndexParser13InvokeCountOfINS_11Group12Var1EEEvRKNS_12HeaderRecordEtRKNS_9NumParserERKN7openpal6RSliceERNS_12IAPDUHandlerEEUlRSE_jE_E5CountEv,"axG",@progbits,_ZNK8opendnp318BufferedCollectionINS_7IndexedINS_23ControlRelayOutputBlockEEEZNS_16CountIndexParser13InvokeCountOfINS_11Group12Var1EEEvRKNS_12HeaderRecordEtRKNS_9NumParserERKN7openpal6RSliceERNS_12IAPDUHandlerEEUlRSE_jE_E5CountEv,comdat
	.align 2
	.p2align 4
	.weak	_ZNK8opendnp318BufferedCollectionINS_7IndexedINS_23ControlRelayOutputBlockEEEZNS_16CountIndexParser13InvokeCountOfINS_11Group12Var1EEEvRKNS_12HeaderRecordEtRKNS_9NumParserERKN7openpal6RSliceERNS_12IAPDUHandlerEEUlRSE_jE_E5CountEv
	.type	_ZNK8opendnp318BufferedCollectionINS_7IndexedINS_23ControlRelayOutputBlockEEEZNS_16CountIndexParser13InvokeCountOfINS_11Group12Var1EEEvRKNS_12HeaderRecordEtRKNS_9NumParserERKN7openpal6RSliceERNS_12IAPDUHandlerEEUlRSE_jE_E5CountEv, @function
_ZNK8opendnp318BufferedCollectionINS_7IndexedINS_23ControlRelayOutputBlockEEEZNS_16CountIndexParser13InvokeCountOfINS_11Group12Var1EEEvRKNS_12HeaderRecordEtRKNS_9NumParserERKN7openpal6RSliceERNS_12IAPDUHandlerEEUlRSE_jE_E5CountEv:
.LFB4062:
	.cfi_startproc
	endbr64
	movq	24(%rdi), %rax
	ret
	.cfi_endproc
.LFE4062:
	.size	_ZNK8opendnp318BufferedCollectionINS_7IndexedINS_23ControlRelayOutputBlockEEEZNS_16CountIndexParser13InvokeCountOfINS_11Group12Var1EEEvRKNS_12HeaderRecordEtRKNS_9NumParserERKN7openpal6RSliceERNS_12IAPDUHandlerEEUlRSE_jE_E5CountEv, .-_ZNK8opendnp318BufferedCollectionINS_7IndexedINS_23ControlRelayOutputBlockEEEZNS_16CountIndexParser13InvokeCountOfINS_11Group12Var1EEEvRKNS_12HeaderRecordEtRKNS_9NumParserERKN7openpal6RSliceERNS_12IAPDUHandlerEEUlRSE_jE_E5CountEv
	.section	.text._ZNK8opendnp318BufferedCollectionINS_7IndexedINS_18BinaryOutputStatusEEEZNS_16CountIndexParser13InvokeCountOfINS_11Group11Var2EEEvRKNS_12HeaderRecordEtRKNS_9NumParserERKN7openpal6RSliceERNS_12IAPDUHandlerEEUlRSE_jE_E5CountEv,"axG",@progbits,_ZNK8opendnp318BufferedCollectionINS_7IndexedINS_18BinaryOutputStatusEEEZNS_16CountIndexParser13InvokeCountOfINS_11Group11Var2EEEvRKNS_12HeaderRecordEtRKNS_9NumParserERKN7openpal6RSliceERNS_12IAPDUHandlerEEUlRSE_jE_E5CountEv,comdat
	.align 2
	.p2align 4
	.weak	_ZNK8opendnp318BufferedCollectionINS_7IndexedINS_18BinaryOutputStatusEEEZNS_16CountIndexParser13InvokeCountOfINS_11Group11Var2EEEvRKNS_12HeaderRecordEtRKNS_9NumParserERKN7openpal6RSliceERNS_12IAPDUHandlerEEUlRSE_jE_E5CountEv
	.type	_ZNK8opendnp318BufferedCollectionINS_7IndexedINS_18BinaryOutputStatusEEEZNS_16CountIndexParser13InvokeCountOfINS_11Group11Var2EEEvRKNS_12HeaderRecordEtRKNS_9NumParserERKN7openpal6RSliceERNS_12IAPDUHandlerEEUlRSE_jE_E5CountEv, @function
_ZNK8opendnp318BufferedCollectionINS_7IndexedINS_18BinaryOutputStatusEEEZNS_16CountIndexParser13InvokeCountOfINS_11Group11Var2EEEvRKNS_12HeaderRecordEtRKNS_9NumParserERKN7openpal6RSliceERNS_12IAPDUHandlerEEUlRSE_jE_E5CountEv:
.LFB4064:
	.cfi_startproc
	endbr64
	movq	24(%rdi), %rax
	ret
	.cfi_endproc
.LFE4064:
	.size	_ZNK8opendnp318BufferedCollectionINS_7IndexedINS_18BinaryOutputStatusEEEZNS_16CountIndexParser13InvokeCountOfINS_11Group11Var2EEEvRKNS_12HeaderRecordEtRKNS_9NumParserERKN7openpal6RSliceERNS_12IAPDUHandlerEEUlRSE_jE_E5CountEv, .-_ZNK8opendnp318BufferedCollectionINS_7IndexedINS_18BinaryOutputStatusEEEZNS_16CountIndexParser13InvokeCountOfINS_11Group11Var2EEEvRKNS_12HeaderRecordEtRKNS_9NumParserERKN7openpal6RSliceERNS_12IAPDUHandlerEEUlRSE_jE_E5CountEv
	.section	.text._ZNK8opendnp318BufferedCollectionINS_7IndexedINS_18BinaryOutputStatusEEEZNS_16CountIndexParser13InvokeCountOfINS_11Group11Var1EEEvRKNS_12HeaderRecordEtRKNS_9NumParserERKN7openpal6RSliceERNS_12IAPDUHandlerEEUlRSE_jE_E5CountEv,"axG",@progbits,_ZNK8opendnp318BufferedCollectionINS_7IndexedINS_18BinaryOutputStatusEEEZNS_16CountIndexParser13InvokeCountOfINS_11Group11Var1EEEvRKNS_12HeaderRecordEtRKNS_9NumParserERKN7openpal6RSliceERNS_12IAPDUHandlerEEUlRSE_jE_E5CountEv,comdat
	.align 2
	.p2align 4
	.weak	_ZNK8opendnp318BufferedCollectionINS_7IndexedINS_18BinaryOutputStatusEEEZNS_16CountIndexParser13InvokeCountOfINS_11Group11Var1EEEvRKNS_12HeaderRecordEtRKNS_9NumParserERKN7openpal6RSliceERNS_12IAPDUHandlerEEUlRSE_jE_E5CountEv
	.type	_ZNK8opendnp318BufferedCollectionINS_7IndexedINS_18BinaryOutputStatusEEEZNS_16CountIndexParser13InvokeCountOfINS_11Group11Var1EEEvRKNS_12HeaderRecordEtRKNS_9NumParserERKN7openpal6RSliceERNS_12IAPDUHandlerEEUlRSE_jE_E5CountEv, @function
_ZNK8opendnp318BufferedCollectionINS_7IndexedINS_18BinaryOutputStatusEEEZNS_16CountIndexParser13InvokeCountOfINS_11Group11Var1EEEvRKNS_12HeaderRecordEtRKNS_9NumParserERKN7openpal6RSliceERNS_12IAPDUHandlerEEUlRSE_jE_E5CountEv:
.LFB4066:
	.cfi_startproc
	endbr64
	movq	24(%rdi), %rax
	ret
	.cfi_endproc
.LFE4066:
	.size	_ZNK8opendnp318BufferedCollectionINS_7IndexedINS_18BinaryOutputStatusEEEZNS_16CountIndexParser13InvokeCountOfINS_11Group11Var1EEEvRKNS_12HeaderRecordEtRKNS_9NumParserERKN7openpal6RSliceERNS_12IAPDUHandlerEEUlRSE_jE_E5CountEv, .-_ZNK8opendnp318BufferedCollectionINS_7IndexedINS_18BinaryOutputStatusEEEZNS_16CountIndexParser13InvokeCountOfINS_11Group11Var1EEEvRKNS_12HeaderRecordEtRKNS_9NumParserERKN7openpal6RSliceERNS_12IAPDUHandlerEEUlRSE_jE_E5CountEv
	.section	.text._ZNK8opendnp318BufferedCollectionINS_7IndexedINS_15DoubleBitBinaryEEEZNS_16CountIndexParser13InvokeCountOfINS_10Group4Var3EEEvRKNS_12HeaderRecordEtRKNS_9NumParserERKN7openpal6RSliceERNS_12IAPDUHandlerEEUlRSE_jE_E5CountEv,"axG",@progbits,_ZNK8opendnp318BufferedCollectionINS_7IndexedINS_15DoubleBitBinaryEEEZNS_16CountIndexParser13InvokeCountOfINS_10Group4Var3EEEvRKNS_12HeaderRecordEtRKNS_9NumParserERKN7openpal6RSliceERNS_12IAPDUHandlerEEUlRSE_jE_E5CountEv,comdat
	.align 2
	.p2align 4
	.weak	_ZNK8opendnp318BufferedCollectionINS_7IndexedINS_15DoubleBitBinaryEEEZNS_16CountIndexParser13InvokeCountOfINS_10Group4Var3EEEvRKNS_12HeaderRecordEtRKNS_9NumParserERKN7openpal6RSliceERNS_12IAPDUHandlerEEUlRSE_jE_E5CountEv
	.type	_ZNK8opendnp318BufferedCollectionINS_7IndexedINS_15DoubleBitBinaryEEEZNS_16CountIndexParser13InvokeCountOfINS_10Group4Var3EEEvRKNS_12HeaderRecordEtRKNS_9NumParserERKN7openpal6RSliceERNS_12IAPDUHandlerEEUlRSE_jE_E5CountEv, @function
_ZNK8opendnp318BufferedCollectionINS_7IndexedINS_15DoubleBitBinaryEEEZNS_16CountIndexParser13InvokeCountOfINS_10Group4Var3EEEvRKNS_12HeaderRecordEtRKNS_9NumParserERKN7openpal6RSliceERNS_12IAPDUHandlerEEUlRSE_jE_E5CountEv:
.LFB4068:
	.cfi_startproc
	endbr64
	movq	24(%rdi), %rax
	ret
	.cfi_endproc
.LFE4068:
	.size	_ZNK8opendnp318BufferedCollectionINS_7IndexedINS_15DoubleBitBinaryEEEZNS_16CountIndexParser13InvokeCountOfINS_10Group4Var3EEEvRKNS_12HeaderRecordEtRKNS_9NumParserERKN7openpal6RSliceERNS_12IAPDUHandlerEEUlRSE_jE_E5CountEv, .-_ZNK8opendnp318BufferedCollectionINS_7IndexedINS_15DoubleBitBinaryEEEZNS_16CountIndexParser13InvokeCountOfINS_10Group4Var3EEEvRKNS_12HeaderRecordEtRKNS_9NumParserERKN7openpal6RSliceERNS_12IAPDUHandlerEEUlRSE_jE_E5CountEv
	.section	.text._ZNK8opendnp318BufferedCollectionINS_7IndexedINS_15DoubleBitBinaryEEEZNS_16CountIndexParser13InvokeCountOfINS_10Group4Var2EEEvRKNS_12HeaderRecordEtRKNS_9NumParserERKN7openpal6RSliceERNS_12IAPDUHandlerEEUlRSE_jE_E5CountEv,"axG",@progbits,_ZNK8opendnp318BufferedCollectionINS_7IndexedINS_15DoubleBitBinaryEEEZNS_16CountIndexParser13InvokeCountOfINS_10Group4Var2EEEvRKNS_12HeaderRecordEtRKNS_9NumParserERKN7openpal6RSliceERNS_12IAPDUHandlerEEUlRSE_jE_E5CountEv,comdat
	.align 2
	.p2align 4
	.weak	_ZNK8opendnp318BufferedCollectionINS_7IndexedINS_15DoubleBitBinaryEEEZNS_16CountIndexParser13InvokeCountOfINS_10Group4Var2EEEvRKNS_12HeaderRecordEtRKNS_9NumParserERKN7openpal6RSliceERNS_12IAPDUHandlerEEUlRSE_jE_E5CountEv
	.type	_ZNK8opendnp318BufferedCollectionINS_7IndexedINS_15DoubleBitBinaryEEEZNS_16CountIndexParser13InvokeCountOfINS_10Group4Var2EEEvRKNS_12HeaderRecordEtRKNS_9NumParserERKN7openpal6RSliceERNS_12IAPDUHandlerEEUlRSE_jE_E5CountEv, @function
_ZNK8opendnp318BufferedCollectionINS_7IndexedINS_15DoubleBitBinaryEEEZNS_16CountIndexParser13InvokeCountOfINS_10Group4Var2EEEvRKNS_12HeaderRecordEtRKNS_9NumParserERKN7openpal6RSliceERNS_12IAPDUHandlerEEUlRSE_jE_E5CountEv:
.LFB4070:
	.cfi_startproc
	endbr64
	movq	24(%rdi), %rax
	ret
	.cfi_endproc
.LFE4070:
	.size	_ZNK8opendnp318BufferedCollectionINS_7IndexedINS_15DoubleBitBinaryEEEZNS_16CountIndexParser13InvokeCountOfINS_10Group4Var2EEEvRKNS_12HeaderRecordEtRKNS_9NumParserERKN7openpal6RSliceERNS_12IAPDUHandlerEEUlRSE_jE_E5CountEv, .-_ZNK8opendnp318BufferedCollectionINS_7IndexedINS_15DoubleBitBinaryEEEZNS_16CountIndexParser13InvokeCountOfINS_10Group4Var2EEEvRKNS_12HeaderRecordEtRKNS_9NumParserERKN7openpal6RSliceERNS_12IAPDUHandlerEEUlRSE_jE_E5CountEv
	.section	.text._ZNK8opendnp318BufferedCollectionINS_7IndexedINS_15DoubleBitBinaryEEEZNS_16CountIndexParser13InvokeCountOfINS_10Group4Var1EEEvRKNS_12HeaderRecordEtRKNS_9NumParserERKN7openpal6RSliceERNS_12IAPDUHandlerEEUlRSE_jE_E5CountEv,"axG",@progbits,_ZNK8opendnp318BufferedCollectionINS_7IndexedINS_15DoubleBitBinaryEEEZNS_16CountIndexParser13InvokeCountOfINS_10Group4Var1EEEvRKNS_12HeaderRecordEtRKNS_9NumParserERKN7openpal6RSliceERNS_12IAPDUHandlerEEUlRSE_jE_E5CountEv,comdat
	.align 2
	.p2align 4
	.weak	_ZNK8opendnp318BufferedCollectionINS_7IndexedINS_15DoubleBitBinaryEEEZNS_16CountIndexParser13InvokeCountOfINS_10Group4Var1EEEvRKNS_12HeaderRecordEtRKNS_9NumParserERKN7openpal6RSliceERNS_12IAPDUHandlerEEUlRSE_jE_E5CountEv
	.type	_ZNK8opendnp318BufferedCollectionINS_7IndexedINS_15DoubleBitBinaryEEEZNS_16CountIndexParser13InvokeCountOfINS_10Group4Var1EEEvRKNS_12HeaderRecordEtRKNS_9NumParserERKN7openpal6RSliceERNS_12IAPDUHandlerEEUlRSE_jE_E5CountEv, @function
_ZNK8opendnp318BufferedCollectionINS_7IndexedINS_15DoubleBitBinaryEEEZNS_16CountIndexParser13InvokeCountOfINS_10Group4Var1EEEvRKNS_12HeaderRecordEtRKNS_9NumParserERKN7openpal6RSliceERNS_12IAPDUHandlerEEUlRSE_jE_E5CountEv:
.LFB4072:
	.cfi_startproc
	endbr64
	movq	24(%rdi), %rax
	ret
	.cfi_endproc
.LFE4072:
	.size	_ZNK8opendnp318BufferedCollectionINS_7IndexedINS_15DoubleBitBinaryEEEZNS_16CountIndexParser13InvokeCountOfINS_10Group4Var1EEEvRKNS_12HeaderRecordEtRKNS_9NumParserERKN7openpal6RSliceERNS_12IAPDUHandlerEEUlRSE_jE_E5CountEv, .-_ZNK8opendnp318BufferedCollectionINS_7IndexedINS_15DoubleBitBinaryEEEZNS_16CountIndexParser13InvokeCountOfINS_10Group4Var1EEEvRKNS_12HeaderRecordEtRKNS_9NumParserERKN7openpal6RSliceERNS_12IAPDUHandlerEEUlRSE_jE_E5CountEv
	.section	.text._ZNK8opendnp318BufferedCollectionINS_7IndexedINS_6BinaryEEEZNS_16CountIndexParser13InvokeCountOfINS_10Group2Var3EEEvRKNS_12HeaderRecordEtRKNS_9NumParserERKN7openpal6RSliceERNS_12IAPDUHandlerEEUlRSE_jE_E5CountEv,"axG",@progbits,_ZNK8opendnp318BufferedCollectionINS_7IndexedINS_6BinaryEEEZNS_16CountIndexParser13InvokeCountOfINS_10Group2Var3EEEvRKNS_12HeaderRecordEtRKNS_9NumParserERKN7openpal6RSliceERNS_12IAPDUHandlerEEUlRSE_jE_E5CountEv,comdat
	.align 2
	.p2align 4
	.weak	_ZNK8opendnp318BufferedCollectionINS_7IndexedINS_6BinaryEEEZNS_16CountIndexParser13InvokeCountOfINS_10Group2Var3EEEvRKNS_12HeaderRecordEtRKNS_9NumParserERKN7openpal6RSliceERNS_12IAPDUHandlerEEUlRSE_jE_E5CountEv
	.type	_ZNK8opendnp318BufferedCollectionINS_7IndexedINS_6BinaryEEEZNS_16CountIndexParser13InvokeCountOfINS_10Group2Var3EEEvRKNS_12HeaderRecordEtRKNS_9NumParserERKN7openpal6RSliceERNS_12IAPDUHandlerEEUlRSE_jE_E5CountEv, @function
_ZNK8opendnp318BufferedCollectionINS_7IndexedINS_6BinaryEEEZNS_16CountIndexParser13InvokeCountOfINS_10Group2Var3EEEvRKNS_12HeaderRecordEtRKNS_9NumParserERKN7openpal6RSliceERNS_12IAPDUHandlerEEUlRSE_jE_E5CountEv:
.LFB4074:
	.cfi_startproc
	endbr64
	movq	24(%rdi), %rax
	ret
	.cfi_endproc
.LFE4074:
	.size	_ZNK8opendnp318BufferedCollectionINS_7IndexedINS_6BinaryEEEZNS_16CountIndexParser13InvokeCountOfINS_10Group2Var3EEEvRKNS_12HeaderRecordEtRKNS_9NumParserERKN7openpal6RSliceERNS_12IAPDUHandlerEEUlRSE_jE_E5CountEv, .-_ZNK8opendnp318BufferedCollectionINS_7IndexedINS_6BinaryEEEZNS_16CountIndexParser13InvokeCountOfINS_10Group2Var3EEEvRKNS_12HeaderRecordEtRKNS_9NumParserERKN7openpal6RSliceERNS_12IAPDUHandlerEEUlRSE_jE_E5CountEv
	.section	.text._ZNK8opendnp318BufferedCollectionINS_7IndexedINS_6BinaryEEEZNS_16CountIndexParser13InvokeCountOfINS_10Group2Var2EEEvRKNS_12HeaderRecordEtRKNS_9NumParserERKN7openpal6RSliceERNS_12IAPDUHandlerEEUlRSE_jE_E5CountEv,"axG",@progbits,_ZNK8opendnp318BufferedCollectionINS_7IndexedINS_6BinaryEEEZNS_16CountIndexParser13InvokeCountOfINS_10Group2Var2EEEvRKNS_12HeaderRecordEtRKNS_9NumParserERKN7openpal6RSliceERNS_12IAPDUHandlerEEUlRSE_jE_E5CountEv,comdat
	.align 2
	.p2align 4
	.weak	_ZNK8opendnp318BufferedCollectionINS_7IndexedINS_6BinaryEEEZNS_16CountIndexParser13InvokeCountOfINS_10Group2Var2EEEvRKNS_12HeaderRecordEtRKNS_9NumParserERKN7openpal6RSliceERNS_12IAPDUHandlerEEUlRSE_jE_E5CountEv
	.type	_ZNK8opendnp318BufferedCollectionINS_7IndexedINS_6BinaryEEEZNS_16CountIndexParser13InvokeCountOfINS_10Group2Var2EEEvRKNS_12HeaderRecordEtRKNS_9NumParserERKN7openpal6RSliceERNS_12IAPDUHandlerEEUlRSE_jE_E5CountEv, @function
_ZNK8opendnp318BufferedCollectionINS_7IndexedINS_6BinaryEEEZNS_16CountIndexParser13InvokeCountOfINS_10Group2Var2EEEvRKNS_12HeaderRecordEtRKNS_9NumParserERKN7openpal6RSliceERNS_12IAPDUHandlerEEUlRSE_jE_E5CountEv:
.LFB4076:
	.cfi_startproc
	endbr64
	movq	24(%rdi), %rax
	ret
	.cfi_endproc
.LFE4076:
	.size	_ZNK8opendnp318BufferedCollectionINS_7IndexedINS_6BinaryEEEZNS_16CountIndexParser13InvokeCountOfINS_10Group2Var2EEEvRKNS_12HeaderRecordEtRKNS_9NumParserERKN7openpal6RSliceERNS_12IAPDUHandlerEEUlRSE_jE_E5CountEv, .-_ZNK8opendnp318BufferedCollectionINS_7IndexedINS_6BinaryEEEZNS_16CountIndexParser13InvokeCountOfINS_10Group2Var2EEEvRKNS_12HeaderRecordEtRKNS_9NumParserERKN7openpal6RSliceERNS_12IAPDUHandlerEEUlRSE_jE_E5CountEv
	.section	.text._ZNK8opendnp318BufferedCollectionINS_7IndexedINS_6BinaryEEEZNS_16CountIndexParser13InvokeCountOfINS_10Group2Var1EEEvRKNS_12HeaderRecordEtRKNS_9NumParserERKN7openpal6RSliceERNS_12IAPDUHandlerEEUlRSE_jE_E5CountEv,"axG",@progbits,_ZNK8opendnp318BufferedCollectionINS_7IndexedINS_6BinaryEEEZNS_16CountIndexParser13InvokeCountOfINS_10Group2Var1EEEvRKNS_12HeaderRecordEtRKNS_9NumParserERKN7openpal6RSliceERNS_12IAPDUHandlerEEUlRSE_jE_E5CountEv,comdat
	.align 2
	.p2align 4
	.weak	_ZNK8opendnp318BufferedCollectionINS_7IndexedINS_6BinaryEEEZNS_16CountIndexParser13InvokeCountOfINS_10Group2Var1EEEvRKNS_12HeaderRecordEtRKNS_9NumParserERKN7openpal6RSliceERNS_12IAPDUHandlerEEUlRSE_jE_E5CountEv
	.type	_ZNK8opendnp318BufferedCollectionINS_7IndexedINS_6BinaryEEEZNS_16CountIndexParser13InvokeCountOfINS_10Group2Var1EEEvRKNS_12HeaderRecordEtRKNS_9NumParserERKN7openpal6RSliceERNS_12IAPDUHandlerEEUlRSE_jE_E5CountEv, @function
_ZNK8opendnp318BufferedCollectionINS_7IndexedINS_6BinaryEEEZNS_16CountIndexParser13InvokeCountOfINS_10Group2Var1EEEvRKNS_12HeaderRecordEtRKNS_9NumParserERKN7openpal6RSliceERNS_12IAPDUHandlerEEUlRSE_jE_E5CountEv:
.LFB4078:
	.cfi_startproc
	endbr64
	movq	24(%rdi), %rax
	ret
	.cfi_endproc
.LFE4078:
	.size	_ZNK8opendnp318BufferedCollectionINS_7IndexedINS_6BinaryEEEZNS_16CountIndexParser13InvokeCountOfINS_10Group2Var1EEEvRKNS_12HeaderRecordEtRKNS_9NumParserERKN7openpal6RSliceERNS_12IAPDUHandlerEEUlRSE_jE_E5CountEv, .-_ZNK8opendnp318BufferedCollectionINS_7IndexedINS_6BinaryEEEZNS_16CountIndexParser13InvokeCountOfINS_10Group2Var1EEEvRKNS_12HeaderRecordEtRKNS_9NumParserERKN7openpal6RSliceERNS_12IAPDUHandlerEEUlRSE_jE_E5CountEv
	.text
	.align 2
	.p2align 4
	.type	_ZNK8opendnp318BufferedCollectionINS_7IndexedINS_11OctetStringEEEZNS_16CountIndexParser27ParseIndexPrefixedOctetDataERN7openpal6RSliceERKNS_12HeaderRecordERKNS_9NumParserEjPNS5_6LoggerEPNS_12IAPDUHandlerEEUlS7_jE_E5CountEv, @function
_ZNK8opendnp318BufferedCollectionINS_7IndexedINS_11OctetStringEEEZNS_16CountIndexParser27ParseIndexPrefixedOctetDataERN7openpal6RSliceERKNS_12HeaderRecordERKNS_9NumParserEjPNS5_6LoggerEPNS_12IAPDUHandlerEEUlS7_jE_E5CountEv:
.LFB4080:
	.cfi_startproc
	endbr64
	movq	24(%rdi), %rax
	ret
	.cfi_endproc
.LFE4080:
	.size	_ZNK8opendnp318BufferedCollectionINS_7IndexedINS_11OctetStringEEEZNS_16CountIndexParser27ParseIndexPrefixedOctetDataERN7openpal6RSliceERKNS_12HeaderRecordERKNS_9NumParserEjPNS5_6LoggerEPNS_12IAPDUHandlerEEUlS7_jE_E5CountEv, .-_ZNK8opendnp318BufferedCollectionINS_7IndexedINS_11OctetStringEEEZNS_16CountIndexParser27ParseIndexPrefixedOctetDataERN7openpal6RSliceERKNS_12HeaderRecordERKNS_9NumParserEjPNS5_6LoggerEPNS_12IAPDUHandlerEEUlS7_jE_E5CountEv
	.section	.text._ZN8opendnp316CountIndexParser13InvokeCountOfINS_10Group2Var1EEEvRKNS_12HeaderRecordEtRKNS_9NumParserERKN7openpal6RSliceERNS_12IAPDUHandlerE,"axG",@progbits,_ZN8opendnp316CountIndexParser13InvokeCountOfINS_10Group2Var1EEEvRKNS_12HeaderRecordEtRKNS_9NumParserERKN7openpal6RSliceERNS_12IAPDUHandlerE,comdat
	.align 2
	.p2align 4
	.weak	_ZN8opendnp316CountIndexParser13InvokeCountOfINS_10Group2Var1EEEvRKNS_12HeaderRecordEtRKNS_9NumParserERKN7openpal6RSliceERNS_12IAPDUHandlerE
	.type	_ZN8opendnp316CountIndexParser13InvokeCountOfINS_10Group2Var1EEEvRKNS_12HeaderRecordEtRKNS_9NumParserERKN7openpal6RSliceERNS_12IAPDUHandlerE, @function
_ZN8opendnp316CountIndexParser13InvokeCountOfINS_10Group2Var1EEEvRKNS_12HeaderRecordEtRKNS_9NumParserERKN7openpal6RSliceERNS_12IAPDUHandlerE:
.LFB3110:
	.cfi_startproc
	endbr64
	subq	$88, %rsp
	.cfi_def_cfa_offset 96
	movq	%rdi, %r9
	movdqu	(%rcx), %xmm0
	movq	%r8, %rdi
	movq	%fs:40, %rax
	movq	%rax, 72(%rsp)
	movq	_ZTVN8opendnp318BufferedCollectionINS_7IndexedINS_6BinaryEEEZNS_16CountIndexParser13InvokeCountOfINS_10Group2Var1EEEvRKNS_12HeaderRecordEtRKNS_9NumParserERKN7openpal6RSliceERNS_12IAPDUHandlerEEUlRSE_jE_EE@GOTPCREL(%rip), %rax
	movdqu	(%r9), %xmm1
	movq	%rdx, 64(%rsp)
	leaq	32(%rsp), %rdx
	movw	%si, 16(%rsp)
	movups	%xmm0, 40(%rsp)
	movaps	%xmm1, (%rsp)
	addq	$16, %rax
	movq	%rax, 32(%rsp)
	movzwl	%si, %eax
	movq	%rsp, %rsi
	movq	%rax, 56(%rsp)
	call	_ZN8opendnp312IAPDUHandler8OnHeaderERKNS_12PrefixHeaderERKNS_11ICollectionINS_7IndexedINS_6BinaryEEEEE@PLT
	movq	72(%rsp), %rax
	subq	%fs:40, %rax
	jne	.L57
	addq	$88, %rsp
	.cfi_remember_state
	.cfi_def_cfa_offset 8
	ret
.L57:
	.cfi_restore_state
	call	__stack_chk_fail@PLT
	.cfi_endproc
.LFE3110:
	.size	_ZN8opendnp316CountIndexParser13InvokeCountOfINS_10Group2Var1EEEvRKNS_12HeaderRecordEtRKNS_9NumParserERKN7openpal6RSliceERNS_12IAPDUHandlerE, .-_ZN8opendnp316CountIndexParser13InvokeCountOfINS_10Group2Var1EEEvRKNS_12HeaderRecordEtRKNS_9NumParserERKN7openpal6RSliceERNS_12IAPDUHandlerE
	.section	.text._ZN8opendnp316CountIndexParser13InvokeCountOfINS_10Group2Var2EEEvRKNS_12HeaderRecordEtRKNS_9NumParserERKN7openpal6RSliceERNS_12IAPDUHandlerE,"axG",@progbits,_ZN8opendnp316CountIndexParser13InvokeCountOfINS_10Group2Var2EEEvRKNS_12HeaderRecordEtRKNS_9NumParserERKN7openpal6RSliceERNS_12IAPDUHandlerE,comdat
	.align 2
	.p2align 4
	.weak	_ZN8opendnp316CountIndexParser13InvokeCountOfINS_10Group2Var2EEEvRKNS_12HeaderRecordEtRKNS_9NumParserERKN7openpal6RSliceERNS_12IAPDUHandlerE
	.type	_ZN8opendnp316CountIndexParser13InvokeCountOfINS_10Group2Var2EEEvRKNS_12HeaderRecordEtRKNS_9NumParserERKN7openpal6RSliceERNS_12IAPDUHandlerE, @function
_ZN8opendnp316CountIndexParser13InvokeCountOfINS_10Group2Var2EEEvRKNS_12HeaderRecordEtRKNS_9NumParserERKN7openpal6RSliceERNS_12IAPDUHandlerE:
.LFB3118:
	.cfi_startproc
	endbr64
	subq	$88, %rsp
	.cfi_def_cfa_offset 96
	movq	%rdi, %r9
	movdqu	(%rcx), %xmm0
	movq	%r8, %rdi
	movq	%fs:40, %rax
	movq	%rax, 72(%rsp)
	movq	_ZTVN8opendnp318BufferedCollectionINS_7IndexedINS_6BinaryEEEZNS_16CountIndexParser13InvokeCountOfINS_10Group2Var2EEEvRKNS_12HeaderRecordEtRKNS_9NumParserERKN7openpal6RSliceERNS_12IAPDUHandlerEEUlRSE_jE_EE@GOTPCREL(%rip), %rax
	movdqu	(%r9), %xmm1
	movq	%rdx, 64(%rsp)
	leaq	32(%rsp), %rdx
	movw	%si, 16(%rsp)
	movups	%xmm0, 40(%rsp)
	movaps	%xmm1, (%rsp)
	addq	$16, %rax
	movq	%rax, 32(%rsp)
	movzwl	%si, %eax
	movq	%rsp, %rsi
	movq	%rax, 56(%rsp)
	call	_ZN8opendnp312IAPDUHandler8OnHeaderERKNS_12PrefixHeaderERKNS_11ICollectionINS_7IndexedINS_6BinaryEEEEE@PLT
	movq	72(%rsp), %rax
	subq	%fs:40, %rax
	jne	.L61
	addq	$88, %rsp
	.cfi_remember_state
	.cfi_def_cfa_offset 8
	ret
.L61:
	.cfi_restore_state
	call	__stack_chk_fail@PLT
	.cfi_endproc
.LFE3118:
	.size	_ZN8opendnp316CountIndexParser13InvokeCountOfINS_10Group2Var2EEEvRKNS_12HeaderRecordEtRKNS_9NumParserERKN7openpal6RSliceERNS_12IAPDUHandlerE, .-_ZN8opendnp316CountIndexParser13InvokeCountOfINS_10Group2Var2EEEvRKNS_12HeaderRecordEtRKNS_9NumParserERKN7openpal6RSliceERNS_12IAPDUHandlerE
	.section	.text._ZN8opendnp316CountIndexParser13InvokeCountOfINS_10Group2Var3EEEvRKNS_12HeaderRecordEtRKNS_9NumParserERKN7openpal6RSliceERNS_12IAPDUHandlerE,"axG",@progbits,_ZN8opendnp316CountIndexParser13InvokeCountOfINS_10Group2Var3EEEvRKNS_12HeaderRecordEtRKNS_9NumParserERKN7openpal6RSliceERNS_12IAPDUHandlerE,comdat
	.align 2
	.p2align 4
	.weak	_ZN8opendnp316CountIndexParser13InvokeCountOfINS_10Group2Var3EEEvRKNS_12HeaderRecordEtRKNS_9NumParserERKN7openpal6RSliceERNS_12IAPDUHandlerE
	.type	_ZN8opendnp316CountIndexParser13InvokeCountOfINS_10Group2Var3EEEvRKNS_12HeaderRecordEtRKNS_9NumParserERKN7openpal6RSliceERNS_12IAPDUHandlerE, @function
_ZN8opendnp316CountIndexParser13InvokeCountOfINS_10Group2Var3EEEvRKNS_12HeaderRecordEtRKNS_9NumParserERKN7openpal6RSliceERNS_12IAPDUHandlerE:
.LFB3123:
	.cfi_startproc
	endbr64
	subq	$88, %rsp
	.cfi_def_cfa_offset 96
	movq	%rdi, %r9
	movdqu	(%rcx), %xmm0
	movq	%r8, %rdi
	movq	%fs:40, %rax
	movq	%rax, 72(%rsp)
	movq	_ZTVN8opendnp318BufferedCollectionINS_7IndexedINS_6BinaryEEEZNS_16CountIndexParser13InvokeCountOfINS_10Group2Var3EEEvRKNS_12HeaderRecordEtRKNS_9NumParserERKN7openpal6RSliceERNS_12IAPDUHandlerEEUlRSE_jE_EE@GOTPCREL(%rip), %rax
	movdqu	(%r9), %xmm1
	movq	%rdx, 64(%rsp)
	leaq	32(%rsp), %rdx
	movw	%si, 16(%rsp)
	movups	%xmm0, 40(%rsp)
	movaps	%xmm1, (%rsp)
	addq	$16, %rax
	movq	%rax, 32(%rsp)
	movzwl	%si, %eax
	movq	%rsp, %rsi
	movq	%rax, 56(%rsp)
	call	_ZN8opendnp312IAPDUHandler8OnHeaderERKNS_12PrefixHeaderERKNS_11ICollectionINS_7IndexedINS_6BinaryEEEEE@PLT
	movq	72(%rsp), %rax
	subq	%fs:40, %rax
	jne	.L65
	addq	$88, %rsp
	.cfi_remember_state
	.cfi_def_cfa_offset 8
	ret
.L65:
	.cfi_restore_state
	call	__stack_chk_fail@PLT
	.cfi_endproc
.LFE3123:
	.size	_ZN8opendnp316CountIndexParser13InvokeCountOfINS_10Group2Var3EEEvRKNS_12HeaderRecordEtRKNS_9NumParserERKN7openpal6RSliceERNS_12IAPDUHandlerE, .-_ZN8opendnp316CountIndexParser13InvokeCountOfINS_10Group2Var3EEEvRKNS_12HeaderRecordEtRKNS_9NumParserERKN7openpal6RSliceERNS_12IAPDUHandlerE
	.section	.text._ZN8opendnp316CountIndexParser13InvokeCountOfINS_10Group4Var1EEEvRKNS_12HeaderRecordEtRKNS_9NumParserERKN7openpal6RSliceERNS_12IAPDUHandlerE,"axG",@progbits,_ZN8opendnp316CountIndexParser13InvokeCountOfINS_10Group4Var1EEEvRKNS_12HeaderRecordEtRKNS_9NumParserERKN7openpal6RSliceERNS_12IAPDUHandlerE,comdat
	.align 2
	.p2align 4
	.weak	_ZN8opendnp316CountIndexParser13InvokeCountOfINS_10Group4Var1EEEvRKNS_12HeaderRecordEtRKNS_9NumParserERKN7openpal6RSliceERNS_12IAPDUHandlerE
	.type	_ZN8opendnp316CountIndexParser13InvokeCountOfINS_10Group4Var1EEEvRKNS_12HeaderRecordEtRKNS_9NumParserERKN7openpal6RSliceERNS_12IAPDUHandlerE, @function
_ZN8opendnp316CountIndexParser13InvokeCountOfINS_10Group4Var1EEEvRKNS_12HeaderRecordEtRKNS_9NumParserERKN7openpal6RSliceERNS_12IAPDUHandlerE:
.LFB3128:
	.cfi_startproc
	endbr64
	subq	$88, %rsp
	.cfi_def_cfa_offset 96
	movq	%rdi, %r9
	movdqu	(%rcx), %xmm0
	movq	%r8, %rdi
	movq	%fs:40, %rax
	movq	%rax, 72(%rsp)
	movq	_ZTVN8opendnp318BufferedCollectionINS_7IndexedINS_15DoubleBitBinaryEEEZNS_16CountIndexParser13InvokeCountOfINS_10Group4Var1EEEvRKNS_12HeaderRecordEtRKNS_9NumParserERKN7openpal6RSliceERNS_12IAPDUHandlerEEUlRSE_jE_EE@GOTPCREL(%rip), %rax
	movdqu	(%r9), %xmm1
	movq	%rdx, 64(%rsp)
	leaq	32(%rsp), %rdx
	movw	%si, 16(%rsp)
	movups	%xmm0, 40(%rsp)
	movaps	%xmm1, (%rsp)
	addq	$16, %rax
	movq	%rax, 32(%rsp)
	movzwl	%si, %eax
	movq	%rsp, %rsi
	movq	%rax, 56(%rsp)
	call	_ZN8opendnp312IAPDUHandler8OnHeaderERKNS_12PrefixHeaderERKNS_11ICollectionINS_7IndexedINS_15DoubleBitBinaryEEEEE@PLT
	movq	72(%rsp), %rax
	subq	%fs:40, %rax
	jne	.L69
	addq	$88, %rsp
	.cfi_remember_state
	.cfi_def_cfa_offset 8
	ret
.L69:
	.cfi_restore_state
	call	__stack_chk_fail@PLT
	.cfi_endproc
.LFE3128:
	.size	_ZN8opendnp316CountIndexParser13InvokeCountOfINS_10Group4Var1EEEvRKNS_12HeaderRecordEtRKNS_9NumParserERKN7openpal6RSliceERNS_12IAPDUHandlerE, .-_ZN8opendnp316CountIndexParser13InvokeCountOfINS_10Group4Var1EEEvRKNS_12HeaderRecordEtRKNS_9NumParserERKN7openpal6RSliceERNS_12IAPDUHandlerE
	.section	.text._ZN8opendnp316CountIndexParser13InvokeCountOfINS_10Group4Var2EEEvRKNS_12HeaderRecordEtRKNS_9NumParserERKN7openpal6RSliceERNS_12IAPDUHandlerE,"axG",@progbits,_ZN8opendnp316CountIndexParser13InvokeCountOfINS_10Group4Var2EEEvRKNS_12HeaderRecordEtRKNS_9NumParserERKN7openpal6RSliceERNS_12IAPDUHandlerE,comdat
	.align 2
	.p2align 4
	.weak	_ZN8opendnp316CountIndexParser13InvokeCountOfINS_10Group4Var2EEEvRKNS_12HeaderRecordEtRKNS_9NumParserERKN7openpal6RSliceERNS_12IAPDUHandlerE
	.type	_ZN8opendnp316CountIndexParser13InvokeCountOfINS_10Group4Var2EEEvRKNS_12HeaderRecordEtRKNS_9NumParserERKN7openpal6RSliceERNS_12IAPDUHandlerE, @function
_ZN8opendnp316CountIndexParser13InvokeCountOfINS_10Group4Var2EEEvRKNS_12HeaderRecordEtRKNS_9NumParserERKN7openpal6RSliceERNS_12IAPDUHandlerE:
.LFB3136:
	.cfi_startproc
	endbr64
	subq	$88, %rsp
	.cfi_def_cfa_offset 96
	movq	%rdi, %r9
	movdqu	(%rcx), %xmm0
	movq	%r8, %rdi
	movq	%fs:40, %rax
	movq	%rax, 72(%rsp)
	movq	_ZTVN8opendnp318BufferedCollectionINS_7IndexedINS_15DoubleBitBinaryEEEZNS_16CountIndexParser13InvokeCountOfINS_10Group4Var2EEEvRKNS_12HeaderRecordEtRKNS_9NumParserERKN7openpal6RSliceERNS_12IAPDUHandlerEEUlRSE_jE_EE@GOTPCREL(%rip), %rax
	movdqu	(%r9), %xmm1
	movq	%rdx, 64(%rsp)
	leaq	32(%rsp), %rdx
	movw	%si, 16(%rsp)
	movups	%xmm0, 40(%rsp)
	movaps	%xmm1, (%rsp)
	addq	$16, %rax
	movq	%rax, 32(%rsp)
	movzwl	%si, %eax
	movq	%rsp, %rsi
	movq	%rax, 56(%rsp)
	call	_ZN8opendnp312IAPDUHandler8OnHeaderERKNS_12PrefixHeaderERKNS_11ICollectionINS_7IndexedINS_15DoubleBitBinaryEEEEE@PLT
	movq	72(%rsp), %rax
	subq	%fs:40, %rax
	jne	.L73
	addq	$88, %rsp
	.cfi_remember_state
	.cfi_def_cfa_offset 8
	ret
.L73:
	.cfi_restore_state
	call	__stack_chk_fail@PLT
	.cfi_endproc
.LFE3136:
	.size	_ZN8opendnp316CountIndexParser13InvokeCountOfINS_10Group4Var2EEEvRKNS_12HeaderRecordEtRKNS_9NumParserERKN7openpal6RSliceERNS_12IAPDUHandlerE, .-_ZN8opendnp316CountIndexParser13InvokeCountOfINS_10Group4Var2EEEvRKNS_12HeaderRecordEtRKNS_9NumParserERKN7openpal6RSliceERNS_12IAPDUHandlerE
	.section	.text._ZN8opendnp316CountIndexParser13InvokeCountOfINS_10Group4Var3EEEvRKNS_12HeaderRecordEtRKNS_9NumParserERKN7openpal6RSliceERNS_12IAPDUHandlerE,"axG",@progbits,_ZN8opendnp316CountIndexParser13InvokeCountOfINS_10Group4Var3EEEvRKNS_12HeaderRecordEtRKNS_9NumParserERKN7openpal6RSliceERNS_12IAPDUHandlerE,comdat
	.align 2
	.p2align 4
	.weak	_ZN8opendnp316CountIndexParser13InvokeCountOfINS_10Group4Var3EEEvRKNS_12HeaderRecordEtRKNS_9NumParserERKN7openpal6RSliceERNS_12IAPDUHandlerE
	.type	_ZN8opendnp316CountIndexParser13InvokeCountOfINS_10Group4Var3EEEvRKNS_12HeaderRecordEtRKNS_9NumParserERKN7openpal6RSliceERNS_12IAPDUHandlerE, @function
_ZN8opendnp316CountIndexParser13InvokeCountOfINS_10Group4Var3EEEvRKNS_12HeaderRecordEtRKNS_9NumParserERKN7openpal6RSliceERNS_12IAPDUHandlerE:
.LFB3141:
	.cfi_startproc
	endbr64
	subq	$88, %rsp
	.cfi_def_cfa_offset 96
	movq	%rdi, %r9
	movdqu	(%rcx), %xmm0
	movq	%r8, %rdi
	movq	%fs:40, %rax
	movq	%rax, 72(%rsp)
	movq	_ZTVN8opendnp318BufferedCollectionINS_7IndexedINS_15DoubleBitBinaryEEEZNS_16CountIndexParser13InvokeCountOfINS_10Group4Var3EEEvRKNS_12HeaderRecordEtRKNS_9NumParserERKN7openpal6RSliceERNS_12IAPDUHandlerEEUlRSE_jE_EE@GOTPCREL(%rip), %rax
	movdqu	(%r9), %xmm1
	movq	%rdx, 64(%rsp)
	leaq	32(%rsp), %rdx
	movw	%si, 16(%rsp)
	movups	%xmm0, 40(%rsp)
	movaps	%xmm1, (%rsp)
	addq	$16, %rax
	movq	%rax, 32(%rsp)
	movzwl	%si, %eax
	movq	%rsp, %rsi
	movq	%rax, 56(%rsp)
	call	_ZN8opendnp312IAPDUHandler8OnHeaderERKNS_12PrefixHeaderERKNS_11ICollectionINS_7IndexedINS_15DoubleBitBinaryEEEEE@PLT
	movq	72(%rsp), %rax
	subq	%fs:40, %rax
	jne	.L77
	addq	$88, %rsp
	.cfi_remember_state
	.cfi_def_cfa_offset 8
	ret
.L77:
	.cfi_restore_state
	call	__stack_chk_fail@PLT
	.cfi_endproc
.LFE3141:
	.size	_ZN8opendnp316CountIndexParser13InvokeCountOfINS_10Group4Var3EEEvRKNS_12HeaderRecordEtRKNS_9NumParserERKN7openpal6RSliceERNS_12IAPDUHandlerE, .-_ZN8opendnp316CountIndexParser13InvokeCountOfINS_10Group4Var3EEEvRKNS_12HeaderRecordEtRKNS_9NumParserERKN7openpal6RSliceERNS_12IAPDUHandlerE
	.section	.text._ZN8opendnp316CountIndexParser13InvokeCountOfINS_11Group11Var1EEEvRKNS_12HeaderRecordEtRKNS_9NumParserERKN7openpal6RSliceERNS_12IAPDUHandlerE,"axG",@progbits,_ZN8opendnp316CountIndexParser13InvokeCountOfINS_11Group11Var1EEEvRKNS_12HeaderRecordEtRKNS_9NumParserERKN7openpal6RSliceERNS_12IAPDUHandlerE,comdat
	.align 2
	.p2align 4
	.weak	_ZN8opendnp316CountIndexParser13InvokeCountOfINS_11Group11Var1EEEvRKNS_12HeaderRecordEtRKNS_9NumParserERKN7openpal6RSliceERNS_12IAPDUHandlerE
	.type	_ZN8opendnp316CountIndexParser13InvokeCountOfINS_11Group11Var1EEEvRKNS_12HeaderRecordEtRKNS_9NumParserERKN7openpal6RSliceERNS_12IAPDUHandlerE, @function
_ZN8opendnp316CountIndexParser13InvokeCountOfINS_11Group11Var1EEEvRKNS_12HeaderRecordEtRKNS_9NumParserERKN7openpal6RSliceERNS_12IAPDUHandlerE:
.LFB3146:
	.cfi_startproc
	endbr64
	subq	$88, %rsp
	.cfi_def_cfa_offset 96
	movq	%rdi, %r9
	movdqu	(%rcx), %xmm0
	movq	%r8, %rdi
	movq	%fs:40, %rax
	movq	%rax, 72(%rsp)
	movq	_ZTVN8opendnp318BufferedCollectionINS_7IndexedINS_18BinaryOutputStatusEEEZNS_16CountIndexParser13InvokeCountOfINS_11Group11Var1EEEvRKNS_12HeaderRecordEtRKNS_9NumParserERKN7openpal6RSliceERNS_12IAPDUHandlerEEUlRSE_jE_EE@GOTPCREL(%rip), %rax
	movdqu	(%r9), %xmm1
	movq	%rdx, 64(%rsp)
	leaq	32(%rsp), %rdx
	movw	%si, 16(%rsp)
	movups	%xmm0, 40(%rsp)
	movaps	%xmm1, (%rsp)
	addq	$16, %rax
	movq	%rax, 32(%rsp)
	movzwl	%si, %eax
	movq	%rsp, %rsi
	movq	%rax, 56(%rsp)
	call	_ZN8opendnp312IAPDUHandler8OnHeaderERKNS_12PrefixHeaderERKNS_11ICollectionINS_7IndexedINS_18BinaryOutputStatusEEEEE@PLT
	movq	72(%rsp), %rax
	subq	%fs:40, %rax
	jne	.L81
	addq	$88, %rsp
	.cfi_remember_state
	.cfi_def_cfa_offset 8
	ret
.L81:
	.cfi_restore_state
	call	__stack_chk_fail@PLT
	.cfi_endproc
.LFE3146:
	.size	_ZN8opendnp316CountIndexParser13InvokeCountOfINS_11Group11Var1EEEvRKNS_12HeaderRecordEtRKNS_9NumParserERKN7openpal6RSliceERNS_12IAPDUHandlerE, .-_ZN8opendnp316CountIndexParser13InvokeCountOfINS_11Group11Var1EEEvRKNS_12HeaderRecordEtRKNS_9NumParserERKN7openpal6RSliceERNS_12IAPDUHandlerE
	.section	.text._ZN8opendnp316CountIndexParser13InvokeCountOfINS_11Group11Var2EEEvRKNS_12HeaderRecordEtRKNS_9NumParserERKN7openpal6RSliceERNS_12IAPDUHandlerE,"axG",@progbits,_ZN8opendnp316CountIndexParser13InvokeCountOfINS_11Group11Var2EEEvRKNS_12HeaderRecordEtRKNS_9NumParserERKN7openpal6RSliceERNS_12IAPDUHandlerE,comdat
	.align 2
	.p2align 4
	.weak	_ZN8opendnp316CountIndexParser13InvokeCountOfINS_11Group11Var2EEEvRKNS_12HeaderRecordEtRKNS_9NumParserERKN7openpal6RSliceERNS_12IAPDUHandlerE
	.type	_ZN8opendnp316CountIndexParser13InvokeCountOfINS_11Group11Var2EEEvRKNS_12HeaderRecordEtRKNS_9NumParserERKN7openpal6RSliceERNS_12IAPDUHandlerE, @function
_ZN8opendnp316CountIndexParser13InvokeCountOfINS_11Group11Var2EEEvRKNS_12HeaderRecordEtRKNS_9NumParserERKN7openpal6RSliceERNS_12IAPDUHandlerE:
.LFB3154:
	.cfi_startproc
	endbr64
	subq	$88, %rsp
	.cfi_def_cfa_offset 96
	movq	%rdi, %r9
	movdqu	(%rcx), %xmm0
	movq	%r8, %rdi
	movq	%fs:40, %rax
	movq	%rax, 72(%rsp)
	movq	_ZTVN8opendnp318BufferedCollectionINS_7IndexedINS_18BinaryOutputStatusEEEZNS_16CountIndexParser13InvokeCountOfINS_11Group11Var2EEEvRKNS_12HeaderRecordEtRKNS_9NumParserERKN7openpal6RSliceERNS_12IAPDUHandlerEEUlRSE_jE_EE@GOTPCREL(%rip), %rax
	movdqu	(%r9), %xmm1
	movq	%rdx, 64(%rsp)
	leaq	32(%rsp), %rdx
	movw	%si, 16(%rsp)
	movups	%xmm0, 40(%rsp)
	movaps	%xmm1, (%rsp)
	addq	$16, %rax
	movq	%rax, 32(%rsp)
	movzwl	%si, %eax
	movq	%rsp, %rsi
	movq	%rax, 56(%rsp)
	call	_ZN8opendnp312IAPDUHandler8OnHeaderERKNS_12PrefixHeaderERKNS_11ICollectionINS_7IndexedINS_18BinaryOutputStatusEEEEE@PLT
	movq	72(%rsp), %rax
	subq	%fs:40, %rax
	jne	.L85
	addq	$88, %rsp
	.cfi_remember_state
	.cfi_def_cfa_offset 8
	ret
.L85:
	.cfi_restore_state
	call	__stack_chk_fail@PLT
	.cfi_endproc
.LFE3154:
	.size	_ZN8opendnp316CountIndexParser13InvokeCountOfINS_11Group11Var2EEEvRKNS_12HeaderRecordEtRKNS_9NumParserERKN7openpal6RSliceERNS_12IAPDUHandlerE, .-_ZN8opendnp316CountIndexParser13InvokeCountOfINS_11Group11Var2EEEvRKNS_12HeaderRecordEtRKNS_9NumParserERKN7openpal6RSliceERNS_12IAPDUHandlerE
	.section	.text._ZN8opendnp316CountIndexParser13InvokeCountOfINS_11Group12Var1EEEvRKNS_12HeaderRecordEtRKNS_9NumParserERKN7openpal6RSliceERNS_12IAPDUHandlerE,"axG",@progbits,_ZN8opendnp316CountIndexParser13InvokeCountOfINS_11Group12Var1EEEvRKNS_12HeaderRecordEtRKNS_9NumParserERKN7openpal6RSliceERNS_12IAPDUHandlerE,comdat
	.align 2
	.p2align 4
	.weak	_ZN8opendnp316CountIndexParser13InvokeCountOfINS_11Group12Var1EEEvRKNS_12HeaderRecordEtRKNS_9NumParserERKN7openpal6RSliceERNS_12IAPDUHandlerE
	.type	_ZN8opendnp316CountIndexParser13InvokeCountOfINS_11Group12Var1EEEvRKNS_12HeaderRecordEtRKNS_9NumParserERKN7openpal6RSliceERNS_12IAPDUHandlerE, @function
_ZN8opendnp316CountIndexParser13InvokeCountOfINS_11Group12Var1EEEvRKNS_12HeaderRecordEtRKNS_9NumParserERKN7openpal6RSliceERNS_12IAPDUHandlerE:
.LFB3159:
	.cfi_startproc
	endbr64
	subq	$88, %rsp
	.cfi_def_cfa_offset 96
	movq	%rdi, %r9
	movdqu	(%rcx), %xmm0
	movq	%r8, %rdi
	movq	%fs:40, %rax
	movq	%rax, 72(%rsp)
	movq	_ZTVN8opendnp318BufferedCollectionINS_7IndexedINS_23ControlRelayOutputBlockEEEZNS_16CountIndexParser13InvokeCountOfINS_11Group12Var1EEEvRKNS_12HeaderRecordEtRKNS_9NumParserERKN7openpal6RSliceERNS_12IAPDUHandlerEEUlRSE_jE_EE@GOTPCREL(%rip), %rax
	movdqu	(%r9), %xmm1
	movq	%rdx, 64(%rsp)
	leaq	32(%rsp), %rdx
	movw	%si, 16(%rsp)
	movups	%xmm0, 40(%rsp)
	movaps	%xmm1, (%rsp)
	addq	$16, %rax
	movq	%rax, 32(%rsp)
	movzwl	%si, %eax
	movq	%rsp, %rsi
	movq	%rax, 56(%rsp)
	call	_ZN8opendnp312IAPDUHandler8OnHeaderERKNS_12PrefixHeaderERKNS_11ICollectionINS_7IndexedINS_23ControlRelayOutputBlockEEEEE@PLT
	movq	72(%rsp), %rax
	subq	%fs:40, %rax
	jne	.L89
	addq	$88, %rsp
	.cfi_remember_state
	.cfi_def_cfa_offset 8
	ret
.L89:
	.cfi_restore_state
	call	__stack_chk_fail@PLT
	.cfi_endproc
.LFE3159:
	.size	_ZN8opendnp316CountIndexParser13InvokeCountOfINS_11Group12Var1EEEvRKNS_12HeaderRecordEtRKNS_9NumParserERKN7openpal6RSliceERNS_12IAPDUHandlerE, .-_ZN8opendnp316CountIndexParser13InvokeCountOfINS_11Group12Var1EEEvRKNS_12HeaderRecordEtRKNS_9NumParserERKN7openpal6RSliceERNS_12IAPDUHandlerE
	.section	.text._ZNK8opendnp318BufferedCollectionINS_7IndexedINS_23ControlRelayOutputBlockEEEZNS_16CountIndexParser13InvokeCountOfINS_11Group12Var1EEEvRKNS_12HeaderRecordEtRKNS_9NumParserERKN7openpal6RSliceERNS_12IAPDUHandlerEEUlRSE_jE_E7ForeachERNS_8IVisitorIS3_EE,"axG",@progbits,_ZNK8opendnp318BufferedCollectionINS_7IndexedINS_23ControlRelayOutputBlockEEEZNS_16CountIndexParser13InvokeCountOfINS_11Group12Var1EEEvRKNS_12HeaderRecordEtRKNS_9NumParserERKN7openpal6RSliceERNS_12IAPDUHandlerEEUlRSE_jE_E7ForeachERNS_8IVisitorIS3_EE,comdat
	.align 2
	.p2align 4
	.weak	_ZNK8opendnp318BufferedCollectionINS_7IndexedINS_23ControlRelayOutputBlockEEEZNS_16CountIndexParser13InvokeCountOfINS_11Group12Var1EEEvRKNS_12HeaderRecordEtRKNS_9NumParserERKN7openpal6RSliceERNS_12IAPDUHandlerEEUlRSE_jE_E7ForeachERNS_8IVisitorIS3_EE
	.type	_ZNK8opendnp318BufferedCollectionINS_7IndexedINS_23ControlRelayOutputBlockEEEZNS_16CountIndexParser13InvokeCountOfINS_11Group12Var1EEEvRKNS_12HeaderRecordEtRKNS_9NumParserERKN7openpal6RSliceERNS_12IAPDUHandlerEEUlRSE_jE_E7ForeachERNS_8IVisitorIS3_EE, @function
_ZNK8opendnp318BufferedCollectionINS_7IndexedINS_23ControlRelayOutputBlockEEEZNS_16CountIndexParser13InvokeCountOfINS_11Group12Var1EEEvRKNS_12HeaderRecordEtRKNS_9NumParserERKN7openpal6RSliceERNS_12IAPDUHandlerEEUlRSE_jE_E7ForeachERNS_8IVisitorIS3_EE:
.LFB4063:
	.cfi_startproc
	endbr64
	pushq	%r15
	.cfi_def_cfa_offset 16
	.cfi_offset 15, -16
	pushq	%r14
	.cfi_def_cfa_offset 24
	.cfi_offset 14, -24
	pushq	%r13
	.cfi_def_cfa_offset 32
	.cfi_offset 13, -32
	pushq	%r12
	.cfi_def_cfa_offset 40
	.cfi_offset 12, -40
	pushq	%rbp
	.cfi_def_cfa_offset 48
	.cfi_offset 6, -48
	pushq	%rbx
	.cfi_def_cfa_offset 56
	.cfi_offset 3, -56
	subq	$56, %rsp
	.cfi_def_cfa_offset 112
	movdqu	8(%rdi), %xmm0
	movq	%fs:40, %rax
	movq	%rax, 40(%rsp)
	xorl	%eax, %eax
	cmpq	$0, 24(%rdi)
	movaps	%xmm0, (%rsp)
	je	.L90
	movq	%rdi, %r12
	movq	%rsi, %r13
	xorl	%ebp, %ebp
	movq	%rsp, %r14
	leaq	16(%rsp), %rbx
	.p2align 4,,10
	.p2align 3
.L92:
	movq	0(%r13), %rax
	xorl	%r9d, %r9d
	movl	$100, %r8d
	movq	%rbx, %rdi
	movl	$100, %ecx
	movl	$1, %edx
	movl	$3, %esi
	movq	(%rax), %r15
	call	_ZN8opendnp323ControlRelayOutputBlockC1ENS_11ControlCodeEhjjNS_13CommandStatusE@PLT
	movq	32(%r12), %rdi
	xorl	%eax, %eax
	movq	%r14, %rsi
	movw	%ax, 32(%rsp)
	call	_ZNK8opendnp39NumParser7ReadNumERN7openpal6RSliceE@PLT
	movq	%rbx, %rsi
	movq	%r14, %rdi
	movw	%ax, 32(%rsp)
	call	_ZN8opendnp311Group12Var110ReadTargetERN7openpal6RSliceERNS_23ControlRelayOutputBlockE@PLT
	movq	%rbx, %rsi
	movq	%r13, %rdi
	call	*%r15
	leal	1(%rbp), %eax
	movq	%rax, %rbp
	cmpq	24(%r12), %rax
	jb	.L92
.L90:
	movq	40(%rsp), %rax
	subq	%fs:40, %rax
	jne	.L96
	addq	$56, %rsp
	.cfi_remember_state
	.cfi_def_cfa_offset 56
	popq	%rbx
	.cfi_def_cfa_offset 48
	popq	%rbp
	.cfi_def_cfa_offset 40
	popq	%r12
	.cfi_def_cfa_offset 32
	popq	%r13
	.cfi_def_cfa_offset 24
	popq	%r14
	.cfi_def_cfa_offset 16
	popq	%r15
	.cfi_def_cfa_offset 8
	ret
.L96:
	.cfi_restore_state
	call	__stack_chk_fail@PLT
	.cfi_endproc
.LFE4063:
	.size	_ZNK8opendnp318BufferedCollectionINS_7IndexedINS_23ControlRelayOutputBlockEEEZNS_16CountIndexParser13InvokeCountOfINS_11Group12Var1EEEvRKNS_12HeaderRecordEtRKNS_9NumParserERKN7openpal6RSliceERNS_12IAPDUHandlerEEUlRSE_jE_E7ForeachERNS_8IVisitorIS3_EE, .-_ZNK8opendnp318BufferedCollectionINS_7IndexedINS_23ControlRelayOutputBlockEEEZNS_16CountIndexParser13InvokeCountOfINS_11Group12Var1EEEvRKNS_12HeaderRecordEtRKNS_9NumParserERKN7openpal6RSliceERNS_12IAPDUHandlerEEUlRSE_jE_E7ForeachERNS_8IVisitorIS3_EE
	.section	.text._ZN8opendnp316CountIndexParser13InvokeCountOfINS_11Group13Var1EEEvRKNS_12HeaderRecordEtRKNS_9NumParserERKN7openpal6RSliceERNS_12IAPDUHandlerE,"axG",@progbits,_ZN8opendnp316CountIndexParser13InvokeCountOfINS_11Group13Var1EEEvRKNS_12HeaderRecordEtRKNS_9NumParserERKN7openpal6RSliceERNS_12IAPDUHandlerE,comdat
	.align 2
	.p2align 4
	.weak	_ZN8opendnp316CountIndexParser13InvokeCountOfINS_11Group13Var1EEEvRKNS_12HeaderRecordEtRKNS_9NumParserERKN7openpal6RSliceERNS_12IAPDUHandlerE
	.type	_ZN8opendnp316CountIndexParser13InvokeCountOfINS_11Group13Var1EEEvRKNS_12HeaderRecordEtRKNS_9NumParserERKN7openpal6RSliceERNS_12IAPDUHandlerE, @function
_ZN8opendnp316CountIndexParser13InvokeCountOfINS_11Group13Var1EEEvRKNS_12HeaderRecordEtRKNS_9NumParserERKN7openpal6RSliceERNS_12IAPDUHandlerE:
.LFB3167:
	.cfi_startproc
	endbr64
	subq	$88, %rsp
	.cfi_def_cfa_offset 96
	movq	%rdi, %r9
	movdqu	(%rcx), %xmm0
	movq	%r8, %rdi
	movq	%fs:40, %rax
	movq	%rax, 72(%rsp)
	movq	_ZTVN8opendnp318BufferedCollectionINS_7IndexedINS_18BinaryCommandEventEEEZNS_16CountIndexParser13InvokeCountOfINS_11Group13Var1EEEvRKNS_12HeaderRecordEtRKNS_9NumParserERKN7openpal6RSliceERNS_12IAPDUHandlerEEUlRSE_jE_EE@GOTPCREL(%rip), %rax
	movdqu	(%r9), %xmm1
	movq	%rdx, 64(%rsp)
	leaq	32(%rsp), %rdx
	movw	%si, 16(%rsp)
	movups	%xmm0, 40(%rsp)
	movaps	%xmm1, (%rsp)
	addq	$16, %rax
	movq	%rax, 32(%rsp)
	movzwl	%si, %eax
	movq	%rsp, %rsi
	movq	%rax, 56(%rsp)
	call	_ZN8opendnp312IAPDUHandler8OnHeaderERKNS_12PrefixHeaderERKNS_11ICollectionINS_7IndexedINS_18BinaryCommandEventEEEEE@PLT
	movq	72(%rsp), %rax
	subq	%fs:40, %rax
	jne	.L100
	addq	$88, %rsp
	.cfi_remember_state
	.cfi_def_cfa_offset 8
	ret
.L100:
	.cfi_restore_state
	call	__stack_chk_fail@PLT
	.cfi_endproc
.LFE3167:
	.size	_ZN8opendnp316CountIndexParser13InvokeCountOfINS_11Group13Var1EEEvRKNS_12HeaderRecordEtRKNS_9NumParserERKN7openpal6RSliceERNS_12IAPDUHandlerE, .-_ZN8opendnp316CountIndexParser13InvokeCountOfINS_11Group13Var1EEEvRKNS_12HeaderRecordEtRKNS_9NumParserERKN7openpal6RSliceERNS_12IAPDUHandlerE
	.section	.text._ZN8opendnp316CountIndexParser13InvokeCountOfINS_11Group13Var2EEEvRKNS_12HeaderRecordEtRKNS_9NumParserERKN7openpal6RSliceERNS_12IAPDUHandlerE,"axG",@progbits,_ZN8opendnp316CountIndexParser13InvokeCountOfINS_11Group13Var2EEEvRKNS_12HeaderRecordEtRKNS_9NumParserERKN7openpal6RSliceERNS_12IAPDUHandlerE,comdat
	.align 2
	.p2align 4
	.weak	_ZN8opendnp316CountIndexParser13InvokeCountOfINS_11Group13Var2EEEvRKNS_12HeaderRecordEtRKNS_9NumParserERKN7openpal6RSliceERNS_12IAPDUHandlerE
	.type	_ZN8opendnp316CountIndexParser13InvokeCountOfINS_11Group13Var2EEEvRKNS_12HeaderRecordEtRKNS_9NumParserERKN7openpal6RSliceERNS_12IAPDUHandlerE, @function
_ZN8opendnp316CountIndexParser13InvokeCountOfINS_11Group13Var2EEEvRKNS_12HeaderRecordEtRKNS_9NumParserERKN7openpal6RSliceERNS_12IAPDUHandlerE:
.LFB3175:
	.cfi_startproc
	endbr64
	subq	$88, %rsp
	.cfi_def_cfa_offset 96
	movq	%rdi, %r9
	movdqu	(%rcx), %xmm0
	movq	%r8, %rdi
	movq	%fs:40, %rax
	movq	%rax, 72(%rsp)
	movq	_ZTVN8opendnp318BufferedCollectionINS_7IndexedINS_18BinaryCommandEventEEEZNS_16CountIndexParser13InvokeCountOfINS_11Group13Var2EEEvRKNS_12HeaderRecordEtRKNS_9NumParserERKN7openpal6RSliceERNS_12IAPDUHandlerEEUlRSE_jE_EE@GOTPCREL(%rip), %rax
	movdqu	(%r9), %xmm1
	movq	%rdx, 64(%rsp)
	leaq	32(%rsp), %rdx
	movw	%si, 16(%rsp)
	movups	%xmm0, 40(%rsp)
	movaps	%xmm1, (%rsp)
	addq	$16, %rax
	movq	%rax, 32(%rsp)
	movzwl	%si, %eax
	movq	%rsp, %rsi
	movq	%rax, 56(%rsp)
	call	_ZN8opendnp312IAPDUHandler8OnHeaderERKNS_12PrefixHeaderERKNS_11ICollectionINS_7IndexedINS_18BinaryCommandEventEEEEE@PLT
	movq	72(%rsp), %rax
	subq	%fs:40, %rax
	jne	.L104
	addq	$88, %rsp
	.cfi_remember_state
	.cfi_def_cfa_offset 8
	ret
.L104:
	.cfi_restore_state
	call	__stack_chk_fail@PLT
	.cfi_endproc
.LFE3175:
	.size	_ZN8opendnp316CountIndexParser13InvokeCountOfINS_11Group13Var2EEEvRKNS_12HeaderRecordEtRKNS_9NumParserERKN7openpal6RSliceERNS_12IAPDUHandlerE, .-_ZN8opendnp316CountIndexParser13InvokeCountOfINS_11Group13Var2EEEvRKNS_12HeaderRecordEtRKNS_9NumParserERKN7openpal6RSliceERNS_12IAPDUHandlerE
	.section	.text._ZN8opendnp316CountIndexParser13InvokeCountOfINS_11Group22Var1EEEvRKNS_12HeaderRecordEtRKNS_9NumParserERKN7openpal6RSliceERNS_12IAPDUHandlerE,"axG",@progbits,_ZN8opendnp316CountIndexParser13InvokeCountOfINS_11Group22Var1EEEvRKNS_12HeaderRecordEtRKNS_9NumParserERKN7openpal6RSliceERNS_12IAPDUHandlerE,comdat
	.align 2
	.p2align 4
	.weak	_ZN8opendnp316CountIndexParser13InvokeCountOfINS_11Group22Var1EEEvRKNS_12HeaderRecordEtRKNS_9NumParserERKN7openpal6RSliceERNS_12IAPDUHandlerE
	.type	_ZN8opendnp316CountIndexParser13InvokeCountOfINS_11Group22Var1EEEvRKNS_12HeaderRecordEtRKNS_9NumParserERKN7openpal6RSliceERNS_12IAPDUHandlerE, @function
_ZN8opendnp316CountIndexParser13InvokeCountOfINS_11Group22Var1EEEvRKNS_12HeaderRecordEtRKNS_9NumParserERKN7openpal6RSliceERNS_12IAPDUHandlerE:
.LFB3180:
	.cfi_startproc
	endbr64
	subq	$88, %rsp
	.cfi_def_cfa_offset 96
	movq	%rdi, %r9
	movdqu	(%rcx), %xmm0
	movq	%r8, %rdi
	movq	%fs:40, %rax
	movq	%rax, 72(%rsp)
	movq	_ZTVN8opendnp318BufferedCollectionINS_7IndexedINS_7CounterEEEZNS_16CountIndexParser13InvokeCountOfINS_11Group22Var1EEEvRKNS_12HeaderRecordEtRKNS_9NumParserERKN7openpal6RSliceERNS_12IAPDUHandlerEEUlRSE_jE_EE@GOTPCREL(%rip), %rax
	movdqu	(%r9), %xmm1
	movq	%rdx, 64(%rsp)
	leaq	32(%rsp), %rdx
	movw	%si, 16(%rsp)
	movups	%xmm0, 40(%rsp)
	movaps	%xmm1, (%rsp)
	addq	$16, %rax
	movq	%rax, 32(%rsp)
	movzwl	%si, %eax
	movq	%rsp, %rsi
	movq	%rax, 56(%rsp)
	call	_ZN8opendnp312IAPDUHandler8OnHeaderERKNS_12PrefixHeaderERKNS_11ICollectionINS_7IndexedINS_7CounterEEEEE@PLT
	movq	72(%rsp), %rax
	subq	%fs:40, %rax
	jne	.L108
	addq	$88, %rsp
	.cfi_remember_state
	.cfi_def_cfa_offset 8
	ret
.L108:
	.cfi_restore_state
	call	__stack_chk_fail@PLT
	.cfi_endproc
.LFE3180:
	.size	_ZN8opendnp316CountIndexParser13InvokeCountOfINS_11Group22Var1EEEvRKNS_12HeaderRecordEtRKNS_9NumParserERKN7openpal6RSliceERNS_12IAPDUHandlerE, .-_ZN8opendnp316CountIndexParser13InvokeCountOfINS_11Group22Var1EEEvRKNS_12HeaderRecordEtRKNS_9NumParserERKN7openpal6RSliceERNS_12IAPDUHandlerE
	.section	.text._ZN8opendnp316CountIndexParser13InvokeCountOfINS_11Group22Var2EEEvRKNS_12HeaderRecordEtRKNS_9NumParserERKN7openpal6RSliceERNS_12IAPDUHandlerE,"axG",@progbits,_ZN8opendnp316CountIndexParser13InvokeCountOfINS_11Group22Var2EEEvRKNS_12HeaderRecordEtRKNS_9NumParserERKN7openpal6RSliceERNS_12IAPDUHandlerE,comdat
	.align 2
	.p2align 4
	.weak	_ZN8opendnp316CountIndexParser13InvokeCountOfINS_11Group22Var2EEEvRKNS_12HeaderRecordEtRKNS_9NumParserERKN7openpal6RSliceERNS_12IAPDUHandlerE
	.type	_ZN8opendnp316CountIndexParser13InvokeCountOfINS_11Group22Var2EEEvRKNS_12HeaderRecordEtRKNS_9NumParserERKN7openpal6RSliceERNS_12IAPDUHandlerE, @function
_ZN8opendnp316CountIndexParser13InvokeCountOfINS_11Group22Var2EEEvRKNS_12HeaderRecordEtRKNS_9NumParserERKN7openpal6RSliceERNS_12IAPDUHandlerE:
.LFB3188:
	.cfi_startproc
	endbr64
	subq	$88, %rsp
	.cfi_def_cfa_offset 96
	movq	%rdi, %r9
	movdqu	(%rcx), %xmm0
	movq	%r8, %rdi
	movq	%fs:40, %rax
	movq	%rax, 72(%rsp)
	movq	_ZTVN8opendnp318BufferedCollectionINS_7IndexedINS_7CounterEEEZNS_16CountIndexParser13InvokeCountOfINS_11Group22Var2EEEvRKNS_12HeaderRecordEtRKNS_9NumParserERKN7openpal6RSliceERNS_12IAPDUHandlerEEUlRSE_jE_EE@GOTPCREL(%rip), %rax
	movdqu	(%r9), %xmm1
	movq	%rdx, 64(%rsp)
	leaq	32(%rsp), %rdx
	movw	%si, 16(%rsp)
	movups	%xmm0, 40(%rsp)
	movaps	%xmm1, (%rsp)
	addq	$16, %rax
	movq	%rax, 32(%rsp)
	movzwl	%si, %eax
	movq	%rsp, %rsi
	movq	%rax, 56(%rsp)
	call	_ZN8opendnp312IAPDUHandler8OnHeaderERKNS_12PrefixHeaderERKNS_11ICollectionINS_7IndexedINS_7CounterEEEEE@PLT
	movq	72(%rsp), %rax
	subq	%fs:40, %rax
	jne	.L112
	addq	$88, %rsp
	.cfi_remember_state
	.cfi_def_cfa_offset 8
	ret
.L112:
	.cfi_restore_state
	call	__stack_chk_fail@PLT
	.cfi_endproc
.LFE3188:
	.size	_ZN8opendnp316CountIndexParser13InvokeCountOfINS_11Group22Var2EEEvRKNS_12HeaderRecordEtRKNS_9NumParserERKN7openpal6RSliceERNS_12IAPDUHandlerE, .-_ZN8opendnp316CountIndexParser13InvokeCountOfINS_11Group22Var2EEEvRKNS_12HeaderRecordEtRKNS_9NumParserERKN7openpal6RSliceERNS_12IAPDUHandlerE
	.section	.text._ZN8opendnp316CountIndexParser13InvokeCountOfINS_11Group22Var5EEEvRKNS_12HeaderRecordEtRKNS_9NumParserERKN7openpal6RSliceERNS_12IAPDUHandlerE,"axG",@progbits,_ZN8opendnp316CountIndexParser13InvokeCountOfINS_11Group22Var5EEEvRKNS_12HeaderRecordEtRKNS_9NumParserERKN7openpal6RSliceERNS_12IAPDUHandlerE,comdat
	.align 2
	.p2align 4
	.weak	_ZN8opendnp316CountIndexParser13InvokeCountOfINS_11Group22Var5EEEvRKNS_12HeaderRecordEtRKNS_9NumParserERKN7openpal6RSliceERNS_12IAPDUHandlerE
	.type	_ZN8opendnp316CountIndexParser13InvokeCountOfINS_11Group22Var5EEEvRKNS_12HeaderRecordEtRKNS_9NumParserERKN7openpal6RSliceERNS_12IAPDUHandlerE, @function
_ZN8opendnp316CountIndexParser13InvokeCountOfINS_11Group22Var5EEEvRKNS_12HeaderRecordEtRKNS_9NumParserERKN7openpal6RSliceERNS_12IAPDUHandlerE:
.LFB3193:
	.cfi_startproc
	endbr64
	subq	$88, %rsp
	.cfi_def_cfa_offset 96
	movq	%rdi, %r9
	movdqu	(%rcx), %xmm0
	movq	%r8, %rdi
	movq	%fs:40, %rax
	movq	%rax, 72(%rsp)
	movq	_ZTVN8opendnp318BufferedCollectionINS_7IndexedINS_7CounterEEEZNS_16CountIndexParser13InvokeCountOfINS_11Group22Var5EEEvRKNS_12HeaderRecordEtRKNS_9NumParserERKN7openpal6RSliceERNS_12IAPDUHandlerEEUlRSE_jE_EE@GOTPCREL(%rip), %rax
	movdqu	(%r9), %xmm1
	movq	%rdx, 64(%rsp)
	leaq	32(%rsp), %rdx
	movw	%si, 16(%rsp)
	movups	%xmm0, 40(%rsp)
	movaps	%xmm1, (%rsp)
	addq	$16, %rax
	movq	%rax, 32(%rsp)
	movzwl	%si, %eax
	movq	%rsp, %rsi
	movq	%rax, 56(%rsp)
	call	_ZN8opendnp312IAPDUHandler8OnHeaderERKNS_12PrefixHeaderERKNS_11ICollectionINS_7IndexedINS_7CounterEEEEE@PLT
	movq	72(%rsp), %rax
	subq	%fs:40, %rax
	jne	.L116
	addq	$88, %rsp
	.cfi_remember_state
	.cfi_def_cfa_offset 8
	ret
.L116:
	.cfi_restore_state
	call	__stack_chk_fail@PLT
	.cfi_endproc
.LFE3193:
	.size	_ZN8opendnp316CountIndexParser13InvokeCountOfINS_11Group22Var5EEEvRKNS_12HeaderRecordEtRKNS_9NumParserERKN7openpal6RSliceERNS_12IAPDUHandlerE, .-_ZN8opendnp316CountIndexParser13InvokeCountOfINS_11Group22Var5EEEvRKNS_12HeaderRecordEtRKNS_9NumParserERKN7openpal6RSliceERNS_12IAPDUHandlerE
	.section	.text._ZN8opendnp316CountIndexParser13InvokeCountOfINS_11Group22Var6EEEvRKNS_12HeaderRecordEtRKNS_9NumParserERKN7openpal6RSliceERNS_12IAPDUHandlerE,"axG",@progbits,_ZN8opendnp316CountIndexParser13InvokeCountOfINS_11Group22Var6EEEvRKNS_12HeaderRecordEtRKNS_9NumParserERKN7openpal6RSliceERNS_12IAPDUHandlerE,comdat
	.align 2
	.p2align 4
	.weak	_ZN8opendnp316CountIndexParser13InvokeCountOfINS_11Group22Var6EEEvRKNS_12HeaderRecordEtRKNS_9NumParserERKN7openpal6RSliceERNS_12IAPDUHandlerE
	.type	_ZN8opendnp316CountIndexParser13InvokeCountOfINS_11Group22Var6EEEvRKNS_12HeaderRecordEtRKNS_9NumParserERKN7openpal6RSliceERNS_12IAPDUHandlerE, @function
_ZN8opendnp316CountIndexParser13InvokeCountOfINS_11Group22Var6EEEvRKNS_12HeaderRecordEtRKNS_9NumParserERKN7openpal6RSliceERNS_12IAPDUHandlerE:
.LFB3198:
	.cfi_startproc
	endbr64
	subq	$88, %rsp
	.cfi_def_cfa_offset 96
	movq	%rdi, %r9
	movdqu	(%rcx), %xmm0
	movq	%r8, %rdi
	movq	%fs:40, %rax
	movq	%rax, 72(%rsp)
	movq	_ZTVN8opendnp318BufferedCollectionINS_7IndexedINS_7CounterEEEZNS_16CountIndexParser13InvokeCountOfINS_11Group22Var6EEEvRKNS_12HeaderRecordEtRKNS_9NumParserERKN7openpal6RSliceERNS_12IAPDUHandlerEEUlRSE_jE_EE@GOTPCREL(%rip), %rax
	movdqu	(%r9), %xmm1
	movq	%rdx, 64(%rsp)
	leaq	32(%rsp), %rdx
	movw	%si, 16(%rsp)
	movups	%xmm0, 40(%rsp)
	movaps	%xmm1, (%rsp)
	addq	$16, %rax
	movq	%rax, 32(%rsp)
	movzwl	%si, %eax
	movq	%rsp, %rsi
	movq	%rax, 56(%rsp)
	call	_ZN8opendnp312IAPDUHandler8OnHeaderERKNS_12PrefixHeaderERKNS_11ICollectionINS_7IndexedINS_7CounterEEEEE@PLT
	movq	72(%rsp), %rax
	subq	%fs:40, %rax
	jne	.L120
	addq	$88, %rsp
	.cfi_remember_state
	.cfi_def_cfa_offset 8
	ret
.L120:
	.cfi_restore_state
	call	__stack_chk_fail@PLT
	.cfi_endproc
.LFE3198:
	.size	_ZN8opendnp316CountIndexParser13InvokeCountOfINS_11Group22Var6EEEvRKNS_12HeaderRecordEtRKNS_9NumParserERKN7openpal6RSliceERNS_12IAPDUHandlerE, .-_ZN8opendnp316CountIndexParser13InvokeCountOfINS_11Group22Var6EEEvRKNS_12HeaderRecordEtRKNS_9NumParserERKN7openpal6RSliceERNS_12IAPDUHandlerE
	.section	.text._ZN8opendnp316CountIndexParser13InvokeCountOfINS_11Group23Var1EEEvRKNS_12HeaderRecordEtRKNS_9NumParserERKN7openpal6RSliceERNS_12IAPDUHandlerE,"axG",@progbits,_ZN8opendnp316CountIndexParser13InvokeCountOfINS_11Group23Var1EEEvRKNS_12HeaderRecordEtRKNS_9NumParserERKN7openpal6RSliceERNS_12IAPDUHandlerE,comdat
	.align 2
	.p2align 4
	.weak	_ZN8opendnp316CountIndexParser13InvokeCountOfINS_11Group23Var1EEEvRKNS_12HeaderRecordEtRKNS_9NumParserERKN7openpal6RSliceERNS_12IAPDUHandlerE
	.type	_ZN8opendnp316CountIndexParser13InvokeCountOfINS_11Group23Var1EEEvRKNS_12HeaderRecordEtRKNS_9NumParserERKN7openpal6RSliceERNS_12IAPDUHandlerE, @function
_ZN8opendnp316CountIndexParser13InvokeCountOfINS_11Group23Var1EEEvRKNS_12HeaderRecordEtRKNS_9NumParserERKN7openpal6RSliceERNS_12IAPDUHandlerE:
.LFB3203:
	.cfi_startproc
	endbr64
	subq	$88, %rsp
	.cfi_def_cfa_offset 96
	movq	%rdi, %r9
	movdqu	(%rcx), %xmm0
	movq	%r8, %rdi
	movq	%fs:40, %rax
	movq	%rax, 72(%rsp)
	movq	_ZTVN8opendnp318BufferedCollectionINS_7IndexedINS_13FrozenCounterEEEZNS_16CountIndexParser13InvokeCountOfINS_11Group23Var1EEEvRKNS_12HeaderRecordEtRKNS_9NumParserERKN7openpal6RSliceERNS_12IAPDUHandlerEEUlRSE_jE_EE@GOTPCREL(%rip), %rax
	movdqu	(%r9), %xmm1
	movq	%rdx, 64(%rsp)
	leaq	32(%rsp), %rdx
	movw	%si, 16(%rsp)
	movups	%xmm0, 40(%rsp)
	movaps	%xmm1, (%rsp)
	addq	$16, %rax
	movq	%rax, 32(%rsp)
	movzwl	%si, %eax
	movq	%rsp, %rsi
	movq	%rax, 56(%rsp)
	call	_ZN8opendnp312IAPDUHandler8OnHeaderERKNS_12PrefixHeaderERKNS_11ICollectionINS_7IndexedINS_13FrozenCounterEEEEE@PLT
	movq	72(%rsp), %rax
	subq	%fs:40, %rax
	jne	.L124
	addq	$88, %rsp
	.cfi_remember_state
	.cfi_def_cfa_offset 8
	ret
.L124:
	.cfi_restore_state
	call	__stack_chk_fail@PLT
	.cfi_endproc
.LFE3203:
	.size	_ZN8opendnp316CountIndexParser13InvokeCountOfINS_11Group23Var1EEEvRKNS_12HeaderRecordEtRKNS_9NumParserERKN7openpal6RSliceERNS_12IAPDUHandlerE, .-_ZN8opendnp316CountIndexParser13InvokeCountOfINS_11Group23Var1EEEvRKNS_12HeaderRecordEtRKNS_9NumParserERKN7openpal6RSliceERNS_12IAPDUHandlerE
	.section	.text._ZN8opendnp316CountIndexParser13InvokeCountOfINS_11Group23Var2EEEvRKNS_12HeaderRecordEtRKNS_9NumParserERKN7openpal6RSliceERNS_12IAPDUHandlerE,"axG",@progbits,_ZN8opendnp316CountIndexParser13InvokeCountOfINS_11Group23Var2EEEvRKNS_12HeaderRecordEtRKNS_9NumParserERKN7openpal6RSliceERNS_12IAPDUHandlerE,comdat
	.align 2
	.p2align 4
	.weak	_ZN8opendnp316CountIndexParser13InvokeCountOfINS_11Group23Var2EEEvRKNS_12HeaderRecordEtRKNS_9NumParserERKN7openpal6RSliceERNS_12IAPDUHandlerE
	.type	_ZN8opendnp316CountIndexParser13InvokeCountOfINS_11Group23Var2EEEvRKNS_12HeaderRecordEtRKNS_9NumParserERKN7openpal6RSliceERNS_12IAPDUHandlerE, @function
_ZN8opendnp316CountIndexParser13InvokeCountOfINS_11Group23Var2EEEvRKNS_12HeaderRecordEtRKNS_9NumParserERKN7openpal6RSliceERNS_12IAPDUHandlerE:
.LFB3211:
	.cfi_startproc
	endbr64
	subq	$88, %rsp
	.cfi_def_cfa_offset 96
	movq	%rdi, %r9
	movdqu	(%rcx), %xmm0
	movq	%r8, %rdi
	movq	%fs:40, %rax
	movq	%rax, 72(%rsp)
	movq	_ZTVN8opendnp318BufferedCollectionINS_7IndexedINS_13FrozenCounterEEEZNS_16CountIndexParser13InvokeCountOfINS_11Group23Var2EEEvRKNS_12HeaderRecordEtRKNS_9NumParserERKN7openpal6RSliceERNS_12IAPDUHandlerEEUlRSE_jE_EE@GOTPCREL(%rip), %rax
	movdqu	(%r9), %xmm1
	movq	%rdx, 64(%rsp)
	leaq	32(%rsp), %rdx
	movw	%si, 16(%rsp)
	movups	%xmm0, 40(%rsp)
	movaps	%xmm1, (%rsp)
	addq	$16, %rax
	movq	%rax, 32(%rsp)
	movzwl	%si, %eax
	movq	%rsp, %rsi
	movq	%rax, 56(%rsp)
	call	_ZN8opendnp312IAPDUHandler8OnHeaderERKNS_12PrefixHeaderERKNS_11ICollectionINS_7IndexedINS_13FrozenCounterEEEEE@PLT
	movq	72(%rsp), %rax
	subq	%fs:40, %rax
	jne	.L128
	addq	$88, %rsp
	.cfi_remember_state
	.cfi_def_cfa_offset 8
	ret
.L128:
	.cfi_restore_state
	call	__stack_chk_fail@PLT
	.cfi_endproc
.LFE3211:
	.size	_ZN8opendnp316CountIndexParser13InvokeCountOfINS_11Group23Var2EEEvRKNS_12HeaderRecordEtRKNS_9NumParserERKN7openpal6RSliceERNS_12IAPDUHandlerE, .-_ZN8opendnp316CountIndexParser13InvokeCountOfINS_11Group23Var2EEEvRKNS_12HeaderRecordEtRKNS_9NumParserERKN7openpal6RSliceERNS_12IAPDUHandlerE
	.section	.text._ZN8opendnp316CountIndexParser13InvokeCountOfINS_11Group23Var5EEEvRKNS_12HeaderRecordEtRKNS_9NumParserERKN7openpal6RSliceERNS_12IAPDUHandlerE,"axG",@progbits,_ZN8opendnp316CountIndexParser13InvokeCountOfINS_11Group23Var5EEEvRKNS_12HeaderRecordEtRKNS_9NumParserERKN7openpal6RSliceERNS_12IAPDUHandlerE,comdat
	.align 2
	.p2align 4
	.weak	_ZN8opendnp316CountIndexParser13InvokeCountOfINS_11Group23Var5EEEvRKNS_12HeaderRecordEtRKNS_9NumParserERKN7openpal6RSliceERNS_12IAPDUHandlerE
	.type	_ZN8opendnp316CountIndexParser13InvokeCountOfINS_11Group23Var5EEEvRKNS_12HeaderRecordEtRKNS_9NumParserERKN7openpal6RSliceERNS_12IAPDUHandlerE, @function
_ZN8opendnp316CountIndexParser13InvokeCountOfINS_11Group23Var5EEEvRKNS_12HeaderRecordEtRKNS_9NumParserERKN7openpal6RSliceERNS_12IAPDUHandlerE:
.LFB3216:
	.cfi_startproc
	endbr64
	subq	$88, %rsp
	.cfi_def_cfa_offset 96
	movq	%rdi, %r9
	movdqu	(%rcx), %xmm0
	movq	%r8, %rdi
	movq	%fs:40, %rax
	movq	%rax, 72(%rsp)
	movq	_ZTVN8opendnp318BufferedCollectionINS_7IndexedINS_13FrozenCounterEEEZNS_16CountIndexParser13InvokeCountOfINS_11Group23Var5EEEvRKNS_12HeaderRecordEtRKNS_9NumParserERKN7openpal6RSliceERNS_12IAPDUHandlerEEUlRSE_jE_EE@GOTPCREL(%rip), %rax
	movdqu	(%r9), %xmm1
	movq	%rdx, 64(%rsp)
	leaq	32(%rsp), %rdx
	movw	%si, 16(%rsp)
	movups	%xmm0, 40(%rsp)
	movaps	%xmm1, (%rsp)
	addq	$16, %rax
	movq	%rax, 32(%rsp)
	movzwl	%si, %eax
	movq	%rsp, %rsi
	movq	%rax, 56(%rsp)
	call	_ZN8opendnp312IAPDUHandler8OnHeaderERKNS_12PrefixHeaderERKNS_11ICollectionINS_7IndexedINS_13FrozenCounterEEEEE@PLT
	movq	72(%rsp), %rax
	subq	%fs:40, %rax
	jne	.L132
	addq	$88, %rsp
	.cfi_remember_state
	.cfi_def_cfa_offset 8
	ret
.L132:
	.cfi_restore_state
	call	__stack_chk_fail@PLT
	.cfi_endproc
.LFE3216:
	.size	_ZN8opendnp316CountIndexParser13InvokeCountOfINS_11Group23Var5EEEvRKNS_12HeaderRecordEtRKNS_9NumParserERKN7openpal6RSliceERNS_12IAPDUHandlerE, .-_ZN8opendnp316CountIndexParser13InvokeCountOfINS_11Group23Var5EEEvRKNS_12HeaderRecordEtRKNS_9NumParserERKN7openpal6RSliceERNS_12IAPDUHandlerE
	.section	.text._ZN8opendnp316CountIndexParser13InvokeCountOfINS_11Group23Var6EEEvRKNS_12HeaderRecordEtRKNS_9NumParserERKN7openpal6RSliceERNS_12IAPDUHandlerE,"axG",@progbits,_ZN8opendnp316CountIndexParser13InvokeCountOfINS_11Group23Var6EEEvRKNS_12HeaderRecordEtRKNS_9NumParserERKN7openpal6RSliceERNS_12IAPDUHandlerE,comdat
	.align 2
	.p2align 4
	.weak	_ZN8opendnp316CountIndexParser13InvokeCountOfINS_11Group23Var6EEEvRKNS_12HeaderRecordEtRKNS_9NumParserERKN7openpal6RSliceERNS_12IAPDUHandlerE
	.type	_ZN8opendnp316CountIndexParser13InvokeCountOfINS_11Group23Var6EEEvRKNS_12HeaderRecordEtRKNS_9NumParserERKN7openpal6RSliceERNS_12IAPDUHandlerE, @function
_ZN8opendnp316CountIndexParser13InvokeCountOfINS_11Group23Var6EEEvRKNS_12HeaderRecordEtRKNS_9NumParserERKN7openpal6RSliceERNS_12IAPDUHandlerE:
.LFB3221:
	.cfi_startproc
	endbr64
	subq	$88, %rsp
	.cfi_def_cfa_offset 96
	movq	%rdi, %r9
	movdqu	(%rcx), %xmm0
	movq	%r8, %rdi
	movq	%fs:40, %rax
	movq	%rax, 72(%rsp)
	movq	_ZTVN8opendnp318BufferedCollectionINS_7IndexedINS_13FrozenCounterEEEZNS_16CountIndexParser13InvokeCountOfINS_11Group23Var6EEEvRKNS_12HeaderRecordEtRKNS_9NumParserERKN7openpal6RSliceERNS_12IAPDUHandlerEEUlRSE_jE_EE@GOTPCREL(%rip), %rax
	movdqu	(%r9), %xmm1
	movq	%rdx, 64(%rsp)
	leaq	32(%rsp), %rdx
	movw	%si, 16(%rsp)
	movups	%xmm0, 40(%rsp)
	movaps	%xmm1, (%rsp)
	addq	$16, %rax
	movq	%rax, 32(%rsp)
	movzwl	%si, %eax
	movq	%rsp, %rsi
	movq	%rax, 56(%rsp)
	call	_ZN8opendnp312IAPDUHandler8OnHeaderERKNS_12PrefixHeaderERKNS_11ICollectionINS_7IndexedINS_13FrozenCounterEEEEE@PLT
	movq	72(%rsp), %rax
	subq	%fs:40, %rax
	jne	.L136
	addq	$88, %rsp
	.cfi_remember_state
	.cfi_def_cfa_offset 8
	ret
.L136:
	.cfi_restore_state
	call	__stack_chk_fail@PLT
	.cfi_endproc
.LFE3221:
	.size	_ZN8opendnp316CountIndexParser13InvokeCountOfINS_11Group23Var6EEEvRKNS_12HeaderRecordEtRKNS_9NumParserERKN7openpal6RSliceERNS_12IAPDUHandlerE, .-_ZN8opendnp316CountIndexParser13InvokeCountOfINS_11Group23Var6EEEvRKNS_12HeaderRecordEtRKNS_9NumParserERKN7openpal6RSliceERNS_12IAPDUHandlerE
	.section	.text._ZN8opendnp316CountIndexParser13InvokeCountOfINS_11Group32Var1EEEvRKNS_12HeaderRecordEtRKNS_9NumParserERKN7openpal6RSliceERNS_12IAPDUHandlerE,"axG",@progbits,_ZN8opendnp316CountIndexParser13InvokeCountOfINS_11Group32Var1EEEvRKNS_12HeaderRecordEtRKNS_9NumParserERKN7openpal6RSliceERNS_12IAPDUHandlerE,comdat
	.align 2
	.p2align 4
	.weak	_ZN8opendnp316CountIndexParser13InvokeCountOfINS_11Group32Var1EEEvRKNS_12HeaderRecordEtRKNS_9NumParserERKN7openpal6RSliceERNS_12IAPDUHandlerE
	.type	_ZN8opendnp316CountIndexParser13InvokeCountOfINS_11Group32Var1EEEvRKNS_12HeaderRecordEtRKNS_9NumParserERKN7openpal6RSliceERNS_12IAPDUHandlerE, @function
_ZN8opendnp316CountIndexParser13InvokeCountOfINS_11Group32Var1EEEvRKNS_12HeaderRecordEtRKNS_9NumParserERKN7openpal6RSliceERNS_12IAPDUHandlerE:
.LFB3226:
	.cfi_startproc
	endbr64
	subq	$88, %rsp
	.cfi_def_cfa_offset 96
	movq	%rdi, %r9
	movdqu	(%rcx), %xmm0
	movq	%r8, %rdi
	movq	%fs:40, %rax
	movq	%rax, 72(%rsp)
	movq	_ZTVN8opendnp318BufferedCollectionINS_7IndexedINS_6AnalogEEEZNS_16CountIndexParser13InvokeCountOfINS_11Group32Var1EEEvRKNS_12HeaderRecordEtRKNS_9NumParserERKN7openpal6RSliceERNS_12IAPDUHandlerEEUlRSE_jE_EE@GOTPCREL(%rip), %rax
	movdqu	(%r9), %xmm1
	movq	%rdx, 64(%rsp)
	leaq	32(%rsp), %rdx
	movw	%si, 16(%rsp)
	movups	%xmm0, 40(%rsp)
	movaps	%xmm1, (%rsp)
	addq	$16, %rax
	movq	%rax, 32(%rsp)
	movzwl	%si, %eax
	movq	%rsp, %rsi
	movq	%rax, 56(%rsp)
	call	_ZN8opendnp312IAPDUHandler8OnHeaderERKNS_12PrefixHeaderERKNS_11ICollectionINS_7IndexedINS_6AnalogEEEEE@PLT
	movq	72(%rsp), %rax
	subq	%fs:40, %rax
	jne	.L140
	addq	$88, %rsp
	.cfi_remember_state
	.cfi_def_cfa_offset 8
	ret
.L140:
	.cfi_restore_state
	call	__stack_chk_fail@PLT
	.cfi_endproc
.LFE3226:
	.size	_ZN8opendnp316CountIndexParser13InvokeCountOfINS_11Group32Var1EEEvRKNS_12HeaderRecordEtRKNS_9NumParserERKN7openpal6RSliceERNS_12IAPDUHandlerE, .-_ZN8opendnp316CountIndexParser13InvokeCountOfINS_11Group32Var1EEEvRKNS_12HeaderRecordEtRKNS_9NumParserERKN7openpal6RSliceERNS_12IAPDUHandlerE
	.section	.text._ZN8opendnp316CountIndexParser13InvokeCountOfINS_11Group32Var2EEEvRKNS_12HeaderRecordEtRKNS_9NumParserERKN7openpal6RSliceERNS_12IAPDUHandlerE,"axG",@progbits,_ZN8opendnp316CountIndexParser13InvokeCountOfINS_11Group32Var2EEEvRKNS_12HeaderRecordEtRKNS_9NumParserERKN7openpal6RSliceERNS_12IAPDUHandlerE,comdat
	.align 2
	.p2align 4
	.weak	_ZN8opendnp316CountIndexParser13InvokeCountOfINS_11Group32Var2EEEvRKNS_12HeaderRecordEtRKNS_9NumParserERKN7openpal6RSliceERNS_12IAPDUHandlerE
	.type	_ZN8opendnp316CountIndexParser13InvokeCountOfINS_11Group32Var2EEEvRKNS_12HeaderRecordEtRKNS_9NumParserERKN7openpal6RSliceERNS_12IAPDUHandlerE, @function
_ZN8opendnp316CountIndexParser13InvokeCountOfINS_11Group32Var2EEEvRKNS_12HeaderRecordEtRKNS_9NumParserERKN7openpal6RSliceERNS_12IAPDUHandlerE:
.LFB3234:
	.cfi_startproc
	endbr64
	subq	$88, %rsp
	.cfi_def_cfa_offset 96
	movq	%rdi, %r9
	movdqu	(%rcx), %xmm0
	movq	%r8, %rdi
	movq	%fs:40, %rax
	movq	%rax, 72(%rsp)
	movq	_ZTVN8opendnp318BufferedCollectionINS_7IndexedINS_6AnalogEEEZNS_16CountIndexParser13InvokeCountOfINS_11Group32Var2EEEvRKNS_12HeaderRecordEtRKNS_9NumParserERKN7openpal6RSliceERNS_12IAPDUHandlerEEUlRSE_jE_EE@GOTPCREL(%rip), %rax
	movdqu	(%r9), %xmm1
	movq	%rdx, 64(%rsp)
	leaq	32(%rsp), %rdx
	movw	%si, 16(%rsp)
	movups	%xmm0, 40(%rsp)
	movaps	%xmm1, (%rsp)
	addq	$16, %rax
	movq	%rax, 32(%rsp)
	movzwl	%si, %eax
	movq	%rsp, %rsi
	movq	%rax, 56(%rsp)
	call	_ZN8opendnp312IAPDUHandler8OnHeaderERKNS_12PrefixHeaderERKNS_11ICollectionINS_7IndexedINS_6AnalogEEEEE@PLT
	movq	72(%rsp), %rax
	subq	%fs:40, %rax
	jne	.L144
	addq	$88, %rsp
	.cfi_remember_state
	.cfi_def_cfa_offset 8
	ret
.L144:
	.cfi_restore_state
	call	__stack_chk_fail@PLT
	.cfi_endproc
.LFE3234:
	.size	_ZN8opendnp316CountIndexParser13InvokeCountOfINS_11Group32Var2EEEvRKNS_12HeaderRecordEtRKNS_9NumParserERKN7openpal6RSliceERNS_12IAPDUHandlerE, .-_ZN8opendnp316CountIndexParser13InvokeCountOfINS_11Group32Var2EEEvRKNS_12HeaderRecordEtRKNS_9NumParserERKN7openpal6RSliceERNS_12IAPDUHandlerE
	.section	.text._ZN8opendnp316CountIndexParser13InvokeCountOfINS_11Group32Var3EEEvRKNS_12HeaderRecordEtRKNS_9NumParserERKN7openpal6RSliceERNS_12IAPDUHandlerE,"axG",@progbits,_ZN8opendnp316CountIndexParser13InvokeCountOfINS_11Group32Var3EEEvRKNS_12HeaderRecordEtRKNS_9NumParserERKN7openpal6RSliceERNS_12IAPDUHandlerE,comdat
	.align 2
	.p2align 4
	.weak	_ZN8opendnp316CountIndexParser13InvokeCountOfINS_11Group32Var3EEEvRKNS_12HeaderRecordEtRKNS_9NumParserERKN7openpal6RSliceERNS_12IAPDUHandlerE
	.type	_ZN8opendnp316CountIndexParser13InvokeCountOfINS_11Group32Var3EEEvRKNS_12HeaderRecordEtRKNS_9NumParserERKN7openpal6RSliceERNS_12IAPDUHandlerE, @function
_ZN8opendnp316CountIndexParser13InvokeCountOfINS_11Group32Var3EEEvRKNS_12HeaderRecordEtRKNS_9NumParserERKN7openpal6RSliceERNS_12IAPDUHandlerE:
.LFB3239:
	.cfi_startproc
	endbr64
	subq	$88, %rsp
	.cfi_def_cfa_offset 96
	movq	%rdi, %r9
	movdqu	(%rcx), %xmm0
	movq	%r8, %rdi
	movq	%fs:40, %rax
	movq	%rax, 72(%rsp)
	movq	_ZTVN8opendnp318BufferedCollectionINS_7IndexedINS_6AnalogEEEZNS_16CountIndexParser13InvokeCountOfINS_11Group32Var3EEEvRKNS_12HeaderRecordEtRKNS_9NumParserERKN7openpal6RSliceERNS_12IAPDUHandlerEEUlRSE_jE_EE@GOTPCREL(%rip), %rax
	movdqu	(%r9), %xmm1
	movq	%rdx, 64(%rsp)
	leaq	32(%rsp), %rdx
	movw	%si, 16(%rsp)
	movups	%xmm0, 40(%rsp)
	movaps	%xmm1, (%rsp)
	addq	$16, %rax
	movq	%rax, 32(%rsp)
	movzwl	%si, %eax
	movq	%rsp, %rsi
	movq	%rax, 56(%rsp)
	call	_ZN8opendnp312IAPDUHandler8OnHeaderERKNS_12PrefixHeaderERKNS_11ICollectionINS_7IndexedINS_6AnalogEEEEE@PLT
	movq	72(%rsp), %rax
	subq	%fs:40, %rax
	jne	.L148
	addq	$88, %rsp
	.cfi_remember_state
	.cfi_def_cfa_offset 8
	ret
.L148:
	.cfi_restore_state
	call	__stack_chk_fail@PLT
	.cfi_endproc
.LFE3239:
	.size	_ZN8opendnp316CountIndexParser13InvokeCountOfINS_11Group32Var3EEEvRKNS_12HeaderRecordEtRKNS_9NumParserERKN7openpal6RSliceERNS_12IAPDUHandlerE, .-_ZN8opendnp316CountIndexParser13InvokeCountOfINS_11Group32Var3EEEvRKNS_12HeaderRecordEtRKNS_9NumParserERKN7openpal6RSliceERNS_12IAPDUHandlerE
	.section	.text._ZN8opendnp316CountIndexParser13InvokeCountOfINS_11Group32Var4EEEvRKNS_12HeaderRecordEtRKNS_9NumParserERKN7openpal6RSliceERNS_12IAPDUHandlerE,"axG",@progbits,_ZN8opendnp316CountIndexParser13InvokeCountOfINS_11Group32Var4EEEvRKNS_12HeaderRecordEtRKNS_9NumParserERKN7openpal6RSliceERNS_12IAPDUHandlerE,comdat
	.align 2
	.p2align 4
	.weak	_ZN8opendnp316CountIndexParser13InvokeCountOfINS_11Group32Var4EEEvRKNS_12HeaderRecordEtRKNS_9NumParserERKN7openpal6RSliceERNS_12IAPDUHandlerE
	.type	_ZN8opendnp316CountIndexParser13InvokeCountOfINS_11Group32Var4EEEvRKNS_12HeaderRecordEtRKNS_9NumParserERKN7openpal6RSliceERNS_12IAPDUHandlerE, @function
_ZN8opendnp316CountIndexParser13InvokeCountOfINS_11Group32Var4EEEvRKNS_12HeaderRecordEtRKNS_9NumParserERKN7openpal6RSliceERNS_12IAPDUHandlerE:
.LFB3244:
	.cfi_startproc
	endbr64
	subq	$88, %rsp
	.cfi_def_cfa_offset 96
	movq	%rdi, %r9
	movdqu	(%rcx), %xmm0
	movq	%r8, %rdi
	movq	%fs:40, %rax
	movq	%rax, 72(%rsp)
	movq	_ZTVN8opendnp318BufferedCollectionINS_7IndexedINS_6AnalogEEEZNS_16CountIndexParser13InvokeCountOfINS_11Group32Var4EEEvRKNS_12HeaderRecordEtRKNS_9NumParserERKN7openpal6RSliceERNS_12IAPDUHandlerEEUlRSE_jE_EE@GOTPCREL(%rip), %rax
	movdqu	(%r9), %xmm1
	movq	%rdx, 64(%rsp)
	leaq	32(%rsp), %rdx
	movw	%si, 16(%rsp)
	movups	%xmm0, 40(%rsp)
	movaps	%xmm1, (%rsp)
	addq	$16, %rax
	movq	%rax, 32(%rsp)
	movzwl	%si, %eax
	movq	%rsp, %rsi
	movq	%rax, 56(%rsp)
	call	_ZN8opendnp312IAPDUHandler8OnHeaderERKNS_12PrefixHeaderERKNS_11ICollectionINS_7IndexedINS_6AnalogEEEEE@PLT
	movq	72(%rsp), %rax
	subq	%fs:40, %rax
	jne	.L152
	addq	$88, %rsp
	.cfi_remember_state
	.cfi_def_cfa_offset 8
	ret
.L152:
	.cfi_restore_state
	call	__stack_chk_fail@PLT
	.cfi_endproc
.LFE3244:
	.size	_ZN8opendnp316CountIndexParser13InvokeCountOfINS_11Group32Var4EEEvRKNS_12HeaderRecordEtRKNS_9NumParserERKN7openpal6RSliceERNS_12IAPDUHandlerE, .-_ZN8opendnp316CountIndexParser13InvokeCountOfINS_11Group32Var4EEEvRKNS_12HeaderRecordEtRKNS_9NumParserERKN7openpal6RSliceERNS_12IAPDUHandlerE
	.section	.text._ZN8opendnp316CountIndexParser13InvokeCountOfINS_11Group32Var5EEEvRKNS_12HeaderRecordEtRKNS_9NumParserERKN7openpal6RSliceERNS_12IAPDUHandlerE,"axG",@progbits,_ZN8opendnp316CountIndexParser13InvokeCountOfINS_11Group32Var5EEEvRKNS_12HeaderRecordEtRKNS_9NumParserERKN7openpal6RSliceERNS_12IAPDUHandlerE,comdat
	.align 2
	.p2align 4
	.weak	_ZN8opendnp316CountIndexParser13InvokeCountOfINS_11Group32Var5EEEvRKNS_12HeaderRecordEtRKNS_9NumParserERKN7openpal6RSliceERNS_12IAPDUHandlerE
	.type	_ZN8opendnp316CountIndexParser13InvokeCountOfINS_11Group32Var5EEEvRKNS_12HeaderRecordEtRKNS_9NumParserERKN7openpal6RSliceERNS_12IAPDUHandlerE, @function
_ZN8opendnp316CountIndexParser13InvokeCountOfINS_11Group32Var5EEEvRKNS_12HeaderRecordEtRKNS_9NumParserERKN7openpal6RSliceERNS_12IAPDUHandlerE:
.LFB3249:
	.cfi_startproc
	endbr64
	subq	$88, %rsp
	.cfi_def_cfa_offset 96
	movq	%rdi, %r9
	movdqu	(%rcx), %xmm0
	movq	%r8, %rdi
	movq	%fs:40, %rax
	movq	%rax, 72(%rsp)
	movq	_ZTVN8opendnp318BufferedCollectionINS_7IndexedINS_6AnalogEEEZNS_16CountIndexParser13InvokeCountOfINS_11Group32Var5EEEvRKNS_12HeaderRecordEtRKNS_9NumParserERKN7openpal6RSliceERNS_12IAPDUHandlerEEUlRSE_jE_EE@GOTPCREL(%rip), %rax
	movdqu	(%r9), %xmm1
	movq	%rdx, 64(%rsp)
	leaq	32(%rsp), %rdx
	movw	%si, 16(%rsp)
	movups	%xmm0, 40(%rsp)
	movaps	%xmm1, (%rsp)
	addq	$16, %rax
	movq	%rax, 32(%rsp)
	movzwl	%si, %eax
	movq	%rsp, %rsi
	movq	%rax, 56(%rsp)
	call	_ZN8opendnp312IAPDUHandler8OnHeaderERKNS_12PrefixHeaderERKNS_11ICollectionINS_7IndexedINS_6AnalogEEEEE@PLT
	movq	72(%rsp), %rax
	subq	%fs:40, %rax
	jne	.L156
	addq	$88, %rsp
	.cfi_remember_state
	.cfi_def_cfa_offset 8
	ret
.L156:
	.cfi_restore_state
	call	__stack_chk_fail@PLT
	.cfi_endproc
.LFE3249:
	.size	_ZN8opendnp316CountIndexParser13InvokeCountOfINS_11Group32Var5EEEvRKNS_12HeaderRecordEtRKNS_9NumParserERKN7openpal6RSliceERNS_12IAPDUHandlerE, .-_ZN8opendnp316CountIndexParser13InvokeCountOfINS_11Group32Var5EEEvRKNS_12HeaderRecordEtRKNS_9NumParserERKN7openpal6RSliceERNS_12IAPDUHandlerE
	.section	.text._ZN8opendnp316CountIndexParser13InvokeCountOfINS_11Group32Var6EEEvRKNS_12HeaderRecordEtRKNS_9NumParserERKN7openpal6RSliceERNS_12IAPDUHandlerE,"axG",@progbits,_ZN8opendnp316CountIndexParser13InvokeCountOfINS_11Group32Var6EEEvRKNS_12HeaderRecordEtRKNS_9NumParserERKN7openpal6RSliceERNS_12IAPDUHandlerE,comdat
	.align 2
	.p2align 4
	.weak	_ZN8opendnp316CountIndexParser13InvokeCountOfINS_11Group32Var6EEEvRKNS_12HeaderRecordEtRKNS_9NumParserERKN7openpal6RSliceERNS_12IAPDUHandlerE
	.type	_ZN8opendnp316CountIndexParser13InvokeCountOfINS_11Group32Var6EEEvRKNS_12HeaderRecordEtRKNS_9NumParserERKN7openpal6RSliceERNS_12IAPDUHandlerE, @function
_ZN8opendnp316CountIndexParser13InvokeCountOfINS_11Group32Var6EEEvRKNS_12HeaderRecordEtRKNS_9NumParserERKN7openpal6RSliceERNS_12IAPDUHandlerE:
.LFB3254:
	.cfi_startproc
	endbr64
	subq	$88, %rsp
	.cfi_def_cfa_offset 96
	movq	%rdi, %r9
	movdqu	(%rcx), %xmm0
	movq	%r8, %rdi
	movq	%fs:40, %rax
	movq	%rax, 72(%rsp)
	movq	_ZTVN8opendnp318BufferedCollectionINS_7IndexedINS_6AnalogEEEZNS_16CountIndexParser13InvokeCountOfINS_11Group32Var6EEEvRKNS_12HeaderRecordEtRKNS_9NumParserERKN7openpal6RSliceERNS_12IAPDUHandlerEEUlRSE_jE_EE@GOTPCREL(%rip), %rax
	movdqu	(%r9), %xmm1
	movq	%rdx, 64(%rsp)
	leaq	32(%rsp), %rdx
	movw	%si, 16(%rsp)
	movups	%xmm0, 40(%rsp)
	movaps	%xmm1, (%rsp)
	addq	$16, %rax
	movq	%rax, 32(%rsp)
	movzwl	%si, %eax
	movq	%rsp, %rsi
	movq	%rax, 56(%rsp)
	call	_ZN8opendnp312IAPDUHandler8OnHeaderERKNS_12PrefixHeaderERKNS_11ICollectionINS_7IndexedINS_6AnalogEEEEE@PLT
	movq	72(%rsp), %rax
	subq	%fs:40, %rax
	jne	.L160
	addq	$88, %rsp
	.cfi_remember_state
	.cfi_def_cfa_offset 8
	ret
.L160:
	.cfi_restore_state
	call	__stack_chk_fail@PLT
	.cfi_endproc
.LFE3254:
	.size	_ZN8opendnp316CountIndexParser13InvokeCountOfINS_11Group32Var6EEEvRKNS_12HeaderRecordEtRKNS_9NumParserERKN7openpal6RSliceERNS_12IAPDUHandlerE, .-_ZN8opendnp316CountIndexParser13InvokeCountOfINS_11Group32Var6EEEvRKNS_12HeaderRecordEtRKNS_9NumParserERKN7openpal6RSliceERNS_12IAPDUHandlerE
	.section	.text._ZN8opendnp316CountIndexParser13InvokeCountOfINS_11Group32Var7EEEvRKNS_12HeaderRecordEtRKNS_9NumParserERKN7openpal6RSliceERNS_12IAPDUHandlerE,"axG",@progbits,_ZN8opendnp316CountIndexParser13InvokeCountOfINS_11Group32Var7EEEvRKNS_12HeaderRecordEtRKNS_9NumParserERKN7openpal6RSliceERNS_12IAPDUHandlerE,comdat
	.align 2
	.p2align 4
	.weak	_ZN8opendnp316CountIndexParser13InvokeCountOfINS_11Group32Var7EEEvRKNS_12HeaderRecordEtRKNS_9NumParserERKN7openpal6RSliceERNS_12IAPDUHandlerE
	.type	_ZN8opendnp316CountIndexParser13InvokeCountOfINS_11Group32Var7EEEvRKNS_12HeaderRecordEtRKNS_9NumParserERKN7openpal6RSliceERNS_12IAPDUHandlerE, @function
_ZN8opendnp316CountIndexParser13InvokeCountOfINS_11Group32Var7EEEvRKNS_12HeaderRecordEtRKNS_9NumParserERKN7openpal6RSliceERNS_12IAPDUHandlerE:
.LFB3259:
	.cfi_startproc
	endbr64
	subq	$88, %rsp
	.cfi_def_cfa_offset 96
	movq	%rdi, %r9
	movdqu	(%rcx), %xmm0
	movq	%r8, %rdi
	movq	%fs:40, %rax
	movq	%rax, 72(%rsp)
	movq	_ZTVN8opendnp318BufferedCollectionINS_7IndexedINS_6AnalogEEEZNS_16CountIndexParser13InvokeCountOfINS_11Group32Var7EEEvRKNS_12HeaderRecordEtRKNS_9NumParserERKN7openpal6RSliceERNS_12IAPDUHandlerEEUlRSE_jE_EE@GOTPCREL(%rip), %rax
	movdqu	(%r9), %xmm1
	movq	%rdx, 64(%rsp)
	leaq	32(%rsp), %rdx
	movw	%si, 16(%rsp)
	movups	%xmm0, 40(%rsp)
	movaps	%xmm1, (%rsp)
	addq	$16, %rax
	movq	%rax, 32(%rsp)
	movzwl	%si, %eax
	movq	%rsp, %rsi
	movq	%rax, 56(%rsp)
	call	_ZN8opendnp312IAPDUHandler8OnHeaderERKNS_12PrefixHeaderERKNS_11ICollectionINS_7IndexedINS_6AnalogEEEEE@PLT
	movq	72(%rsp), %rax
	subq	%fs:40, %rax
	jne	.L164
	addq	$88, %rsp
	.cfi_remember_state
	.cfi_def_cfa_offset 8
	ret
.L164:
	.cfi_restore_state
	call	__stack_chk_fail@PLT
	.cfi_endproc
.LFE3259:
	.size	_ZN8opendnp316CountIndexParser13InvokeCountOfINS_11Group32Var7EEEvRKNS_12HeaderRecordEtRKNS_9NumParserERKN7openpal6RSliceERNS_12IAPDUHandlerE, .-_ZN8opendnp316CountIndexParser13InvokeCountOfINS_11Group32Var7EEEvRKNS_12HeaderRecordEtRKNS_9NumParserERKN7openpal6RSliceERNS_12IAPDUHandlerE
	.section	.text._ZN8opendnp316CountIndexParser13InvokeCountOfINS_11Group32Var8EEEvRKNS_12HeaderRecordEtRKNS_9NumParserERKN7openpal6RSliceERNS_12IAPDUHandlerE,"axG",@progbits,_ZN8opendnp316CountIndexParser13InvokeCountOfINS_11Group32Var8EEEvRKNS_12HeaderRecordEtRKNS_9NumParserERKN7openpal6RSliceERNS_12IAPDUHandlerE,comdat
	.align 2
	.p2align 4
	.weak	_ZN8opendnp316CountIndexParser13InvokeCountOfINS_11Group32Var8EEEvRKNS_12HeaderRecordEtRKNS_9NumParserERKN7openpal6RSliceERNS_12IAPDUHandlerE
	.type	_ZN8opendnp316CountIndexParser13InvokeCountOfINS_11Group32Var8EEEvRKNS_12HeaderRecordEtRKNS_9NumParserERKN7openpal6RSliceERNS_12IAPDUHandlerE, @function
_ZN8opendnp316CountIndexParser13InvokeCountOfINS_11Group32Var8EEEvRKNS_12HeaderRecordEtRKNS_9NumParserERKN7openpal6RSliceERNS_12IAPDUHandlerE:
.LFB3264:
	.cfi_startproc
	endbr64
	subq	$88, %rsp
	.cfi_def_cfa_offset 96
	movq	%rdi, %r9
	movdqu	(%rcx), %xmm0
	movq	%r8, %rdi
	movq	%fs:40, %rax
	movq	%rax, 72(%rsp)
	movq	_ZTVN8opendnp318BufferedCollectionINS_7IndexedINS_6AnalogEEEZNS_16CountIndexParser13InvokeCountOfINS_11Group32Var8EEEvRKNS_12HeaderRecordEtRKNS_9NumParserERKN7openpal6RSliceERNS_12IAPDUHandlerEEUlRSE_jE_EE@GOTPCREL(%rip), %rax
	movdqu	(%r9), %xmm1
	movq	%rdx, 64(%rsp)
	leaq	32(%rsp), %rdx
	movw	%si, 16(%rsp)
	movups	%xmm0, 40(%rsp)
	movaps	%xmm1, (%rsp)
	addq	$16, %rax
	movq	%rax, 32(%rsp)
	movzwl	%si, %eax
	movq	%rsp, %rsi
	movq	%rax, 56(%rsp)
	call	_ZN8opendnp312IAPDUHandler8OnHeaderERKNS_12PrefixHeaderERKNS_11ICollectionINS_7IndexedINS_6AnalogEEEEE@PLT
	movq	72(%rsp), %rax
	subq	%fs:40, %rax
	jne	.L168
	addq	$88, %rsp
	.cfi_remember_state
	.cfi_def_cfa_offset 8
	ret
.L168:
	.cfi_restore_state
	call	__stack_chk_fail@PLT
	.cfi_endproc
.LFE3264:
	.size	_ZN8opendnp316CountIndexParser13InvokeCountOfINS_11Group32Var8EEEvRKNS_12HeaderRecordEtRKNS_9NumParserERKN7openpal6RSliceERNS_12IAPDUHandlerE, .-_ZN8opendnp316CountIndexParser13InvokeCountOfINS_11Group32Var8EEEvRKNS_12HeaderRecordEtRKNS_9NumParserERKN7openpal6RSliceERNS_12IAPDUHandlerE
	.section	.text._ZN8opendnp316CountIndexParser13InvokeCountOfINS_11Group41Var1EEEvRKNS_12HeaderRecordEtRKNS_9NumParserERKN7openpal6RSliceERNS_12IAPDUHandlerE,"axG",@progbits,_ZN8opendnp316CountIndexParser13InvokeCountOfINS_11Group41Var1EEEvRKNS_12HeaderRecordEtRKNS_9NumParserERKN7openpal6RSliceERNS_12IAPDUHandlerE,comdat
	.align 2
	.p2align 4
	.weak	_ZN8opendnp316CountIndexParser13InvokeCountOfINS_11Group41Var1EEEvRKNS_12HeaderRecordEtRKNS_9NumParserERKN7openpal6RSliceERNS_12IAPDUHandlerE
	.type	_ZN8opendnp316CountIndexParser13InvokeCountOfINS_11Group41Var1EEEvRKNS_12HeaderRecordEtRKNS_9NumParserERKN7openpal6RSliceERNS_12IAPDUHandlerE, @function
_ZN8opendnp316CountIndexParser13InvokeCountOfINS_11Group41Var1EEEvRKNS_12HeaderRecordEtRKNS_9NumParserERKN7openpal6RSliceERNS_12IAPDUHandlerE:
.LFB3269:
	.cfi_startproc
	endbr64
	subq	$88, %rsp
	.cfi_def_cfa_offset 96
	movq	%rdi, %r9
	movdqu	(%rcx), %xmm0
	movq	%r8, %rdi
	movq	%fs:40, %rax
	movq	%rax, 72(%rsp)
	movq	_ZTVN8opendnp318BufferedCollectionINS_7IndexedINS_17AnalogOutputInt32EEEZNS_16CountIndexParser13InvokeCountOfINS_11Group41Var1EEEvRKNS_12HeaderRecordEtRKNS_9NumParserERKN7openpal6RSliceERNS_12IAPDUHandlerEEUlRSE_jE_EE@GOTPCREL(%rip), %rax
	movdqu	(%r9), %xmm1
	movq	%rdx, 64(%rsp)
	leaq	32(%rsp), %rdx
	movw	%si, 16(%rsp)
	movups	%xmm0, 40(%rsp)
	movaps	%xmm1, (%rsp)
	addq	$16, %rax
	movq	%rax, 32(%rsp)
	movzwl	%si, %eax
	movq	%rsp, %rsi
	movq	%rax, 56(%rsp)
	call	_ZN8opendnp312IAPDUHandler8OnHeaderERKNS_12PrefixHeaderERKNS_11ICollectionINS_7IndexedINS_17AnalogOutputInt32EEEEE@PLT
	movq	72(%rsp), %rax
	subq	%fs:40, %rax
	jne	.L172
	addq	$88, %rsp
	.cfi_remember_state
	.cfi_def_cfa_offset 8
	ret
.L172:
	.cfi_restore_state
	call	__stack_chk_fail@PLT
	.cfi_endproc
.LFE3269:
	.size	_ZN8opendnp316CountIndexParser13InvokeCountOfINS_11Group41Var1EEEvRKNS_12HeaderRecordEtRKNS_9NumParserERKN7openpal6RSliceERNS_12IAPDUHandlerE, .-_ZN8opendnp316CountIndexParser13InvokeCountOfINS_11Group41Var1EEEvRKNS_12HeaderRecordEtRKNS_9NumParserERKN7openpal6RSliceERNS_12IAPDUHandlerE
	.section	.text._ZN8opendnp316CountIndexParser13InvokeCountOfINS_11Group41Var2EEEvRKNS_12HeaderRecordEtRKNS_9NumParserERKN7openpal6RSliceERNS_12IAPDUHandlerE,"axG",@progbits,_ZN8opendnp316CountIndexParser13InvokeCountOfINS_11Group41Var2EEEvRKNS_12HeaderRecordEtRKNS_9NumParserERKN7openpal6RSliceERNS_12IAPDUHandlerE,comdat
	.align 2
	.p2align 4
	.weak	_ZN8opendnp316CountIndexParser13InvokeCountOfINS_11Group41Var2EEEvRKNS_12HeaderRecordEtRKNS_9NumParserERKN7openpal6RSliceERNS_12IAPDUHandlerE
	.type	_ZN8opendnp316CountIndexParser13InvokeCountOfINS_11Group41Var2EEEvRKNS_12HeaderRecordEtRKNS_9NumParserERKN7openpal6RSliceERNS_12IAPDUHandlerE, @function
_ZN8opendnp316CountIndexParser13InvokeCountOfINS_11Group41Var2EEEvRKNS_12HeaderRecordEtRKNS_9NumParserERKN7openpal6RSliceERNS_12IAPDUHandlerE:
.LFB3277:
	.cfi_startproc
	endbr64
	subq	$88, %rsp
	.cfi_def_cfa_offset 96
	movq	%rdi, %r9
	movdqu	(%rcx), %xmm0
	movq	%r8, %rdi
	movq	%fs:40, %rax
	movq	%rax, 72(%rsp)
	movq	_ZTVN8opendnp318BufferedCollectionINS_7IndexedINS_17AnalogOutputInt16EEEZNS_16CountIndexParser13InvokeCountOfINS_11Group41Var2EEEvRKNS_12HeaderRecordEtRKNS_9NumParserERKN7openpal6RSliceERNS_12IAPDUHandlerEEUlRSE_jE_EE@GOTPCREL(%rip), %rax
	movdqu	(%r9), %xmm1
	movq	%rdx, 64(%rsp)
	leaq	32(%rsp), %rdx
	movw	%si, 16(%rsp)
	movups	%xmm0, 40(%rsp)
	movaps	%xmm1, (%rsp)
	addq	$16, %rax
	movq	%rax, 32(%rsp)
	movzwl	%si, %eax
	movq	%rsp, %rsi
	movq	%rax, 56(%rsp)
	call	_ZN8opendnp312IAPDUHandler8OnHeaderERKNS_12PrefixHeaderERKNS_11ICollectionINS_7IndexedINS_17AnalogOutputInt16EEEEE@PLT
	movq	72(%rsp), %rax
	subq	%fs:40, %rax
	jne	.L176
	addq	$88, %rsp
	.cfi_remember_state
	.cfi_def_cfa_offset 8
	ret
.L176:
	.cfi_restore_state
	call	__stack_chk_fail@PLT
	.cfi_endproc
.LFE3277:
	.size	_ZN8opendnp316CountIndexParser13InvokeCountOfINS_11Group41Var2EEEvRKNS_12HeaderRecordEtRKNS_9NumParserERKN7openpal6RSliceERNS_12IAPDUHandlerE, .-_ZN8opendnp316CountIndexParser13InvokeCountOfINS_11Group41Var2EEEvRKNS_12HeaderRecordEtRKNS_9NumParserERKN7openpal6RSliceERNS_12IAPDUHandlerE
	.section	.text._ZN8opendnp316CountIndexParser13InvokeCountOfINS_11Group41Var3EEEvRKNS_12HeaderRecordEtRKNS_9NumParserERKN7openpal6RSliceERNS_12IAPDUHandlerE,"axG",@progbits,_ZN8opendnp316CountIndexParser13InvokeCountOfINS_11Group41Var3EEEvRKNS_12HeaderRecordEtRKNS_9NumParserERKN7openpal6RSliceERNS_12IAPDUHandlerE,comdat
	.align 2
	.p2align 4
	.weak	_ZN8opendnp316CountIndexParser13InvokeCountOfINS_11Group41Var3EEEvRKNS_12HeaderRecordEtRKNS_9NumParserERKN7openpal6RSliceERNS_12IAPDUHandlerE
	.type	_ZN8opendnp316CountIndexParser13InvokeCountOfINS_11Group41Var3EEEvRKNS_12HeaderRecordEtRKNS_9NumParserERKN7openpal6RSliceERNS_12IAPDUHandlerE, @function
_ZN8opendnp316CountIndexParser13InvokeCountOfINS_11Group41Var3EEEvRKNS_12HeaderRecordEtRKNS_9NumParserERKN7openpal6RSliceERNS_12IAPDUHandlerE:
.LFB3285:
	.cfi_startproc
	endbr64
	subq	$88, %rsp
	.cfi_def_cfa_offset 96
	movq	%rdi, %r9
	movdqu	(%rcx), %xmm0
	movq	%r8, %rdi
	movq	%fs:40, %rax
	movq	%rax, 72(%rsp)
	movq	_ZTVN8opendnp318BufferedCollectionINS_7IndexedINS_19AnalogOutputFloat32EEEZNS_16CountIndexParser13InvokeCountOfINS_11Group41Var3EEEvRKNS_12HeaderRecordEtRKNS_9NumParserERKN7openpal6RSliceERNS_12IAPDUHandlerEEUlRSE_jE_EE@GOTPCREL(%rip), %rax
	movdqu	(%r9), %xmm1
	movq	%rdx, 64(%rsp)
	leaq	32(%rsp), %rdx
	movw	%si, 16(%rsp)
	movups	%xmm0, 40(%rsp)
	movaps	%xmm1, (%rsp)
	addq	$16, %rax
	movq	%rax, 32(%rsp)
	movzwl	%si, %eax
	movq	%rsp, %rsi
	movq	%rax, 56(%rsp)
	call	_ZN8opendnp312IAPDUHandler8OnHeaderERKNS_12PrefixHeaderERKNS_11ICollectionINS_7IndexedINS_19AnalogOutputFloat32EEEEE@PLT
	movq	72(%rsp), %rax
	subq	%fs:40, %rax
	jne	.L180
	addq	$88, %rsp
	.cfi_remember_state
	.cfi_def_cfa_offset 8
	ret
.L180:
	.cfi_restore_state
	call	__stack_chk_fail@PLT
	.cfi_endproc
.LFE3285:
	.size	_ZN8opendnp316CountIndexParser13InvokeCountOfINS_11Group41Var3EEEvRKNS_12HeaderRecordEtRKNS_9NumParserERKN7openpal6RSliceERNS_12IAPDUHandlerE, .-_ZN8opendnp316CountIndexParser13InvokeCountOfINS_11Group41Var3EEEvRKNS_12HeaderRecordEtRKNS_9NumParserERKN7openpal6RSliceERNS_12IAPDUHandlerE
	.section	.text._ZN8opendnp316CountIndexParser13InvokeCountOfINS_11Group41Var4EEEvRKNS_12HeaderRecordEtRKNS_9NumParserERKN7openpal6RSliceERNS_12IAPDUHandlerE,"axG",@progbits,_ZN8opendnp316CountIndexParser13InvokeCountOfINS_11Group41Var4EEEvRKNS_12HeaderRecordEtRKNS_9NumParserERKN7openpal6RSliceERNS_12IAPDUHandlerE,comdat
	.align 2
	.p2align 4
	.weak	_ZN8opendnp316CountIndexParser13InvokeCountOfINS_11Group41Var4EEEvRKNS_12HeaderRecordEtRKNS_9NumParserERKN7openpal6RSliceERNS_12IAPDUHandlerE
	.type	_ZN8opendnp316CountIndexParser13InvokeCountOfINS_11Group41Var4EEEvRKNS_12HeaderRecordEtRKNS_9NumParserERKN7openpal6RSliceERNS_12IAPDUHandlerE, @function
_ZN8opendnp316CountIndexParser13InvokeCountOfINS_11Group41Var4EEEvRKNS_12HeaderRecordEtRKNS_9NumParserERKN7openpal6RSliceERNS_12IAPDUHandlerE:
.LFB3293:
	.cfi_startproc
	endbr64
	subq	$88, %rsp
	.cfi_def_cfa_offset 96
	movq	%rdi, %r9
	movdqu	(%rcx), %xmm0
	movq	%r8, %rdi
	movq	%fs:40, %rax
	movq	%rax, 72(%rsp)
	movq	_ZTVN8opendnp318BufferedCollectionINS_7IndexedINS_20AnalogOutputDouble64EEEZNS_16CountIndexParser13InvokeCountOfINS_11Group41Var4EEEvRKNS_12HeaderRecordEtRKNS_9NumParserERKN7openpal6RSliceERNS_12IAPDUHandlerEEUlRSE_jE_EE@GOTPCREL(%rip), %rax
	movdqu	(%r9), %xmm1
	movq	%rdx, 64(%rsp)
	leaq	32(%rsp), %rdx
	movw	%si, 16(%rsp)
	movups	%xmm0, 40(%rsp)
	movaps	%xmm1, (%rsp)
	addq	$16, %rax
	movq	%rax, 32(%rsp)
	movzwl	%si, %eax
	movq	%rsp, %rsi
	movq	%rax, 56(%rsp)
	call	_ZN8opendnp312IAPDUHandler8OnHeaderERKNS_12PrefixHeaderERKNS_11ICollectionINS_7IndexedINS_20AnalogOutputDouble64EEEEE@PLT
	movq	72(%rsp), %rax
	subq	%fs:40, %rax
	jne	.L184
	addq	$88, %rsp
	.cfi_remember_state
	.cfi_def_cfa_offset 8
	ret
.L184:
	.cfi_restore_state
	call	__stack_chk_fail@PLT
	.cfi_endproc
.LFE3293:
	.size	_ZN8opendnp316CountIndexParser13InvokeCountOfINS_11Group41Var4EEEvRKNS_12HeaderRecordEtRKNS_9NumParserERKN7openpal6RSliceERNS_12IAPDUHandlerE, .-_ZN8opendnp316CountIndexParser13InvokeCountOfINS_11Group41Var4EEEvRKNS_12HeaderRecordEtRKNS_9NumParserERKN7openpal6RSliceERNS_12IAPDUHandlerE
	.section	.text._ZN8opendnp316CountIndexParser13InvokeCountOfINS_11Group42Var1EEEvRKNS_12HeaderRecordEtRKNS_9NumParserERKN7openpal6RSliceERNS_12IAPDUHandlerE,"axG",@progbits,_ZN8opendnp316CountIndexParser13InvokeCountOfINS_11Group42Var1EEEvRKNS_12HeaderRecordEtRKNS_9NumParserERKN7openpal6RSliceERNS_12IAPDUHandlerE,comdat
	.align 2
	.p2align 4
	.weak	_ZN8opendnp316CountIndexParser13InvokeCountOfINS_11Group42Var1EEEvRKNS_12HeaderRecordEtRKNS_9NumParserERKN7openpal6RSliceERNS_12IAPDUHandlerE
	.type	_ZN8opendnp316CountIndexParser13InvokeCountOfINS_11Group42Var1EEEvRKNS_12HeaderRecordEtRKNS_9NumParserERKN7openpal6RSliceERNS_12IAPDUHandlerE, @function
_ZN8opendnp316CountIndexParser13InvokeCountOfINS_11Group42Var1EEEvRKNS_12HeaderRecordEtRKNS_9NumParserERKN7openpal6RSliceERNS_12IAPDUHandlerE:
.LFB3301:
	.cfi_startproc
	endbr64
	subq	$88, %rsp
	.cfi_def_cfa_offset 96
	movq	%rdi, %r9
	movdqu	(%rcx), %xmm0
	movq	%r8, %rdi
	movq	%fs:40, %rax
	movq	%rax, 72(%rsp)
	movq	_ZTVN8opendnp318BufferedCollectionINS_7IndexedINS_18AnalogOutputStatusEEEZNS_16CountIndexParser13InvokeCountOfINS_11Group42Var1EEEvRKNS_12HeaderRecordEtRKNS_9NumParserERKN7openpal6RSliceERNS_12IAPDUHandlerEEUlRSE_jE_EE@GOTPCREL(%rip), %rax
	movdqu	(%r9), %xmm1
	movq	%rdx, 64(%rsp)
	leaq	32(%rsp), %rdx
	movw	%si, 16(%rsp)
	movups	%xmm0, 40(%rsp)
	movaps	%xmm1, (%rsp)
	addq	$16, %rax
	movq	%rax, 32(%rsp)
	movzwl	%si, %eax
	movq	%rsp, %rsi
	movq	%rax, 56(%rsp)
	call	_ZN8opendnp312IAPDUHandler8OnHeaderERKNS_12PrefixHeaderERKNS_11ICollectionINS_7IndexedINS_18AnalogOutputStatusEEEEE@PLT
	movq	72(%rsp), %rax
	subq	%fs:40, %rax
	jne	.L188
	addq	$88, %rsp
	.cfi_remember_state
	.cfi_def_cfa_offset 8
	ret
.L188:
	.cfi_restore_state
	call	__stack_chk_fail@PLT
	.cfi_endproc
.LFE3301:
	.size	_ZN8opendnp316CountIndexParser13InvokeCountOfINS_11Group42Var1EEEvRKNS_12HeaderRecordEtRKNS_9NumParserERKN7openpal6RSliceERNS_12IAPDUHandlerE, .-_ZN8opendnp316CountIndexParser13InvokeCountOfINS_11Group42Var1EEEvRKNS_12HeaderRecordEtRKNS_9NumParserERKN7openpal6RSliceERNS_12IAPDUHandlerE
	.section	.text._ZN8opendnp316CountIndexParser13InvokeCountOfINS_11Group42Var2EEEvRKNS_12HeaderRecordEtRKNS_9NumParserERKN7openpal6RSliceERNS_12IAPDUHandlerE,"axG",@progbits,_ZN8opendnp316CountIndexParser13InvokeCountOfINS_11Group42Var2EEEvRKNS_12HeaderRecordEtRKNS_9NumParserERKN7openpal6RSliceERNS_12IAPDUHandlerE,comdat
	.align 2
	.p2align 4
	.weak	_ZN8opendnp316CountIndexParser13InvokeCountOfINS_11Group42Var2EEEvRKNS_12HeaderRecordEtRKNS_9NumParserERKN7openpal6RSliceERNS_12IAPDUHandlerE
	.type	_ZN8opendnp316CountIndexParser13InvokeCountOfINS_11Group42Var2EEEvRKNS_12HeaderRecordEtRKNS_9NumParserERKN7openpal6RSliceERNS_12IAPDUHandlerE, @function
_ZN8opendnp316CountIndexParser13InvokeCountOfINS_11Group42Var2EEEvRKNS_12HeaderRecordEtRKNS_9NumParserERKN7openpal6RSliceERNS_12IAPDUHandlerE:
.LFB3309:
	.cfi_startproc
	endbr64
	subq	$88, %rsp
	.cfi_def_cfa_offset 96
	movq	%rdi, %r9
	movdqu	(%rcx), %xmm0
	movq	%r8, %rdi
	movq	%fs:40, %rax
	movq	%rax, 72(%rsp)
	movq	_ZTVN8opendnp318BufferedCollectionINS_7IndexedINS_18AnalogOutputStatusEEEZNS_16CountIndexParser13InvokeCountOfINS_11Group42Var2EEEvRKNS_12HeaderRecordEtRKNS_9NumParserERKN7openpal6RSliceERNS_12IAPDUHandlerEEUlRSE_jE_EE@GOTPCREL(%rip), %rax
	movdqu	(%r9), %xmm1
	movq	%rdx, 64(%rsp)
	leaq	32(%rsp), %rdx
	movw	%si, 16(%rsp)
	movups	%xmm0, 40(%rsp)
	movaps	%xmm1, (%rsp)
	addq	$16, %rax
	movq	%rax, 32(%rsp)
	movzwl	%si, %eax
	movq	%rsp, %rsi
	movq	%rax, 56(%rsp)
	call	_ZN8opendnp312IAPDUHandler8OnHeaderERKNS_12PrefixHeaderERKNS_11ICollectionINS_7IndexedINS_18AnalogOutputStatusEEEEE@PLT
	movq	72(%rsp), %rax
	subq	%fs:40, %rax
	jne	.L192
	addq	$88, %rsp
	.cfi_remember_state
	.cfi_def_cfa_offset 8
	ret
.L192:
	.cfi_restore_state
	call	__stack_chk_fail@PLT
	.cfi_endproc
.LFE3309:
	.size	_ZN8opendnp316CountIndexParser13InvokeCountOfINS_11Group42Var2EEEvRKNS_12HeaderRecordEtRKNS_9NumParserERKN7openpal6RSliceERNS_12IAPDUHandlerE, .-_ZN8opendnp316CountIndexParser13InvokeCountOfINS_11Group42Var2EEEvRKNS_12HeaderRecordEtRKNS_9NumParserERKN7openpal6RSliceERNS_12IAPDUHandlerE
	.section	.text._ZN8opendnp316CountIndexParser13InvokeCountOfINS_11Group42Var3EEEvRKNS_12HeaderRecordEtRKNS_9NumParserERKN7openpal6RSliceERNS_12IAPDUHandlerE,"axG",@progbits,_ZN8opendnp316CountIndexParser13InvokeCountOfINS_11Group42Var3EEEvRKNS_12HeaderRecordEtRKNS_9NumParserERKN7openpal6RSliceERNS_12IAPDUHandlerE,comdat
	.align 2
	.p2align 4
	.weak	_ZN8opendnp316CountIndexParser13InvokeCountOfINS_11Group42Var3EEEvRKNS_12HeaderRecordEtRKNS_9NumParserERKN7openpal6RSliceERNS_12IAPDUHandlerE
	.type	_ZN8opendnp316CountIndexParser13InvokeCountOfINS_11Group42Var3EEEvRKNS_12HeaderRecordEtRKNS_9NumParserERKN7openpal6RSliceERNS_12IAPDUHandlerE, @function
_ZN8opendnp316CountIndexParser13InvokeCountOfINS_11Group42Var3EEEvRKNS_12HeaderRecordEtRKNS_9NumParserERKN7openpal6RSliceERNS_12IAPDUHandlerE:
.LFB3314:
	.cfi_startproc
	endbr64
	subq	$88, %rsp
	.cfi_def_cfa_offset 96
	movq	%rdi, %r9
	movdqu	(%rcx), %xmm0
	movq	%r8, %rdi
	movq	%fs:40, %rax
	movq	%rax, 72(%rsp)
	movq	_ZTVN8opendnp318BufferedCollectionINS_7IndexedINS_18AnalogOutputStatusEEEZNS_16CountIndexParser13InvokeCountOfINS_11Group42Var3EEEvRKNS_12HeaderRecordEtRKNS_9NumParserERKN7openpal6RSliceERNS_12IAPDUHandlerEEUlRSE_jE_EE@GOTPCREL(%rip), %rax
	movdqu	(%r9), %xmm1
	movq	%rdx, 64(%rsp)
	leaq	32(%rsp), %rdx
	movw	%si, 16(%rsp)
	movups	%xmm0, 40(%rsp)
	movaps	%xmm1, (%rsp)
	addq	$16, %rax
	movq	%rax, 32(%rsp)
	movzwl	%si, %eax
	movq	%rsp, %rsi
	movq	%rax, 56(%rsp)
	call	_ZN8opendnp312IAPDUHandler8OnHeaderERKNS_12PrefixHeaderERKNS_11ICollectionINS_7IndexedINS_18AnalogOutputStatusEEEEE@PLT
	movq	72(%rsp), %rax
	subq	%fs:40, %rax
	jne	.L196
	addq	$88, %rsp
	.cfi_remember_state
	.cfi_def_cfa_offset 8
	ret
.L196:
	.cfi_restore_state
	call	__stack_chk_fail@PLT
	.cfi_endproc
.LFE3314:
	.size	_ZN8opendnp316CountIndexParser13InvokeCountOfINS_11Group42Var3EEEvRKNS_12HeaderRecordEtRKNS_9NumParserERKN7openpal6RSliceERNS_12IAPDUHandlerE, .-_ZN8opendnp316CountIndexParser13InvokeCountOfINS_11Group42Var3EEEvRKNS_12HeaderRecordEtRKNS_9NumParserERKN7openpal6RSliceERNS_12IAPDUHandlerE
	.section	.text._ZN8opendnp316CountIndexParser13InvokeCountOfINS_11Group42Var4EEEvRKNS_12HeaderRecordEtRKNS_9NumParserERKN7openpal6RSliceERNS_12IAPDUHandlerE,"axG",@progbits,_ZN8opendnp316CountIndexParser13InvokeCountOfINS_11Group42Var4EEEvRKNS_12HeaderRecordEtRKNS_9NumParserERKN7openpal6RSliceERNS_12IAPDUHandlerE,comdat
	.align 2
	.p2align 4
	.weak	_ZN8opendnp316CountIndexParser13InvokeCountOfINS_11Group42Var4EEEvRKNS_12HeaderRecordEtRKNS_9NumParserERKN7openpal6RSliceERNS_12IAPDUHandlerE
	.type	_ZN8opendnp316CountIndexParser13InvokeCountOfINS_11Group42Var4EEEvRKNS_12HeaderRecordEtRKNS_9NumParserERKN7openpal6RSliceERNS_12IAPDUHandlerE, @function
_ZN8opendnp316CountIndexParser13InvokeCountOfINS_11Group42Var4EEEvRKNS_12HeaderRecordEtRKNS_9NumParserERKN7openpal6RSliceERNS_12IAPDUHandlerE:
.LFB3319:
	.cfi_startproc
	endbr64
	subq	$88, %rsp
	.cfi_def_cfa_offset 96
	movq	%rdi, %r9
	movdqu	(%rcx), %xmm0
	movq	%r8, %rdi
	movq	%fs:40, %rax
	movq	%rax, 72(%rsp)
	movq	_ZTVN8opendnp318BufferedCollectionINS_7IndexedINS_18AnalogOutputStatusEEEZNS_16CountIndexParser13InvokeCountOfINS_11Group42Var4EEEvRKNS_12HeaderRecordEtRKNS_9NumParserERKN7openpal6RSliceERNS_12IAPDUHandlerEEUlRSE_jE_EE@GOTPCREL(%rip), %rax
	movdqu	(%r9), %xmm1
	movq	%rdx, 64(%rsp)
	leaq	32(%rsp), %rdx
	movw	%si, 16(%rsp)
	movups	%xmm0, 40(%rsp)
	movaps	%xmm1, (%rsp)
	addq	$16, %rax
	movq	%rax, 32(%rsp)
	movzwl	%si, %eax
	movq	%rsp, %rsi
	movq	%rax, 56(%rsp)
	call	_ZN8opendnp312IAPDUHandler8OnHeaderERKNS_12PrefixHeaderERKNS_11ICollectionINS_7IndexedINS_18AnalogOutputStatusEEEEE@PLT
	movq	72(%rsp), %rax
	subq	%fs:40, %rax
	jne	.L200
	addq	$88, %rsp
	.cfi_remember_state
	.cfi_def_cfa_offset 8
	ret
.L200:
	.cfi_restore_state
	call	__stack_chk_fail@PLT
	.cfi_endproc
.LFE3319:
	.size	_ZN8opendnp316CountIndexParser13InvokeCountOfINS_11Group42Var4EEEvRKNS_12HeaderRecordEtRKNS_9NumParserERKN7openpal6RSliceERNS_12IAPDUHandlerE, .-_ZN8opendnp316CountIndexParser13InvokeCountOfINS_11Group42Var4EEEvRKNS_12HeaderRecordEtRKNS_9NumParserERKN7openpal6RSliceERNS_12IAPDUHandlerE
	.section	.text._ZN8opendnp316CountIndexParser13InvokeCountOfINS_11Group42Var5EEEvRKNS_12HeaderRecordEtRKNS_9NumParserERKN7openpal6RSliceERNS_12IAPDUHandlerE,"axG",@progbits,_ZN8opendnp316CountIndexParser13InvokeCountOfINS_11Group42Var5EEEvRKNS_12HeaderRecordEtRKNS_9NumParserERKN7openpal6RSliceERNS_12IAPDUHandlerE,comdat
	.align 2
	.p2align 4
	.weak	_ZN8opendnp316CountIndexParser13InvokeCountOfINS_11Group42Var5EEEvRKNS_12HeaderRecordEtRKNS_9NumParserERKN7openpal6RSliceERNS_12IAPDUHandlerE
	.type	_ZN8opendnp316CountIndexParser13InvokeCountOfINS_11Group42Var5EEEvRKNS_12HeaderRecordEtRKNS_9NumParserERKN7openpal6RSliceERNS_12IAPDUHandlerE, @function
_ZN8opendnp316CountIndexParser13InvokeCountOfINS_11Group42Var5EEEvRKNS_12HeaderRecordEtRKNS_9NumParserERKN7openpal6RSliceERNS_12IAPDUHandlerE:
.LFB3324:
	.cfi_startproc
	endbr64
	subq	$88, %rsp
	.cfi_def_cfa_offset 96
	movq	%rdi, %r9
	movdqu	(%rcx), %xmm0
	movq	%r8, %rdi
	movq	%fs:40, %rax
	movq	%rax, 72(%rsp)
	movq	_ZTVN8opendnp318BufferedCollectionINS_7IndexedINS_18AnalogOutputStatusEEEZNS_16CountIndexParser13InvokeCountOfINS_11Group42Var5EEEvRKNS_12HeaderRecordEtRKNS_9NumParserERKN7openpal6RSliceERNS_12IAPDUHandlerEEUlRSE_jE_EE@GOTPCREL(%rip), %rax
	movdqu	(%r9), %xmm1
	movq	%rdx, 64(%rsp)
	leaq	32(%rsp), %rdx
	movw	%si, 16(%rsp)
	movups	%xmm0, 40(%rsp)
	movaps	%xmm1, (%rsp)
	addq	$16, %rax
	movq	%rax, 32(%rsp)
	movzwl	%si, %eax
	movq	%rsp, %rsi
	movq	%rax, 56(%rsp)
	call	_ZN8opendnp312IAPDUHandler8OnHeaderERKNS_12PrefixHeaderERKNS_11ICollectionINS_7IndexedINS_18AnalogOutputStatusEEEEE@PLT
	movq	72(%rsp), %rax
	subq	%fs:40, %rax
	jne	.L204
	addq	$88, %rsp
	.cfi_remember_state
	.cfi_def_cfa_offset 8
	ret
.L204:
	.cfi_restore_state
	call	__stack_chk_fail@PLT
	.cfi_endproc
.LFE3324:
	.size	_ZN8opendnp316CountIndexParser13InvokeCountOfINS_11Group42Var5EEEvRKNS_12HeaderRecordEtRKNS_9NumParserERKN7openpal6RSliceERNS_12IAPDUHandlerE, .-_ZN8opendnp316CountIndexParser13InvokeCountOfINS_11Group42Var5EEEvRKNS_12HeaderRecordEtRKNS_9NumParserERKN7openpal6RSliceERNS_12IAPDUHandlerE
	.section	.text._ZN8opendnp316CountIndexParser13InvokeCountOfINS_11Group42Var6EEEvRKNS_12HeaderRecordEtRKNS_9NumParserERKN7openpal6RSliceERNS_12IAPDUHandlerE,"axG",@progbits,_ZN8opendnp316CountIndexParser13InvokeCountOfINS_11Group42Var6EEEvRKNS_12HeaderRecordEtRKNS_9NumParserERKN7openpal6RSliceERNS_12IAPDUHandlerE,comdat
	.align 2
	.p2align 4
	.weak	_ZN8opendnp316CountIndexParser13InvokeCountOfINS_11Group42Var6EEEvRKNS_12HeaderRecordEtRKNS_9NumParserERKN7openpal6RSliceERNS_12IAPDUHandlerE
	.type	_ZN8opendnp316CountIndexParser13InvokeCountOfINS_11Group42Var6EEEvRKNS_12HeaderRecordEtRKNS_9NumParserERKN7openpal6RSliceERNS_12IAPDUHandlerE, @function
_ZN8opendnp316CountIndexParser13InvokeCountOfINS_11Group42Var6EEEvRKNS_12HeaderRecordEtRKNS_9NumParserERKN7openpal6RSliceERNS_12IAPDUHandlerE:
.LFB3329:
	.cfi_startproc
	endbr64
	subq	$88, %rsp
	.cfi_def_cfa_offset 96
	movq	%rdi, %r9
	movdqu	(%rcx), %xmm0
	movq	%r8, %rdi
	movq	%fs:40, %rax
	movq	%rax, 72(%rsp)
	movq	_ZTVN8opendnp318BufferedCollectionINS_7IndexedINS_18AnalogOutputStatusEEEZNS_16CountIndexParser13InvokeCountOfINS_11Group42Var6EEEvRKNS_12HeaderRecordEtRKNS_9NumParserERKN7openpal6RSliceERNS_12IAPDUHandlerEEUlRSE_jE_EE@GOTPCREL(%rip), %rax
	movdqu	(%r9), %xmm1
	movq	%rdx, 64(%rsp)
	leaq	32(%rsp), %rdx
	movw	%si, 16(%rsp)
	movups	%xmm0, 40(%rsp)
	movaps	%xmm1, (%rsp)
	addq	$16, %rax
	movq	%rax, 32(%rsp)
	movzwl	%si, %eax
	movq	%rsp, %rsi
	movq	%rax, 56(%rsp)
	call	_ZN8opendnp312IAPDUHandler8OnHeaderERKNS_12PrefixHeaderERKNS_11ICollectionINS_7IndexedINS_18AnalogOutputStatusEEEEE@PLT
	movq	72(%rsp), %rax
	subq	%fs:40, %rax
	jne	.L208
	addq	$88, %rsp
	.cfi_remember_state
	.cfi_def_cfa_offset 8
	ret
.L208:
	.cfi_restore_state
	call	__stack_chk_fail@PLT
	.cfi_endproc
.LFE3329:
	.size	_ZN8opendnp316CountIndexParser13InvokeCountOfINS_11Group42Var6EEEvRKNS_12HeaderRecordEtRKNS_9NumParserERKN7openpal6RSliceERNS_12IAPDUHandlerE, .-_ZN8opendnp316CountIndexParser13InvokeCountOfINS_11Group42Var6EEEvRKNS_12HeaderRecordEtRKNS_9NumParserERKN7openpal6RSliceERNS_12IAPDUHandlerE
	.section	.text._ZN8opendnp316CountIndexParser13InvokeCountOfINS_11Group42Var7EEEvRKNS_12HeaderRecordEtRKNS_9NumParserERKN7openpal6RSliceERNS_12IAPDUHandlerE,"axG",@progbits,_ZN8opendnp316CountIndexParser13InvokeCountOfINS_11Group42Var7EEEvRKNS_12HeaderRecordEtRKNS_9NumParserERKN7openpal6RSliceERNS_12IAPDUHandlerE,comdat
	.align 2
	.p2align 4
	.weak	_ZN8opendnp316CountIndexParser13InvokeCountOfINS_11Group42Var7EEEvRKNS_12HeaderRecordEtRKNS_9NumParserERKN7openpal6RSliceERNS_12IAPDUHandlerE
	.type	_ZN8opendnp316CountIndexParser13InvokeCountOfINS_11Group42Var7EEEvRKNS_12HeaderRecordEtRKNS_9NumParserERKN7openpal6RSliceERNS_12IAPDUHandlerE, @function
_ZN8opendnp316CountIndexParser13InvokeCountOfINS_11Group42Var7EEEvRKNS_12HeaderRecordEtRKNS_9NumParserERKN7openpal6RSliceERNS_12IAPDUHandlerE:
.LFB3334:
	.cfi_startproc
	endbr64
	subq	$88, %rsp
	.cfi_def_cfa_offset 96
	movq	%rdi, %r9
	movdqu	(%rcx), %xmm0
	movq	%r8, %rdi
	movq	%fs:40, %rax
	movq	%rax, 72(%rsp)
	movq	_ZTVN8opendnp318BufferedCollectionINS_7IndexedINS_18AnalogOutputStatusEEEZNS_16CountIndexParser13InvokeCountOfINS_11Group42Var7EEEvRKNS_12HeaderRecordEtRKNS_9NumParserERKN7openpal6RSliceERNS_12IAPDUHandlerEEUlRSE_jE_EE@GOTPCREL(%rip), %rax
	movdqu	(%r9), %xmm1
	movq	%rdx, 64(%rsp)
	leaq	32(%rsp), %rdx
	movw	%si, 16(%rsp)
	movups	%xmm0, 40(%rsp)
	movaps	%xmm1, (%rsp)
	addq	$16, %rax
	movq	%rax, 32(%rsp)
	movzwl	%si, %eax
	movq	%rsp, %rsi
	movq	%rax, 56(%rsp)
	call	_ZN8opendnp312IAPDUHandler8OnHeaderERKNS_12PrefixHeaderERKNS_11ICollectionINS_7IndexedINS_18AnalogOutputStatusEEEEE@PLT
	movq	72(%rsp), %rax
	subq	%fs:40, %rax
	jne	.L212
	addq	$88, %rsp
	.cfi_remember_state
	.cfi_def_cfa_offset 8
	ret
.L212:
	.cfi_restore_state
	call	__stack_chk_fail@PLT
	.cfi_endproc
.LFE3334:
	.size	_ZN8opendnp316CountIndexParser13InvokeCountOfINS_11Group42Var7EEEvRKNS_12HeaderRecordEtRKNS_9NumParserERKN7openpal6RSliceERNS_12IAPDUHandlerE, .-_ZN8opendnp316CountIndexParser13InvokeCountOfINS_11Group42Var7EEEvRKNS_12HeaderRecordEtRKNS_9NumParserERKN7openpal6RSliceERNS_12IAPDUHandlerE
	.section	.text._ZN8opendnp316CountIndexParser13InvokeCountOfINS_11Group42Var8EEEvRKNS_12HeaderRecordEtRKNS_9NumParserERKN7openpal6RSliceERNS_12IAPDUHandlerE,"axG",@progbits,_ZN8opendnp316CountIndexParser13InvokeCountOfINS_11Group42Var8EEEvRKNS_12HeaderRecordEtRKNS_9NumParserERKN7openpal6RSliceERNS_12IAPDUHandlerE,comdat
	.align 2
	.p2align 4
	.weak	_ZN8opendnp316CountIndexParser13InvokeCountOfINS_11Group42Var8EEEvRKNS_12HeaderRecordEtRKNS_9NumParserERKN7openpal6RSliceERNS_12IAPDUHandlerE
	.type	_ZN8opendnp316CountIndexParser13InvokeCountOfINS_11Group42Var8EEEvRKNS_12HeaderRecordEtRKNS_9NumParserERKN7openpal6RSliceERNS_12IAPDUHandlerE, @function
_ZN8opendnp316CountIndexParser13InvokeCountOfINS_11Group42Var8EEEvRKNS_12HeaderRecordEtRKNS_9NumParserERKN7openpal6RSliceERNS_12IAPDUHandlerE:
.LFB3339:
	.cfi_startproc
	endbr64
	subq	$88, %rsp
	.cfi_def_cfa_offset 96
	movq	%rdi, %r9
	movdqu	(%rcx), %xmm0
	movq	%r8, %rdi
	movq	%fs:40, %rax
	movq	%rax, 72(%rsp)
	movq	_ZTVN8opendnp318BufferedCollectionINS_7IndexedINS_18AnalogOutputStatusEEEZNS_16CountIndexParser13InvokeCountOfINS_11Group42Var8EEEvRKNS_12HeaderRecordEtRKNS_9NumParserERKN7openpal6RSliceERNS_12IAPDUHandlerEEUlRSE_jE_EE@GOTPCREL(%rip), %rax
	movdqu	(%r9), %xmm1
	movq	%rdx, 64(%rsp)
	leaq	32(%rsp), %rdx
	movw	%si, 16(%rsp)
	movups	%xmm0, 40(%rsp)
	movaps	%xmm1, (%rsp)
	addq	$16, %rax
	movq	%rax, 32(%rsp)
	movzwl	%si, %eax
	movq	%rsp, %rsi
	movq	%rax, 56(%rsp)
	call	_ZN8opendnp312IAPDUHandler8OnHeaderERKNS_12PrefixHeaderERKNS_11ICollectionINS_7IndexedINS_18AnalogOutputStatusEEEEE@PLT
	movq	72(%rsp), %rax
	subq	%fs:40, %rax
	jne	.L216
	addq	$88, %rsp
	.cfi_remember_state
	.cfi_def_cfa_offset 8
	ret
.L216:
	.cfi_restore_state
	call	__stack_chk_fail@PLT
	.cfi_endproc
.LFE3339:
	.size	_ZN8opendnp316CountIndexParser13InvokeCountOfINS_11Group42Var8EEEvRKNS_12HeaderRecordEtRKNS_9NumParserERKN7openpal6RSliceERNS_12IAPDUHandlerE, .-_ZN8opendnp316CountIndexParser13InvokeCountOfINS_11Group42Var8EEEvRKNS_12HeaderRecordEtRKNS_9NumParserERKN7openpal6RSliceERNS_12IAPDUHandlerE
	.section	.text._ZN8opendnp316CountIndexParser13InvokeCountOfINS_11Group43Var1EEEvRKNS_12HeaderRecordEtRKNS_9NumParserERKN7openpal6RSliceERNS_12IAPDUHandlerE,"axG",@progbits,_ZN8opendnp316CountIndexParser13InvokeCountOfINS_11Group43Var1EEEvRKNS_12HeaderRecordEtRKNS_9NumParserERKN7openpal6RSliceERNS_12IAPDUHandlerE,comdat
	.align 2
	.p2align 4
	.weak	_ZN8opendnp316CountIndexParser13InvokeCountOfINS_11Group43Var1EEEvRKNS_12HeaderRecordEtRKNS_9NumParserERKN7openpal6RSliceERNS_12IAPDUHandlerE
	.type	_ZN8opendnp316CountIndexParser13InvokeCountOfINS_11Group43Var1EEEvRKNS_12HeaderRecordEtRKNS_9NumParserERKN7openpal6RSliceERNS_12IAPDUHandlerE, @function
_ZN8opendnp316CountIndexParser13InvokeCountOfINS_11Group43Var1EEEvRKNS_12HeaderRecordEtRKNS_9NumParserERKN7openpal6RSliceERNS_12IAPDUHandlerE:
.LFB3344:
	.cfi_startproc
	endbr64
	subq	$88, %rsp
	.cfi_def_cfa_offset 96
	movq	%rdi, %r9
	movdqu	(%rcx), %xmm0
	movq	%r8, %rdi
	movq	%fs:40, %rax
	movq	%rax, 72(%rsp)
	movq	_ZTVN8opendnp318BufferedCollectionINS_7IndexedINS_18AnalogCommandEventEEEZNS_16CountIndexParser13InvokeCountOfINS_11Group43Var1EEEvRKNS_12HeaderRecordEtRKNS_9NumParserERKN7openpal6RSliceERNS_12IAPDUHandlerEEUlRSE_jE_EE@GOTPCREL(%rip), %rax
	movdqu	(%r9), %xmm1
	movq	%rdx, 64(%rsp)
	leaq	32(%rsp), %rdx
	movw	%si, 16(%rsp)
	movups	%xmm0, 40(%rsp)
	movaps	%xmm1, (%rsp)
	addq	$16, %rax
	movq	%rax, 32(%rsp)
	movzwl	%si, %eax
	movq	%rsp, %rsi
	movq	%rax, 56(%rsp)
	call	_ZN8opendnp312IAPDUHandler8OnHeaderERKNS_12PrefixHeaderERKNS_11ICollectionINS_7IndexedINS_18AnalogCommandEventEEEEE@PLT
	movq	72(%rsp), %rax
	subq	%fs:40, %rax
	jne	.L220
	addq	$88, %rsp
	.cfi_remember_state
	.cfi_def_cfa_offset 8
	ret
.L220:
	.cfi_restore_state
	call	__stack_chk_fail@PLT
	.cfi_endproc
.LFE3344:
	.size	_ZN8opendnp316CountIndexParser13InvokeCountOfINS_11Group43Var1EEEvRKNS_12HeaderRecordEtRKNS_9NumParserERKN7openpal6RSliceERNS_12IAPDUHandlerE, .-_ZN8opendnp316CountIndexParser13InvokeCountOfINS_11Group43Var1EEEvRKNS_12HeaderRecordEtRKNS_9NumParserERKN7openpal6RSliceERNS_12IAPDUHandlerE
	.section	.text._ZN8opendnp316CountIndexParser13InvokeCountOfINS_11Group43Var2EEEvRKNS_12HeaderRecordEtRKNS_9NumParserERKN7openpal6RSliceERNS_12IAPDUHandlerE,"axG",@progbits,_ZN8opendnp316CountIndexParser13InvokeCountOfINS_11Group43Var2EEEvRKNS_12HeaderRecordEtRKNS_9NumParserERKN7openpal6RSliceERNS_12IAPDUHandlerE,comdat
	.align 2
	.p2align 4
	.weak	_ZN8opendnp316CountIndexParser13InvokeCountOfINS_11Group43Var2EEEvRKNS_12HeaderRecordEtRKNS_9NumParserERKN7openpal6RSliceERNS_12IAPDUHandlerE
	.type	_ZN8opendnp316CountIndexParser13InvokeCountOfINS_11Group43Var2EEEvRKNS_12HeaderRecordEtRKNS_9NumParserERKN7openpal6RSliceERNS_12IAPDUHandlerE, @function
_ZN8opendnp316CountIndexParser13InvokeCountOfINS_11Group43Var2EEEvRKNS_12HeaderRecordEtRKNS_9NumParserERKN7openpal6RSliceERNS_12IAPDUHandlerE:
.LFB3352:
	.cfi_startproc
	endbr64
	subq	$88, %rsp
	.cfi_def_cfa_offset 96
	movq	%rdi, %r9
	movdqu	(%rcx), %xmm0
	movq	%r8, %rdi
	movq	%fs:40, %rax
	movq	%rax, 72(%rsp)
	movq	_ZTVN8opendnp318BufferedCollectionINS_7IndexedINS_18AnalogCommandEventEEEZNS_16CountIndexParser13InvokeCountOfINS_11Group43Var2EEEvRKNS_12HeaderRecordEtRKNS_9NumParserERKN7openpal6RSliceERNS_12IAPDUHandlerEEUlRSE_jE_EE@GOTPCREL(%rip), %rax
	movdqu	(%r9), %xmm1
	movq	%rdx, 64(%rsp)
	leaq	32(%rsp), %rdx
	movw	%si, 16(%rsp)
	movups	%xmm0, 40(%rsp)
	movaps	%xmm1, (%rsp)
	addq	$16, %rax
	movq	%rax, 32(%rsp)
	movzwl	%si, %eax
	movq	%rsp, %rsi
	movq	%rax, 56(%rsp)
	call	_ZN8opendnp312IAPDUHandler8OnHeaderERKNS_12PrefixHeaderERKNS_11ICollectionINS_7IndexedINS_18AnalogCommandEventEEEEE@PLT
	movq	72(%rsp), %rax
	subq	%fs:40, %rax
	jne	.L224
	addq	$88, %rsp
	.cfi_remember_state
	.cfi_def_cfa_offset 8
	ret
.L224:
	.cfi_restore_state
	call	__stack_chk_fail@PLT
	.cfi_endproc
.LFE3352:
	.size	_ZN8opendnp316CountIndexParser13InvokeCountOfINS_11Group43Var2EEEvRKNS_12HeaderRecordEtRKNS_9NumParserERKN7openpal6RSliceERNS_12IAPDUHandlerE, .-_ZN8opendnp316CountIndexParser13InvokeCountOfINS_11Group43Var2EEEvRKNS_12HeaderRecordEtRKNS_9NumParserERKN7openpal6RSliceERNS_12IAPDUHandlerE
	.section	.text._ZN8opendnp316CountIndexParser13InvokeCountOfINS_11Group43Var3EEEvRKNS_12HeaderRecordEtRKNS_9NumParserERKN7openpal6RSliceERNS_12IAPDUHandlerE,"axG",@progbits,_ZN8opendnp316CountIndexParser13InvokeCountOfINS_11Group43Var3EEEvRKNS_12HeaderRecordEtRKNS_9NumParserERKN7openpal6RSliceERNS_12IAPDUHandlerE,comdat
	.align 2
	.p2align 4
	.weak	_ZN8opendnp316CountIndexParser13InvokeCountOfINS_11Group43Var3EEEvRKNS_12HeaderRecordEtRKNS_9NumParserERKN7openpal6RSliceERNS_12IAPDUHandlerE
	.type	_ZN8opendnp316CountIndexParser13InvokeCountOfINS_11Group43Var3EEEvRKNS_12HeaderRecordEtRKNS_9NumParserERKN7openpal6RSliceERNS_12IAPDUHandlerE, @function
_ZN8opendnp316CountIndexParser13InvokeCountOfINS_11Group43Var3EEEvRKNS_12HeaderRecordEtRKNS_9NumParserERKN7openpal6RSliceERNS_12IAPDUHandlerE:
.LFB3357:
	.cfi_startproc
	endbr64
	subq	$88, %rsp
	.cfi_def_cfa_offset 96
	movq	%rdi, %r9
	movdqu	(%rcx), %xmm0
	movq	%r8, %rdi
	movq	%fs:40, %rax
	movq	%rax, 72(%rsp)
	movq	_ZTVN8opendnp318BufferedCollectionINS_7IndexedINS_18AnalogCommandEventEEEZNS_16CountIndexParser13InvokeCountOfINS_11Group43Var3EEEvRKNS_12HeaderRecordEtRKNS_9NumParserERKN7openpal6RSliceERNS_12IAPDUHandlerEEUlRSE_jE_EE@GOTPCREL(%rip), %rax
	movdqu	(%r9), %xmm1
	movq	%rdx, 64(%rsp)
	leaq	32(%rsp), %rdx
	movw	%si, 16(%rsp)
	movups	%xmm0, 40(%rsp)
	movaps	%xmm1, (%rsp)
	addq	$16, %rax
	movq	%rax, 32(%rsp)
	movzwl	%si, %eax
	movq	%rsp, %rsi
	movq	%rax, 56(%rsp)
	call	_ZN8opendnp312IAPDUHandler8OnHeaderERKNS_12PrefixHeaderERKNS_11ICollectionINS_7IndexedINS_18AnalogCommandEventEEEEE@PLT
	movq	72(%rsp), %rax
	subq	%fs:40, %rax
	jne	.L228
	addq	$88, %rsp
	.cfi_remember_state
	.cfi_def_cfa_offset 8
	ret
.L228:
	.cfi_restore_state
	call	__stack_chk_fail@PLT
	.cfi_endproc
.LFE3357:
	.size	_ZN8opendnp316CountIndexParser13InvokeCountOfINS_11Group43Var3EEEvRKNS_12HeaderRecordEtRKNS_9NumParserERKN7openpal6RSliceERNS_12IAPDUHandlerE, .-_ZN8opendnp316CountIndexParser13InvokeCountOfINS_11Group43Var3EEEvRKNS_12HeaderRecordEtRKNS_9NumParserERKN7openpal6RSliceERNS_12IAPDUHandlerE
	.section	.text._ZN8opendnp316CountIndexParser13InvokeCountOfINS_11Group43Var4EEEvRKNS_12HeaderRecordEtRKNS_9NumParserERKN7openpal6RSliceERNS_12IAPDUHandlerE,"axG",@progbits,_ZN8opendnp316CountIndexParser13InvokeCountOfINS_11Group43Var4EEEvRKNS_12HeaderRecordEtRKNS_9NumParserERKN7openpal6RSliceERNS_12IAPDUHandlerE,comdat
	.align 2
	.p2align 4
	.weak	_ZN8opendnp316CountIndexParser13InvokeCountOfINS_11Group43Var4EEEvRKNS_12HeaderRecordEtRKNS_9NumParserERKN7openpal6RSliceERNS_12IAPDUHandlerE
	.type	_ZN8opendnp316CountIndexParser13InvokeCountOfINS_11Group43Var4EEEvRKNS_12HeaderRecordEtRKNS_9NumParserERKN7openpal6RSliceERNS_12IAPDUHandlerE, @function
_ZN8opendnp316CountIndexParser13InvokeCountOfINS_11Group43Var4EEEvRKNS_12HeaderRecordEtRKNS_9NumParserERKN7openpal6RSliceERNS_12IAPDUHandlerE:
.LFB3362:
	.cfi_startproc
	endbr64
	subq	$88, %rsp
	.cfi_def_cfa_offset 96
	movq	%rdi, %r9
	movdqu	(%rcx), %xmm0
	movq	%r8, %rdi
	movq	%fs:40, %rax
	movq	%rax, 72(%rsp)
	movq	_ZTVN8opendnp318BufferedCollectionINS_7IndexedINS_18AnalogCommandEventEEEZNS_16CountIndexParser13InvokeCountOfINS_11Group43Var4EEEvRKNS_12HeaderRecordEtRKNS_9NumParserERKN7openpal6RSliceERNS_12IAPDUHandlerEEUlRSE_jE_EE@GOTPCREL(%rip), %rax
	movdqu	(%r9), %xmm1
	movq	%rdx, 64(%rsp)
	leaq	32(%rsp), %rdx
	movw	%si, 16(%rsp)
	movups	%xmm0, 40(%rsp)
	movaps	%xmm1, (%rsp)
	addq	$16, %rax
	movq	%rax, 32(%rsp)
	movzwl	%si, %eax
	movq	%rsp, %rsi
	movq	%rax, 56(%rsp)
	call	_ZN8opendnp312IAPDUHandler8OnHeaderERKNS_12PrefixHeaderERKNS_11ICollectionINS_7IndexedINS_18AnalogCommandEventEEEEE@PLT
	movq	72(%rsp), %rax
	subq	%fs:40, %rax
	jne	.L232
	addq	$88, %rsp
	.cfi_remember_state
	.cfi_def_cfa_offset 8
	ret
.L232:
	.cfi_restore_state
	call	__stack_chk_fail@PLT
	.cfi_endproc
.LFE3362:
	.size	_ZN8opendnp316CountIndexParser13InvokeCountOfINS_11Group43Var4EEEvRKNS_12HeaderRecordEtRKNS_9NumParserERKN7openpal6RSliceERNS_12IAPDUHandlerE, .-_ZN8opendnp316CountIndexParser13InvokeCountOfINS_11Group43Var4EEEvRKNS_12HeaderRecordEtRKNS_9NumParserERKN7openpal6RSliceERNS_12IAPDUHandlerE
	.section	.text._ZN8opendnp316CountIndexParser13InvokeCountOfINS_11Group43Var5EEEvRKNS_12HeaderRecordEtRKNS_9NumParserERKN7openpal6RSliceERNS_12IAPDUHandlerE,"axG",@progbits,_ZN8opendnp316CountIndexParser13InvokeCountOfINS_11Group43Var5EEEvRKNS_12HeaderRecordEtRKNS_9NumParserERKN7openpal6RSliceERNS_12IAPDUHandlerE,comdat
	.align 2
	.p2align 4
	.weak	_ZN8opendnp316CountIndexParser13InvokeCountOfINS_11Group43Var5EEEvRKNS_12HeaderRecordEtRKNS_9NumParserERKN7openpal6RSliceERNS_12IAPDUHandlerE
	.type	_ZN8opendnp316CountIndexParser13InvokeCountOfINS_11Group43Var5EEEvRKNS_12HeaderRecordEtRKNS_9NumParserERKN7openpal6RSliceERNS_12IAPDUHandlerE, @function
_ZN8opendnp316CountIndexParser13InvokeCountOfINS_11Group43Var5EEEvRKNS_12HeaderRecordEtRKNS_9NumParserERKN7openpal6RSliceERNS_12IAPDUHandlerE:
.LFB3367:
	.cfi_startproc
	endbr64
	subq	$88, %rsp
	.cfi_def_cfa_offset 96
	movq	%rdi, %r9
	movdqu	(%rcx), %xmm0
	movq	%r8, %rdi
	movq	%fs:40, %rax
	movq	%rax, 72(%rsp)
	movq	_ZTVN8opendnp318BufferedCollectionINS_7IndexedINS_18AnalogCommandEventEEEZNS_16CountIndexParser13InvokeCountOfINS_11Group43Var5EEEvRKNS_12HeaderRecordEtRKNS_9NumParserERKN7openpal6RSliceERNS_12IAPDUHandlerEEUlRSE_jE_EE@GOTPCREL(%rip), %rax
	movdqu	(%r9), %xmm1
	movq	%rdx, 64(%rsp)
	leaq	32(%rsp), %rdx
	movw	%si, 16(%rsp)
	movups	%xmm0, 40(%rsp)
	movaps	%xmm1, (%rsp)
	addq	$16, %rax
	movq	%rax, 32(%rsp)
	movzwl	%si, %eax
	movq	%rsp, %rsi
	movq	%rax, 56(%rsp)
	call	_ZN8opendnp312IAPDUHandler8OnHeaderERKNS_12PrefixHeaderERKNS_11ICollectionINS_7IndexedINS_18AnalogCommandEventEEEEE@PLT
	movq	72(%rsp), %rax
	subq	%fs:40, %rax
	jne	.L236
	addq	$88, %rsp
	.cfi_remember_state
	.cfi_def_cfa_offset 8
	ret
.L236:
	.cfi_restore_state
	call	__stack_chk_fail@PLT
	.cfi_endproc
.LFE3367:
	.size	_ZN8opendnp316CountIndexParser13InvokeCountOfINS_11Group43Var5EEEvRKNS_12HeaderRecordEtRKNS_9NumParserERKN7openpal6RSliceERNS_12IAPDUHandlerE, .-_ZN8opendnp316CountIndexParser13InvokeCountOfINS_11Group43Var5EEEvRKNS_12HeaderRecordEtRKNS_9NumParserERKN7openpal6RSliceERNS_12IAPDUHandlerE
	.section	.text._ZN8opendnp316CountIndexParser13InvokeCountOfINS_11Group43Var6EEEvRKNS_12HeaderRecordEtRKNS_9NumParserERKN7openpal6RSliceERNS_12IAPDUHandlerE,"axG",@progbits,_ZN8opendnp316CountIndexParser13InvokeCountOfINS_11Group43Var6EEEvRKNS_12HeaderRecordEtRKNS_9NumParserERKN7openpal6RSliceERNS_12IAPDUHandlerE,comdat
	.align 2
	.p2align 4
	.weak	_ZN8opendnp316CountIndexParser13InvokeCountOfINS_11Group43Var6EEEvRKNS_12HeaderRecordEtRKNS_9NumParserERKN7openpal6RSliceERNS_12IAPDUHandlerE
	.type	_ZN8opendnp316CountIndexParser13InvokeCountOfINS_11Group43Var6EEEvRKNS_12HeaderRecordEtRKNS_9NumParserERKN7openpal6RSliceERNS_12IAPDUHandlerE, @function
_ZN8opendnp316CountIndexParser13InvokeCountOfINS_11Group43Var6EEEvRKNS_12HeaderRecordEtRKNS_9NumParserERKN7openpal6RSliceERNS_12IAPDUHandlerE:
.LFB3372:
	.cfi_startproc
	endbr64
	subq	$88, %rsp
	.cfi_def_cfa_offset 96
	movq	%rdi, %r9
	movdqu	(%rcx), %xmm0
	movq	%r8, %rdi
	movq	%fs:40, %rax
	movq	%rax, 72(%rsp)
	movq	_ZTVN8opendnp318BufferedCollectionINS_7IndexedINS_18AnalogCommandEventEEEZNS_16CountIndexParser13InvokeCountOfINS_11Group43Var6EEEvRKNS_12HeaderRecordEtRKNS_9NumParserERKN7openpal6RSliceERNS_12IAPDUHandlerEEUlRSE_jE_EE@GOTPCREL(%rip), %rax
	movdqu	(%r9), %xmm1
	movq	%rdx, 64(%rsp)
	leaq	32(%rsp), %rdx
	movw	%si, 16(%rsp)
	movups	%xmm0, 40(%rsp)
	movaps	%xmm1, (%rsp)
	addq	$16, %rax
	movq	%rax, 32(%rsp)
	movzwl	%si, %eax
	movq	%rsp, %rsi
	movq	%rax, 56(%rsp)
	call	_ZN8opendnp312IAPDUHandler8OnHeaderERKNS_12PrefixHeaderERKNS_11ICollectionINS_7IndexedINS_18AnalogCommandEventEEEEE@PLT
	movq	72(%rsp), %rax
	subq	%fs:40, %rax
	jne	.L240
	addq	$88, %rsp
	.cfi_remember_state
	.cfi_def_cfa_offset 8
	ret
.L240:
	.cfi_restore_state
	call	__stack_chk_fail@PLT
	.cfi_endproc
.LFE3372:
	.size	_ZN8opendnp316CountIndexParser13InvokeCountOfINS_11Group43Var6EEEvRKNS_12HeaderRecordEtRKNS_9NumParserERKN7openpal6RSliceERNS_12IAPDUHandlerE, .-_ZN8opendnp316CountIndexParser13InvokeCountOfINS_11Group43Var6EEEvRKNS_12HeaderRecordEtRKNS_9NumParserERKN7openpal6RSliceERNS_12IAPDUHandlerE
	.section	.text._ZN8opendnp316CountIndexParser13InvokeCountOfINS_11Group43Var7EEEvRKNS_12HeaderRecordEtRKNS_9NumParserERKN7openpal6RSliceERNS_12IAPDUHandlerE,"axG",@progbits,_ZN8opendnp316CountIndexParser13InvokeCountOfINS_11Group43Var7EEEvRKNS_12HeaderRecordEtRKNS_9NumParserERKN7openpal6RSliceERNS_12IAPDUHandlerE,comdat
	.align 2
	.p2align 4
	.weak	_ZN8opendnp316CountIndexParser13InvokeCountOfINS_11Group43Var7EEEvRKNS_12HeaderRecordEtRKNS_9NumParserERKN7openpal6RSliceERNS_12IAPDUHandlerE
	.type	_ZN8opendnp316CountIndexParser13InvokeCountOfINS_11Group43Var7EEEvRKNS_12HeaderRecordEtRKNS_9NumParserERKN7openpal6RSliceERNS_12IAPDUHandlerE, @function
_ZN8opendnp316CountIndexParser13InvokeCountOfINS_11Group43Var7EEEvRKNS_12HeaderRecordEtRKNS_9NumParserERKN7openpal6RSliceERNS_12IAPDUHandlerE:
.LFB3377:
	.cfi_startproc
	endbr64
	subq	$88, %rsp
	.cfi_def_cfa_offset 96
	movq	%rdi, %r9
	movdqu	(%rcx), %xmm0
	movq	%r8, %rdi
	movq	%fs:40, %rax
	movq	%rax, 72(%rsp)
	movq	_ZTVN8opendnp318BufferedCollectionINS_7IndexedINS_18AnalogCommandEventEEEZNS_16CountIndexParser13InvokeCountOfINS_11Group43Var7EEEvRKNS_12HeaderRecordEtRKNS_9NumParserERKN7openpal6RSliceERNS_12IAPDUHandlerEEUlRSE_jE_EE@GOTPCREL(%rip), %rax
	movdqu	(%r9), %xmm1
	movq	%rdx, 64(%rsp)
	leaq	32(%rsp), %rdx
	movw	%si, 16(%rsp)
	movups	%xmm0, 40(%rsp)
	movaps	%xmm1, (%rsp)
	addq	$16, %rax
	movq	%rax, 32(%rsp)
	movzwl	%si, %eax
	movq	%rsp, %rsi
	movq	%rax, 56(%rsp)
	call	_ZN8opendnp312IAPDUHandler8OnHeaderERKNS_12PrefixHeaderERKNS_11ICollectionINS_7IndexedINS_18AnalogCommandEventEEEEE@PLT
	movq	72(%rsp), %rax
	subq	%fs:40, %rax
	jne	.L244
	addq	$88, %rsp
	.cfi_remember_state
	.cfi_def_cfa_offset 8
	ret
.L244:
	.cfi_restore_state
	call	__stack_chk_fail@PLT
	.cfi_endproc
.LFE3377:
	.size	_ZN8opendnp316CountIndexParser13InvokeCountOfINS_11Group43Var7EEEvRKNS_12HeaderRecordEtRKNS_9NumParserERKN7openpal6RSliceERNS_12IAPDUHandlerE, .-_ZN8opendnp316CountIndexParser13InvokeCountOfINS_11Group43Var7EEEvRKNS_12HeaderRecordEtRKNS_9NumParserERKN7openpal6RSliceERNS_12IAPDUHandlerE
	.section	.text._ZN8opendnp316CountIndexParser13InvokeCountOfINS_11Group43Var8EEEvRKNS_12HeaderRecordEtRKNS_9NumParserERKN7openpal6RSliceERNS_12IAPDUHandlerE,"axG",@progbits,_ZN8opendnp316CountIndexParser13InvokeCountOfINS_11Group43Var8EEEvRKNS_12HeaderRecordEtRKNS_9NumParserERKN7openpal6RSliceERNS_12IAPDUHandlerE,comdat
	.align 2
	.p2align 4
	.weak	_ZN8opendnp316CountIndexParser13InvokeCountOfINS_11Group43Var8EEEvRKNS_12HeaderRecordEtRKNS_9NumParserERKN7openpal6RSliceERNS_12IAPDUHandlerE
	.type	_ZN8opendnp316CountIndexParser13InvokeCountOfINS_11Group43Var8EEEvRKNS_12HeaderRecordEtRKNS_9NumParserERKN7openpal6RSliceERNS_12IAPDUHandlerE, @function
_ZN8opendnp316CountIndexParser13InvokeCountOfINS_11Group43Var8EEEvRKNS_12HeaderRecordEtRKNS_9NumParserERKN7openpal6RSliceERNS_12IAPDUHandlerE:
.LFB3382:
	.cfi_startproc
	endbr64
	subq	$88, %rsp
	.cfi_def_cfa_offset 96
	movq	%rdi, %r9
	movdqu	(%rcx), %xmm0
	movq	%r8, %rdi
	movq	%fs:40, %rax
	movq	%rax, 72(%rsp)
	movq	_ZTVN8opendnp318BufferedCollectionINS_7IndexedINS_18AnalogCommandEventEEEZNS_16CountIndexParser13InvokeCountOfINS_11Group43Var8EEEvRKNS_12HeaderRecordEtRKNS_9NumParserERKN7openpal6RSliceERNS_12IAPDUHandlerEEUlRSE_jE_EE@GOTPCREL(%rip), %rax
	movdqu	(%r9), %xmm1
	movq	%rdx, 64(%rsp)
	leaq	32(%rsp), %rdx
	movw	%si, 16(%rsp)
	movups	%xmm0, 40(%rsp)
	movaps	%xmm1, (%rsp)
	addq	$16, %rax
	movq	%rax, 32(%rsp)
	movzwl	%si, %eax
	movq	%rsp, %rsi
	movq	%rax, 56(%rsp)
	call	_ZN8opendnp312IAPDUHandler8OnHeaderERKNS_12PrefixHeaderERKNS_11ICollectionINS_7IndexedINS_18AnalogCommandEventEEEEE@PLT
	movq	72(%rsp), %rax
	subq	%fs:40, %rax
	jne	.L248
	addq	$88, %rsp
	.cfi_remember_state
	.cfi_def_cfa_offset 8
	ret
.L248:
	.cfi_restore_state
	call	__stack_chk_fail@PLT
	.cfi_endproc
.LFE3382:
	.size	_ZN8opendnp316CountIndexParser13InvokeCountOfINS_11Group43Var8EEEvRKNS_12HeaderRecordEtRKNS_9NumParserERKN7openpal6RSliceERNS_12IAPDUHandlerE, .-_ZN8opendnp316CountIndexParser13InvokeCountOfINS_11Group43Var8EEEvRKNS_12HeaderRecordEtRKNS_9NumParserERKN7openpal6RSliceERNS_12IAPDUHandlerE
	.section	.text._ZN8opendnp316CountIndexParser13InvokeCountOfINS_11Group50Var4EEEvRKNS_12HeaderRecordEtRKNS_9NumParserERKN7openpal6RSliceERNS_12IAPDUHandlerE,"axG",@progbits,_ZN8opendnp316CountIndexParser13InvokeCountOfINS_11Group50Var4EEEvRKNS_12HeaderRecordEtRKNS_9NumParserERKN7openpal6RSliceERNS_12IAPDUHandlerE,comdat
	.align 2
	.p2align 4
	.weak	_ZN8opendnp316CountIndexParser13InvokeCountOfINS_11Group50Var4EEEvRKNS_12HeaderRecordEtRKNS_9NumParserERKN7openpal6RSliceERNS_12IAPDUHandlerE
	.type	_ZN8opendnp316CountIndexParser13InvokeCountOfINS_11Group50Var4EEEvRKNS_12HeaderRecordEtRKNS_9NumParserERKN7openpal6RSliceERNS_12IAPDUHandlerE, @function
_ZN8opendnp316CountIndexParser13InvokeCountOfINS_11Group50Var4EEEvRKNS_12HeaderRecordEtRKNS_9NumParserERKN7openpal6RSliceERNS_12IAPDUHandlerE:
.LFB3387:
	.cfi_startproc
	endbr64
	subq	$88, %rsp
	.cfi_def_cfa_offset 96
	movq	%rdi, %r9
	movdqu	(%rcx), %xmm0
	movq	%r8, %rdi
	movq	%fs:40, %rax
	movq	%rax, 72(%rsp)
	movq	_ZTVN8opendnp318BufferedCollectionINS_7IndexedINS_15TimeAndIntervalEEEZNS_16CountIndexParser13InvokeCountOfINS_11Group50Var4EEEvRKNS_12HeaderRecordEtRKNS_9NumParserERKN7openpal6RSliceERNS_12IAPDUHandlerEEUlRSE_jE_EE@GOTPCREL(%rip), %rax
	movdqu	(%r9), %xmm1
	movq	%rdx, 64(%rsp)
	leaq	32(%rsp), %rdx
	movw	%si, 16(%rsp)
	movups	%xmm0, 40(%rsp)
	movaps	%xmm1, (%rsp)
	addq	$16, %rax
	movq	%rax, 32(%rsp)
	movzwl	%si, %eax
	movq	%rsp, %rsi
	movq	%rax, 56(%rsp)
	call	_ZN8opendnp312IAPDUHandler8OnHeaderERKNS_12PrefixHeaderERKNS_11ICollectionINS_7IndexedINS_15TimeAndIntervalEEEEE@PLT
	movq	72(%rsp), %rax
	subq	%fs:40, %rax
	jne	.L252
	addq	$88, %rsp
	.cfi_remember_state
	.cfi_def_cfa_offset 8
	ret
.L252:
	.cfi_restore_state
	call	__stack_chk_fail@PLT
	.cfi_endproc
.LFE3387:
	.size	_ZN8opendnp316CountIndexParser13InvokeCountOfINS_11Group50Var4EEEvRKNS_12HeaderRecordEtRKNS_9NumParserERKN7openpal6RSliceERNS_12IAPDUHandlerE, .-_ZN8opendnp316CountIndexParser13InvokeCountOfINS_11Group50Var4EEEvRKNS_12HeaderRecordEtRKNS_9NumParserERKN7openpal6RSliceERNS_12IAPDUHandlerE
	.section	.text._ZN8opendnp316CountIndexParser17InvokeCountOfTypeINS_12Group122Var1EEEvRKNS_12HeaderRecordEtRKNS_9NumParserERKN7openpal6RSliceERNS_12IAPDUHandlerE,"axG",@progbits,_ZN8opendnp316CountIndexParser17InvokeCountOfTypeINS_12Group122Var1EEEvRKNS_12HeaderRecordEtRKNS_9NumParserERKN7openpal6RSliceERNS_12IAPDUHandlerE,comdat
	.align 2
	.p2align 4
	.weak	_ZN8opendnp316CountIndexParser17InvokeCountOfTypeINS_12Group122Var1EEEvRKNS_12HeaderRecordEtRKNS_9NumParserERKN7openpal6RSliceERNS_12IAPDUHandlerE
	.type	_ZN8opendnp316CountIndexParser17InvokeCountOfTypeINS_12Group122Var1EEEvRKNS_12HeaderRecordEtRKNS_9NumParserERKN7openpal6RSliceERNS_12IAPDUHandlerE, @function
_ZN8opendnp316CountIndexParser17InvokeCountOfTypeINS_12Group122Var1EEEvRKNS_12HeaderRecordEtRKNS_9NumParserERKN7openpal6RSliceERNS_12IAPDUHandlerE:
.LFB3395:
	.cfi_startproc
	endbr64
	subq	$88, %rsp
	.cfi_def_cfa_offset 96
	movq	%rdi, %r9
	movdqu	(%rcx), %xmm0
	movq	%r8, %rdi
	movq	%fs:40, %rax
	movq	%rax, 72(%rsp)
	movq	_ZTVN8opendnp318BufferedCollectionINS_7IndexedINS_12Group122Var1EEEZNS_16CountIndexParser17InvokeCountOfTypeIS2_EEvRKNS_12HeaderRecordEtRKNS_9NumParserERKN7openpal6RSliceERNS_12IAPDUHandlerEEUlRSD_jE_EE@GOTPCREL(%rip), %rax
	movdqu	(%r9), %xmm1
	movq	%rdx, 64(%rsp)
	leaq	32(%rsp), %rdx
	movw	%si, 16(%rsp)
	movups	%xmm0, 40(%rsp)
	movaps	%xmm1, (%rsp)
	addq	$16, %rax
	movq	%rax, 32(%rsp)
	movzwl	%si, %eax
	movq	%rsp, %rsi
	movq	%rax, 56(%rsp)
	call	_ZN8opendnp312IAPDUHandler8OnHeaderERKNS_12PrefixHeaderERKNS_11ICollectionINS_7IndexedINS_12Group122Var1EEEEE@PLT
	movq	72(%rsp), %rax
	subq	%fs:40, %rax
	jne	.L256
	addq	$88, %rsp
	.cfi_remember_state
	.cfi_def_cfa_offset 8
	ret
.L256:
	.cfi_restore_state
	call	__stack_chk_fail@PLT
	.cfi_endproc
.LFE3395:
	.size	_ZN8opendnp316CountIndexParser17InvokeCountOfTypeINS_12Group122Var1EEEvRKNS_12HeaderRecordEtRKNS_9NumParserERKN7openpal6RSliceERNS_12IAPDUHandlerE, .-_ZN8opendnp316CountIndexParser17InvokeCountOfTypeINS_12Group122Var1EEEvRKNS_12HeaderRecordEtRKNS_9NumParserERKN7openpal6RSliceERNS_12IAPDUHandlerE
	.section	.text._ZN8opendnp316CountIndexParser17InvokeCountOfTypeINS_12Group122Var2EEEvRKNS_12HeaderRecordEtRKNS_9NumParserERKN7openpal6RSliceERNS_12IAPDUHandlerE,"axG",@progbits,_ZN8opendnp316CountIndexParser17InvokeCountOfTypeINS_12Group122Var2EEEvRKNS_12HeaderRecordEtRKNS_9NumParserERKN7openpal6RSliceERNS_12IAPDUHandlerE,comdat
	.align 2
	.p2align 4
	.weak	_ZN8opendnp316CountIndexParser17InvokeCountOfTypeINS_12Group122Var2EEEvRKNS_12HeaderRecordEtRKNS_9NumParserERKN7openpal6RSliceERNS_12IAPDUHandlerE
	.type	_ZN8opendnp316CountIndexParser17InvokeCountOfTypeINS_12Group122Var2EEEvRKNS_12HeaderRecordEtRKNS_9NumParserERKN7openpal6RSliceERNS_12IAPDUHandlerE, @function
_ZN8opendnp316CountIndexParser17InvokeCountOfTypeINS_12Group122Var2EEEvRKNS_12HeaderRecordEtRKNS_9NumParserERKN7openpal6RSliceERNS_12IAPDUHandlerE:
.LFB3403:
	.cfi_startproc
	endbr64
	subq	$88, %rsp
	.cfi_def_cfa_offset 96
	movq	%rdi, %r9
	movdqu	(%rcx), %xmm0
	movq	%r8, %rdi
	movq	%fs:40, %rax
	movq	%rax, 72(%rsp)
	movq	_ZTVN8opendnp318BufferedCollectionINS_7IndexedINS_12Group122Var2EEEZNS_16CountIndexParser17InvokeCountOfTypeIS2_EEvRKNS_12HeaderRecordEtRKNS_9NumParserERKN7openpal6RSliceERNS_12IAPDUHandlerEEUlRSD_jE_EE@GOTPCREL(%rip), %rax
	movdqu	(%r9), %xmm1
	movq	%rdx, 64(%rsp)
	leaq	32(%rsp), %rdx
	movw	%si, 16(%rsp)
	movups	%xmm0, 40(%rsp)
	movaps	%xmm1, (%rsp)
	addq	$16, %rax
	movq	%rax, 32(%rsp)
	movzwl	%si, %eax
	movq	%rsp, %rsi
	movq	%rax, 56(%rsp)
	call	_ZN8opendnp312IAPDUHandler8OnHeaderERKNS_12PrefixHeaderERKNS_11ICollectionINS_7IndexedINS_12Group122Var2EEEEE@PLT
	movq	72(%rsp), %rax
	subq	%fs:40, %rax
	jne	.L260
	addq	$88, %rsp
	.cfi_remember_state
	.cfi_def_cfa_offset 8
	ret
.L260:
	.cfi_restore_state
	call	__stack_chk_fail@PLT
	.cfi_endproc
.LFE3403:
	.size	_ZN8opendnp316CountIndexParser17InvokeCountOfTypeINS_12Group122Var2EEEvRKNS_12HeaderRecordEtRKNS_9NumParserERKN7openpal6RSliceERNS_12IAPDUHandlerE, .-_ZN8opendnp316CountIndexParser17InvokeCountOfTypeINS_12Group122Var2EEEvRKNS_12HeaderRecordEtRKNS_9NumParserERKN7openpal6RSliceERNS_12IAPDUHandlerE
	.section	.text._ZN7openpal12StaticBufferILj255EED0Ev,"axG",@progbits,_ZN7openpal12StaticBufferILj255EED5Ev,comdat
	.align 2
	.p2align 4
	.weak	_ZN7openpal12StaticBufferILj255EED0Ev
	.type	_ZN7openpal12StaticBufferILj255EED0Ev, @function
_ZN7openpal12StaticBufferILj255EED0Ev:
.LFB2832:
	.cfi_startproc
	endbr64
	movl	$264, %esi
	jmp	_ZdlPvm@PLT
	.cfi_endproc
.LFE2832:
	.size	_ZN7openpal12StaticBufferILj255EED0Ev, .-_ZN7openpal12StaticBufferILj255EED0Ev
	.section	.text._ZNK8opendnp318BufferedCollectionINS_7IndexedINS_12Group122Var2EEEZNS_16CountIndexParser17InvokeCountOfTypeIS2_EEvRKNS_12HeaderRecordEtRKNS_9NumParserERKN7openpal6RSliceERNS_12IAPDUHandlerEEUlRSD_jE_E7ForeachERNS_8IVisitorIS3_EE,"axG",@progbits,_ZNK8opendnp318BufferedCollectionINS_7IndexedINS_12Group122Var2EEEZNS_16CountIndexParser17InvokeCountOfTypeIS2_EEvRKNS_12HeaderRecordEtRKNS_9NumParserERKN7openpal6RSliceERNS_12IAPDUHandlerEEUlRSD_jE_E7ForeachERNS_8IVisitorIS3_EE,comdat
	.align 2
	.p2align 4
	.weak	_ZNK8opendnp318BufferedCollectionINS_7IndexedINS_12Group122Var2EEEZNS_16CountIndexParser17InvokeCountOfTypeIS2_EEvRKNS_12HeaderRecordEtRKNS_9NumParserERKN7openpal6RSliceERNS_12IAPDUHandlerEEUlRSD_jE_E7ForeachERNS_8IVisitorIS3_EE
	.type	_ZNK8opendnp318BufferedCollectionINS_7IndexedINS_12Group122Var2EEEZNS_16CountIndexParser17InvokeCountOfTypeIS2_EEvRKNS_12HeaderRecordEtRKNS_9NumParserERKN7openpal6RSliceERNS_12IAPDUHandlerEEUlRSD_jE_E7ForeachERNS_8IVisitorIS3_EE, @function
_ZNK8opendnp318BufferedCollectionINS_7IndexedINS_12Group122Var2EEEZNS_16CountIndexParser17InvokeCountOfTypeIS2_EEvRKNS_12HeaderRecordEtRKNS_9NumParserERKN7openpal6RSliceERNS_12IAPDUHandlerEEUlRSD_jE_E7ForeachERNS_8IVisitorIS3_EE:
.LFB3981:
	.cfi_startproc
	endbr64
	pushq	%r15
	.cfi_def_cfa_offset 16
	.cfi_offset 15, -16
	pushq	%r14
	.cfi_def_cfa_offset 24
	.cfi_offset 14, -24
	pushq	%r13
	.cfi_def_cfa_offset 32
	.cfi_offset 13, -32
	pushq	%r12
	.cfi_def_cfa_offset 40
	.cfi_offset 12, -40
	pushq	%rbp
	.cfi_def_cfa_offset 48
	.cfi_offset 6, -48
	pushq	%rbx
	.cfi_def_cfa_offset 56
	.cfi_offset 3, -56
	subq	$56, %rsp
	.cfi_def_cfa_offset 112
	movdqu	8(%rdi), %xmm0
	movq	%fs:40, %rax
	movq	%rax, 40(%rsp)
	xorl	%eax, %eax
	cmpq	$0, 24(%rdi)
	movaps	%xmm0, (%rsp)
	je	.L262
	movq	%rdi, %r12
	movq	%rsi, %r13
	xorl	%ebp, %ebp
	movq	%rsp, %r14
	leaq	16(%rsp), %rbx
	.p2align 4,,10
	.p2align 3
.L264:
	movq	0(%r13), %rax
	movq	%rbx, %rdi
	movq	(%rax), %r15
	call	_ZN8opendnp312Group122Var2C1Ev@PLT
	movq	32(%r12), %rdi
	xorl	%eax, %eax
	movq	%r14, %rsi
	movw	%ax, 32(%rsp)
	call	_ZNK8opendnp39NumParser7ReadNumERN7openpal6RSliceE@PLT
	movq	%rbx, %rsi
	movq	%r14, %rdi
	movw	%ax, 32(%rsp)
	call	_ZN8opendnp312Group122Var24ReadERN7openpal6RSliceERS0_@PLT
	movq	%rbx, %rsi
	movq	%r13, %rdi
	call	*%r15
	leal	1(%rbp), %eax
	movq	%rax, %rbp
	cmpq	24(%r12), %rax
	jb	.L264
.L262:
	movq	40(%rsp), %rax
	subq	%fs:40, %rax
	jne	.L268
	addq	$56, %rsp
	.cfi_remember_state
	.cfi_def_cfa_offset 56
	popq	%rbx
	.cfi_def_cfa_offset 48
	popq	%rbp
	.cfi_def_cfa_offset 40
	popq	%r12
	.cfi_def_cfa_offset 32
	popq	%r13
	.cfi_def_cfa_offset 24
	popq	%r14
	.cfi_def_cfa_offset 16
	popq	%r15
	.cfi_def_cfa_offset 8
	ret
.L268:
	.cfi_restore_state
	call	__stack_chk_fail@PLT
	.cfi_endproc
.LFE3981:
	.size	_ZNK8opendnp318BufferedCollectionINS_7IndexedINS_12Group122Var2EEEZNS_16CountIndexParser17InvokeCountOfTypeIS2_EEvRKNS_12HeaderRecordEtRKNS_9NumParserERKN7openpal6RSliceERNS_12IAPDUHandlerEEUlRSD_jE_E7ForeachERNS_8IVisitorIS3_EE, .-_ZNK8opendnp318BufferedCollectionINS_7IndexedINS_12Group122Var2EEEZNS_16CountIndexParser17InvokeCountOfTypeIS2_EEvRKNS_12HeaderRecordEtRKNS_9NumParserERKN7openpal6RSliceERNS_12IAPDUHandlerEEUlRSD_jE_E7ForeachERNS_8IVisitorIS3_EE
	.section	.text._ZNK8opendnp318BufferedCollectionINS_7IndexedINS_12Group122Var1EEEZNS_16CountIndexParser17InvokeCountOfTypeIS2_EEvRKNS_12HeaderRecordEtRKNS_9NumParserERKN7openpal6RSliceERNS_12IAPDUHandlerEEUlRSD_jE_E7ForeachERNS_8IVisitorIS3_EE,"axG",@progbits,_ZNK8opendnp318BufferedCollectionINS_7IndexedINS_12Group122Var1EEEZNS_16CountIndexParser17InvokeCountOfTypeIS2_EEvRKNS_12HeaderRecordEtRKNS_9NumParserERKN7openpal6RSliceERNS_12IAPDUHandlerEEUlRSD_jE_E7ForeachERNS_8IVisitorIS3_EE,comdat
	.align 2
	.p2align 4
	.weak	_ZNK8opendnp318BufferedCollectionINS_7IndexedINS_12Group122Var1EEEZNS_16CountIndexParser17InvokeCountOfTypeIS2_EEvRKNS_12HeaderRecordEtRKNS_9NumParserERKN7openpal6RSliceERNS_12IAPDUHandlerEEUlRSD_jE_E7ForeachERNS_8IVisitorIS3_EE
	.type	_ZNK8opendnp318BufferedCollectionINS_7IndexedINS_12Group122Var1EEEZNS_16CountIndexParser17InvokeCountOfTypeIS2_EEvRKNS_12HeaderRecordEtRKNS_9NumParserERKN7openpal6RSliceERNS_12IAPDUHandlerEEUlRSD_jE_E7ForeachERNS_8IVisitorIS3_EE, @function
_ZNK8opendnp318BufferedCollectionINS_7IndexedINS_12Group122Var1EEEZNS_16CountIndexParser17InvokeCountOfTypeIS2_EEvRKNS_12HeaderRecordEtRKNS_9NumParserERKN7openpal6RSliceERNS_12IAPDUHandlerEEUlRSD_jE_E7ForeachERNS_8IVisitorIS3_EE:
.LFB3983:
	.cfi_startproc
	endbr64
	pushq	%r15
	.cfi_def_cfa_offset 16
	.cfi_offset 15, -16
	pushq	%r14
	.cfi_def_cfa_offset 24
	.cfi_offset 14, -24
	pushq	%r13
	.cfi_def_cfa_offset 32
	.cfi_offset 13, -32
	pushq	%r12
	.cfi_def_cfa_offset 40
	.cfi_offset 12, -40
	pushq	%rbp
	.cfi_def_cfa_offset 48
	.cfi_offset 6, -48
	pushq	%rbx
	.cfi_def_cfa_offset 56
	.cfi_offset 3, -56
	subq	$56, %rsp
	.cfi_def_cfa_offset 112
	movdqu	8(%rdi), %xmm0
	movq	%fs:40, %rax
	movq	%rax, 40(%rsp)
	xorl	%eax, %eax
	cmpq	$0, 24(%rdi)
	movaps	%xmm0, 16(%rsp)
	je	.L269
	movq	%rdi, %r12
	movq	%rsi, %r13
	leaq	4(%rsp), %rbx
	xorl	%ebp, %ebp
	leaq	16(%rsp), %r14
	.p2align 4,,10
	.p2align 3
.L271:
	movq	0(%r13), %rax
	movq	%rbx, %rdi
	movq	(%rax), %r15
	call	_ZN8opendnp312Group122Var1C1Ev@PLT
	movq	32(%r12), %rdi
	xorl	%eax, %eax
	movq	%r14, %rsi
	movw	%ax, 12(%rsp)
	call	_ZNK8opendnp39NumParser7ReadNumERN7openpal6RSliceE@PLT
	movq	%rbx, %rsi
	movq	%r14, %rdi
	movw	%ax, 12(%rsp)
	call	_ZN8opendnp312Group122Var14ReadERN7openpal6RSliceERS0_@PLT
	movq	%rbx, %rsi
	movq	%r13, %rdi
	call	*%r15
	leal	1(%rbp), %eax
	movq	%rax, %rbp
	cmpq	24(%r12), %rax
	jb	.L271
.L269:
	movq	40(%rsp), %rax
	subq	%fs:40, %rax
	jne	.L275
	addq	$56, %rsp
	.cfi_remember_state
	.cfi_def_cfa_offset 56
	popq	%rbx
	.cfi_def_cfa_offset 48
	popq	%rbp
	.cfi_def_cfa_offset 40
	popq	%r12
	.cfi_def_cfa_offset 32
	popq	%r13
	.cfi_def_cfa_offset 24
	popq	%r14
	.cfi_def_cfa_offset 16
	popq	%r15
	.cfi_def_cfa_offset 8
	ret
.L275:
	.cfi_restore_state
	call	__stack_chk_fail@PLT
	.cfi_endproc
.LFE3983:
	.size	_ZNK8opendnp318BufferedCollectionINS_7IndexedINS_12Group122Var1EEEZNS_16CountIndexParser17InvokeCountOfTypeIS2_EEvRKNS_12HeaderRecordEtRKNS_9NumParserERKN7openpal6RSliceERNS_12IAPDUHandlerEEUlRSD_jE_E7ForeachERNS_8IVisitorIS3_EE, .-_ZNK8opendnp318BufferedCollectionINS_7IndexedINS_12Group122Var1EEEZNS_16CountIndexParser17InvokeCountOfTypeIS2_EEvRKNS_12HeaderRecordEtRKNS_9NumParserERKN7openpal6RSliceERNS_12IAPDUHandlerEEUlRSD_jE_E7ForeachERNS_8IVisitorIS3_EE
	.section	.text._ZNK8opendnp318BufferedCollectionINS_7IndexedINS_15TimeAndIntervalEEEZNS_16CountIndexParser13InvokeCountOfINS_11Group50Var4EEEvRKNS_12HeaderRecordEtRKNS_9NumParserERKN7openpal6RSliceERNS_12IAPDUHandlerEEUlRSE_jE_E7ForeachERNS_8IVisitorIS3_EE,"axG",@progbits,_ZNK8opendnp318BufferedCollectionINS_7IndexedINS_15TimeAndIntervalEEEZNS_16CountIndexParser13InvokeCountOfINS_11Group50Var4EEEvRKNS_12HeaderRecordEtRKNS_9NumParserERKN7openpal6RSliceERNS_12IAPDUHandlerEEUlRSE_jE_E7ForeachERNS_8IVisitorIS3_EE,comdat
	.align 2
	.p2align 4
	.weak	_ZNK8opendnp318BufferedCollectionINS_7IndexedINS_15TimeAndIntervalEEEZNS_16CountIndexParser13InvokeCountOfINS_11Group50Var4EEEvRKNS_12HeaderRecordEtRKNS_9NumParserERKN7openpal6RSliceERNS_12IAPDUHandlerEEUlRSE_jE_E7ForeachERNS_8IVisitorIS3_EE
	.type	_ZNK8opendnp318BufferedCollectionINS_7IndexedINS_15TimeAndIntervalEEEZNS_16CountIndexParser13InvokeCountOfINS_11Group50Var4EEEvRKNS_12HeaderRecordEtRKNS_9NumParserERKN7openpal6RSliceERNS_12IAPDUHandlerEEUlRSE_jE_E7ForeachERNS_8IVisitorIS3_EE, @function
_ZNK8opendnp318BufferedCollectionINS_7IndexedINS_15TimeAndIntervalEEEZNS_16CountIndexParser13InvokeCountOfINS_11Group50Var4EEEvRKNS_12HeaderRecordEtRKNS_9NumParserERKN7openpal6RSliceERNS_12IAPDUHandlerEEUlRSE_jE_E7ForeachERNS_8IVisitorIS3_EE:
.LFB3985:
	.cfi_startproc
	endbr64
	pushq	%r15
	.cfi_def_cfa_offset 16
	.cfi_offset 15, -16
	pushq	%r14
	.cfi_def_cfa_offset 24
	.cfi_offset 14, -24
	pushq	%r13
	.cfi_def_cfa_offset 32
	.cfi_offset 13, -32
	pushq	%r12
	.cfi_def_cfa_offset 40
	.cfi_offset 12, -40
	pushq	%rbp
	.cfi_def_cfa_offset 48
	.cfi_offset 6, -48
	pushq	%rbx
	.cfi_def_cfa_offset 56
	.cfi_offset 3, -56
	subq	$56, %rsp
	.cfi_def_cfa_offset 112
	movdqu	8(%rdi), %xmm0
	movq	%fs:40, %rax
	movq	%rax, 40(%rsp)
	xorl	%eax, %eax
	cmpq	$0, 24(%rdi)
	movaps	%xmm0, (%rsp)
	je	.L276
	movq	%rdi, %r12
	movq	%rsi, %r13
	xorl	%ebp, %ebp
	movq	%rsp, %r14
	leaq	16(%rsp), %rbx
	.p2align 4,,10
	.p2align 3
.L278:
	movq	0(%r13), %rax
	movq	%rbx, %rdi
	movq	(%rax), %r15
	call	_ZN8opendnp315TimeAndIntervalC1Ev@PLT
	movq	32(%r12), %rdi
	xorl	%eax, %eax
	movq	%r14, %rsi
	movw	%ax, 32(%rsp)
	call	_ZNK8opendnp39NumParser7ReadNumERN7openpal6RSliceE@PLT
	movq	%rbx, %rsi
	movq	%r14, %rdi
	movw	%ax, 32(%rsp)
	call	_ZN8opendnp311Group50Var410ReadTargetERN7openpal6RSliceERNS_15TimeAndIntervalE@PLT
	movq	%rbx, %rsi
	movq	%r13, %rdi
	call	*%r15
	leal	1(%rbp), %eax
	movq	%rax, %rbp
	cmpq	24(%r12), %rax
	jb	.L278
.L276:
	movq	40(%rsp), %rax
	subq	%fs:40, %rax
	jne	.L282
	addq	$56, %rsp
	.cfi_remember_state
	.cfi_def_cfa_offset 56
	popq	%rbx
	.cfi_def_cfa_offset 48
	popq	%rbp
	.cfi_def_cfa_offset 40
	popq	%r12
	.cfi_def_cfa_offset 32
	popq	%r13
	.cfi_def_cfa_offset 24
	popq	%r14
	.cfi_def_cfa_offset 16
	popq	%r15
	.cfi_def_cfa_offset 8
	ret
.L282:
	.cfi_restore_state
	call	__stack_chk_fail@PLT
	.cfi_endproc
.LFE3985:
	.size	_ZNK8opendnp318BufferedCollectionINS_7IndexedINS_15TimeAndIntervalEEEZNS_16CountIndexParser13InvokeCountOfINS_11Group50Var4EEEvRKNS_12HeaderRecordEtRKNS_9NumParserERKN7openpal6RSliceERNS_12IAPDUHandlerEEUlRSE_jE_E7ForeachERNS_8IVisitorIS3_EE, .-_ZNK8opendnp318BufferedCollectionINS_7IndexedINS_15TimeAndIntervalEEEZNS_16CountIndexParser13InvokeCountOfINS_11Group50Var4EEEvRKNS_12HeaderRecordEtRKNS_9NumParserERKN7openpal6RSliceERNS_12IAPDUHandlerEEUlRSE_jE_E7ForeachERNS_8IVisitorIS3_EE
	.section	.text._ZNK8opendnp318BufferedCollectionINS_7IndexedINS_18AnalogCommandEventEEEZNS_16CountIndexParser13InvokeCountOfINS_11Group43Var8EEEvRKNS_12HeaderRecordEtRKNS_9NumParserERKN7openpal6RSliceERNS_12IAPDUHandlerEEUlRSE_jE_E7ForeachERNS_8IVisitorIS3_EE,"axG",@progbits,_ZNK8opendnp318BufferedCollectionINS_7IndexedINS_18AnalogCommandEventEEEZNS_16CountIndexParser13InvokeCountOfINS_11Group43Var8EEEvRKNS_12HeaderRecordEtRKNS_9NumParserERKN7openpal6RSliceERNS_12IAPDUHandlerEEUlRSE_jE_E7ForeachERNS_8IVisitorIS3_EE,comdat
	.align 2
	.p2align 4
	.weak	_ZNK8opendnp318BufferedCollectionINS_7IndexedINS_18AnalogCommandEventEEEZNS_16CountIndexParser13InvokeCountOfINS_11Group43Var8EEEvRKNS_12HeaderRecordEtRKNS_9NumParserERKN7openpal6RSliceERNS_12IAPDUHandlerEEUlRSE_jE_E7ForeachERNS_8IVisitorIS3_EE
	.type	_ZNK8opendnp318BufferedCollectionINS_7IndexedINS_18AnalogCommandEventEEEZNS_16CountIndexParser13InvokeCountOfINS_11Group43Var8EEEvRKNS_12HeaderRecordEtRKNS_9NumParserERKN7openpal6RSliceERNS_12IAPDUHandlerEEUlRSE_jE_E7ForeachERNS_8IVisitorIS3_EE, @function
_ZNK8opendnp318BufferedCollectionINS_7IndexedINS_18AnalogCommandEventEEEZNS_16CountIndexParser13InvokeCountOfINS_11Group43Var8EEEvRKNS_12HeaderRecordEtRKNS_9NumParserERKN7openpal6RSliceERNS_12IAPDUHandlerEEUlRSE_jE_E7ForeachERNS_8IVisitorIS3_EE:
.LFB3987:
	.cfi_startproc
	endbr64
	pushq	%r15
	.cfi_def_cfa_offset 16
	.cfi_offset 15, -16
	pushq	%r14
	.cfi_def_cfa_offset 24
	.cfi_offset 14, -24
	pushq	%r13
	.cfi_def_cfa_offset 32
	.cfi_offset 13, -32
	pushq	%r12
	.cfi_def_cfa_offset 40
	.cfi_offset 12, -40
	pushq	%rbp
	.cfi_def_cfa_offset 48
	.cfi_offset 6, -48
	pushq	%rbx
	.cfi_def_cfa_offset 56
	.cfi_offset 3, -56
	subq	$72, %rsp
	.cfi_def_cfa_offset 128
	movdqu	8(%rdi), %xmm0
	movq	%fs:40, %rax
	movq	%rax, 56(%rsp)
	xorl	%eax, %eax
	cmpq	$0, 24(%rdi)
	movaps	%xmm0, (%rsp)
	je	.L283
	movq	%rdi, %r12
	movq	%rsi, %r13
	xorl	%ebp, %ebp
	movq	%rsp, %r14
	leaq	16(%rsp), %rbx
	.p2align 4,,10
	.p2align 3
.L285:
	movq	0(%r13), %rax
	movq	%rbx, %rdi
	movq	(%rax), %r15
	call	_ZN8opendnp318AnalogCommandEventC1Ev@PLT
	movq	32(%r12), %rdi
	xorl	%eax, %eax
	movq	%r14, %rsi
	movw	%ax, 40(%rsp)
	call	_ZNK8opendnp39NumParser7ReadNumERN7openpal6RSliceE@PLT
	movq	%rbx, %rsi
	movq	%r14, %rdi
	movw	%ax, 40(%rsp)
	call	_ZN8opendnp311Group43Var810ReadTargetERN7openpal6RSliceERNS_18AnalogCommandEventE@PLT
	movq	%rbx, %rsi
	movq	%r13, %rdi
	call	*%r15
	leal	1(%rbp), %eax
	movq	%rax, %rbp
	cmpq	24(%r12), %rax
	jb	.L285
.L283:
	movq	56(%rsp), %rax
	subq	%fs:40, %rax
	jne	.L289
	addq	$72, %rsp
	.cfi_remember_state
	.cfi_def_cfa_offset 56
	popq	%rbx
	.cfi_def_cfa_offset 48
	popq	%rbp
	.cfi_def_cfa_offset 40
	popq	%r12
	.cfi_def_cfa_offset 32
	popq	%r13
	.cfi_def_cfa_offset 24
	popq	%r14
	.cfi_def_cfa_offset 16
	popq	%r15
	.cfi_def_cfa_offset 8
	ret
.L289:
	.cfi_restore_state
	call	__stack_chk_fail@PLT
	.cfi_endproc
.LFE3987:
	.size	_ZNK8opendnp318BufferedCollectionINS_7IndexedINS_18AnalogCommandEventEEEZNS_16CountIndexParser13InvokeCountOfINS_11Group43Var8EEEvRKNS_12HeaderRecordEtRKNS_9NumParserERKN7openpal6RSliceERNS_12IAPDUHandlerEEUlRSE_jE_E7ForeachERNS_8IVisitorIS3_EE, .-_ZNK8opendnp318BufferedCollectionINS_7IndexedINS_18AnalogCommandEventEEEZNS_16CountIndexParser13InvokeCountOfINS_11Group43Var8EEEvRKNS_12HeaderRecordEtRKNS_9NumParserERKN7openpal6RSliceERNS_12IAPDUHandlerEEUlRSE_jE_E7ForeachERNS_8IVisitorIS3_EE
	.section	.text._ZNK8opendnp318BufferedCollectionINS_7IndexedINS_18AnalogCommandEventEEEZNS_16CountIndexParser13InvokeCountOfINS_11Group43Var7EEEvRKNS_12HeaderRecordEtRKNS_9NumParserERKN7openpal6RSliceERNS_12IAPDUHandlerEEUlRSE_jE_E7ForeachERNS_8IVisitorIS3_EE,"axG",@progbits,_ZNK8opendnp318BufferedCollectionINS_7IndexedINS_18AnalogCommandEventEEEZNS_16CountIndexParser13InvokeCountOfINS_11Group43Var7EEEvRKNS_12HeaderRecordEtRKNS_9NumParserERKN7openpal6RSliceERNS_12IAPDUHandlerEEUlRSE_jE_E7ForeachERNS_8IVisitorIS3_EE,comdat
	.align 2
	.p2align 4
	.weak	_ZNK8opendnp318BufferedCollectionINS_7IndexedINS_18AnalogCommandEventEEEZNS_16CountIndexParser13InvokeCountOfINS_11Group43Var7EEEvRKNS_12HeaderRecordEtRKNS_9NumParserERKN7openpal6RSliceERNS_12IAPDUHandlerEEUlRSE_jE_E7ForeachERNS_8IVisitorIS3_EE
	.type	_ZNK8opendnp318BufferedCollectionINS_7IndexedINS_18AnalogCommandEventEEEZNS_16CountIndexParser13InvokeCountOfINS_11Group43Var7EEEvRKNS_12HeaderRecordEtRKNS_9NumParserERKN7openpal6RSliceERNS_12IAPDUHandlerEEUlRSE_jE_E7ForeachERNS_8IVisitorIS3_EE, @function
_ZNK8opendnp318BufferedCollectionINS_7IndexedINS_18AnalogCommandEventEEEZNS_16CountIndexParser13InvokeCountOfINS_11Group43Var7EEEvRKNS_12HeaderRecordEtRKNS_9NumParserERKN7openpal6RSliceERNS_12IAPDUHandlerEEUlRSE_jE_E7ForeachERNS_8IVisitorIS3_EE:
.LFB3989:
	.cfi_startproc
	endbr64
	pushq	%r15
	.cfi_def_cfa_offset 16
	.cfi_offset 15, -16
	pushq	%r14
	.cfi_def_cfa_offset 24
	.cfi_offset 14, -24
	pushq	%r13
	.cfi_def_cfa_offset 32
	.cfi_offset 13, -32
	pushq	%r12
	.cfi_def_cfa_offset 40
	.cfi_offset 12, -40
	pushq	%rbp
	.cfi_def_cfa_offset 48
	.cfi_offset 6, -48
	pushq	%rbx
	.cfi_def_cfa_offset 56
	.cfi_offset 3, -56
	subq	$72, %rsp
	.cfi_def_cfa_offset 128
	movdqu	8(%rdi), %xmm0
	movq	%fs:40, %rax
	movq	%rax, 56(%rsp)
	xorl	%eax, %eax
	cmpq	$0, 24(%rdi)
	movaps	%xmm0, (%rsp)
	je	.L290
	movq	%rdi, %r12
	movq	%rsi, %r13
	xorl	%ebp, %ebp
	movq	%rsp, %r14
	leaq	16(%rsp), %rbx
	.p2align 4,,10
	.p2align 3
.L292:
	movq	0(%r13), %rax
	movq	%rbx, %rdi
	movq	(%rax), %r15
	call	_ZN8opendnp318AnalogCommandEventC1Ev@PLT
	movq	32(%r12), %rdi
	xorl	%eax, %eax
	movq	%r14, %rsi
	movw	%ax, 40(%rsp)
	call	_ZNK8opendnp39NumParser7ReadNumERN7openpal6RSliceE@PLT
	movq	%rbx, %rsi
	movq	%r14, %rdi
	movw	%ax, 40(%rsp)
	call	_ZN8opendnp311Group43Var710ReadTargetERN7openpal6RSliceERNS_18AnalogCommandEventE@PLT
	movq	%rbx, %rsi
	movq	%r13, %rdi
	call	*%r15
	leal	1(%rbp), %eax
	movq	%rax, %rbp
	cmpq	24(%r12), %rax
	jb	.L292
.L290:
	movq	56(%rsp), %rax
	subq	%fs:40, %rax
	jne	.L296
	addq	$72, %rsp
	.cfi_remember_state
	.cfi_def_cfa_offset 56
	popq	%rbx
	.cfi_def_cfa_offset 48
	popq	%rbp
	.cfi_def_cfa_offset 40
	popq	%r12
	.cfi_def_cfa_offset 32
	popq	%r13
	.cfi_def_cfa_offset 24
	popq	%r14
	.cfi_def_cfa_offset 16
	popq	%r15
	.cfi_def_cfa_offset 8
	ret
.L296:
	.cfi_restore_state
	call	__stack_chk_fail@PLT
	.cfi_endproc
.LFE3989:
	.size	_ZNK8opendnp318BufferedCollectionINS_7IndexedINS_18AnalogCommandEventEEEZNS_16CountIndexParser13InvokeCountOfINS_11Group43Var7EEEvRKNS_12HeaderRecordEtRKNS_9NumParserERKN7openpal6RSliceERNS_12IAPDUHandlerEEUlRSE_jE_E7ForeachERNS_8IVisitorIS3_EE, .-_ZNK8opendnp318BufferedCollectionINS_7IndexedINS_18AnalogCommandEventEEEZNS_16CountIndexParser13InvokeCountOfINS_11Group43Var7EEEvRKNS_12HeaderRecordEtRKNS_9NumParserERKN7openpal6RSliceERNS_12IAPDUHandlerEEUlRSE_jE_E7ForeachERNS_8IVisitorIS3_EE
	.section	.text._ZNK8opendnp318BufferedCollectionINS_7IndexedINS_18AnalogCommandEventEEEZNS_16CountIndexParser13InvokeCountOfINS_11Group43Var6EEEvRKNS_12HeaderRecordEtRKNS_9NumParserERKN7openpal6RSliceERNS_12IAPDUHandlerEEUlRSE_jE_E7ForeachERNS_8IVisitorIS3_EE,"axG",@progbits,_ZNK8opendnp318BufferedCollectionINS_7IndexedINS_18AnalogCommandEventEEEZNS_16CountIndexParser13InvokeCountOfINS_11Group43Var6EEEvRKNS_12HeaderRecordEtRKNS_9NumParserERKN7openpal6RSliceERNS_12IAPDUHandlerEEUlRSE_jE_E7ForeachERNS_8IVisitorIS3_EE,comdat
	.align 2
	.p2align 4
	.weak	_ZNK8opendnp318BufferedCollectionINS_7IndexedINS_18AnalogCommandEventEEEZNS_16CountIndexParser13InvokeCountOfINS_11Group43Var6EEEvRKNS_12HeaderRecordEtRKNS_9NumParserERKN7openpal6RSliceERNS_12IAPDUHandlerEEUlRSE_jE_E7ForeachERNS_8IVisitorIS3_EE
	.type	_ZNK8opendnp318BufferedCollectionINS_7IndexedINS_18AnalogCommandEventEEEZNS_16CountIndexParser13InvokeCountOfINS_11Group43Var6EEEvRKNS_12HeaderRecordEtRKNS_9NumParserERKN7openpal6RSliceERNS_12IAPDUHandlerEEUlRSE_jE_E7ForeachERNS_8IVisitorIS3_EE, @function
_ZNK8opendnp318BufferedCollectionINS_7IndexedINS_18AnalogCommandEventEEEZNS_16CountIndexParser13InvokeCountOfINS_11Group43Var6EEEvRKNS_12HeaderRecordEtRKNS_9NumParserERKN7openpal6RSliceERNS_12IAPDUHandlerEEUlRSE_jE_E7ForeachERNS_8IVisitorIS3_EE:
.LFB3991:
	.cfi_startproc
	endbr64
	pushq	%r15
	.cfi_def_cfa_offset 16
	.cfi_offset 15, -16
	pushq	%r14
	.cfi_def_cfa_offset 24
	.cfi_offset 14, -24
	pushq	%r13
	.cfi_def_cfa_offset 32
	.cfi_offset 13, -32
	pushq	%r12
	.cfi_def_cfa_offset 40
	.cfi_offset 12, -40
	pushq	%rbp
	.cfi_def_cfa_offset 48
	.cfi_offset 6, -48
	pushq	%rbx
	.cfi_def_cfa_offset 56
	.cfi_offset 3, -56
	subq	$72, %rsp
	.cfi_def_cfa_offset 128
	movdqu	8(%rdi), %xmm0
	movq	%fs:40, %rax
	movq	%rax, 56(%rsp)
	xorl	%eax, %eax
	cmpq	$0, 24(%rdi)
	movaps	%xmm0, (%rsp)
	je	.L297
	movq	%rdi, %r12
	movq	%rsi, %r13
	xorl	%ebp, %ebp
	movq	%rsp, %r14
	leaq	16(%rsp), %rbx
	.p2align 4,,10
	.p2align 3
.L299:
	movq	0(%r13), %rax
	movq	%rbx, %rdi
	movq	(%rax), %r15
	call	_ZN8opendnp318AnalogCommandEventC1Ev@PLT
	movq	32(%r12), %rdi
	xorl	%eax, %eax
	movq	%r14, %rsi
	movw	%ax, 40(%rsp)
	call	_ZNK8opendnp39NumParser7ReadNumERN7openpal6RSliceE@PLT
	movq	%rbx, %rsi
	movq	%r14, %rdi
	movw	%ax, 40(%rsp)
	call	_ZN8opendnp311Group43Var610ReadTargetERN7openpal6RSliceERNS_18AnalogCommandEventE@PLT
	movq	%rbx, %rsi
	movq	%r13, %rdi
	call	*%r15
	leal	1(%rbp), %eax
	movq	%rax, %rbp
	cmpq	24(%r12), %rax
	jb	.L299
.L297:
	movq	56(%rsp), %rax
	subq	%fs:40, %rax
	jne	.L303
	addq	$72, %rsp
	.cfi_remember_state
	.cfi_def_cfa_offset 56
	popq	%rbx
	.cfi_def_cfa_offset 48
	popq	%rbp
	.cfi_def_cfa_offset 40
	popq	%r12
	.cfi_def_cfa_offset 32
	popq	%r13
	.cfi_def_cfa_offset 24
	popq	%r14
	.cfi_def_cfa_offset 16
	popq	%r15
	.cfi_def_cfa_offset 8
	ret
.L303:
	.cfi_restore_state
	call	__stack_chk_fail@PLT
	.cfi_endproc
.LFE3991:
	.size	_ZNK8opendnp318BufferedCollectionINS_7IndexedINS_18AnalogCommandEventEEEZNS_16CountIndexParser13InvokeCountOfINS_11Group43Var6EEEvRKNS_12HeaderRecordEtRKNS_9NumParserERKN7openpal6RSliceERNS_12IAPDUHandlerEEUlRSE_jE_E7ForeachERNS_8IVisitorIS3_EE, .-_ZNK8opendnp318BufferedCollectionINS_7IndexedINS_18AnalogCommandEventEEEZNS_16CountIndexParser13InvokeCountOfINS_11Group43Var6EEEvRKNS_12HeaderRecordEtRKNS_9NumParserERKN7openpal6RSliceERNS_12IAPDUHandlerEEUlRSE_jE_E7ForeachERNS_8IVisitorIS3_EE
	.section	.text._ZNK8opendnp318BufferedCollectionINS_7IndexedINS_18AnalogCommandEventEEEZNS_16CountIndexParser13InvokeCountOfINS_11Group43Var5EEEvRKNS_12HeaderRecordEtRKNS_9NumParserERKN7openpal6RSliceERNS_12IAPDUHandlerEEUlRSE_jE_E7ForeachERNS_8IVisitorIS3_EE,"axG",@progbits,_ZNK8opendnp318BufferedCollectionINS_7IndexedINS_18AnalogCommandEventEEEZNS_16CountIndexParser13InvokeCountOfINS_11Group43Var5EEEvRKNS_12HeaderRecordEtRKNS_9NumParserERKN7openpal6RSliceERNS_12IAPDUHandlerEEUlRSE_jE_E7ForeachERNS_8IVisitorIS3_EE,comdat
	.align 2
	.p2align 4
	.weak	_ZNK8opendnp318BufferedCollectionINS_7IndexedINS_18AnalogCommandEventEEEZNS_16CountIndexParser13InvokeCountOfINS_11Group43Var5EEEvRKNS_12HeaderRecordEtRKNS_9NumParserERKN7openpal6RSliceERNS_12IAPDUHandlerEEUlRSE_jE_E7ForeachERNS_8IVisitorIS3_EE
	.type	_ZNK8opendnp318BufferedCollectionINS_7IndexedINS_18AnalogCommandEventEEEZNS_16CountIndexParser13InvokeCountOfINS_11Group43Var5EEEvRKNS_12HeaderRecordEtRKNS_9NumParserERKN7openpal6RSliceERNS_12IAPDUHandlerEEUlRSE_jE_E7ForeachERNS_8IVisitorIS3_EE, @function
_ZNK8opendnp318BufferedCollectionINS_7IndexedINS_18AnalogCommandEventEEEZNS_16CountIndexParser13InvokeCountOfINS_11Group43Var5EEEvRKNS_12HeaderRecordEtRKNS_9NumParserERKN7openpal6RSliceERNS_12IAPDUHandlerEEUlRSE_jE_E7ForeachERNS_8IVisitorIS3_EE:
.LFB3993:
	.cfi_startproc
	endbr64
	pushq	%r15
	.cfi_def_cfa_offset 16
	.cfi_offset 15, -16
	pushq	%r14
	.cfi_def_cfa_offset 24
	.cfi_offset 14, -24
	pushq	%r13
	.cfi_def_cfa_offset 32
	.cfi_offset 13, -32
	pushq	%r12
	.cfi_def_cfa_offset 40
	.cfi_offset 12, -40
	pushq	%rbp
	.cfi_def_cfa_offset 48
	.cfi_offset 6, -48
	pushq	%rbx
	.cfi_def_cfa_offset 56
	.cfi_offset 3, -56
	subq	$72, %rsp
	.cfi_def_cfa_offset 128
	movdqu	8(%rdi), %xmm0
	movq	%fs:40, %rax
	movq	%rax, 56(%rsp)
	xorl	%eax, %eax
	cmpq	$0, 24(%rdi)
	movaps	%xmm0, (%rsp)
	je	.L304
	movq	%rdi, %r12
	movq	%rsi, %r13
	xorl	%ebp, %ebp
	movq	%rsp, %r14
	leaq	16(%rsp), %rbx
	.p2align 4,,10
	.p2align 3
.L306:
	movq	0(%r13), %rax
	movq	%rbx, %rdi
	movq	(%rax), %r15
	call	_ZN8opendnp318AnalogCommandEventC1Ev@PLT
	movq	32(%r12), %rdi
	xorl	%eax, %eax
	movq	%r14, %rsi
	movw	%ax, 40(%rsp)
	call	_ZNK8opendnp39NumParser7ReadNumERN7openpal6RSliceE@PLT
	movq	%rbx, %rsi
	movq	%r14, %rdi
	movw	%ax, 40(%rsp)
	call	_ZN8opendnp311Group43Var510ReadTargetERN7openpal6RSliceERNS_18AnalogCommandEventE@PLT
	movq	%rbx, %rsi
	movq	%r13, %rdi
	call	*%r15
	leal	1(%rbp), %eax
	movq	%rax, %rbp
	cmpq	24(%r12), %rax
	jb	.L306
.L304:
	movq	56(%rsp), %rax
	subq	%fs:40, %rax
	jne	.L310
	addq	$72, %rsp
	.cfi_remember_state
	.cfi_def_cfa_offset 56
	popq	%rbx
	.cfi_def_cfa_offset 48
	popq	%rbp
	.cfi_def_cfa_offset 40
	popq	%r12
	.cfi_def_cfa_offset 32
	popq	%r13
	.cfi_def_cfa_offset 24
	popq	%r14
	.cfi_def_cfa_offset 16
	popq	%r15
	.cfi_def_cfa_offset 8
	ret
.L310:
	.cfi_restore_state
	call	__stack_chk_fail@PLT
	.cfi_endproc
.LFE3993:
	.size	_ZNK8opendnp318BufferedCollectionINS_7IndexedINS_18AnalogCommandEventEEEZNS_16CountIndexParser13InvokeCountOfINS_11Group43Var5EEEvRKNS_12HeaderRecordEtRKNS_9NumParserERKN7openpal6RSliceERNS_12IAPDUHandlerEEUlRSE_jE_E7ForeachERNS_8IVisitorIS3_EE, .-_ZNK8opendnp318BufferedCollectionINS_7IndexedINS_18AnalogCommandEventEEEZNS_16CountIndexParser13InvokeCountOfINS_11Group43Var5EEEvRKNS_12HeaderRecordEtRKNS_9NumParserERKN7openpal6RSliceERNS_12IAPDUHandlerEEUlRSE_jE_E7ForeachERNS_8IVisitorIS3_EE
	.section	.text._ZNK8opendnp318BufferedCollectionINS_7IndexedINS_18AnalogCommandEventEEEZNS_16CountIndexParser13InvokeCountOfINS_11Group43Var4EEEvRKNS_12HeaderRecordEtRKNS_9NumParserERKN7openpal6RSliceERNS_12IAPDUHandlerEEUlRSE_jE_E7ForeachERNS_8IVisitorIS3_EE,"axG",@progbits,_ZNK8opendnp318BufferedCollectionINS_7IndexedINS_18AnalogCommandEventEEEZNS_16CountIndexParser13InvokeCountOfINS_11Group43Var4EEEvRKNS_12HeaderRecordEtRKNS_9NumParserERKN7openpal6RSliceERNS_12IAPDUHandlerEEUlRSE_jE_E7ForeachERNS_8IVisitorIS3_EE,comdat
	.align 2
	.p2align 4
	.weak	_ZNK8opendnp318BufferedCollectionINS_7IndexedINS_18AnalogCommandEventEEEZNS_16CountIndexParser13InvokeCountOfINS_11Group43Var4EEEvRKNS_12HeaderRecordEtRKNS_9NumParserERKN7openpal6RSliceERNS_12IAPDUHandlerEEUlRSE_jE_E7ForeachERNS_8IVisitorIS3_EE
	.type	_ZNK8opendnp318BufferedCollectionINS_7IndexedINS_18AnalogCommandEventEEEZNS_16CountIndexParser13InvokeCountOfINS_11Group43Var4EEEvRKNS_12HeaderRecordEtRKNS_9NumParserERKN7openpal6RSliceERNS_12IAPDUHandlerEEUlRSE_jE_E7ForeachERNS_8IVisitorIS3_EE, @function
_ZNK8opendnp318BufferedCollectionINS_7IndexedINS_18AnalogCommandEventEEEZNS_16CountIndexParser13InvokeCountOfINS_11Group43Var4EEEvRKNS_12HeaderRecordEtRKNS_9NumParserERKN7openpal6RSliceERNS_12IAPDUHandlerEEUlRSE_jE_E7ForeachERNS_8IVisitorIS3_EE:
.LFB3995:
	.cfi_startproc
	endbr64
	pushq	%r15
	.cfi_def_cfa_offset 16
	.cfi_offset 15, -16
	pushq	%r14
	.cfi_def_cfa_offset 24
	.cfi_offset 14, -24
	pushq	%r13
	.cfi_def_cfa_offset 32
	.cfi_offset 13, -32
	pushq	%r12
	.cfi_def_cfa_offset 40
	.cfi_offset 12, -40
	pushq	%rbp
	.cfi_def_cfa_offset 48
	.cfi_offset 6, -48
	pushq	%rbx
	.cfi_def_cfa_offset 56
	.cfi_offset 3, -56
	subq	$72, %rsp
	.cfi_def_cfa_offset 128
	movdqu	8(%rdi), %xmm0
	movq	%fs:40, %rax
	movq	%rax, 56(%rsp)
	xorl	%eax, %eax
	cmpq	$0, 24(%rdi)
	movaps	%xmm0, (%rsp)
	je	.L311
	movq	%rdi, %r12
	movq	%rsi, %r13
	xorl	%ebp, %ebp
	movq	%rsp, %r14
	leaq	16(%rsp), %rbx
	.p2align 4,,10
	.p2align 3
.L313:
	movq	0(%r13), %rax
	movq	%rbx, %rdi
	movq	(%rax), %r15
	call	_ZN8opendnp318AnalogCommandEventC1Ev@PLT
	movq	32(%r12), %rdi
	xorl	%eax, %eax
	movq	%r14, %rsi
	movw	%ax, 40(%rsp)
	call	_ZNK8opendnp39NumParser7ReadNumERN7openpal6RSliceE@PLT
	movq	%rbx, %rsi
	movq	%r14, %rdi
	movw	%ax, 40(%rsp)
	call	_ZN8opendnp311Group43Var410ReadTargetERN7openpal6RSliceERNS_18AnalogCommandEventE@PLT
	movq	%rbx, %rsi
	movq	%r13, %rdi
	call	*%r15
	leal	1(%rbp), %eax
	movq	%rax, %rbp
	cmpq	24(%r12), %rax
	jb	.L313
.L311:
	movq	56(%rsp), %rax
	subq	%fs:40, %rax
	jne	.L317
	addq	$72, %rsp
	.cfi_remember_state
	.cfi_def_cfa_offset 56
	popq	%rbx
	.cfi_def_cfa_offset 48
	popq	%rbp
	.cfi_def_cfa_offset 40
	popq	%r12
	.cfi_def_cfa_offset 32
	popq	%r13
	.cfi_def_cfa_offset 24
	popq	%r14
	.cfi_def_cfa_offset 16
	popq	%r15
	.cfi_def_cfa_offset 8
	ret
.L317:
	.cfi_restore_state
	call	__stack_chk_fail@PLT
	.cfi_endproc
.LFE3995:
	.size	_ZNK8opendnp318BufferedCollectionINS_7IndexedINS_18AnalogCommandEventEEEZNS_16CountIndexParser13InvokeCountOfINS_11Group43Var4EEEvRKNS_12HeaderRecordEtRKNS_9NumParserERKN7openpal6RSliceERNS_12IAPDUHandlerEEUlRSE_jE_E7ForeachERNS_8IVisitorIS3_EE, .-_ZNK8opendnp318BufferedCollectionINS_7IndexedINS_18AnalogCommandEventEEEZNS_16CountIndexParser13InvokeCountOfINS_11Group43Var4EEEvRKNS_12HeaderRecordEtRKNS_9NumParserERKN7openpal6RSliceERNS_12IAPDUHandlerEEUlRSE_jE_E7ForeachERNS_8IVisitorIS3_EE
	.section	.text._ZNK8opendnp318BufferedCollectionINS_7IndexedINS_18AnalogCommandEventEEEZNS_16CountIndexParser13InvokeCountOfINS_11Group43Var3EEEvRKNS_12HeaderRecordEtRKNS_9NumParserERKN7openpal6RSliceERNS_12IAPDUHandlerEEUlRSE_jE_E7ForeachERNS_8IVisitorIS3_EE,"axG",@progbits,_ZNK8opendnp318BufferedCollectionINS_7IndexedINS_18AnalogCommandEventEEEZNS_16CountIndexParser13InvokeCountOfINS_11Group43Var3EEEvRKNS_12HeaderRecordEtRKNS_9NumParserERKN7openpal6RSliceERNS_12IAPDUHandlerEEUlRSE_jE_E7ForeachERNS_8IVisitorIS3_EE,comdat
	.align 2
	.p2align 4
	.weak	_ZNK8opendnp318BufferedCollectionINS_7IndexedINS_18AnalogCommandEventEEEZNS_16CountIndexParser13InvokeCountOfINS_11Group43Var3EEEvRKNS_12HeaderRecordEtRKNS_9NumParserERKN7openpal6RSliceERNS_12IAPDUHandlerEEUlRSE_jE_E7ForeachERNS_8IVisitorIS3_EE
	.type	_ZNK8opendnp318BufferedCollectionINS_7IndexedINS_18AnalogCommandEventEEEZNS_16CountIndexParser13InvokeCountOfINS_11Group43Var3EEEvRKNS_12HeaderRecordEtRKNS_9NumParserERKN7openpal6RSliceERNS_12IAPDUHandlerEEUlRSE_jE_E7ForeachERNS_8IVisitorIS3_EE, @function
_ZNK8opendnp318BufferedCollectionINS_7IndexedINS_18AnalogCommandEventEEEZNS_16CountIndexParser13InvokeCountOfINS_11Group43Var3EEEvRKNS_12HeaderRecordEtRKNS_9NumParserERKN7openpal6RSliceERNS_12IAPDUHandlerEEUlRSE_jE_E7ForeachERNS_8IVisitorIS3_EE:
.LFB3997:
	.cfi_startproc
	endbr64
	pushq	%r15
	.cfi_def_cfa_offset 16
	.cfi_offset 15, -16
	pushq	%r14
	.cfi_def_cfa_offset 24
	.cfi_offset 14, -24
	pushq	%r13
	.cfi_def_cfa_offset 32
	.cfi_offset 13, -32
	pushq	%r12
	.cfi_def_cfa_offset 40
	.cfi_offset 12, -40
	pushq	%rbp
	.cfi_def_cfa_offset 48
	.cfi_offset 6, -48
	pushq	%rbx
	.cfi_def_cfa_offset 56
	.cfi_offset 3, -56
	subq	$72, %rsp
	.cfi_def_cfa_offset 128
	movdqu	8(%rdi), %xmm0
	movq	%fs:40, %rax
	movq	%rax, 56(%rsp)
	xorl	%eax, %eax
	cmpq	$0, 24(%rdi)
	movaps	%xmm0, (%rsp)
	je	.L318
	movq	%rdi, %r12
	movq	%rsi, %r13
	xorl	%ebp, %ebp
	movq	%rsp, %r14
	leaq	16(%rsp), %rbx
	.p2align 4,,10
	.p2align 3
.L320:
	movq	0(%r13), %rax
	movq	%rbx, %rdi
	movq	(%rax), %r15
	call	_ZN8opendnp318AnalogCommandEventC1Ev@PLT
	movq	32(%r12), %rdi
	xorl	%eax, %eax
	movq	%r14, %rsi
	movw	%ax, 40(%rsp)
	call	_ZNK8opendnp39NumParser7ReadNumERN7openpal6RSliceE@PLT
	movq	%rbx, %rsi
	movq	%r14, %rdi
	movw	%ax, 40(%rsp)
	call	_ZN8opendnp311Group43Var310ReadTargetERN7openpal6RSliceERNS_18AnalogCommandEventE@PLT
	movq	%rbx, %rsi
	movq	%r13, %rdi
	call	*%r15
	leal	1(%rbp), %eax
	movq	%rax, %rbp
	cmpq	24(%r12), %rax
	jb	.L320
.L318:
	movq	56(%rsp), %rax
	subq	%fs:40, %rax
	jne	.L324
	addq	$72, %rsp
	.cfi_remember_state
	.cfi_def_cfa_offset 56
	popq	%rbx
	.cfi_def_cfa_offset 48
	popq	%rbp
	.cfi_def_cfa_offset 40
	popq	%r12
	.cfi_def_cfa_offset 32
	popq	%r13
	.cfi_def_cfa_offset 24
	popq	%r14
	.cfi_def_cfa_offset 16
	popq	%r15
	.cfi_def_cfa_offset 8
	ret
.L324:
	.cfi_restore_state
	call	__stack_chk_fail@PLT
	.cfi_endproc
.LFE3997:
	.size	_ZNK8opendnp318BufferedCollectionINS_7IndexedINS_18AnalogCommandEventEEEZNS_16CountIndexParser13InvokeCountOfINS_11Group43Var3EEEvRKNS_12HeaderRecordEtRKNS_9NumParserERKN7openpal6RSliceERNS_12IAPDUHandlerEEUlRSE_jE_E7ForeachERNS_8IVisitorIS3_EE, .-_ZNK8opendnp318BufferedCollectionINS_7IndexedINS_18AnalogCommandEventEEEZNS_16CountIndexParser13InvokeCountOfINS_11Group43Var3EEEvRKNS_12HeaderRecordEtRKNS_9NumParserERKN7openpal6RSliceERNS_12IAPDUHandlerEEUlRSE_jE_E7ForeachERNS_8IVisitorIS3_EE
	.section	.text._ZNK8opendnp318BufferedCollectionINS_7IndexedINS_18AnalogCommandEventEEEZNS_16CountIndexParser13InvokeCountOfINS_11Group43Var2EEEvRKNS_12HeaderRecordEtRKNS_9NumParserERKN7openpal6RSliceERNS_12IAPDUHandlerEEUlRSE_jE_E7ForeachERNS_8IVisitorIS3_EE,"axG",@progbits,_ZNK8opendnp318BufferedCollectionINS_7IndexedINS_18AnalogCommandEventEEEZNS_16CountIndexParser13InvokeCountOfINS_11Group43Var2EEEvRKNS_12HeaderRecordEtRKNS_9NumParserERKN7openpal6RSliceERNS_12IAPDUHandlerEEUlRSE_jE_E7ForeachERNS_8IVisitorIS3_EE,comdat
	.align 2
	.p2align 4
	.weak	_ZNK8opendnp318BufferedCollectionINS_7IndexedINS_18AnalogCommandEventEEEZNS_16CountIndexParser13InvokeCountOfINS_11Group43Var2EEEvRKNS_12HeaderRecordEtRKNS_9NumParserERKN7openpal6RSliceERNS_12IAPDUHandlerEEUlRSE_jE_E7ForeachERNS_8IVisitorIS3_EE
	.type	_ZNK8opendnp318BufferedCollectionINS_7IndexedINS_18AnalogCommandEventEEEZNS_16CountIndexParser13InvokeCountOfINS_11Group43Var2EEEvRKNS_12HeaderRecordEtRKNS_9NumParserERKN7openpal6RSliceERNS_12IAPDUHandlerEEUlRSE_jE_E7ForeachERNS_8IVisitorIS3_EE, @function
_ZNK8opendnp318BufferedCollectionINS_7IndexedINS_18AnalogCommandEventEEEZNS_16CountIndexParser13InvokeCountOfINS_11Group43Var2EEEvRKNS_12HeaderRecordEtRKNS_9NumParserERKN7openpal6RSliceERNS_12IAPDUHandlerEEUlRSE_jE_E7ForeachERNS_8IVisitorIS3_EE:
.LFB3999:
	.cfi_startproc
	endbr64
	pushq	%r15
	.cfi_def_cfa_offset 16
	.cfi_offset 15, -16
	pushq	%r14
	.cfi_def_cfa_offset 24
	.cfi_offset 14, -24
	pushq	%r13
	.cfi_def_cfa_offset 32
	.cfi_offset 13, -32
	pushq	%r12
	.cfi_def_cfa_offset 40
	.cfi_offset 12, -40
	pushq	%rbp
	.cfi_def_cfa_offset 48
	.cfi_offset 6, -48
	pushq	%rbx
	.cfi_def_cfa_offset 56
	.cfi_offset 3, -56
	subq	$72, %rsp
	.cfi_def_cfa_offset 128
	movdqu	8(%rdi), %xmm0
	movq	%fs:40, %rax
	movq	%rax, 56(%rsp)
	xorl	%eax, %eax
	cmpq	$0, 24(%rdi)
	movaps	%xmm0, (%rsp)
	je	.L325
	movq	%rdi, %r12
	movq	%rsi, %r13
	xorl	%ebp, %ebp
	movq	%rsp, %r14
	leaq	16(%rsp), %rbx
	.p2align 4,,10
	.p2align 3
.L327:
	movq	0(%r13), %rax
	movq	%rbx, %rdi
	movq	(%rax), %r15
	call	_ZN8opendnp318AnalogCommandEventC1Ev@PLT
	movq	32(%r12), %rdi
	xorl	%eax, %eax
	movq	%r14, %rsi
	movw	%ax, 40(%rsp)
	call	_ZNK8opendnp39NumParser7ReadNumERN7openpal6RSliceE@PLT
	movq	%rbx, %rsi
	movq	%r14, %rdi
	movw	%ax, 40(%rsp)
	call	_ZN8opendnp311Group43Var210ReadTargetERN7openpal6RSliceERNS_18AnalogCommandEventE@PLT
	movq	%rbx, %rsi
	movq	%r13, %rdi
	call	*%r15
	leal	1(%rbp), %eax
	movq	%rax, %rbp
	cmpq	24(%r12), %rax
	jb	.L327
.L325:
	movq	56(%rsp), %rax
	subq	%fs:40, %rax
	jne	.L331
	addq	$72, %rsp
	.cfi_remember_state
	.cfi_def_cfa_offset 56
	popq	%rbx
	.cfi_def_cfa_offset 48
	popq	%rbp
	.cfi_def_cfa_offset 40
	popq	%r12
	.cfi_def_cfa_offset 32
	popq	%r13
	.cfi_def_cfa_offset 24
	popq	%r14
	.cfi_def_cfa_offset 16
	popq	%r15
	.cfi_def_cfa_offset 8
	ret
.L331:
	.cfi_restore_state
	call	__stack_chk_fail@PLT
	.cfi_endproc
.LFE3999:
	.size	_ZNK8opendnp318BufferedCollectionINS_7IndexedINS_18AnalogCommandEventEEEZNS_16CountIndexParser13InvokeCountOfINS_11Group43Var2EEEvRKNS_12HeaderRecordEtRKNS_9NumParserERKN7openpal6RSliceERNS_12IAPDUHandlerEEUlRSE_jE_E7ForeachERNS_8IVisitorIS3_EE, .-_ZNK8opendnp318BufferedCollectionINS_7IndexedINS_18AnalogCommandEventEEEZNS_16CountIndexParser13InvokeCountOfINS_11Group43Var2EEEvRKNS_12HeaderRecordEtRKNS_9NumParserERKN7openpal6RSliceERNS_12IAPDUHandlerEEUlRSE_jE_E7ForeachERNS_8IVisitorIS3_EE
	.section	.text._ZNK8opendnp318BufferedCollectionINS_7IndexedINS_18AnalogCommandEventEEEZNS_16CountIndexParser13InvokeCountOfINS_11Group43Var1EEEvRKNS_12HeaderRecordEtRKNS_9NumParserERKN7openpal6RSliceERNS_12IAPDUHandlerEEUlRSE_jE_E7ForeachERNS_8IVisitorIS3_EE,"axG",@progbits,_ZNK8opendnp318BufferedCollectionINS_7IndexedINS_18AnalogCommandEventEEEZNS_16CountIndexParser13InvokeCountOfINS_11Group43Var1EEEvRKNS_12HeaderRecordEtRKNS_9NumParserERKN7openpal6RSliceERNS_12IAPDUHandlerEEUlRSE_jE_E7ForeachERNS_8IVisitorIS3_EE,comdat
	.align 2
	.p2align 4
	.weak	_ZNK8opendnp318BufferedCollectionINS_7IndexedINS_18AnalogCommandEventEEEZNS_16CountIndexParser13InvokeCountOfINS_11Group43Var1EEEvRKNS_12HeaderRecordEtRKNS_9NumParserERKN7openpal6RSliceERNS_12IAPDUHandlerEEUlRSE_jE_E7ForeachERNS_8IVisitorIS3_EE
	.type	_ZNK8opendnp318BufferedCollectionINS_7IndexedINS_18AnalogCommandEventEEEZNS_16CountIndexParser13InvokeCountOfINS_11Group43Var1EEEvRKNS_12HeaderRecordEtRKNS_9NumParserERKN7openpal6RSliceERNS_12IAPDUHandlerEEUlRSE_jE_E7ForeachERNS_8IVisitorIS3_EE, @function
_ZNK8opendnp318BufferedCollectionINS_7IndexedINS_18AnalogCommandEventEEEZNS_16CountIndexParser13InvokeCountOfINS_11Group43Var1EEEvRKNS_12HeaderRecordEtRKNS_9NumParserERKN7openpal6RSliceERNS_12IAPDUHandlerEEUlRSE_jE_E7ForeachERNS_8IVisitorIS3_EE:
.LFB4001:
	.cfi_startproc
	endbr64
	pushq	%r15
	.cfi_def_cfa_offset 16
	.cfi_offset 15, -16
	pushq	%r14
	.cfi_def_cfa_offset 24
	.cfi_offset 14, -24
	pushq	%r13
	.cfi_def_cfa_offset 32
	.cfi_offset 13, -32
	pushq	%r12
	.cfi_def_cfa_offset 40
	.cfi_offset 12, -40
	pushq	%rbp
	.cfi_def_cfa_offset 48
	.cfi_offset 6, -48
	pushq	%rbx
	.cfi_def_cfa_offset 56
	.cfi_offset 3, -56
	subq	$72, %rsp
	.cfi_def_cfa_offset 128
	movdqu	8(%rdi), %xmm0
	movq	%fs:40, %rax
	movq	%rax, 56(%rsp)
	xorl	%eax, %eax
	cmpq	$0, 24(%rdi)
	movaps	%xmm0, (%rsp)
	je	.L332
	movq	%rdi, %r12
	movq	%rsi, %r13
	xorl	%ebp, %ebp
	movq	%rsp, %r14
	leaq	16(%rsp), %rbx
	.p2align 4,,10
	.p2align 3
.L334:
	movq	0(%r13), %rax
	movq	%rbx, %rdi
	movq	(%rax), %r15
	call	_ZN8opendnp318AnalogCommandEventC1Ev@PLT
	movq	32(%r12), %rdi
	xorl	%eax, %eax
	movq	%r14, %rsi
	movw	%ax, 40(%rsp)
	call	_ZNK8opendnp39NumParser7ReadNumERN7openpal6RSliceE@PLT
	movq	%rbx, %rsi
	movq	%r14, %rdi
	movw	%ax, 40(%rsp)
	call	_ZN8opendnp311Group43Var110ReadTargetERN7openpal6RSliceERNS_18AnalogCommandEventE@PLT
	movq	%rbx, %rsi
	movq	%r13, %rdi
	call	*%r15
	leal	1(%rbp), %eax
	movq	%rax, %rbp
	cmpq	24(%r12), %rax
	jb	.L334
.L332:
	movq	56(%rsp), %rax
	subq	%fs:40, %rax
	jne	.L338
	addq	$72, %rsp
	.cfi_remember_state
	.cfi_def_cfa_offset 56
	popq	%rbx
	.cfi_def_cfa_offset 48
	popq	%rbp
	.cfi_def_cfa_offset 40
	popq	%r12
	.cfi_def_cfa_offset 32
	popq	%r13
	.cfi_def_cfa_offset 24
	popq	%r14
	.cfi_def_cfa_offset 16
	popq	%r15
	.cfi_def_cfa_offset 8
	ret
.L338:
	.cfi_restore_state
	call	__stack_chk_fail@PLT
	.cfi_endproc
.LFE4001:
	.size	_ZNK8opendnp318BufferedCollectionINS_7IndexedINS_18AnalogCommandEventEEEZNS_16CountIndexParser13InvokeCountOfINS_11Group43Var1EEEvRKNS_12HeaderRecordEtRKNS_9NumParserERKN7openpal6RSliceERNS_12IAPDUHandlerEEUlRSE_jE_E7ForeachERNS_8IVisitorIS3_EE, .-_ZNK8opendnp318BufferedCollectionINS_7IndexedINS_18AnalogCommandEventEEEZNS_16CountIndexParser13InvokeCountOfINS_11Group43Var1EEEvRKNS_12HeaderRecordEtRKNS_9NumParserERKN7openpal6RSliceERNS_12IAPDUHandlerEEUlRSE_jE_E7ForeachERNS_8IVisitorIS3_EE
	.section	.text._ZNK8opendnp318BufferedCollectionINS_7IndexedINS_18AnalogOutputStatusEEEZNS_16CountIndexParser13InvokeCountOfINS_11Group42Var8EEEvRKNS_12HeaderRecordEtRKNS_9NumParserERKN7openpal6RSliceERNS_12IAPDUHandlerEEUlRSE_jE_E7ForeachERNS_8IVisitorIS3_EE,"axG",@progbits,_ZNK8opendnp318BufferedCollectionINS_7IndexedINS_18AnalogOutputStatusEEEZNS_16CountIndexParser13InvokeCountOfINS_11Group42Var8EEEvRKNS_12HeaderRecordEtRKNS_9NumParserERKN7openpal6RSliceERNS_12IAPDUHandlerEEUlRSE_jE_E7ForeachERNS_8IVisitorIS3_EE,comdat
	.align 2
	.p2align 4
	.weak	_ZNK8opendnp318BufferedCollectionINS_7IndexedINS_18AnalogOutputStatusEEEZNS_16CountIndexParser13InvokeCountOfINS_11Group42Var8EEEvRKNS_12HeaderRecordEtRKNS_9NumParserERKN7openpal6RSliceERNS_12IAPDUHandlerEEUlRSE_jE_E7ForeachERNS_8IVisitorIS3_EE
	.type	_ZNK8opendnp318BufferedCollectionINS_7IndexedINS_18AnalogOutputStatusEEEZNS_16CountIndexParser13InvokeCountOfINS_11Group42Var8EEEvRKNS_12HeaderRecordEtRKNS_9NumParserERKN7openpal6RSliceERNS_12IAPDUHandlerEEUlRSE_jE_E7ForeachERNS_8IVisitorIS3_EE, @function
_ZNK8opendnp318BufferedCollectionINS_7IndexedINS_18AnalogOutputStatusEEEZNS_16CountIndexParser13InvokeCountOfINS_11Group42Var8EEEvRKNS_12HeaderRecordEtRKNS_9NumParserERKN7openpal6RSliceERNS_12IAPDUHandlerEEUlRSE_jE_E7ForeachERNS_8IVisitorIS3_EE:
.LFB4003:
	.cfi_startproc
	endbr64
	pushq	%r15
	.cfi_def_cfa_offset 16
	.cfi_offset 15, -16
	pushq	%r14
	.cfi_def_cfa_offset 24
	.cfi_offset 14, -24
	pushq	%r13
	.cfi_def_cfa_offset 32
	.cfi_offset 13, -32
	pushq	%r12
	.cfi_def_cfa_offset 40
	.cfi_offset 12, -40
	pushq	%rbp
	.cfi_def_cfa_offset 48
	.cfi_offset 6, -48
	pushq	%rbx
	.cfi_def_cfa_offset 56
	.cfi_offset 3, -56
	subq	$72, %rsp
	.cfi_def_cfa_offset 128
	movdqu	8(%rdi), %xmm0
	movq	%fs:40, %rax
	movq	%rax, 56(%rsp)
	xorl	%eax, %eax
	cmpq	$0, 24(%rdi)
	movaps	%xmm0, (%rsp)
	je	.L339
	movq	%rdi, %r12
	movq	%rsi, %r13
	xorl	%ebp, %ebp
	movq	%rsp, %r14
	leaq	16(%rsp), %rbx
	.p2align 4,,10
	.p2align 3
.L341:
	movq	0(%r13), %rax
	movq	%rbx, %rdi
	movq	(%rax), %r15
	call	_ZN8opendnp318AnalogOutputStatusC1Ev@PLT
	movq	32(%r12), %rdi
	xorl	%eax, %eax
	movq	%r14, %rsi
	movw	%ax, 40(%rsp)
	call	_ZNK8opendnp39NumParser7ReadNumERN7openpal6RSliceE@PLT
	movq	%rbx, %rsi
	movq	%r14, %rdi
	movw	%ax, 40(%rsp)
	call	_ZN8opendnp311Group42Var810ReadTargetERN7openpal6RSliceERNS_18AnalogOutputStatusE@PLT
	movq	%rbx, %rsi
	movq	%r13, %rdi
	call	*%r15
	leal	1(%rbp), %eax
	movq	%rax, %rbp
	cmpq	24(%r12), %rax
	jb	.L341
.L339:
	movq	56(%rsp), %rax
	subq	%fs:40, %rax
	jne	.L345
	addq	$72, %rsp
	.cfi_remember_state
	.cfi_def_cfa_offset 56
	popq	%rbx
	.cfi_def_cfa_offset 48
	popq	%rbp
	.cfi_def_cfa_offset 40
	popq	%r12
	.cfi_def_cfa_offset 32
	popq	%r13
	.cfi_def_cfa_offset 24
	popq	%r14
	.cfi_def_cfa_offset 16
	popq	%r15
	.cfi_def_cfa_offset 8
	ret
.L345:
	.cfi_restore_state
	call	__stack_chk_fail@PLT
	.cfi_endproc
.LFE4003:
	.size	_ZNK8opendnp318BufferedCollectionINS_7IndexedINS_18AnalogOutputStatusEEEZNS_16CountIndexParser13InvokeCountOfINS_11Group42Var8EEEvRKNS_12HeaderRecordEtRKNS_9NumParserERKN7openpal6RSliceERNS_12IAPDUHandlerEEUlRSE_jE_E7ForeachERNS_8IVisitorIS3_EE, .-_ZNK8opendnp318BufferedCollectionINS_7IndexedINS_18AnalogOutputStatusEEEZNS_16CountIndexParser13InvokeCountOfINS_11Group42Var8EEEvRKNS_12HeaderRecordEtRKNS_9NumParserERKN7openpal6RSliceERNS_12IAPDUHandlerEEUlRSE_jE_E7ForeachERNS_8IVisitorIS3_EE
	.section	.text._ZNK8opendnp318BufferedCollectionINS_7IndexedINS_18AnalogOutputStatusEEEZNS_16CountIndexParser13InvokeCountOfINS_11Group42Var7EEEvRKNS_12HeaderRecordEtRKNS_9NumParserERKN7openpal6RSliceERNS_12IAPDUHandlerEEUlRSE_jE_E7ForeachERNS_8IVisitorIS3_EE,"axG",@progbits,_ZNK8opendnp318BufferedCollectionINS_7IndexedINS_18AnalogOutputStatusEEEZNS_16CountIndexParser13InvokeCountOfINS_11Group42Var7EEEvRKNS_12HeaderRecordEtRKNS_9NumParserERKN7openpal6RSliceERNS_12IAPDUHandlerEEUlRSE_jE_E7ForeachERNS_8IVisitorIS3_EE,comdat
	.align 2
	.p2align 4
	.weak	_ZNK8opendnp318BufferedCollectionINS_7IndexedINS_18AnalogOutputStatusEEEZNS_16CountIndexParser13InvokeCountOfINS_11Group42Var7EEEvRKNS_12HeaderRecordEtRKNS_9NumParserERKN7openpal6RSliceERNS_12IAPDUHandlerEEUlRSE_jE_E7ForeachERNS_8IVisitorIS3_EE
	.type	_ZNK8opendnp318BufferedCollectionINS_7IndexedINS_18AnalogOutputStatusEEEZNS_16CountIndexParser13InvokeCountOfINS_11Group42Var7EEEvRKNS_12HeaderRecordEtRKNS_9NumParserERKN7openpal6RSliceERNS_12IAPDUHandlerEEUlRSE_jE_E7ForeachERNS_8IVisitorIS3_EE, @function
_ZNK8opendnp318BufferedCollectionINS_7IndexedINS_18AnalogOutputStatusEEEZNS_16CountIndexParser13InvokeCountOfINS_11Group42Var7EEEvRKNS_12HeaderRecordEtRKNS_9NumParserERKN7openpal6RSliceERNS_12IAPDUHandlerEEUlRSE_jE_E7ForeachERNS_8IVisitorIS3_EE:
.LFB4005:
	.cfi_startproc
	endbr64
	pushq	%r15
	.cfi_def_cfa_offset 16
	.cfi_offset 15, -16
	pushq	%r14
	.cfi_def_cfa_offset 24
	.cfi_offset 14, -24
	pushq	%r13
	.cfi_def_cfa_offset 32
	.cfi_offset 13, -32
	pushq	%r12
	.cfi_def_cfa_offset 40
	.cfi_offset 12, -40
	pushq	%rbp
	.cfi_def_cfa_offset 48
	.cfi_offset 6, -48
	pushq	%rbx
	.cfi_def_cfa_offset 56
	.cfi_offset 3, -56
	subq	$72, %rsp
	.cfi_def_cfa_offset 128
	movdqu	8(%rdi), %xmm0
	movq	%fs:40, %rax
	movq	%rax, 56(%rsp)
	xorl	%eax, %eax
	cmpq	$0, 24(%rdi)
	movaps	%xmm0, (%rsp)
	je	.L346
	movq	%rdi, %r12
	movq	%rsi, %r13
	xorl	%ebp, %ebp
	movq	%rsp, %r14
	leaq	16(%rsp), %rbx
	.p2align 4,,10
	.p2align 3
.L348:
	movq	0(%r13), %rax
	movq	%rbx, %rdi
	movq	(%rax), %r15
	call	_ZN8opendnp318AnalogOutputStatusC1Ev@PLT
	movq	32(%r12), %rdi
	xorl	%eax, %eax
	movq	%r14, %rsi
	movw	%ax, 40(%rsp)
	call	_ZNK8opendnp39NumParser7ReadNumERN7openpal6RSliceE@PLT
	movq	%rbx, %rsi
	movq	%r14, %rdi
	movw	%ax, 40(%rsp)
	call	_ZN8opendnp311Group42Var710ReadTargetERN7openpal6RSliceERNS_18AnalogOutputStatusE@PLT
	movq	%rbx, %rsi
	movq	%r13, %rdi
	call	*%r15
	leal	1(%rbp), %eax
	movq	%rax, %rbp
	cmpq	24(%r12), %rax
	jb	.L348
.L346:
	movq	56(%rsp), %rax
	subq	%fs:40, %rax
	jne	.L352
	addq	$72, %rsp
	.cfi_remember_state
	.cfi_def_cfa_offset 56
	popq	%rbx
	.cfi_def_cfa_offset 48
	popq	%rbp
	.cfi_def_cfa_offset 40
	popq	%r12
	.cfi_def_cfa_offset 32
	popq	%r13
	.cfi_def_cfa_offset 24
	popq	%r14
	.cfi_def_cfa_offset 16
	popq	%r15
	.cfi_def_cfa_offset 8
	ret
.L352:
	.cfi_restore_state
	call	__stack_chk_fail@PLT
	.cfi_endproc
.LFE4005:
	.size	_ZNK8opendnp318BufferedCollectionINS_7IndexedINS_18AnalogOutputStatusEEEZNS_16CountIndexParser13InvokeCountOfINS_11Group42Var7EEEvRKNS_12HeaderRecordEtRKNS_9NumParserERKN7openpal6RSliceERNS_12IAPDUHandlerEEUlRSE_jE_E7ForeachERNS_8IVisitorIS3_EE, .-_ZNK8opendnp318BufferedCollectionINS_7IndexedINS_18AnalogOutputStatusEEEZNS_16CountIndexParser13InvokeCountOfINS_11Group42Var7EEEvRKNS_12HeaderRecordEtRKNS_9NumParserERKN7openpal6RSliceERNS_12IAPDUHandlerEEUlRSE_jE_E7ForeachERNS_8IVisitorIS3_EE
	.section	.text._ZNK8opendnp318BufferedCollectionINS_7IndexedINS_18AnalogOutputStatusEEEZNS_16CountIndexParser13InvokeCountOfINS_11Group42Var6EEEvRKNS_12HeaderRecordEtRKNS_9NumParserERKN7openpal6RSliceERNS_12IAPDUHandlerEEUlRSE_jE_E7ForeachERNS_8IVisitorIS3_EE,"axG",@progbits,_ZNK8opendnp318BufferedCollectionINS_7IndexedINS_18AnalogOutputStatusEEEZNS_16CountIndexParser13InvokeCountOfINS_11Group42Var6EEEvRKNS_12HeaderRecordEtRKNS_9NumParserERKN7openpal6RSliceERNS_12IAPDUHandlerEEUlRSE_jE_E7ForeachERNS_8IVisitorIS3_EE,comdat
	.align 2
	.p2align 4
	.weak	_ZNK8opendnp318BufferedCollectionINS_7IndexedINS_18AnalogOutputStatusEEEZNS_16CountIndexParser13InvokeCountOfINS_11Group42Var6EEEvRKNS_12HeaderRecordEtRKNS_9NumParserERKN7openpal6RSliceERNS_12IAPDUHandlerEEUlRSE_jE_E7ForeachERNS_8IVisitorIS3_EE
	.type	_ZNK8opendnp318BufferedCollectionINS_7IndexedINS_18AnalogOutputStatusEEEZNS_16CountIndexParser13InvokeCountOfINS_11Group42Var6EEEvRKNS_12HeaderRecordEtRKNS_9NumParserERKN7openpal6RSliceERNS_12IAPDUHandlerEEUlRSE_jE_E7ForeachERNS_8IVisitorIS3_EE, @function
_ZNK8opendnp318BufferedCollectionINS_7IndexedINS_18AnalogOutputStatusEEEZNS_16CountIndexParser13InvokeCountOfINS_11Group42Var6EEEvRKNS_12HeaderRecordEtRKNS_9NumParserERKN7openpal6RSliceERNS_12IAPDUHandlerEEUlRSE_jE_E7ForeachERNS_8IVisitorIS3_EE:
.LFB4007:
	.cfi_startproc
	endbr64
	pushq	%r15
	.cfi_def_cfa_offset 16
	.cfi_offset 15, -16
	pushq	%r14
	.cfi_def_cfa_offset 24
	.cfi_offset 14, -24
	pushq	%r13
	.cfi_def_cfa_offset 32
	.cfi_offset 13, -32
	pushq	%r12
	.cfi_def_cfa_offset 40
	.cfi_offset 12, -40
	pushq	%rbp
	.cfi_def_cfa_offset 48
	.cfi_offset 6, -48
	pushq	%rbx
	.cfi_def_cfa_offset 56
	.cfi_offset 3, -56
	subq	$72, %rsp
	.cfi_def_cfa_offset 128
	movdqu	8(%rdi), %xmm0
	movq	%fs:40, %rax
	movq	%rax, 56(%rsp)
	xorl	%eax, %eax
	cmpq	$0, 24(%rdi)
	movaps	%xmm0, (%rsp)
	je	.L353
	movq	%rdi, %r12
	movq	%rsi, %r13
	xorl	%ebp, %ebp
	movq	%rsp, %r14
	leaq	16(%rsp), %rbx
	.p2align 4,,10
	.p2align 3
.L355:
	movq	0(%r13), %rax
	movq	%rbx, %rdi
	movq	(%rax), %r15
	call	_ZN8opendnp318AnalogOutputStatusC1Ev@PLT
	movq	32(%r12), %rdi
	xorl	%eax, %eax
	movq	%r14, %rsi
	movw	%ax, 40(%rsp)
	call	_ZNK8opendnp39NumParser7ReadNumERN7openpal6RSliceE@PLT
	movq	%rbx, %rsi
	movq	%r14, %rdi
	movw	%ax, 40(%rsp)
	call	_ZN8opendnp311Group42Var610ReadTargetERN7openpal6RSliceERNS_18AnalogOutputStatusE@PLT
	movq	%rbx, %rsi
	movq	%r13, %rdi
	call	*%r15
	leal	1(%rbp), %eax
	movq	%rax, %rbp
	cmpq	24(%r12), %rax
	jb	.L355
.L353:
	movq	56(%rsp), %rax
	subq	%fs:40, %rax
	jne	.L359
	addq	$72, %rsp
	.cfi_remember_state
	.cfi_def_cfa_offset 56
	popq	%rbx
	.cfi_def_cfa_offset 48
	popq	%rbp
	.cfi_def_cfa_offset 40
	popq	%r12
	.cfi_def_cfa_offset 32
	popq	%r13
	.cfi_def_cfa_offset 24
	popq	%r14
	.cfi_def_cfa_offset 16
	popq	%r15
	.cfi_def_cfa_offset 8
	ret
.L359:
	.cfi_restore_state
	call	__stack_chk_fail@PLT
	.cfi_endproc
.LFE4007:
	.size	_ZNK8opendnp318BufferedCollectionINS_7IndexedINS_18AnalogOutputStatusEEEZNS_16CountIndexParser13InvokeCountOfINS_11Group42Var6EEEvRKNS_12HeaderRecordEtRKNS_9NumParserERKN7openpal6RSliceERNS_12IAPDUHandlerEEUlRSE_jE_E7ForeachERNS_8IVisitorIS3_EE, .-_ZNK8opendnp318BufferedCollectionINS_7IndexedINS_18AnalogOutputStatusEEEZNS_16CountIndexParser13InvokeCountOfINS_11Group42Var6EEEvRKNS_12HeaderRecordEtRKNS_9NumParserERKN7openpal6RSliceERNS_12IAPDUHandlerEEUlRSE_jE_E7ForeachERNS_8IVisitorIS3_EE
	.section	.text._ZNK8opendnp318BufferedCollectionINS_7IndexedINS_18AnalogOutputStatusEEEZNS_16CountIndexParser13InvokeCountOfINS_11Group42Var5EEEvRKNS_12HeaderRecordEtRKNS_9NumParserERKN7openpal6RSliceERNS_12IAPDUHandlerEEUlRSE_jE_E7ForeachERNS_8IVisitorIS3_EE,"axG",@progbits,_ZNK8opendnp318BufferedCollectionINS_7IndexedINS_18AnalogOutputStatusEEEZNS_16CountIndexParser13InvokeCountOfINS_11Group42Var5EEEvRKNS_12HeaderRecordEtRKNS_9NumParserERKN7openpal6RSliceERNS_12IAPDUHandlerEEUlRSE_jE_E7ForeachERNS_8IVisitorIS3_EE,comdat
	.align 2
	.p2align 4
	.weak	_ZNK8opendnp318BufferedCollectionINS_7IndexedINS_18AnalogOutputStatusEEEZNS_16CountIndexParser13InvokeCountOfINS_11Group42Var5EEEvRKNS_12HeaderRecordEtRKNS_9NumParserERKN7openpal6RSliceERNS_12IAPDUHandlerEEUlRSE_jE_E7ForeachERNS_8IVisitorIS3_EE
	.type	_ZNK8opendnp318BufferedCollectionINS_7IndexedINS_18AnalogOutputStatusEEEZNS_16CountIndexParser13InvokeCountOfINS_11Group42Var5EEEvRKNS_12HeaderRecordEtRKNS_9NumParserERKN7openpal6RSliceERNS_12IAPDUHandlerEEUlRSE_jE_E7ForeachERNS_8IVisitorIS3_EE, @function
_ZNK8opendnp318BufferedCollectionINS_7IndexedINS_18AnalogOutputStatusEEEZNS_16CountIndexParser13InvokeCountOfINS_11Group42Var5EEEvRKNS_12HeaderRecordEtRKNS_9NumParserERKN7openpal6RSliceERNS_12IAPDUHandlerEEUlRSE_jE_E7ForeachERNS_8IVisitorIS3_EE:
.LFB4009:
	.cfi_startproc
	endbr64
	pushq	%r15
	.cfi_def_cfa_offset 16
	.cfi_offset 15, -16
	pushq	%r14
	.cfi_def_cfa_offset 24
	.cfi_offset 14, -24
	pushq	%r13
	.cfi_def_cfa_offset 32
	.cfi_offset 13, -32
	pushq	%r12
	.cfi_def_cfa_offset 40
	.cfi_offset 12, -40
	pushq	%rbp
	.cfi_def_cfa_offset 48
	.cfi_offset 6, -48
	pushq	%rbx
	.cfi_def_cfa_offset 56
	.cfi_offset 3, -56
	subq	$72, %rsp
	.cfi_def_cfa_offset 128
	movdqu	8(%rdi), %xmm0
	movq	%fs:40, %rax
	movq	%rax, 56(%rsp)
	xorl	%eax, %eax
	cmpq	$0, 24(%rdi)
	movaps	%xmm0, (%rsp)
	je	.L360
	movq	%rdi, %r12
	movq	%rsi, %r13
	xorl	%ebp, %ebp
	movq	%rsp, %r14
	leaq	16(%rsp), %rbx
	.p2align 4,,10
	.p2align 3
.L362:
	movq	0(%r13), %rax
	movq	%rbx, %rdi
	movq	(%rax), %r15
	call	_ZN8opendnp318AnalogOutputStatusC1Ev@PLT
	movq	32(%r12), %rdi
	xorl	%eax, %eax
	movq	%r14, %rsi
	movw	%ax, 40(%rsp)
	call	_ZNK8opendnp39NumParser7ReadNumERN7openpal6RSliceE@PLT
	movq	%rbx, %rsi
	movq	%r14, %rdi
	movw	%ax, 40(%rsp)
	call	_ZN8opendnp311Group42Var510ReadTargetERN7openpal6RSliceERNS_18AnalogOutputStatusE@PLT
	movq	%rbx, %rsi
	movq	%r13, %rdi
	call	*%r15
	leal	1(%rbp), %eax
	movq	%rax, %rbp
	cmpq	24(%r12), %rax
	jb	.L362
.L360:
	movq	56(%rsp), %rax
	subq	%fs:40, %rax
	jne	.L366
	addq	$72, %rsp
	.cfi_remember_state
	.cfi_def_cfa_offset 56
	popq	%rbx
	.cfi_def_cfa_offset 48
	popq	%rbp
	.cfi_def_cfa_offset 40
	popq	%r12
	.cfi_def_cfa_offset 32
	popq	%r13
	.cfi_def_cfa_offset 24
	popq	%r14
	.cfi_def_cfa_offset 16
	popq	%r15
	.cfi_def_cfa_offset 8
	ret
.L366:
	.cfi_restore_state
	call	__stack_chk_fail@PLT
	.cfi_endproc
.LFE4009:
	.size	_ZNK8opendnp318BufferedCollectionINS_7IndexedINS_18AnalogOutputStatusEEEZNS_16CountIndexParser13InvokeCountOfINS_11Group42Var5EEEvRKNS_12HeaderRecordEtRKNS_9NumParserERKN7openpal6RSliceERNS_12IAPDUHandlerEEUlRSE_jE_E7ForeachERNS_8IVisitorIS3_EE, .-_ZNK8opendnp318BufferedCollectionINS_7IndexedINS_18AnalogOutputStatusEEEZNS_16CountIndexParser13InvokeCountOfINS_11Group42Var5EEEvRKNS_12HeaderRecordEtRKNS_9NumParserERKN7openpal6RSliceERNS_12IAPDUHandlerEEUlRSE_jE_E7ForeachERNS_8IVisitorIS3_EE
	.section	.text._ZNK8opendnp318BufferedCollectionINS_7IndexedINS_18AnalogOutputStatusEEEZNS_16CountIndexParser13InvokeCountOfINS_11Group42Var4EEEvRKNS_12HeaderRecordEtRKNS_9NumParserERKN7openpal6RSliceERNS_12IAPDUHandlerEEUlRSE_jE_E7ForeachERNS_8IVisitorIS3_EE,"axG",@progbits,_ZNK8opendnp318BufferedCollectionINS_7IndexedINS_18AnalogOutputStatusEEEZNS_16CountIndexParser13InvokeCountOfINS_11Group42Var4EEEvRKNS_12HeaderRecordEtRKNS_9NumParserERKN7openpal6RSliceERNS_12IAPDUHandlerEEUlRSE_jE_E7ForeachERNS_8IVisitorIS3_EE,comdat
	.align 2
	.p2align 4
	.weak	_ZNK8opendnp318BufferedCollectionINS_7IndexedINS_18AnalogOutputStatusEEEZNS_16CountIndexParser13InvokeCountOfINS_11Group42Var4EEEvRKNS_12HeaderRecordEtRKNS_9NumParserERKN7openpal6RSliceERNS_12IAPDUHandlerEEUlRSE_jE_E7ForeachERNS_8IVisitorIS3_EE
	.type	_ZNK8opendnp318BufferedCollectionINS_7IndexedINS_18AnalogOutputStatusEEEZNS_16CountIndexParser13InvokeCountOfINS_11Group42Var4EEEvRKNS_12HeaderRecordEtRKNS_9NumParserERKN7openpal6RSliceERNS_12IAPDUHandlerEEUlRSE_jE_E7ForeachERNS_8IVisitorIS3_EE, @function
_ZNK8opendnp318BufferedCollectionINS_7IndexedINS_18AnalogOutputStatusEEEZNS_16CountIndexParser13InvokeCountOfINS_11Group42Var4EEEvRKNS_12HeaderRecordEtRKNS_9NumParserERKN7openpal6RSliceERNS_12IAPDUHandlerEEUlRSE_jE_E7ForeachERNS_8IVisitorIS3_EE:
.LFB4011:
	.cfi_startproc
	endbr64
	pushq	%r15
	.cfi_def_cfa_offset 16
	.cfi_offset 15, -16
	pushq	%r14
	.cfi_def_cfa_offset 24
	.cfi_offset 14, -24
	pushq	%r13
	.cfi_def_cfa_offset 32
	.cfi_offset 13, -32
	pushq	%r12
	.cfi_def_cfa_offset 40
	.cfi_offset 12, -40
	pushq	%rbp
	.cfi_def_cfa_offset 48
	.cfi_offset 6, -48
	pushq	%rbx
	.cfi_def_cfa_offset 56
	.cfi_offset 3, -56
	subq	$72, %rsp
	.cfi_def_cfa_offset 128
	movdqu	8(%rdi), %xmm0
	movq	%fs:40, %rax
	movq	%rax, 56(%rsp)
	xorl	%eax, %eax
	cmpq	$0, 24(%rdi)
	movaps	%xmm0, (%rsp)
	je	.L367
	movq	%rdi, %r12
	movq	%rsi, %r13
	xorl	%ebp, %ebp
	movq	%rsp, %r14
	leaq	16(%rsp), %rbx
	.p2align 4,,10
	.p2align 3
.L369:
	movq	0(%r13), %rax
	movq	%rbx, %rdi
	movq	(%rax), %r15
	call	_ZN8opendnp318AnalogOutputStatusC1Ev@PLT
	movq	32(%r12), %rdi
	xorl	%eax, %eax
	movq	%r14, %rsi
	movw	%ax, 40(%rsp)
	call	_ZNK8opendnp39NumParser7ReadNumERN7openpal6RSliceE@PLT
	movq	%rbx, %rsi
	movq	%r14, %rdi
	movw	%ax, 40(%rsp)
	call	_ZN8opendnp311Group42Var410ReadTargetERN7openpal6RSliceERNS_18AnalogOutputStatusE@PLT
	movq	%rbx, %rsi
	movq	%r13, %rdi
	call	*%r15
	leal	1(%rbp), %eax
	movq	%rax, %rbp
	cmpq	24(%r12), %rax
	jb	.L369
.L367:
	movq	56(%rsp), %rax
	subq	%fs:40, %rax
	jne	.L373
	addq	$72, %rsp
	.cfi_remember_state
	.cfi_def_cfa_offset 56
	popq	%rbx
	.cfi_def_cfa_offset 48
	popq	%rbp
	.cfi_def_cfa_offset 40
	popq	%r12
	.cfi_def_cfa_offset 32
	popq	%r13
	.cfi_def_cfa_offset 24
	popq	%r14
	.cfi_def_cfa_offset 16
	popq	%r15
	.cfi_def_cfa_offset 8
	ret
.L373:
	.cfi_restore_state
	call	__stack_chk_fail@PLT
	.cfi_endproc
.LFE4011:
	.size	_ZNK8opendnp318BufferedCollectionINS_7IndexedINS_18AnalogOutputStatusEEEZNS_16CountIndexParser13InvokeCountOfINS_11Group42Var4EEEvRKNS_12HeaderRecordEtRKNS_9NumParserERKN7openpal6RSliceERNS_12IAPDUHandlerEEUlRSE_jE_E7ForeachERNS_8IVisitorIS3_EE, .-_ZNK8opendnp318BufferedCollectionINS_7IndexedINS_18AnalogOutputStatusEEEZNS_16CountIndexParser13InvokeCountOfINS_11Group42Var4EEEvRKNS_12HeaderRecordEtRKNS_9NumParserERKN7openpal6RSliceERNS_12IAPDUHandlerEEUlRSE_jE_E7ForeachERNS_8IVisitorIS3_EE
	.section	.text._ZNK8opendnp318BufferedCollectionINS_7IndexedINS_18AnalogOutputStatusEEEZNS_16CountIndexParser13InvokeCountOfINS_11Group42Var3EEEvRKNS_12HeaderRecordEtRKNS_9NumParserERKN7openpal6RSliceERNS_12IAPDUHandlerEEUlRSE_jE_E7ForeachERNS_8IVisitorIS3_EE,"axG",@progbits,_ZNK8opendnp318BufferedCollectionINS_7IndexedINS_18AnalogOutputStatusEEEZNS_16CountIndexParser13InvokeCountOfINS_11Group42Var3EEEvRKNS_12HeaderRecordEtRKNS_9NumParserERKN7openpal6RSliceERNS_12IAPDUHandlerEEUlRSE_jE_E7ForeachERNS_8IVisitorIS3_EE,comdat
	.align 2
	.p2align 4
	.weak	_ZNK8opendnp318BufferedCollectionINS_7IndexedINS_18AnalogOutputStatusEEEZNS_16CountIndexParser13InvokeCountOfINS_11Group42Var3EEEvRKNS_12HeaderRecordEtRKNS_9NumParserERKN7openpal6RSliceERNS_12IAPDUHandlerEEUlRSE_jE_E7ForeachERNS_8IVisitorIS3_EE
	.type	_ZNK8opendnp318BufferedCollectionINS_7IndexedINS_18AnalogOutputStatusEEEZNS_16CountIndexParser13InvokeCountOfINS_11Group42Var3EEEvRKNS_12HeaderRecordEtRKNS_9NumParserERKN7openpal6RSliceERNS_12IAPDUHandlerEEUlRSE_jE_E7ForeachERNS_8IVisitorIS3_EE, @function
_ZNK8opendnp318BufferedCollectionINS_7IndexedINS_18AnalogOutputStatusEEEZNS_16CountIndexParser13InvokeCountOfINS_11Group42Var3EEEvRKNS_12HeaderRecordEtRKNS_9NumParserERKN7openpal6RSliceERNS_12IAPDUHandlerEEUlRSE_jE_E7ForeachERNS_8IVisitorIS3_EE:
.LFB4013:
	.cfi_startproc
	endbr64
	pushq	%r15
	.cfi_def_cfa_offset 16
	.cfi_offset 15, -16
	pushq	%r14
	.cfi_def_cfa_offset 24
	.cfi_offset 14, -24
	pushq	%r13
	.cfi_def_cfa_offset 32
	.cfi_offset 13, -32
	pushq	%r12
	.cfi_def_cfa_offset 40
	.cfi_offset 12, -40
	pushq	%rbp
	.cfi_def_cfa_offset 48
	.cfi_offset 6, -48
	pushq	%rbx
	.cfi_def_cfa_offset 56
	.cfi_offset 3, -56
	subq	$72, %rsp
	.cfi_def_cfa_offset 128
	movdqu	8(%rdi), %xmm0
	movq	%fs:40, %rax
	movq	%rax, 56(%rsp)
	xorl	%eax, %eax
	cmpq	$0, 24(%rdi)
	movaps	%xmm0, (%rsp)
	je	.L374
	movq	%rdi, %r12
	movq	%rsi, %r13
	xorl	%ebp, %ebp
	movq	%rsp, %r14
	leaq	16(%rsp), %rbx
	.p2align 4,,10
	.p2align 3
.L376:
	movq	0(%r13), %rax
	movq	%rbx, %rdi
	movq	(%rax), %r15
	call	_ZN8opendnp318AnalogOutputStatusC1Ev@PLT
	movq	32(%r12), %rdi
	xorl	%eax, %eax
	movq	%r14, %rsi
	movw	%ax, 40(%rsp)
	call	_ZNK8opendnp39NumParser7ReadNumERN7openpal6RSliceE@PLT
	movq	%rbx, %rsi
	movq	%r14, %rdi
	movw	%ax, 40(%rsp)
	call	_ZN8opendnp311Group42Var310ReadTargetERN7openpal6RSliceERNS_18AnalogOutputStatusE@PLT
	movq	%rbx, %rsi
