	.file	"RangeParser.cpp"
	.text
	.section	.text._ZN7openpal12StaticBufferILj255EED2Ev,"axG",@progbits,_ZN7openpal12StaticBufferILj255EED5Ev,comdat
	.align 2
	.p2align 4
	.weak	_ZN7openpal12StaticBufferILj255EED2Ev
	.type	_ZN7openpal12StaticBufferILj255EED2Ev, @function
_ZN7openpal12StaticBufferILj255EED2Ev:
.LFB2765:
	.cfi_startproc
	endbr64
	ret
	.cfi_endproc
.LFE2765:
	.size	_ZN7openpal12StaticBufferILj255EED2Ev, .-_ZN7openpal12StaticBufferILj255EED2Ev
	.weak	_ZN7openpal12StaticBufferILj255EED1Ev
	.set	_ZN7openpal12StaticBufferILj255EED1Ev,_ZN7openpal12StaticBufferILj255EED2Ev
	.section	.text._ZNK8opendnp318BufferedCollectionINS_7IndexedINS_12Group121Var1EEEZNS_11RangeParser17InvokeRangeOfTypeIS2_EEvRKNS_12HeaderRecordERKNS_5RangeERKN7openpal6RSliceERNS_12IAPDUHandlerEEUlRSD_jE_E5CountEv,"axG",@progbits,_ZNK8opendnp318BufferedCollectionINS_7IndexedINS_12Group121Var1EEEZNS_11RangeParser17InvokeRangeOfTypeIS2_EEvRKNS_12HeaderRecordERKNS_5RangeERKN7openpal6RSliceERNS_12IAPDUHandlerEEUlRSD_jE_E5CountEv,comdat
	.align 2
	.p2align 4
	.weak	_ZNK8opendnp318BufferedCollectionINS_7IndexedINS_12Group121Var1EEEZNS_11RangeParser17InvokeRangeOfTypeIS2_EEvRKNS_12HeaderRecordERKNS_5RangeERKN7openpal6RSliceERNS_12IAPDUHandlerEEUlRSD_jE_E5CountEv
	.type	_ZNK8opendnp318BufferedCollectionINS_7IndexedINS_12Group121Var1EEEZNS_11RangeParser17InvokeRangeOfTypeIS2_EEvRKNS_12HeaderRecordERKNS_5RangeERKN7openpal6RSliceERNS_12IAPDUHandlerEEUlRSD_jE_E5CountEv, @function
_ZNK8opendnp318BufferedCollectionINS_7IndexedINS_12Group121Var1EEEZNS_11RangeParser17InvokeRangeOfTypeIS2_EEvRKNS_12HeaderRecordERKNS_5RangeERKN7openpal6RSliceERNS_12IAPDUHandlerEEUlRSD_jE_E5CountEv:
.LFB3610:
	.cfi_startproc
	endbr64
	movq	24(%rdi), %rax
	ret
	.cfi_endproc
.LFE3610:
	.size	_ZNK8opendnp318BufferedCollectionINS_7IndexedINS_12Group121Var1EEEZNS_11RangeParser17InvokeRangeOfTypeIS2_EEvRKNS_12HeaderRecordERKNS_5RangeERKN7openpal6RSliceERNS_12IAPDUHandlerEEUlRSD_jE_E5CountEv, .-_ZNK8opendnp318BufferedCollectionINS_7IndexedINS_12Group121Var1EEEZNS_11RangeParser17InvokeRangeOfTypeIS2_EEvRKNS_12HeaderRecordERKNS_5RangeERKN7openpal6RSliceERNS_12IAPDUHandlerEEUlRSD_jE_E5CountEv
	.section	.text._ZNK8opendnp318BufferedCollectionINS_7IndexedINS_8IINValueEEEZNS_11RangeParser23InvokeRangeBitfieldTypeIS2_EEvRKNS_12HeaderRecordERKNS_5RangeERKN7openpal6RSliceERNS_12IAPDUHandlerEEUlRSD_jE_E5CountEv,"axG",@progbits,_ZNK8opendnp318BufferedCollectionINS_7IndexedINS_8IINValueEEEZNS_11RangeParser23InvokeRangeBitfieldTypeIS2_EEvRKNS_12HeaderRecordERKNS_5RangeERKN7openpal6RSliceERNS_12IAPDUHandlerEEUlRSD_jE_E5CountEv,comdat
	.align 2
	.p2align 4
	.weak	_ZNK8opendnp318BufferedCollectionINS_7IndexedINS_8IINValueEEEZNS_11RangeParser23InvokeRangeBitfieldTypeIS2_EEvRKNS_12HeaderRecordERKNS_5RangeERKN7openpal6RSliceERNS_12IAPDUHandlerEEUlRSD_jE_E5CountEv
	.type	_ZNK8opendnp318BufferedCollectionINS_7IndexedINS_8IINValueEEEZNS_11RangeParser23InvokeRangeBitfieldTypeIS2_EEvRKNS_12HeaderRecordERKNS_5RangeERKN7openpal6RSliceERNS_12IAPDUHandlerEEUlRSD_jE_E5CountEv, @function
_ZNK8opendnp318BufferedCollectionINS_7IndexedINS_8IINValueEEEZNS_11RangeParser23InvokeRangeBitfieldTypeIS2_EEvRKNS_12HeaderRecordERKNS_5RangeERKN7openpal6RSliceERNS_12IAPDUHandlerEEUlRSD_jE_E5CountEv:
.LFB3612:
	.cfi_startproc
	endbr64
	movq	24(%rdi), %rax
	ret
	.cfi_endproc
.LFE3612:
	.size	_ZNK8opendnp318BufferedCollectionINS_7IndexedINS_8IINValueEEEZNS_11RangeParser23InvokeRangeBitfieldTypeIS2_EEvRKNS_12HeaderRecordERKNS_5RangeERKN7openpal6RSliceERNS_12IAPDUHandlerEEUlRSD_jE_E5CountEv, .-_ZNK8opendnp318BufferedCollectionINS_7IndexedINS_8IINValueEEEZNS_11RangeParser23InvokeRangeBitfieldTypeIS2_EEvRKNS_12HeaderRecordERKNS_5RangeERKN7openpal6RSliceERNS_12IAPDUHandlerEEUlRSD_jE_E5CountEv
	.section	.text._ZNK8opendnp318BufferedCollectionINS_7IndexedINS_15TimeAndIntervalEEEZNS_11RangeParser13InvokeRangeOfINS_11Group50Var4EEEvRKNS_12HeaderRecordERKNS_5RangeERKN7openpal6RSliceERNS_12IAPDUHandlerEEUlRSE_jE_E5CountEv,"axG",@progbits,_ZNK8opendnp318BufferedCollectionINS_7IndexedINS_15TimeAndIntervalEEEZNS_11RangeParser13InvokeRangeOfINS_11Group50Var4EEEvRKNS_12HeaderRecordERKNS_5RangeERKN7openpal6RSliceERNS_12IAPDUHandlerEEUlRSE_jE_E5CountEv,comdat
	.align 2
	.p2align 4
	.weak	_ZNK8opendnp318BufferedCollectionINS_7IndexedINS_15TimeAndIntervalEEEZNS_11RangeParser13InvokeRangeOfINS_11Group50Var4EEEvRKNS_12HeaderRecordERKNS_5RangeERKN7openpal6RSliceERNS_12IAPDUHandlerEEUlRSE_jE_E5CountEv
	.type	_ZNK8opendnp318BufferedCollectionINS_7IndexedINS_15TimeAndIntervalEEEZNS_11RangeParser13InvokeRangeOfINS_11Group50Var4EEEvRKNS_12HeaderRecordERKNS_5RangeERKN7openpal6RSliceERNS_12IAPDUHandlerEEUlRSE_jE_E5CountEv, @function
_ZNK8opendnp318BufferedCollectionINS_7IndexedINS_15TimeAndIntervalEEEZNS_11RangeParser13InvokeRangeOfINS_11Group50Var4EEEvRKNS_12HeaderRecordERKNS_5RangeERKN7openpal6RSliceERNS_12IAPDUHandlerEEUlRSE_jE_E5CountEv:
.LFB3614:
	.cfi_startproc
	endbr64
	movq	24(%rdi), %rax
	ret
	.cfi_endproc
.LFE3614:
	.size	_ZNK8opendnp318BufferedCollectionINS_7IndexedINS_15TimeAndIntervalEEEZNS_11RangeParser13InvokeRangeOfINS_11Group50Var4EEEvRKNS_12HeaderRecordERKNS_5RangeERKN7openpal6RSliceERNS_12IAPDUHandlerEEUlRSE_jE_E5CountEv, .-_ZNK8opendnp318BufferedCollectionINS_7IndexedINS_15TimeAndIntervalEEEZNS_11RangeParser13InvokeRangeOfINS_11Group50Var4EEEvRKNS_12HeaderRecordERKNS_5RangeERKN7openpal6RSliceERNS_12IAPDUHandlerEEUlRSE_jE_E5CountEv
	.section	.text._ZNK8opendnp318BufferedCollectionINS_7IndexedINS_18AnalogOutputStatusEEEZNS_11RangeParser13InvokeRangeOfINS_11Group40Var4EEEvRKNS_12HeaderRecordERKNS_5RangeERKN7openpal6RSliceERNS_12IAPDUHandlerEEUlRSE_jE_E5CountEv,"axG",@progbits,_ZNK8opendnp318BufferedCollectionINS_7IndexedINS_18AnalogOutputStatusEEEZNS_11RangeParser13InvokeRangeOfINS_11Group40Var4EEEvRKNS_12HeaderRecordERKNS_5RangeERKN7openpal6RSliceERNS_12IAPDUHandlerEEUlRSE_jE_E5CountEv,comdat
	.align 2
	.p2align 4
	.weak	_ZNK8opendnp318BufferedCollectionINS_7IndexedINS_18AnalogOutputStatusEEEZNS_11RangeParser13InvokeRangeOfINS_11Group40Var4EEEvRKNS_12HeaderRecordERKNS_5RangeERKN7openpal6RSliceERNS_12IAPDUHandlerEEUlRSE_jE_E5CountEv
	.type	_ZNK8opendnp318BufferedCollectionINS_7IndexedINS_18AnalogOutputStatusEEEZNS_11RangeParser13InvokeRangeOfINS_11Group40Var4EEEvRKNS_12HeaderRecordERKNS_5RangeERKN7openpal6RSliceERNS_12IAPDUHandlerEEUlRSE_jE_E5CountEv, @function
_ZNK8opendnp318BufferedCollectionINS_7IndexedINS_18AnalogOutputStatusEEEZNS_11RangeParser13InvokeRangeOfINS_11Group40Var4EEEvRKNS_12HeaderRecordERKNS_5RangeERKN7openpal6RSliceERNS_12IAPDUHandlerEEUlRSE_jE_E5CountEv:
.LFB3616:
	.cfi_startproc
	endbr64
	movq	24(%rdi), %rax
	ret
	.cfi_endproc
.LFE3616:
	.size	_ZNK8opendnp318BufferedCollectionINS_7IndexedINS_18AnalogOutputStatusEEEZNS_11RangeParser13InvokeRangeOfINS_11Group40Var4EEEvRKNS_12HeaderRecordERKNS_5RangeERKN7openpal6RSliceERNS_12IAPDUHandlerEEUlRSE_jE_E5CountEv, .-_ZNK8opendnp318BufferedCollectionINS_7IndexedINS_18AnalogOutputStatusEEEZNS_11RangeParser13InvokeRangeOfINS_11Group40Var4EEEvRKNS_12HeaderRecordERKNS_5RangeERKN7openpal6RSliceERNS_12IAPDUHandlerEEUlRSE_jE_E5CountEv
	.section	.text._ZNK8opendnp318BufferedCollectionINS_7IndexedINS_18AnalogOutputStatusEEEZNS_11RangeParser13InvokeRangeOfINS_11Group40Var3EEEvRKNS_12HeaderRecordERKNS_5RangeERKN7openpal6RSliceERNS_12IAPDUHandlerEEUlRSE_jE_E5CountEv,"axG",@progbits,_ZNK8opendnp318BufferedCollectionINS_7IndexedINS_18AnalogOutputStatusEEEZNS_11RangeParser13InvokeRangeOfINS_11Group40Var3EEEvRKNS_12HeaderRecordERKNS_5RangeERKN7openpal6RSliceERNS_12IAPDUHandlerEEUlRSE_jE_E5CountEv,comdat
	.align 2
	.p2align 4
	.weak	_ZNK8opendnp318BufferedCollectionINS_7IndexedINS_18AnalogOutputStatusEEEZNS_11RangeParser13InvokeRangeOfINS_11Group40Var3EEEvRKNS_12HeaderRecordERKNS_5RangeERKN7openpal6RSliceERNS_12IAPDUHandlerEEUlRSE_jE_E5CountEv
	.type	_ZNK8opendnp318BufferedCollectionINS_7IndexedINS_18AnalogOutputStatusEEEZNS_11RangeParser13InvokeRangeOfINS_11Group40Var3EEEvRKNS_12HeaderRecordERKNS_5RangeERKN7openpal6RSliceERNS_12IAPDUHandlerEEUlRSE_jE_E5CountEv, @function
_ZNK8opendnp318BufferedCollectionINS_7IndexedINS_18AnalogOutputStatusEEEZNS_11RangeParser13InvokeRangeOfINS_11Group40Var3EEEvRKNS_12HeaderRecordERKNS_5RangeERKN7openpal6RSliceERNS_12IAPDUHandlerEEUlRSE_jE_E5CountEv:
.LFB3618:
	.cfi_startproc
	endbr64
	movq	24(%rdi), %rax
	ret
	.cfi_endproc
.LFE3618:
	.size	_ZNK8opendnp318BufferedCollectionINS_7IndexedINS_18AnalogOutputStatusEEEZNS_11RangeParser13InvokeRangeOfINS_11Group40Var3EEEvRKNS_12HeaderRecordERKNS_5RangeERKN7openpal6RSliceERNS_12IAPDUHandlerEEUlRSE_jE_E5CountEv, .-_ZNK8opendnp318BufferedCollectionINS_7IndexedINS_18AnalogOutputStatusEEEZNS_11RangeParser13InvokeRangeOfINS_11Group40Var3EEEvRKNS_12HeaderRecordERKNS_5RangeERKN7openpal6RSliceERNS_12IAPDUHandlerEEUlRSE_jE_E5CountEv
	.section	.text._ZNK8opendnp318BufferedCollectionINS_7IndexedINS_18AnalogOutputStatusEEEZNS_11RangeParser13InvokeRangeOfINS_11Group40Var2EEEvRKNS_12HeaderRecordERKNS_5RangeERKN7openpal6RSliceERNS_12IAPDUHandlerEEUlRSE_jE_E5CountEv,"axG",@progbits,_ZNK8opendnp318BufferedCollectionINS_7IndexedINS_18AnalogOutputStatusEEEZNS_11RangeParser13InvokeRangeOfINS_11Group40Var2EEEvRKNS_12HeaderRecordERKNS_5RangeERKN7openpal6RSliceERNS_12IAPDUHandlerEEUlRSE_jE_E5CountEv,comdat
	.align 2
	.p2align 4
	.weak	_ZNK8opendnp318BufferedCollectionINS_7IndexedINS_18AnalogOutputStatusEEEZNS_11RangeParser13InvokeRangeOfINS_11Group40Var2EEEvRKNS_12HeaderRecordERKNS_5RangeERKN7openpal6RSliceERNS_12IAPDUHandlerEEUlRSE_jE_E5CountEv
	.type	_ZNK8opendnp318BufferedCollectionINS_7IndexedINS_18AnalogOutputStatusEEEZNS_11RangeParser13InvokeRangeOfINS_11Group40Var2EEEvRKNS_12HeaderRecordERKNS_5RangeERKN7openpal6RSliceERNS_12IAPDUHandlerEEUlRSE_jE_E5CountEv, @function
_ZNK8opendnp318BufferedCollectionINS_7IndexedINS_18AnalogOutputStatusEEEZNS_11RangeParser13InvokeRangeOfINS_11Group40Var2EEEvRKNS_12HeaderRecordERKNS_5RangeERKN7openpal6RSliceERNS_12IAPDUHandlerEEUlRSE_jE_E5CountEv:
.LFB3620:
	.cfi_startproc
	endbr64
	movq	24(%rdi), %rax
	ret
	.cfi_endproc
.LFE3620:
	.size	_ZNK8opendnp318BufferedCollectionINS_7IndexedINS_18AnalogOutputStatusEEEZNS_11RangeParser13InvokeRangeOfINS_11Group40Var2EEEvRKNS_12HeaderRecordERKNS_5RangeERKN7openpal6RSliceERNS_12IAPDUHandlerEEUlRSE_jE_E5CountEv, .-_ZNK8opendnp318BufferedCollectionINS_7IndexedINS_18AnalogOutputStatusEEEZNS_11RangeParser13InvokeRangeOfINS_11Group40Var2EEEvRKNS_12HeaderRecordERKNS_5RangeERKN7openpal6RSliceERNS_12IAPDUHandlerEEUlRSE_jE_E5CountEv
	.section	.text._ZNK8opendnp318BufferedCollectionINS_7IndexedINS_18AnalogOutputStatusEEEZNS_11RangeParser13InvokeRangeOfINS_11Group40Var1EEEvRKNS_12HeaderRecordERKNS_5RangeERKN7openpal6RSliceERNS_12IAPDUHandlerEEUlRSE_jE_E5CountEv,"axG",@progbits,_ZNK8opendnp318BufferedCollectionINS_7IndexedINS_18AnalogOutputStatusEEEZNS_11RangeParser13InvokeRangeOfINS_11Group40Var1EEEvRKNS_12HeaderRecordERKNS_5RangeERKN7openpal6RSliceERNS_12IAPDUHandlerEEUlRSE_jE_E5CountEv,comdat
	.align 2
	.p2align 4
	.weak	_ZNK8opendnp318BufferedCollectionINS_7IndexedINS_18AnalogOutputStatusEEEZNS_11RangeParser13InvokeRangeOfINS_11Group40Var1EEEvRKNS_12HeaderRecordERKNS_5RangeERKN7openpal6RSliceERNS_12IAPDUHandlerEEUlRSE_jE_E5CountEv
	.type	_ZNK8opendnp318BufferedCollectionINS_7IndexedINS_18AnalogOutputStatusEEEZNS_11RangeParser13InvokeRangeOfINS_11Group40Var1EEEvRKNS_12HeaderRecordERKNS_5RangeERKN7openpal6RSliceERNS_12IAPDUHandlerEEUlRSE_jE_E5CountEv, @function
_ZNK8opendnp318BufferedCollectionINS_7IndexedINS_18AnalogOutputStatusEEEZNS_11RangeParser13InvokeRangeOfINS_11Group40Var1EEEvRKNS_12HeaderRecordERKNS_5RangeERKN7openpal6RSliceERNS_12IAPDUHandlerEEUlRSE_jE_E5CountEv:
.LFB3622:
	.cfi_startproc
	endbr64
	movq	24(%rdi), %rax
	ret
	.cfi_endproc
.LFE3622:
	.size	_ZNK8opendnp318BufferedCollectionINS_7IndexedINS_18AnalogOutputStatusEEEZNS_11RangeParser13InvokeRangeOfINS_11Group40Var1EEEvRKNS_12HeaderRecordERKNS_5RangeERKN7openpal6RSliceERNS_12IAPDUHandlerEEUlRSE_jE_E5CountEv, .-_ZNK8opendnp318BufferedCollectionINS_7IndexedINS_18AnalogOutputStatusEEEZNS_11RangeParser13InvokeRangeOfINS_11Group40Var1EEEvRKNS_12HeaderRecordERKNS_5RangeERKN7openpal6RSliceERNS_12IAPDUHandlerEEUlRSE_jE_E5CountEv
	.section	.text._ZNK8opendnp318BufferedCollectionINS_7IndexedINS_6AnalogEEEZNS_11RangeParser13InvokeRangeOfINS_11Group30Var6EEEvRKNS_12HeaderRecordERKNS_5RangeERKN7openpal6RSliceERNS_12IAPDUHandlerEEUlRSE_jE_E5CountEv,"axG",@progbits,_ZNK8opendnp318BufferedCollectionINS_7IndexedINS_6AnalogEEEZNS_11RangeParser13InvokeRangeOfINS_11Group30Var6EEEvRKNS_12HeaderRecordERKNS_5RangeERKN7openpal6RSliceERNS_12IAPDUHandlerEEUlRSE_jE_E5CountEv,comdat
	.align 2
	.p2align 4
	.weak	_ZNK8opendnp318BufferedCollectionINS_7IndexedINS_6AnalogEEEZNS_11RangeParser13InvokeRangeOfINS_11Group30Var6EEEvRKNS_12HeaderRecordERKNS_5RangeERKN7openpal6RSliceERNS_12IAPDUHandlerEEUlRSE_jE_E5CountEv
	.type	_ZNK8opendnp318BufferedCollectionINS_7IndexedINS_6AnalogEEEZNS_11RangeParser13InvokeRangeOfINS_11Group30Var6EEEvRKNS_12HeaderRecordERKNS_5RangeERKN7openpal6RSliceERNS_12IAPDUHandlerEEUlRSE_jE_E5CountEv, @function
_ZNK8opendnp318BufferedCollectionINS_7IndexedINS_6AnalogEEEZNS_11RangeParser13InvokeRangeOfINS_11Group30Var6EEEvRKNS_12HeaderRecordERKNS_5RangeERKN7openpal6RSliceERNS_12IAPDUHandlerEEUlRSE_jE_E5CountEv:
.LFB3624:
	.cfi_startproc
	endbr64
	movq	24(%rdi), %rax
	ret
	.cfi_endproc
.LFE3624:
	.size	_ZNK8opendnp318BufferedCollectionINS_7IndexedINS_6AnalogEEEZNS_11RangeParser13InvokeRangeOfINS_11Group30Var6EEEvRKNS_12HeaderRecordERKNS_5RangeERKN7openpal6RSliceERNS_12IAPDUHandlerEEUlRSE_jE_E5CountEv, .-_ZNK8opendnp318BufferedCollectionINS_7IndexedINS_6AnalogEEEZNS_11RangeParser13InvokeRangeOfINS_11Group30Var6EEEvRKNS_12HeaderRecordERKNS_5RangeERKN7openpal6RSliceERNS_12IAPDUHandlerEEUlRSE_jE_E5CountEv
	.section	.text._ZNK8opendnp318BufferedCollectionINS_7IndexedINS_6AnalogEEEZNS_11RangeParser13InvokeRangeOfINS_11Group30Var5EEEvRKNS_12HeaderRecordERKNS_5RangeERKN7openpal6RSliceERNS_12IAPDUHandlerEEUlRSE_jE_E5CountEv,"axG",@progbits,_ZNK8opendnp318BufferedCollectionINS_7IndexedINS_6AnalogEEEZNS_11RangeParser13InvokeRangeOfINS_11Group30Var5EEEvRKNS_12HeaderRecordERKNS_5RangeERKN7openpal6RSliceERNS_12IAPDUHandlerEEUlRSE_jE_E5CountEv,comdat
	.align 2
	.p2align 4
	.weak	_ZNK8opendnp318BufferedCollectionINS_7IndexedINS_6AnalogEEEZNS_11RangeParser13InvokeRangeOfINS_11Group30Var5EEEvRKNS_12HeaderRecordERKNS_5RangeERKN7openpal6RSliceERNS_12IAPDUHandlerEEUlRSE_jE_E5CountEv
	.type	_ZNK8opendnp318BufferedCollectionINS_7IndexedINS_6AnalogEEEZNS_11RangeParser13InvokeRangeOfINS_11Group30Var5EEEvRKNS_12HeaderRecordERKNS_5RangeERKN7openpal6RSliceERNS_12IAPDUHandlerEEUlRSE_jE_E5CountEv, @function
_ZNK8opendnp318BufferedCollectionINS_7IndexedINS_6AnalogEEEZNS_11RangeParser13InvokeRangeOfINS_11Group30Var5EEEvRKNS_12HeaderRecordERKNS_5RangeERKN7openpal6RSliceERNS_12IAPDUHandlerEEUlRSE_jE_E5CountEv:
.LFB3626:
	.cfi_startproc
	endbr64
	movq	24(%rdi), %rax
	ret
	.cfi_endproc
.LFE3626:
	.size	_ZNK8opendnp318BufferedCollectionINS_7IndexedINS_6AnalogEEEZNS_11RangeParser13InvokeRangeOfINS_11Group30Var5EEEvRKNS_12HeaderRecordERKNS_5RangeERKN7openpal6RSliceERNS_12IAPDUHandlerEEUlRSE_jE_E5CountEv, .-_ZNK8opendnp318BufferedCollectionINS_7IndexedINS_6AnalogEEEZNS_11RangeParser13InvokeRangeOfINS_11Group30Var5EEEvRKNS_12HeaderRecordERKNS_5RangeERKN7openpal6RSliceERNS_12IAPDUHandlerEEUlRSE_jE_E5CountEv
	.section	.text._ZNK8opendnp318BufferedCollectionINS_7IndexedINS_6AnalogEEEZNS_11RangeParser13InvokeRangeOfINS_11Group30Var4EEEvRKNS_12HeaderRecordERKNS_5RangeERKN7openpal6RSliceERNS_12IAPDUHandlerEEUlRSE_jE_E5CountEv,"axG",@progbits,_ZNK8opendnp318BufferedCollectionINS_7IndexedINS_6AnalogEEEZNS_11RangeParser13InvokeRangeOfINS_11Group30Var4EEEvRKNS_12HeaderRecordERKNS_5RangeERKN7openpal6RSliceERNS_12IAPDUHandlerEEUlRSE_jE_E5CountEv,comdat
	.align 2
	.p2align 4
	.weak	_ZNK8opendnp318BufferedCollectionINS_7IndexedINS_6AnalogEEEZNS_11RangeParser13InvokeRangeOfINS_11Group30Var4EEEvRKNS_12HeaderRecordERKNS_5RangeERKN7openpal6RSliceERNS_12IAPDUHandlerEEUlRSE_jE_E5CountEv
	.type	_ZNK8opendnp318BufferedCollectionINS_7IndexedINS_6AnalogEEEZNS_11RangeParser13InvokeRangeOfINS_11Group30Var4EEEvRKNS_12HeaderRecordERKNS_5RangeERKN7openpal6RSliceERNS_12IAPDUHandlerEEUlRSE_jE_E5CountEv, @function
_ZNK8opendnp318BufferedCollectionINS_7IndexedINS_6AnalogEEEZNS_11RangeParser13InvokeRangeOfINS_11Group30Var4EEEvRKNS_12HeaderRecordERKNS_5RangeERKN7openpal6RSliceERNS_12IAPDUHandlerEEUlRSE_jE_E5CountEv:
.LFB3628:
	.cfi_startproc
	endbr64
	movq	24(%rdi), %rax
	ret
	.cfi_endproc
.LFE3628:
	.size	_ZNK8opendnp318BufferedCollectionINS_7IndexedINS_6AnalogEEEZNS_11RangeParser13InvokeRangeOfINS_11Group30Var4EEEvRKNS_12HeaderRecordERKNS_5RangeERKN7openpal6RSliceERNS_12IAPDUHandlerEEUlRSE_jE_E5CountEv, .-_ZNK8opendnp318BufferedCollectionINS_7IndexedINS_6AnalogEEEZNS_11RangeParser13InvokeRangeOfINS_11Group30Var4EEEvRKNS_12HeaderRecordERKNS_5RangeERKN7openpal6RSliceERNS_12IAPDUHandlerEEUlRSE_jE_E5CountEv
	.section	.text._ZNK8opendnp318BufferedCollectionINS_7IndexedINS_6AnalogEEEZNS_11RangeParser13InvokeRangeOfINS_11Group30Var3EEEvRKNS_12HeaderRecordERKNS_5RangeERKN7openpal6RSliceERNS_12IAPDUHandlerEEUlRSE_jE_E5CountEv,"axG",@progbits,_ZNK8opendnp318BufferedCollectionINS_7IndexedINS_6AnalogEEEZNS_11RangeParser13InvokeRangeOfINS_11Group30Var3EEEvRKNS_12HeaderRecordERKNS_5RangeERKN7openpal6RSliceERNS_12IAPDUHandlerEEUlRSE_jE_E5CountEv,comdat
	.align 2
	.p2align 4
	.weak	_ZNK8opendnp318BufferedCollectionINS_7IndexedINS_6AnalogEEEZNS_11RangeParser13InvokeRangeOfINS_11Group30Var3EEEvRKNS_12HeaderRecordERKNS_5RangeERKN7openpal6RSliceERNS_12IAPDUHandlerEEUlRSE_jE_E5CountEv
	.type	_ZNK8opendnp318BufferedCollectionINS_7IndexedINS_6AnalogEEEZNS_11RangeParser13InvokeRangeOfINS_11Group30Var3EEEvRKNS_12HeaderRecordERKNS_5RangeERKN7openpal6RSliceERNS_12IAPDUHandlerEEUlRSE_jE_E5CountEv, @function
_ZNK8opendnp318BufferedCollectionINS_7IndexedINS_6AnalogEEEZNS_11RangeParser13InvokeRangeOfINS_11Group30Var3EEEvRKNS_12HeaderRecordERKNS_5RangeERKN7openpal6RSliceERNS_12IAPDUHandlerEEUlRSE_jE_E5CountEv:
.LFB3630:
	.cfi_startproc
	endbr64
	movq	24(%rdi), %rax
	ret
	.cfi_endproc
.LFE3630:
	.size	_ZNK8opendnp318BufferedCollectionINS_7IndexedINS_6AnalogEEEZNS_11RangeParser13InvokeRangeOfINS_11Group30Var3EEEvRKNS_12HeaderRecordERKNS_5RangeERKN7openpal6RSliceERNS_12IAPDUHandlerEEUlRSE_jE_E5CountEv, .-_ZNK8opendnp318BufferedCollectionINS_7IndexedINS_6AnalogEEEZNS_11RangeParser13InvokeRangeOfINS_11Group30Var3EEEvRKNS_12HeaderRecordERKNS_5RangeERKN7openpal6RSliceERNS_12IAPDUHandlerEEUlRSE_jE_E5CountEv
	.section	.text._ZNK8opendnp318BufferedCollectionINS_7IndexedINS_6AnalogEEEZNS_11RangeParser13InvokeRangeOfINS_11Group30Var2EEEvRKNS_12HeaderRecordERKNS_5RangeERKN7openpal6RSliceERNS_12IAPDUHandlerEEUlRSE_jE_E5CountEv,"axG",@progbits,_ZNK8opendnp318BufferedCollectionINS_7IndexedINS_6AnalogEEEZNS_11RangeParser13InvokeRangeOfINS_11Group30Var2EEEvRKNS_12HeaderRecordERKNS_5RangeERKN7openpal6RSliceERNS_12IAPDUHandlerEEUlRSE_jE_E5CountEv,comdat
	.align 2
	.p2align 4
	.weak	_ZNK8opendnp318BufferedCollectionINS_7IndexedINS_6AnalogEEEZNS_11RangeParser13InvokeRangeOfINS_11Group30Var2EEEvRKNS_12HeaderRecordERKNS_5RangeERKN7openpal6RSliceERNS_12IAPDUHandlerEEUlRSE_jE_E5CountEv
	.type	_ZNK8opendnp318BufferedCollectionINS_7IndexedINS_6AnalogEEEZNS_11RangeParser13InvokeRangeOfINS_11Group30Var2EEEvRKNS_12HeaderRecordERKNS_5RangeERKN7openpal6RSliceERNS_12IAPDUHandlerEEUlRSE_jE_E5CountEv, @function
_ZNK8opendnp318BufferedCollectionINS_7IndexedINS_6AnalogEEEZNS_11RangeParser13InvokeRangeOfINS_11Group30Var2EEEvRKNS_12HeaderRecordERKNS_5RangeERKN7openpal6RSliceERNS_12IAPDUHandlerEEUlRSE_jE_E5CountEv:
.LFB3632:
	.cfi_startproc
	endbr64
	movq	24(%rdi), %rax
	ret
	.cfi_endproc
.LFE3632:
	.size	_ZNK8opendnp318BufferedCollectionINS_7IndexedINS_6AnalogEEEZNS_11RangeParser13InvokeRangeOfINS_11Group30Var2EEEvRKNS_12HeaderRecordERKNS_5RangeERKN7openpal6RSliceERNS_12IAPDUHandlerEEUlRSE_jE_E5CountEv, .-_ZNK8opendnp318BufferedCollectionINS_7IndexedINS_6AnalogEEEZNS_11RangeParser13InvokeRangeOfINS_11Group30Var2EEEvRKNS_12HeaderRecordERKNS_5RangeERKN7openpal6RSliceERNS_12IAPDUHandlerEEUlRSE_jE_E5CountEv
	.section	.text._ZNK8opendnp318BufferedCollectionINS_7IndexedINS_6AnalogEEEZNS_11RangeParser13InvokeRangeOfINS_11Group30Var1EEEvRKNS_12HeaderRecordERKNS_5RangeERKN7openpal6RSliceERNS_12IAPDUHandlerEEUlRSE_jE_E5CountEv,"axG",@progbits,_ZNK8opendnp318BufferedCollectionINS_7IndexedINS_6AnalogEEEZNS_11RangeParser13InvokeRangeOfINS_11Group30Var1EEEvRKNS_12HeaderRecordERKNS_5RangeERKN7openpal6RSliceERNS_12IAPDUHandlerEEUlRSE_jE_E5CountEv,comdat
	.align 2
	.p2align 4
	.weak	_ZNK8opendnp318BufferedCollectionINS_7IndexedINS_6AnalogEEEZNS_11RangeParser13InvokeRangeOfINS_11Group30Var1EEEvRKNS_12HeaderRecordERKNS_5RangeERKN7openpal6RSliceERNS_12IAPDUHandlerEEUlRSE_jE_E5CountEv
	.type	_ZNK8opendnp318BufferedCollectionINS_7IndexedINS_6AnalogEEEZNS_11RangeParser13InvokeRangeOfINS_11Group30Var1EEEvRKNS_12HeaderRecordERKNS_5RangeERKN7openpal6RSliceERNS_12IAPDUHandlerEEUlRSE_jE_E5CountEv, @function
_ZNK8opendnp318BufferedCollectionINS_7IndexedINS_6AnalogEEEZNS_11RangeParser13InvokeRangeOfINS_11Group30Var1EEEvRKNS_12HeaderRecordERKNS_5RangeERKN7openpal6RSliceERNS_12IAPDUHandlerEEUlRSE_jE_E5CountEv:
.LFB3634:
	.cfi_startproc
	endbr64
	movq	24(%rdi), %rax
	ret
	.cfi_endproc
.LFE3634:
	.size	_ZNK8opendnp318BufferedCollectionINS_7IndexedINS_6AnalogEEEZNS_11RangeParser13InvokeRangeOfINS_11Group30Var1EEEvRKNS_12HeaderRecordERKNS_5RangeERKN7openpal6RSliceERNS_12IAPDUHandlerEEUlRSE_jE_E5CountEv, .-_ZNK8opendnp318BufferedCollectionINS_7IndexedINS_6AnalogEEEZNS_11RangeParser13InvokeRangeOfINS_11Group30Var1EEEvRKNS_12HeaderRecordERKNS_5RangeERKN7openpal6RSliceERNS_12IAPDUHandlerEEUlRSE_jE_E5CountEv
	.section	.text._ZNK8opendnp318BufferedCollectionINS_7IndexedINS_13FrozenCounterEEEZNS_11RangeParser13InvokeRangeOfINS_12Group21Var10EEEvRKNS_12HeaderRecordERKNS_5RangeERKN7openpal6RSliceERNS_12IAPDUHandlerEEUlRSE_jE_E5CountEv,"axG",@progbits,_ZNK8opendnp318BufferedCollectionINS_7IndexedINS_13FrozenCounterEEEZNS_11RangeParser13InvokeRangeOfINS_12Group21Var10EEEvRKNS_12HeaderRecordERKNS_5RangeERKN7openpal6RSliceERNS_12IAPDUHandlerEEUlRSE_jE_E5CountEv,comdat
	.align 2
	.p2align 4
	.weak	_ZNK8opendnp318BufferedCollectionINS_7IndexedINS_13FrozenCounterEEEZNS_11RangeParser13InvokeRangeOfINS_12Group21Var10EEEvRKNS_12HeaderRecordERKNS_5RangeERKN7openpal6RSliceERNS_12IAPDUHandlerEEUlRSE_jE_E5CountEv
	.type	_ZNK8opendnp318BufferedCollectionINS_7IndexedINS_13FrozenCounterEEEZNS_11RangeParser13InvokeRangeOfINS_12Group21Var10EEEvRKNS_12HeaderRecordERKNS_5RangeERKN7openpal6RSliceERNS_12IAPDUHandlerEEUlRSE_jE_E5CountEv, @function
_ZNK8opendnp318BufferedCollectionINS_7IndexedINS_13FrozenCounterEEEZNS_11RangeParser13InvokeRangeOfINS_12Group21Var10EEEvRKNS_12HeaderRecordERKNS_5RangeERKN7openpal6RSliceERNS_12IAPDUHandlerEEUlRSE_jE_E5CountEv:
.LFB3636:
	.cfi_startproc
	endbr64
	movq	24(%rdi), %rax
	ret
	.cfi_endproc
.LFE3636:
	.size	_ZNK8opendnp318BufferedCollectionINS_7IndexedINS_13FrozenCounterEEEZNS_11RangeParser13InvokeRangeOfINS_12Group21Var10EEEvRKNS_12HeaderRecordERKNS_5RangeERKN7openpal6RSliceERNS_12IAPDUHandlerEEUlRSE_jE_E5CountEv, .-_ZNK8opendnp318BufferedCollectionINS_7IndexedINS_13FrozenCounterEEEZNS_11RangeParser13InvokeRangeOfINS_12Group21Var10EEEvRKNS_12HeaderRecordERKNS_5RangeERKN7openpal6RSliceERNS_12IAPDUHandlerEEUlRSE_jE_E5CountEv
	.section	.text._ZNK8opendnp318BufferedCollectionINS_7IndexedINS_13FrozenCounterEEEZNS_11RangeParser13InvokeRangeOfINS_11Group21Var9EEEvRKNS_12HeaderRecordERKNS_5RangeERKN7openpal6RSliceERNS_12IAPDUHandlerEEUlRSE_jE_E5CountEv,"axG",@progbits,_ZNK8opendnp318BufferedCollectionINS_7IndexedINS_13FrozenCounterEEEZNS_11RangeParser13InvokeRangeOfINS_11Group21Var9EEEvRKNS_12HeaderRecordERKNS_5RangeERKN7openpal6RSliceERNS_12IAPDUHandlerEEUlRSE_jE_E5CountEv,comdat
	.align 2
	.p2align 4
	.weak	_ZNK8opendnp318BufferedCollectionINS_7IndexedINS_13FrozenCounterEEEZNS_11RangeParser13InvokeRangeOfINS_11Group21Var9EEEvRKNS_12HeaderRecordERKNS_5RangeERKN7openpal6RSliceERNS_12IAPDUHandlerEEUlRSE_jE_E5CountEv
	.type	_ZNK8opendnp318BufferedCollectionINS_7IndexedINS_13FrozenCounterEEEZNS_11RangeParser13InvokeRangeOfINS_11Group21Var9EEEvRKNS_12HeaderRecordERKNS_5RangeERKN7openpal6RSliceERNS_12IAPDUHandlerEEUlRSE_jE_E5CountEv, @function
_ZNK8opendnp318BufferedCollectionINS_7IndexedINS_13FrozenCounterEEEZNS_11RangeParser13InvokeRangeOfINS_11Group21Var9EEEvRKNS_12HeaderRecordERKNS_5RangeERKN7openpal6RSliceERNS_12IAPDUHandlerEEUlRSE_jE_E5CountEv:
.LFB3638:
	.cfi_startproc
	endbr64
	movq	24(%rdi), %rax
	ret
	.cfi_endproc
.LFE3638:
	.size	_ZNK8opendnp318BufferedCollectionINS_7IndexedINS_13FrozenCounterEEEZNS_11RangeParser13InvokeRangeOfINS_11Group21Var9EEEvRKNS_12HeaderRecordERKNS_5RangeERKN7openpal6RSliceERNS_12IAPDUHandlerEEUlRSE_jE_E5CountEv, .-_ZNK8opendnp318BufferedCollectionINS_7IndexedINS_13FrozenCounterEEEZNS_11RangeParser13InvokeRangeOfINS_11Group21Var9EEEvRKNS_12HeaderRecordERKNS_5RangeERKN7openpal6RSliceERNS_12IAPDUHandlerEEUlRSE_jE_E5CountEv
	.section	.text._ZNK8opendnp318BufferedCollectionINS_7IndexedINS_13FrozenCounterEEEZNS_11RangeParser13InvokeRangeOfINS_11Group21Var6EEEvRKNS_12HeaderRecordERKNS_5RangeERKN7openpal6RSliceERNS_12IAPDUHandlerEEUlRSE_jE_E5CountEv,"axG",@progbits,_ZNK8opendnp318BufferedCollectionINS_7IndexedINS_13FrozenCounterEEEZNS_11RangeParser13InvokeRangeOfINS_11Group21Var6EEEvRKNS_12HeaderRecordERKNS_5RangeERKN7openpal6RSliceERNS_12IAPDUHandlerEEUlRSE_jE_E5CountEv,comdat
	.align 2
	.p2align 4
	.weak	_ZNK8opendnp318BufferedCollectionINS_7IndexedINS_13FrozenCounterEEEZNS_11RangeParser13InvokeRangeOfINS_11Group21Var6EEEvRKNS_12HeaderRecordERKNS_5RangeERKN7openpal6RSliceERNS_12IAPDUHandlerEEUlRSE_jE_E5CountEv
	.type	_ZNK8opendnp318BufferedCollectionINS_7IndexedINS_13FrozenCounterEEEZNS_11RangeParser13InvokeRangeOfINS_11Group21Var6EEEvRKNS_12HeaderRecordERKNS_5RangeERKN7openpal6RSliceERNS_12IAPDUHandlerEEUlRSE_jE_E5CountEv, @function
_ZNK8opendnp318BufferedCollectionINS_7IndexedINS_13FrozenCounterEEEZNS_11RangeParser13InvokeRangeOfINS_11Group21Var6EEEvRKNS_12HeaderRecordERKNS_5RangeERKN7openpal6RSliceERNS_12IAPDUHandlerEEUlRSE_jE_E5CountEv:
.LFB3640:
	.cfi_startproc
	endbr64
	movq	24(%rdi), %rax
	ret
	.cfi_endproc
.LFE3640:
	.size	_ZNK8opendnp318BufferedCollectionINS_7IndexedINS_13FrozenCounterEEEZNS_11RangeParser13InvokeRangeOfINS_11Group21Var6EEEvRKNS_12HeaderRecordERKNS_5RangeERKN7openpal6RSliceERNS_12IAPDUHandlerEEUlRSE_jE_E5CountEv, .-_ZNK8opendnp318BufferedCollectionINS_7IndexedINS_13FrozenCounterEEEZNS_11RangeParser13InvokeRangeOfINS_11Group21Var6EEEvRKNS_12HeaderRecordERKNS_5RangeERKN7openpal6RSliceERNS_12IAPDUHandlerEEUlRSE_jE_E5CountEv
	.section	.text._ZNK8opendnp318BufferedCollectionINS_7IndexedINS_13FrozenCounterEEEZNS_11RangeParser13InvokeRangeOfINS_11Group21Var5EEEvRKNS_12HeaderRecordERKNS_5RangeERKN7openpal6RSliceERNS_12IAPDUHandlerEEUlRSE_jE_E5CountEv,"axG",@progbits,_ZNK8opendnp318BufferedCollectionINS_7IndexedINS_13FrozenCounterEEEZNS_11RangeParser13InvokeRangeOfINS_11Group21Var5EEEvRKNS_12HeaderRecordERKNS_5RangeERKN7openpal6RSliceERNS_12IAPDUHandlerEEUlRSE_jE_E5CountEv,comdat
	.align 2
	.p2align 4
	.weak	_ZNK8opendnp318BufferedCollectionINS_7IndexedINS_13FrozenCounterEEEZNS_11RangeParser13InvokeRangeOfINS_11Group21Var5EEEvRKNS_12HeaderRecordERKNS_5RangeERKN7openpal6RSliceERNS_12IAPDUHandlerEEUlRSE_jE_E5CountEv
	.type	_ZNK8opendnp318BufferedCollectionINS_7IndexedINS_13FrozenCounterEEEZNS_11RangeParser13InvokeRangeOfINS_11Group21Var5EEEvRKNS_12HeaderRecordERKNS_5RangeERKN7openpal6RSliceERNS_12IAPDUHandlerEEUlRSE_jE_E5CountEv, @function
_ZNK8opendnp318BufferedCollectionINS_7IndexedINS_13FrozenCounterEEEZNS_11RangeParser13InvokeRangeOfINS_11Group21Var5EEEvRKNS_12HeaderRecordERKNS_5RangeERKN7openpal6RSliceERNS_12IAPDUHandlerEEUlRSE_jE_E5CountEv:
.LFB3642:
	.cfi_startproc
	endbr64
	movq	24(%rdi), %rax
	ret
	.cfi_endproc
.LFE3642:
	.size	_ZNK8opendnp318BufferedCollectionINS_7IndexedINS_13FrozenCounterEEEZNS_11RangeParser13InvokeRangeOfINS_11Group21Var5EEEvRKNS_12HeaderRecordERKNS_5RangeERKN7openpal6RSliceERNS_12IAPDUHandlerEEUlRSE_jE_E5CountEv, .-_ZNK8opendnp318BufferedCollectionINS_7IndexedINS_13FrozenCounterEEEZNS_11RangeParser13InvokeRangeOfINS_11Group21Var5EEEvRKNS_12HeaderRecordERKNS_5RangeERKN7openpal6RSliceERNS_12IAPDUHandlerEEUlRSE_jE_E5CountEv
	.section	.text._ZNK8opendnp318BufferedCollectionINS_7IndexedINS_13FrozenCounterEEEZNS_11RangeParser13InvokeRangeOfINS_11Group21Var2EEEvRKNS_12HeaderRecordERKNS_5RangeERKN7openpal6RSliceERNS_12IAPDUHandlerEEUlRSE_jE_E5CountEv,"axG",@progbits,_ZNK8opendnp318BufferedCollectionINS_7IndexedINS_13FrozenCounterEEEZNS_11RangeParser13InvokeRangeOfINS_11Group21Var2EEEvRKNS_12HeaderRecordERKNS_5RangeERKN7openpal6RSliceERNS_12IAPDUHandlerEEUlRSE_jE_E5CountEv,comdat
	.align 2
	.p2align 4
	.weak	_ZNK8opendnp318BufferedCollectionINS_7IndexedINS_13FrozenCounterEEEZNS_11RangeParser13InvokeRangeOfINS_11Group21Var2EEEvRKNS_12HeaderRecordERKNS_5RangeERKN7openpal6RSliceERNS_12IAPDUHandlerEEUlRSE_jE_E5CountEv
	.type	_ZNK8opendnp318BufferedCollectionINS_7IndexedINS_13FrozenCounterEEEZNS_11RangeParser13InvokeRangeOfINS_11Group21Var2EEEvRKNS_12HeaderRecordERKNS_5RangeERKN7openpal6RSliceERNS_12IAPDUHandlerEEUlRSE_jE_E5CountEv, @function
_ZNK8opendnp318BufferedCollectionINS_7IndexedINS_13FrozenCounterEEEZNS_11RangeParser13InvokeRangeOfINS_11Group21Var2EEEvRKNS_12HeaderRecordERKNS_5RangeERKN7openpal6RSliceERNS_12IAPDUHandlerEEUlRSE_jE_E5CountEv:
.LFB3644:
	.cfi_startproc
	endbr64
	movq	24(%rdi), %rax
	ret
	.cfi_endproc
.LFE3644:
	.size	_ZNK8opendnp318BufferedCollectionINS_7IndexedINS_13FrozenCounterEEEZNS_11RangeParser13InvokeRangeOfINS_11Group21Var2EEEvRKNS_12HeaderRecordERKNS_5RangeERKN7openpal6RSliceERNS_12IAPDUHandlerEEUlRSE_jE_E5CountEv, .-_ZNK8opendnp318BufferedCollectionINS_7IndexedINS_13FrozenCounterEEEZNS_11RangeParser13InvokeRangeOfINS_11Group21Var2EEEvRKNS_12HeaderRecordERKNS_5RangeERKN7openpal6RSliceERNS_12IAPDUHandlerEEUlRSE_jE_E5CountEv
	.section	.text._ZNK8opendnp318BufferedCollectionINS_7IndexedINS_13FrozenCounterEEEZNS_11RangeParser13InvokeRangeOfINS_11Group21Var1EEEvRKNS_12HeaderRecordERKNS_5RangeERKN7openpal6RSliceERNS_12IAPDUHandlerEEUlRSE_jE_E5CountEv,"axG",@progbits,_ZNK8opendnp318BufferedCollectionINS_7IndexedINS_13FrozenCounterEEEZNS_11RangeParser13InvokeRangeOfINS_11Group21Var1EEEvRKNS_12HeaderRecordERKNS_5RangeERKN7openpal6RSliceERNS_12IAPDUHandlerEEUlRSE_jE_E5CountEv,comdat
	.align 2
	.p2align 4
	.weak	_ZNK8opendnp318BufferedCollectionINS_7IndexedINS_13FrozenCounterEEEZNS_11RangeParser13InvokeRangeOfINS_11Group21Var1EEEvRKNS_12HeaderRecordERKNS_5RangeERKN7openpal6RSliceERNS_12IAPDUHandlerEEUlRSE_jE_E5CountEv
	.type	_ZNK8opendnp318BufferedCollectionINS_7IndexedINS_13FrozenCounterEEEZNS_11RangeParser13InvokeRangeOfINS_11Group21Var1EEEvRKNS_12HeaderRecordERKNS_5RangeERKN7openpal6RSliceERNS_12IAPDUHandlerEEUlRSE_jE_E5CountEv, @function
_ZNK8opendnp318BufferedCollectionINS_7IndexedINS_13FrozenCounterEEEZNS_11RangeParser13InvokeRangeOfINS_11Group21Var1EEEvRKNS_12HeaderRecordERKNS_5RangeERKN7openpal6RSliceERNS_12IAPDUHandlerEEUlRSE_jE_E5CountEv:
.LFB3646:
	.cfi_startproc
	endbr64
	movq	24(%rdi), %rax
	ret
	.cfi_endproc
.LFE3646:
	.size	_ZNK8opendnp318BufferedCollectionINS_7IndexedINS_13FrozenCounterEEEZNS_11RangeParser13InvokeRangeOfINS_11Group21Var1EEEvRKNS_12HeaderRecordERKNS_5RangeERKN7openpal6RSliceERNS_12IAPDUHandlerEEUlRSE_jE_E5CountEv, .-_ZNK8opendnp318BufferedCollectionINS_7IndexedINS_13FrozenCounterEEEZNS_11RangeParser13InvokeRangeOfINS_11Group21Var1EEEvRKNS_12HeaderRecordERKNS_5RangeERKN7openpal6RSliceERNS_12IAPDUHandlerEEUlRSE_jE_E5CountEv
	.section	.text._ZNK8opendnp318BufferedCollectionINS_7IndexedINS_7CounterEEEZNS_11RangeParser13InvokeRangeOfINS_11Group20Var6EEEvRKNS_12HeaderRecordERKNS_5RangeERKN7openpal6RSliceERNS_12IAPDUHandlerEEUlRSE_jE_E5CountEv,"axG",@progbits,_ZNK8opendnp318BufferedCollectionINS_7IndexedINS_7CounterEEEZNS_11RangeParser13InvokeRangeOfINS_11Group20Var6EEEvRKNS_12HeaderRecordERKNS_5RangeERKN7openpal6RSliceERNS_12IAPDUHandlerEEUlRSE_jE_E5CountEv,comdat
	.align 2
	.p2align 4
	.weak	_ZNK8opendnp318BufferedCollectionINS_7IndexedINS_7CounterEEEZNS_11RangeParser13InvokeRangeOfINS_11Group20Var6EEEvRKNS_12HeaderRecordERKNS_5RangeERKN7openpal6RSliceERNS_12IAPDUHandlerEEUlRSE_jE_E5CountEv
	.type	_ZNK8opendnp318BufferedCollectionINS_7IndexedINS_7CounterEEEZNS_11RangeParser13InvokeRangeOfINS_11Group20Var6EEEvRKNS_12HeaderRecordERKNS_5RangeERKN7openpal6RSliceERNS_12IAPDUHandlerEEUlRSE_jE_E5CountEv, @function
_ZNK8opendnp318BufferedCollectionINS_7IndexedINS_7CounterEEEZNS_11RangeParser13InvokeRangeOfINS_11Group20Var6EEEvRKNS_12HeaderRecordERKNS_5RangeERKN7openpal6RSliceERNS_12IAPDUHandlerEEUlRSE_jE_E5CountEv:
.LFB3648:
	.cfi_startproc
	endbr64
	movq	24(%rdi), %rax
	ret
	.cfi_endproc
.LFE3648:
	.size	_ZNK8opendnp318BufferedCollectionINS_7IndexedINS_7CounterEEEZNS_11RangeParser13InvokeRangeOfINS_11Group20Var6EEEvRKNS_12HeaderRecordERKNS_5RangeERKN7openpal6RSliceERNS_12IAPDUHandlerEEUlRSE_jE_E5CountEv, .-_ZNK8opendnp318BufferedCollectionINS_7IndexedINS_7CounterEEEZNS_11RangeParser13InvokeRangeOfINS_11Group20Var6EEEvRKNS_12HeaderRecordERKNS_5RangeERKN7openpal6RSliceERNS_12IAPDUHandlerEEUlRSE_jE_E5CountEv
	.section	.text._ZNK8opendnp318BufferedCollectionINS_7IndexedINS_7CounterEEEZNS_11RangeParser13InvokeRangeOfINS_11Group20Var5EEEvRKNS_12HeaderRecordERKNS_5RangeERKN7openpal6RSliceERNS_12IAPDUHandlerEEUlRSE_jE_E5CountEv,"axG",@progbits,_ZNK8opendnp318BufferedCollectionINS_7IndexedINS_7CounterEEEZNS_11RangeParser13InvokeRangeOfINS_11Group20Var5EEEvRKNS_12HeaderRecordERKNS_5RangeERKN7openpal6RSliceERNS_12IAPDUHandlerEEUlRSE_jE_E5CountEv,comdat
	.align 2
	.p2align 4
	.weak	_ZNK8opendnp318BufferedCollectionINS_7IndexedINS_7CounterEEEZNS_11RangeParser13InvokeRangeOfINS_11Group20Var5EEEvRKNS_12HeaderRecordERKNS_5RangeERKN7openpal6RSliceERNS_12IAPDUHandlerEEUlRSE_jE_E5CountEv
	.type	_ZNK8opendnp318BufferedCollectionINS_7IndexedINS_7CounterEEEZNS_11RangeParser13InvokeRangeOfINS_11Group20Var5EEEvRKNS_12HeaderRecordERKNS_5RangeERKN7openpal6RSliceERNS_12IAPDUHandlerEEUlRSE_jE_E5CountEv, @function
_ZNK8opendnp318BufferedCollectionINS_7IndexedINS_7CounterEEEZNS_11RangeParser13InvokeRangeOfINS_11Group20Var5EEEvRKNS_12HeaderRecordERKNS_5RangeERKN7openpal6RSliceERNS_12IAPDUHandlerEEUlRSE_jE_E5CountEv:
.LFB3650:
	.cfi_startproc
	endbr64
	movq	24(%rdi), %rax
	ret
	.cfi_endproc
.LFE3650:
	.size	_ZNK8opendnp318BufferedCollectionINS_7IndexedINS_7CounterEEEZNS_11RangeParser13InvokeRangeOfINS_11Group20Var5EEEvRKNS_12HeaderRecordERKNS_5RangeERKN7openpal6RSliceERNS_12IAPDUHandlerEEUlRSE_jE_E5CountEv, .-_ZNK8opendnp318BufferedCollectionINS_7IndexedINS_7CounterEEEZNS_11RangeParser13InvokeRangeOfINS_11Group20Var5EEEvRKNS_12HeaderRecordERKNS_5RangeERKN7openpal6RSliceERNS_12IAPDUHandlerEEUlRSE_jE_E5CountEv
	.section	.text._ZNK8opendnp318BufferedCollectionINS_7IndexedINS_7CounterEEEZNS_11RangeParser13InvokeRangeOfINS_11Group20Var2EEEvRKNS_12HeaderRecordERKNS_5RangeERKN7openpal6RSliceERNS_12IAPDUHandlerEEUlRSE_jE_E5CountEv,"axG",@progbits,_ZNK8opendnp318BufferedCollectionINS_7IndexedINS_7CounterEEEZNS_11RangeParser13InvokeRangeOfINS_11Group20Var2EEEvRKNS_12HeaderRecordERKNS_5RangeERKN7openpal6RSliceERNS_12IAPDUHandlerEEUlRSE_jE_E5CountEv,comdat
	.align 2
	.p2align 4
	.weak	_ZNK8opendnp318BufferedCollectionINS_7IndexedINS_7CounterEEEZNS_11RangeParser13InvokeRangeOfINS_11Group20Var2EEEvRKNS_12HeaderRecordERKNS_5RangeERKN7openpal6RSliceERNS_12IAPDUHandlerEEUlRSE_jE_E5CountEv
	.type	_ZNK8opendnp318BufferedCollectionINS_7IndexedINS_7CounterEEEZNS_11RangeParser13InvokeRangeOfINS_11Group20Var2EEEvRKNS_12HeaderRecordERKNS_5RangeERKN7openpal6RSliceERNS_12IAPDUHandlerEEUlRSE_jE_E5CountEv, @function
_ZNK8opendnp318BufferedCollectionINS_7IndexedINS_7CounterEEEZNS_11RangeParser13InvokeRangeOfINS_11Group20Var2EEEvRKNS_12HeaderRecordERKNS_5RangeERKN7openpal6RSliceERNS_12IAPDUHandlerEEUlRSE_jE_E5CountEv:
.LFB3652:
	.cfi_startproc
	endbr64
	movq	24(%rdi), %rax
	ret
	.cfi_endproc
.LFE3652:
	.size	_ZNK8opendnp318BufferedCollectionINS_7IndexedINS_7CounterEEEZNS_11RangeParser13InvokeRangeOfINS_11Group20Var2EEEvRKNS_12HeaderRecordERKNS_5RangeERKN7openpal6RSliceERNS_12IAPDUHandlerEEUlRSE_jE_E5CountEv, .-_ZNK8opendnp318BufferedCollectionINS_7IndexedINS_7CounterEEEZNS_11RangeParser13InvokeRangeOfINS_11Group20Var2EEEvRKNS_12HeaderRecordERKNS_5RangeERKN7openpal6RSliceERNS_12IAPDUHandlerEEUlRSE_jE_E5CountEv
	.section	.text._ZNK8opendnp318BufferedCollectionINS_7IndexedINS_7CounterEEEZNS_11RangeParser13InvokeRangeOfINS_11Group20Var1EEEvRKNS_12HeaderRecordERKNS_5RangeERKN7openpal6RSliceERNS_12IAPDUHandlerEEUlRSE_jE_E5CountEv,"axG",@progbits,_ZNK8opendnp318BufferedCollectionINS_7IndexedINS_7CounterEEEZNS_11RangeParser13InvokeRangeOfINS_11Group20Var1EEEvRKNS_12HeaderRecordERKNS_5RangeERKN7openpal6RSliceERNS_12IAPDUHandlerEEUlRSE_jE_E5CountEv,comdat
	.align 2
	.p2align 4
	.weak	_ZNK8opendnp318BufferedCollectionINS_7IndexedINS_7CounterEEEZNS_11RangeParser13InvokeRangeOfINS_11Group20Var1EEEvRKNS_12HeaderRecordERKNS_5RangeERKN7openpal6RSliceERNS_12IAPDUHandlerEEUlRSE_jE_E5CountEv
	.type	_ZNK8opendnp318BufferedCollectionINS_7IndexedINS_7CounterEEEZNS_11RangeParser13InvokeRangeOfINS_11Group20Var1EEEvRKNS_12HeaderRecordERKNS_5RangeERKN7openpal6RSliceERNS_12IAPDUHandlerEEUlRSE_jE_E5CountEv, @function
_ZNK8opendnp318BufferedCollectionINS_7IndexedINS_7CounterEEEZNS_11RangeParser13InvokeRangeOfINS_11Group20Var1EEEvRKNS_12HeaderRecordERKNS_5RangeERKN7openpal6RSliceERNS_12IAPDUHandlerEEUlRSE_jE_E5CountEv:
.LFB3654:
	.cfi_startproc
	endbr64
	movq	24(%rdi), %rax
	ret
	.cfi_endproc
.LFE3654:
	.size	_ZNK8opendnp318BufferedCollectionINS_7IndexedINS_7CounterEEEZNS_11RangeParser13InvokeRangeOfINS_11Group20Var1EEEvRKNS_12HeaderRecordERKNS_5RangeERKN7openpal6RSliceERNS_12IAPDUHandlerEEUlRSE_jE_E5CountEv, .-_ZNK8opendnp318BufferedCollectionINS_7IndexedINS_7CounterEEEZNS_11RangeParser13InvokeRangeOfINS_11Group20Var1EEEvRKNS_12HeaderRecordERKNS_5RangeERKN7openpal6RSliceERNS_12IAPDUHandlerEEUlRSE_jE_E5CountEv
	.section	.text._ZNK8opendnp318BufferedCollectionINS_7IndexedINS_18BinaryOutputStatusEEEZNS_11RangeParser13InvokeRangeOfINS_11Group10Var2EEEvRKNS_12HeaderRecordERKNS_5RangeERKN7openpal6RSliceERNS_12IAPDUHandlerEEUlRSE_jE_E5CountEv,"axG",@progbits,_ZNK8opendnp318BufferedCollectionINS_7IndexedINS_18BinaryOutputStatusEEEZNS_11RangeParser13InvokeRangeOfINS_11Group10Var2EEEvRKNS_12HeaderRecordERKNS_5RangeERKN7openpal6RSliceERNS_12IAPDUHandlerEEUlRSE_jE_E5CountEv,comdat
	.align 2
	.p2align 4
	.weak	_ZNK8opendnp318BufferedCollectionINS_7IndexedINS_18BinaryOutputStatusEEEZNS_11RangeParser13InvokeRangeOfINS_11Group10Var2EEEvRKNS_12HeaderRecordERKNS_5RangeERKN7openpal6RSliceERNS_12IAPDUHandlerEEUlRSE_jE_E5CountEv
	.type	_ZNK8opendnp318BufferedCollectionINS_7IndexedINS_18BinaryOutputStatusEEEZNS_11RangeParser13InvokeRangeOfINS_11Group10Var2EEEvRKNS_12HeaderRecordERKNS_5RangeERKN7openpal6RSliceERNS_12IAPDUHandlerEEUlRSE_jE_E5CountEv, @function
_ZNK8opendnp318BufferedCollectionINS_7IndexedINS_18BinaryOutputStatusEEEZNS_11RangeParser13InvokeRangeOfINS_11Group10Var2EEEvRKNS_12HeaderRecordERKNS_5RangeERKN7openpal6RSliceERNS_12IAPDUHandlerEEUlRSE_jE_E5CountEv:
.LFB3656:
	.cfi_startproc
	endbr64
	movq	24(%rdi), %rax
	ret
	.cfi_endproc
.LFE3656:
	.size	_ZNK8opendnp318BufferedCollectionINS_7IndexedINS_18BinaryOutputStatusEEEZNS_11RangeParser13InvokeRangeOfINS_11Group10Var2EEEvRKNS_12HeaderRecordERKNS_5RangeERKN7openpal6RSliceERNS_12IAPDUHandlerEEUlRSE_jE_E5CountEv, .-_ZNK8opendnp318BufferedCollectionINS_7IndexedINS_18BinaryOutputStatusEEEZNS_11RangeParser13InvokeRangeOfINS_11Group10Var2EEEvRKNS_12HeaderRecordERKNS_5RangeERKN7openpal6RSliceERNS_12IAPDUHandlerEEUlRSE_jE_E5CountEv
	.section	.text._ZNK8opendnp318BufferedCollectionINS_7IndexedINS_15DoubleBitBinaryEEEZNS_11RangeParser13InvokeRangeOfINS_10Group3Var2EEEvRKNS_12HeaderRecordERKNS_5RangeERKN7openpal6RSliceERNS_12IAPDUHandlerEEUlRSE_jE_E5CountEv,"axG",@progbits,_ZNK8opendnp318BufferedCollectionINS_7IndexedINS_15DoubleBitBinaryEEEZNS_11RangeParser13InvokeRangeOfINS_10Group3Var2EEEvRKNS_12HeaderRecordERKNS_5RangeERKN7openpal6RSliceERNS_12IAPDUHandlerEEUlRSE_jE_E5CountEv,comdat
	.align 2
	.p2align 4
	.weak	_ZNK8opendnp318BufferedCollectionINS_7IndexedINS_15DoubleBitBinaryEEEZNS_11RangeParser13InvokeRangeOfINS_10Group3Var2EEEvRKNS_12HeaderRecordERKNS_5RangeERKN7openpal6RSliceERNS_12IAPDUHandlerEEUlRSE_jE_E5CountEv
	.type	_ZNK8opendnp318BufferedCollectionINS_7IndexedINS_15DoubleBitBinaryEEEZNS_11RangeParser13InvokeRangeOfINS_10Group3Var2EEEvRKNS_12HeaderRecordERKNS_5RangeERKN7openpal6RSliceERNS_12IAPDUHandlerEEUlRSE_jE_E5CountEv, @function
_ZNK8opendnp318BufferedCollectionINS_7IndexedINS_15DoubleBitBinaryEEEZNS_11RangeParser13InvokeRangeOfINS_10Group3Var2EEEvRKNS_12HeaderRecordERKNS_5RangeERKN7openpal6RSliceERNS_12IAPDUHandlerEEUlRSE_jE_E5CountEv:
.LFB3658:
	.cfi_startproc
	endbr64
	movq	24(%rdi), %rax
	ret
	.cfi_endproc
.LFE3658:
	.size	_ZNK8opendnp318BufferedCollectionINS_7IndexedINS_15DoubleBitBinaryEEEZNS_11RangeParser13InvokeRangeOfINS_10Group3Var2EEEvRKNS_12HeaderRecordERKNS_5RangeERKN7openpal6RSliceERNS_12IAPDUHandlerEEUlRSE_jE_E5CountEv, .-_ZNK8opendnp318BufferedCollectionINS_7IndexedINS_15DoubleBitBinaryEEEZNS_11RangeParser13InvokeRangeOfINS_10Group3Var2EEEvRKNS_12HeaderRecordERKNS_5RangeERKN7openpal6RSliceERNS_12IAPDUHandlerEEUlRSE_jE_E5CountEv
	.section	.text._ZNK8opendnp318BufferedCollectionINS_7IndexedINS_18BinaryOutputStatusEEEZNS_11RangeParser23InvokeRangeBitfieldTypeIS2_EEvRKNS_12HeaderRecordERKNS_5RangeERKN7openpal6RSliceERNS_12IAPDUHandlerEEUlRSD_jE_E5CountEv,"axG",@progbits,_ZNK8opendnp318BufferedCollectionINS_7IndexedINS_18BinaryOutputStatusEEEZNS_11RangeParser23InvokeRangeBitfieldTypeIS2_EEvRKNS_12HeaderRecordERKNS_5RangeERKN7openpal6RSliceERNS_12IAPDUHandlerEEUlRSD_jE_E5CountEv,comdat
	.align 2
	.p2align 4
	.weak	_ZNK8opendnp318BufferedCollectionINS_7IndexedINS_18BinaryOutputStatusEEEZNS_11RangeParser23InvokeRangeBitfieldTypeIS2_EEvRKNS_12HeaderRecordERKNS_5RangeERKN7openpal6RSliceERNS_12IAPDUHandlerEEUlRSD_jE_E5CountEv
	.type	_ZNK8opendnp318BufferedCollectionINS_7IndexedINS_18BinaryOutputStatusEEEZNS_11RangeParser23InvokeRangeBitfieldTypeIS2_EEvRKNS_12HeaderRecordERKNS_5RangeERKN7openpal6RSliceERNS_12IAPDUHandlerEEUlRSD_jE_E5CountEv, @function
_ZNK8opendnp318BufferedCollectionINS_7IndexedINS_18BinaryOutputStatusEEEZNS_11RangeParser23InvokeRangeBitfieldTypeIS2_EEvRKNS_12HeaderRecordERKNS_5RangeERKN7openpal6RSliceERNS_12IAPDUHandlerEEUlRSD_jE_E5CountEv:
.LFB3660:
	.cfi_startproc
	endbr64
	movq	24(%rdi), %rax
	ret
	.cfi_endproc
.LFE3660:
	.size	_ZNK8opendnp318BufferedCollectionINS_7IndexedINS_18BinaryOutputStatusEEEZNS_11RangeParser23InvokeRangeBitfieldTypeIS2_EEvRKNS_12HeaderRecordERKNS_5RangeERKN7openpal6RSliceERNS_12IAPDUHandlerEEUlRSD_jE_E5CountEv, .-_ZNK8opendnp318BufferedCollectionINS_7IndexedINS_18BinaryOutputStatusEEEZNS_11RangeParser23InvokeRangeBitfieldTypeIS2_EEvRKNS_12HeaderRecordERKNS_5RangeERKN7openpal6RSliceERNS_12IAPDUHandlerEEUlRSD_jE_E5CountEv
	.section	.text._ZNK8opendnp318BufferedCollectionINS_7IndexedINS_15DoubleBitBinaryEEEZNS_11RangeParser29InvokeRangeDoubleBitfieldTypeIS2_EEvRKNS_12HeaderRecordERKNS_5RangeERKN7openpal6RSliceERNS_12IAPDUHandlerEEUlRSD_jE_E5CountEv,"axG",@progbits,_ZNK8opendnp318BufferedCollectionINS_7IndexedINS_15DoubleBitBinaryEEEZNS_11RangeParser29InvokeRangeDoubleBitfieldTypeIS2_EEvRKNS_12HeaderRecordERKNS_5RangeERKN7openpal6RSliceERNS_12IAPDUHandlerEEUlRSD_jE_E5CountEv,comdat
	.align 2
	.p2align 4
	.weak	_ZNK8opendnp318BufferedCollectionINS_7IndexedINS_15DoubleBitBinaryEEEZNS_11RangeParser29InvokeRangeDoubleBitfieldTypeIS2_EEvRKNS_12HeaderRecordERKNS_5RangeERKN7openpal6RSliceERNS_12IAPDUHandlerEEUlRSD_jE_E5CountEv
	.type	_ZNK8opendnp318BufferedCollectionINS_7IndexedINS_15DoubleBitBinaryEEEZNS_11RangeParser29InvokeRangeDoubleBitfieldTypeIS2_EEvRKNS_12HeaderRecordERKNS_5RangeERKN7openpal6RSliceERNS_12IAPDUHandlerEEUlRSD_jE_E5CountEv, @function
_ZNK8opendnp318BufferedCollectionINS_7IndexedINS_15DoubleBitBinaryEEEZNS_11RangeParser29InvokeRangeDoubleBitfieldTypeIS2_EEvRKNS_12HeaderRecordERKNS_5RangeERKN7openpal6RSliceERNS_12IAPDUHandlerEEUlRSD_jE_E5CountEv:
.LFB3662:
	.cfi_startproc
	endbr64
	movq	24(%rdi), %rax
	ret
	.cfi_endproc
.LFE3662:
	.size	_ZNK8opendnp318BufferedCollectionINS_7IndexedINS_15DoubleBitBinaryEEEZNS_11RangeParser29InvokeRangeDoubleBitfieldTypeIS2_EEvRKNS_12HeaderRecordERKNS_5RangeERKN7openpal6RSliceERNS_12IAPDUHandlerEEUlRSD_jE_E5CountEv, .-_ZNK8opendnp318BufferedCollectionINS_7IndexedINS_15DoubleBitBinaryEEEZNS_11RangeParser29InvokeRangeDoubleBitfieldTypeIS2_EEvRKNS_12HeaderRecordERKNS_5RangeERKN7openpal6RSliceERNS_12IAPDUHandlerEEUlRSD_jE_E5CountEv
	.section	.text._ZNK8opendnp318BufferedCollectionINS_7IndexedINS_6BinaryEEEZNS_11RangeParser13InvokeRangeOfINS_10Group1Var2EEEvRKNS_12HeaderRecordERKNS_5RangeERKN7openpal6RSliceERNS_12IAPDUHandlerEEUlRSE_jE_E5CountEv,"axG",@progbits,_ZNK8opendnp318BufferedCollectionINS_7IndexedINS_6BinaryEEEZNS_11RangeParser13InvokeRangeOfINS_10Group1Var2EEEvRKNS_12HeaderRecordERKNS_5RangeERKN7openpal6RSliceERNS_12IAPDUHandlerEEUlRSE_jE_E5CountEv,comdat
	.align 2
	.p2align 4
	.weak	_ZNK8opendnp318BufferedCollectionINS_7IndexedINS_6BinaryEEEZNS_11RangeParser13InvokeRangeOfINS_10Group1Var2EEEvRKNS_12HeaderRecordERKNS_5RangeERKN7openpal6RSliceERNS_12IAPDUHandlerEEUlRSE_jE_E5CountEv
	.type	_ZNK8opendnp318BufferedCollectionINS_7IndexedINS_6BinaryEEEZNS_11RangeParser13InvokeRangeOfINS_10Group1Var2EEEvRKNS_12HeaderRecordERKNS_5RangeERKN7openpal6RSliceERNS_12IAPDUHandlerEEUlRSE_jE_E5CountEv, @function
_ZNK8opendnp318BufferedCollectionINS_7IndexedINS_6BinaryEEEZNS_11RangeParser13InvokeRangeOfINS_10Group1Var2EEEvRKNS_12HeaderRecordERKNS_5RangeERKN7openpal6RSliceERNS_12IAPDUHandlerEEUlRSE_jE_E5CountEv:
.LFB3664:
	.cfi_startproc
	endbr64
	movq	24(%rdi), %rax
	ret
	.cfi_endproc
.LFE3664:
	.size	_ZNK8opendnp318BufferedCollectionINS_7IndexedINS_6BinaryEEEZNS_11RangeParser13InvokeRangeOfINS_10Group1Var2EEEvRKNS_12HeaderRecordERKNS_5RangeERKN7openpal6RSliceERNS_12IAPDUHandlerEEUlRSE_jE_E5CountEv, .-_ZNK8opendnp318BufferedCollectionINS_7IndexedINS_6BinaryEEEZNS_11RangeParser13InvokeRangeOfINS_10Group1Var2EEEvRKNS_12HeaderRecordERKNS_5RangeERKN7openpal6RSliceERNS_12IAPDUHandlerEEUlRSE_jE_E5CountEv
	.section	.text._ZNK8opendnp318BufferedCollectionINS_7IndexedINS_6BinaryEEEZNS_11RangeParser23InvokeRangeBitfieldTypeIS2_EEvRKNS_12HeaderRecordERKNS_5RangeERKN7openpal6RSliceERNS_12IAPDUHandlerEEUlRSD_jE_E5CountEv,"axG",@progbits,_ZNK8opendnp318BufferedCollectionINS_7IndexedINS_6BinaryEEEZNS_11RangeParser23InvokeRangeBitfieldTypeIS2_EEvRKNS_12HeaderRecordERKNS_5RangeERKN7openpal6RSliceERNS_12IAPDUHandlerEEUlRSD_jE_E5CountEv,comdat
	.align 2
	.p2align 4
	.weak	_ZNK8opendnp318BufferedCollectionINS_7IndexedINS_6BinaryEEEZNS_11RangeParser23InvokeRangeBitfieldTypeIS2_EEvRKNS_12HeaderRecordERKNS_5RangeERKN7openpal6RSliceERNS_12IAPDUHandlerEEUlRSD_jE_E5CountEv
	.type	_ZNK8opendnp318BufferedCollectionINS_7IndexedINS_6BinaryEEEZNS_11RangeParser23InvokeRangeBitfieldTypeIS2_EEvRKNS_12HeaderRecordERKNS_5RangeERKN7openpal6RSliceERNS_12IAPDUHandlerEEUlRSD_jE_E5CountEv, @function
_ZNK8opendnp318BufferedCollectionINS_7IndexedINS_6BinaryEEEZNS_11RangeParser23InvokeRangeBitfieldTypeIS2_EEvRKNS_12HeaderRecordERKNS_5RangeERKN7openpal6RSliceERNS_12IAPDUHandlerEEUlRSD_jE_E5CountEv:
.LFB3666:
	.cfi_startproc
	endbr64
	movq	24(%rdi), %rax
	ret
	.cfi_endproc
.LFE3666:
	.size	_ZNK8opendnp318BufferedCollectionINS_7IndexedINS_6BinaryEEEZNS_11RangeParser23InvokeRangeBitfieldTypeIS2_EEvRKNS_12HeaderRecordERKNS_5RangeERKN7openpal6RSliceERNS_12IAPDUHandlerEEUlRSD_jE_E5CountEv, .-_ZNK8opendnp318BufferedCollectionINS_7IndexedINS_6BinaryEEEZNS_11RangeParser23InvokeRangeBitfieldTypeIS2_EEvRKNS_12HeaderRecordERKNS_5RangeERKN7openpal6RSliceERNS_12IAPDUHandlerEEUlRSD_jE_E5CountEv
	.text
	.align 2
	.p2align 4
	.type	_ZNK8opendnp318BufferedCollectionINS_7IndexedINS_11OctetStringEEEZNS_11RangeParser21ParseRangeOfOctetDataERN7openpal6RSliceERKNS_12HeaderRecordERKNS_5RangeEPNS5_6LoggerEPNS_12IAPDUHandlerEEUlS7_jE_E5CountEv, @function
_ZNK8opendnp318BufferedCollectionINS_7IndexedINS_11OctetStringEEEZNS_11RangeParser21ParseRangeOfOctetDataERN7openpal6RSliceERKNS_12HeaderRecordERKNS_5RangeEPNS5_6LoggerEPNS_12IAPDUHandlerEEUlS7_jE_E5CountEv:
.LFB3668:
	.cfi_startproc
	endbr64
	movq	24(%rdi), %rax
	ret
	.cfi_endproc
.LFE3668:
	.size	_ZNK8opendnp318BufferedCollectionINS_7IndexedINS_11OctetStringEEEZNS_11RangeParser21ParseRangeOfOctetDataERN7openpal6RSliceERKNS_12HeaderRecordERKNS_5RangeEPNS5_6LoggerEPNS_12IAPDUHandlerEEUlS7_jE_E5CountEv, .-_ZNK8opendnp318BufferedCollectionINS_7IndexedINS_11OctetStringEEEZNS_11RangeParser21ParseRangeOfOctetDataERN7openpal6RSliceERKNS_12HeaderRecordERKNS_5RangeEPNS5_6LoggerEPNS_12IAPDUHandlerEEUlS7_jE_E5CountEv
	.section	.text._ZN8opendnp311RangeParser23InvokeRangeBitfieldTypeINS_6BinaryEEEvRKNS_12HeaderRecordERKNS_5RangeERKN7openpal6RSliceERNS_12IAPDUHandlerE,"axG",@progbits,_ZN8opendnp311RangeParser23InvokeRangeBitfieldTypeINS_6BinaryEEEvRKNS_12HeaderRecordERKNS_5RangeERKN7openpal6RSliceERNS_12IAPDUHandlerE,comdat
	.align 2
	.p2align 4
	.weak	_ZN8opendnp311RangeParser23InvokeRangeBitfieldTypeINS_6BinaryEEEvRKNS_12HeaderRecordERKNS_5RangeERKN7openpal6RSliceERNS_12IAPDUHandlerE
	.type	_ZN8opendnp311RangeParser23InvokeRangeBitfieldTypeINS_6BinaryEEEvRKNS_12HeaderRecordERKNS_5RangeERKN7openpal6RSliceERNS_12IAPDUHandlerE, @function
_ZN8opendnp311RangeParser23InvokeRangeBitfieldTypeINS_6BinaryEEEvRKNS_12HeaderRecordERKNS_5RangeERKN7openpal6RSliceERNS_12IAPDUHandlerE:
.LFB2982:
	.cfi_startproc
	endbr64
	movq	%rsi, %rax
	subq	$88, %rsp
	.cfi_def_cfa_offset 96
	movl	(%rsi), %r10d
	movzwl	(%rsi), %esi
	movzwl	2(%rax), %r9d
	movq	%rdi, %r8
	movq	%rcx, %rdi
	movq	%fs:40, %rcx
	movq	%rcx, 72(%rsp)
	xorl	%ecx, %ecx
	cmpw	%r9w, %si
	ja	.L34
	leal	1(%r9), %ecx
	subl	%esi, %ecx
.L34:
	movq	_ZTVN8opendnp318BufferedCollectionINS_7IndexedINS_6BinaryEEEZNS_11RangeParser23InvokeRangeBitfieldTypeIS2_EEvRKNS_12HeaderRecordERKNS_5RangeERKN7openpal6RSliceERNS_12IAPDUHandlerEEUlRSD_jE_EE@GOTPCREL(%rip), %rsi
	movdqu	(%rdx), %xmm0
	leaq	32(%rsp), %rdx
	movq	%rcx, 56(%rsp)
	movl	(%rax), %eax
	movdqu	(%r8), %xmm1
	movl	%r10d, 64(%rsp)
	addq	$16, %rsi
	movups	%xmm0, 40(%rsp)
	movq	%rsi, 32(%rsp)
	movq	%rsp, %rsi
	movl	%eax, 16(%rsp)
	movaps	%xmm1, (%rsp)
	call	_ZN8opendnp312IAPDUHandler8OnHeaderERKNS_11RangeHeaderERKNS_11ICollectionINS_7IndexedINS_6BinaryEEEEE@PLT
	movq	72(%rsp), %rax
	subq	%fs:40, %rax
	jne	.L38
	addq	$88, %rsp
	.cfi_remember_state
	.cfi_def_cfa_offset 8
	ret
.L38:
	.cfi_restore_state
	call	__stack_chk_fail@PLT
	.cfi_endproc
.LFE2982:
	.size	_ZN8opendnp311RangeParser23InvokeRangeBitfieldTypeINS_6BinaryEEEvRKNS_12HeaderRecordERKNS_5RangeERKN7openpal6RSliceERNS_12IAPDUHandlerE, .-_ZN8opendnp311RangeParser23InvokeRangeBitfieldTypeINS_6BinaryEEEvRKNS_12HeaderRecordERKNS_5RangeERKN7openpal6RSliceERNS_12IAPDUHandlerE
	.section	.text._ZN8opendnp311RangeParser13InvokeRangeOfINS_10Group1Var2EEEvRKNS_12HeaderRecordERKNS_5RangeERKN7openpal6RSliceERNS_12IAPDUHandlerE,"axG",@progbits,_ZN8opendnp311RangeParser13InvokeRangeOfINS_10Group1Var2EEEvRKNS_12HeaderRecordERKNS_5RangeERKN7openpal6RSliceERNS_12IAPDUHandlerE,comdat
	.align 2
	.p2align 4
	.weak	_ZN8opendnp311RangeParser13InvokeRangeOfINS_10Group1Var2EEEvRKNS_12HeaderRecordERKNS_5RangeERKN7openpal6RSliceERNS_12IAPDUHandlerE
	.type	_ZN8opendnp311RangeParser13InvokeRangeOfINS_10Group1Var2EEEvRKNS_12HeaderRecordERKNS_5RangeERKN7openpal6RSliceERNS_12IAPDUHandlerE, @function
_ZN8opendnp311RangeParser13InvokeRangeOfINS_10Group1Var2EEEvRKNS_12HeaderRecordERKNS_5RangeERKN7openpal6RSliceERNS_12IAPDUHandlerE:
.LFB2990:
	.cfi_startproc
	endbr64
	movq	%rsi, %rax
	subq	$88, %rsp
	.cfi_def_cfa_offset 96
	movl	(%rsi), %r10d
	movzwl	(%rsi), %esi
	movzwl	2(%rax), %r9d
	movq	%rdi, %r8
	movq	%rcx, %rdi
	movq	%fs:40, %rcx
	movq	%rcx, 72(%rsp)
	xorl	%ecx, %ecx
	cmpw	%r9w, %si
	ja	.L40
	leal	1(%r9), %ecx
	subl	%esi, %ecx
.L40:
	movq	_ZTVN8opendnp318BufferedCollectionINS_7IndexedINS_6BinaryEEEZNS_11RangeParser13InvokeRangeOfINS_10Group1Var2EEEvRKNS_12HeaderRecordERKNS_5RangeERKN7openpal6RSliceERNS_12IAPDUHandlerEEUlRSE_jE_EE@GOTPCREL(%rip), %rsi
	movdqu	(%rdx), %xmm0
	leaq	32(%rsp), %rdx
	movq	%rcx, 56(%rsp)
	movl	(%rax), %eax
	movdqu	(%r8), %xmm1
	movl	%r10d, 64(%rsp)
	addq	$16, %rsi
	movups	%xmm0, 40(%rsp)
	movq	%rsi, 32(%rsp)
	movq	%rsp, %rsi
	movl	%eax, 16(%rsp)
	movaps	%xmm1, (%rsp)
	call	_ZN8opendnp312IAPDUHandler8OnHeaderERKNS_11RangeHeaderERKNS_11ICollectionINS_7IndexedINS_6BinaryEEEEE@PLT
	movq	72(%rsp), %rax
	subq	%fs:40, %rax
	jne	.L44
	addq	$88, %rsp
	.cfi_remember_state
	.cfi_def_cfa_offset 8
	ret
.L44:
	.cfi_restore_state
	call	__stack_chk_fail@PLT
	.cfi_endproc
.LFE2990:
	.size	_ZN8opendnp311RangeParser13InvokeRangeOfINS_10Group1Var2EEEvRKNS_12HeaderRecordERKNS_5RangeERKN7openpal6RSliceERNS_12IAPDUHandlerE, .-_ZN8opendnp311RangeParser13InvokeRangeOfINS_10Group1Var2EEEvRKNS_12HeaderRecordERKNS_5RangeERKN7openpal6RSliceERNS_12IAPDUHandlerE
	.section	.text._ZNK8opendnp318BufferedCollectionINS_7IndexedINS_8IINValueEEEZNS_11RangeParser23InvokeRangeBitfieldTypeIS2_EEvRKNS_12HeaderRecordERKNS_5RangeERKN7openpal6RSliceERNS_12IAPDUHandlerEEUlRSD_jE_E7ForeachERNS_8IVisitorIS3_EE,"axG",@progbits,_ZNK8opendnp318BufferedCollectionINS_7IndexedINS_8IINValueEEEZNS_11RangeParser23InvokeRangeBitfieldTypeIS2_EEvRKNS_12HeaderRecordERKNS_5RangeERKN7openpal6RSliceERNS_12IAPDUHandlerEEUlRSD_jE_E7ForeachERNS_8IVisitorIS3_EE,comdat
	.align 2
	.p2align 4
	.weak	_ZNK8opendnp318BufferedCollectionINS_7IndexedINS_8IINValueEEEZNS_11RangeParser23InvokeRangeBitfieldTypeIS2_EEvRKNS_12HeaderRecordERKNS_5RangeERKN7openpal6RSliceERNS_12IAPDUHandlerEEUlRSD_jE_E7ForeachERNS_8IVisitorIS3_EE
	.type	_ZNK8opendnp318BufferedCollectionINS_7IndexedINS_8IINValueEEEZNS_11RangeParser23InvokeRangeBitfieldTypeIS2_EEvRKNS_12HeaderRecordERKNS_5RangeERKN7openpal6RSliceERNS_12IAPDUHandlerEEUlRSD_jE_E7ForeachERNS_8IVisitorIS3_EE, @function
_ZNK8opendnp318BufferedCollectionINS_7IndexedINS_8IINValueEEEZNS_11RangeParser23InvokeRangeBitfieldTypeIS2_EEvRKNS_12HeaderRecordERKNS_5RangeERKN7openpal6RSliceERNS_12IAPDUHandlerEEUlRSD_jE_E7ForeachERNS_8IVisitorIS3_EE:
.LFB3613:
	.cfi_startproc
	endbr64
	pushq	%r15
	.cfi_def_cfa_offset 16
	.cfi_offset 15, -16
	pushq	%r14
	.cfi_def_cfa_offset 24
	.cfi_offset 14, -24
	pushq	%r13
	.cfi_def_cfa_offset 32
	.cfi_offset 13, -32
	pushq	%r12
	.cfi_def_cfa_offset 40
	.cfi_offset 12, -40
	pushq	%rbp
	.cfi_def_cfa_offset 48
	.cfi_offset 6, -48
	pushq	%rbx
	.cfi_def_cfa_offset 56
	.cfi_offset 3, -56
	subq	$56, %rsp
	.cfi_def_cfa_offset 112
	movdqu	8(%rdi), %xmm0
	movq	%fs:40, %rax
	movq	%rax, 40(%rsp)
	xorl	%eax, %eax
	cmpq	$0, 24(%rdi)
	movaps	%xmm0, 16(%rsp)
	je	.L45
	movq	%rdi, %rbp
	movq	%rsi, %r12
	leaq	16(%rsp), %r14
	xorl	%ebx, %ebx
	leaq	12(%rsp), %r13
	.p2align 4,,10
	.p2align 3
.L47:
	movq	(%r12), %rax
	movl	%ebx, %esi
	movq	%r14, %rdi
	movq	(%rax), %r15
	call	_ZN8opendnp36GetBitERKN7openpal6RSliceEj@PLT
	movq	%r13, %rsi
	movq	%r12, %rdi
	movl	%eax, %r8d
	movzwl	32(%rbp), %eax
	movb	%r8b, 12(%rsp)
	addl	%ebx, %eax
	movw	%ax, 14(%rsp)
	call	*%r15
	leal	1(%rbx), %eax
	movq	%rax, %rbx
	cmpq	24(%rbp), %rax
	jb	.L47
.L45:
	movq	40(%rsp), %rax
	subq	%fs:40, %rax
	jne	.L51
	addq	$56, %rsp
	.cfi_remember_state
	.cfi_def_cfa_offset 56
	popq	%rbx
	.cfi_def_cfa_offset 48
	popq	%rbp
	.cfi_def_cfa_offset 40
	popq	%r12
	.cfi_def_cfa_offset 32
	popq	%r13
	.cfi_def_cfa_offset 24
	popq	%r14
	.cfi_def_cfa_offset 16
	popq	%r15
	.cfi_def_cfa_offset 8
	ret
.L51:
	.cfi_restore_state
	call	__stack_chk_fail@PLT
	.cfi_endproc
.LFE3613:
	.size	_ZNK8opendnp318BufferedCollectionINS_7IndexedINS_8IINValueEEEZNS_11RangeParser23InvokeRangeBitfieldTypeIS2_EEvRKNS_12HeaderRecordERKNS_5RangeERKN7openpal6RSliceERNS_12IAPDUHandlerEEUlRSD_jE_E7ForeachERNS_8IVisitorIS3_EE, .-_ZNK8opendnp318BufferedCollectionINS_7IndexedINS_8IINValueEEEZNS_11RangeParser23InvokeRangeBitfieldTypeIS2_EEvRKNS_12HeaderRecordERKNS_5RangeERKN7openpal6RSliceERNS_12IAPDUHandlerEEUlRSD_jE_E7ForeachERNS_8IVisitorIS3_EE
	.section	.text._ZNK8opendnp318BufferedCollectionINS_7IndexedINS_6BinaryEEEZNS_11RangeParser23InvokeRangeBitfieldTypeIS2_EEvRKNS_12HeaderRecordERKNS_5RangeERKN7openpal6RSliceERNS_12IAPDUHandlerEEUlRSD_jE_E7ForeachERNS_8IVisitorIS3_EE,"axG",@progbits,_ZNK8opendnp318BufferedCollectionINS_7IndexedINS_6BinaryEEEZNS_11RangeParser23InvokeRangeBitfieldTypeIS2_EEvRKNS_12HeaderRecordERKNS_5RangeERKN7openpal6RSliceERNS_12IAPDUHandlerEEUlRSD_jE_E7ForeachERNS_8IVisitorIS3_EE,comdat
	.align 2
	.p2align 4
	.weak	_ZNK8opendnp318BufferedCollectionINS_7IndexedINS_6BinaryEEEZNS_11RangeParser23InvokeRangeBitfieldTypeIS2_EEvRKNS_12HeaderRecordERKNS_5RangeERKN7openpal6RSliceERNS_12IAPDUHandlerEEUlRSD_jE_E7ForeachERNS_8IVisitorIS3_EE
	.type	_ZNK8opendnp318BufferedCollectionINS_7IndexedINS_6BinaryEEEZNS_11RangeParser23InvokeRangeBitfieldTypeIS2_EEvRKNS_12HeaderRecordERKNS_5RangeERKN7openpal6RSliceERNS_12IAPDUHandlerEEUlRSD_jE_E7ForeachERNS_8IVisitorIS3_EE, @function
_ZNK8opendnp318BufferedCollectionINS_7IndexedINS_6BinaryEEEZNS_11RangeParser23InvokeRangeBitfieldTypeIS2_EEvRKNS_12HeaderRecordERKNS_5RangeERKN7openpal6RSliceERNS_12IAPDUHandlerEEUlRSD_jE_E7ForeachERNS_8IVisitorIS3_EE:
.LFB3667:
	.cfi_startproc
	endbr64
	pushq	%r15
	.cfi_def_cfa_offset 16
	.cfi_offset 15, -16
	pushq	%r14
	.cfi_def_cfa_offset 24
	.cfi_offset 14, -24
	pushq	%r13
	.cfi_def_cfa_offset 32
	.cfi_offset 13, -32
	pushq	%r12
	.cfi_def_cfa_offset 40
	.cfi_offset 12, -40
	pushq	%rbp
	.cfi_def_cfa_offset 48
	.cfi_offset 6, -48
	pushq	%rbx
	.cfi_def_cfa_offset 56
	.cfi_offset 3, -56
	subq	$120, %rsp
	.cfi_def_cfa_offset 176
	movdqu	8(%rdi), %xmm1
	movq	%fs:40, %rax
	movq	%rax, 104(%rsp)
	xorl	%eax, %eax
	cmpq	$0, 24(%rdi)
	movaps	%xmm1, 16(%rsp)
	je	.L52
	leaq	64(%rsp), %rax
	movq	%rdi, %rbp
	movq	%rsi, %r12
	xorl	%ebx, %ebx
	movq	%rax, 8(%rsp)
	leaq	16(%rsp), %r15
	leaq	32(%rsp), %r14
	.p2align 4,,10
	.p2align 3
.L54:
	movq	(%r12), %rax
	movl	%ebx, %esi
	movq	%r15, %rdi
	movq	(%rax), %r13
	call	_ZN8opendnp36GetBitERKN7openpal6RSliceEj@PLT
	movq	%r14, %rdi
	movzbl	%al, %esi
	call	_ZN8opendnp36BinaryC1Eb@PLT
	movzwl	32(%rbp), %eax
	movdqa	32(%rsp), %xmm0
	movq	%r12, %rdi
	movq	48(%rsp), %rcx
	movq	8(%rsp), %rsi
	addl	%ebx, %eax
	movaps	%xmm0, 64(%rsp)
	movw	%ax, 88(%rsp)
	movq	%rcx, 80(%rsp)
	call	*%r13
	leal	1(%rbx), %eax
	movq	%rax, %rbx
	cmpq	24(%rbp), %rax
	jb	.L54
.L52:
	movq	104(%rsp), %rax
	subq	%fs:40, %rax
	jne	.L58
	addq	$120, %rsp
	.cfi_remember_state
	.cfi_def_cfa_offset 56
	popq	%rbx
	.cfi_def_cfa_offset 48
	popq	%rbp
	.cfi_def_cfa_offset 40
	popq	%r12
	.cfi_def_cfa_offset 32
	popq	%r13
	.cfi_def_cfa_offset 24
	popq	%r14
	.cfi_def_cfa_offset 16
	popq	%r15
	.cfi_def_cfa_offset 8
	ret
.L58:
	.cfi_restore_state
	call	__stack_chk_fail@PLT
	.cfi_endproc
.LFE3667:
	.size	_ZNK8opendnp318BufferedCollectionINS_7IndexedINS_6BinaryEEEZNS_11RangeParser23InvokeRangeBitfieldTypeIS2_EEvRKNS_12HeaderRecordERKNS_5RangeERKN7openpal6RSliceERNS_12IAPDUHandlerEEUlRSD_jE_E7ForeachERNS_8IVisitorIS3_EE, .-_ZNK8opendnp318BufferedCollectionINS_7IndexedINS_6BinaryEEEZNS_11RangeParser23InvokeRangeBitfieldTypeIS2_EEvRKNS_12HeaderRecordERKNS_5RangeERKN7openpal6RSliceERNS_12IAPDUHandlerEEUlRSD_jE_E7ForeachERNS_8IVisitorIS3_EE
	.section	.text._ZNK8opendnp318BufferedCollectionINS_7IndexedINS_6BinaryEEEZNS_11RangeParser13InvokeRangeOfINS_10Group1Var2EEEvRKNS_12HeaderRecordERKNS_5RangeERKN7openpal6RSliceERNS_12IAPDUHandlerEEUlRSE_jE_E7ForeachERNS_8IVisitorIS3_EE,"axG",@progbits,_ZNK8opendnp318BufferedCollectionINS_7IndexedINS_6BinaryEEEZNS_11RangeParser13InvokeRangeOfINS_10Group1Var2EEEvRKNS_12HeaderRecordERKNS_5RangeERKN7openpal6RSliceERNS_12IAPDUHandlerEEUlRSE_jE_E7ForeachERNS_8IVisitorIS3_EE,comdat
	.align 2
	.p2align 4
	.weak	_ZNK8opendnp318BufferedCollectionINS_7IndexedINS_6BinaryEEEZNS_11RangeParser13InvokeRangeOfINS_10Group1Var2EEEvRKNS_12HeaderRecordERKNS_5RangeERKN7openpal6RSliceERNS_12IAPDUHandlerEEUlRSE_jE_E7ForeachERNS_8IVisitorIS3_EE
	.type	_ZNK8opendnp318BufferedCollectionINS_7IndexedINS_6BinaryEEEZNS_11RangeParser13InvokeRangeOfINS_10Group1Var2EEEvRKNS_12HeaderRecordERKNS_5RangeERKN7openpal6RSliceERNS_12IAPDUHandlerEEUlRSE_jE_E7ForeachERNS_8IVisitorIS3_EE, @function
_ZNK8opendnp318BufferedCollectionINS_7IndexedINS_6BinaryEEEZNS_11RangeParser13InvokeRangeOfINS_10Group1Var2EEEvRKNS_12HeaderRecordERKNS_5RangeERKN7openpal6RSliceERNS_12IAPDUHandlerEEUlRSE_jE_E7ForeachERNS_8IVisitorIS3_EE:
.LFB3665:
	.cfi_startproc
	endbr64
	pushq	%r15
	.cfi_def_cfa_offset 16
	.cfi_offset 15, -16
	pushq	%r14
	.cfi_def_cfa_offset 24
	.cfi_offset 14, -24
	pushq	%r13
	.cfi_def_cfa_offset 32
	.cfi_offset 13, -32
	pushq	%r12
	.cfi_def_cfa_offset 40
	.cfi_offset 12, -40
	pushq	%rbp
	.cfi_def_cfa_offset 48
	.cfi_offset 6, -48
	pushq	%rbx
	.cfi_def_cfa_offset 56
	.cfi_offset 3, -56
	subq	$120, %rsp
	.cfi_def_cfa_offset 176
	movdqu	8(%rdi), %xmm1
	movq	%fs:40, %rax
	movq	%rax, 104(%rsp)
	xorl	%eax, %eax
	cmpq	$0, 24(%rdi)
	movaps	%xmm1, 16(%rsp)
	je	.L59
	leaq	64(%rsp), %rax
	movq	%rdi, %rbp
	movq	%rsi, %r12
	xorl	%ebx, %ebx
	movq	%rax, 8(%rsp)
	leaq	32(%rsp), %r13
	leaq	16(%rsp), %r15
	.p2align 4,,10
	.p2align 3
.L61:
	movq	(%r12), %rax
	movq	%r13, %rdi
	movq	(%rax), %r14
	call	_ZN8opendnp36BinaryC1Ev@PLT
	movq	%r13, %rsi
	movq	%r15, %rdi
	call	_ZN8opendnp310Group1Var210ReadTargetERN7openpal6RSliceERNS_6BinaryE@PLT
	movzwl	32(%rbp), %eax
	movdqa	32(%rsp), %xmm0
	movq	%r12, %rdi
	movq	48(%rsp), %rcx
	movq	8(%rsp), %rsi
	addl	%ebx, %eax
	movaps	%xmm0, 64(%rsp)
	movw	%ax, 88(%rsp)
	movq	%rcx, 80(%rsp)
	call	*%r14
	leal	1(%rbx), %eax
	movq	%rax, %rbx
	cmpq	24(%rbp), %rax
	jb	.L61
.L59:
	movq	104(%rsp), %rax
	subq	%fs:40, %rax
	jne	.L65
	addq	$120, %rsp
	.cfi_remember_state
	.cfi_def_cfa_offset 56
	popq	%rbx
	.cfi_def_cfa_offset 48
	popq	%rbp
	.cfi_def_cfa_offset 40
	popq	%r12
	.cfi_def_cfa_offset 32
	popq	%r13
	.cfi_def_cfa_offset 24
	popq	%r14
	.cfi_def_cfa_offset 16
	popq	%r15
	.cfi_def_cfa_offset 8
	ret
.L65:
	.cfi_restore_state
	call	__stack_chk_fail@PLT
	.cfi_endproc
.LFE3665:
	.size	_ZNK8opendnp318BufferedCollectionINS_7IndexedINS_6BinaryEEEZNS_11RangeParser13InvokeRangeOfINS_10Group1Var2EEEvRKNS_12HeaderRecordERKNS_5RangeERKN7openpal6RSliceERNS_12IAPDUHandlerEEUlRSE_jE_E7ForeachERNS_8IVisitorIS3_EE, .-_ZNK8opendnp318BufferedCollectionINS_7IndexedINS_6BinaryEEEZNS_11RangeParser13InvokeRangeOfINS_10Group1Var2EEEvRKNS_12HeaderRecordERKNS_5RangeERKN7openpal6RSliceERNS_12IAPDUHandlerEEUlRSE_jE_E7ForeachERNS_8IVisitorIS3_EE
	.section	.text._ZN8opendnp311RangeParser29InvokeRangeDoubleBitfieldTypeINS_15DoubleBitBinaryEEEvRKNS_12HeaderRecordERKNS_5RangeERKN7openpal6RSliceERNS_12IAPDUHandlerE,"axG",@progbits,_ZN8opendnp311RangeParser29InvokeRangeDoubleBitfieldTypeINS_15DoubleBitBinaryEEEvRKNS_12HeaderRecordERKNS_5RangeERKN7openpal6RSliceERNS_12IAPDUHandlerE,comdat
	.align 2
	.p2align 4
	.weak	_ZN8opendnp311RangeParser29InvokeRangeDoubleBitfieldTypeINS_15DoubleBitBinaryEEEvRKNS_12HeaderRecordERKNS_5RangeERKN7openpal6RSliceERNS_12IAPDUHandlerE
	.type	_ZN8opendnp311RangeParser29InvokeRangeDoubleBitfieldTypeINS_15DoubleBitBinaryEEEvRKNS_12HeaderRecordERKNS_5RangeERKN7openpal6RSliceERNS_12IAPDUHandlerE, @function
_ZN8opendnp311RangeParser29InvokeRangeDoubleBitfieldTypeINS_15DoubleBitBinaryEEEvRKNS_12HeaderRecordERKNS_5RangeERKN7openpal6RSliceERNS_12IAPDUHandlerE:
.LFB2995:
	.cfi_startproc
	endbr64
	movq	%rsi, %rax
	subq	$88, %rsp
	.cfi_def_cfa_offset 96
	movl	(%rsi), %r10d
	movzwl	(%rsi), %esi
	movzwl	2(%rax), %r9d
	movq	%rdi, %r8
	movq	%rcx, %rdi
	movq	%fs:40, %rcx
	movq	%rcx, 72(%rsp)
	xorl	%ecx, %ecx
	cmpw	%r9w, %si
	ja	.L67
	leal	1(%r9), %ecx
	subl	%esi, %ecx
.L67:
	movq	_ZTVN8opendnp318BufferedCollectionINS_7IndexedINS_15DoubleBitBinaryEEEZNS_11RangeParser29InvokeRangeDoubleBitfieldTypeIS2_EEvRKNS_12HeaderRecordERKNS_5RangeERKN7openpal6RSliceERNS_12IAPDUHandlerEEUlRSD_jE_EE@GOTPCREL(%rip), %rsi
	movdqu	(%rdx), %xmm0
	leaq	32(%rsp), %rdx
	movq	%rcx, 56(%rsp)
	movl	(%rax), %eax
	movdqu	(%r8), %xmm1
	movl	%r10d, 64(%rsp)
	addq	$16, %rsi
	movups	%xmm0, 40(%rsp)
	movq	%rsi, 32(%rsp)
	movq	%rsp, %rsi
	movl	%eax, 16(%rsp)
	movaps	%xmm1, (%rsp)
	call	_ZN8opendnp312IAPDUHandler8OnHeaderERKNS_11RangeHeaderERKNS_11ICollectionINS_7IndexedINS_15DoubleBitBinaryEEEEE@PLT
	movq	72(%rsp), %rax
	subq	%fs:40, %rax
	jne	.L71
	addq	$88, %rsp
	.cfi_remember_state
	.cfi_def_cfa_offset 8
	ret
.L71:
	.cfi_restore_state
	call	__stack_chk_fail@PLT
	.cfi_endproc
.LFE2995:
	.size	_ZN8opendnp311RangeParser29InvokeRangeDoubleBitfieldTypeINS_15DoubleBitBinaryEEEvRKNS_12HeaderRecordERKNS_5RangeERKN7openpal6RSliceERNS_12IAPDUHandlerE, .-_ZN8opendnp311RangeParser29InvokeRangeDoubleBitfieldTypeINS_15DoubleBitBinaryEEEvRKNS_12HeaderRecordERKNS_5RangeERKN7openpal6RSliceERNS_12IAPDUHandlerE
	.section	.text._ZN8opendnp311RangeParser13InvokeRangeOfINS_10Group3Var2EEEvRKNS_12HeaderRecordERKNS_5RangeERKN7openpal6RSliceERNS_12IAPDUHandlerE,"axG",@progbits,_ZN8opendnp311RangeParser13InvokeRangeOfINS_10Group3Var2EEEvRKNS_12HeaderRecordERKNS_5RangeERKN7openpal6RSliceERNS_12IAPDUHandlerE,comdat
	.align 2
	.p2align 4
	.weak	_ZN8opendnp311RangeParser13InvokeRangeOfINS_10Group3Var2EEEvRKNS_12HeaderRecordERKNS_5RangeERKN7openpal6RSliceERNS_12IAPDUHandlerE
	.type	_ZN8opendnp311RangeParser13InvokeRangeOfINS_10Group3Var2EEEvRKNS_12HeaderRecordERKNS_5RangeERKN7openpal6RSliceERNS_12IAPDUHandlerE, @function
_ZN8opendnp311RangeParser13InvokeRangeOfINS_10Group3Var2EEEvRKNS_12HeaderRecordERKNS_5RangeERKN7openpal6RSliceERNS_12IAPDUHandlerE:
.LFB3011:
	.cfi_startproc
	endbr64
	movq	%rsi, %rax
	subq	$88, %rsp
	.cfi_def_cfa_offset 96
	movl	(%rsi), %r10d
	movzwl	(%rsi), %esi
	movzwl	2(%rax), %r9d
	movq	%rdi, %r8
	movq	%rcx, %rdi
	movq	%fs:40, %rcx
	movq	%rcx, 72(%rsp)
	xorl	%ecx, %ecx
	cmpw	%r9w, %si
	ja	.L73
	leal	1(%r9), %ecx
	subl	%esi, %ecx
.L73:
	movq	_ZTVN8opendnp318BufferedCollectionINS_7IndexedINS_15DoubleBitBinaryEEEZNS_11RangeParser13InvokeRangeOfINS_10Group3Var2EEEvRKNS_12HeaderRecordERKNS_5RangeERKN7openpal6RSliceERNS_12IAPDUHandlerEEUlRSE_jE_EE@GOTPCREL(%rip), %rsi
	movdqu	(%rdx), %xmm0
	leaq	32(%rsp), %rdx
	movq	%rcx, 56(%rsp)
	movl	(%rax), %eax
	movdqu	(%r8), %xmm1
	movl	%r10d, 64(%rsp)
	addq	$16, %rsi
	movups	%xmm0, 40(%rsp)
	movq	%rsi, 32(%rsp)
	movq	%rsp, %rsi
	movl	%eax, 16(%rsp)
	movaps	%xmm1, (%rsp)
	call	_ZN8opendnp312IAPDUHandler8OnHeaderERKNS_11RangeHeaderERKNS_11ICollectionINS_7IndexedINS_15DoubleBitBinaryEEEEE@PLT
	movq	72(%rsp), %rax
	subq	%fs:40, %rax
	jne	.L77
	addq	$88, %rsp
	.cfi_remember_state
	.cfi_def_cfa_offset 8
	ret
.L77:
	.cfi_restore_state
	call	__stack_chk_fail@PLT
	.cfi_endproc
.LFE3011:
	.size	_ZN8opendnp311RangeParser13InvokeRangeOfINS_10Group3Var2EEEvRKNS_12HeaderRecordERKNS_5RangeERKN7openpal6RSliceERNS_12IAPDUHandlerE, .-_ZN8opendnp311RangeParser13InvokeRangeOfINS_10Group3Var2EEEvRKNS_12HeaderRecordERKNS_5RangeERKN7openpal6RSliceERNS_12IAPDUHandlerE
	.section	.text._ZNK8opendnp318BufferedCollectionINS_7IndexedINS_15DoubleBitBinaryEEEZNS_11RangeParser29InvokeRangeDoubleBitfieldTypeIS2_EEvRKNS_12HeaderRecordERKNS_5RangeERKN7openpal6RSliceERNS_12IAPDUHandlerEEUlRSD_jE_E7ForeachERNS_8IVisitorIS3_EE,"axG",@progbits,_ZNK8opendnp318BufferedCollectionINS_7IndexedINS_15DoubleBitBinaryEEEZNS_11RangeParser29InvokeRangeDoubleBitfieldTypeIS2_EEvRKNS_12HeaderRecordERKNS_5RangeERKN7openpal6RSliceERNS_12IAPDUHandlerEEUlRSD_jE_E7ForeachERNS_8IVisitorIS3_EE,comdat
	.align 2
	.p2align 4
	.weak	_ZNK8opendnp318BufferedCollectionINS_7IndexedINS_15DoubleBitBinaryEEEZNS_11RangeParser29InvokeRangeDoubleBitfieldTypeIS2_EEvRKNS_12HeaderRecordERKNS_5RangeERKN7openpal6RSliceERNS_12IAPDUHandlerEEUlRSD_jE_E7ForeachERNS_8IVisitorIS3_EE
	.type	_ZNK8opendnp318BufferedCollectionINS_7IndexedINS_15DoubleBitBinaryEEEZNS_11RangeParser29InvokeRangeDoubleBitfieldTypeIS2_EEvRKNS_12HeaderRecordERKNS_5RangeERKN7openpal6RSliceERNS_12IAPDUHandlerEEUlRSD_jE_E7ForeachERNS_8IVisitorIS3_EE, @function
_ZNK8opendnp318BufferedCollectionINS_7IndexedINS_15DoubleBitBinaryEEEZNS_11RangeParser29InvokeRangeDoubleBitfieldTypeIS2_EEvRKNS_12HeaderRecordERKNS_5RangeERKN7openpal6RSliceERNS_12IAPDUHandlerEEUlRSD_jE_E7ForeachERNS_8IVisitorIS3_EE:
.LFB3663:
	.cfi_startproc
	endbr64
	pushq	%r15
	.cfi_def_cfa_offset 16
	.cfi_offset 15, -16
	pushq	%r14
	.cfi_def_cfa_offset 24
	.cfi_offset 14, -24
	pushq	%r13
	.cfi_def_cfa_offset 32
	.cfi_offset 13, -32
	pushq	%r12
	.cfi_def_cfa_offset 40
	.cfi_offset 12, -40
	pushq	%rbp
	.cfi_def_cfa_offset 48
	.cfi_offset 6, -48
	pushq	%rbx
	.cfi_def_cfa_offset 56
	.cfi_offset 3, -56
	subq	$120, %rsp
	.cfi_def_cfa_offset 176
	movdqu	8(%rdi), %xmm1
	movq	%fs:40, %rax
	movq	%rax, 104(%rsp)
	xorl	%eax, %eax
	cmpq	$0, 24(%rdi)
	movaps	%xmm1, 16(%rsp)
	je	.L78
	leaq	64(%rsp), %rax
	movq	%rdi, %rbp
	movq	%rsi, %r12
	xorl	%ebx, %ebx
	movq	%rax, 8(%rsp)
	leaq	16(%rsp), %r15
	leaq	32(%rsp), %r14
	.p2align 4,,10
	.p2align 3
.L80:
	movq	(%r12), %rax
	movl	%ebx, %esi
	movq	%r15, %rdi
	movq	(%rax), %r13
	call	_ZN8opendnp312GetDoubleBitERKN7openpal6RSliceEj@PLT
	movq	%r14, %rdi
	movl	%eax, %esi
	call	_ZN8opendnp315DoubleBitBinaryC1ENS_9DoubleBitE@PLT
	movzwl	32(%rbp), %eax
	movdqa	32(%rsp), %xmm0
	movq	%r12, %rdi
	movq	48(%rsp), %rcx
	movq	8(%rsp), %rsi
	addl	%ebx, %eax
	movaps	%xmm0, 64(%rsp)
	movw	%ax, 88(%rsp)
	movq	%rcx, 80(%rsp)
	call	*%r13
	leal	1(%rbx), %eax
	movq	%rax, %rbx
	cmpq	24(%rbp), %rax
	jb	.L80
.L78:
	movq	104(%rsp), %rax
	subq	%fs:40, %rax
	jne	.L84
	addq	$120, %rsp
	.cfi_remember_state
	.cfi_def_cfa_offset 56
	popq	%rbx
	.cfi_def_cfa_offset 48
	popq	%rbp
	.cfi_def_cfa_offset 40
	popq	%r12
	.cfi_def_cfa_offset 32
	popq	%r13
	.cfi_def_cfa_offset 24
	popq	%r14
	.cfi_def_cfa_offset 16
	popq	%r15
	.cfi_def_cfa_offset 8
	ret
.L84:
	.cfi_restore_state
	call	__stack_chk_fail@PLT
	.cfi_endproc
.LFE3663:
	.size	_ZNK8opendnp318BufferedCollectionINS_7IndexedINS_15DoubleBitBinaryEEEZNS_11RangeParser29InvokeRangeDoubleBitfieldTypeIS2_EEvRKNS_12HeaderRecordERKNS_5RangeERKN7openpal6RSliceERNS_12IAPDUHandlerEEUlRSD_jE_E7ForeachERNS_8IVisitorIS3_EE, .-_ZNK8opendnp318BufferedCollectionINS_7IndexedINS_15DoubleBitBinaryEEEZNS_11RangeParser29InvokeRangeDoubleBitfieldTypeIS2_EEvRKNS_12HeaderRecordERKNS_5RangeERKN7openpal6RSliceERNS_12IAPDUHandlerEEUlRSD_jE_E7ForeachERNS_8IVisitorIS3_EE
	.section	.text._ZN8opendnp311RangeParser23InvokeRangeBitfieldTypeINS_18BinaryOutputStatusEEEvRKNS_12HeaderRecordERKNS_5RangeERKN7openpal6RSliceERNS_12IAPDUHandlerE,"axG",@progbits,_ZN8opendnp311RangeParser23InvokeRangeBitfieldTypeINS_18BinaryOutputStatusEEEvRKNS_12HeaderRecordERKNS_5RangeERKN7openpal6RSliceERNS_12IAPDUHandlerE,comdat
	.align 2
	.p2align 4
	.weak	_ZN8opendnp311RangeParser23InvokeRangeBitfieldTypeINS_18BinaryOutputStatusEEEvRKNS_12HeaderRecordERKNS_5RangeERKN7openpal6RSliceERNS_12IAPDUHandlerE
	.type	_ZN8opendnp311RangeParser23InvokeRangeBitfieldTypeINS_18BinaryOutputStatusEEEvRKNS_12HeaderRecordERKNS_5RangeERKN7openpal6RSliceERNS_12IAPDUHandlerE, @function
_ZN8opendnp311RangeParser23InvokeRangeBitfieldTypeINS_18BinaryOutputStatusEEEvRKNS_12HeaderRecordERKNS_5RangeERKN7openpal6RSliceERNS_12IAPDUHandlerE:
.LFB3003:
	.cfi_startproc
	endbr64
	movq	%rsi, %rax
	subq	$88, %rsp
	.cfi_def_cfa_offset 96
	movl	(%rsi), %r10d
	movzwl	(%rsi), %esi
	movzwl	2(%rax), %r9d
	movq	%rdi, %r8
	movq	%rcx, %rdi
	movq	%fs:40, %rcx
	movq	%rcx, 72(%rsp)
	xorl	%ecx, %ecx
	cmpw	%r9w, %si
	ja	.L86
	leal	1(%r9), %ecx
	subl	%esi, %ecx
.L86:
	movq	_ZTVN8opendnp318BufferedCollectionINS_7IndexedINS_18BinaryOutputStatusEEEZNS_11RangeParser23InvokeRangeBitfieldTypeIS2_EEvRKNS_12HeaderRecordERKNS_5RangeERKN7openpal6RSliceERNS_12IAPDUHandlerEEUlRSD_jE_EE@GOTPCREL(%rip), %rsi
	movdqu	(%rdx), %xmm0
	leaq	32(%rsp), %rdx
	movq	%rcx, 56(%rsp)
	movl	(%rax), %eax
	movdqu	(%r8), %xmm1
	movl	%r10d, 64(%rsp)
	addq	$16, %rsi
	movups	%xmm0, 40(%rsp)
	movq	%rsi, 32(%rsp)
	movq	%rsp, %rsi
	movl	%eax, 16(%rsp)
	movaps	%xmm1, (%rsp)
	call	_ZN8opendnp312IAPDUHandler8OnHeaderERKNS_11RangeHeaderERKNS_11ICollectionINS_7IndexedINS_18BinaryOutputStatusEEEEE@PLT
	movq	72(%rsp), %rax
	subq	%fs:40, %rax
	jne	.L90
	addq	$88, %rsp
	.cfi_remember_state
	.cfi_def_cfa_offset 8
	ret
.L90:
	.cfi_restore_state
	call	__stack_chk_fail@PLT
	.cfi_endproc
.LFE3003:
	.size	_ZN8opendnp311RangeParser23InvokeRangeBitfieldTypeINS_18BinaryOutputStatusEEEvRKNS_12HeaderRecordERKNS_5RangeERKN7openpal6RSliceERNS_12IAPDUHandlerE, .-_ZN8opendnp311RangeParser23InvokeRangeBitfieldTypeINS_18BinaryOutputStatusEEEvRKNS_12HeaderRecordERKNS_5RangeERKN7openpal6RSliceERNS_12IAPDUHandlerE
	.section	.text._ZN8opendnp311RangeParser13InvokeRangeOfINS_11Group10Var2EEEvRKNS_12HeaderRecordERKNS_5RangeERKN7openpal6RSliceERNS_12IAPDUHandlerE,"axG",@progbits,_ZN8opendnp311RangeParser13InvokeRangeOfINS_11Group10Var2EEEvRKNS_12HeaderRecordERKNS_5RangeERKN7openpal6RSliceERNS_12IAPDUHandlerE,comdat
	.align 2
	.p2align 4
	.weak	_ZN8opendnp311RangeParser13InvokeRangeOfINS_11Group10Var2EEEvRKNS_12HeaderRecordERKNS_5RangeERKN7openpal6RSliceERNS_12IAPDUHandlerE
	.type	_ZN8opendnp311RangeParser13InvokeRangeOfINS_11Group10Var2EEEvRKNS_12HeaderRecordERKNS_5RangeERKN7openpal6RSliceERNS_12IAPDUHandlerE, @function
_ZN8opendnp311RangeParser13InvokeRangeOfINS_11Group10Var2EEEvRKNS_12HeaderRecordERKNS_5RangeERKN7openpal6RSliceERNS_12IAPDUHandlerE:
.LFB3016:
	.cfi_startproc
	endbr64
	movq	%rsi, %rax
	subq	$88, %rsp
	.cfi_def_cfa_offset 96
	movl	(%rsi), %r10d
	movzwl	(%rsi), %esi
	movzwl	2(%rax), %r9d
	movq	%rdi, %r8
	movq	%rcx, %rdi
	movq	%fs:40, %rcx
	movq	%rcx, 72(%rsp)
	xorl	%ecx, %ecx
	cmpw	%r9w, %si
	ja	.L92
	leal	1(%r9), %ecx
	subl	%esi, %ecx
.L92:
	movq	_ZTVN8opendnp318BufferedCollectionINS_7IndexedINS_18BinaryOutputStatusEEEZNS_11RangeParser13InvokeRangeOfINS_11Group10Var2EEEvRKNS_12HeaderRecordERKNS_5RangeERKN7openpal6RSliceERNS_12IAPDUHandlerEEUlRSE_jE_EE@GOTPCREL(%rip), %rsi
	movdqu	(%rdx), %xmm0
	leaq	32(%rsp), %rdx
	movq	%rcx, 56(%rsp)
	movl	(%rax), %eax
	movdqu	(%r8), %xmm1
	movl	%r10d, 64(%rsp)
	addq	$16, %rsi
	movups	%xmm0, 40(%rsp)
	movq	%rsi, 32(%rsp)
	movq	%rsp, %rsi
	movl	%eax, 16(%rsp)
	movaps	%xmm1, (%rsp)
	call	_ZN8opendnp312IAPDUHandler8OnHeaderERKNS_11RangeHeaderERKNS_11ICollectionINS_7IndexedINS_18BinaryOutputStatusEEEEE@PLT
	movq	72(%rsp), %rax
	subq	%fs:40, %rax
	jne	.L96
	addq	$88, %rsp
	.cfi_remember_state
	.cfi_def_cfa_offset 8
	ret
.L96:
	.cfi_restore_state
	call	__stack_chk_fail@PLT
	.cfi_endproc
.LFE3016:
	.size	_ZN8opendnp311RangeParser13InvokeRangeOfINS_11Group10Var2EEEvRKNS_12HeaderRecordERKNS_5RangeERKN7openpal6RSliceERNS_12IAPDUHandlerE, .-_ZN8opendnp311RangeParser13InvokeRangeOfINS_11Group10Var2EEEvRKNS_12HeaderRecordERKNS_5RangeERKN7openpal6RSliceERNS_12IAPDUHandlerE
	.section	.text._ZNK8opendnp318BufferedCollectionINS_7IndexedINS_18BinaryOutputStatusEEEZNS_11RangeParser23InvokeRangeBitfieldTypeIS2_EEvRKNS_12HeaderRecordERKNS_5RangeERKN7openpal6RSliceERNS_12IAPDUHandlerEEUlRSD_jE_E7ForeachERNS_8IVisitorIS3_EE,"axG",@progbits,_ZNK8opendnp318BufferedCollectionINS_7IndexedINS_18BinaryOutputStatusEEEZNS_11RangeParser23InvokeRangeBitfieldTypeIS2_EEvRKNS_12HeaderRecordERKNS_5RangeERKN7openpal6RSliceERNS_12IAPDUHandlerEEUlRSD_jE_E7ForeachERNS_8IVisitorIS3_EE,comdat
	.align 2
	.p2align 4
	.weak	_ZNK8opendnp318BufferedCollectionINS_7IndexedINS_18BinaryOutputStatusEEEZNS_11RangeParser23InvokeRangeBitfieldTypeIS2_EEvRKNS_12HeaderRecordERKNS_5RangeERKN7openpal6RSliceERNS_12IAPDUHandlerEEUlRSD_jE_E7ForeachERNS_8IVisitorIS3_EE
	.type	_ZNK8opendnp318BufferedCollectionINS_7IndexedINS_18BinaryOutputStatusEEEZNS_11RangeParser23InvokeRangeBitfieldTypeIS2_EEvRKNS_12HeaderRecordERKNS_5RangeERKN7openpal6RSliceERNS_12IAPDUHandlerEEUlRSD_jE_E7ForeachERNS_8IVisitorIS3_EE, @function
_ZNK8opendnp318BufferedCollectionINS_7IndexedINS_18BinaryOutputStatusEEEZNS_11RangeParser23InvokeRangeBitfieldTypeIS2_EEvRKNS_12HeaderRecordERKNS_5RangeERKN7openpal6RSliceERNS_12IAPDUHandlerEEUlRSD_jE_E7ForeachERNS_8IVisitorIS3_EE:
.LFB3661:
	.cfi_startproc
	endbr64
	pushq	%r15
	.cfi_def_cfa_offset 16
	.cfi_offset 15, -16
	pushq	%r14
	.cfi_def_cfa_offset 24
	.cfi_offset 14, -24
	pushq	%r13
	.cfi_def_cfa_offset 32
	.cfi_offset 13, -32
	pushq	%r12
	.cfi_def_cfa_offset 40
	.cfi_offset 12, -40
	pushq	%rbp
	.cfi_def_cfa_offset 48
	.cfi_offset 6, -48
	pushq	%rbx
	.cfi_def_cfa_offset 56
	.cfi_offset 3, -56
	subq	$120, %rsp
	.cfi_def_cfa_offset 176
	movdqu	8(%rdi), %xmm1
	movq	%fs:40, %rax
	movq	%rax, 104(%rsp)
	xorl	%eax, %eax
	cmpq	$0, 24(%rdi)
	movaps	%xmm1, 16(%rsp)
	je	.L97
	leaq	64(%rsp), %rax
	movq	%rdi, %rbp
	movq	%rsi, %r12
	xorl	%ebx, %ebx
	movq	%rax, 8(%rsp)
	leaq	16(%rsp), %r15
	leaq	32(%rsp), %r14
	.p2align 4,,10
	.p2align 3
.L99:
	movq	(%r12), %rax
	movl	%ebx, %esi
	movq	%r15, %rdi
	movq	(%rax), %r13
	call	_ZN8opendnp36GetBitERKN7openpal6RSliceEj@PLT
	movq	%r14, %rdi
	movzbl	%al, %esi
	call	_ZN8opendnp318BinaryOutputStatusC1Eb@PLT
	movzwl	32(%rbp), %eax
	movdqa	32(%rsp), %xmm0
	movq	%r12, %rdi
	movq	48(%rsp), %rcx
	movq	8(%rsp), %rsi
	addl	%ebx, %eax
	movaps	%xmm0, 64(%rsp)
	movw	%ax, 88(%rsp)
	movq	%rcx, 80(%rsp)
	call	*%r13
	leal	1(%rbx), %eax
	movq	%rax, %rbx
	cmpq	24(%rbp), %rax
	jb	.L99
.L97:
	movq	104(%rsp), %rax
	subq	%fs:40, %rax
	jne	.L103
	addq	$120, %rsp
	.cfi_remember_state
	.cfi_def_cfa_offset 56
	popq	%rbx
	.cfi_def_cfa_offset 48
	popq	%rbp
	.cfi_def_cfa_offset 40
	popq	%r12
	.cfi_def_cfa_offset 32
	popq	%r13
	.cfi_def_cfa_offset 24
	popq	%r14
	.cfi_def_cfa_offset 16
	popq	%r15
	.cfi_def_cfa_offset 8
	ret
.L103:
	.cfi_restore_state
	call	__stack_chk_fail@PLT
	.cfi_endproc
.LFE3661:
	.size	_ZNK8opendnp318BufferedCollectionINS_7IndexedINS_18BinaryOutputStatusEEEZNS_11RangeParser23InvokeRangeBitfieldTypeIS2_EEvRKNS_12HeaderRecordERKNS_5RangeERKN7openpal6RSliceERNS_12IAPDUHandlerEEUlRSD_jE_E7ForeachERNS_8IVisitorIS3_EE, .-_ZNK8opendnp318BufferedCollectionINS_7IndexedINS_18BinaryOutputStatusEEEZNS_11RangeParser23InvokeRangeBitfieldTypeIS2_EEvRKNS_12HeaderRecordERKNS_5RangeERKN7openpal6RSliceERNS_12IAPDUHandlerEEUlRSD_jE_E7ForeachERNS_8IVisitorIS3_EE
	.section	.text._ZNK8opendnp318BufferedCollectionINS_7IndexedINS_15DoubleBitBinaryEEEZNS_11RangeParser13InvokeRangeOfINS_10Group3Var2EEEvRKNS_12HeaderRecordERKNS_5RangeERKN7openpal6RSliceERNS_12IAPDUHandlerEEUlRSE_jE_E7ForeachERNS_8IVisitorIS3_EE,"axG",@progbits,_ZNK8opendnp318BufferedCollectionINS_7IndexedINS_15DoubleBitBinaryEEEZNS_11RangeParser13InvokeRangeOfINS_10Group3Var2EEEvRKNS_12HeaderRecordERKNS_5RangeERKN7openpal6RSliceERNS_12IAPDUHandlerEEUlRSE_jE_E7ForeachERNS_8IVisitorIS3_EE,comdat
	.align 2
	.p2align 4
	.weak	_ZNK8opendnp318BufferedCollectionINS_7IndexedINS_15DoubleBitBinaryEEEZNS_11RangeParser13InvokeRangeOfINS_10Group3Var2EEEvRKNS_12HeaderRecordERKNS_5RangeERKN7openpal6RSliceERNS_12IAPDUHandlerEEUlRSE_jE_E7ForeachERNS_8IVisitorIS3_EE
	.type	_ZNK8opendnp318BufferedCollectionINS_7IndexedINS_15DoubleBitBinaryEEEZNS_11RangeParser13InvokeRangeOfINS_10Group3Var2EEEvRKNS_12HeaderRecordERKNS_5RangeERKN7openpal6RSliceERNS_12IAPDUHandlerEEUlRSE_jE_E7ForeachERNS_8IVisitorIS3_EE, @function
_ZNK8opendnp318BufferedCollectionINS_7IndexedINS_15DoubleBitBinaryEEEZNS_11RangeParser13InvokeRangeOfINS_10Group3Var2EEEvRKNS_12HeaderRecordERKNS_5RangeERKN7openpal6RSliceERNS_12IAPDUHandlerEEUlRSE_jE_E7ForeachERNS_8IVisitorIS3_EE:
.LFB3659:
	.cfi_startproc
	endbr64
	pushq	%r15
	.cfi_def_cfa_offset 16
	.cfi_offset 15, -16
	pushq	%r14
	.cfi_def_cfa_offset 24
	.cfi_offset 14, -24
	pushq	%r13
	.cfi_def_cfa_offset 32
	.cfi_offset 13, -32
	pushq	%r12
	.cfi_def_cfa_offset 40
	.cfi_offset 12, -40
	pushq	%rbp
	.cfi_def_cfa_offset 48
	.cfi_offset 6, -48
	pushq	%rbx
	.cfi_def_cfa_offset 56
	.cfi_offset 3, -56
	subq	$120, %rsp
	.cfi_def_cfa_offset 176
	movdqu	8(%rdi), %xmm1
	movq	%fs:40, %rax
	movq	%rax, 104(%rsp)
	xorl	%eax, %eax
	cmpq	$0, 24(%rdi)
	movaps	%xmm1, 16(%rsp)
	je	.L104
	leaq	64(%rsp), %rax
	movq	%rdi, %rbp
	movq	%rsi, %r12
	xorl	%ebx, %ebx
	movq	%rax, 8(%rsp)
	leaq	32(%rsp), %r13
	leaq	16(%rsp), %r15
	.p2align 4,,10
	.p2align 3
.L106:
	movq	(%r12), %rax
	movq	%r13, %rdi
	movq	(%rax), %r14
	call	_ZN8opendnp315DoubleBitBinaryC1Ev@PLT
	movq	%r13, %rsi
	movq	%r15, %rdi
	call	_ZN8opendnp310Group3Var210ReadTargetERN7openpal6RSliceERNS_15DoubleBitBinaryE@PLT
	movzwl	32(%rbp), %eax
	movdqa	32(%rsp), %xmm0
	movq	%r12, %rdi
	movq	48(%rsp), %rcx
	movq	8(%rsp), %rsi
	addl	%ebx, %eax
	movaps	%xmm0, 64(%rsp)
	movw	%ax, 88(%rsp)
	movq	%rcx, 80(%rsp)
	call	*%r14
	leal	1(%rbx), %eax
	movq	%rax, %rbx
	cmpq	24(%rbp), %rax
	jb	.L106
.L104:
	movq	104(%rsp), %rax
	subq	%fs:40, %rax
	jne	.L110
	addq	$120, %rsp
	.cfi_remember_state
	.cfi_def_cfa_offset 56
	popq	%rbx
	.cfi_def_cfa_offset 48
	popq	%rbp
	.cfi_def_cfa_offset 40
	popq	%r12
	.cfi_def_cfa_offset 32
	popq	%r13
	.cfi_def_cfa_offset 24
	popq	%r14
	.cfi_def_cfa_offset 16
	popq	%r15
	.cfi_def_cfa_offset 8
	ret
.L110:
	.cfi_restore_state
	call	__stack_chk_fail@PLT
	.cfi_endproc
.LFE3659:
	.size	_ZNK8opendnp318BufferedCollectionINS_7IndexedINS_15DoubleBitBinaryEEEZNS_11RangeParser13InvokeRangeOfINS_10Group3Var2EEEvRKNS_12HeaderRecordERKNS_5RangeERKN7openpal6RSliceERNS_12IAPDUHandlerEEUlRSE_jE_E7ForeachERNS_8IVisitorIS3_EE, .-_ZNK8opendnp318BufferedCollectionINS_7IndexedINS_15DoubleBitBinaryEEEZNS_11RangeParser13InvokeRangeOfINS_10Group3Var2EEEvRKNS_12HeaderRecordERKNS_5RangeERKN7openpal6RSliceERNS_12IAPDUHandlerEEUlRSE_jE_E7ForeachERNS_8IVisitorIS3_EE
	.section	.text._ZNK8opendnp318BufferedCollectionINS_7IndexedINS_18BinaryOutputStatusEEEZNS_11RangeParser13InvokeRangeOfINS_11Group10Var2EEEvRKNS_12HeaderRecordERKNS_5RangeERKN7openpal6RSliceERNS_12IAPDUHandlerEEUlRSE_jE_E7ForeachERNS_8IVisitorIS3_EE,"axG",@progbits,_ZNK8opendnp318BufferedCollectionINS_7IndexedINS_18BinaryOutputStatusEEEZNS_11RangeParser13InvokeRangeOfINS_11Group10Var2EEEvRKNS_12HeaderRecordERKNS_5RangeERKN7openpal6RSliceERNS_12IAPDUHandlerEEUlRSE_jE_E7ForeachERNS_8IVisitorIS3_EE,comdat
	.align 2
	.p2align 4
	.weak	_ZNK8opendnp318BufferedCollectionINS_7IndexedINS_18BinaryOutputStatusEEEZNS_11RangeParser13InvokeRangeOfINS_11Group10Var2EEEvRKNS_12HeaderRecordERKNS_5RangeERKN7openpal6RSliceERNS_12IAPDUHandlerEEUlRSE_jE_E7ForeachERNS_8IVisitorIS3_EE
	.type	_ZNK8opendnp318BufferedCollectionINS_7IndexedINS_18BinaryOutputStatusEEEZNS_11RangeParser13InvokeRangeOfINS_11Group10Var2EEEvRKNS_12HeaderRecordERKNS_5RangeERKN7openpal6RSliceERNS_12IAPDUHandlerEEUlRSE_jE_E7ForeachERNS_8IVisitorIS3_EE, @function
_ZNK8opendnp318BufferedCollectionINS_7IndexedINS_18BinaryOutputStatusEEEZNS_11RangeParser13InvokeRangeOfINS_11Group10Var2EEEvRKNS_12HeaderRecordERKNS_5RangeERKN7openpal6RSliceERNS_12IAPDUHandlerEEUlRSE_jE_E7ForeachERNS_8IVisitorIS3_EE:
.LFB3657:
	.cfi_startproc
	endbr64
	pushq	%r15
	.cfi_def_cfa_offset 16
	.cfi_offset 15, -16
	pushq	%r14
	.cfi_def_cfa_offset 24
	.cfi_offset 14, -24
	pushq	%r13
	.cfi_def_cfa_offset 32
	.cfi_offset 13, -32
	pushq	%r12
	.cfi_def_cfa_offset 40
	.cfi_offset 12, -40
	pushq	%rbp
	.cfi_def_cfa_offset 48
	.cfi_offset 6, -48
	pushq	%rbx
	.cfi_def_cfa_offset 56
	.cfi_offset 3, -56
	subq	$120, %rsp
	.cfi_def_cfa_offset 176
	movdqu	8(%rdi), %xmm1
	movq	%fs:40, %rax
	movq	%rax, 104(%rsp)
	xorl	%eax, %eax
	cmpq	$0, 24(%rdi)
	movaps	%xmm1, 16(%rsp)
	je	.L111
	leaq	64(%rsp), %rax
	movq	%rdi, %rbp
	movq	%rsi, %r12
	xorl	%ebx, %ebx
	movq	%rax, 8(%rsp)
	leaq	32(%rsp), %r13
	leaq	16(%rsp), %r15
	.p2align 4,,10
	.p2align 3
.L113:
	movq	(%r12), %rax
	movq	%r13, %rdi
	movq	(%rax), %r14
	call	_ZN8opendnp318BinaryOutputStatusC1Ev@PLT
	movq	%r13, %rsi
	movq	%r15, %rdi
	call	_ZN8opendnp311Group10Var210ReadTargetERN7openpal6RSliceERNS_18BinaryOutputStatusE@PLT
	movzwl	32(%rbp), %eax
	movdqa	32(%rsp), %xmm0
	movq	%r12, %rdi
	movq	48(%rsp), %rcx
	movq	8(%rsp), %rsi
	addl	%ebx, %eax
	movaps	%xmm0, 64(%rsp)
	movw	%ax, 88(%rsp)
	movq	%rcx, 80(%rsp)
	call	*%r14
	leal	1(%rbx), %eax
	movq	%rax, %rbx
	cmpq	24(%rbp), %rax
	jb	.L113
.L111:
	movq	104(%rsp), %rax
	subq	%fs:40, %rax
	jne	.L117
	addq	$120, %rsp
	.cfi_remember_state
	.cfi_def_cfa_offset 56
	popq	%rbx
	.cfi_def_cfa_offset 48
	popq	%rbp
	.cfi_def_cfa_offset 40
	popq	%r12
	.cfi_def_cfa_offset 32
	popq	%r13
	.cfi_def_cfa_offset 24
	popq	%r14
	.cfi_def_cfa_offset 16
	popq	%r15
	.cfi_def_cfa_offset 8
	ret
.L117:
	.cfi_restore_state
	call	__stack_chk_fail@PLT
	.cfi_endproc
.LFE3657:
	.size	_ZNK8opendnp318BufferedCollectionINS_7IndexedINS_18BinaryOutputStatusEEEZNS_11RangeParser13InvokeRangeOfINS_11Group10Var2EEEvRKNS_12HeaderRecordERKNS_5RangeERKN7openpal6RSliceERNS_12IAPDUHandlerEEUlRSE_jE_E7ForeachERNS_8IVisitorIS3_EE, .-_ZNK8opendnp318BufferedCollectionINS_7IndexedINS_18BinaryOutputStatusEEEZNS_11RangeParser13InvokeRangeOfINS_11Group10Var2EEEvRKNS_12HeaderRecordERKNS_5RangeERKN7openpal6RSliceERNS_12IAPDUHandlerEEUlRSE_jE_E7ForeachERNS_8IVisitorIS3_EE
	.section	.text._ZN8opendnp311RangeParser13InvokeRangeOfINS_11Group20Var1EEEvRKNS_12HeaderRecordERKNS_5RangeERKN7openpal6RSliceERNS_12IAPDUHandlerE,"axG",@progbits,_ZN8opendnp311RangeParser13InvokeRangeOfINS_11Group20Var1EEEvRKNS_12HeaderRecordERKNS_5RangeERKN7openpal6RSliceERNS_12IAPDUHandlerE,comdat
	.align 2
	.p2align 4
	.weak	_ZN8opendnp311RangeParser13InvokeRangeOfINS_11Group20Var1EEEvRKNS_12HeaderRecordERKNS_5RangeERKN7openpal6RSliceERNS_12IAPDUHandlerE
	.type	_ZN8opendnp311RangeParser13InvokeRangeOfINS_11Group20Var1EEEvRKNS_12HeaderRecordERKNS_5RangeERKN7openpal6RSliceERNS_12IAPDUHandlerE, @function
_ZN8opendnp311RangeParser13InvokeRangeOfINS_11Group20Var1EEEvRKNS_12HeaderRecordERKNS_5RangeERKN7openpal6RSliceERNS_12IAPDUHandlerE:
.LFB3021:
	.cfi_startproc
	endbr64
	movq	%rsi, %rax
	subq	$88, %rsp
	.cfi_def_cfa_offset 96
	movl	(%rsi), %r10d
	movzwl	(%rsi), %esi
	movzwl	2(%rax), %r9d
	movq	%rdi, %r8
	movq	%rcx, %rdi
	movq	%fs:40, %rcx
	movq	%rcx, 72(%rsp)
	xorl	%ecx, %ecx
	cmpw	%r9w, %si
	ja	.L119
	leal	1(%r9), %ecx
	subl	%esi, %ecx
.L119:
	movq	_ZTVN8opendnp318BufferedCollectionINS_7IndexedINS_7CounterEEEZNS_11RangeParser13InvokeRangeOfINS_11Group20Var1EEEvRKNS_12HeaderRecordERKNS_5RangeERKN7openpal6RSliceERNS_12IAPDUHandlerEEUlRSE_jE_EE@GOTPCREL(%rip), %rsi
	movdqu	(%rdx), %xmm0
	leaq	32(%rsp), %rdx
	movq	%rcx, 56(%rsp)
	movl	(%rax), %eax
	movdqu	(%r8), %xmm1
	movl	%r10d, 64(%rsp)
	addq	$16, %rsi
	movups	%xmm0, 40(%rsp)
	movq	%rsi, 32(%rsp)
	movq	%rsp, %rsi
	movl	%eax, 16(%rsp)
	movaps	%xmm1, (%rsp)
	call	_ZN8opendnp312IAPDUHandler8OnHeaderERKNS_11RangeHeaderERKNS_11ICollectionINS_7IndexedINS_7CounterEEEEE@PLT
	movq	72(%rsp), %rax
	subq	%fs:40, %rax
	jne	.L123
	addq	$88, %rsp
	.cfi_remember_state
	.cfi_def_cfa_offset 8
	ret
.L123:
	.cfi_restore_state
	call	__stack_chk_fail@PLT
	.cfi_endproc
.LFE3021:
	.size	_ZN8opendnp311RangeParser13InvokeRangeOfINS_11Group20Var1EEEvRKNS_12HeaderRecordERKNS_5RangeERKN7openpal6RSliceERNS_12IAPDUHandlerE, .-_ZN8opendnp311RangeParser13InvokeRangeOfINS_11Group20Var1EEEvRKNS_12HeaderRecordERKNS_5RangeERKN7openpal6RSliceERNS_12IAPDUHandlerE
	.section	.text._ZN8opendnp311RangeParser13InvokeRangeOfINS_11Group20Var2EEEvRKNS_12HeaderRecordERKNS_5RangeERKN7openpal6RSliceERNS_12IAPDUHandlerE,"axG",@progbits,_ZN8opendnp311RangeParser13InvokeRangeOfINS_11Group20Var2EEEvRKNS_12HeaderRecordERKNS_5RangeERKN7openpal6RSliceERNS_12IAPDUHandlerE,comdat
	.align 2
	.p2align 4
	.weak	_ZN8opendnp311RangeParser13InvokeRangeOfINS_11Group20Var2EEEvRKNS_12HeaderRecordERKNS_5RangeERKN7openpal6RSliceERNS_12IAPDUHandlerE
	.type	_ZN8opendnp311RangeParser13InvokeRangeOfINS_11Group20Var2EEEvRKNS_12HeaderRecordERKNS_5RangeERKN7openpal6RSliceERNS_12IAPDUHandlerE, @function
_ZN8opendnp311RangeParser13InvokeRangeOfINS_11Group20Var2EEEvRKNS_12HeaderRecordERKNS_5RangeERKN7openpal6RSliceERNS_12IAPDUHandlerE:
.LFB3029:
	.cfi_startproc
	endbr64
	movq	%rsi, %rax
	subq	$88, %rsp
	.cfi_def_cfa_offset 96
	movl	(%rsi), %r10d
	movzwl	(%rsi), %esi
	movzwl	2(%rax), %r9d
	movq	%rdi, %r8
	movq	%rcx, %rdi
	movq	%fs:40, %rcx
	movq	%rcx, 72(%rsp)
	xorl	%ecx, %ecx
	cmpw	%r9w, %si
	ja	.L125
	leal	1(%r9), %ecx
	subl	%esi, %ecx
.L125:
	movq	_ZTVN8opendnp318BufferedCollectionINS_7IndexedINS_7CounterEEEZNS_11RangeParser13InvokeRangeOfINS_11Group20Var2EEEvRKNS_12HeaderRecordERKNS_5RangeERKN7openpal6RSliceERNS_12IAPDUHandlerEEUlRSE_jE_EE@GOTPCREL(%rip), %rsi
	movdqu	(%rdx), %xmm0
	leaq	32(%rsp), %rdx
	movq	%rcx, 56(%rsp)
	movl	(%rax), %eax
	movdqu	(%r8), %xmm1
	movl	%r10d, 64(%rsp)
	addq	$16, %rsi
	movups	%xmm0, 40(%rsp)
	movq	%rsi, 32(%rsp)
	movq	%rsp, %rsi
	movl	%eax, 16(%rsp)
	movaps	%xmm1, (%rsp)
	call	_ZN8opendnp312IAPDUHandler8OnHeaderERKNS_11RangeHeaderERKNS_11ICollectionINS_7IndexedINS_7CounterEEEEE@PLT
	movq	72(%rsp), %rax
	subq	%fs:40, %rax
	jne	.L129
	addq	$88, %rsp
	.cfi_remember_state
	.cfi_def_cfa_offset 8
	ret
.L129:
	.cfi_restore_state
	call	__stack_chk_fail@PLT
	.cfi_endproc
.LFE3029:
	.size	_ZN8opendnp311RangeParser13InvokeRangeOfINS_11Group20Var2EEEvRKNS_12HeaderRecordERKNS_5RangeERKN7openpal6RSliceERNS_12IAPDUHandlerE, .-_ZN8opendnp311RangeParser13InvokeRangeOfINS_11Group20Var2EEEvRKNS_12HeaderRecordERKNS_5RangeERKN7openpal6RSliceERNS_12IAPDUHandlerE
	.section	.text._ZN8opendnp311RangeParser13InvokeRangeOfINS_11Group20Var5EEEvRKNS_12HeaderRecordERKNS_5RangeERKN7openpal6RSliceERNS_12IAPDUHandlerE,"axG",@progbits,_ZN8opendnp311RangeParser13InvokeRangeOfINS_11Group20Var5EEEvRKNS_12HeaderRecordERKNS_5RangeERKN7openpal6RSliceERNS_12IAPDUHandlerE,comdat
	.align 2
	.p2align 4
	.weak	_ZN8opendnp311RangeParser13InvokeRangeOfINS_11Group20Var5EEEvRKNS_12HeaderRecordERKNS_5RangeERKN7openpal6RSliceERNS_12IAPDUHandlerE
	.type	_ZN8opendnp311RangeParser13InvokeRangeOfINS_11Group20Var5EEEvRKNS_12HeaderRecordERKNS_5RangeERKN7openpal6RSliceERNS_12IAPDUHandlerE, @function
_ZN8opendnp311RangeParser13InvokeRangeOfINS_11Group20Var5EEEvRKNS_12HeaderRecordERKNS_5RangeERKN7openpal6RSliceERNS_12IAPDUHandlerE:
.LFB3034:
	.cfi_startproc
	endbr64
	movq	%rsi, %rax
	subq	$88, %rsp
	.cfi_def_cfa_offset 96
	movl	(%rsi), %r10d
	movzwl	(%rsi), %esi
	movzwl	2(%rax), %r9d
	movq	%rdi, %r8
	movq	%rcx, %rdi
	movq	%fs:40, %rcx
	movq	%rcx, 72(%rsp)
	xorl	%ecx, %ecx
	cmpw	%r9w, %si
	ja	.L131
	leal	1(%r9), %ecx
	subl	%esi, %ecx
.L131:
	movq	_ZTVN8opendnp318BufferedCollectionINS_7IndexedINS_7CounterEEEZNS_11RangeParser13InvokeRangeOfINS_11Group20Var5EEEvRKNS_12HeaderRecordERKNS_5RangeERKN7openpal6RSliceERNS_12IAPDUHandlerEEUlRSE_jE_EE@GOTPCREL(%rip), %rsi
	movdqu	(%rdx), %xmm0
	leaq	32(%rsp), %rdx
	movq	%rcx, 56(%rsp)
	movl	(%rax), %eax
	movdqu	(%r8), %xmm1
	movl	%r10d, 64(%rsp)
	addq	$16, %rsi
	movups	%xmm0, 40(%rsp)
	movq	%rsi, 32(%rsp)
	movq	%rsp, %rsi
	movl	%eax, 16(%rsp)
	movaps	%xmm1, (%rsp)
	call	_ZN8opendnp312IAPDUHandler8OnHeaderERKNS_11RangeHeaderERKNS_11ICollectionINS_7IndexedINS_7CounterEEEEE@PLT
	movq	72(%rsp), %rax
	subq	%fs:40, %rax
	jne	.L135
	addq	$88, %rsp
	.cfi_remember_state
	.cfi_def_cfa_offset 8
	ret
.L135:
	.cfi_restore_state
	call	__stack_chk_fail@PLT
	.cfi_endproc
.LFE3034:
	.size	_ZN8opendnp311RangeParser13InvokeRangeOfINS_11Group20Var5EEEvRKNS_12HeaderRecordERKNS_5RangeERKN7openpal6RSliceERNS_12IAPDUHandlerE, .-_ZN8opendnp311RangeParser13InvokeRangeOfINS_11Group20Var5EEEvRKNS_12HeaderRecordERKNS_5RangeERKN7openpal6RSliceERNS_12IAPDUHandlerE
	.section	.text._ZN8opendnp311RangeParser13InvokeRangeOfINS_11Group20Var6EEEvRKNS_12HeaderRecordERKNS_5RangeERKN7openpal6RSliceERNS_12IAPDUHandlerE,"axG",@progbits,_ZN8opendnp311RangeParser13InvokeRangeOfINS_11Group20Var6EEEvRKNS_12HeaderRecordERKNS_5RangeERKN7openpal6RSliceERNS_12IAPDUHandlerE,comdat
	.align 2
	.p2align 4
	.weak	_ZN8opendnp311RangeParser13InvokeRangeOfINS_11Group20Var6EEEvRKNS_12HeaderRecordERKNS_5RangeERKN7openpal6RSliceERNS_12IAPDUHandlerE
	.type	_ZN8opendnp311RangeParser13InvokeRangeOfINS_11Group20Var6EEEvRKNS_12HeaderRecordERKNS_5RangeERKN7openpal6RSliceERNS_12IAPDUHandlerE, @function
_ZN8opendnp311RangeParser13InvokeRangeOfINS_11Group20Var6EEEvRKNS_12HeaderRecordERKNS_5RangeERKN7openpal6RSliceERNS_12IAPDUHandlerE:
.LFB3039:
	.cfi_startproc
	endbr64
	movq	%rsi, %rax
	subq	$88, %rsp
	.cfi_def_cfa_offset 96
	movl	(%rsi), %r10d
	movzwl	(%rsi), %esi
	movzwl	2(%rax), %r9d
	movq	%rdi, %r8
	movq	%rcx, %rdi
	movq	%fs:40, %rcx
	movq	%rcx, 72(%rsp)
	xorl	%ecx, %ecx
	cmpw	%r9w, %si
	ja	.L137
	leal	1(%r9), %ecx
	subl	%esi, %ecx
.L137:
	movq	_ZTVN8opendnp318BufferedCollectionINS_7IndexedINS_7CounterEEEZNS_11RangeParser13InvokeRangeOfINS_11Group20Var6EEEvRKNS_12HeaderRecordERKNS_5RangeERKN7openpal6RSliceERNS_12IAPDUHandlerEEUlRSE_jE_EE@GOTPCREL(%rip), %rsi
	movdqu	(%rdx), %xmm0
	leaq	32(%rsp), %rdx
	movq	%rcx, 56(%rsp)
	movl	(%rax), %eax
	movdqu	(%r8), %xmm1
	movl	%r10d, 64(%rsp)
	addq	$16, %rsi
	movups	%xmm0, 40(%rsp)
	movq	%rsi, 32(%rsp)
	movq	%rsp, %rsi
	movl	%eax, 16(%rsp)
	movaps	%xmm1, (%rsp)
	call	_ZN8opendnp312IAPDUHandler8OnHeaderERKNS_11RangeHeaderERKNS_11ICollectionINS_7IndexedINS_7CounterEEEEE@PLT
	movq	72(%rsp), %rax
	subq	%fs:40, %rax
	jne	.L141
	addq	$88, %rsp
	.cfi_remember_state
	.cfi_def_cfa_offset 8
	ret
.L141:
	.cfi_restore_state
	call	__stack_chk_fail@PLT
	.cfi_endproc
.LFE3039:
	.size	_ZN8opendnp311RangeParser13InvokeRangeOfINS_11Group20Var6EEEvRKNS_12HeaderRecordERKNS_5RangeERKN7openpal6RSliceERNS_12IAPDUHandlerE, .-_ZN8opendnp311RangeParser13InvokeRangeOfINS_11Group20Var6EEEvRKNS_12HeaderRecordERKNS_5RangeERKN7openpal6RSliceERNS_12IAPDUHandlerE
	.section	.text._ZNK8opendnp318BufferedCollectionINS_7IndexedINS_7CounterEEEZNS_11RangeParser13InvokeRangeOfINS_11Group20Var1EEEvRKNS_12HeaderRecordERKNS_5RangeERKN7openpal6RSliceERNS_12IAPDUHandlerEEUlRSE_jE_E7ForeachERNS_8IVisitorIS3_EE,"axG",@progbits,_ZNK8opendnp318BufferedCollectionINS_7IndexedINS_7CounterEEEZNS_11RangeParser13InvokeRangeOfINS_11Group20Var1EEEvRKNS_12HeaderRecordERKNS_5RangeERKN7openpal6RSliceERNS_12IAPDUHandlerEEUlRSE_jE_E7ForeachERNS_8IVisitorIS3_EE,comdat
	.align 2
	.p2align 4
	.weak	_ZNK8opendnp318BufferedCollectionINS_7IndexedINS_7CounterEEEZNS_11RangeParser13InvokeRangeOfINS_11Group20Var1EEEvRKNS_12HeaderRecordERKNS_5RangeERKN7openpal6RSliceERNS_12IAPDUHandlerEEUlRSE_jE_E7ForeachERNS_8IVisitorIS3_EE
	.type	_ZNK8opendnp318BufferedCollectionINS_7IndexedINS_7CounterEEEZNS_11RangeParser13InvokeRangeOfINS_11Group20Var1EEEvRKNS_12HeaderRecordERKNS_5RangeERKN7openpal6RSliceERNS_12IAPDUHandlerEEUlRSE_jE_E7ForeachERNS_8IVisitorIS3_EE, @function
_ZNK8opendnp318BufferedCollectionINS_7IndexedINS_7CounterEEEZNS_11RangeParser13InvokeRangeOfINS_11Group20Var1EEEvRKNS_12HeaderRecordERKNS_5RangeERKN7openpal6RSliceERNS_12IAPDUHandlerEEUlRSE_jE_E7ForeachERNS_8IVisitorIS3_EE:
.LFB3655:
	.cfi_startproc
	endbr64
	pushq	%r15
	.cfi_def_cfa_offset 16
	.cfi_offset 15, -16
	pushq	%r14
	.cfi_def_cfa_offset 24
	.cfi_offset 14, -24
	pushq	%r13
	.cfi_def_cfa_offset 32
	.cfi_offset 13, -32
	pushq	%r12
	.cfi_def_cfa_offset 40
	.cfi_offset 12, -40
	pushq	%rbp
	.cfi_def_cfa_offset 48
	.cfi_offset 6, -48
	pushq	%rbx
	.cfi_def_cfa_offset 56
	.cfi_offset 3, -56
	subq	$120, %rsp
	.cfi_def_cfa_offset 176
	movdqu	8(%rdi), %xmm1
	movq	%fs:40, %rax
	movq	%rax, 104(%rsp)
	xorl	%eax, %eax
	cmpq	$0, 24(%rdi)
	movaps	%xmm1, 16(%rsp)
	je	.L142
	leaq	64(%rsp), %rax
	movq	%rdi, %rbp
	movq	%rsi, %r12
	xorl	%ebx, %ebx
	movq	%rax, 8(%rsp)
	leaq	32(%rsp), %r13
	leaq	16(%rsp), %r15
	.p2align 4,,10
	.p2align 3
.L144:
	movq	(%r12), %rax
	movq	%r13, %rdi
	movq	(%rax), %r14
	call	_ZN8opendnp37CounterC1Ev@PLT
	movq	%r13, %rsi
	movq	%r15, %rdi
	call	_ZN8opendnp311Group20Var110ReadTargetERN7openpal6RSliceERNS_7CounterE@PLT
	movzwl	32(%rbp), %eax
	movdqa	32(%rsp), %xmm0
	movq	%r12, %rdi
	movq	48(%rsp), %rcx
	movq	8(%rsp), %rsi
	addl	%ebx, %eax
	movaps	%xmm0, 64(%rsp)
	movw	%ax, 88(%rsp)
	movq	%rcx, 80(%rsp)
	call	*%r14
	leal	1(%rbx), %eax
	movq	%rax, %rbx
	cmpq	24(%rbp), %rax
	jb	.L144
.L142:
	movq	104(%rsp), %rax
	subq	%fs:40, %rax
	jne	.L148
	addq	$120, %rsp
	.cfi_remember_state
	.cfi_def_cfa_offset 56
	popq	%rbx
	.cfi_def_cfa_offset 48
	popq	%rbp
	.cfi_def_cfa_offset 40
	popq	%r12
	.cfi_def_cfa_offset 32
	popq	%r13
	.cfi_def_cfa_offset 24
	popq	%r14
	.cfi_def_cfa_offset 16
	popq	%r15
	.cfi_def_cfa_offset 8
	ret
.L148:
	.cfi_restore_state
	call	__stack_chk_fail@PLT
	.cfi_endproc
.LFE3655:
	.size	_ZNK8opendnp318BufferedCollectionINS_7IndexedINS_7CounterEEEZNS_11RangeParser13InvokeRangeOfINS_11Group20Var1EEEvRKNS_12HeaderRecordERKNS_5RangeERKN7openpal6RSliceERNS_12IAPDUHandlerEEUlRSE_jE_E7ForeachERNS_8IVisitorIS3_EE, .-_ZNK8opendnp318BufferedCollectionINS_7IndexedINS_7CounterEEEZNS_11RangeParser13InvokeRangeOfINS_11Group20Var1EEEvRKNS_12HeaderRecordERKNS_5RangeERKN7openpal6RSliceERNS_12IAPDUHandlerEEUlRSE_jE_E7ForeachERNS_8IVisitorIS3_EE
	.section	.text._ZNK8opendnp318BufferedCollectionINS_7IndexedINS_7CounterEEEZNS_11RangeParser13InvokeRangeOfINS_11Group20Var2EEEvRKNS_12HeaderRecordERKNS_5RangeERKN7openpal6RSliceERNS_12IAPDUHandlerEEUlRSE_jE_E7ForeachERNS_8IVisitorIS3_EE,"axG",@progbits,_ZNK8opendnp318BufferedCollectionINS_7IndexedINS_7CounterEEEZNS_11RangeParser13InvokeRangeOfINS_11Group20Var2EEEvRKNS_12HeaderRecordERKNS_5RangeERKN7openpal6RSliceERNS_12IAPDUHandlerEEUlRSE_jE_E7ForeachERNS_8IVisitorIS3_EE,comdat
	.align 2
	.p2align 4
	.weak	_ZNK8opendnp318BufferedCollectionINS_7IndexedINS_7CounterEEEZNS_11RangeParser13InvokeRangeOfINS_11Group20Var2EEEvRKNS_12HeaderRecordERKNS_5RangeERKN7openpal6RSliceERNS_12IAPDUHandlerEEUlRSE_jE_E7ForeachERNS_8IVisitorIS3_EE
	.type	_ZNK8opendnp318BufferedCollectionINS_7IndexedINS_7CounterEEEZNS_11RangeParser13InvokeRangeOfINS_11Group20Var2EEEvRKNS_12HeaderRecordERKNS_5RangeERKN7openpal6RSliceERNS_12IAPDUHandlerEEUlRSE_jE_E7ForeachERNS_8IVisitorIS3_EE, @function
_ZNK8opendnp318BufferedCollectionINS_7IndexedINS_7CounterEEEZNS_11RangeParser13InvokeRangeOfINS_11Group20Var2EEEvRKNS_12HeaderRecordERKNS_5RangeERKN7openpal6RSliceERNS_12IAPDUHandlerEEUlRSE_jE_E7ForeachERNS_8IVisitorIS3_EE:
.LFB3653:
	.cfi_startproc
	endbr64
	pushq	%r15
	.cfi_def_cfa_offset 16
	.cfi_offset 15, -16
	pushq	%r14
	.cfi_def_cfa_offset 24
	.cfi_offset 14, -24
	pushq	%r13
	.cfi_def_cfa_offset 32
	.cfi_offset 13, -32
	pushq	%r12
	.cfi_def_cfa_offset 40
	.cfi_offset 12, -40
	pushq	%rbp
	.cfi_def_cfa_offset 48
	.cfi_offset 6, -48
	pushq	%rbx
	.cfi_def_cfa_offset 56
	.cfi_offset 3, -56
	subq	$120, %rsp
	.cfi_def_cfa_offset 176
	movdqu	8(%rdi), %xmm1
	movq	%fs:40, %rax
	movq	%rax, 104(%rsp)
	xorl	%eax, %eax
	cmpq	$0, 24(%rdi)
	movaps	%xmm1, 16(%rsp)
	je	.L149
	leaq	64(%rsp), %rax
	movq	%rdi, %rbp
	movq	%rsi, %r12
	xorl	%ebx, %ebx
	movq	%rax, 8(%rsp)
	leaq	32(%rsp), %r13
	leaq	16(%rsp), %r15
	.p2align 4,,10
	.p2align 3
.L151:
	movq	(%r12), %rax
	movq	%r13, %rdi
	movq	(%rax), %r14
	call	_ZN8opendnp37CounterC1Ev@PLT
	movq	%r13, %rsi
	movq	%r15, %rdi
	call	_ZN8opendnp311Group20Var210ReadTargetERN7openpal6RSliceERNS_7CounterE@PLT
	movzwl	32(%rbp), %eax
	movdqa	32(%rsp), %xmm0
	movq	%r12, %rdi
	movq	48(%rsp), %rcx
	movq	8(%rsp), %rsi
	addl	%ebx, %eax
	movaps	%xmm0, 64(%rsp)
	movw	%ax, 88(%rsp)
	movq	%rcx, 80(%rsp)
	call	*%r14
	leal	1(%rbx), %eax
	movq	%rax, %rbx
	cmpq	24(%rbp), %rax
	jb	.L151
.L149:
	movq	104(%rsp), %rax
	subq	%fs:40, %rax
	jne	.L155
	addq	$120, %rsp
	.cfi_remember_state
	.cfi_def_cfa_offset 56
	popq	%rbx
	.cfi_def_cfa_offset 48
	popq	%rbp
	.cfi_def_cfa_offset 40
	popq	%r12
	.cfi_def_cfa_offset 32
	popq	%r13
	.cfi_def_cfa_offset 24
	popq	%r14
	.cfi_def_cfa_offset 16
	popq	%r15
	.cfi_def_cfa_offset 8
	ret
.L155:
	.cfi_restore_state
	call	__stack_chk_fail@PLT
	.cfi_endproc
.LFE3653:
	.size	_ZNK8opendnp318BufferedCollectionINS_7IndexedINS_7CounterEEEZNS_11RangeParser13InvokeRangeOfINS_11Group20Var2EEEvRKNS_12HeaderRecordERKNS_5RangeERKN7openpal6RSliceERNS_12IAPDUHandlerEEUlRSE_jE_E7ForeachERNS_8IVisitorIS3_EE, .-_ZNK8opendnp318BufferedCollectionINS_7IndexedINS_7CounterEEEZNS_11RangeParser13InvokeRangeOfINS_11Group20Var2EEEvRKNS_12HeaderRecordERKNS_5RangeERKN7openpal6RSliceERNS_12IAPDUHandlerEEUlRSE_jE_E7ForeachERNS_8IVisitorIS3_EE
	.section	.text._ZNK8opendnp318BufferedCollectionINS_7IndexedINS_7CounterEEEZNS_11RangeParser13InvokeRangeOfINS_11Group20Var5EEEvRKNS_12HeaderRecordERKNS_5RangeERKN7openpal6RSliceERNS_12IAPDUHandlerEEUlRSE_jE_E7ForeachERNS_8IVisitorIS3_EE,"axG",@progbits,_ZNK8opendnp318BufferedCollectionINS_7IndexedINS_7CounterEEEZNS_11RangeParser13InvokeRangeOfINS_11Group20Var5EEEvRKNS_12HeaderRecordERKNS_5RangeERKN7openpal6RSliceERNS_12IAPDUHandlerEEUlRSE_jE_E7ForeachERNS_8IVisitorIS3_EE,comdat
	.align 2
	.p2align 4
	.weak	_ZNK8opendnp318BufferedCollectionINS_7IndexedINS_7CounterEEEZNS_11RangeParser13InvokeRangeOfINS_11Group20Var5EEEvRKNS_12HeaderRecordERKNS_5RangeERKN7openpal6RSliceERNS_12IAPDUHandlerEEUlRSE_jE_E7ForeachERNS_8IVisitorIS3_EE
	.type	_ZNK8opendnp318BufferedCollectionINS_7IndexedINS_7CounterEEEZNS_11RangeParser13InvokeRangeOfINS_11Group20Var5EEEvRKNS_12HeaderRecordERKNS_5RangeERKN7openpal6RSliceERNS_12IAPDUHandlerEEUlRSE_jE_E7ForeachERNS_8IVisitorIS3_EE, @function
_ZNK8opendnp318BufferedCollectionINS_7IndexedINS_7CounterEEEZNS_11RangeParser13InvokeRangeOfINS_11Group20Var5EEEvRKNS_12HeaderRecordERKNS_5RangeERKN7openpal6RSliceERNS_12IAPDUHandlerEEUlRSE_jE_E7ForeachERNS_8IVisitorIS3_EE:
.LFB3651:
	.cfi_startproc
	endbr64
	pushq	%r15
	.cfi_def_cfa_offset 16
	.cfi_offset 15, -16
	pushq	%r14
	.cfi_def_cfa_offset 24
	.cfi_offset 14, -24
	pushq	%r13
	.cfi_def_cfa_offset 32
	.cfi_offset 13, -32
	pushq	%r12
	.cfi_def_cfa_offset 40
	.cfi_offset 12, -40
	pushq	%rbp
	.cfi_def_cfa_offset 48
	.cfi_offset 6, -48
	pushq	%rbx
	.cfi_def_cfa_offset 56
	.cfi_offset 3, -56
	subq	$120, %rsp
	.cfi_def_cfa_offset 176
	movdqu	8(%rdi), %xmm1
	movq	%fs:40, %rax
	movq	%rax, 104(%rsp)
	xorl	%eax, %eax
	cmpq	$0, 24(%rdi)
	movaps	%xmm1, 16(%rsp)
	je	.L156
	leaq	64(%rsp), %rax
	movq	%rdi, %rbp
	movq	%rsi, %r12
	xorl	%ebx, %ebx
	movq	%rax, 8(%rsp)
	leaq	32(%rsp), %r13
	leaq	16(%rsp), %r15
	.p2align 4,,10
	.p2align 3
.L158:
	movq	(%r12), %rax
	movq	%r13, %rdi
	movq	(%rax), %r14
	call	_ZN8opendnp37CounterC1Ev@PLT
	movq	%r13, %rsi
	movq	%r15, %rdi
	call	_ZN8opendnp311Group20Var510ReadTargetERN7openpal6RSliceERNS_7CounterE@PLT
	movzwl	32(%rbp), %eax
	movdqa	32(%rsp), %xmm0
	movq	%r12, %rdi
	movq	48(%rsp), %rcx
	movq	8(%rsp), %rsi
	addl	%ebx, %eax
	movaps	%xmm0, 64(%rsp)
	movw	%ax, 88(%rsp)
	movq	%rcx, 80(%rsp)
	call	*%r14
	leal	1(%rbx), %eax
	movq	%rax, %rbx
	cmpq	24(%rbp), %rax
	jb	.L158
.L156:
	movq	104(%rsp), %rax
	subq	%fs:40, %rax
	jne	.L162
	addq	$120, %rsp
	.cfi_remember_state
	.cfi_def_cfa_offset 56
	popq	%rbx
	.cfi_def_cfa_offset 48
	popq	%rbp
	.cfi_def_cfa_offset 40
	popq	%r12
	.cfi_def_cfa_offset 32
	popq	%r13
	.cfi_def_cfa_offset 24
	popq	%r14
	.cfi_def_cfa_offset 16
	popq	%r15
	.cfi_def_cfa_offset 8
	ret
.L162:
	.cfi_restore_state
	call	__stack_chk_fail@PLT
	.cfi_endproc
.LFE3651:
	.size	_ZNK8opendnp318BufferedCollectionINS_7IndexedINS_7CounterEEEZNS_11RangeParser13InvokeRangeOfINS_11Group20Var5EEEvRKNS_12HeaderRecordERKNS_5RangeERKN7openpal6RSliceERNS_12IAPDUHandlerEEUlRSE_jE_E7ForeachERNS_8IVisitorIS3_EE, .-_ZNK8opendnp318BufferedCollectionINS_7IndexedINS_7CounterEEEZNS_11RangeParser13InvokeRangeOfINS_11Group20Var5EEEvRKNS_12HeaderRecordERKNS_5RangeERKN7openpal6RSliceERNS_12IAPDUHandlerEEUlRSE_jE_E7ForeachERNS_8IVisitorIS3_EE
	.section	.text._ZNK8opendnp318BufferedCollectionINS_7IndexedINS_7CounterEEEZNS_11RangeParser13InvokeRangeOfINS_11Group20Var6EEEvRKNS_12HeaderRecordERKNS_5RangeERKN7openpal6RSliceERNS_12IAPDUHandlerEEUlRSE_jE_E7ForeachERNS_8IVisitorIS3_EE,"axG",@progbits,_ZNK8opendnp318BufferedCollectionINS_7IndexedINS_7CounterEEEZNS_11RangeParser13InvokeRangeOfINS_11Group20Var6EEEvRKNS_12HeaderRecordERKNS_5RangeERKN7openpal6RSliceERNS_12IAPDUHandlerEEUlRSE_jE_E7ForeachERNS_8IVisitorIS3_EE,comdat
	.align 2
	.p2align 4
	.weak	_ZNK8opendnp318BufferedCollectionINS_7IndexedINS_7CounterEEEZNS_11RangeParser13InvokeRangeOfINS_11Group20Var6EEEvRKNS_12HeaderRecordERKNS_5RangeERKN7openpal6RSliceERNS_12IAPDUHandlerEEUlRSE_jE_E7ForeachERNS_8IVisitorIS3_EE
	.type	_ZNK8opendnp318BufferedCollectionINS_7IndexedINS_7CounterEEEZNS_11RangeParser13InvokeRangeOfINS_11Group20Var6EEEvRKNS_12HeaderRecordERKNS_5RangeERKN7openpal6RSliceERNS_12IAPDUHandlerEEUlRSE_jE_E7ForeachERNS_8IVisitorIS3_EE, @function
_ZNK8opendnp318BufferedCollectionINS_7IndexedINS_7CounterEEEZNS_11RangeParser13InvokeRangeOfINS_11Group20Var6EEEvRKNS_12HeaderRecordERKNS_5RangeERKN7openpal6RSliceERNS_12IAPDUHandlerEEUlRSE_jE_E7ForeachERNS_8IVisitorIS3_EE:
.LFB3649:
	.cfi_startproc
	endbr64
	pushq	%r15
	.cfi_def_cfa_offset 16
	.cfi_offset 15, -16
	pushq	%r14
	.cfi_def_cfa_offset 24
	.cfi_offset 14, -24
	pushq	%r13
	.cfi_def_cfa_offset 32
	.cfi_offset 13, -32
	pushq	%r12
	.cfi_def_cfa_offset 40
	.cfi_offset 12, -40
	pushq	%rbp
	.cfi_def_cfa_offset 48
	.cfi_offset 6, -48
	pushq	%rbx
	.cfi_def_cfa_offset 56
	.cfi_offset 3, -56
	subq	$120, %rsp
	.cfi_def_cfa_offset 176
	movdqu	8(%rdi), %xmm1
	movq	%fs:40, %rax
	movq	%rax, 104(%rsp)
	xorl	%eax, %eax
	cmpq	$0, 24(%rdi)
	movaps	%xmm1, 16(%rsp)
	je	.L163
	leaq	64(%rsp), %rax
	movq	%rdi, %rbp
	movq	%rsi, %r12
	xorl	%ebx, %ebx
	movq	%rax, 8(%rsp)
	leaq	32(%rsp), %r13
	leaq	16(%rsp), %r15
	.p2align 4,,10
	.p2align 3
.L165:
	movq	(%r12), %rax
	movq	%r13, %rdi
	movq	(%rax), %r14
	call	_ZN8opendnp37CounterC1Ev@PLT
	movq	%r13, %rsi
	movq	%r15, %rdi
	call	_ZN8opendnp311Group20Var610ReadTargetERN7openpal6RSliceERNS_7CounterE@PLT
	movzwl	32(%rbp), %eax
	movdqa	32(%rsp), %xmm0
	movq	%r12, %rdi
	movq	48(%rsp), %rcx
	movq	8(%rsp), %rsi
	addl	%ebx, %eax
	movaps	%xmm0, 64(%rsp)
	movw	%ax, 88(%rsp)
	movq	%rcx, 80(%rsp)
	call	*%r14
	leal	1(%rbx), %eax
	movq	%rax, %rbx
	cmpq	24(%rbp), %rax
	jb	.L165
.L163:
	movq	104(%rsp), %rax
	subq	%fs:40, %rax
	jne	.L169
	addq	$120, %rsp
	.cfi_remember_state
	.cfi_def_cfa_offset 56
	popq	%rbx
	.cfi_def_cfa_offset 48
	popq	%rbp
	.cfi_def_cfa_offset 40
	popq	%r12
	.cfi_def_cfa_offset 32
	popq	%r13
	.cfi_def_cfa_offset 24
	popq	%r14
	.cfi_def_cfa_offset 16
	popq	%r15
	.cfi_def_cfa_offset 8
	ret
.L169:
	.cfi_restore_state
	call	__stack_chk_fail@PLT
	.cfi_endproc
.LFE3649:
	.size	_ZNK8opendnp318BufferedCollectionINS_7IndexedINS_7CounterEEEZNS_11RangeParser13InvokeRangeOfINS_11Group20Var6EEEvRKNS_12HeaderRecordERKNS_5RangeERKN7openpal6RSliceERNS_12IAPDUHandlerEEUlRSE_jE_E7ForeachERNS_8IVisitorIS3_EE, .-_ZNK8opendnp318BufferedCollectionINS_7IndexedINS_7CounterEEEZNS_11RangeParser13InvokeRangeOfINS_11Group20Var6EEEvRKNS_12HeaderRecordERKNS_5RangeERKN7openpal6RSliceERNS_12IAPDUHandlerEEUlRSE_jE_E7ForeachERNS_8IVisitorIS3_EE
	.section	.text._ZN8opendnp311RangeParser13InvokeRangeOfINS_11Group21Var1EEEvRKNS_12HeaderRecordERKNS_5RangeERKN7openpal6RSliceERNS_12IAPDUHandlerE,"axG",@progbits,_ZN8opendnp311RangeParser13InvokeRangeOfINS_11Group21Var1EEEvRKNS_12HeaderRecordERKNS_5RangeERKN7openpal6RSliceERNS_12IAPDUHandlerE,comdat
	.align 2
	.p2align 4
	.weak	_ZN8opendnp311RangeParser13InvokeRangeOfINS_11Group21Var1EEEvRKNS_12HeaderRecordERKNS_5RangeERKN7openpal6RSliceERNS_12IAPDUHandlerE
	.type	_ZN8opendnp311RangeParser13InvokeRangeOfINS_11Group21Var1EEEvRKNS_12HeaderRecordERKNS_5RangeERKN7openpal6RSliceERNS_12IAPDUHandlerE, @function
_ZN8opendnp311RangeParser13InvokeRangeOfINS_11Group21Var1EEEvRKNS_12HeaderRecordERKNS_5RangeERKN7openpal6RSliceERNS_12IAPDUHandlerE:
.LFB3044:
	.cfi_startproc
	endbr64
	movq	%rsi, %rax
	subq	$88, %rsp
	.cfi_def_cfa_offset 96
	movl	(%rsi), %r10d
	movzwl	(%rsi), %esi
	movzwl	2(%rax), %r9d
	movq	%rdi, %r8
	movq	%rcx, %rdi
	movq	%fs:40, %rcx
	movq	%rcx, 72(%rsp)
	xorl	%ecx, %ecx
	cmpw	%r9w, %si
	ja	.L171
	leal	1(%r9), %ecx
	subl	%esi, %ecx
.L171:
	movq	_ZTVN8opendnp318BufferedCollectionINS_7IndexedINS_13FrozenCounterEEEZNS_11RangeParser13InvokeRangeOfINS_11Group21Var1EEEvRKNS_12HeaderRecordERKNS_5RangeERKN7openpal6RSliceERNS_12IAPDUHandlerEEUlRSE_jE_EE@GOTPCREL(%rip), %rsi
	movdqu	(%rdx), %xmm0
	leaq	32(%rsp), %rdx
	movq	%rcx, 56(%rsp)
	movl	(%rax), %eax
	movdqu	(%r8), %xmm1
	movl	%r10d, 64(%rsp)
	addq	$16, %rsi
	movups	%xmm0, 40(%rsp)
	movq	%rsi, 32(%rsp)
	movq	%rsp, %rsi
	movl	%eax, 16(%rsp)
	movaps	%xmm1, (%rsp)
	call	_ZN8opendnp312IAPDUHandler8OnHeaderERKNS_11RangeHeaderERKNS_11ICollectionINS_7IndexedINS_13FrozenCounterEEEEE@PLT
	movq	72(%rsp), %rax
	subq	%fs:40, %rax
	jne	.L175
	addq	$88, %rsp
	.cfi_remember_state
	.cfi_def_cfa_offset 8
	ret
.L175:
	.cfi_restore_state
	call	__stack_chk_fail@PLT
	.cfi_endproc
.LFE3044:
	.size	_ZN8opendnp311RangeParser13InvokeRangeOfINS_11Group21Var1EEEvRKNS_12HeaderRecordERKNS_5RangeERKN7openpal6RSliceERNS_12IAPDUHandlerE, .-_ZN8opendnp311RangeParser13InvokeRangeOfINS_11Group21Var1EEEvRKNS_12HeaderRecordERKNS_5RangeERKN7openpal6RSliceERNS_12IAPDUHandlerE
	.section	.text._ZN8opendnp311RangeParser13InvokeRangeOfINS_11Group21Var2EEEvRKNS_12HeaderRecordERKNS_5RangeERKN7openpal6RSliceERNS_12IAPDUHandlerE,"axG",@progbits,_ZN8opendnp311RangeParser13InvokeRangeOfINS_11Group21Var2EEEvRKNS_12HeaderRecordERKNS_5RangeERKN7openpal6RSliceERNS_12IAPDUHandlerE,comdat
	.align 2
	.p2align 4
	.weak	_ZN8opendnp311RangeParser13InvokeRangeOfINS_11Group21Var2EEEvRKNS_12HeaderRecordERKNS_5RangeERKN7openpal6RSliceERNS_12IAPDUHandlerE
	.type	_ZN8opendnp311RangeParser13InvokeRangeOfINS_11Group21Var2EEEvRKNS_12HeaderRecordERKNS_5RangeERKN7openpal6RSliceERNS_12IAPDUHandlerE, @function
_ZN8opendnp311RangeParser13InvokeRangeOfINS_11Group21Var2EEEvRKNS_12HeaderRecordERKNS_5RangeERKN7openpal6RSliceERNS_12IAPDUHandlerE:
.LFB3052:
	.cfi_startproc
	endbr64
	movq	%rsi, %rax
	subq	$88, %rsp
	.cfi_def_cfa_offset 96
	movl	(%rsi), %r10d
	movzwl	(%rsi), %esi
	movzwl	2(%rax), %r9d
	movq	%rdi, %r8
	movq	%rcx, %rdi
	movq	%fs:40, %rcx
	movq	%rcx, 72(%rsp)
	xorl	%ecx, %ecx
	cmpw	%r9w, %si
	ja	.L177
	leal	1(%r9), %ecx
	subl	%esi, %ecx
.L177:
	movq	_ZTVN8opendnp318BufferedCollectionINS_7IndexedINS_13FrozenCounterEEEZNS_11RangeParser13InvokeRangeOfINS_11Group21Var2EEEvRKNS_12HeaderRecordERKNS_5RangeERKN7openpal6RSliceERNS_12IAPDUHandlerEEUlRSE_jE_EE@GOTPCREL(%rip), %rsi
	movdqu	(%rdx), %xmm0
	leaq	32(%rsp), %rdx
	movq	%rcx, 56(%rsp)
	movl	(%rax), %eax
	movdqu	(%r8), %xmm1
	movl	%r10d, 64(%rsp)
	addq	$16, %rsi
	movups	%xmm0, 40(%rsp)
	movq	%rsi, 32(%rsp)
	movq	%rsp, %rsi
	movl	%eax, 16(%rsp)
	movaps	%xmm1, (%rsp)
	call	_ZN8opendnp312IAPDUHandler8OnHeaderERKNS_11RangeHeaderERKNS_11ICollectionINS_7IndexedINS_13FrozenCounterEEEEE@PLT
	movq	72(%rsp), %rax
	subq	%fs:40, %rax
	jne	.L181
	addq	$88, %rsp
	.cfi_remember_state
	.cfi_def_cfa_offset 8
	ret
.L181:
	.cfi_restore_state
	call	__stack_chk_fail@PLT
	.cfi_endproc
.LFE3052:
	.size	_ZN8opendnp311RangeParser13InvokeRangeOfINS_11Group21Var2EEEvRKNS_12HeaderRecordERKNS_5RangeERKN7openpal6RSliceERNS_12IAPDUHandlerE, .-_ZN8opendnp311RangeParser13InvokeRangeOfINS_11Group21Var2EEEvRKNS_12HeaderRecordERKNS_5RangeERKN7openpal6RSliceERNS_12IAPDUHandlerE
	.section	.text._ZN8opendnp311RangeParser13InvokeRangeOfINS_11Group21Var5EEEvRKNS_12HeaderRecordERKNS_5RangeERKN7openpal6RSliceERNS_12IAPDUHandlerE,"axG",@progbits,_ZN8opendnp311RangeParser13InvokeRangeOfINS_11Group21Var5EEEvRKNS_12HeaderRecordERKNS_5RangeERKN7openpal6RSliceERNS_12IAPDUHandlerE,comdat
	.align 2
	.p2align 4
	.weak	_ZN8opendnp311RangeParser13InvokeRangeOfINS_11Group21Var5EEEvRKNS_12HeaderRecordERKNS_5RangeERKN7openpal6RSliceERNS_12IAPDUHandlerE
	.type	_ZN8opendnp311RangeParser13InvokeRangeOfINS_11Group21Var5EEEvRKNS_12HeaderRecordERKNS_5RangeERKN7openpal6RSliceERNS_12IAPDUHandlerE, @function
_ZN8opendnp311RangeParser13InvokeRangeOfINS_11Group21Var5EEEvRKNS_12HeaderRecordERKNS_5RangeERKN7openpal6RSliceERNS_12IAPDUHandlerE:
.LFB3057:
	.cfi_startproc
	endbr64
	movq	%rsi, %rax
	subq	$88, %rsp
	.cfi_def_cfa_offset 96
	movl	(%rsi), %r10d
	movzwl	(%rsi), %esi
	movzwl	2(%rax), %r9d
	movq	%rdi, %r8
	movq	%rcx, %rdi
	movq	%fs:40, %rcx
	movq	%rcx, 72(%rsp)
	xorl	%ecx, %ecx
	cmpw	%r9w, %si
	ja	.L183
	leal	1(%r9), %ecx
	subl	%esi, %ecx
.L183:
	movq	_ZTVN8opendnp318BufferedCollectionINS_7IndexedINS_13FrozenCounterEEEZNS_11RangeParser13InvokeRangeOfINS_11Group21Var5EEEvRKNS_12HeaderRecordERKNS_5RangeERKN7openpal6RSliceERNS_12IAPDUHandlerEEUlRSE_jE_EE@GOTPCREL(%rip), %rsi
	movdqu	(%rdx), %xmm0
	leaq	32(%rsp), %rdx
	movq	%rcx, 56(%rsp)
	movl	(%rax), %eax
	movdqu	(%r8), %xmm1
	movl	%r10d, 64(%rsp)
	addq	$16, %rsi
	movups	%xmm0, 40(%rsp)
	movq	%rsi, 32(%rsp)
	movq	%rsp, %rsi
	movl	%eax, 16(%rsp)
	movaps	%xmm1, (%rsp)
	call	_ZN8opendnp312IAPDUHandler8OnHeaderERKNS_11RangeHeaderERKNS_11ICollectionINS_7IndexedINS_13FrozenCounterEEEEE@PLT
	movq	72(%rsp), %rax
	subq	%fs:40, %rax
	jne	.L187
	addq	$88, %rsp
	.cfi_remember_state
	.cfi_def_cfa_offset 8
	ret
.L187:
	.cfi_restore_state
	call	__stack_chk_fail@PLT
	.cfi_endproc
.LFE3057:
	.size	_ZN8opendnp311RangeParser13InvokeRangeOfINS_11Group21Var5EEEvRKNS_12HeaderRecordERKNS_5RangeERKN7openpal6RSliceERNS_12IAPDUHandlerE, .-_ZN8opendnp311RangeParser13InvokeRangeOfINS_11Group21Var5EEEvRKNS_12HeaderRecordERKNS_5RangeERKN7openpal6RSliceERNS_12IAPDUHandlerE
	.section	.text._ZN8opendnp311RangeParser13InvokeRangeOfINS_11Group21Var6EEEvRKNS_12HeaderRecordERKNS_5RangeERKN7openpal6RSliceERNS_12IAPDUHandlerE,"axG",@progbits,_ZN8opendnp311RangeParser13InvokeRangeOfINS_11Group21Var6EEEvRKNS_12HeaderRecordERKNS_5RangeERKN7openpal6RSliceERNS_12IAPDUHandlerE,comdat
	.align 2
	.p2align 4
	.weak	_ZN8opendnp311RangeParser13InvokeRangeOfINS_11Group21Var6EEEvRKNS_12HeaderRecordERKNS_5RangeERKN7openpal6RSliceERNS_12IAPDUHandlerE
	.type	_ZN8opendnp311RangeParser13InvokeRangeOfINS_11Group21Var6EEEvRKNS_12HeaderRecordERKNS_5RangeERKN7openpal6RSliceERNS_12IAPDUHandlerE, @function
_ZN8opendnp311RangeParser13InvokeRangeOfINS_11Group21Var6EEEvRKNS_12HeaderRecordERKNS_5RangeERKN7openpal6RSliceERNS_12IAPDUHandlerE:
.LFB3062:
	.cfi_startproc
	endbr64
	movq	%rsi, %rax
	subq	$88, %rsp
	.cfi_def_cfa_offset 96
	movl	(%rsi), %r10d
	movzwl	(%rsi), %esi
	movzwl	2(%rax), %r9d
	movq	%rdi, %r8
	movq	%rcx, %rdi
	movq	%fs:40, %rcx
	movq	%rcx, 72(%rsp)
	xorl	%ecx, %ecx
	cmpw	%r9w, %si
	ja	.L189
	leal	1(%r9), %ecx
	subl	%esi, %ecx
.L189:
	movq	_ZTVN8opendnp318BufferedCollectionINS_7IndexedINS_13FrozenCounterEEEZNS_11RangeParser13InvokeRangeOfINS_11Group21Var6EEEvRKNS_12HeaderRecordERKNS_5RangeERKN7openpal6RSliceERNS_12IAPDUHandlerEEUlRSE_jE_EE@GOTPCREL(%rip), %rsi
	movdqu	(%rdx), %xmm0
	leaq	32(%rsp), %rdx
	movq	%rcx, 56(%rsp)
	movl	(%rax), %eax
	movdqu	(%r8), %xmm1
	movl	%r10d, 64(%rsp)
	addq	$16, %rsi
	movups	%xmm0, 40(%rsp)
	movq	%rsi, 32(%rsp)
	movq	%rsp, %rsi
	movl	%eax, 16(%rsp)
	movaps	%xmm1, (%rsp)
	call	_ZN8opendnp312IAPDUHandler8OnHeaderERKNS_11RangeHeaderERKNS_11ICollectionINS_7IndexedINS_13FrozenCounterEEEEE@PLT
	movq	72(%rsp), %rax
	subq	%fs:40, %rax
	jne	.L193
	addq	$88, %rsp
	.cfi_remember_state
	.cfi_def_cfa_offset 8
	ret
.L193:
	.cfi_restore_state
	call	__stack_chk_fail@PLT
	.cfi_endproc
.LFE3062:
	.size	_ZN8opendnp311RangeParser13InvokeRangeOfINS_11Group21Var6EEEvRKNS_12HeaderRecordERKNS_5RangeERKN7openpal6RSliceERNS_12IAPDUHandlerE, .-_ZN8opendnp311RangeParser13InvokeRangeOfINS_11Group21Var6EEEvRKNS_12HeaderRecordERKNS_5RangeERKN7openpal6RSliceERNS_12IAPDUHandlerE
	.section	.text._ZN8opendnp311RangeParser13InvokeRangeOfINS_11Group21Var9EEEvRKNS_12HeaderRecordERKNS_5RangeERKN7openpal6RSliceERNS_12IAPDUHandlerE,"axG",@progbits,_ZN8opendnp311RangeParser13InvokeRangeOfINS_11Group21Var9EEEvRKNS_12HeaderRecordERKNS_5RangeERKN7openpal6RSliceERNS_12IAPDUHandlerE,comdat
	.align 2
	.p2align 4
	.weak	_ZN8opendnp311RangeParser13InvokeRangeOfINS_11Group21Var9EEEvRKNS_12HeaderRecordERKNS_5RangeERKN7openpal6RSliceERNS_12IAPDUHandlerE
	.type	_ZN8opendnp311RangeParser13InvokeRangeOfINS_11Group21Var9EEEvRKNS_12HeaderRecordERKNS_5RangeERKN7openpal6RSliceERNS_12IAPDUHandlerE, @function
_ZN8opendnp311RangeParser13InvokeRangeOfINS_11Group21Var9EEEvRKNS_12HeaderRecordERKNS_5RangeERKN7openpal6RSliceERNS_12IAPDUHandlerE:
.LFB3067:
	.cfi_startproc
	endbr64
	movq	%rsi, %rax
	subq	$88, %rsp
	.cfi_def_cfa_offset 96
	movl	(%rsi), %r10d
	movzwl	(%rsi), %esi
	movzwl	2(%rax), %r9d
	movq	%rdi, %r8
	movq	%rcx, %rdi
	movq	%fs:40, %rcx
	movq	%rcx, 72(%rsp)
	xorl	%ecx, %ecx
	cmpw	%r9w, %si
	ja	.L195
	leal	1(%r9), %ecx
	subl	%esi, %ecx
.L195:
	movq	_ZTVN8opendnp318BufferedCollectionINS_7IndexedINS_13FrozenCounterEEEZNS_11RangeParser13InvokeRangeOfINS_11Group21Var9EEEvRKNS_12HeaderRecordERKNS_5RangeERKN7openpal6RSliceERNS_12IAPDUHandlerEEUlRSE_jE_EE@GOTPCREL(%rip), %rsi
	movdqu	(%rdx), %xmm0
	leaq	32(%rsp), %rdx
	movq	%rcx, 56(%rsp)
	movl	(%rax), %eax
	movdqu	(%r8), %xmm1
	movl	%r10d, 64(%rsp)
	addq	$16, %rsi
	movups	%xmm0, 40(%rsp)
	movq	%rsi, 32(%rsp)
	movq	%rsp, %rsi
	movl	%eax, 16(%rsp)
	movaps	%xmm1, (%rsp)
	call	_ZN8opendnp312IAPDUHandler8OnHeaderERKNS_11RangeHeaderERKNS_11ICollectionINS_7IndexedINS_13FrozenCounterEEEEE@PLT
	movq	72(%rsp), %rax
	subq	%fs:40, %rax
	jne	.L199
	addq	$88, %rsp
	.cfi_remember_state
	.cfi_def_cfa_offset 8
	ret
.L199:
	.cfi_restore_state
	call	__stack_chk_fail@PLT
	.cfi_endproc
.LFE3067:
	.size	_ZN8opendnp311RangeParser13InvokeRangeOfINS_11Group21Var9EEEvRKNS_12HeaderRecordERKNS_5RangeERKN7openpal6RSliceERNS_12IAPDUHandlerE, .-_ZN8opendnp311RangeParser13InvokeRangeOfINS_11Group21Var9EEEvRKNS_12HeaderRecordERKNS_5RangeERKN7openpal6RSliceERNS_12IAPDUHandlerE
	.section	.text._ZN8opendnp311RangeParser13InvokeRangeOfINS_12Group21Var10EEEvRKNS_12HeaderRecordERKNS_5RangeERKN7openpal6RSliceERNS_12IAPDUHandlerE,"axG",@progbits,_ZN8opendnp311RangeParser13InvokeRangeOfINS_12Group21Var10EEEvRKNS_12HeaderRecordERKNS_5RangeERKN7openpal6RSliceERNS_12IAPDUHandlerE,comdat
	.align 2
	.p2align 4
	.weak	_ZN8opendnp311RangeParser13InvokeRangeOfINS_12Group21Var10EEEvRKNS_12HeaderRecordERKNS_5RangeERKN7openpal6RSliceERNS_12IAPDUHandlerE
	.type	_ZN8opendnp311RangeParser13InvokeRangeOfINS_12Group21Var10EEEvRKNS_12HeaderRecordERKNS_5RangeERKN7openpal6RSliceERNS_12IAPDUHandlerE, @function
_ZN8opendnp311RangeParser13InvokeRangeOfINS_12Group21Var10EEEvRKNS_12HeaderRecordERKNS_5RangeERKN7openpal6RSliceERNS_12IAPDUHandlerE:
.LFB3072:
	.cfi_startproc
	endbr64
	movq	%rsi, %rax
	subq	$88, %rsp
	.cfi_def_cfa_offset 96
	movl	(%rsi), %r10d
	movzwl	(%rsi), %esi
	movzwl	2(%rax), %r9d
	movq	%rdi, %r8
	movq	%rcx, %rdi
	movq	%fs:40, %rcx
	movq	%rcx, 72(%rsp)
	xorl	%ecx, %ecx
	cmpw	%r9w, %si
	ja	.L201
	leal	1(%r9), %ecx
	subl	%esi, %ecx
.L201:
	movq	_ZTVN8opendnp318BufferedCollectionINS_7IndexedINS_13FrozenCounterEEEZNS_11RangeParser13InvokeRangeOfINS_12Group21Var10EEEvRKNS_12HeaderRecordERKNS_5RangeERKN7openpal6RSliceERNS_12IAPDUHandlerEEUlRSE_jE_EE@GOTPCREL(%rip), %rsi
	movdqu	(%rdx), %xmm0
	leaq	32(%rsp), %rdx
	movq	%rcx, 56(%rsp)
	movl	(%rax), %eax
	movdqu	(%r8), %xmm1
	movl	%r10d, 64(%rsp)
	addq	$16, %rsi
	movups	%xmm0, 40(%rsp)
	movq	%rsi, 32(%rsp)
	movq	%rsp, %rsi
	movl	%eax, 16(%rsp)
	movaps	%xmm1, (%rsp)
	call	_ZN8opendnp312IAPDUHandler8OnHeaderERKNS_11RangeHeaderERKNS_11ICollectionINS_7IndexedINS_13FrozenCounterEEEEE@PLT
	movq	72(%rsp), %rax
	subq	%fs:40, %rax
	jne	.L205
	addq	$88, %rsp
	.cfi_remember_state
	.cfi_def_cfa_offset 8
	ret
.L205:
	.cfi_restore_state
	call	__stack_chk_fail@PLT
	.cfi_endproc
.LFE3072:
	.size	_ZN8opendnp311RangeParser13InvokeRangeOfINS_12Group21Var10EEEvRKNS_12HeaderRecordERKNS_5RangeERKN7openpal6RSliceERNS_12IAPDUHandlerE, .-_ZN8opendnp311RangeParser13InvokeRangeOfINS_12Group21Var10EEEvRKNS_12HeaderRecordERKNS_5RangeERKN7openpal6RSliceERNS_12IAPDUHandlerE
	.section	.text._ZNK8opendnp318BufferedCollectionINS_7IndexedINS_13FrozenCounterEEEZNS_11RangeParser13InvokeRangeOfINS_11Group21Var1EEEvRKNS_12HeaderRecordERKNS_5RangeERKN7openpal6RSliceERNS_12IAPDUHandlerEEUlRSE_jE_E7ForeachERNS_8IVisitorIS3_EE,"axG",@progbits,_ZNK8opendnp318BufferedCollectionINS_7IndexedINS_13FrozenCounterEEEZNS_11RangeParser13InvokeRangeOfINS_11Group21Var1EEEvRKNS_12HeaderRecordERKNS_5RangeERKN7openpal6RSliceERNS_12IAPDUHandlerEEUlRSE_jE_E7ForeachERNS_8IVisitorIS3_EE,comdat
	.align 2
	.p2align 4
	.weak	_ZNK8opendnp318BufferedCollectionINS_7IndexedINS_13FrozenCounterEEEZNS_11RangeParser13InvokeRangeOfINS_11Group21Var1EEEvRKNS_12HeaderRecordERKNS_5RangeERKN7openpal6RSliceERNS_12IAPDUHandlerEEUlRSE_jE_E7ForeachERNS_8IVisitorIS3_EE
	.type	_ZNK8opendnp318BufferedCollectionINS_7IndexedINS_13FrozenCounterEEEZNS_11RangeParser13InvokeRangeOfINS_11Group21Var1EEEvRKNS_12HeaderRecordERKNS_5RangeERKN7openpal6RSliceERNS_12IAPDUHandlerEEUlRSE_jE_E7ForeachERNS_8IVisitorIS3_EE, @function
_ZNK8opendnp318BufferedCollectionINS_7IndexedINS_13FrozenCounterEEEZNS_11RangeParser13InvokeRangeOfINS_11Group21Var1EEEvRKNS_12HeaderRecordERKNS_5RangeERKN7openpal6RSliceERNS_12IAPDUHandlerEEUlRSE_jE_E7ForeachERNS_8IVisitorIS3_EE:
.LFB3647:
	.cfi_startproc
	endbr64
	pushq	%r15
	.cfi_def_cfa_offset 16
	.cfi_offset 15, -16
	pushq	%r14
	.cfi_def_cfa_offset 24
	.cfi_offset 14, -24
	pushq	%r13
	.cfi_def_cfa_offset 32
	.cfi_offset 13, -32
	pushq	%r12
	.cfi_def_cfa_offset 40
	.cfi_offset 12, -40
	pushq	%rbp
	.cfi_def_cfa_offset 48
	.cfi_offset 6, -48
	pushq	%rbx
	.cfi_def_cfa_offset 56
	.cfi_offset 3, -56
	subq	$120, %rsp
	.cfi_def_cfa_offset 176
	movdqu	8(%rdi), %xmm1
	movq	%fs:40, %rax
	movq	%rax, 104(%rsp)
	xorl	%eax, %eax
	cmpq	$0, 24(%rdi)
	movaps	%xmm1, 16(%rsp)
	je	.L206
	leaq	64(%rsp), %rax
	movq	%rdi, %rbp
	movq	%rsi, %r12
	xorl	%ebx, %ebx
	movq	%rax, 8(%rsp)
	leaq	32(%rsp), %r13
	leaq	16(%rsp), %r15
	.p2align 4,,10
	.p2align 3
.L208:
	movq	(%r12), %rax
	movq	%r13, %rdi
	movq	(%rax), %r14
	call	_ZN8opendnp313FrozenCounterC1Ev@PLT
	movq	%r13, %rsi
	movq	%r15, %rdi
	call	_ZN8opendnp311Group21Var110ReadTargetERN7openpal6RSliceERNS_13FrozenCounterE@PLT
	movzwl	32(%rbp), %eax
	movdqa	32(%rsp), %xmm0
	movq	%r12, %rdi
	movq	48(%rsp), %rcx
	movq	8(%rsp), %rsi
	addl	%ebx, %eax
	movaps	%xmm0, 64(%rsp)
	movw	%ax, 88(%rsp)
	movq	%rcx, 80(%rsp)
	call	*%r14
	leal	1(%rbx), %eax
	movq	%rax, %rbx
	cmpq	24(%rbp), %rax
	jb	.L208
.L206:
	movq	104(%rsp), %rax
	subq	%fs:40, %rax
	jne	.L212
	addq	$120, %rsp
	.cfi_remember_state
	.cfi_def_cfa_offset 56
	popq	%rbx
	.cfi_def_cfa_offset 48
	popq	%rbp
	.cfi_def_cfa_offset 40
	popq	%r12
	.cfi_def_cfa_offset 32
	popq	%r13
	.cfi_def_cfa_offset 24
	popq	%r14
	.cfi_def_cfa_offset 16
	popq	%r15
	.cfi_def_cfa_offset 8
	ret
.L212:
	.cfi_restore_state
	call	__stack_chk_fail@PLT
	.cfi_endproc
.LFE3647:
	.size	_ZNK8opendnp318BufferedCollectionINS_7IndexedINS_13FrozenCounterEEEZNS_11RangeParser13InvokeRangeOfINS_11Group21Var1EEEvRKNS_12HeaderRecordERKNS_5RangeERKN7openpal6RSliceERNS_12IAPDUHandlerEEUlRSE_jE_E7ForeachERNS_8IVisitorIS3_EE, .-_ZNK8opendnp318BufferedCollectionINS_7IndexedINS_13FrozenCounterEEEZNS_11RangeParser13InvokeRangeOfINS_11Group21Var1EEEvRKNS_12HeaderRecordERKNS_5RangeERKN7openpal6RSliceERNS_12IAPDUHandlerEEUlRSE_jE_E7ForeachERNS_8IVisitorIS3_EE
	.section	.text._ZNK8opendnp318BufferedCollectionINS_7IndexedINS_13FrozenCounterEEEZNS_11RangeParser13InvokeRangeOfINS_11Group21Var2EEEvRKNS_12HeaderRecordERKNS_5RangeERKN7openpal6RSliceERNS_12IAPDUHandlerEEUlRSE_jE_E7ForeachERNS_8IVisitorIS3_EE,"axG",@progbits,_ZNK8opendnp318BufferedCollectionINS_7IndexedINS_13FrozenCounterEEEZNS_11RangeParser13InvokeRangeOfINS_11Group21Var2EEEvRKNS_12HeaderRecordERKNS_5RangeERKN7openpal6RSliceERNS_12IAPDUHandlerEEUlRSE_jE_E7ForeachERNS_8IVisitorIS3_EE,comdat
	.align 2
	.p2align 4
	.weak	_ZNK8opendnp318BufferedCollectionINS_7IndexedINS_13FrozenCounterEEEZNS_11RangeParser13InvokeRangeOfINS_11Group21Var2EEEvRKNS_12HeaderRecordERKNS_5RangeERKN7openpal6RSliceERNS_12IAPDUHandlerEEUlRSE_jE_E7ForeachERNS_8IVisitorIS3_EE
	.type	_ZNK8opendnp318BufferedCollectionINS_7IndexedINS_13FrozenCounterEEEZNS_11RangeParser13InvokeRangeOfINS_11Group21Var2EEEvRKNS_12HeaderRecordERKNS_5RangeERKN7openpal6RSliceERNS_12IAPDUHandlerEEUlRSE_jE_E7ForeachERNS_8IVisitorIS3_EE, @function
_ZNK8opendnp318BufferedCollectionINS_7IndexedINS_13FrozenCounterEEEZNS_11RangeParser13InvokeRangeOfINS_11Group21Var2EEEvRKNS_12HeaderRecordERKNS_5RangeERKN7openpal6RSliceERNS_12IAPDUHandlerEEUlRSE_jE_E7ForeachERNS_8IVisitorIS3_EE:
.LFB3645:
	.cfi_startproc
	endbr64
	pushq	%r15
	.cfi_def_cfa_offset 16
	.cfi_offset 15, -16
	pushq	%r14
	.cfi_def_cfa_offset 24
	.cfi_offset 14, -24
	pushq	%r13
	.cfi_def_cfa_offset 32
	.cfi_offset 13, -32
	pushq	%r12
	.cfi_def_cfa_offset 40
	.cfi_offset 12, -40
	pushq	%rbp
	.cfi_def_cfa_offset 48
	.cfi_offset 6, -48
	pushq	%rbx
	.cfi_def_cfa_offset 56
	.cfi_offset 3, -56
	subq	$120, %rsp
	.cfi_def_cfa_offset 176
	movdqu	8(%rdi), %xmm1
	movq	%fs:40, %rax
	movq	%rax, 104(%rsp)
	xorl	%eax, %eax
	cmpq	$0, 24(%rdi)
	movaps	%xmm1, 16(%rsp)
	je	.L213
	leaq	64(%rsp), %rax
	movq	%rdi, %rbp
	movq	%rsi, %r12
	xorl	%ebx, %ebx
	movq	%rax, 8(%rsp)
	leaq	32(%rsp), %r13
	leaq	16(%rsp), %r15
	.p2align 4,,10
	.p2align 3
.L215:
	movq	(%r12), %rax
	movq	%r13, %rdi
	movq	(%rax), %r14
	call	_ZN8opendnp313FrozenCounterC1Ev@PLT
	movq	%r13, %rsi
	movq	%r15, %rdi
	call	_ZN8opendnp311Group21Var210ReadTargetERN7openpal6RSliceERNS_13FrozenCounterE@PLT
	movzwl	32(%rbp), %eax
	movdqa	32(%rsp), %xmm0
	movq	%r12, %rdi
	movq	48(%rsp), %rcx
	movq	8(%rsp), %rsi
	addl	%ebx, %eax
	movaps	%xmm0, 64(%rsp)
	movw	%ax, 88(%rsp)
	movq	%rcx, 80(%rsp)
	call	*%r14
	leal	1(%rbx), %eax
	movq	%rax, %rbx
	cmpq	24(%rbp), %rax
	jb	.L215
.L213:
	movq	104(%rsp), %rax
	subq	%fs:40, %rax
	jne	.L219
	addq	$120, %rsp
	.cfi_remember_state
	.cfi_def_cfa_offset 56
	popq	%rbx
	.cfi_def_cfa_offset 48
	popq	%rbp
	.cfi_def_cfa_offset 40
	popq	%r12
	.cfi_def_cfa_offset 32
	popq	%r13
	.cfi_def_cfa_offset 24
	popq	%r14
	.cfi_def_cfa_offset 16
	popq	%r15
	.cfi_def_cfa_offset 8
	ret
.L219:
	.cfi_restore_state
	call	__stack_chk_fail@PLT
	.cfi_endproc
.LFE3645:
	.size	_ZNK8opendnp318BufferedCollectionINS_7IndexedINS_13FrozenCounterEEEZNS_11RangeParser13InvokeRangeOfINS_11Group21Var2EEEvRKNS_12HeaderRecordERKNS_5RangeERKN7openpal6RSliceERNS_12IAPDUHandlerEEUlRSE_jE_E7ForeachERNS_8IVisitorIS3_EE, .-_ZNK8opendnp318BufferedCollectionINS_7IndexedINS_13FrozenCounterEEEZNS_11RangeParser13InvokeRangeOfINS_11Group21Var2EEEvRKNS_12HeaderRecordERKNS_5RangeERKN7openpal6RSliceERNS_12IAPDUHandlerEEUlRSE_jE_E7ForeachERNS_8IVisitorIS3_EE
	.section	.text._ZNK8opendnp318BufferedCollectionINS_7IndexedINS_13FrozenCounterEEEZNS_11RangeParser13InvokeRangeOfINS_11Group21Var5EEEvRKNS_12HeaderRecordERKNS_5RangeERKN7openpal6RSliceERNS_12IAPDUHandlerEEUlRSE_jE_E7ForeachERNS_8IVisitorIS3_EE,"axG",@progbits,_ZNK8opendnp318BufferedCollectionINS_7IndexedINS_13FrozenCounterEEEZNS_11RangeParser13InvokeRangeOfINS_11Group21Var5EEEvRKNS_12HeaderRecordERKNS_5RangeERKN7openpal6RSliceERNS_12IAPDUHandlerEEUlRSE_jE_E7ForeachERNS_8IVisitorIS3_EE,comdat
	.align 2
	.p2align 4
	.weak	_ZNK8opendnp318BufferedCollectionINS_7IndexedINS_13FrozenCounterEEEZNS_11RangeParser13InvokeRangeOfINS_11Group21Var5EEEvRKNS_12HeaderRecordERKNS_5RangeERKN7openpal6RSliceERNS_12IAPDUHandlerEEUlRSE_jE_E7ForeachERNS_8IVisitorIS3_EE
	.type	_ZNK8opendnp318BufferedCollectionINS_7IndexedINS_13FrozenCounterEEEZNS_11RangeParser13InvokeRangeOfINS_11Group21Var5EEEvRKNS_12HeaderRecordERKNS_5RangeERKN7openpal6RSliceERNS_12IAPDUHandlerEEUlRSE_jE_E7ForeachERNS_8IVisitorIS3_EE, @function
_ZNK8opendnp318BufferedCollectionINS_7IndexedINS_13FrozenCounterEEEZNS_11RangeParser13InvokeRangeOfINS_11Group21Var5EEEvRKNS_12HeaderRecordERKNS_5RangeERKN7openpal6RSliceERNS_12IAPDUHandlerEEUlRSE_jE_E7ForeachERNS_8IVisitorIS3_EE:
.LFB3643:
	.cfi_startproc
	endbr64
	pushq	%r15
	.cfi_def_cfa_offset 16
	.cfi_offset 15, -16
	pushq	%r14
	.cfi_def_cfa_offset 24
	.cfi_offset 14, -24
	pushq	%r13
	.cfi_def_cfa_offset 32
	.cfi_offset 13, -32
	pushq	%r12
	.cfi_def_cfa_offset 40
	.cfi_offset 12, -40
	pushq	%rbp
	.cfi_def_cfa_offset 48
	.cfi_offset 6, -48
	pushq	%rbx
	.cfi_def_cfa_offset 56
	.cfi_offset 3, -56
	subq	$120, %rsp
	.cfi_def_cfa_offset 176
	movdqu	8(%rdi), %xmm1
	movq	%fs:40, %rax
	movq	%rax, 104(%rsp)
	xorl	%eax, %eax
	cmpq	$0, 24(%rdi)
	movaps	%xmm1, 16(%rsp)
	je	.L220
	leaq	64(%rsp), %rax
	movq	%rdi, %rbp
	movq	%rsi, %r12
	xorl	%ebx, %ebx
	movq	%rax, 8(%rsp)
	leaq	32(%rsp), %r13
	leaq	16(%rsp), %r15
	.p2align 4,,10
	.p2align 3
.L222:
	movq	(%r12), %rax
	movq	%r13, %rdi
	movq	(%rax), %r14
	call	_ZN8opendnp313FrozenCounterC1Ev@PLT
	movq	%r13, %rsi
	movq	%r15, %rdi
	call	_ZN8opendnp311Group21Var510ReadTargetERN7openpal6RSliceERNS_13FrozenCounterE@PLT
	movzwl	32(%rbp), %eax
	movdqa	32(%rsp), %xmm0
	movq	%r12, %rdi
	movq	48(%rsp), %rcx
	movq	8(%rsp), %rsi
	addl	%ebx, %eax
	movaps	%xmm0, 64(%rsp)
	movw	%ax, 88(%rsp)
	movq	%rcx, 80(%rsp)
	call	*%r14
	leal	1(%rbx), %eax
	movq	%rax, %rbx
	cmpq	24(%rbp), %rax
	jb	.L222
.L220:
	movq	104(%rsp), %rax
	subq	%fs:40, %rax
	jne	.L226
	addq	$120, %rsp
	.cfi_remember_state
	.cfi_def_cfa_offset 56
	popq	%rbx
	.cfi_def_cfa_offset 48
	popq	%rbp
	.cfi_def_cfa_offset 40
	popq	%r12
	.cfi_def_cfa_offset 32
	popq	%r13
	.cfi_def_cfa_offset 24
	popq	%r14
	.cfi_def_cfa_offset 16
	popq	%r15
	.cfi_def_cfa_offset 8
	ret
.L226:
	.cfi_restore_state
	call	__stack_chk_fail@PLT
	.cfi_endproc
.LFE3643:
	.size	_ZNK8opendnp318BufferedCollectionINS_7IndexedINS_13FrozenCounterEEEZNS_11RangeParser13InvokeRangeOfINS_11Group21Var5EEEvRKNS_12HeaderRecordERKNS_5RangeERKN7openpal6RSliceERNS_12IAPDUHandlerEEUlRSE_jE_E7ForeachERNS_8IVisitorIS3_EE, .-_ZNK8opendnp318BufferedCollectionINS_7IndexedINS_13FrozenCounterEEEZNS_11RangeParser13InvokeRangeOfINS_11Group21Var5EEEvRKNS_12HeaderRecordERKNS_5RangeERKN7openpal6RSliceERNS_12IAPDUHandlerEEUlRSE_jE_E7ForeachERNS_8IVisitorIS3_EE
	.section	.text._ZNK8opendnp318BufferedCollectionINS_7IndexedINS_13FrozenCounterEEEZNS_11RangeParser13InvokeRangeOfINS_11Group21Var6EEEvRKNS_12HeaderRecordERKNS_5RangeERKN7openpal6RSliceERNS_12IAPDUHandlerEEUlRSE_jE_E7ForeachERNS_8IVisitorIS3_EE,"axG",@progbits,_ZNK8opendnp318BufferedCollectionINS_7IndexedINS_13FrozenCounterEEEZNS_11RangeParser13InvokeRangeOfINS_11Group21Var6EEEvRKNS_12HeaderRecordERKNS_5RangeERKN7openpal6RSliceERNS_12IAPDUHandlerEEUlRSE_jE_E7ForeachERNS_8IVisitorIS3_EE,comdat
	.align 2
	.p2align 4
	.weak	_ZNK8opendnp318BufferedCollectionINS_7IndexedINS_13FrozenCounterEEEZNS_11RangeParser13InvokeRangeOfINS_11Group21Var6EEEvRKNS_12HeaderRecordERKNS_5RangeERKN7openpal6RSliceERNS_12IAPDUHandlerEEUlRSE_jE_E7ForeachERNS_8IVisitorIS3_EE
	.type	_ZNK8opendnp318BufferedCollectionINS_7IndexedINS_13FrozenCounterEEEZNS_11RangeParser13InvokeRangeOfINS_11Group21Var6EEEvRKNS_12HeaderRecordERKNS_5RangeERKN7openpal6RSliceERNS_12IAPDUHandlerEEUlRSE_jE_E7ForeachERNS_8IVisitorIS3_EE, @function
_ZNK8opendnp318BufferedCollectionINS_7IndexedINS_13FrozenCounterEEEZNS_11RangeParser13InvokeRangeOfINS_11Group21Var6EEEvRKNS_12HeaderRecordERKNS_5RangeERKN7openpal6RSliceERNS_12IAPDUHandlerEEUlRSE_jE_E7ForeachERNS_8IVisitorIS3_EE:
.LFB3641:
	.cfi_startproc
	endbr64
	pushq	%r15
	.cfi_def_cfa_offset 16
	.cfi_offset 15, -16
	pushq	%r14
	.cfi_def_cfa_offset 24
	.cfi_offset 14, -24
	pushq	%r13
	.cfi_def_cfa_offset 32
	.cfi_offset 13, -32
	pushq	%r12
	.cfi_def_cfa_offset 40
	.cfi_offset 12, -40
	pushq	%rbp
	.cfi_def_cfa_offset 48
	.cfi_offset 6, -48
	pushq	%rbx
	.cfi_def_cfa_offset 56
	.cfi_offset 3, -56
	subq	$120, %rsp
	.cfi_def_cfa_offset 176
	movdqu	8(%rdi), %xmm1
	movq	%fs:40, %rax
	movq	%rax, 104(%rsp)
	xorl	%eax, %eax
	cmpq	$0, 24(%rdi)
	movaps	%xmm1, 16(%rsp)
	je	.L227
	leaq	64(%rsp), %rax
	movq	%rdi, %rbp
	movq	%rsi, %r12
	xorl	%ebx, %ebx
	movq	%rax, 8(%rsp)
	leaq	32(%rsp), %r13
	leaq	16(%rsp), %r15
	.p2align 4,,10
	.p2align 3
.L229:
	movq	(%r12), %rax
	movq	%r13, %rdi
	movq	(%rax), %r14
	call	_ZN8opendnp313FrozenCounterC1Ev@PLT
	movq	%r13, %rsi
	movq	%r15, %rdi
	call	_ZN8opendnp311Group21Var610ReadTargetERN7openpal6RSliceERNS_13FrozenCounterE@PLT
	movzwl	32(%rbp), %eax
	movdqa	32(%rsp), %xmm0
	movq	%r12, %rdi
	movq	48(%rsp), %rcx
	movq	8(%rsp), %rsi
	addl	%ebx, %eax
	movaps	%xmm0, 64(%rsp)
	movw	%ax, 88(%rsp)
	movq	%rcx, 80(%rsp)
	call	*%r14
	leal	1(%rbx), %eax
	movq	%rax, %rbx
	cmpq	24(%rbp), %rax
	jb	.L229
.L227:
	movq	104(%rsp), %rax
	subq	%fs:40, %rax
	jne	.L233
	addq	$120, %rsp
	.cfi_remember_state
	.cfi_def_cfa_offset 56
	popq	%rbx
	.cfi_def_cfa_offset 48
	popq	%rbp
	.cfi_def_cfa_offset 40
	popq	%r12
	.cfi_def_cfa_offset 32
	popq	%r13
	.cfi_def_cfa_offset 24
	popq	%r14
	.cfi_def_cfa_offset 16
	popq	%r15
	.cfi_def_cfa_offset 8
	ret
.L233:
	.cfi_restore_state
	call	__stack_chk_fail@PLT
	.cfi_endproc
.LFE3641:
	.size	_ZNK8opendnp318BufferedCollectionINS_7IndexedINS_13FrozenCounterEEEZNS_11RangeParser13InvokeRangeOfINS_11Group21Var6EEEvRKNS_12HeaderRecordERKNS_5RangeERKN7openpal6RSliceERNS_12IAPDUHandlerEEUlRSE_jE_E7ForeachERNS_8IVisitorIS3_EE, .-_ZNK8opendnp318BufferedCollectionINS_7IndexedINS_13FrozenCounterEEEZNS_11RangeParser13InvokeRangeOfINS_11Group21Var6EEEvRKNS_12HeaderRecordERKNS_5RangeERKN7openpal6RSliceERNS_12IAPDUHandlerEEUlRSE_jE_E7ForeachERNS_8IVisitorIS3_EE
	.section	.text._ZNK8opendnp318BufferedCollectionINS_7IndexedINS_13FrozenCounterEEEZNS_11RangeParser13InvokeRangeOfINS_11Group21Var9EEEvRKNS_12HeaderRecordERKNS_5RangeERKN7openpal6RSliceERNS_12IAPDUHandlerEEUlRSE_jE_E7ForeachERNS_8IVisitorIS3_EE,"axG",@progbits,_ZNK8opendnp318BufferedCollectionINS_7IndexedINS_13FrozenCounterEEEZNS_11RangeParser13InvokeRangeOfINS_11Group21Var9EEEvRKNS_12HeaderRecordERKNS_5RangeERKN7openpal6RSliceERNS_12IAPDUHandlerEEUlRSE_jE_E7ForeachERNS_8IVisitorIS3_EE,comdat
	.align 2
	.p2align 4
	.weak	_ZNK8opendnp318BufferedCollectionINS_7IndexedINS_13FrozenCounterEEEZNS_11RangeParser13InvokeRangeOfINS_11Group21Var9EEEvRKNS_12HeaderRecordERKNS_5RangeERKN7openpal6RSliceERNS_12IAPDUHandlerEEUlRSE_jE_E7ForeachERNS_8IVisitorIS3_EE
	.type	_ZNK8opendnp318BufferedCollectionINS_7IndexedINS_13FrozenCounterEEEZNS_11RangeParser13InvokeRangeOfINS_11Group21Var9EEEvRKNS_12HeaderRecordERKNS_5RangeERKN7openpal6RSliceERNS_12IAPDUHandlerEEUlRSE_jE_E7ForeachERNS_8IVisitorIS3_EE, @function
_ZNK8opendnp318BufferedCollectionINS_7IndexedINS_13FrozenCounterEEEZNS_11RangeParser13InvokeRangeOfINS_11Group21Var9EEEvRKNS_12HeaderRecordERKNS_5RangeERKN7openpal6RSliceERNS_12IAPDUHandlerEEUlRSE_jE_E7ForeachERNS_8IVisitorIS3_EE:
.LFB3639:
	.cfi_startproc
	endbr64
	pushq	%r15
	.cfi_def_cfa_offset 16
	.cfi_offset 15, -16
	pushq	%r14
	.cfi_def_cfa_offset 24
	.cfi_offset 14, -24
	pushq	%r13
	.cfi_def_cfa_offset 32
	.cfi_offset 13, -32
	pushq	%r12
	.cfi_def_cfa_offset 40
	.cfi_offset 12, -40
	pushq	%rbp
	.cfi_def_cfa_offset 48
	.cfi_offset 6, -48
	pushq	%rbx
	.cfi_def_cfa_offset 56
	.cfi_offset 3, -56
	subq	$120, %rsp
	.cfi_def_cfa_offset 176
	movdqu	8(%rdi), %xmm1
	movq	%fs:40, %rax
	movq	%rax, 104(%rsp)
	xorl	%eax, %eax
	cmpq	$0, 24(%rdi)
	movaps	%xmm1, 16(%rsp)
	je	.L234
	leaq	64(%rsp), %rax
	movq	%rdi, %rbp
	movq	%rsi, %r12
	xorl	%ebx, %ebx
	movq	%rax, 8(%rsp)
	leaq	32(%rsp), %r13
	leaq	16(%rsp), %r15
	.p2align 4,,10
	.p2align 3
.L236:
	movq	(%r12), %rax
	movq	%r13, %rdi
	movq	(%rax), %r14
	call	_ZN8opendnp313FrozenCounterC1Ev@PLT
	movq	%r13, %rsi
	movq	%r15, %rdi
	call	_ZN8opendnp311Group21Var910ReadTargetERN7openpal6RSliceERNS_13FrozenCounterE@PLT
	movzwl	32(%rbp), %eax
	movdqa	32(%rsp), %xmm0
	movq	%r12, %rdi
	movq	48(%rsp), %rcx
	movq	8(%rsp), %rsi
	addl	%ebx, %eax
	movaps	%xmm0, 64(%rsp)
	movw	%ax, 88(%rsp)
	movq	%rcx, 80(%rsp)
	call	*%r14
	leal	1(%rbx), %eax
	movq	%rax, %rbx
	cmpq	24(%rbp), %rax
	jb	.L236
.L234:
	movq	104(%rsp), %rax
	subq	%fs:40, %rax
	jne	.L240
	addq	$120, %rsp
	.cfi_remember_state
	.cfi_def_cfa_offset 56
	popq	%rbx
	.cfi_def_cfa_offset 48
	popq	%rbp
	.cfi_def_cfa_offset 40
	popq	%r12
	.cfi_def_cfa_offset 32
	popq	%r13
	.cfi_def_cfa_offset 24
	popq	%r14
	.cfi_def_cfa_offset 16
	popq	%r15
	.cfi_def_cfa_offset 8
	ret
.L240:
	.cfi_restore_state
	call	__stack_chk_fail@PLT
	.cfi_endproc
.LFE3639:
	.size	_ZNK8opendnp318BufferedCollectionINS_7IndexedINS_13FrozenCounterEEEZNS_11RangeParser13InvokeRangeOfINS_11Group21Var9EEEvRKNS_12HeaderRecordERKNS_5RangeERKN7openpal6RSliceERNS_12IAPDUHandlerEEUlRSE_jE_E7ForeachERNS_8IVisitorIS3_EE, .-_ZNK8opendnp318BufferedCollectionINS_7IndexedINS_13FrozenCounterEEEZNS_11RangeParser13InvokeRangeOfINS_11Group21Var9EEEvRKNS_12HeaderRecordERKNS_5RangeERKN7openpal6RSliceERNS_12IAPDUHandlerEEUlRSE_jE_E7ForeachERNS_8IVisitorIS3_EE
	.section	.text._ZNK8opendnp318BufferedCollectionINS_7IndexedINS_13FrozenCounterEEEZNS_11RangeParser13InvokeRangeOfINS_12Group21Var10EEEvRKNS_12HeaderRecordERKNS_5RangeERKN7openpal6RSliceERNS_12IAPDUHandlerEEUlRSE_jE_E7ForeachERNS_8IVisitorIS3_EE,"axG",@progbits,_ZNK8opendnp318BufferedCollectionINS_7IndexedINS_13FrozenCounterEEEZNS_11RangeParser13InvokeRangeOfINS_12Group21Var10EEEvRKNS_12HeaderRecordERKNS_5RangeERKN7openpal6RSliceERNS_12IAPDUHandlerEEUlRSE_jE_E7ForeachERNS_8IVisitorIS3_EE,comdat
	.align 2
	.p2align 4
	.weak	_ZNK8opendnp318BufferedCollectionINS_7IndexedINS_13FrozenCounterEEEZNS_11RangeParser13InvokeRangeOfINS_12Group21Var10EEEvRKNS_12HeaderRecordERKNS_5RangeERKN7openpal6RSliceERNS_12IAPDUHandlerEEUlRSE_jE_E7ForeachERNS_8IVisitorIS3_EE
	.type	_ZNK8opendnp318BufferedCollectionINS_7IndexedINS_13FrozenCounterEEEZNS_11RangeParser13InvokeRangeOfINS_12Group21Var10EEEvRKNS_12HeaderRecordERKNS_5RangeERKN7openpal6RSliceERNS_12IAPDUHandlerEEUlRSE_jE_E7ForeachERNS_8IVisitorIS3_EE, @function
_ZNK8opendnp318BufferedCollectionINS_7IndexedINS_13FrozenCounterEEEZNS_11RangeParser13InvokeRangeOfINS_12Group21Var10EEEvRKNS_12HeaderRecordERKNS_5RangeERKN7openpal6RSliceERNS_12IAPDUHandlerEEUlRSE_jE_E7ForeachERNS_8IVisitorIS3_EE:
.LFB3637:
	.cfi_startproc
	endbr64
	pushq	%r15
	.cfi_def_cfa_offset 16
	.cfi_offset 15, -16
	pushq	%r14
	.cfi_def_cfa_offset 24
	.cfi_offset 14, -24
	pushq	%r13
	.cfi_def_cfa_offset 32
	.cfi_offset 13, -32
	pushq	%r12
	.cfi_def_cfa_offset 40
	.cfi_offset 12, -40
	pushq	%rbp
	.cfi_def_cfa_offset 48
	.cfi_offset 6, -48
	pushq	%rbx
	.cfi_def_cfa_offset 56
	.cfi_offset 3, -56
	subq	$120, %rsp
	.cfi_def_cfa_offset 176
	movdqu	8(%rdi), %xmm1
	movq	%fs:40, %rax
	movq	%rax, 104(%rsp)
	xorl	%eax, %eax
	cmpq	$0, 24(%rdi)
	movaps	%xmm1, 16(%rsp)
	je	.L241
	leaq	64(%rsp), %rax
	movq	%rdi, %rbp
	movq	%rsi, %r12
	xorl	%ebx, %ebx
	movq	%rax, 8(%rsp)
	leaq	32(%rsp), %r13
	leaq	16(%rsp), %r15
	.p2align 4,,10
	.p2align 3
.L243:
	movq	(%r12), %rax
	movq	%r13, %rdi
	movq	(%rax), %r14
	call	_ZN8opendnp313FrozenCounterC1Ev@PLT
	movq	%r13, %rsi
	movq	%r15, %rdi
	call	_ZN8opendnp312Group21Var1010ReadTargetERN7openpal6RSliceERNS_13FrozenCounterE@PLT
	movzwl	32(%rbp), %eax
	movdqa	32(%rsp), %xmm0
	movq	%r12, %rdi
	movq	48(%rsp), %rcx
	movq	8(%rsp), %rsi
	addl	%ebx, %eax
	movaps	%xmm0, 64(%rsp)
	movw	%ax, 88(%rsp)
	movq	%rcx, 80(%rsp)
	call	*%r14
	leal	1(%rbx), %eax
	movq	%rax, %rbx
	cmpq	24(%rbp), %rax
	jb	.L243
.L241:
	movq	104(%rsp), %rax
	subq	%fs:40, %rax
	jne	.L247
	addq	$120, %rsp
	.cfi_remember_state
	.cfi_def_cfa_offset 56
	popq	%rbx
	.cfi_def_cfa_offset 48
	popq	%rbp
	.cfi_def_cfa_offset 40
	popq	%r12
	.cfi_def_cfa_offset 32
	popq	%r13
	.cfi_def_cfa_offset 24
	popq	%r14
	.cfi_def_cfa_offset 16
	popq	%r15
	.cfi_def_cfa_offset 8
	ret
.L247:
	.cfi_restore_state
	call	__stack_chk_fail@PLT
	.cfi_endproc
.LFE3637:
	.size	_ZNK8opendnp318BufferedCollectionINS_7IndexedINS_13FrozenCounterEEEZNS_11RangeParser13InvokeRangeOfINS_12Group21Var10EEEvRKNS_12HeaderRecordERKNS_5RangeERKN7openpal6RSliceERNS_12IAPDUHandlerEEUlRSE_jE_E7ForeachERNS_8IVisitorIS3_EE, .-_ZNK8opendnp318BufferedCollectionINS_7IndexedINS_13FrozenCounterEEEZNS_11RangeParser13InvokeRangeOfINS_12Group21Var10EEEvRKNS_12HeaderRecordERKNS_5RangeERKN7openpal6RSliceERNS_12IAPDUHandlerEEUlRSE_jE_E7ForeachERNS_8IVisitorIS3_EE
	.section	.text._ZN8opendnp311RangeParser13InvokeRangeOfINS_11Group30Var1EEEvRKNS_12HeaderRecordERKNS_5RangeERKN7openpal6RSliceERNS_12IAPDUHandlerE,"axG",@progbits,_ZN8opendnp311RangeParser13InvokeRangeOfINS_11Group30Var1EEEvRKNS_12HeaderRecordERKNS_5RangeERKN7openpal6RSliceERNS_12IAPDUHandlerE,comdat
	.align 2
	.p2align 4
	.weak	_ZN8opendnp311RangeParser13InvokeRangeOfINS_11Group30Var1EEEvRKNS_12HeaderRecordERKNS_5RangeERKN7openpal6RSliceERNS_12IAPDUHandlerE
	.type	_ZN8opendnp311RangeParser13InvokeRangeOfINS_11Group30Var1EEEvRKNS_12HeaderRecordERKNS_5RangeERKN7openpal6RSliceERNS_12IAPDUHandlerE, @function
_ZN8opendnp311RangeParser13InvokeRangeOfINS_11Group30Var1EEEvRKNS_12HeaderRecordERKNS_5RangeERKN7openpal6RSliceERNS_12IAPDUHandlerE:
.LFB3077:
	.cfi_startproc
	endbr64
	movq	%rsi, %rax
	subq	$88, %rsp
	.cfi_def_cfa_offset 96
	movl	(%rsi), %r10d
	movzwl	(%rsi), %esi
	movzwl	2(%rax), %r9d
	movq	%rdi, %r8
	movq	%rcx, %rdi
	movq	%fs:40, %rcx
	movq	%rcx, 72(%rsp)
	xorl	%ecx, %ecx
	cmpw	%r9w, %si
	ja	.L249
	leal	1(%r9), %ecx
	subl	%esi, %ecx
.L249:
	movq	_ZTVN8opendnp318BufferedCollectionINS_7IndexedINS_6AnalogEEEZNS_11RangeParser13InvokeRangeOfINS_11Group30Var1EEEvRKNS_12HeaderRecordERKNS_5RangeERKN7openpal6RSliceERNS_12IAPDUHandlerEEUlRSE_jE_EE@GOTPCREL(%rip), %rsi
	movdqu	(%rdx), %xmm0
	leaq	32(%rsp), %rdx
	movq	%rcx, 56(%rsp)
	movl	(%rax), %eax
	movdqu	(%r8), %xmm1
	movl	%r10d, 64(%rsp)
	addq	$16, %rsi
	movups	%xmm0, 40(%rsp)
	movq	%rsi, 32(%rsp)
	movq	%rsp, %rsi
	movl	%eax, 16(%rsp)
	movaps	%xmm1, (%rsp)
	call	_ZN8opendnp312IAPDUHandler8OnHeaderERKNS_11RangeHeaderERKNS_11ICollectionINS_7IndexedINS_6AnalogEEEEE@PLT
	movq	72(%rsp), %rax
	subq	%fs:40, %rax
	jne	.L253
	addq	$88, %rsp
	.cfi_remember_state
	.cfi_def_cfa_offset 8
	ret
.L253:
	.cfi_restore_state
	call	__stack_chk_fail@PLT
	.cfi_endproc
.LFE3077:
	.size	_ZN8opendnp311RangeParser13InvokeRangeOfINS_11Group30Var1EEEvRKNS_12HeaderRecordERKNS_5RangeERKN7openpal6RSliceERNS_12IAPDUHandlerE, .-_ZN8opendnp311RangeParser13InvokeRangeOfINS_11Group30Var1EEEvRKNS_12HeaderRecordERKNS_5RangeERKN7openpal6RSliceERNS_12IAPDUHandlerE
	.section	.text._ZN8opendnp311RangeParser13InvokeRangeOfINS_11Group30Var2EEEvRKNS_12HeaderRecordERKNS_5RangeERKN7openpal6RSliceERNS_12IAPDUHandlerE,"axG",@progbits,_ZN8opendnp311RangeParser13InvokeRangeOfINS_11Group30Var2EEEvRKNS_12HeaderRecordERKNS_5RangeERKN7openpal6RSliceERNS_12IAPDUHandlerE,comdat
	.align 2
	.p2align 4
	.weak	_ZN8opendnp311RangeParser13InvokeRangeOfINS_11Group30Var2EEEvRKNS_12HeaderRecordERKNS_5RangeERKN7openpal6RSliceERNS_12IAPDUHandlerE
	.type	_ZN8opendnp311RangeParser13InvokeRangeOfINS_11Group30Var2EEEvRKNS_12HeaderRecordERKNS_5RangeERKN7openpal6RSliceERNS_12IAPDUHandlerE, @function
_ZN8opendnp311RangeParser13InvokeRangeOfINS_11Group30Var2EEEvRKNS_12HeaderRecordERKNS_5RangeERKN7openpal6RSliceERNS_12IAPDUHandlerE:
.LFB3085:
	.cfi_startproc
	endbr64
	movq	%rsi, %rax
	subq	$88, %rsp
	.cfi_def_cfa_offset 96
	movl	(%rsi), %r10d
	movzwl	(%rsi), %esi
	movzwl	2(%rax), %r9d
	movq	%rdi, %r8
	movq	%rcx, %rdi
	movq	%fs:40, %rcx
	movq	%rcx, 72(%rsp)
	xorl	%ecx, %ecx
	cmpw	%r9w, %si
	ja	.L255
	leal	1(%r9), %ecx
	subl	%esi, %ecx
.L255:
	movq	_ZTVN8opendnp318BufferedCollectionINS_7IndexedINS_6AnalogEEEZNS_11RangeParser13InvokeRangeOfINS_11Group30Var2EEEvRKNS_12HeaderRecordERKNS_5RangeERKN7openpal6RSliceERNS_12IAPDUHandlerEEUlRSE_jE_EE@GOTPCREL(%rip), %rsi
	movdqu	(%rdx), %xmm0
	leaq	32(%rsp), %rdx
	movq	%rcx, 56(%rsp)
	movl	(%rax), %eax
	movdqu	(%r8), %xmm1
	movl	%r10d, 64(%rsp)
	addq	$16, %rsi
	movups	%xmm0, 40(%rsp)
	movq	%rsi, 32(%rsp)
	movq	%rsp, %rsi
	movl	%eax, 16(%rsp)
	movaps	%xmm1, (%rsp)
	call	_ZN8opendnp312IAPDUHandler8OnHeaderERKNS_11RangeHeaderERKNS_11ICollectionINS_7IndexedINS_6AnalogEEEEE@PLT
	movq	72(%rsp), %rax
	subq	%fs:40, %rax
	jne	.L259
	addq	$88, %rsp
	.cfi_remember_state
	.cfi_def_cfa_offset 8
	ret
.L259:
	.cfi_restore_state
	call	__stack_chk_fail@PLT
	.cfi_endproc
.LFE3085:
	.size	_ZN8opendnp311RangeParser13InvokeRangeOfINS_11Group30Var2EEEvRKNS_12HeaderRecordERKNS_5RangeERKN7openpal6RSliceERNS_12IAPDUHandlerE, .-_ZN8opendnp311RangeParser13InvokeRangeOfINS_11Group30Var2EEEvRKNS_12HeaderRecordERKNS_5RangeERKN7openpal6RSliceERNS_12IAPDUHandlerE
	.section	.text._ZN8opendnp311RangeParser13InvokeRangeOfINS_11Group30Var3EEEvRKNS_12HeaderRecordERKNS_5RangeERKN7openpal6RSliceERNS_12IAPDUHandlerE,"axG",@progbits,_ZN8opendnp311RangeParser13InvokeRangeOfINS_11Group30Var3EEEvRKNS_12HeaderRecordERKNS_5RangeERKN7openpal6RSliceERNS_12IAPDUHandlerE,comdat
	.align 2
	.p2align 4
	.weak	_ZN8opendnp311RangeParser13InvokeRangeOfINS_11Group30Var3EEEvRKNS_12HeaderRecordERKNS_5RangeERKN7openpal6RSliceERNS_12IAPDUHandlerE
	.type	_ZN8opendnp311RangeParser13InvokeRangeOfINS_11Group30Var3EEEvRKNS_12HeaderRecordERKNS_5RangeERKN7openpal6RSliceERNS_12IAPDUHandlerE, @function
_ZN8opendnp311RangeParser13InvokeRangeOfINS_11Group30Var3EEEvRKNS_12HeaderRecordERKNS_5RangeERKN7openpal6RSliceERNS_12IAPDUHandlerE:
.LFB3090:
	.cfi_startproc
	endbr64
	movq	%rsi, %rax
	subq	$88, %rsp
	.cfi_def_cfa_offset 96
	movl	(%rsi), %r10d
	movzwl	(%rsi), %esi
	movzwl	2(%rax), %r9d
	movq	%rdi, %r8
	movq	%rcx, %rdi
	movq	%fs:40, %rcx
	movq	%rcx, 72(%rsp)
	xorl	%ecx, %ecx
	cmpw	%r9w, %si
	ja	.L261
	leal	1(%r9), %ecx
	subl	%esi, %ecx
.L261:
	movq	_ZTVN8opendnp318BufferedCollectionINS_7IndexedINS_6AnalogEEEZNS_11RangeParser13InvokeRangeOfINS_11Group30Var3EEEvRKNS_12HeaderRecordERKNS_5RangeERKN7openpal6RSliceERNS_12IAPDUHandlerEEUlRSE_jE_EE@GOTPCREL(%rip), %rsi
	movdqu	(%rdx), %xmm0
	leaq	32(%rsp), %rdx
	movq	%rcx, 56(%rsp)
	movl	(%rax), %eax
	movdqu	(%r8), %xmm1
	movl	%r10d, 64(%rsp)
	addq	$16, %rsi
	movups	%xmm0, 40(%rsp)
	movq	%rsi, 32(%rsp)
	movq	%rsp, %rsi
	movl	%eax, 16(%rsp)
	movaps	%xmm1, (%rsp)
	call	_ZN8opendnp312IAPDUHandler8OnHeaderERKNS_11RangeHeaderERKNS_11ICollectionINS_7IndexedINS_6AnalogEEEEE@PLT
	movq	72(%rsp), %rax
	subq	%fs:40, %rax
	jne	.L265
	addq	$88, %rsp
	.cfi_remember_state
	.cfi_def_cfa_offset 8
	ret
.L265:
	.cfi_restore_state
	call	__stack_chk_fail@PLT
	.cfi_endproc
.LFE3090:
	.size	_ZN8opendnp311RangeParser13InvokeRangeOfINS_11Group30Var3EEEvRKNS_12HeaderRecordERKNS_5RangeERKN7openpal6RSliceERNS_12IAPDUHandlerE, .-_ZN8opendnp311RangeParser13InvokeRangeOfINS_11Group30Var3EEEvRKNS_12HeaderRecordERKNS_5RangeERKN7openpal6RSliceERNS_12IAPDUHandlerE
	.section	.text._ZN8opendnp311RangeParser13InvokeRangeOfINS_11Group30Var4EEEvRKNS_12HeaderRecordERKNS_5RangeERKN7openpal6RSliceERNS_12IAPDUHandlerE,"axG",@progbits,_ZN8opendnp311RangeParser13InvokeRangeOfINS_11Group30Var4EEEvRKNS_12HeaderRecordERKNS_5RangeERKN7openpal6RSliceERNS_12IAPDUHandlerE,comdat
	.align 2
	.p2align 4
	.weak	_ZN8opendnp311RangeParser13InvokeRangeOfINS_11Group30Var4EEEvRKNS_12HeaderRecordERKNS_5RangeERKN7openpal6RSliceERNS_12IAPDUHandlerE
	.type	_ZN8opendnp311RangeParser13InvokeRangeOfINS_11Group30Var4EEEvRKNS_12HeaderRecordERKNS_5RangeERKN7openpal6RSliceERNS_12IAPDUHandlerE, @function
_ZN8opendnp311RangeParser13InvokeRangeOfINS_11Group30Var4EEEvRKNS_12HeaderRecordERKNS_5RangeERKN7openpal6RSliceERNS_12IAPDUHandlerE:
.LFB3095:
	.cfi_startproc
	endbr64
	movq	%rsi, %rax
	subq	$88, %rsp
	.cfi_def_cfa_offset 96
	movl	(%rsi), %r10d
	movzwl	(%rsi), %esi
	movzwl	2(%rax), %r9d
	movq	%rdi, %r8
	movq	%rcx, %rdi
	movq	%fs:40, %rcx
	movq	%rcx, 72(%rsp)
	xorl	%ecx, %ecx
	cmpw	%r9w, %si
	ja	.L267
	leal	1(%r9), %ecx
	subl	%esi, %ecx
.L267:
	movq	_ZTVN8opendnp318BufferedCollectionINS_7IndexedINS_6AnalogEEEZNS_11RangeParser13InvokeRangeOfINS_11Group30Var4EEEvRKNS_12HeaderRecordERKNS_5RangeERKN7openpal6RSliceERNS_12IAPDUHandlerEEUlRSE_jE_EE@GOTPCREL(%rip), %rsi
	movdqu	(%rdx), %xmm0
	leaq	32(%rsp), %rdx
	movq	%rcx, 56(%rsp)
	movl	(%rax), %eax
	movdqu	(%r8), %xmm1
	movl	%r10d, 64(%rsp)
	addq	$16, %rsi
	movups	%xmm0, 40(%rsp)
	movq	%rsi, 32(%rsp)
	movq	%rsp, %rsi
	movl	%eax, 16(%rsp)
	movaps	%xmm1, (%rsp)
	call	_ZN8opendnp312IAPDUHandler8OnHeaderERKNS_11RangeHeaderERKNS_11ICollectionINS_7IndexedINS_6AnalogEEEEE@PLT
	movq	72(%rsp), %rax
	subq	%fs:40, %rax
	jne	.L271
	addq	$88, %rsp
	.cfi_remember_state
	.cfi_def_cfa_offset 8
	ret
.L271:
	.cfi_restore_state
	call	__stack_chk_fail@PLT
	.cfi_endproc
.LFE3095:
	.size	_ZN8opendnp311RangeParser13InvokeRangeOfINS_11Group30Var4EEEvRKNS_12HeaderRecordERKNS_5RangeERKN7openpal6RSliceERNS_12IAPDUHandlerE, .-_ZN8opendnp311RangeParser13InvokeRangeOfINS_11Group30Var4EEEvRKNS_12HeaderRecordERKNS_5RangeERKN7openpal6RSliceERNS_12IAPDUHandlerE
	.section	.text._ZN8opendnp311RangeParser13InvokeRangeOfINS_11Group30Var5EEEvRKNS_12HeaderRecordERKNS_5RangeERKN7openpal6RSliceERNS_12IAPDUHandlerE,"axG",@progbits,_ZN8opendnp311RangeParser13InvokeRangeOfINS_11Group30Var5EEEvRKNS_12HeaderRecordERKNS_5RangeERKN7openpal6RSliceERNS_12IAPDUHandlerE,comdat
	.align 2
	.p2align 4
	.weak	_ZN8opendnp311RangeParser13InvokeRangeOfINS_11Group30Var5EEEvRKNS_12HeaderRecordERKNS_5RangeERKN7openpal6RSliceERNS_12IAPDUHandlerE
	.type	_ZN8opendnp311RangeParser13InvokeRangeOfINS_11Group30Var5EEEvRKNS_12HeaderRecordERKNS_5RangeERKN7openpal6RSliceERNS_12IAPDUHandlerE, @function
_ZN8opendnp311RangeParser13InvokeRangeOfINS_11Group30Var5EEEvRKNS_12HeaderRecordERKNS_5RangeERKN7openpal6RSliceERNS_12IAPDUHandlerE:
.LFB3100:
	.cfi_startproc
	endbr64
	movq	%rsi, %rax
	subq	$88, %rsp
	.cfi_def_cfa_offset 96
	movl	(%rsi), %r10d
	movzwl	(%rsi), %esi
	movzwl	2(%rax), %r9d
	movq	%rdi, %r8
	movq	%rcx, %rdi
	movq	%fs:40, %rcx
	movq	%rcx, 72(%rsp)
	xorl	%ecx, %ecx
	cmpw	%r9w, %si
	ja	.L273
	leal	1(%r9), %ecx
	subl	%esi, %ecx
.L273:
	movq	_ZTVN8opendnp318BufferedCollectionINS_7IndexedINS_6AnalogEEEZNS_11RangeParser13InvokeRangeOfINS_11Group30Var5EEEvRKNS_12HeaderRecordERKNS_5RangeERKN7openpal6RSliceERNS_12IAPDUHandlerEEUlRSE_jE_EE@GOTPCREL(%rip), %rsi
	movdqu	(%rdx), %xmm0
	leaq	32(%rsp), %rdx
	movq	%rcx, 56(%rsp)
	movl	(%rax), %eax
	movdqu	(%r8), %xmm1
	movl	%r10d, 64(%rsp)
	addq	$16, %rsi
	movups	%xmm0, 40(%rsp)
	movq	%rsi, 32(%rsp)
	movq	%rsp, %rsi
	movl	%eax, 16(%rsp)
	movaps	%xmm1, (%rsp)
	call	_ZN8opendnp312IAPDUHandler8OnHeaderERKNS_11RangeHeaderERKNS_11ICollectionINS_7IndexedINS_6AnalogEEEEE@PLT
	movq	72(%rsp), %rax
	subq	%fs:40, %rax
	jne	.L277
	addq	$88, %rsp
	.cfi_remember_state
	.cfi_def_cfa_offset 8
	ret
.L277:
	.cfi_restore_state
	call	__stack_chk_fail@PLT
	.cfi_endproc
.LFE3100:
	.size	_ZN8opendnp311RangeParser13InvokeRangeOfINS_11Group30Var5EEEvRKNS_12HeaderRecordERKNS_5RangeERKN7openpal6RSliceERNS_12IAPDUHandlerE, .-_ZN8opendnp311RangeParser13InvokeRangeOfINS_11Group30Var5EEEvRKNS_12HeaderRecordERKNS_5RangeERKN7openpal6RSliceERNS_12IAPDUHandlerE
	.section	.text._ZN8opendnp311RangeParser13InvokeRangeOfINS_11Group30Var6EEEvRKNS_12HeaderRecordERKNS_5RangeERKN7openpal6RSliceERNS_12IAPDUHandlerE,"axG",@progbits,_ZN8opendnp311RangeParser13InvokeRangeOfINS_11Group30Var6EEEvRKNS_12HeaderRecordERKNS_5RangeERKN7openpal6RSliceERNS_12IAPDUHandlerE,comdat
	.align 2
	.p2align 4
	.weak	_ZN8opendnp311RangeParser13InvokeRangeOfINS_11Group30Var6EEEvRKNS_12HeaderRecordERKNS_5RangeERKN7openpal6RSliceERNS_12IAPDUHandlerE
	.type	_ZN8opendnp311RangeParser13InvokeRangeOfINS_11Group30Var6EEEvRKNS_12HeaderRecordERKNS_5RangeERKN7openpal6RSliceERNS_12IAPDUHandlerE, @function
_ZN8opendnp311RangeParser13InvokeRangeOfINS_11Group30Var6EEEvRKNS_12HeaderRecordERKNS_5RangeERKN7openpal6RSliceERNS_12IAPDUHandlerE:
.LFB3105:
	.cfi_startproc
	endbr64
	movq	%rsi, %rax
	subq	$88, %rsp
	.cfi_def_cfa_offset 96
	movl	(%rsi), %r10d
	movzwl	(%rsi), %esi
	movzwl	2(%rax), %r9d
	movq	%rdi, %r8
	movq	%rcx, %rdi
	movq	%fs:40, %rcx
	movq	%rcx, 72(%rsp)
	xorl	%ecx, %ecx
	cmpw	%r9w, %si
	ja	.L279
	leal	1(%r9), %ecx
	subl	%esi, %ecx
.L279:
	movq	_ZTVN8opendnp318BufferedCollectionINS_7IndexedINS_6AnalogEEEZNS_11RangeParser13InvokeRangeOfINS_11Group30Var6EEEvRKNS_12HeaderRecordERKNS_5RangeERKN7openpal6RSliceERNS_12IAPDUHandlerEEUlRSE_jE_EE@GOTPCREL(%rip), %rsi
	movdqu	(%rdx), %xmm0
	leaq	32(%rsp), %rdx
	movq	%rcx, 56(%rsp)
	movl	(%rax), %eax
	movdqu	(%r8), %xmm1
	movl	%r10d, 64(%rsp)
	addq	$16, %rsi
	movups	%xmm0, 40(%rsp)
	movq	%rsi, 32(%rsp)
	movq	%rsp, %rsi
	movl	%eax, 16(%rsp)
	movaps	%xmm1, (%rsp)
	call	_ZN8opendnp312IAPDUHandler8OnHeaderERKNS_11RangeHeaderERKNS_11ICollectionINS_7IndexedINS_6AnalogEEEEE@PLT
	movq	72(%rsp), %rax
	subq	%fs:40, %rax
	jne	.L283
	addq	$88, %rsp
	.cfi_remember_state
	.cfi_def_cfa_offset 8
	ret
.L283:
	.cfi_restore_state
	call	__stack_chk_fail@PLT
	.cfi_endproc
.LFE3105:
	.size	_ZN8opendnp311RangeParser13InvokeRangeOfINS_11Group30Var6EEEvRKNS_12HeaderRecordERKNS_5RangeERKN7openpal6RSliceERNS_12IAPDUHandlerE, .-_ZN8opendnp311RangeParser13InvokeRangeOfINS_11Group30Var6EEEvRKNS_12HeaderRecordERKNS_5RangeERKN7openpal6RSliceERNS_12IAPDUHandlerE
	.section	.text._ZNK8opendnp318BufferedCollectionINS_7IndexedINS_6AnalogEEEZNS_11RangeParser13InvokeRangeOfINS_11Group30Var1EEEvRKNS_12HeaderRecordERKNS_5RangeERKN7openpal6RSliceERNS_12IAPDUHandlerEEUlRSE_jE_E7ForeachERNS_8IVisitorIS3_EE,"axG",@progbits,_ZNK8opendnp318BufferedCollectionINS_7IndexedINS_6AnalogEEEZNS_11RangeParser13InvokeRangeOfINS_11Group30Var1EEEvRKNS_12HeaderRecordERKNS_5RangeERKN7openpal6RSliceERNS_12IAPDUHandlerEEUlRSE_jE_E7ForeachERNS_8IVisitorIS3_EE,comdat
	.align 2
	.p2align 4
	.weak	_ZNK8opendnp318BufferedCollectionINS_7IndexedINS_6AnalogEEEZNS_11RangeParser13InvokeRangeOfINS_11Group30Var1EEEvRKNS_12HeaderRecordERKNS_5RangeERKN7openpal6RSliceERNS_12IAPDUHandlerEEUlRSE_jE_E7ForeachERNS_8IVisitorIS3_EE
	.type	_ZNK8opendnp318BufferedCollectionINS_7IndexedINS_6AnalogEEEZNS_11RangeParser13InvokeRangeOfINS_11Group30Var1EEEvRKNS_12HeaderRecordERKNS_5RangeERKN7openpal6RSliceERNS_12IAPDUHandlerEEUlRSE_jE_E7ForeachERNS_8IVisitorIS3_EE, @function
_ZNK8opendnp318BufferedCollectionINS_7IndexedINS_6AnalogEEEZNS_11RangeParser13InvokeRangeOfINS_11Group30Var1EEEvRKNS_12HeaderRecordERKNS_5RangeERKN7openpal6RSliceERNS_12IAPDUHandlerEEUlRSE_jE_E7ForeachERNS_8IVisitorIS3_EE:
.LFB3635:
	.cfi_startproc
	endbr64
	pushq	%r15
	.cfi_def_cfa_offset 16
	.cfi_offset 15, -16
	pushq	%r14
	.cfi_def_cfa_offset 24
	.cfi_offset 14, -24
	pushq	%r13
	.cfi_def_cfa_offset 32
	.cfi_offset 13, -32
	pushq	%r12
	.cfi_def_cfa_offset 40
	.cfi_offset 12, -40
	pushq	%rbp
	.cfi_def_cfa_offset 48
	.cfi_offset 6, -48
	pushq	%rbx
	.cfi_def_cfa_offset 56
	.cfi_offset 3, -56
	subq	$120, %rsp
	.cfi_def_cfa_offset 176
	movdqu	8(%rdi), %xmm1
	movq	%fs:40, %rax
	movq	%rax, 104(%rsp)
	xorl	%eax, %eax
	cmpq	$0, 24(%rdi)
	movaps	%xmm1, 16(%rsp)
	je	.L284
	leaq	64(%rsp), %rax
	movq	%rdi, %rbp
	movq	%rsi, %r12
	xorl	%ebx, %ebx
	movq	%rax, 8(%rsp)
	leaq	32(%rsp), %r13
	leaq	16(%rsp), %r15
	.p2align 4,,10
	.p2align 3
.L286:
	movq	(%r12), %rax
	movq	%r13, %rdi
	movq	(%rax), %r14
	call	_ZN8opendnp36AnalogC1Ev@PLT
	movq	%r13, %rsi
	movq	%r15, %rdi
	call	_ZN8opendnp311Group30Var110ReadTargetERN7openpal6RSliceERNS_6AnalogE@PLT
	movzwl	32(%rbp), %eax
	movdqa	32(%rsp), %xmm0
	movq	%r12, %rdi
	movq	48(%rsp), %rcx
	movq	8(%rsp), %rsi
	addl	%ebx, %eax
	movaps	%xmm0, 64(%rsp)
	movw	%ax, 88(%rsp)
	movq	%rcx, 80(%rsp)
	call	*%r14
	leal	1(%rbx), %eax
	movq	%rax, %rbx
	cmpq	24(%rbp), %rax
	jb	.L286
.L284:
	movq	104(%rsp), %rax
	subq	%fs:40, %rax
	jne	.L290
	addq	$120, %rsp
	.cfi_remember_state
	.cfi_def_cfa_offset 56
	popq	%rbx
	.cfi_def_cfa_offset 48
	popq	%rbp
	.cfi_def_cfa_offset 40
	popq	%r12
	.cfi_def_cfa_offset 32
	popq	%r13
	.cfi_def_cfa_offset 24
	popq	%r14
	.cfi_def_cfa_offset 16
	popq	%r15
	.cfi_def_cfa_offset 8
	ret
.L290:
	.cfi_restore_state
	call	__stack_chk_fail@PLT
	.cfi_endproc
.LFE3635:
	.size	_ZNK8opendnp318BufferedCollectionINS_7IndexedINS_6AnalogEEEZNS_11RangeParser13InvokeRangeOfINS_11Group30Var1EEEvRKNS_12HeaderRecordERKNS_5RangeERKN7openpal6RSliceERNS_12IAPDUHandlerEEUlRSE_jE_E7ForeachERNS_8IVisitorIS3_EE, .-_ZNK8opendnp318BufferedCollectionINS_7IndexedINS_6AnalogEEEZNS_11RangeParser13InvokeRangeOfINS_11Group30Var1EEEvRKNS_12HeaderRecordERKNS_5RangeERKN7openpal6RSliceERNS_12IAPDUHandlerEEUlRSE_jE_E7ForeachERNS_8IVisitorIS3_EE
	.section	.text._ZNK8opendnp318BufferedCollectionINS_7IndexedINS_6AnalogEEEZNS_11RangeParser13InvokeRangeOfINS_11Group30Var2EEEvRKNS_12HeaderRecordERKNS_5RangeERKN7openpal6RSliceERNS_12IAPDUHandlerEEUlRSE_jE_E7ForeachERNS_8IVisitorIS3_EE,"axG",@progbits,_ZNK8opendnp318BufferedCollectionINS_7IndexedINS_6AnalogEEEZNS_11RangeParser13InvokeRangeOfINS_11Group30Var2EEEvRKNS_12HeaderRecordERKNS_5RangeERKN7openpal6RSliceERNS_12IAPDUHandlerEEUlRSE_jE_E7ForeachERNS_8IVisitorIS3_EE,comdat
	.align 2
	.p2align 4
	.weak	_ZNK8opendnp318BufferedCollectionINS_7IndexedINS_6AnalogEEEZNS_11RangeParser13InvokeRangeOfINS_11Group30Var2EEEvRKNS_12HeaderRecordERKNS_5RangeERKN7openpal6RSliceERNS_12IAPDUHandlerEEUlRSE_jE_E7ForeachERNS_8IVisitorIS3_EE
	.type	_ZNK8opendnp318BufferedCollectionINS_7IndexedINS_6AnalogEEEZNS_11RangeParser13InvokeRangeOfINS_11Group30Var2EEEvRKNS_12HeaderRecordERKNS_5RangeERKN7openpal6RSliceERNS_12IAPDUHandlerEEUlRSE_jE_E7ForeachERNS_8IVisitorIS3_EE, @function
_ZNK8opendnp318BufferedCollectionINS_7IndexedINS_6AnalogEEEZNS_11RangeParser13InvokeRangeOfINS_11Group30Var2EEEvRKNS_12HeaderRecordERKNS_5RangeERKN7openpal6RSliceERNS_12IAPDUHandlerEEUlRSE_jE_E7ForeachERNS_8IVisitorIS3_EE:
.LFB3633:
	.cfi_startproc
	endbr64
	pushq	%r15
	.cfi_def_cfa_offset 16
	.cfi_offset 15, -16
	pushq	%r14
	.cfi_def_cfa_offset 24
	.cfi_offset 14, -24
	pushq	%r13
	.cfi_def_cfa_offset 32
	.cfi_offset 13, -32
	pushq	%r12
	.cfi_def_cfa_offset 40
	.cfi_offset 12, -40
	pushq	%rbp
	.cfi_def_cfa_offset 48
	.cfi_offset 6, -48
	pushq	%rbx
	.cfi_def_cfa_offset 56
	.cfi_offset 3, -56
	subq	$120, %rsp
	.cfi_def_cfa_offset 176
	movdqu	8(%rdi), %xmm1
	movq	%fs:40, %rax
	movq	%rax, 104(%rsp)
	xorl	%eax, %eax
	cmpq	$0, 24(%rdi)
	movaps	%xmm1, 16(%rsp)
	je	.L291
	leaq	64(%rsp), %rax
	movq	%rdi, %rbp
	movq	%rsi, %r12
	xorl	%ebx, %ebx
	movq	%rax, 8(%rsp)
	leaq	32(%rsp), %r13
	leaq	16(%rsp), %r15
	.p2align 4,,10
	.p2align 3
.L293:
	movq	(%r12), %rax
	movq	%r13, %rdi
	movq	(%rax), %r14
	call	_ZN8opendnp36AnalogC1Ev@PLT
	movq	%r13, %rsi
	movq	%r15, %rdi
	call	_ZN8opendnp311Group30Var210ReadTargetERN7openpal6RSliceERNS_6AnalogE@PLT
	movzwl	32(%rbp), %eax
	movdqa	32(%rsp), %xmm0
	movq	%r12, %rdi
	movq	48(%rsp), %rcx
	movq	8(%rsp), %rsi
	addl	%ebx, %eax
	movaps	%xmm0, 64(%rsp)
	movw	%ax, 88(%rsp)
	movq	%rcx, 80(%rsp)
	call	*%r14
	leal	1(%rbx), %eax
	movq	%rax, %rbx
	cmpq	24(%rbp), %rax
	jb	.L293
.L291:
	movq	104(%rsp), %rax
	subq	%fs:40, %rax
	jne	.L297
	addq	$120, %rsp
	.cfi_remember_state
	.cfi_def_cfa_offset 56
	popq	%rbx
	.cfi_def_cfa_offset 48
	popq	%rbp
	.cfi_def_cfa_offset 40
	popq	%r12
	.cfi_def_cfa_offset 32
	popq	%r13
	.cfi_def_cfa_offset 24
	popq	%r14
	.cfi_def_cfa_offset 16
	popq	%r15
	.cfi_def_cfa_offset 8
	ret
.L297:
	.cfi_restore_state
	call	__stack_chk_fail@PLT
	.cfi_endproc
.LFE3633:
	.size	_ZNK8opendnp318BufferedCollectionINS_7IndexedINS_6AnalogEEEZNS_11RangeParser13InvokeRangeOfINS_11Group30Var2EEEvRKNS_12HeaderRecordERKNS_5RangeERKN7openpal6RSliceERNS_12IAPDUHandlerEEUlRSE_jE_E7ForeachERNS_8IVisitorIS3_EE, .-_ZNK8opendnp318BufferedCollectionINS_7IndexedINS_6AnalogEEEZNS_11RangeParser13InvokeRangeOfINS_11Group30Var2EEEvRKNS_12HeaderRecordERKNS_5RangeERKN7openpal6RSliceERNS_12IAPDUHandlerEEUlRSE_jE_E7ForeachERNS_8IVisitorIS3_EE
	.section	.text._ZNK8opendnp318BufferedCollectionINS_7IndexedINS_6AnalogEEEZNS_11RangeParser13InvokeRangeOfINS_11Group30Var3EEEvRKNS_12HeaderRecordERKNS_5RangeERKN7openpal6RSliceERNS_12IAPDUHandlerEEUlRSE_jE_E7ForeachERNS_8IVisitorIS3_EE,"axG",@progbits,_ZNK8opendnp318BufferedCollectionINS_7IndexedINS_6AnalogEEEZNS_11RangeParser13InvokeRangeOfINS_11Group30Var3EEEvRKNS_12HeaderRecordERKNS_5RangeERKN7openpal6RSliceERNS_12IAPDUHandlerEEUlRSE_jE_E7ForeachERNS_8IVisitorIS3_EE,comdat
	.align 2
	.p2align 4
	.weak	_ZNK8opendnp318BufferedCollectionINS_7IndexedINS_6AnalogEEEZNS_11RangeParser13InvokeRangeOfINS_11Group30Var3EEEvRKNS_12HeaderRecordERKNS_5RangeERKN7openpal6RSliceERNS_12IAPDUHandlerEEUlRSE_jE_E7ForeachERNS_8IVisitorIS3_EE
	.type	_ZNK8opendnp318BufferedCollectionINS_7IndexedINS_6AnalogEEEZNS_11RangeParser13InvokeRangeOfINS_11Group30Var3EEEvRKNS_12HeaderRecordERKNS_5RangeERKN7openpal6RSliceERNS_12IAPDUHandlerEEUlRSE_jE_E7ForeachERNS_8IVisitorIS3_EE, @function
_ZNK8opendnp318BufferedCollectionINS_7IndexedINS_6AnalogEEEZNS_11RangeParser13InvokeRangeOfINS_11Group30Var3EEEvRKNS_12HeaderRecordERKNS_5RangeERKN7openpal6RSliceERNS_12IAPDUHandlerEEUlRSE_jE_E7ForeachERNS_8IVisitorIS3_EE:
.LFB3631:
	.cfi_startproc
	endbr64
	pushq	%r15
	.cfi_def_cfa_offset 16
	.cfi_offset 15, -16
	pushq	%r14
	.cfi_def_cfa_offset 24
	.cfi_offset 14, -24
	pushq	%r13
	.cfi_def_cfa_offset 32
	.cfi_offset 13, -32
	pushq	%r12
	.cfi_def_cfa_offset 40
	.cfi_offset 12, -40
	pushq	%rbp
	.cfi_def_cfa_offset 48
	.cfi_offset 6, -48
	pushq	%rbx
	.cfi_def_cfa_offset 56
	.cfi_offset 3, -56
	subq	$120, %rsp
	.cfi_def_cfa_offset 176
	movdqu	8(%rdi), %xmm1
	movq	%fs:40, %rax
	movq	%rax, 104(%rsp)
	xorl	%eax, %eax
	cmpq	$0, 24(%rdi)
	movaps	%xmm1, 16(%rsp)
	je	.L298
	leaq	64(%rsp), %rax
	movq	%rdi, %rbp
	movq	%rsi, %r12
	xorl	%ebx, %ebx
	movq	%rax, 8(%rsp)
	leaq	32(%rsp), %r13
	leaq	16(%rsp), %r15
	.p2align 4,,10
	.p2align 3
.L300:
	movq	(%r12), %rax
	movq	%r13, %rdi
	movq	(%rax), %r14
	call	_ZN8opendnp36AnalogC1Ev@PLT
	movq	%r13, %rsi
	movq	%r15, %rdi
	call	_ZN8opendnp311Group30Var310ReadTargetERN7openpal6RSliceERNS_6AnalogE@PLT
	movzwl	32(%rbp), %eax
	movdqa	32(%rsp), %xmm0
	movq	%r12, %rdi
	movq	48(%rsp), %rcx
	movq	8(%rsp), %rsi
	addl	%ebx, %eax
	movaps	%xmm0, 64(%rsp)
	movw	%ax, 88(%rsp)
	movq	%rcx, 80(%rsp)
	call	*%r14
	leal	1(%rbx), %eax
	movq	%rax, %rbx
	cmpq	24(%rbp), %rax
	jb	.L300
.L298:
	movq	104(%rsp), %rax
	subq	%fs:40, %rax
	jne	.L304
	addq	$120, %rsp
	.cfi_remember_state
	.cfi_def_cfa_offset 56
	popq	%rbx
	.cfi_def_cfa_offset 48
	popq	%rbp
	.cfi_def_cfa_offset 40
	popq	%r12
	.cfi_def_cfa_offset 32
	popq	%r13
	.cfi_def_cfa_offset 24
	popq	%r14
	.cfi_def_cfa_offset 16
	popq	%r15
	.cfi_def_cfa_offset 8
	ret
.L304:
	.cfi_restore_state
	call	__stack_chk_fail@PLT
	.cfi_endproc
.LFE3631:
	.size	_ZNK8opendnp318BufferedCollectionINS_7IndexedINS_6AnalogEEEZNS_11RangeParser13InvokeRangeOfINS_11Group30Var3EEEvRKNS_12HeaderRecordERKNS_5RangeERKN7openpal6RSliceERNS_12IAPDUHandlerEEUlRSE_jE_E7ForeachERNS_8IVisitorIS3_EE, .-_ZNK8opendnp318BufferedCollectionINS_7IndexedINS_6AnalogEEEZNS_11RangeParser13InvokeRangeOfINS_11Group30Var3EEEvRKNS_12HeaderRecordERKNS_5RangeERKN7openpal6RSliceERNS_12IAPDUHandlerEEUlRSE_jE_E7ForeachERNS_8IVisitorIS3_EE
	.section	.text._ZNK8opendnp318BufferedCollectionINS_7IndexedINS_6AnalogEEEZNS_11RangeParser13InvokeRangeOfINS_11Group30Var4EEEvRKNS_12HeaderRecordERKNS_5RangeERKN7openpal6RSliceERNS_12IAPDUHandlerEEUlRSE_jE_E7ForeachERNS_8IVisitorIS3_EE,"axG",@progbits,_ZNK8opendnp318BufferedCollectionINS_7IndexedINS_6AnalogEEEZNS_11RangeParser13InvokeRangeOfINS_11Group30Var4EEEvRKNS_12HeaderRecordERKNS_5RangeERKN7openpal6RSliceERNS_12IAPDUHandlerEEUlRSE_jE_E7ForeachERNS_8IVisitorIS3_EE,comdat
	.align 2
	.p2align 4
	.weak	_ZNK8opendnp318BufferedCollectionINS_7IndexedINS_6AnalogEEEZNS_11RangeParser13InvokeRangeOfINS_11Group30Var4EEEvRKNS_12HeaderRecordERKNS_5RangeERKN7openpal6RSliceERNS_12IAPDUHandlerEEUlRSE_jE_E7ForeachERNS_8IVisitorIS3_EE
	.type	_ZNK8opendnp318BufferedCollectionINS_7IndexedINS_6AnalogEEEZNS_11RangeParser13InvokeRangeOfINS_11Group30Var4EEEvRKNS_12HeaderRecordERKNS_5RangeERKN7openpal6RSliceERNS_12IAPDUHandlerEEUlRSE_jE_E7ForeachERNS_8IVisitorIS3_EE, @function
_ZNK8opendnp318BufferedCollectionINS_7IndexedINS_6AnalogEEEZNS_11RangeParser13InvokeRangeOfINS_11Group30Var4EEEvRKNS_12HeaderRecordERKNS_5RangeERKN7openpal6RSliceERNS_12IAPDUHandlerEEUlRSE_jE_E7ForeachERNS_8IVisitorIS3_EE:
.LFB3629:
	.cfi_startproc
	endbr64
	pushq	%r15
	.cfi_def_cfa_offset 16
	.cfi_offset 15, -16
	pushq	%r14
	.cfi_def_cfa_offset 24
	.cfi_offset 14, -24
	pushq	%r13
	.cfi_def_cfa_offset 32
	.cfi_offset 13, -32
	pushq	%r12
	.cfi_def_cfa_offset 40
	.cfi_offset 12, -40
	pushq	%rbp
	.cfi_def_cfa_offset 48
	.cfi_offset 6, -48
	pushq	%rbx
	.cfi_def_cfa_offset 56
	.cfi_offset 3, -56
	subq	$120, %rsp
	.cfi_def_cfa_offset 176
	movdqu	8(%rdi), %xmm1
	movq	%fs:40, %rax
	movq	%rax, 104(%rsp)
	xorl	%eax, %eax
	cmpq	$0, 24(%rdi)
	movaps	%xmm1, 16(%rsp)
	je	.L305
	leaq	64(%rsp), %rax
	movq	%rdi, %rbp
	movq	%rsi, %r12
	xorl	%ebx, %ebx
	movq	%rax, 8(%rsp)
	leaq	32(%rsp), %r13
	leaq	16(%rsp), %r15
	.p2align 4,,10
	.p2align 3
.L307:
	movq	(%r12), %rax
	movq	%r13, %rdi
	movq	(%rax), %r14
	call	_ZN8opendnp36AnalogC1Ev@PLT
	movq	%r13, %rsi
	movq	%r15, %rdi
	call	_ZN8opendnp311Group30Var410ReadTargetERN7openpal6RSliceERNS_6AnalogE@PLT
	movzwl	32(%rbp), %eax
	movdqa	32(%rsp), %xmm0
	movq	%r12, %rdi
	movq	48(%rsp), %rcx
	movq	8(%rsp), %rsi
	addl	%ebx, %eax
	movaps	%xmm0, 64(%rsp)
	movw	%ax, 88(%rsp)
	movq	%rcx, 80(%rsp)
	call	*%r14
	leal	1(%rbx), %eax
	movq	%rax, %rbx
	cmpq	24(%rbp), %rax
	jb	.L307
.L305:
	movq	104(%rsp), %rax
	subq	%fs:40, %rax
	jne	.L311
	addq	$120, %rsp
	.cfi_remember_state
	.cfi_def_cfa_offset 56
	popq	%rbx
	.cfi_def_cfa_offset 48
	popq	%rbp
	.cfi_def_cfa_offset 40
	popq	%r12
	.cfi_def_cfa_offset 32
	popq	%r13
	.cfi_def_cfa_offset 24
	popq	%r14
	.cfi_def_cfa_offset 16
	popq	%r15
	.cfi_def_cfa_offset 8
	ret
.L311:
	.cfi_restore_state
	call	__stack_chk_fail@PLT
	.cfi_endproc
.LFE3629:
	.size	_ZNK8opendnp318BufferedCollectionINS_7IndexedINS_6AnalogEEEZNS_11RangeParser13InvokeRangeOfINS_11Group30Var4EEEvRKNS_12HeaderRecordERKNS_5RangeERKN7openpal6RSliceERNS_12IAPDUHandlerEEUlRSE_jE_E7ForeachERNS_8IVisitorIS3_EE, .-_ZNK8opendnp318BufferedCollectionINS_7IndexedINS_6AnalogEEEZNS_11RangeParser13InvokeRangeOfINS_11Group30Var4EEEvRKNS_12HeaderRecordERKNS_5RangeERKN7openpal6RSliceERNS_12IAPDUHandlerEEUlRSE_jE_E7ForeachERNS_8IVisitorIS3_EE
	.section	.text._ZNK8opendnp318BufferedCollectionINS_7IndexedINS_6AnalogEEEZNS_11RangeParser13InvokeRangeOfINS_11Group30Var5EEEvRKNS_12HeaderRecordERKNS_5RangeERKN7openpal6RSliceERNS_12IAPDUHandlerEEUlRSE_jE_E7ForeachERNS_8IVisitorIS3_EE,"axG",@progbits,_ZNK8opendnp318BufferedCollectionINS_7IndexedINS_6AnalogEEEZNS_11RangeParser13InvokeRangeOfINS_11Group30Var5EEEvRKNS_12HeaderRecordERKNS_5RangeERKN7openpal6RSliceERNS_12IAPDUHandlerEEUlRSE_jE_E7ForeachERNS_8IVisitorIS3_EE,comdat
	.align 2
	.p2align 4
	.weak	_ZNK8opendnp318BufferedCollectionINS_7IndexedINS_6AnalogEEEZNS_11RangeParser13InvokeRangeOfINS_11Group30Var5EEEvRKNS_12HeaderRecordERKNS_5RangeERKN7openpal6RSliceERNS_12IAPDUHandlerEEUlRSE_jE_E7ForeachERNS_8IVisitorIS3_EE
	.type	_ZNK8opendnp318BufferedCollectionINS_7IndexedINS_6AnalogEEEZNS_11RangeParser13InvokeRangeOfINS_11Group30Var5EEEvRKNS_12HeaderRecordERKNS_5RangeERKN7openpal6RSliceERNS_12IAPDUHandlerEEUlRSE_jE_E7ForeachERNS_8IVisitorIS3_EE, @function
_ZNK8opendnp318BufferedCollectionINS_7IndexedINS_6AnalogEEEZNS_11RangeParser13InvokeRangeOfINS_11Group30Var5EEEvRKNS_12HeaderRecordERKNS_5RangeERKN7openpal6RSliceERNS_12IAPDUHandlerEEUlRSE_jE_E7ForeachERNS_8IVisitorIS3_EE:
.LFB3627:
	.cfi_startproc
	endbr64
	pushq	%r15
	.cfi_def_cfa_offset 16
	.cfi_offset 15, -16
	pushq	%r14
	.cfi_def_cfa_offset 24
	.cfi_offset 14, -24
	pushq	%r13
	.cfi_def_cfa_offset 32
	.cfi_offset 13, -32
	pushq	%r12
	.cfi_def_cfa_offset 40
	.cfi_offset 12, -40
	pushq	%rbp
	.cfi_def_cfa_offset 48
	.cfi_offset 6, -48
	pushq	%rbx
	.cfi_def_cfa_offset 56
	.cfi_offset 3, -56
	subq	$120, %rsp
	.cfi_def_cfa_offset 176
	movdqu	8(%rdi), %xmm1
	movq	%fs:40, %rax
	movq	%rax, 104(%rsp)
	xorl	%eax, %eax
	cmpq	$0, 24(%rdi)
	movaps	%xmm1, 16(%rsp)
	je	.L312
	leaq	64(%rsp), %rax
	movq	%rdi, %rbp
	movq	%rsi, %r12
	xorl	%ebx, %ebx
	movq	%rax, 8(%rsp)
	leaq	32(%rsp), %r13
	leaq	16(%rsp), %r15
	.p2align 4,,10
	.p2align 3
.L314:
	movq	(%r12), %rax
	movq	%r13, %rdi
	movq	(%rax), %r14
	call	_ZN8opendnp36AnalogC1Ev@PLT
	movq	%r13, %rsi
	movq	%r15, %rdi
	call	_ZN8opendnp311Group30Var510ReadTargetERN7openpal6RSliceERNS_6AnalogE@PLT
	movzwl	32(%rbp), %eax
	movdqa	32(%rsp), %xmm0
	movq	%r12, %rdi
	movq	48(%rsp), %rcx
	movq	8(%rsp), %rsi
	addl	%ebx, %eax
	movaps	%xmm0, 64(%rsp)
	movw	%ax, 88(%rsp)
	movq	%rcx, 80(%rsp)
	call	*%r14
	leal	1(%rbx), %eax
	movq	%rax, %rbx
	cmpq	24(%rbp), %rax
	jb	.L314
.L312:
	movq	104(%rsp), %rax
	subq	%fs:40, %rax
	jne	.L318
	addq	$120, %rsp
	.cfi_remember_state
	.cfi_def_cfa_offset 56
	popq	%rbx
	.cfi_def_cfa_offset 48
	popq	%rbp
	.cfi_def_cfa_offset 40
	popq	%r12
	.cfi_def_cfa_offset 32
	popq	%r13
	.cfi_def_cfa_offset 24
	popq	%r14
	.cfi_def_cfa_offset 16
	popq	%r15
	.cfi_def_cfa_offset 8
	ret
.L318:
	.cfi_restore_state
	call	__stack_chk_fail@PLT
	.cfi_endproc
.LFE3627:
	.size	_ZNK8opendnp318BufferedCollectionINS_7IndexedINS_6AnalogEEEZNS_11RangeParser13InvokeRangeOfINS_11Group30Var5EEEvRKNS_12HeaderRecordERKNS_5RangeERKN7openpal6RSliceERNS_12IAPDUHandlerEEUlRSE_jE_E7ForeachERNS_8IVisitorIS3_EE, .-_ZNK8opendnp318BufferedCollectionINS_7IndexedINS_6AnalogEEEZNS_11RangeParser13InvokeRangeOfINS_11Group30Var5EEEvRKNS_12HeaderRecordERKNS_5RangeERKN7openpal6RSliceERNS_12IAPDUHandlerEEUlRSE_jE_E7ForeachERNS_8IVisitorIS3_EE
	.section	.text._ZNK8opendnp318BufferedCollectionINS_7IndexedINS_6AnalogEEEZNS_11RangeParser13InvokeRangeOfINS_11Group30Var6EEEvRKNS_12HeaderRecordERKNS_5RangeERKN7openpal6RSliceERNS_12IAPDUHandlerEEUlRSE_jE_E7ForeachERNS_8IVisitorIS3_EE,"axG",@progbits,_ZNK8opendnp318BufferedCollectionINS_7IndexedINS_6AnalogEEEZNS_11RangeParser13InvokeRangeOfINS_11Group30Var6EEEvRKNS_12HeaderRecordERKNS_5RangeERKN7openpal6RSliceERNS_12IAPDUHandlerEEUlRSE_jE_E7ForeachERNS_8IVisitorIS3_EE,comdat
	.align 2
	.p2align 4
	.weak	_ZNK8opendnp318BufferedCollectionINS_7IndexedINS_6AnalogEEEZNS_11RangeParser13InvokeRangeOfINS_11Group30Var6EEEvRKNS_12HeaderRecordERKNS_5RangeERKN7openpal6RSliceERNS_12IAPDUHandlerEEUlRSE_jE_E7ForeachERNS_8IVisitorIS3_EE
	.type	_ZNK8opendnp318BufferedCollectionINS_7IndexedINS_6AnalogEEEZNS_11RangeParser13InvokeRangeOfINS_11Group30Var6EEEvRKNS_12HeaderRecordERKNS_5RangeERKN7openpal6RSliceERNS_12IAPDUHandlerEEUlRSE_jE_E7ForeachERNS_8IVisitorIS3_EE, @function
_ZNK8opendnp318BufferedCollectionINS_7IndexedINS_6AnalogEEEZNS_11RangeParser13InvokeRangeOfINS_11Group30Var6EEEvRKNS_12HeaderRecordERKNS_5RangeERKN7openpal6RSliceERNS_12IAPDUHandlerEEUlRSE_jE_E7ForeachERNS_8IVisitorIS3_EE:
.LFB3625:
	.cfi_startproc
	endbr64
	pushq	%r15
	.cfi_def_cfa_offset 16
	.cfi_offset 15, -16
	pushq	%r14
	.cfi_def_cfa_offset 24
	.cfi_offset 14, -24
	pushq	%r13
	.cfi_def_cfa_offset 32
	.cfi_offset 13, -32
	pushq	%r12
	.cfi_def_cfa_offset 40
	.cfi_offset 12, -40
	pushq	%rbp
	.cfi_def_cfa_offset 48
	.cfi_offset 6, -48
	pushq	%rbx
	.cfi_def_cfa_offset 56
	.cfi_offset 3, -56
	subq	$120, %rsp
	.cfi_def_cfa_offset 176
	movdqu	8(%rdi), %xmm1
	movq	%fs:40, %rax
	movq	%rax, 104(%rsp)
	xorl	%eax, %eax
	cmpq	$0, 24(%rdi)
	movaps	%xmm1, 16(%rsp)
	je	.L319
	leaq	64(%rsp), %rax
	movq	%rdi, %rbp
	movq	%rsi, %r12
	xorl	%ebx, %ebx
	movq	%rax, 8(%rsp)
	leaq	32(%rsp), %r13
	leaq	16(%rsp), %r15
	.p2align 4,,10
	.p2align 3
.L321:
	movq	(%r12), %rax
	movq	%r13, %rdi
	movq	(%rax), %r14
	call	_ZN8opendnp36AnalogC1Ev@PLT
	movq	%r13, %rsi
	movq	%r15, %rdi
	call	_ZN8opendnp311Group30Var610ReadTargetERN7openpal6RSliceERNS_6AnalogE@PLT
	movzwl	32(%rbp), %eax
	movdqa	32(%rsp), %xmm0
	movq	%r12, %rdi
	movq	48(%rsp), %rcx
	movq	8(%rsp), %rsi
	addl	%ebx, %eax
	movaps	%xmm0, 64(%rsp)
	movw	%ax, 88(%rsp)
	movq	%rcx, 80(%rsp)
	call	*%r14
	leal	1(%rbx), %eax
	movq	%rax, %rbx
	cmpq	24(%rbp), %rax
	jb	.L321
.L319:
	movq	104(%rsp), %rax
	subq	%fs:40, %rax
	jne	.L325
	addq	$120, %rsp
	.cfi_remember_state
	.cfi_def_cfa_offset 56
	popq	%rbx
	.cfi_def_cfa_offset 48
	popq	%rbp
	.cfi_def_cfa_offset 40
	popq	%r12
	.cfi_def_cfa_offset 32
	popq	%r13
	.cfi_def_cfa_offset 24
	popq	%r14
	.cfi_def_cfa_offset 16
	popq	%r15
	.cfi_def_cfa_offset 8
	ret
.L325:
	.cfi_restore_state
	call	__stack_chk_fail@PLT
	.cfi_endproc
.LFE3625:
	.size	_ZNK8opendnp318BufferedCollectionINS_7IndexedINS_6AnalogEEEZNS_11RangeParser13InvokeRangeOfINS_11Group30Var6EEEvRKNS_12HeaderRecordERKNS_5RangeERKN7openpal6RSliceERNS_12IAPDUHandlerEEUlRSE_jE_E7ForeachERNS_8IVisitorIS3_EE, .-_ZNK8opendnp318BufferedCollectionINS_7IndexedINS_6AnalogEEEZNS_11RangeParser13InvokeRangeOfINS_11Group30Var6EEEvRKNS_12HeaderRecordERKNS_5RangeERKN7openpal6RSliceERNS_12IAPDUHandlerEEUlRSE_jE_E7ForeachERNS_8IVisitorIS3_EE
	.section	.text._ZN8opendnp311RangeParser13InvokeRangeOfINS_11Group40Var1EEEvRKNS_12HeaderRecordERKNS_5RangeERKN7openpal6RSliceERNS_12IAPDUHandlerE,"axG",@progbits,_ZN8opendnp311RangeParser13InvokeRangeOfINS_11Group40Var1EEEvRKNS_12HeaderRecordERKNS_5RangeERKN7openpal6RSliceERNS_12IAPDUHandlerE,comdat
	.align 2
	.p2align 4
	.weak	_ZN8opendnp311RangeParser13InvokeRangeOfINS_11Group40Var1EEEvRKNS_12HeaderRecordERKNS_5RangeERKN7openpal6RSliceERNS_12IAPDUHandlerE
	.type	_ZN8opendnp311RangeParser13InvokeRangeOfINS_11Group40Var1EEEvRKNS_12HeaderRecordERKNS_5RangeERKN7openpal6RSliceERNS_12IAPDUHandlerE, @function
_ZN8opendnp311RangeParser13InvokeRangeOfINS_11Group40Var1EEEvRKNS_12HeaderRecordERKNS_5RangeERKN7openpal6RSliceERNS_12IAPDUHandlerE:
.LFB3110:
	.cfi_startproc
	endbr64
	movq	%rsi, %rax
	subq	$88, %rsp
	.cfi_def_cfa_offset 96
	movl	(%rsi), %r10d
	movzwl	(%rsi), %esi
	movzwl	2(%rax), %r9d
	movq	%rdi, %r8
	movq	%rcx, %rdi
	movq	%fs:40, %rcx
	movq	%rcx, 72(%rsp)
	xorl	%ecx, %ecx
	cmpw	%r9w, %si
	ja	.L327
	leal	1(%r9), %ecx
	subl	%esi, %ecx
.L327:
	movq	_ZTVN8opendnp318BufferedCollectionINS_7IndexedINS_18AnalogOutputStatusEEEZNS_11RangeParser13InvokeRangeOfINS_11Group40Var1EEEvRKNS_12HeaderRecordERKNS_5RangeERKN7openpal6RSliceERNS_12IAPDUHandlerEEUlRSE_jE_EE@GOTPCREL(%rip), %rsi
	movdqu	(%rdx), %xmm0
	leaq	32(%rsp), %rdx
	movq	%rcx, 56(%rsp)
	movl	(%rax), %eax
	movdqu	(%r8), %xmm1
	movl	%r10d, 64(%rsp)
	addq	$16, %rsi
	movups	%xmm0, 40(%rsp)
	movq	%rsi, 32(%rsp)
	movq	%rsp, %rsi
	movl	%eax, 16(%rsp)
	movaps	%xmm1, (%rsp)
	call	_ZN8opendnp312IAPDUHandler8OnHeaderERKNS_11RangeHeaderERKNS_11ICollectionINS_7IndexedINS_18AnalogOutputStatusEEEEE@PLT
	movq	72(%rsp), %rax
	subq	%fs:40, %rax
	jne	.L331
	addq	$88, %rsp
	.cfi_remember_state
	.cfi_def_cfa_offset 8
	ret
.L331:
	.cfi_restore_state
	call	__stack_chk_fail@PLT
	.cfi_endproc
.LFE3110:
	.size	_ZN8opendnp311RangeParser13InvokeRangeOfINS_11Group40Var1EEEvRKNS_12HeaderRecordERKNS_5RangeERKN7openpal6RSliceERNS_12IAPDUHandlerE, .-_ZN8opendnp311RangeParser13InvokeRangeOfINS_11Group40Var1EEEvRKNS_12HeaderRecordERKNS_5RangeERKN7openpal6RSliceERNS_12IAPDUHandlerE
	.section	.text._ZN8opendnp311RangeParser13InvokeRangeOfINS_11Group40Var2EEEvRKNS_12HeaderRecordERKNS_5RangeERKN7openpal6RSliceERNS_12IAPDUHandlerE,"axG",@progbits,_ZN8opendnp311RangeParser13InvokeRangeOfINS_11Group40Var2EEEvRKNS_12HeaderRecordERKNS_5RangeERKN7openpal6RSliceERNS_12IAPDUHandlerE,comdat
	.align 2
	.p2align 4
	.weak	_ZN8opendnp311RangeParser13InvokeRangeOfINS_11Group40Var2EEEvRKNS_12HeaderRecordERKNS_5RangeERKN7openpal6RSliceERNS_12IAPDUHandlerE
	.type	_ZN8opendnp311RangeParser13InvokeRangeOfINS_11Group40Var2EEEvRKNS_12HeaderRecordERKNS_5RangeERKN7openpal6RSliceERNS_12IAPDUHandlerE, @function
_ZN8opendnp311RangeParser13InvokeRangeOfINS_11Group40Var2EEEvRKNS_12HeaderRecordERKNS_5RangeERKN7openpal6RSliceERNS_12IAPDUHandlerE:
.LFB3118:
	.cfi_startproc
	endbr64
	movq	%rsi, %rax
	subq	$88, %rsp
	.cfi_def_cfa_offset 96
	movl	(%rsi), %r10d
	movzwl	(%rsi), %esi
	movzwl	2(%rax), %r9d
	movq	%rdi, %r8
	movq	%rcx, %rdi
	movq	%fs:40, %rcx
	movq	%rcx, 72(%rsp)
	xorl	%ecx, %ecx
	cmpw	%r9w, %si
	ja	.L333
	leal	1(%r9), %ecx
	subl	%esi, %ecx
.L333:
	movq	_ZTVN8opendnp318BufferedCollectionINS_7IndexedINS_18AnalogOutputStatusEEEZNS_11RangeParser13InvokeRangeOfINS_11Group40Var2EEEvRKNS_12HeaderRecordERKNS_5RangeERKN7openpal6RSliceERNS_12IAPDUHandlerEEUlRSE_jE_EE@GOTPCREL(%rip), %rsi
	movdqu	(%rdx), %xmm0
	leaq	32(%rsp), %rdx
	movq	%rcx, 56(%rsp)
	movl	(%rax), %eax
	movdqu	(%r8), %xmm1
	movl	%r10d, 64(%rsp)
	addq	$16, %rsi
	movups	%xmm0, 40(%rsp)
	movq	%rsi, 32(%rsp)
	movq	%rsp, %rsi
	movl	%eax, 16(%rsp)
	movaps	%xmm1, (%rsp)
	call	_ZN8opendnp312IAPDUHandler8OnHeaderERKNS_11RangeHeaderERKNS_11ICollectionINS_7IndexedINS_18AnalogOutputStatusEEEEE@PLT
	movq	72(%rsp), %rax
	subq	%fs:40, %rax
	jne	.L337
	addq	$88, %rsp
	.cfi_remember_state
	.cfi_def_cfa_offset 8
	ret
.L337:
	.cfi_restore_state
	call	__stack_chk_fail@PLT
	.cfi_endproc
.LFE3118:
	.size	_ZN8opendnp311RangeParser13InvokeRangeOfINS_11Group40Var2EEEvRKNS_12HeaderRecordERKNS_5RangeERKN7openpal6RSliceERNS_12IAPDUHandlerE, .-_ZN8opendnp311RangeParser13InvokeRangeOfINS_11Group40Var2EEEvRKNS_12HeaderRecordERKNS_5RangeERKN7openpal6RSliceERNS_12IAPDUHandlerE
	.section	.text._ZN8opendnp311RangeParser13InvokeRangeOfINS_11Group40Var3EEEvRKNS_12HeaderRecordERKNS_5RangeERKN7openpal6RSliceERNS_12IAPDUHandlerE,"axG",@progbits,_ZN8opendnp311RangeParser13InvokeRangeOfINS_11Group40Var3EEEvRKNS_12HeaderRecordERKNS_5RangeERKN7openpal6RSliceERNS_12IAPDUHandlerE,comdat
	.align 2
	.p2align 4
	.weak	_ZN8opendnp311RangeParser13InvokeRangeOfINS_11Group40Var3EEEvRKNS_12HeaderRecordERKNS_5RangeERKN7openpal6RSliceERNS_12IAPDUHandlerE
	.type	_ZN8opendnp311RangeParser13InvokeRangeOfINS_11Group40Var3EEEvRKNS_12HeaderRecordERKNS_5RangeERKN7openpal6RSliceERNS_12IAPDUHandlerE, @function
_ZN8opendnp311RangeParser13InvokeRangeOfINS_11Group40Var3EEEvRKNS_12HeaderRecordERKNS_5RangeERKN7openpal6RSliceERNS_12IAPDUHandlerE:
.LFB3123:
	.cfi_startproc
	endbr64
	movq	%rsi, %rax
	subq	$88, %rsp
	.cfi_def_cfa_offset 96
	movl	(%rsi), %r10d
	movzwl	(%rsi), %esi
	movzwl	2(%rax), %r9d
	movq	%rdi, %r8
	movq	%rcx, %rdi
	movq	%fs:40, %rcx
	movq	%rcx, 72(%rsp)
	xorl	%ecx, %ecx
	cmpw	%r9w, %si
	ja	.L339
	leal	1(%r9), %ecx
	subl	%esi, %ecx
.L339:
	movq	_ZTVN8opendnp318BufferedCollectionINS_7IndexedINS_18AnalogOutputStatusEEEZNS_11RangeParser13InvokeRangeOfINS_11Group40Var3EEEvRKNS_12HeaderRecordERKNS_5RangeERKN7openpal6RSliceERNS_12IAPDUHandlerEEUlRSE_jE_EE@GOTPCREL(%rip), %rsi
	movdqu	(%rdx), %xmm0
	leaq	32(%rsp), %rdx
	movq	%rcx, 56(%rsp)
	movl	(%rax), %eax
	movdqu	(%r8), %xmm1
	movl	%r10d, 64(%rsp)
	addq	$16, %rsi
	movups	%xmm0, 40(%rsp)
	movq	%rsi, 32(%rsp)
	movq	%rsp, %rsi
	movl	%eax, 16(%rsp)
	movaps	%xmm1, (%rsp)
	call	_ZN8opendnp312IAPDUHandler8OnHeaderERKNS_11RangeHeaderERKNS_11ICollectionINS_7IndexedINS_18AnalogOutputStatusEEEEE@PLT
	movq	72(%rsp), %rax
	subq	%fs:40, %rax
	jne	.L343
	addq	$88, %rsp
	.cfi_remember_state
	.cfi_def_cfa_offset 8
	ret
.L343:
	.cfi_restore_state
	call	__stack_chk_fail@PLT
	.cfi_endproc
.LFE3123:
	.size	_ZN8opendnp311RangeParser13InvokeRangeOfINS_11Group40Var3EEEvRKNS_12HeaderRecordERKNS_5RangeERKN7openpal6RSliceERNS_12IAPDUHandlerE, .-_ZN8opendnp311RangeParser13InvokeRangeOfINS_11Group40Var3EEEvRKNS_12HeaderRecordERKNS_5RangeERKN7openpal6RSliceERNS_12IAPDUHandlerE
	.section	.text._ZN8opendnp311RangeParser13InvokeRangeOfINS_11Group40Var4EEEvRKNS_12HeaderRecordERKNS_5RangeERKN7openpal6RSliceERNS_12IAPDUHandlerE,"axG",@progbits,_ZN8opendnp311RangeParser13InvokeRangeOfINS_11Group40Var4EEEvRKNS_12HeaderRecordERKNS_5RangeERKN7openpal6RSliceERNS_12IAPDUHandlerE,comdat
	.align 2
	.p2align 4
	.weak	_ZN8opendnp311RangeParser13InvokeRangeOfINS_11Group40Var4EEEvRKNS_12HeaderRecordERKNS_5RangeERKN7openpal6RSliceERNS_12IAPDUHandlerE
	.type	_ZN8opendnp311RangeParser13InvokeRangeOfINS_11Group40Var4EEEvRKNS_12HeaderRecordERKNS_5RangeERKN7openpal6RSliceERNS_12IAPDUHandlerE, @function
_ZN8opendnp311RangeParser13InvokeRangeOfINS_11Group40Var4EEEvRKNS_12HeaderRecordERKNS_5RangeERKN7openpal6RSliceERNS_12IAPDUHandlerE:
.LFB3128:
	.cfi_startproc
	endbr64
	movq	%rsi, %rax
	subq	$88, %rsp
	.cfi_def_cfa_offset 96
	movl	(%rsi), %r10d
	movzwl	(%rsi), %esi
	movzwl	2(%rax), %r9d
	movq	%rdi, %r8
	movq	%rcx, %rdi
	movq	%fs:40, %rcx
	movq	%rcx, 72(%rsp)
	xorl	%ecx, %ecx
	cmpw	%r9w, %si
	ja	.L345
	leal	1(%r9), %ecx
	subl	%esi, %ecx
.L345:
	movq	_ZTVN8opendnp318BufferedCollectionINS_7IndexedINS_18AnalogOutputStatusEEEZNS_11RangeParser13InvokeRangeOfINS_11Group40Var4EEEvRKNS_12HeaderRecordERKNS_5RangeERKN7openpal6RSliceERNS_12IAPDUHandlerEEUlRSE_jE_EE@GOTPCREL(%rip), %rsi
	movdqu	(%rdx), %xmm0
	leaq	32(%rsp), %rdx
	movq	%rcx, 56(%rsp)
	movl	(%rax), %eax
	movdqu	(%r8), %xmm1
	movl	%r10d, 64(%rsp)
	addq	$16, %rsi
	movups	%xmm0, 40(%rsp)
	movq	%rsi, 32(%rsp)
	movq	%rsp, %rsi
	movl	%eax, 16(%rsp)
	movaps	%xmm1, (%rsp)
	call	_ZN8opendnp312IAPDUHandler8OnHeaderERKNS_11RangeHeaderERKNS_11ICollectionINS_7IndexedINS_18AnalogOutputStatusEEEEE@PLT
	movq	72(%rsp), %rax
	subq	%fs:40, %rax
	jne	.L349
	addq	$88, %rsp
	.cfi_remember_state
	.cfi_def_cfa_offset 8
	ret
.L349:
	.cfi_restore_state
	call	__stack_chk_fail@PLT
	.cfi_endproc
.LFE3128:
	.size	_ZN8opendnp311RangeParser13InvokeRangeOfINS_11Group40Var4EEEvRKNS_12HeaderRecordERKNS_5RangeERKN7openpal6RSliceERNS_12IAPDUHandlerE, .-_ZN8opendnp311RangeParser13InvokeRangeOfINS_11Group40Var4EEEvRKNS_12HeaderRecordERKNS_5RangeERKN7openpal6RSliceERNS_12IAPDUHandlerE
	.section	.text._ZNK8opendnp318BufferedCollectionINS_7IndexedINS_18AnalogOutputStatusEEEZNS_11RangeParser13InvokeRangeOfINS_11Group40Var1EEEvRKNS_12HeaderRecordERKNS_5RangeERKN7openpal6RSliceERNS_12IAPDUHandlerEEUlRSE_jE_E7ForeachERNS_8IVisitorIS3_EE,"axG",@progbits,_ZNK8opendnp318BufferedCollectionINS_7IndexedINS_18AnalogOutputStatusEEEZNS_11RangeParser13InvokeRangeOfINS_11Group40Var1EEEvRKNS_12HeaderRecordERKNS_5RangeERKN7openpal6RSliceERNS_12IAPDUHandlerEEUlRSE_jE_E7ForeachERNS_8IVisitorIS3_EE,comdat
	.align 2
	.p2align 4
	.weak	_ZNK8opendnp318BufferedCollectionINS_7IndexedINS_18AnalogOutputStatusEEEZNS_11RangeParser13InvokeRangeOfINS_11Group40Var1EEEvRKNS_12HeaderRecordERKNS_5RangeERKN7openpal6RSliceERNS_12IAPDUHandlerEEUlRSE_jE_E7ForeachERNS_8IVisitorIS3_EE
	.type	_ZNK8opendnp318BufferedCollectionINS_7IndexedINS_18AnalogOutputStatusEEEZNS_11RangeParser13InvokeRangeOfINS_11Group40Var1EEEvRKNS_12HeaderRecordERKNS_5RangeERKN7openpal6RSliceERNS_12IAPDUHandlerEEUlRSE_jE_E7ForeachERNS_8IVisitorIS3_EE, @function
_ZNK8opendnp318BufferedCollectionINS_7IndexedINS_18AnalogOutputStatusEEEZNS_11RangeParser13InvokeRangeOfINS_11Group40Var1EEEvRKNS_12HeaderRecordERKNS_5RangeERKN7openpal6RSliceERNS_12IAPDUHandlerEEUlRSE_jE_E7ForeachERNS_8IVisitorIS3_EE:
.LFB3623:
	.cfi_startproc
	endbr64
	pushq	%r15
	.cfi_def_cfa_offset 16
	.cfi_offset 15, -16
	pushq	%r14
	.cfi_def_cfa_offset 24
	.cfi_offset 14, -24
	pushq	%r13
	.cfi_def_cfa_offset 32
	.cfi_offset 13, -32
	pushq	%r12
	.cfi_def_cfa_offset 40
	.cfi_offset 12, -40
	pushq	%rbp
	.cfi_def_cfa_offset 48
	.cfi_offset 6, -48
	pushq	%rbx
	.cfi_def_cfa_offset 56
	.cfi_offset 3, -56
	subq	$120, %rsp
	.cfi_def_cfa_offset 176
	movdqu	8(%rdi), %xmm1
	movq	%fs:40, %rax
	movq	%rax, 104(%rsp)
	xorl	%eax, %eax
	cmpq	$0, 24(%rdi)
	movaps	%xmm1, 16(%rsp)
	je	.L350
	leaq	64(%rsp), %rax
	movq	%rdi, %rbp
	movq	%rsi, %r12
	xorl	%ebx, %ebx
	movq	%rax, 8(%rsp)
	leaq	32(%rsp), %r13
	leaq	16(%rsp), %r15
	.p2align 4,,10
	.p2align 3
.L352:
	movq	(%r12), %rax
	movq	%r13, %rdi
	movq	(%rax), %r14
	call	_ZN8opendnp318AnalogOutputStatusC1Ev@PLT
	movq	%r13, %rsi
	movq	%r15, %rdi
	call	_ZN8opendnp311Group40Var110ReadTargetERN7openpal6RSliceERNS_18AnalogOutputStatusE@PLT
	movzwl	32(%rbp), %eax
	movdqa	32(%rsp), %xmm0
	movq	%r12, %rdi
	movq	48(%rsp), %rcx
	movq	8(%rsp), %rsi
	addl	%ebx, %eax
	movaps	%xmm0, 64(%rsp)
	movw	%ax, 88(%rsp)
	movq	%rcx, 80(%rsp)
	call	*%r14
	leal	1(%rbx), %eax
	movq	%rax, %rbx
	cmpq	24(%rbp), %rax
	jb	.L352
.L350:
	movq	104(%rsp), %rax
	subq	%fs:40, %rax
	jne	.L356
	addq	$120, %rsp
	.cfi_remember_state
	.cfi_def_cfa_offset 56
	popq	%rbx
	.cfi_def_cfa_offset 48
	popq	%rbp
	.cfi_def_cfa_offset 40
	popq	%r12
	.cfi_def_cfa_offset 32
	popq	%r13
	.cfi_def_cfa_offset 24
	popq	%r14
	.cfi_def_cfa_offset 16
	popq	%r15
	.cfi_def_cfa_offset 8
	ret
.L356:
	.cfi_restore_state
	call	__stack_chk_fail@PLT
	.cfi_endproc
.LFE3623:
	.size	_ZNK8opendnp318BufferedCollectionINS_7IndexedINS_18AnalogOutputStatusEEEZNS_11RangeParser13InvokeRangeOfINS_11Group40Var1EEEvRKNS_12HeaderRecordERKNS_5RangeERKN7openpal6RSliceERNS_12IAPDUHandlerEEUlRSE_jE_E7ForeachERNS_8IVisitorIS3_EE, .-_ZNK8opendnp318BufferedCollectionINS_7IndexedINS_18AnalogOutputStatusEEEZNS_11RangeParser13InvokeRangeOfINS_11Group40Var1EEEvRKNS_12HeaderRecordERKNS_5RangeERKN7openpal6RSliceERNS_12IAPDUHandlerEEUlRSE_jE_E7ForeachERNS_8IVisitorIS3_EE
	.section	.text._ZNK8opendnp318BufferedCollectionINS_7IndexedINS_18AnalogOutputStatusEEEZNS_11RangeParser13InvokeRangeOfINS_11Group40Var2EEEvRKNS_12HeaderRecordERKNS_5RangeERKN7openpal6RSliceERNS_12IAPDUHandlerEEUlRSE_jE_E7ForeachERNS_8IVisitorIS3_EE,"axG",@progbits,_ZNK8opendnp318BufferedCollectionINS_7IndexedINS_18AnalogOutputStatusEEEZNS_11RangeParser13InvokeRangeOfINS_11Group40Var2EEEvRKNS_12HeaderRecordERKNS_5RangeERKN7openpal6RSliceERNS_12IAPDUHandlerEEUlRSE_jE_E7ForeachERNS_8IVisitorIS3_EE,comdat
	.align 2
	.p2align 4
	.weak	_ZNK8opendnp318BufferedCollectionINS_7IndexedINS_18AnalogOutputStatusEEEZNS_11RangeParser13InvokeRangeOfINS_11Group40Var2EEEvRKNS_12HeaderRecordERKNS_5RangeERKN7openpal6RSliceERNS_12IAPDUHandlerEEUlRSE_jE_E7ForeachERNS_8IVisitorIS3_EE
	.type	_ZNK8opendnp318BufferedCollectionINS_7IndexedINS_18AnalogOutputStatusEEEZNS_11RangeParser13InvokeRangeOfINS_11Group40Var2EEEvRKNS_12HeaderRecordERKNS_5RangeERKN7openpal6RSliceERNS_12IAPDUHandlerEEUlRSE_jE_E7ForeachERNS_8IVisitorIS3_EE, @function
_ZNK8opendnp318BufferedCollectionINS_7IndexedINS_18AnalogOutputStatusEEEZNS_11RangeParser13InvokeRangeOfINS_11Group40Var2EEEvRKNS_12HeaderRecordERKNS_5RangeERKN7openpal6RSliceERNS_12IAPDUHandlerEEUlRSE_jE_E7ForeachERNS_8IVisitorIS3_EE:
.LFB3621:
	.cfi_startproc
	endbr64
	pushq	%r15
	.cfi_def_cfa_offset 16
	.cfi_offset 15, -16
	pushq	%r14
	.cfi_def_cfa_offset 24
	.cfi_offset 14, -24
	pushq	%r13
	.cfi_def_cfa_offset 32
	.cfi_offset 13, -32
	pushq	%r12
	.cfi_def_cfa_offset 40
	.cfi_offset 12, -40
	pushq	%rbp
	.cfi_def_cfa_offset 48
	.cfi_offset 6, -48
	pushq	%rbx
	.cfi_def_cfa_offset 56
	.cfi_offset 3, -56
	subq	$120, %rsp
	.cfi_def_cfa_offset 176
	movdqu	8(%rdi), %xmm1
	movq	%fs:40, %rax
	movq	%rax, 104(%rsp)
	xorl	%eax, %eax
	cmpq	$0, 24(%rdi)
	movaps	%xmm1, 16(%rsp)
	je	.L357
	leaq	64(%rsp), %rax
	movq	%rdi, %rbp
	movq	%rsi, %r12
	xorl	%ebx, %ebx
	movq	%rax, 8(%rsp)
	leaq	32(%rsp), %r13
	leaq	16(%rsp), %r15
	.p2align 4,,10
	.p2align 3
.L359:
	movq	(%r12), %rax
	movq	%r13, %rdi
	movq	(%rax), %r14
	call	_ZN8opendnp318AnalogOutputStatusC1Ev@PLT
	movq	%r13, %rsi
	movq	%r15, %rdi
	call	_ZN8opendnp311Group40Var210ReadTargetERN7openpal6RSliceERNS_18AnalogOutputStatusE@PLT
	movzwl	32(%rbp), %eax
	movdqa	32(%rsp), %xmm0
	movq	%r12, %rdi
	movq	48(%rsp), %rcx
	movq	8(%rsp), %rsi
	addl	%ebx, %eax
	movaps	%xmm0, 64(%rsp)
	movw	%ax, 88(%rsp)
	movq	%rcx, 80(%rsp)
	call	*%r14
	leal	1(%rbx), %eax
	movq	%rax, %rbx
	cmpq	24(%rbp), %rax
	jb	.L359
.L357:
	movq	104(%rsp), %rax
	subq	%fs:40, %rax
	jne	.L363
	addq	$120, %rsp
	.cfi_remember_state
	.cfi_def_cfa_offset 56
	popq	%rbx
	.cfi_def_cfa_offset 48
	popq	%rbp
	.cfi_def_cfa_offset 40
	popq	%r12
	.cfi_def_cfa_offset 32
	popq	%r13
	.cfi_def_cfa_offset 24
	popq	%r14
	.cfi_def_cfa_offset 16
	popq	%r15
	.cfi_def_cfa_offset 8
	ret
.L363:
	.cfi_restore_state
	call	__stack_chk_fail@PLT
	.cfi_endproc
.LFE3621:
	.size	_ZNK8opendnp318BufferedCollectionINS_7IndexedINS_18AnalogOutputStatusEEEZNS_11RangeParser13InvokeRangeOfINS_11Group40Var2EEEvRKNS_12HeaderRecordERKNS_5RangeERKN7openpal6RSliceERNS_12IAPDUHandlerEEUlRSE_jE_E7ForeachERNS_8IVisitorIS3_EE, .-_ZNK8opendnp318BufferedCollectionINS_7IndexedINS_18AnalogOutputStatusEEEZNS_11RangeParser13InvokeRangeOfINS_11Group40Var2EEEvRKNS_12HeaderRecordERKNS_5RangeERKN7openpal6RSliceERNS_12IAPDUHandlerEEUlRSE_jE_E7ForeachERNS_8IVisitorIS3_EE
	.section	.text._ZNK8opendnp318BufferedCollectionINS_7IndexedINS_18AnalogOutputStatusEEEZNS_11RangeParser13InvokeRangeOfINS_11Group40Var3EEEvRKNS_12HeaderRecordERKNS_5RangeERKN7openpal6RSliceERNS_12IAPDUHandlerEEUlRSE_jE_E7ForeachERNS_8IVisitorIS3_EE,"axG",@progbits,_ZNK8opendnp318BufferedCollectionINS_7IndexedINS_18AnalogOutputStatusEEEZNS_11RangeParser13InvokeRangeOfINS_11Group40Var3EEEvRKNS_12HeaderRecordERKNS_5RangeERKN7openpal6RSliceERNS_12IAPDUHandlerEEUlRSE_jE_E7ForeachERNS_8IVisitorIS3_EE,comdat
	.align 2
	.p2align 4
	.weak	_ZNK8opendnp318BufferedCollectionINS_7IndexedINS_18AnalogOutputStatusEEEZNS_11RangeParser13InvokeRangeOfINS_11Group40Var3EEEvRKNS_12HeaderRecordERKNS_5RangeERKN7openpal6RSliceERNS_12IAPDUHandlerEEUlRSE_jE_E7ForeachERNS_8IVisitorIS3_EE
	.type	_ZNK8opendnp318BufferedCollectionINS_7IndexedINS_18AnalogOutputStatusEEEZNS_11RangeParser13InvokeRangeOfINS_11Group40Var3EEEvRKNS_12HeaderRecordERKNS_5RangeERKN7openpal6RSliceERNS_12IAPDUHandlerEEUlRSE_jE_E7ForeachERNS_8IVisitorIS3_EE, @function
_ZNK8opendnp318BufferedCollectionINS_7IndexedINS_18AnalogOutputStatusEEEZNS_11RangeParser13InvokeRangeOfINS_11Group40Var3EEEvRKNS_12HeaderRecordERKNS_5RangeERKN7openpal6RSliceERNS_12IAPDUHandlerEEUlRSE_jE_E7ForeachERNS_8IVisitorIS3_EE:
.LFB3619:
	.cfi_startproc
	endbr64
	pushq	%r15
	.cfi_def_cfa_offset 16
	.cfi_offset 15, -16
	pushq	%r14
	.cfi_def_cfa_offset 24
	.cfi_offset 14, -24
	pushq	%r13
	.cfi_def_cfa_offset 32
	.cfi_offset 13, -32
	pushq	%r12
	.cfi_def_cfa_offset 40
	.cfi_offset 12, -40
	pushq	%rbp
	.cfi_def_cfa_offset 48
	.cfi_offset 6, -48
	pushq	%rbx
	.cfi_def_cfa_offset 56
	.cfi_offset 3, -56
	subq	$120, %rsp
	.cfi_def_cfa_offset 176
	movdqu	8(%rdi), %xmm1
	movq	%fs:40, %rax
	movq	%rax, 104(%rsp)
	xorl	%eax, %eax
	cmpq	$0, 24(%rdi)
	movaps	%xmm1, 16(%rsp)
	je	.L364
	leaq	64(%rsp), %rax
	movq	%rdi, %rbp
	movq	%rsi, %r12
	xorl	%ebx, %ebx
	movq	%rax, 8(%rsp)
	leaq	32(%rsp), %r13
	leaq	16(%rsp), %r15
	.p2align 4,,10
	.p2align 3
.L366:
	movq	(%r12), %rax
	movq	%r13, %rdi
	movq	(%rax), %r14
	call	_ZN8opendnp318AnalogOutputStatusC1Ev@PLT
	movq	%r13, %rsi
	movq	%r15, %rdi
	call	_ZN8opendnp311Group40Var310ReadTargetERN7openpal6RSliceERNS_18AnalogOutputStatusE@PLT
	movzwl	32(%rbp), %eax
	movdqa	32(%rsp), %xmm0
	movq	%r12, %rdi
	movq	48(%rsp), %rcx
	movq	8(%rsp), %rsi
	addl	%ebx, %eax
	movaps	%xmm0, 64(%rsp)
	movw	%ax, 88(%rsp)
	movq	%rcx, 80(%rsp)
	call	*%r14
	leal	1(%rbx), %eax
	movq	%rax, %rbx
	cmpq	24(%rbp), %rax
	jb	.L366
.L364:
	movq	104(%rsp), %rax
	subq	%fs:40, %rax
	jne	.L370
	addq	$120, %rsp
	.cfi_remember_state
	.cfi_def_cfa_offset 56
	popq	%rbx
	.cfi_def_cfa_offset 48
	popq	%rbp
	.cfi_def_cfa_offset 40
	popq	%r12
	.cfi_def_cfa_offset 32
	popq	%r13
	.cfi_def_cfa_offset 24
	popq	%r14
	.cfi_def_cfa_offset 16
	popq	%r15
	.cfi_def_cfa_offset 8
	ret
.L370:
	.cfi_restore_state
	call	__stack_chk_fail@PLT
	.cfi_endproc
.LFE3619:
	.size	_ZNK8opendnp318BufferedCollectionINS_7IndexedINS_18AnalogOutputStatusEEEZNS_11RangeParser13InvokeRangeOfINS_11Group40Var3EEEvRKNS_12HeaderRecordERKNS_5RangeERKN7openpal6RSliceERNS_12IAPDUHandlerEEUlRSE_jE_E7ForeachERNS_8IVisitorIS3_EE, .-_ZNK8opendnp318BufferedCollectionINS_7IndexedINS_18AnalogOutputStatusEEEZNS_11RangeParser13InvokeRangeOfINS_11Group40Var3EEEvRKNS_12HeaderRecordERKNS_5RangeERKN7openpal6RSliceERNS_12IAPDUHandlerEEUlRSE_jE_E7ForeachERNS_8IVisitorIS3_EE
	.section	.text._ZNK8opendnp318BufferedCollectionINS_7IndexedINS_18AnalogOutputStatusEEEZNS_11RangeParser13InvokeRangeOfINS_11Group40Var4EEEvRKNS_12HeaderRecordERKNS_5RangeERKN7openpal6RSliceERNS_12IAPDUHandlerEEUlRSE_jE_E7ForeachERNS_8IVisitorIS3_EE,"axG",@progbits,_ZNK8opendnp318BufferedCollectionINS_7IndexedINS_18AnalogOutputStatusEEEZNS_11RangeParser13InvokeRangeOfINS_11Group40Var4EEEvRKNS_12HeaderRecordERKNS_5RangeERKN7openpal6RSliceERNS_12IAPDUHandlerEEUlRSE_jE_E7ForeachERNS_8IVisitorIS3_EE,comdat
	.align 2
	.p2align 4
	.weak	_ZNK8opendnp318BufferedCollectionINS_7IndexedINS_18AnalogOutputStatusEEEZNS_11RangeParser13InvokeRangeOfINS_11Group40Var4EEEvRKNS_12HeaderRecordERKNS_5RangeERKN7openpal6RSliceERNS_12IAPDUHandlerEEUlRSE_jE_E7ForeachERNS_8IVisitorIS3_EE
	.type	_ZNK8opendnp318BufferedCollectionINS_7IndexedINS_18AnalogOutputStatusEEEZNS_11RangeParser13InvokeRangeOfINS_11Group40Var4EEEvRKNS_12HeaderRecordERKNS_5RangeERKN7openpal6RSliceERNS_12IAPDUHandlerEEUlRSE_jE_E7ForeachERNS_8IVisitorIS3_EE, @function
_ZNK8opendnp318BufferedCollectionINS_7IndexedINS_18AnalogOutputStatusEEEZNS_11RangeParser13InvokeRangeOfINS_11Group40Var4EEEvRKNS_12HeaderRecordERKNS_5RangeERKN7openpal6RSliceERNS_12IAPDUHandlerEEUlRSE_jE_E7ForeachERNS_8IVisitorIS3_EE:
.LFB3617:
	.cfi_startproc
	endbr64
	pushq	%r15
	.cfi_def_cfa_offset 16
	.cfi_offset 15, -16
	pushq	%r14
	.cfi_def_cfa_offset 24
	.cfi_offset 14, -24
	pushq	%r13
	.cfi_def_cfa_offset 32
	.cfi_offset 13, -32
	pushq	%r12
	.cfi_def_cfa_offset 40
	.cfi_offset 12, -40
	pushq	%rbp
	.cfi_def_cfa_offset 48
	.cfi_offset 6, -48
	pushq	%rbx
	.cfi_def_cfa_offset 56
	.cfi_offset 3, -56
	subq	$120, %rsp
	.cfi_def_cfa_offset 176
	movdqu	8(%rdi), %xmm1
	movq	%fs:40, %rax
	movq	%rax, 104(%rsp)
	xorl	%eax, %eax
	cmpq	$0, 24(%rdi)
	movaps	%xmm1, 16(%rsp)
	je	.L371
	leaq	64(%rsp), %rax
	movq	%rdi, %rbp
	movq	%rsi, %r12
	xorl	%ebx, %ebx
	movq	%rax, 8(%rsp)
	leaq	32(%rsp), %r13
	leaq	16(%rsp), %r15
	.p2align 4,,10
	.p2align 3
.L373:
	movq	(%r12), %rax
	movq	%r13, %rdi
	movq	(%rax), %r14
	call	_ZN8opendnp318AnalogOutputStatusC1Ev@PLT
	movq	%r13, %rsi
	movq	%r15, %rdi
	call	_ZN8opendnp311Group40Var410ReadTargetERN7openpal6RSliceERNS_18AnalogOutputStatusE@PLT
	movzwl	32(%rbp), %eax
	movdqa	32(%rsp), %xmm0
	movq	%r12, %rdi
	movq	48(%rsp), %rcx
	movq	8(%rsp), %rsi
	addl	%ebx, %eax
	movaps	%xmm0, 64(%rsp)
	movw	%ax, 88(%rsp)
	movq	%rcx, 80(%rsp)
	call	*%r14
	leal	1(%rbx), %eax
	movq	%rax, %rbx
	cmpq	24(%rbp), %rax
	jb	.L373
.L371:
	movq	104(%rsp), %rax
	subq	%fs:40, %rax
	jne	.L377
	addq	$120, %rsp
	.cfi_remember_state
	.cfi_def_cfa_offset 56
	popq	%rbx
	.cfi_def_cfa_offset 48
	popq	%rbp
	.cfi_def_cfa_offset 40
	popq	%r12
	.cfi_def_cfa_offset 32
	popq	%r13
	.cfi_def_cfa_offset 24
	popq	%r14
	.cfi_def_cfa_offset 16
	popq	%r15
	.cfi_def_cfa_offset 8
	ret
.L377:
	.cfi_restore_state
	call	__stack_chk_fail@PLT
	.cfi_endproc
.LFE3617:
	.size	_ZNK8opendnp318BufferedCollectionINS_7IndexedINS_18AnalogOutputStatusEEEZNS_11RangeParser13InvokeRangeOfINS_11Group40Var4EEEvRKNS_12HeaderRecordERKNS_5RangeERKN7openpal6RSliceERNS_12IAPDUHandlerEEUlRSE_jE_E7ForeachERNS_8IVisitorIS3_EE, .-_ZNK8opendnp318BufferedCollectionINS_7IndexedINS_18AnalogOutputStatusEEEZNS_11RangeParser13InvokeRangeOfINS_11Group40Var4EEEvRKNS_12HeaderRecordERKNS_5RangeERKN7openpal6RSliceERNS_12IAPDUHandlerEEUlRSE_jE_E7ForeachERNS_8IVisitorIS3_EE
	.section	.text._ZN8opendnp311RangeParser13InvokeRangeOfINS_11Group50Var4EEEvRKNS_12HeaderRecordERKNS_5RangeERKN7openpal6RSliceERNS_12IAPDUHandlerE,"axG",@progbits,_ZN8opendnp311RangeParser13InvokeRangeOfINS_11Group50Var4EEEvRKNS_12HeaderRecordERKNS_5RangeERKN7openpal6RSliceERNS_12IAPDUHandlerE,comdat
	.align 2
	.p2align 4
	.weak	_ZN8opendnp311RangeParser13InvokeRangeOfINS_11Group50Var4EEEvRKNS_12HeaderRecordERKNS_5RangeERKN7openpal6RSliceERNS_12IAPDUHandlerE
	.type	_ZN8opendnp311RangeParser13InvokeRangeOfINS_11Group50Var4EEEvRKNS_12HeaderRecordERKNS_5RangeERKN7openpal6RSliceERNS_12IAPDUHandlerE, @function
_ZN8opendnp311RangeParser13InvokeRangeOfINS_11Group50Var4EEEvRKNS_12HeaderRecordERKNS_5RangeERKN7openpal6RSliceERNS_12IAPDUHandlerE:
.LFB3133:
	.cfi_startproc
	endbr64
	movq	%rsi, %rax
	subq	$88, %rsp
	.cfi_def_cfa_offset 96
	movl	(%rsi), %r10d
	movzwl	(%rsi), %esi
	movzwl	2(%rax), %r9d
	movq	%rdi, %r8
	movq	%rcx, %rdi
	movq	%fs:40, %rcx
	movq	%rcx, 72(%rsp)
	xorl	%ecx, %ecx
	cmpw	%r9w, %si
	ja	.L379
	leal	1(%r9), %ecx
	subl	%esi, %ecx
.L379:
	movq	_ZTVN8opendnp318BufferedCollectionINS_7IndexedINS_15TimeAndIntervalEEEZNS_11RangeParser13InvokeRangeOfINS_11Group50Var4EEEvRKNS_12HeaderRecordERKNS_5RangeERKN7openpal6RSliceERNS_12IAPDUHandlerEEUlRSE_jE_EE@GOTPCREL(%rip), %rsi
	movdqu	(%rdx), %xmm0
	leaq	32(%rsp), %rdx
	movq	%rcx, 56(%rsp)
	movl	(%rax), %eax
	movdqu	(%r8), %xmm1
	movl	%r10d, 64(%rsp)
	addq	$16, %rsi
	movups	%xmm0, 40(%rsp)
	movq	%rsi, 32(%rsp)
	movq	%rsp, %rsi
	movl	%eax, 16(%rsp)
	movaps	%xmm1, (%rsp)
	call	_ZN8opendnp312IAPDUHandler8OnHeaderERKNS_11RangeHeaderERKNS_11ICollectionINS_7IndexedINS_15TimeAndIntervalEEEEE@PLT
	movq	72(%rsp), %rax
	subq	%fs:40, %rax
	jne	.L383
	addq	$88, %rsp
	.cfi_remember_state
	.cfi_def_cfa_offset 8
	ret
.L383:
	.cfi_restore_state
	call	__stack_chk_fail@PLT
	.cfi_endproc
.LFE3133:
	.size	_ZN8opendnp311RangeParser13InvokeRangeOfINS_11Group50Var4EEEvRKNS_12HeaderRecordERKNS_5RangeERKN7openpal6RSliceERNS_12IAPDUHandlerE, .-_ZN8opendnp311RangeParser13InvokeRangeOfINS_11Group50Var4EEEvRKNS_12HeaderRecordERKNS_5RangeERKN7openpal6RSliceERNS_12IAPDUHandlerE
	.section	.text._ZNK8opendnp318BufferedCollectionINS_7IndexedINS_15TimeAndIntervalEEEZNS_11RangeParser13InvokeRangeOfINS_11Group50Var4EEEvRKNS_12HeaderRecordERKNS_5RangeERKN7openpal6RSliceERNS_12IAPDUHandlerEEUlRSE_jE_E7ForeachERNS_8IVisitorIS3_EE,"axG",@progbits,_ZNK8opendnp318BufferedCollectionINS_7IndexedINS_15TimeAndIntervalEEEZNS_11RangeParser13InvokeRangeOfINS_11Group50Var4EEEvRKNS_12HeaderRecordERKNS_5RangeERKN7openpal6RSliceERNS_12IAPDUHandlerEEUlRSE_jE_E7ForeachERNS_8IVisitorIS3_EE,comdat
	.align 2
	.p2align 4
	.weak	_ZNK8opendnp318BufferedCollectionINS_7IndexedINS_15TimeAndIntervalEEEZNS_11RangeParser13InvokeRangeOfINS_11Group50Var4EEEvRKNS_12HeaderRecordERKNS_5RangeERKN7openpal6RSliceERNS_12IAPDUHandlerEEUlRSE_jE_E7ForeachERNS_8IVisitorIS3_EE
	.type	_ZNK8opendnp318BufferedCollectionINS_7IndexedINS_15TimeAndIntervalEEEZNS_11RangeParser13InvokeRangeOfINS_11Group50Var4EEEvRKNS_12HeaderRecordERKNS_5RangeERKN7openpal6RSliceERNS_12IAPDUHandlerEEUlRSE_jE_E7ForeachERNS_8IVisitorIS3_EE, @function
_ZNK8opendnp318BufferedCollectionINS_7IndexedINS_15TimeAndIntervalEEEZNS_11RangeParser13InvokeRangeOfINS_11Group50Var4EEEvRKNS_12HeaderRecordERKNS_5RangeERKN7openpal6RSliceERNS_12IAPDUHandlerEEUlRSE_jE_E7ForeachERNS_8IVisitorIS3_EE:
.LFB3615:
	.cfi_startproc
	endbr64
	pushq	%r15
	.cfi_def_cfa_offset 16
	.cfi_offset 15, -16
	pushq	%r14
	.cfi_def_cfa_offset 24
	.cfi_offset 14, -24
	pushq	%r13
	.cfi_def_cfa_offset 32
	.cfi_offset 13, -32
	pushq	%r12
	.cfi_def_cfa_offset 40
	.cfi_offset 12, -40
	pushq	%rbp
	.cfi_def_cfa_offset 48
	.cfi_offset 6, -48
	pushq	%rbx
	.cfi_def_cfa_offset 56
	.cfi_offset 3, -56
	subq	$88, %rsp
	.cfi_def_cfa_offset 144
	movdqu	8(%rdi), %xmm1
	movq	%fs:40, %rax
	movq	%rax, 72(%rsp)
	xorl	%eax, %eax
	cmpq	$0, 24(%rdi)
	movaps	%xmm1, 16(%rsp)
	je	.L384
	leaq	48(%rsp), %rax
	movq	%rdi, %rbp
	movq	%rsi, %r12
	xorl	%ebx, %ebx
	movq	%rax, 8(%rsp)
	leaq	32(%rsp), %r13
	leaq	16(%rsp), %r15
	.p2align 4,,10
	.p2align 3
.L386:
	movq	(%r12), %rax
	movq	%r13, %rdi
	movq	(%rax), %r14
	call	_ZN8opendnp315TimeAndIntervalC1Ev@PLT
	movq	%r13, %rsi
	movq	%r15, %rdi
	call	_ZN8opendnp311Group50Var410ReadTargetERN7openpal6RSliceERNS_15TimeAndIntervalE@PLT
	movzwl	32(%rbp), %eax
	movq	8(%rsp), %rsi
	movq	%r12, %rdi
	movdqa	32(%rsp), %xmm0
	addl	%ebx, %eax
	movw	%ax, 64(%rsp)
	movaps	%xmm0, 48(%rsp)
	call	*%r14
	leal	1(%rbx), %eax
	movq	%rax, %rbx
	cmpq	24(%rbp), %rax
	jb	.L386
.L384:
	movq	72(%rsp), %rax
	subq	%fs:40, %rax
	jne	.L390
	addq	$88, %rsp
	.cfi_remember_state
	.cfi_def_cfa_offset 56
	popq	%rbx
	.cfi_def_cfa_offset 48
	popq	%rbp
	.cfi_def_cfa_offset 40
	popq	%r12
	.cfi_def_cfa_offset 32
	popq	%r13
	.cfi_def_cfa_offset 24
	popq	%r14
	.cfi_def_cfa_offset 16
	popq	%r15
	.cfi_def_cfa_offset 8
	ret
.L390:
	.cfi_restore_state
	call	__stack_chk_fail@PLT
	.cfi_endproc
.LFE3615:
	.size	_ZNK8opendnp318BufferedCollectionINS_7IndexedINS_15TimeAndIntervalEEEZNS_11RangeParser13InvokeRangeOfINS_11Group50Var4EEEvRKNS_12HeaderRecordERKNS_5RangeERKN7openpal6RSliceERNS_12IAPDUHandlerEEUlRSE_jE_E7ForeachERNS_8IVisitorIS3_EE, .-_ZNK8opendnp318BufferedCollectionINS_7IndexedINS_15TimeAndIntervalEEEZNS_11RangeParser13InvokeRangeOfINS_11Group50Var4EEEvRKNS_12HeaderRecordERKNS_5RangeERKN7openpal6RSliceERNS_12IAPDUHandlerEEUlRSE_jE_E7ForeachERNS_8IVisitorIS3_EE
	.section	.text._ZN8opendnp311RangeParser23InvokeRangeBitfieldTypeINS_8IINValueEEEvRKNS_12HeaderRecordERKNS_5RangeERKN7openpal6RSliceERNS_12IAPDUHandlerE,"axG",@progbits,_ZN8opendnp311RangeParser23InvokeRangeBitfieldTypeINS_8IINValueEEEvRKNS_12HeaderRecordERKNS_5RangeERKN7openpal6RSliceERNS_12IAPDUHandlerE,comdat
	.align 2
	.p2align 4
	.weak	_ZN8opendnp311RangeParser23InvokeRangeBitfieldTypeINS_8IINValueEEEvRKNS_12HeaderRecordERKNS_5RangeERKN7openpal6RSliceERNS_12IAPDUHandlerE
	.type	_ZN8opendnp311RangeParser23InvokeRangeBitfieldTypeINS_8IINValueEEEvRKNS_12HeaderRecordERKNS_5RangeERKN7openpal6RSliceERNS_12IAPDUHandlerE, @function
_ZN8opendnp311RangeParser23InvokeRangeBitfieldTypeINS_8IINValueEEEvRKNS_12HeaderRecordERKNS_5RangeERKN7openpal6RSliceERNS_12IAPDUHandlerE:
.LFB3141:
	.cfi_startproc
	endbr64
	movq	%rsi, %rax
	subq	$88, %rsp
	.cfi_def_cfa_offset 96
	movl	(%rsi), %r10d
	movzwl	(%rsi), %esi
	movzwl	2(%rax), %r9d
	movq	%rdi, %r8
	movq	%rcx, %rdi
	movq	%fs:40, %rcx
	movq	%rcx, 72(%rsp)
	xorl	%ecx, %ecx
	cmpw	%r9w, %si
	ja	.L392
	leal	1(%r9), %ecx
	subl	%esi, %ecx
.L392:
	movq	_ZTVN8opendnp318BufferedCollectionINS_7IndexedINS_8IINValueEEEZNS_11RangeParser23InvokeRangeBitfieldTypeIS2_EEvRKNS_12HeaderRecordERKNS_5RangeERKN7openpal6RSliceERNS_12IAPDUHandlerEEUlRSD_jE_EE@GOTPCREL(%rip), %rsi
	movdqu	(%rdx), %xmm0
	leaq	32(%rsp), %rdx
	movq	%rcx, 56(%rsp)
	movl	(%rax), %eax
	movdqu	(%r8), %xmm1
	movl	%r10d, 64(%rsp)
	addq	$16, %rsi
	movups	%xmm0, 40(%rsp)
	movq	%rsi, 32(%rsp)
	movq	%rsp, %rsi
	movl	%eax, 16(%rsp)
	movaps	%xmm1, (%rsp)
	call	_ZN8opendnp312IAPDUHandler8OnHeaderERKNS_11RangeHeaderERKNS_11ICollectionINS_7IndexedINS_8IINValueEEEEE@PLT
	movq	72(%rsp), %rax
	subq	%fs:40, %rax
	jne	.L396
	addq	$88, %rsp
	.cfi_remember_state
	.cfi_def_cfa_offset 8
	ret
.L396:
	.cfi_restore_state
	call	__stack_chk_fail@PLT
	.cfi_endproc
.LFE3141:
	.size	_ZN8opendnp311RangeParser23InvokeRangeBitfieldTypeINS_8IINValueEEEvRKNS_12HeaderRecordERKNS_5RangeERKN7openpal6RSliceERNS_12IAPDUHandlerE, .-_ZN8opendnp311RangeParser23InvokeRangeBitfieldTypeINS_8IINValueEEEvRKNS_12HeaderRecordERKNS_5RangeERKN7openpal6RSliceERNS_12IAPDUHandlerE
	.section	.text._ZN8opendnp311RangeParser17InvokeRangeOfTypeINS_12Group121Var1EEEvRKNS_12HeaderRecordERKNS_5RangeERKN7openpal6RSliceERNS_12IAPDUHandlerE,"axG",@progbits,_ZN8opendnp311RangeParser17InvokeRangeOfTypeINS_12Group121Var1EEEvRKNS_12HeaderRecordERKNS_5RangeERKN7openpal6RSliceERNS_12IAPDUHandlerE,comdat
	.align 2
	.p2align 4
	.weak	_ZN8opendnp311RangeParser17InvokeRangeOfTypeINS_12Group121Var1EEEvRKNS_12HeaderRecordERKNS_5RangeERKN7openpal6RSliceERNS_12IAPDUHandlerE
	.type	_ZN8opendnp311RangeParser17InvokeRangeOfTypeINS_12Group121Var1EEEvRKNS_12HeaderRecordERKNS_5RangeERKN7openpal6RSliceERNS_12IAPDUHandlerE, @function
_ZN8opendnp311RangeParser17InvokeRangeOfTypeINS_12Group121Var1EEEvRKNS_12HeaderRecordERKNS_5RangeERKN7openpal6RSliceERNS_12IAPDUHandlerE:
.LFB3149:
	.cfi_startproc
	endbr64
	movq	%rsi, %rax
	subq	$88, %rsp
	.cfi_def_cfa_offset 96
	movl	(%rsi), %r10d
	movzwl	(%rsi), %esi
	movzwl	2(%rax), %r9d
	movq	%rdi, %r8
	movq	%rcx, %rdi
	movq	%fs:40, %rcx
	movq	%rcx, 72(%rsp)
	xorl	%ecx, %ecx
	cmpw	%r9w, %si
	ja	.L398
	leal	1(%r9), %ecx
	subl	%esi, %ecx
.L398:
	movq	_ZTVN8opendnp318BufferedCollectionINS_7IndexedINS_12Group121Var1EEEZNS_11RangeParser17InvokeRangeOfTypeIS2_EEvRKNS_12HeaderRecordERKNS_5RangeERKN7openpal6RSliceERNS_12IAPDUHandlerEEUlRSD_jE_EE@GOTPCREL(%rip), %rsi
	movdqu	(%rdx), %xmm0
	leaq	32(%rsp), %rdx
	movq	%rcx, 56(%rsp)
	movl	(%rax), %eax
	movdqu	(%r8), %xmm1
	movl	%r10d, 64(%rsp)
	addq	$16, %rsi
	movups	%xmm0, 40(%rsp)
	movq	%rsi, 32(%rsp)
	movq	%rsp, %rsi
	movl	%eax, 16(%rsp)
	movaps	%xmm1, (%rsp)
	call	_ZN8opendnp312IAPDUHandler8OnHeaderERKNS_11RangeHeaderERKNS_11ICollectionINS_7IndexedINS_12Group121Var1EEEEE@PLT
	movq	72(%rsp), %rax
	subq	%fs:40, %rax
	jne	.L402
	addq	$88, %rsp
	.cfi_remember_state
	.cfi_def_cfa_offset 8
	ret
.L402:
	.cfi_restore_state
	call	__stack_chk_fail@PLT
	.cfi_endproc
.LFE3149:
	.size	_ZN8opendnp311RangeParser17InvokeRangeOfTypeINS_12Group121Var1EEEvRKNS_12HeaderRecordERKNS_5RangeERKN7openpal6RSliceERNS_12IAPDUHandlerE, .-_ZN8opendnp311RangeParser17InvokeRangeOfTypeINS_12Group121Var1EEEvRKNS_12HeaderRecordERKNS_5RangeERKN7openpal6RSliceERNS_12IAPDUHandlerE
	.section	.text._ZNK8opendnp318BufferedCollectionINS_7IndexedINS_12Group121Var1EEEZNS_11RangeParser17InvokeRangeOfTypeIS2_EEvRKNS_12HeaderRecordERKNS_5RangeERKN7openpal6RSliceERNS_12IAPDUHandlerEEUlRSD_jE_E7ForeachERNS_8IVisitorIS3_EE,"axG",@progbits,_ZNK8opendnp318BufferedCollectionINS_7IndexedINS_12Group121Var1EEEZNS_11RangeParser17InvokeRangeOfTypeIS2_EEvRKNS_12HeaderRecordERKNS_5RangeERKN7openpal6RSliceERNS_12IAPDUHandlerEEUlRSD_jE_E7ForeachERNS_8IVisitorIS3_EE,comdat
	.align 2
	.p2align 4
	.weak	_ZNK8opendnp318BufferedCollectionINS_7IndexedINS_12Group121Var1EEEZNS_11RangeParser17InvokeRangeOfTypeIS2_EEvRKNS_12HeaderRecordERKNS_5RangeERKN7openpal6RSliceERNS_12IAPDUHandlerEEUlRSD_jE_E7ForeachERNS_8IVisitorIS3_EE
	.type	_ZNK8opendnp318BufferedCollectionINS_7IndexedINS_12Group121Var1EEEZNS_11RangeParser17InvokeRangeOfTypeIS2_EEvRKNS_12HeaderRecordERKNS_5RangeERKN7openpal6RSliceERNS_12IAPDUHandlerEEUlRSD_jE_E7ForeachERNS_8IVisitorIS3_EE, @function
_ZNK8opendnp318BufferedCollectionINS_7IndexedINS_12Group121Var1EEEZNS_11RangeParser17InvokeRangeOfTypeIS2_EEvRKNS_12HeaderRecordERKNS_5RangeERKN7openpal6RSliceERNS_12IAPDUHandlerEEUlRSD_jE_E7ForeachERNS_8IVisitorIS3_EE:
.LFB3611:
	.cfi_startproc
	endbr64
	pushq	%r15
	.cfi_def_cfa_offset 16
	.cfi_offset 15, -16
	pushq	%r14
	.cfi_def_cfa_offset 24
	.cfi_offset 14, -24
	pushq	%r13
	.cfi_def_cfa_offset 32
	.cfi_offset 13, -32
	pushq	%r12
	.cfi_def_cfa_offset 40
	.cfi_offset 12, -40
	pushq	%rbp
	.cfi_def_cfa_offset 48
	.cfi_offset 6, -48
	pushq	%rbx
	.cfi_def_cfa_offset 56
	.cfi_offset 3, -56
	subq	$56, %rsp
	.cfi_def_cfa_offset 112
	movdqu	8(%rdi), %xmm0
	movq	%fs:40, %rax
	movq	%rax, 40(%rsp)
	xorl	%eax, %eax
	cmpq	$0, 24(%rdi)
	movaps	%xmm0, 16(%rsp)
	je	.L403
	movq	%rdi, %r12
	movq	%rsi, %r13
	leaq	4(%rsp), %rbp
	xorl	%ebx, %ebx
	leaq	16(%rsp), %r14
	.p2align 4,,10
	.p2align 3
.L405:
	movq	0(%r13), %rax
	movq	%rbp, %rdi
	movq	(%rax), %r15
	call	_ZN8opendnp312Group121Var1C1Ev@PLT
	movq	%rbp, %rsi
	movq	%r14, %rdi
	call	_ZN8opendnp312Group121Var14ReadERN7openpal6RSliceERS0_@PLT
	movzwl	32(%r12), %eax
	movq	%rbp, %rsi
	movq	%r13, %rdi
	addl	%ebx, %eax
	movw	%ax, 12(%rsp)
	call	*%r15
	leal	1(%rbx), %eax
	movq	%rax, %rbx
	cmpq	24(%r12), %rax
	jb	.L405
.L403:
	movq	40(%rsp), %rax
	subq	%fs:40, %rax
	jne	.L409
	addq	$56, %rsp
	.cfi_remember_state
	.cfi_def_cfa_offset 56
	popq	%rbx
	.cfi_def_cfa_offset 48
	popq	%rbp
	.cfi_def_cfa_offset 40
	popq	%r12
	.cfi_def_cfa_offset 32
	popq	%r13
	.cfi_def_cfa_offset 24
	popq	%r14
	.cfi_def_cfa_offset 16
	popq	%r15
	.cfi_def_cfa_offset 8
	ret
.L409:
	.cfi_restore_state
	call	__stack_chk_fail@PLT
	.cfi_endproc
.LFE3611:
	.size	_ZNK8opendnp318BufferedCollectionINS_7IndexedINS_12Group121Var1EEEZNS_11RangeParser17InvokeRangeOfTypeIS2_EEvRKNS_12HeaderRecordERKNS_5RangeERKN7openpal6RSliceERNS_12IAPDUHandlerEEUlRSD_jE_E7ForeachERNS_8IVisitorIS3_EE, .-_ZNK8opendnp318BufferedCollectionINS_7IndexedINS_12Group121Var1EEEZNS_11RangeParser17InvokeRangeOfTypeIS2_EEvRKNS_12HeaderRecordERKNS_5RangeERKN7openpal6RSliceERNS_12IAPDUHandlerEEUlRSD_jE_E7ForeachERNS_8IVisitorIS3_EE
	.text
	.align 2
	.p2align 4
	.type	_ZNK8opendnp318BufferedCollectionINS_7IndexedINS_11OctetStringEEEZNS_11RangeParser21ParseRangeOfOctetDataERN7openpal6RSliceERKNS_12HeaderRecordERKNS_5RangeEPNS5_6LoggerEPNS_12IAPDUHandlerEEUlS7_jE_E7ForeachERNS_8IVisitorIS3_EE, @function
_ZNK8opendnp318BufferedCollectionINS_7IndexedINS_11OctetStringEEEZNS_11RangeParser21ParseRangeOfOctetDataERN7openpal6RSliceERKNS_12HeaderRecordERKNS_5RangeEPNS5_6LoggerEPNS_12IAPDUHandlerEEUlS7_jE_E7ForeachERNS_8IVisitorIS3_EE:
.LFB3669:
	.cfi_startproc
	endbr64
	pushq	%r15
	.cfi_def_cfa_offset 16
	.cfi_offset 15, -16
	pushq	%r14
	.cfi_def_cfa_offset 24
	.cfi_offset 14, -24
	pushq	%r13
	.cfi_def_cfa_offset 32
	.cfi_offset 13, -32
	pushq	%r12
	.cfi_def_cfa_offset 40
	.cfi_offset 12, -40
	pushq	%rbp
	.cfi_def_cfa_offset 48
	.cfi_offset 6, -48
	pushq	%rbx
	.cfi_def_cfa_offset 56
	.cfi_offset 3, -56
	subq	$648, %rsp
	.cfi_def_cfa_offset 704
	movdqu	8(%rdi), %xmm0
	movq	%fs:40, %rax
	movq	%rax, 632(%rsp)
	xorl	%eax, %eax
	cmpq	$0, 24(%rdi)
	movaps	%xmm0, 48(%rsp)
	je	.L410
	leaq	80(%rsp), %rax
	movq	%rdi, %rbx
	movq	%rsi, %r12
	xorl	%ebp, %ebp
	movq	%rax, 40(%rsp)
	leaq	48(%rsp), %r13
	leaq	64(%rsp), %r15
	leaq	360(%rsp), %rax
	movq	%rax, 16(%rsp)
	leaq	88(%rsp), %rax
	movq	%rax, 24(%rsp)
	leaq	352(%rsp), %rax
	movq	%rax, 32(%rsp)
	movq	_ZTVN7openpal12StaticBufferILj255EEE@GOTPCREL(%rip), %rax
	addq	$16, %rax
	movq	%rax, 8(%rsp)
	.p2align 4,,10
	.p2align 3
.L412:
	movq	(%r12), %rax
	movzbl	45(%rbx), %esi
	movq	%r13, %rdi
	movq	(%rax), %r14
	call	_ZNK7openpal6RSlice4TakeEj@PLT
	movq	40(%rsp), %rdi
	movq	%r15, %rsi
	movl	%eax, 64(%rsp)
	movq	%rdx, 72(%rsp)
	call	_ZN8opendnp39OctetDataC2ERKN7openpal6RSliceE@PLT
	movzbl	45(%rbx), %esi
	movq	%r13, %rdi
	call	_ZN7openpal6RSlice7AdvanceEj@PLT
	movq	8(%rsp), %rcx
	movq	16(%rsp), %rdi
	movq	24(%rsp), %rsi
	movzwl	32(%rbx), %eax
	movq	%rcx, 352(%rsp)
	movl	$31, %ecx
	rep movsq
	addl	%ebp, %eax
	movw	%ax, 624(%rsp)
	movl	(%rsi), %edx
	movl	%edx, (%rdi)
	movzwl	4(%rsi), %edx
	movw	%dx, 4(%rdi)
	movzbl	6(%rsi), %edx
	movq	32(%rsp), %rsi
	movb	%dl, 6(%rdi)
	movzbl	344(%rsp), %edx
	movq	%r12, %rdi
	movb	%dl, 616(%rsp)
	call	*%r14
	leal	1(%rbp), %eax
	movq	%rax, %rbp
	cmpq	24(%rbx), %rax
	jb	.L412
.L410:
	movq	632(%rsp), %rax
	subq	%fs:40, %rax
	jne	.L416
	addq	$648, %rsp
	.cfi_remember_state
	.cfi_def_cfa_offset 56
	popq	%rbx
	.cfi_def_cfa_offset 48
	popq	%rbp
	.cfi_def_cfa_offset 40
	popq	%r12
	.cfi_def_cfa_offset 32
	popq	%r13
	.cfi_def_cfa_offset 24
	popq	%r14
	.cfi_def_cfa_offset 16
	popq	%r15
	.cfi_def_cfa_offset 8
	ret
.L416:
	.cfi_restore_state
	call	__stack_chk_fail@PLT
	.cfi_endproc
.LFE3669:
	.size	_ZNK8opendnp318BufferedCollectionINS_7IndexedINS_11OctetStringEEEZNS_11RangeParser21ParseRangeOfOctetDataERN7openpal6RSliceERKNS_12HeaderRecordERKNS_5RangeEPNS5_6LoggerEPNS_12IAPDUHandlerEEUlS7_jE_E7ForeachERNS_8IVisitorIS3_EE, .-_ZNK8opendnp318BufferedCollectionINS_7IndexedINS_11OctetStringEEEZNS_11RangeParser21ParseRangeOfOctetDataERN7openpal6RSliceERKNS_12HeaderRecordERKNS_5RangeEPNS5_6LoggerEPNS_12IAPDUHandlerEEUlS7_jE_E7ForeachERNS_8IVisitorIS3_EE
	.section	.text._ZN7openpal12StaticBufferILj255EED0Ev,"axG",@progbits,_ZN7openpal12StaticBufferILj255EED5Ev,comdat
	.align 2
	.p2align 4
	.weak	_ZN7openpal12StaticBufferILj255EED0Ev
	.type	_ZN7openpal12StaticBufferILj255EED0Ev, @function
_ZN7openpal12StaticBufferILj255EED0Ev:
.LFB2767:
	.cfi_startproc
	endbr64
	movl	$264, %esi
	jmp	_ZdlPvm@PLT
	.cfi_endproc
.LFE2767:
	.size	_ZN7openpal12StaticBufferILj255EED0Ev, .-_ZN7openpal12StaticBufferILj255EED0Ev
	.text
	.align 2
	.p2align 4
	.globl	_ZN8opendnp311RangeParserC2ERKNS_5RangeEjPFvRKNS_12HeaderRecordES3_RKN7openpal6RSliceERNS_12IAPDUHandlerEE
	.type	_ZN8opendnp311RangeParserC2ERKNS_5RangeEjPFvRKNS_12HeaderRecordES3_RKN7openpal6RSliceERNS_12IAPDUHandlerEE, @function
_ZN8opendnp311RangeParserC2ERKNS_5RangeEjPFvRKNS_12HeaderRecordES3_RKN7openpal6RSliceERNS_12IAPDUHandlerEE:
.LFB2460:
	.cfi_startproc
	endbr64
	movl	(%rsi), %eax
	movl	%edx, 4(%rdi)
	movq	%rcx, 8(%rdi)
	movl	%eax, (%rdi)
	ret
	.cfi_endproc
.LFE2460:
	.size	_ZN8opendnp311RangeParserC2ERKNS_5RangeEjPFvRKNS_12HeaderRecordES3_RKN7openpal6RSliceERNS_12IAPDUHandlerEE, .-_ZN8opendnp311RangeParserC2ERKNS_5RangeEjPFvRKNS_12HeaderRecordES3_RKN7openpal6RSliceERNS_12IAPDUHandlerEE
	.globl	_ZN8opendnp311RangeParserC1ERKNS_5RangeEjPFvRKNS_12HeaderRecordES3_RKN7openpal6RSliceERNS_12IAPDUHandlerEE
	.set	_ZN8opendnp311RangeParserC1ERKNS_5RangeEjPFvRKNS_12HeaderRecordES3_RKN7openpal6RSliceERNS_12IAPDUHandlerEE,_ZN8opendnp311RangeParserC2ERKNS_5RangeEjPFvRKNS_12HeaderRecordES3_RKN7openpal6RSliceERNS_12IAPDUHandlerEE
	.section	.rodata.str1.8,"aMS",@progbits,1
	.align 8
.LC0:
	.string	"Not enough data for specified objects"
	.align 8
.LC1:
	.string	"/home/saptarshi/Desktop/OpenPLC61850/utils/dnp3_src/cpp/libs/src/opendnp3/app/parsing/RangeParser.cpp(83)"
	.text
	.align 2
	.p2align 4
	.globl	_ZNK8opendnp311RangeParser7ProcessERKNS_12HeaderRecordERN7openpal6RSliceEPNS_12IAPDUHandlerEPNS4_6LoggerE
	.type	_ZNK8opendnp311RangeParser7ProcessERKNS_12HeaderRecordERN7openpal6RSliceEPNS_12IAPDUHandlerEPNS4_6LoggerE, @function
_ZNK8opendnp311RangeParser7ProcessERKNS_12HeaderRecordERN7openpal6RSliceEPNS_12IAPDUHandlerEPNS4_6LoggerE:
.LFB2463:
	.cfi_startproc
	endbr64
	pushq	%r12
	.cfi_def_cfa_offset 16
	.cfi_offset 12, -16
	pushq	%rbp
	.cfi_def_cfa_offset 24
	.cfi_offset 6, -24
	pushq	%rbx
	.cfi_def_cfa_offset 32
	.cfi_offset 3, -32
	movq	%rdi, %rbx
	movq	%rsi, %rdi
	subq	$16, %rsp
	.cfi_def_cfa_offset 48
	movl	4(%rbx), %esi
	movq	%fs:40, %rax
	movq	%rax, 8(%rsp)
	xorl	%eax, %eax
	cmpl	(%rdx), %esi
	ja	.L435
	movq	%rdx, %rbp
	testq	%rcx, %rcx
	je	.L423
	movq	%rbx, %rsi
	call	*8(%rbx)
	movl	4(%rbx), %esi
.L423:
	movq	%rbp, %rdi
	call	_ZN7openpal6RSlice7AdvanceEj@PLT
	xorl	%eax, %eax
.L419:
	movq	8(%rsp), %rdx
	subq	%fs:40, %rdx
	jne	.L436
	addq	$16, %rsp
	.cfi_remember_state
	.cfi_def_cfa_offset 32
	popq	%rbx
	.cfi_def_cfa_offset 24
	popq	%rbp
	.cfi_def_cfa_offset 16
	popq	%r12
	.cfi_def_cfa_offset 8
	ret
	.p2align 4,,10
	.p2align 3
.L435:
	.cfi_restore_state
	movq	%r8, %r12
	testq	%r8, %r8
	je	.L421
	leaq	4(%rsp), %rbp
	movq	%r8, %rdi
	movl	$4, 4(%rsp)
	movq	%rbp, %rsi
	call	_ZNK7openpal6Logger9IsEnabledERKNS_10LogFiltersE@PLT
	testb	%al, %al
	je	.L421
	leaq	.LC0(%rip), %rcx
	leaq	.LC1(%rip), %rdx
	movq	%rbp, %rsi
	movq	%r12, %rdi
	movl	$4, 4(%rsp)
	call	_ZN7openpal6Logger3LogERKNS_10LogFiltersEPKcS5_@PLT
	movl	$4, %eax
	jmp	.L419
	.p2align 4,,10
	.p2align 3
.L421:
	movl	$4, %eax
	jmp	.L419
.L436:
	call	__stack_chk_fail@PLT
	.cfi_endproc
.LFE2463:
	.size	_ZNK8opendnp311RangeParser7ProcessERKNS_12HeaderRecordERN7openpal6RSliceEPNS_12IAPDUHandlerEPNS4_6LoggerE, .-_ZNK8opendnp311RangeParser7ProcessERKNS_12HeaderRecordERN7openpal6RSliceEPNS_12IAPDUHandlerEPNS4_6LoggerE
	.section	.rodata.str1.8
	.align 8
.LC2:
	.string	"Not enough data for specified octet objects"
	.align 8
.LC3:
	.string	"/home/saptarshi/Desktop/OpenPLC61850/utils/dnp3_src/cpp/libs/src/opendnp3/app/parsing/RangeParser.cpp(171)"
	.align 8
.LC4:
	.string	"Octet string variation 0 may only be used in requests"
	.align 8
.LC5:
	.string	"/home/saptarshi/Desktop/OpenPLC61850/utils/dnp3_src/cpp/libs/src/opendnp3/app/parsing/RangeParser.cpp(196)"
	.text
	.align 2
	.p2align 4
	.globl	_ZN8opendnp311RangeParser21ParseRangeOfOctetDataERN7openpal6RSliceERKNS_12HeaderRecordERKNS_5RangeEPNS1_6LoggerEPNS_12IAPDUHandlerE
	.type	_ZN8opendnp311RangeParser21ParseRangeOfOctetDataERN7openpal6RSliceERKNS_12HeaderRecordERKNS_5RangeEPNS1_6LoggerEPNS_12IAPDUHandlerE, @function
_ZN8opendnp311RangeParser21ParseRangeOfOctetDataERN7openpal6RSliceERKNS_12HeaderRecordERKNS_5RangeEPNS1_6LoggerEPNS_12IAPDUHandlerE:
.LFB2465:
	.cfi_startproc
	endbr64
	pushq	%r13
	.cfi_def_cfa_offset 16
	.cfi_offset 13, -16
	movq	%rsi, %rax
	movq	%rcx, %r13
	pushq	%r12
	.cfi_def_cfa_offset 24
	.cfi_offset 12, -24
	pushq	%rbp
	.cfi_def_cfa_offset 32
	.cfi_offset 6, -32
	pushq	%rbx
	.cfi_def_cfa_offset 40
	.cfi_offset 3, -40
	subq	$104, %rsp
	.cfi_def_cfa_offset 144
	movzbl	9(%rsi), %esi
	movq	%fs:40, %rcx
	movq	%rcx, 88(%rsp)
	xorl	%ecx, %ecx
	testb	%sil, %sil
	je	.L438
	movq	%rdi, %r12
	movzwl	2(%rdx), %ecx
	movq	%r8, %rdi
	movzwl	(%rdx), %r8d
	movl	(%rdx), %r9d
	cmpw	%cx, %r8w
	jbe	.L461
	xorl	%ecx, %ecx
	xorl	%ebp, %ebp
.L439:
	testq	%rdi, %rdi
	je	.L442
	movl	12(%rax), %esi
	movzwl	(%rax), %r13d
	movl	%r9d, 64(%rsp)
	leaq	16+_ZTVN8opendnp318BufferedCollectionINS_7IndexedINS_11OctetStringEEEZNS_11RangeParser21ParseRangeOfOctetDataERN7openpal6RSliceERKNS_12HeaderRecordERKNS_5RangeEPNS5_6LoggerEPNS_12IAPDUHandlerEEUlS7_jE_EE(%rip), %rbx
	movl	4(%rax), %r11d
	movzwl	8(%rax), %r10d
	movq	%rbx, 32(%rsp)
	movl	%ecx, %ebx
	movzbl	10(%rax), %r8d
	movdqu	(%rax), %xmm1
	movl	%esi, 80(%rsp)
	movq	%rsp, %rsi
	movl	(%rdx), %eax
	leaq	32(%rsp), %rdx
	movdqu	(%r12), %xmm0
	movq	%rbx, 56(%rsp)
	movw	%r13w, 68(%rsp)
	movl	%r11d, 72(%rsp)
	movw	%r10w, 76(%rsp)
	movb	%r8b, 78(%rsp)
	movl	%eax, 16(%rsp)
	movups	%xmm0, 40(%rsp)
	movaps	%xmm1, (%rsp)
	call	_ZN8opendnp312IAPDUHandler8OnHeaderERKNS_11RangeHeaderERKNS_11ICollectionINS_7IndexedINS_11OctetStringEEEEE@PLT
.L442:
	movl	%ebp, %esi
	movq	%r12, %rdi
	call	_ZN7openpal6RSlice7AdvanceEj@PLT
	xorl	%eax, %eax
.L437:
	movq	88(%rsp), %rdx
	subq	%fs:40, %rdx
	jne	.L462
	addq	$104, %rsp
	.cfi_remember_state
	.cfi_def_cfa_offset 40
	popq	%rbx
	.cfi_def_cfa_offset 32
	popq	%rbp
	.cfi_def_cfa_offset 24
	popq	%r12
	.cfi_def_cfa_offset 16
	popq	%r13
	.cfi_def_cfa_offset 8
	ret
	.p2align 4,,10
	.p2align 3
.L461:
	.cfi_restore_state
	addl	$1, %ecx
	movzbl	%sil, %ebp
	subl	%r8d, %ecx
	imull	%ecx, %ebp
	cmpl	(%r12), %ebp
	jbe	.L439
	testq	%r13, %r13
	je	.L440
	leaq	32(%rsp), %rbp
	movq	%r13, %rdi
	movl	$4, 32(%rsp)
	movq	%rbp, %rsi
	call	_ZNK7openpal6Logger9IsEnabledERKNS_10LogFiltersE@PLT
	testb	%al, %al
	jne	.L463
.L440:
	movl	$4, %eax
	jmp	.L437
	.p2align 4,,10
	.p2align 3
.L438:
	testq	%r13, %r13
	je	.L460
	leaq	32(%rsp), %rbp
	movq	%r13, %rdi
	movl	$4, 32(%rsp)
	movq	%rbp, %rsi
	call	_ZNK7openpal6Logger9IsEnabledERKNS_10LogFiltersE@PLT
	testb	%al, %al
	jne	.L464
.L460:
	movl	$9, %eax
	jmp	.L437
	.p2align 4,,10
	.p2align 3
.L463:
	leaq	.LC2(%rip), %rcx
	leaq	.LC3(%rip), %rdx
	movq	%rbp, %rsi
	movq	%r13, %rdi
	movl	$4, 32(%rsp)
	call	_ZN7openpal6Logger3LogERKNS_10LogFiltersEPKcS5_@PLT
	movl	$4, %eax
	jmp	.L437
	.p2align 4,,10
	.p2align 3
.L464:
	leaq	.LC4(%rip), %rcx
	leaq	.LC5(%rip), %rdx
	movq	%rbp, %rsi
	movq	%r13, %rdi
	movl	$4, 32(%rsp)
	call	_ZN7openpal6Logger3LogERKNS_10LogFiltersEPKcS5_@PLT
	jmp	.L460
.L462:
	call	__stack_chk_fail@PLT
	.cfi_endproc
.LFE2465:
	.size	_ZN8opendnp311RangeParser21ParseRangeOfOctetDataERN7openpal6RSliceERKNS_12HeaderRecordERKNS_5RangeEPNS1_6LoggerEPNS_12IAPDUHandlerE, .-_ZN8opendnp311RangeParser21ParseRangeOfOctetDataERN7openpal6RSliceERKNS_12HeaderRecordERKNS_5RangeEPNS1_6LoggerEPNS_12IAPDUHandlerE
	.section	.rodata.str1.8
	.align 8
.LC6:
	.string	"Unsupported qualifier/object - %s - %i / %i"
	.align 8
.LC7:
	.string	"/home/saptarshi/Desktop/OpenPLC61850/utils/dnp3_src/cpp/libs/src/opendnp3/app/parsing/RangeParser.cpp(154)"
	.text
	.align 2
	.p2align 4
	.globl	_ZN8opendnp311RangeParser19ParseRangeOfObjectsERN7openpal6RSliceERKNS_12HeaderRecordERKNS_5RangeEPNS1_6LoggerEPNS_12IAPDUHandlerE
	.type	_ZN8opendnp311RangeParser19ParseRangeOfObjectsERN7openpal6RSliceERKNS_12HeaderRecordERKNS_5RangeEPNS1_6LoggerEPNS_12IAPDUHandlerE, @function
_ZN8opendnp311RangeParser19ParseRangeOfObjectsERN7openpal6RSliceERKNS_12HeaderRecordERKNS_5RangeEPNS1_6LoggerEPNS_12IAPDUHandlerE:
.LFB2464:
	.cfi_startproc
	endbr64
	pushq	%r15
	.cfi_def_cfa_offset 16
	.cfi_offset 15, -16
	pushq	%r14
	.cfi_def_cfa_offset 24
	.cfi_offset 14, -24
	movq	%r8, %r14
	pushq	%r13
	.cfi_def_cfa_offset 32
	.cfi_offset 13, -32
	movq	%rdi, %r13
	pushq	%r12
	.cfi_def_cfa_offset 40
	.cfi_offset 12, -40
	movq	%rcx, %r12
	pushq	%rbp
	.cfi_def_cfa_offset 48
	.cfi_offset 6, -48
	movq	%rsi, %rbp
	movq	%rdx, %rsi
	pushq	%rbx
	.cfi_def_cfa_offset 56
	.cfi_offset 3, -56
	subq	$168, %rsp
	.cfi_def_cfa_offset 224
	movq	%fs:40, %rax
	movq	%rax, 152(%rsp)
	xorl	%eax, %eax
	movzwl	0(%rbp), %eax
	cmpw	$5386, %ax
	ja	.L466
	cmpw	$5376, %ax
	ja	.L467
	cmpw	$2562, %ax
	je	.L468
	jbe	.L579
	cmpw	$5125, %ax
	je	.L491
	jbe	.L580
	cmpw	$5126, %ax
	jne	.L474
	movzwl	(%rdx), %edx
	movzwl	2(%rsi), %eax
	xorl	%r8d, %r8d
	cmpw	%ax, %dx
	ja	.L518
	subl	%edx, %eax
	leal	2(%rax,%rax), %r8d
.L518:
	movq	_ZN8opendnp311RangeParser13InvokeRangeOfINS_11Group20Var6EEEvRKNS_12HeaderRecordERKNS_5RangeERKN7openpal6RSliceERNS_12IAPDUHandlerE@GOTPCREL(%rip), %rcx
	leaq	16(%rsp), %r15
	movl	%r8d, %edx
	jmp	.L577
	.p2align 4,,10
	.p2align 3
.L466:
	cmpw	$10242, %ax
	je	.L496
	jbe	.L581
	cmpw	$20481, %ax
	je	.L501
	jbe	.L582
	cmpw	$28160, %ax
	je	.L506
	cmpw	$30977, %ax
	jne	.L474
	movzwl	(%rdx), %ecx
	movzwl	2(%rdx), %eax
	xorl	%edx, %edx
	cmpw	%ax, %cx
	ja	.L538
	addl	$1, %eax
	subl	%ecx, %eax
	leal	0(,%rax,8), %edx
	subl	%eax, %edx
.L538:
	movq	_ZN8opendnp311RangeParser17InvokeRangeOfTypeINS_12Group121Var1EEEvRKNS_12HeaderRecordERKNS_5RangeERKN7openpal6RSliceERNS_12IAPDUHandlerE@GOTPCREL(%rip), %rcx
	leaq	16(%rsp), %r15
	jmp	.L577
	.p2align 4,,10
	.p2align 3
.L580:
	cmpw	$5121, %ax
	je	.L493
	cmpw	$5122, %ax
	jne	.L474
	movzwl	(%rdx), %edx
	movzwl	2(%rsi), %eax
	xorl	%r8d, %r8d
	cmpw	%ax, %dx
	ja	.L516
	addl	$1, %eax
	subl	%edx, %eax
	leal	(%rax,%rax,2), %r8d
.L516:
	movq	_ZN8opendnp311RangeParser13InvokeRangeOfINS_11Group20Var2EEEvRKNS_12HeaderRecordERKNS_5RangeERKN7openpal6RSliceERNS_12IAPDUHandlerE@GOTPCREL(%rip), %rcx
	leaq	16(%rsp), %r15
	movl	%r8d, %edx
	jmp	.L577
	.p2align 4,,10
	.p2align 3
.L582:
	cmpw	$10244, %ax
	je	.L503
	cmpw	$12804, %ax
	jne	.L583
	movzwl	(%rdx), %edx
	movzwl	2(%rsi), %eax
	xorl	%r8d, %r8d
	cmpw	%ax, %dx
	ja	.L535
	addl	$1, %eax
	subl	%edx, %eax
	leal	(%rax,%rax,4), %edx
	leal	(%rax,%rdx,2), %r8d
.L535:
	movq	_ZN8opendnp311RangeParser13InvokeRangeOfINS_11Group50Var4EEEvRKNS_12HeaderRecordERKNS_5RangeERKN7openpal6RSliceERNS_12IAPDUHandlerE@GOTPCREL(%rip), %rcx
	leaq	16(%rsp), %r15
	movl	%r8d, %edx
	jmp	.L577
	.p2align 4,,10
	.p2align 3
.L581:
	cmpw	$7686, %ax
	ja	.L498
	cmpw	$7680, %ax
	jbe	.L474
	subw	$7682, %ax
	cmpw	$4, %ax
	ja	.L475
	leaq	.L477(%rip), %rdx
	movzwl	%ax, %eax
	movslq	(%rdx,%rax,4), %rax
	addq	%rdx, %rax
	movzwl	(%rsi), %edx
	notrack jmp	*%rax
	.section	.rodata
	.align 4
	.align 4
.L477:
	.long	.L481-.L477
	.long	.L480-.L477
	.long	.L479-.L477
	.long	.L478-.L477
	.long	.L476-.L477
	.text
.L583:
	cmpw	$10243, %ax
	jne	.L474
	movzwl	(%rdx), %edx
	movzwl	2(%rsi), %eax
	xorl	%r8d, %r8d
	cmpw	%ax, %dx
	ja	.L533
	addl	$1, %eax
	subl	%edx, %eax
	leal	(%rax,%rax,4), %r8d
.L533:
	movq	_ZN8opendnp311RangeParser13InvokeRangeOfINS_11Group40Var3EEEvRKNS_12HeaderRecordERKNS_5RangeERKN7openpal6RSliceERNS_12IAPDUHandlerE@GOTPCREL(%rip), %rcx
	leaq	16(%rsp), %r15
	movl	%r8d, %edx
	jmp	.L577
	.p2align 4,,10
	.p2align 3
.L498:
	cmpw	$10241, %ax
	jne	.L474
	movzwl	(%rdx), %edx
	movzwl	2(%rsi), %eax
	xorl	%r8d, %r8d
	cmpw	%ax, %dx
	ja	.L531
	addl	$1, %eax
	subl	%edx, %eax
	leal	(%rax,%rax,4), %r8d
.L531:
	movq	_ZN8opendnp311RangeParser13InvokeRangeOfINS_11Group40Var1EEEvRKNS_12HeaderRecordERKNS_5RangeERKN7openpal6RSliceERNS_12IAPDUHandlerE@GOTPCREL(%rip), %rcx
	leaq	16(%rsp), %r15
	movl	%r8d, %edx
	jmp	.L577
	.p2align 4,,10
	.p2align 3
.L579:
	cmpw	$769, %ax
	je	.L470
	jbe	.L584
	cmpw	$770, %ax
	je	.L489
	cmpw	$2561, %ax
	jne	.L474
	movzwl	(%rdx), %eax
	movzwl	2(%rdx), %edx
	xorl	%edi, %edi
	cmpw	%dx, %ax
	ja	.L512
	leal	1(%rdx), %edi
	subl	%eax, %edi
.L512:
	movq	%rsi, 8(%rsp)
	leaq	16(%rsp), %r15
	call	_ZN8opendnp314NumBytesInBitsEj@PLT
	movq	_ZN8opendnp311RangeParser23InvokeRangeBitfieldTypeINS_18BinaryOutputStatusEEEvRKNS_12HeaderRecordERKNS_5RangeERKN7openpal6RSliceERNS_12IAPDUHandlerE@GOTPCREL(%rip), %rcx
	movq	8(%rsp), %rsi
	movl	%eax, %edx
	jmp	.L577
	.p2align 4,,10
	.p2align 3
.L467:
	subw	$5377, %ax
	cmpw	$9, %ax
	ja	.L474
	leaq	.L483(%rip), %rdx
	movzwl	%ax, %eax
	movslq	(%rdx,%rax,4), %rax
	addq	%rdx, %rax
	notrack jmp	*%rax
	.section	.rodata
	.align 4
	.align 4
.L483:
	.long	.L488-.L483
	.long	.L487-.L483
	.long	.L474-.L483
	.long	.L474-.L483
	.long	.L486-.L483
	.long	.L485-.L483
	.long	.L474-.L483
	.long	.L474-.L483
	.long	.L484-.L483
	.long	.L482-.L483
	.text
.L584:
	cmpw	$257, %ax
	je	.L472
	cmpw	$258, %ax
	jne	.L474
	movzwl	(%rdx), %eax
	movzwl	2(%rdx), %ecx
	xorl	%edx, %edx
	cmpw	%cx, %ax
	ja	.L510
	leal	1(%rcx), %edx
	subl	%eax, %edx
.L510:
	movq	_ZN8opendnp311RangeParser13InvokeRangeOfINS_10Group1Var2EEEvRKNS_12HeaderRecordERKNS_5RangeERKN7openpal6RSliceERNS_12IAPDUHandlerE@GOTPCREL(%rip), %rcx
	leaq	16(%rsp), %r15
	jmp	.L577
	.p2align 4,,10
	.p2align 3
.L474:
	testq	%r12, %r12
	je	.L539
	leaq	16(%rsp), %r13
	movq	%r12, %rdi
	movl	$4, 16(%rsp)
	movq	%r13, %rsi
	call	_ZNK7openpal6Logger9IsEnabledERKNS_10LogFiltersE@PLT
	testb	%al, %al
	jne	.L585
.L539:
	movl	$8, %eax
	.p2align 4,,10
	.p2align 3
.L465:
	movq	152(%rsp), %rdx
	subq	%fs:40, %rdx
	jne	.L578
	addq	$168, %rsp
	.cfi_remember_state
	.cfi_def_cfa_offset 56
	popq	%rbx
	.cfi_def_cfa_offset 48
	popq	%rbp
	.cfi_def_cfa_offset 40
	popq	%r12
	.cfi_def_cfa_offset 32
	popq	%r13
	.cfi_def_cfa_offset 24
	popq	%r14
	.cfi_def_cfa_offset 16
	popq	%r15
	.cfi_def_cfa_offset 8
	ret
	.p2align 4,,10
	.p2align 3
.L479:
	.cfi_restore_state
	movzwl	2(%rsi), %eax
	xorl	%r8d, %r8d
	cmpw	%ax, %dx
	ja	.L528
	subl	%edx, %eax
	leal	2(%rax,%rax), %r8d
.L528:
	movq	_ZN8opendnp311RangeParser13InvokeRangeOfINS_11Group30Var4EEEvRKNS_12HeaderRecordERKNS_5RangeERKN7openpal6RSliceERNS_12IAPDUHandlerE@GOTPCREL(%rip), %rcx
	leaq	16(%rsp), %r15
	movl	%r8d, %edx
	.p2align 4,,10
	.p2align 3
.L577:
	movq	%r15, %rdi
	call	_ZN8opendnp311RangeParserC1ERKNS_5RangeEjPFvRKNS_12HeaderRecordES3_RKN7openpal6RSliceERNS_12IAPDUHandlerEE@PLT
	movq	%r12, %r8
	movq	%r14, %rcx
	movq	%r13, %rdx
	movq	%rbp, %rsi
	movq	%r15, %rdi
	call	_ZNK8opendnp311RangeParser7ProcessERKNS_12HeaderRecordERN7openpal6RSliceEPNS_12IAPDUHandlerEPNS4_6LoggerE@PLT
	jmp	.L465
	.p2align 4,,10
	.p2align 3
.L480:
	movzwl	2(%rsi), %eax
	xorl	%r8d, %r8d
	cmpw	%ax, %dx
	ja	.L527
	subl	%edx, %eax
	leal	4(,%rax,4), %r8d
.L527:
	movq	_ZN8opendnp311RangeParser13InvokeRangeOfINS_11Group30Var3EEEvRKNS_12HeaderRecordERKNS_5RangeERKN7openpal6RSliceERNS_12IAPDUHandlerE@GOTPCREL(%rip), %rcx
	leaq	16(%rsp), %r15
	movl	%r8d, %edx
	jmp	.L577
	.p2align 4,,10
	.p2align 3
.L481:
	movzwl	2(%rsi), %eax
	xorl	%r8d, %r8d
	cmpw	%ax, %dx
	ja	.L526
	addl	$1, %eax
	subl	%edx, %eax
	leal	(%rax,%rax,2), %r8d
.L526:
	movq	_ZN8opendnp311RangeParser13InvokeRangeOfINS_11Group30Var2EEEvRKNS_12HeaderRecordERKNS_5RangeERKN7openpal6RSliceERNS_12IAPDUHandlerE@GOTPCREL(%rip), %rcx
	leaq	16(%rsp), %r15
	movl	%r8d, %edx
	jmp	.L577
	.p2align 4,,10
	.p2align 3
.L478:
	movzwl	2(%rsi), %eax
	xorl	%r8d, %r8d
	cmpw	%ax, %dx
	ja	.L529
	addl	$1, %eax
	subl	%edx, %eax
	leal	(%rax,%rax,4), %r8d
.L529:
	movq	_ZN8opendnp311RangeParser13InvokeRangeOfINS_11Group30Var5EEEvRKNS_12HeaderRecordERKNS_5RangeERKN7openpal6RSliceERNS_12IAPDUHandlerE@GOTPCREL(%rip), %rcx
	leaq	16(%rsp), %r15
	movl	%r8d, %edx
	jmp	.L577
	.p2align 4,,10
	.p2align 3
.L476:
	movzwl	2(%rsi), %eax
	xorl	%r8d, %r8d
	cmpw	%ax, %dx
	ja	.L530
	addl	$1, %eax
	subl	%edx, %eax
	leal	(%rax,%rax,8), %r8d
.L530:
	movq	_ZN8opendnp311RangeParser13InvokeRangeOfINS_11Group30Var6EEEvRKNS_12HeaderRecordERKNS_5RangeERKN7openpal6RSliceERNS_12IAPDUHandlerE@GOTPCREL(%rip), %rcx
	leaq	16(%rsp), %r15
	movl	%r8d, %edx
	jmp	.L577
	.p2align 4,,10
	.p2align 3
.L484:
	movzwl	(%rsi), %edx
	movzwl	2(%rsi), %eax
	xorl	%r8d, %r8d
	cmpw	%ax, %dx
	ja	.L523
	subl	%edx, %eax
	leal	4(,%rax,4), %r8d
.L523:
	movq	_ZN8opendnp311RangeParser13InvokeRangeOfINS_11Group21Var9EEEvRKNS_12HeaderRecordERKNS_5RangeERKN7openpal6RSliceERNS_12IAPDUHandlerE@GOTPCREL(%rip), %rcx
	leaq	16(%rsp), %r15
	movl	%r8d, %edx
	jmp	.L577
	.p2align 4,,10
	.p2align 3
.L485:
	movzwl	(%rsi), %edx
	movzwl	2(%rsi), %eax
	xorl	%r8d, %r8d
	cmpw	%ax, %dx
	ja	.L522
	addl	$1, %eax
	subl	%edx, %eax
	leal	(%rax,%rax,8), %r8d
.L522:
	movq	_ZN8opendnp311RangeParser13InvokeRangeOfINS_11Group21Var6EEEvRKNS_12HeaderRecordERKNS_5RangeERKN7openpal6RSliceERNS_12IAPDUHandlerE@GOTPCREL(%rip), %rcx
	leaq	16(%rsp), %r15
	movl	%r8d, %edx
	jmp	.L577
	.p2align 4,,10
	.p2align 3
.L482:
	movzwl	(%rsi), %edx
	movzwl	2(%rsi), %eax
	xorl	%r8d, %r8d
	cmpw	%ax, %dx
	ja	.L524
	subl	%edx, %eax
	leal	2(%rax,%rax), %r8d
.L524:
	movq	_ZN8opendnp311RangeParser13InvokeRangeOfINS_12Group21Var10EEEvRKNS_12HeaderRecordERKNS_5RangeERKN7openpal6RSliceERNS_12IAPDUHandlerE@GOTPCREL(%rip), %rcx
	leaq	16(%rsp), %r15
	movl	%r8d, %edx
	jmp	.L577
	.p2align 4,,10
	.p2align 3
.L486:
	movzwl	(%rsi), %edx
	movzwl	2(%rsi), %eax
	xorl	%r8d, %r8d
	cmpw	%ax, %dx
	ja	.L521
	addl	$1, %eax
	subl	%edx, %eax
	leal	(%rax,%rax,4), %edx
	leal	(%rax,%rdx,2), %r8d
.L521:
	movq	_ZN8opendnp311RangeParser13InvokeRangeOfINS_11Group21Var5EEEvRKNS_12HeaderRecordERKNS_5RangeERKN7openpal6RSliceERNS_12IAPDUHandlerE@GOTPCREL(%rip), %rcx
	leaq	16(%rsp), %r15
	movl	%r8d, %edx
	jmp	.L577
	.p2align 4,,10
	.p2align 3
.L487:
	movzwl	(%rsi), %edx
	movzwl	2(%rsi), %eax
	xorl	%r8d, %r8d
	cmpw	%ax, %dx
	ja	.L520
	addl	$1, %eax
	subl	%edx, %eax
	leal	(%rax,%rax,2), %r8d
.L520:
	movq	_ZN8opendnp311RangeParser13InvokeRangeOfINS_11Group21Var2EEEvRKNS_12HeaderRecordERKNS_5RangeERKN7openpal6RSliceERNS_12IAPDUHandlerE@GOTPCREL(%rip), %rcx
	leaq	16(%rsp), %r15
	movl	%r8d, %edx
	jmp	.L577
	.p2align 4,,10
	.p2align 3
.L488:
	movzwl	(%rsi), %edx
	movzwl	2(%rsi), %eax
	xorl	%r8d, %r8d
	cmpw	%ax, %dx
	ja	.L519
	addl	$1, %eax
	subl	%edx, %eax
	leal	(%rax,%rax,4), %r8d
.L519:
	movq	_ZN8opendnp311RangeParser13InvokeRangeOfINS_11Group21Var1EEEvRKNS_12HeaderRecordERKNS_5RangeERKN7openpal6RSliceERNS_12IAPDUHandlerE@GOTPCREL(%rip), %rcx
	leaq	16(%rsp), %r15
	movl	%r8d, %edx
	jmp	.L577
	.p2align 4,,10
	.p2align 3
.L475:
	movzwl	(%rsi), %edx
	movzwl	2(%rsi), %eax
	xorl	%r8d, %r8d
	cmpw	%ax, %dx
	ja	.L525
	addl	$1, %eax
	subl	%edx, %eax
	leal	(%rax,%rax,4), %r8d
.L525:
	movq	_ZN8opendnp311RangeParser13InvokeRangeOfINS_11Group30Var1EEEvRKNS_12HeaderRecordERKNS_5RangeERKN7openpal6RSliceERNS_12IAPDUHandlerE@GOTPCREL(%rip), %rcx
	leaq	16(%rsp), %r15
	movl	%r8d, %edx
	jmp	.L577
	.p2align 4,,10
	.p2align 3
.L470:
	movzwl	(%rdx), %eax
	movzwl	2(%rdx), %edx
	xorl	%edi, %edi
	cmpw	%dx, %ax
	ja	.L511
	leal	1(%rdx), %edi
	subl	%eax, %edi
.L511:
	movq	%rsi, 8(%rsp)
	leaq	16(%rsp), %r15
	call	_ZN8opendnp320NumBytesInDoubleBitsEj@PLT
	movq	_ZN8opendnp311RangeParser29InvokeRangeDoubleBitfieldTypeINS_15DoubleBitBinaryEEEvRKNS_12HeaderRecordERKNS_5RangeERKN7openpal6RSliceERNS_12IAPDUHandlerE@GOTPCREL(%rip), %rcx
	movq	8(%rsp), %rsi
	movl	%eax, %edx
	jmp	.L577
	.p2align 4,,10
	.p2align 3
.L503:
	movzwl	(%rdx), %edx
	movzwl	2(%rsi), %eax
	xorl	%r8d, %r8d
	cmpw	%ax, %dx
	ja	.L534
	addl	$1, %eax
	subl	%edx, %eax
	leal	(%rax,%rax,8), %r8d
.L534:
	movq	_ZN8opendnp311RangeParser13InvokeRangeOfINS_11Group40Var4EEEvRKNS_12HeaderRecordERKNS_5RangeERKN7openpal6RSliceERNS_12IAPDUHandlerE@GOTPCREL(%rip), %rcx
	leaq	16(%rsp), %r15
	movl	%r8d, %edx
	jmp	.L577
	.p2align 4,,10
	.p2align 3
.L493:
	movzwl	(%rdx), %edx
	movzwl	2(%rsi), %eax
	xorl	%r8d, %r8d
	cmpw	%ax, %dx
	ja	.L515
	addl	$1, %eax
	subl	%edx, %eax
	leal	(%rax,%rax,4), %r8d
.L515:
	movq	_ZN8opendnp311RangeParser13InvokeRangeOfINS_11Group20Var1EEEvRKNS_12HeaderRecordERKNS_5RangeERKN7openpal6RSliceERNS_12IAPDUHandlerE@GOTPCREL(%rip), %rcx
	leaq	16(%rsp), %r15
	movl	%r8d, %edx
	jmp	.L577
	.p2align 4,,10
	.p2align 3
.L506:
	movq	152(%rsp), %rax
	subq	%fs:40, %rax
	jne	.L578
	addq	$168, %rsp
	.cfi_remember_state
	.cfi_def_cfa_offset 56
	movq	%rbp, %rsi
	popq	%rbx
	.cfi_def_cfa_offset 48
	popq	%rbp
	.cfi_def_cfa_offset 40
	popq	%r12
	.cfi_def_cfa_offset 32
	popq	%r13
	.cfi_def_cfa_offset 24
	popq	%r14
	.cfi_def_cfa_offset 16
	popq	%r15
	.cfi_def_cfa_offset 8
	jmp	_ZN8opendnp311RangeParser21ParseRangeOfOctetDataERN7openpal6RSliceERKNS_12HeaderRecordERKNS_5RangeEPNS1_6LoggerEPNS_12IAPDUHandlerE@PLT
	.p2align 4,,10
	.p2align 3
.L491:
	.cfi_restore_state
	movzwl	(%rdx), %edx
	movzwl	2(%rsi), %eax
	xorl	%r8d, %r8d
	cmpw	%ax, %dx
	ja	.L517
	subl	%edx, %eax
	leal	4(,%rax,4), %r8d
.L517:
	movq	_ZN8opendnp311RangeParser13InvokeRangeOfINS_11Group20Var5EEEvRKNS_12HeaderRecordERKNS_5RangeERKN7openpal6RSliceERNS_12IAPDUHandlerE@GOTPCREL(%rip), %rcx
	leaq	16(%rsp), %r15
	movl	%r8d, %edx
	jmp	.L577
	.p2align 4,,10
	.p2align 3
.L468:
	movzwl	(%rdx), %eax
	movzwl	2(%rdx), %ecx
	xorl	%edx, %edx
	cmpw	%cx, %ax
	ja	.L514
	leal	1(%rcx), %edx
	subl	%eax, %edx
.L514:
	movq	_ZN8opendnp311RangeParser13InvokeRangeOfINS_11Group10Var2EEEvRKNS_12HeaderRecordERKNS_5RangeERKN7openpal6RSliceERNS_12IAPDUHandlerE@GOTPCREL(%rip), %rcx
	leaq	16(%rsp), %r15
	jmp	.L577
	.p2align 4,,10
	.p2align 3
.L489:
	movzwl	(%rdx), %eax
	movzwl	2(%rdx), %ecx
	xorl	%edx, %edx
	cmpw	%cx, %ax
	ja	.L513
	leal	1(%rcx), %edx
	subl	%eax, %edx
.L513:
	movq	_ZN8opendnp311RangeParser13InvokeRangeOfINS_10Group3Var2EEEvRKNS_12HeaderRecordERKNS_5RangeERKN7openpal6RSliceERNS_12IAPDUHandlerE@GOTPCREL(%rip), %rcx
	leaq	16(%rsp), %r15
	jmp	.L577
	.p2align 4,,10
	.p2align 3
.L472:
	movzwl	(%rdx), %eax
	movzwl	2(%rdx), %edx
	xorl	%edi, %edi
	cmpw	%dx, %ax
	ja	.L508
	leal	1(%rdx), %edi
	subl	%eax, %edi
.L508:
	movq	%rsi, 8(%rsp)
	leaq	16(%rsp), %r15
	call	_ZN8opendnp314NumBytesInBitsEj@PLT
	movq	_ZN8opendnp311RangeParser23InvokeRangeBitfieldTypeINS_6BinaryEEEvRKNS_12HeaderRecordERKNS_5RangeERKN7openpal6RSliceERNS_12IAPDUHandlerE@GOTPCREL(%rip), %rcx
	movq	8(%rsp), %rsi
	movl	%eax, %edx
	jmp	.L577
	.p2align 4,,10
	.p2align 3
.L501:
	movzwl	(%rdx), %eax
	movzwl	2(%rdx), %edx
	xorl	%edi, %edi
	cmpw	%dx, %ax
	ja	.L536
	leal	1(%rdx), %edi
	subl	%eax, %edi
.L536:
	movq	%rsi, 8(%rsp)
	leaq	16(%rsp), %r15
	call	_ZN8opendnp314NumBytesInBitsEj@PLT
	movq	_ZN8opendnp311RangeParser23InvokeRangeBitfieldTypeINS_8IINValueEEEvRKNS_12HeaderRecordERKNS_5RangeERKN7openpal6RSliceERNS_12IAPDUHandlerE@GOTPCREL(%rip), %rcx
	movq	8(%rsp), %rsi
	movl	%eax, %edx
	jmp	.L577
	.p2align 4,,10
	.p2align 3
.L496:
	movzwl	(%rdx), %edx
	movzwl	2(%rsi), %eax
	xorl	%r8d, %r8d
	cmpw	%ax, %dx
	ja	.L532
	addl	$1, %eax
	subl	%edx, %eax
	leal	(%rax,%rax,2), %r8d
.L532:
	movq	_ZN8opendnp311RangeParser13InvokeRangeOfINS_11Group40Var2EEEvRKNS_12HeaderRecordERKNS_5RangeERKN7openpal6RSliceERNS_12IAPDUHandlerE@GOTPCREL(%rip), %rcx
	leaq	16(%rsp), %r15
	movl	%r8d, %edx
	jmp	.L577
.L585:
	movq	%rbp, %rdi
	movzbl	9(%rbp), %ebx
	movzbl	8(%rbp), %r15d
	leaq	32(%rsp), %r14
	call	_ZNK8opendnp312HeaderRecord16GetQualifierCodeEv@PLT
	movl	%eax, %edi
	call	_ZN8opendnp321QualifierCodeToStringENS_13QualifierCodeE@PLT
	pushq	%rbx
	.cfi_def_cfa_offset 232
	leaq	.LC6(%rip), %r8
	movq	%r14, %rdi
	pushq	%r15
	.cfi_def_cfa_offset 240
	movq	%rax, %r9
	movl	$120, %ecx
	movl	$1, %edx
	movl	$120, %esi
	xorl	%eax, %eax
	call	__snprintf_chk@PLT
	movq	%r14, %rcx
	movq	%r13, %rsi
	movq	%r12, %rdi
	movl	$4, 32(%rsp)
	popq	%rax
	.cfi_def_cfa_offset 232
	popq	%rdx
	.cfi_def_cfa_offset 224
	leaq	.LC7(%rip), %rdx
	call	_ZN7openpal6Logger3LogERKNS_10LogFiltersEPKcS5_@PLT
	movl	$8, %eax
	jmp	.L465
.L578:
	call	__stack_chk_fail@PLT
	.cfi_endproc
.LFE2464:
	.size	_ZN8opendnp311RangeParser19ParseRangeOfObjectsERN7openpal6RSliceERKNS_12HeaderRecordERKNS_5RangeEPNS1_6LoggerEPNS_12IAPDUHandlerE, .-_ZN8opendnp311RangeParser19ParseRangeOfObjectsERN7openpal6RSliceERKNS_12HeaderRecordERKNS_5RangeEPNS1_6LoggerEPNS_12IAPDUHandlerE
	.section	.rodata.str1.1,"aMS",@progbits,1
.LC8:
	.string	"%03u,%03u %s, %s [%u, %u]"
	.section	.rodata.str1.8
	.align 8
.LC9:
	.string	"/home/saptarshi/Desktop/OpenPLC61850/utils/dnp3_src/cpp/libs/src/opendnp3/app/parsing/RangeParser.cpp(56)"
	.text
	.align 2
	.p2align 4
	.globl	_ZN8opendnp311RangeParser11ParseHeaderERN7openpal6RSliceERKNS_9NumParserERKNS_14ParserSettingsERKNS_12HeaderRecordEPNS1_6LoggerEPNS_12IAPDUHandlerE
	.type	_ZN8opendnp311RangeParser11ParseHeaderERN7openpal6RSliceERKNS_9NumParserERKNS_14ParserSettingsERKNS_12HeaderRecordEPNS1_6LoggerEPNS_12IAPDUHandlerE, @function
_ZN8opendnp311RangeParser11ParseHeaderERN7openpal6RSliceERKNS_9NumParserERKNS_14ParserSettingsERKNS_12HeaderRecordEPNS1_6LoggerEPNS_12IAPDUHandlerE:
.LFB2462:
	.cfi_startproc
	endbr64
	pushq	%r15
	.cfi_def_cfa_offset 16
	.cfi_offset 15, -16
	movq	%rdi, %r15
	movq	%rsi, %rdi
	pushq	%r14
	.cfi_def_cfa_offset 24
	.cfi_offset 14, -24
	movq	%r15, %rsi
	pushq	%r13
	.cfi_def_cfa_offset 32
	.cfi_offset 13, -32
	movq	%r8, %r13
	pushq	%r12
	.cfi_def_cfa_offset 40
	.cfi_offset 12, -40
	pushq	%rbp
	.cfi_def_cfa_offset 48
	.cfi_offset 6, -48
	movq	%rcx, %rbp
	movq	%r8, %rcx
	pushq	%rbx
	.cfi_def_cfa_offset 56
	.cfi_offset 3, -56
	movq	%rdx, %rbx
	subq	$216, %rsp
	.cfi_def_cfa_offset 272
	movq	%r9, (%rsp)
	leaq	44(%rsp), %r14
	movq	%r14, %rdx
	movq	%fs:40, %rax
	movq	%rax, 200(%rsp)
	xorl	%eax, %eax
	movl	$1, 44(%rsp)
	call	_ZNK8opendnp39NumParser10ParseRangeERN7openpal6RSliceERNS_5RangeEPNS1_6LoggerE@PLT
	movl	%eax, %r12d
	testb	%al, %al
	jne	.L586
	testq	%r13, %r13
	je	.L589
	leaq	48(%rsp), %r11
	movl	4(%rbx), %eax
	movq	%r13, %rdi
	movq	%r11, %rsi
	movq	%r11, 8(%rsp)
	movl	%eax, 48(%rsp)
	call	_ZNK7openpal6Logger9IsEnabledERKNS_10LogFiltersE@PLT
	movq	8(%rsp), %r11
	testb	%al, %al
	jne	.L602
.L589:
	cmpb	$0, (%rbx)
	jne	.L603
.L590:
	movq	(%rsp), %rdi
	testq	%rdi, %rdi
	je	.L586
	movdqu	0(%rbp), %xmm0
	movl	44(%rsp), %eax
	leaq	48(%rsp), %rsi
	movl	%eax, 64(%rsp)
	movaps	%xmm0, 48(%rsp)
	call	_ZN8opendnp312IAPDUHandler8OnHeaderERKNS_11RangeHeaderE@PLT
	.p2align 4,,10
	.p2align 3
.L586:
	movq	200(%rsp), %rax
	subq	%fs:40, %rax
	jne	.L604
	addq	$216, %rsp
	.cfi_remember_state
	.cfi_def_cfa_offset 56
	movl	%r12d, %eax
	popq	%rbx
	.cfi_def_cfa_offset 48
	popq	%rbp
	.cfi_def_cfa_offset 40
	popq	%r12
	.cfi_def_cfa_offset 32
	popq	%r13
	.cfi_def_cfa_offset 24
	popq	%r14
	.cfi_def_cfa_offset 16
	popq	%r15
	.cfi_def_cfa_offset 8
	ret
	.p2align 4,,10
	.p2align 3
.L603:
	.cfi_restore_state
	movq	(%rsp), %r8
	movq	%r13, %rcx
	movq	%r14, %rdx
	movq	%rbp, %rsi
	movq	%r15, %rdi
	call	_ZN8opendnp311RangeParser19ParseRangeOfObjectsERN7openpal6RSliceERKNS_12HeaderRecordERKNS_5RangeEPNS1_6LoggerEPNS_12IAPDUHandlerE@PLT
	movl	%eax, %r12d
	jmp	.L586
	.p2align 4,,10
	.p2align 3
.L602:
	movzwl	46(%rsp), %esi
	movzwl	44(%rsp), %ecx
	movq	%rbp, %rdi
	movq	%r11, 24(%rsp)
	movl	%esi, 20(%rsp)
	movl	%ecx, 16(%rsp)
	call	_ZNK8opendnp312HeaderRecord16GetQualifierCodeEv@PLT
	movl	%eax, %edi
	call	_ZN8opendnp321QualifierCodeToStringENS_13QualifierCodeE@PLT
	movzwl	0(%rbp), %edi
	movq	%rax, 8(%rsp)
	call	_ZN8opendnp322GroupVariationToStringENS_14GroupVariationE@PLT
	leaq	80(%rsp), %r10
	subq	$8, %rsp
	.cfi_def_cfa_offset 280
	movzbl	8(%rbp), %r9d
	movl	28(%rsp), %esi
	movq	%r10, %rdi
	leaq	.LC8(%rip), %r8
	pushq	%rsi
	.cfi_def_cfa_offset 288
	movl	32(%rsp), %ecx
	movl	$120, %esi
	pushq	%rcx
	.cfi_def_cfa_offset 296
	movq	32(%rsp), %rdx
	movl	$120, %ecx
	pushq	%rdx
	.cfi_def_cfa_offset 304
	movl	$1, %edx
	pushq	%rax
	.cfi_def_cfa_offset 312
	movzbl	9(%rbp), %eax
	pushq	%rax
	.cfi_def_cfa_offset 320
	xorl	%eax, %eax
	movq	%r10, 56(%rsp)
	call	__snprintf_chk@PLT
	movl	4(%rbx), %eax
	leaq	.LC9(%rip), %rdx
	movq	%r13, %rdi
	movl	%eax, 96(%rsp)
	movq	56(%rsp), %rcx
	addq	$48, %rsp
	.cfi_def_cfa_offset 272
	movq	24(%rsp), %rsi
	call	_ZN7openpal6Logger3LogERKNS_10LogFiltersEPKcS5_@PLT
	cmpb	$0, (%rbx)
	je	.L590
	jmp	.L603
.L604:
	call	__stack_chk_fail@PLT
	.cfi_endproc
.LFE2462:
	.size	_ZN8opendnp311RangeParser11ParseHeaderERN7openpal6RSliceERKNS_9NumParserERKNS_14ParserSettingsERKNS_12HeaderRecordEPNS1_6LoggerEPNS_12IAPDUHandlerE, .-_ZN8opendnp311RangeParser11ParseHeaderERN7openpal6RSliceERKNS_9NumParserERKNS_14ParserSettingsERKNS_12HeaderRecordEPNS1_6LoggerEPNS_12IAPDUHandlerE
	.weak	_ZTSN7openpal12StaticBufferILj255EEE
	.section	.rodata._ZTSN7openpal12StaticBufferILj255EEE,"aG",@progbits,_ZTSN7openpal12StaticBufferILj255EEE,comdat
	.align 32
	.type	_ZTSN7openpal12StaticBufferILj255EEE, @object
	.size	_ZTSN7openpal12StaticBufferILj255EEE, 33
_ZTSN7openpal12StaticBufferILj255EEE:
	.string	"N7openpal12StaticBufferILj255EEE"
	.weak	_ZTIN7openpal12StaticBufferILj255EEE
	.section	.data.rel.ro._ZTIN7openpal12StaticBufferILj255EEE,"awG",@progbits,_ZTIN7openpal12StaticBufferILj255EEE,comdat
	.align 8
	.type	_ZTIN7openpal12StaticBufferILj255EEE, @object
	.size	_ZTIN7openpal12StaticBufferILj255EEE, 16
_ZTIN7openpal12StaticBufferILj255EEE:
	.quad	_ZTVN10__cxxabiv117__class_type_infoE+16
	.quad	_ZTSN7openpal12StaticBufferILj255EEE
	.weak	_ZTSN8opendnp311ICollectionINS_7IndexedINS_11OctetStringEEEEE
	.section	.rodata._ZTSN8opendnp311ICollectionINS_7IndexedINS_11OctetStringEEEEE,"aG",@progbits,_ZTSN8opendnp311ICollectionINS_7IndexedINS_11OctetStringEEEEE,comdat
	.align 32
	.type	_ZTSN8opendnp311ICollectionINS_7IndexedINS_11OctetStringEEEEE, @object
	.size	_ZTSN8opendnp311ICollectionINS_7IndexedINS_11OctetStringEEEEE, 58
_ZTSN8opendnp311ICollectionINS_7IndexedINS_11OctetStringEEEEE:
	.string	"N8opendnp311ICollectionINS_7IndexedINS_11OctetStringEEEEE"
	.weak	_ZTIN8opendnp311ICollectionINS_7IndexedINS_11OctetStringEEEEE
	.section	.data.rel.ro._ZTIN8opendnp311ICollectionINS_7IndexedINS_11OctetStringEEEEE,"awG",@progbits,_ZTIN8opendnp311ICollectionINS_7IndexedINS_11OctetStringEEEEE,comdat
	.align 8
	.type	_ZTIN8opendnp311ICollectionINS_7IndexedINS_11OctetStringEEEEE, @object
	.size	_ZTIN8opendnp311ICollectionINS_7IndexedINS_11OctetStringEEEEE, 16
_ZTIN8opendnp311ICollectionINS_7IndexedINS_11OctetStringEEEEE:
	.quad	_ZTVN10__cxxabiv117__class_type_infoE+16
	.quad	_ZTSN8opendnp311ICollectionINS_7IndexedINS_11OctetStringEEEEE
	.section	.data.rel.ro,"aw"
	.align 8
	.type	_ZTIN8opendnp318BufferedCollectionINS_7IndexedINS_11OctetStringEEEZNS_11RangeParser21ParseRangeOfOctetDataERN7openpal6RSliceERKNS_12HeaderRecordERKNS_5RangeEPNS5_6LoggerEPNS_12IAPDUHandlerEEUlS7_jE_EE, @object
	.size	_ZTIN8opendnp318BufferedCollectionINS_7IndexedINS_11OctetStringEEEZNS_11RangeParser21ParseRangeOfOctetDataERN7openpal6RSliceERKNS_12HeaderRecordERKNS_5RangeEPNS5_6LoggerEPNS_12IAPDUHandlerEEUlS7_jE_EE, 24
_ZTIN8opendnp318BufferedCollectionINS_7IndexedINS_11OctetStringEEEZNS_11RangeParser21ParseRangeOfOctetDataERN7openpal6RSliceERKNS_12HeaderRecordERKNS_5RangeEPNS5_6LoggerEPNS_12IAPDUHandlerEEUlS7_jE_EE:
	.quad	_ZTVN10__cxxabiv120__si_class_type_infoE+16
	.quad	_ZTSN8opendnp318BufferedCollectionINS_7IndexedINS_11OctetStringEEEZNS_11RangeParser21ParseRangeOfOctetDataERN7openpal6RSliceERKNS_12HeaderRecordERKNS_5RangeEPNS5_6LoggerEPNS_12IAPDUHandlerEEUlS7_jE_EE
	.quad	_ZTIN8opendnp311ICollectionINS_7IndexedINS_11OctetStringEEEEE
	.section	.rodata
	.align 32
	.type	_ZTSN8opendnp318BufferedCollectionINS_7IndexedINS_11OctetStringEEEZNS_11RangeParser21ParseRangeOfOctetDataERN7openpal6RSliceERKNS_12HeaderRecordERKNS_5RangeEPNS5_6LoggerEPNS_12IAPDUHandlerEEUlS7_jE_EE, @object
	.size	_ZTSN8opendnp318BufferedCollectionINS_7IndexedINS_11OctetStringEEEZNS_11RangeParser21ParseRangeOfOctetDataERN7openpal6RSliceERKNS_12HeaderRecordERKNS_5RangeEPNS5_6LoggerEPNS_12IAPDUHandlerEEUlS7_jE_EE, 198
_ZTSN8opendnp318BufferedCollectionINS_7IndexedINS_11OctetStringEEEZNS_11RangeParser21ParseRangeOfOctetDataERN7openpal6RSliceERKNS_12HeaderRecordERKNS_5RangeEPNS5_6LoggerEPNS_12IAPDUHandlerEEUlS7_jE_EE:
	.string	"*N8opendnp318BufferedCollectionINS_7IndexedINS_11OctetStringEEEZNS_11RangeParser21ParseRangeOfOctetDataERN7openpal6RSliceERKNS_12HeaderRecordERKNS_5RangeEPNS5_6LoggerEPNS_12IAPDUHandlerEEUlS7_jE_EE"
	.weak	_ZTSN8opendnp311ICollectionINS_7IndexedINS_12Group121Var1EEEEE
	.section	.rodata._ZTSN8opendnp311ICollectionINS_7IndexedINS_12Group121Var1EEEEE,"aG",@progbits,_ZTSN8opendnp311ICollectionINS_7IndexedINS_12Group121Var1EEEEE,comdat
	.align 32
	.type	_ZTSN8opendnp311ICollectionINS_7IndexedINS_12Group121Var1EEEEE, @object
	.size	_ZTSN8opendnp311ICollectionINS_7IndexedINS_12Group121Var1EEEEE, 59
_ZTSN8opendnp311ICollectionINS_7IndexedINS_12Group121Var1EEEEE:
	.string	"N8opendnp311ICollectionINS_7IndexedINS_12Group121Var1EEEEE"
	.weak	_ZTIN8opendnp311ICollectionINS_7IndexedINS_12Group121Var1EEEEE
	.section	.data.rel.ro._ZTIN8opendnp311ICollectionINS_7IndexedINS_12Group121Var1EEEEE,"awG",@progbits,_ZTIN8opendnp311ICollectionINS_7IndexedINS_12Group121Var1EEEEE,comdat
	.align 8
	.type	_ZTIN8opendnp311ICollectionINS_7IndexedINS_12Group121Var1EEEEE, @object
	.size	_ZTIN8opendnp311ICollectionINS_7IndexedINS_12Group121Var1EEEEE, 16
_ZTIN8opendnp311ICollectionINS_7IndexedINS_12Group121Var1EEEEE:
	.quad	_ZTVN10__cxxabiv117__class_type_infoE+16
	.quad	_ZTSN8opendnp311ICollectionINS_7IndexedINS_12Group121Var1EEEEE
	.weak	_ZTSN8opendnp311ICollectionINS_7IndexedINS_15TimeAndIntervalEEEEE
	.section	.rodata._ZTSN8opendnp311ICollectionINS_7IndexedINS_15TimeAndIntervalEEEEE,"aG",@progbits,_ZTSN8opendnp311ICollectionINS_7IndexedINS_15TimeAndIntervalEEEEE,comdat
	.align 32
	.type	_ZTSN8opendnp311ICollectionINS_7IndexedINS_15TimeAndIntervalEEEEE, @object
	.size	_ZTSN8opendnp311ICollectionINS_7IndexedINS_15TimeAndIntervalEEEEE, 62
_ZTSN8opendnp311ICollectionINS_7IndexedINS_15TimeAndIntervalEEEEE:
	.string	"N8opendnp311ICollectionINS_7IndexedINS_15TimeAndIntervalEEEEE"
	.weak	_ZTIN8opendnp311ICollectionINS_7IndexedINS_15TimeAndIntervalEEEEE
	.section	.data.rel.ro._ZTIN8opendnp311ICollectionINS_7IndexedINS_15TimeAndIntervalEEEEE,"awG",@progbits,_ZTIN8opendnp311ICollectionINS_7IndexedINS_15TimeAndIntervalEEEEE,comdat
	.align 8
	.type	_ZTIN8opendnp311ICollectionINS_7IndexedINS_15TimeAndIntervalEEEEE, @object
	.size	_ZTIN8opendnp311ICollectionINS_7IndexedINS_15TimeAndIntervalEEEEE, 16
_ZTIN8opendnp311ICollectionINS_7IndexedINS_15TimeAndIntervalEEEEE:
	.quad	_ZTVN10__cxxabiv117__class_type_infoE+16
	.quad	_ZTSN8opendnp311ICollectionINS_7IndexedINS_15TimeAndIntervalEEEEE
	.weak	_ZTSN8opendnp311ICollectionINS_7IndexedINS_18AnalogOutputStatusEEEEE
	.section	.rodata._ZTSN8opendnp311ICollectionINS_7IndexedINS_18AnalogOutputStatusEEEEE,"aG",@progbits,_ZTSN8opendnp311ICollectionINS_7IndexedINS_18AnalogOutputStatusEEEEE,comdat
	.align 32
	.type	_ZTSN8opendnp311ICollectionINS_7IndexedINS_18AnalogOutputStatusEEEEE, @object
	.size	_ZTSN8opendnp311ICollectionINS_7IndexedINS_18AnalogOutputStatusEEEEE, 65
_ZTSN8opendnp311ICollectionINS_7IndexedINS_18AnalogOutputStatusEEEEE:
	.string	"N8opendnp311ICollectionINS_7IndexedINS_18AnalogOutputStatusEEEEE"
	.weak	_ZTIN8opendnp311ICollectionINS_7IndexedINS_18AnalogOutputStatusEEEEE
	.section	.data.rel.ro._ZTIN8opendnp311ICollectionINS_7IndexedINS_18AnalogOutputStatusEEEEE,"awG",@progbits,_ZTIN8opendnp311ICollectionINS_7IndexedINS_18AnalogOutputStatusEEEEE,comdat
	.align 8
	.type	_ZTIN8opendnp311ICollectionINS_7IndexedINS_18AnalogOutputStatusEEEEE, @object
	.size	_ZTIN8opendnp311ICollectionINS_7IndexedINS_18AnalogOutputStatusEEEEE, 16
_ZTIN8opendnp311ICollectionINS_7IndexedINS_18AnalogOutputStatusEEEEE:
	.quad	_ZTVN10__cxxabiv117__class_type_infoE+16
	.quad	_ZTSN8opendnp311ICollectionINS_7IndexedINS_18AnalogOutputStatusEEEEE
	.weak	_ZTSN8opendnp311ICollectionINS_7IndexedINS_6AnalogEEEEE
	.section	.rodata._ZTSN8opendnp311ICollectionINS_7IndexedINS_6AnalogEEEEE,"aG",@progbits,_ZTSN8opendnp311ICollectionINS_7IndexedINS_6AnalogEEEEE,comdat
	.align 32
	.type	_ZTSN8opendnp311ICollectionINS_7IndexedINS_6AnalogEEEEE, @object
	.size	_ZTSN8opendnp311ICollectionINS_7IndexedINS_6AnalogEEEEE, 52
_ZTSN8opendnp311ICollectionINS_7IndexedINS_6AnalogEEEEE:
	.string	"N8opendnp311ICollectionINS_7IndexedINS_6AnalogEEEEE"
	.weak	_ZTIN8opendnp311ICollectionINS_7IndexedINS_6AnalogEEEEE
	.section	.data.rel.ro._ZTIN8opendnp311ICollectionINS_7IndexedINS_6AnalogEEEEE,"awG",@progbits,_ZTIN8opendnp311ICollectionINS_7IndexedINS_6AnalogEEEEE,comdat
	.align 8
	.type	_ZTIN8opendnp311ICollectionINS_7IndexedINS_6AnalogEEEEE, @object
	.size	_ZTIN8opendnp311ICollectionINS_7IndexedINS_6AnalogEEEEE, 16
_ZTIN8opendnp311ICollectionINS_7IndexedINS_6AnalogEEEEE:
	.quad	_ZTVN10__cxxabiv117__class_type_infoE+16
	.quad	_ZTSN8opendnp311ICollectionINS_7IndexedINS_6AnalogEEEEE
	.weak	_ZTSN8opendnp311ICollectionINS_7IndexedINS_13FrozenCounterEEEEE
	.section	.rodata._ZTSN8opendnp311ICollectionINS_7IndexedINS_13FrozenCounterEEEEE,"aG",@progbits,_ZTSN8opendnp311ICollectionINS_7IndexedINS_13FrozenCounterEEEEE,comdat
	.align 32
	.type	_ZTSN8opendnp311ICollectionINS_7IndexedINS_13FrozenCounterEEEEE, @object
	.size	_ZTSN8opendnp311ICollectionINS_7IndexedINS_13FrozenCounterEEEEE, 60
_ZTSN8opendnp311ICollectionINS_7IndexedINS_13FrozenCounterEEEEE:
	.string	"N8opendnp311ICollectionINS_7IndexedINS_13FrozenCounterEEEEE"
	.weak	_ZTIN8opendnp311ICollectionINS_7IndexedINS_13FrozenCounterEEEEE
	.section	.data.rel.ro._ZTIN8opendnp311ICollectionINS_7IndexedINS_13FrozenCounterEEEEE,"awG",@progbits,_ZTIN8opendnp311ICollectionINS_7IndexedINS_13FrozenCounterEEEEE,comdat
	.align 8
	.type	_ZTIN8opendnp311ICollectionINS_7IndexedINS_13FrozenCounterEEEEE, @object
	.size	_ZTIN8opendnp311ICollectionINS_7IndexedINS_13FrozenCounterEEEEE, 16
_ZTIN8opendnp311ICollectionINS_7IndexedINS_13FrozenCounterEEEEE:
	.quad	_ZTVN10__cxxabiv117__class_type_infoE+16
	.quad	_ZTSN8opendnp311ICollectionINS_7IndexedINS_13FrozenCounterEEEEE
	.weak	_ZTSN8opendnp311ICollectionINS_7IndexedINS_7CounterEEEEE
	.section	.rodata._ZTSN8opendnp311ICollectionINS_7IndexedINS_7CounterEEEEE,"aG",@progbits,_ZTSN8opendnp311ICollectionINS_7IndexedINS_7CounterEEEEE,comdat
	.align 32
	.type	_ZTSN8opendnp311ICollectionINS_7IndexedINS_7CounterEEEEE, @object
	.size	_ZTSN8opendnp311ICollectionINS_7IndexedINS_7CounterEEEEE, 53
_ZTSN8opendnp311ICollectionINS_7IndexedINS_7CounterEEEEE:
	.string	"N8opendnp311ICollectionINS_7IndexedINS_7CounterEEEEE"
	.weak	_ZTIN8opendnp311ICollectionINS_7IndexedINS_7CounterEEEEE
	.section	.data.rel.ro._ZTIN8opendnp311ICollectionINS_7IndexedINS_7CounterEEEEE,"awG",@progbits,_ZTIN8opendnp311ICollectionINS_7IndexedINS_7CounterEEEEE,comdat
	.align 8
	.type	_ZTIN8opendnp311ICollectionINS_7IndexedINS_7CounterEEEEE, @object
	.size	_ZTIN8opendnp311ICollectionINS_7IndexedINS_7CounterEEEEE, 16
_ZTIN8opendnp311ICollectionINS_7IndexedINS_7CounterEEEEE:
	.quad	_ZTVN10__cxxabiv117__class_type_infoE+16
	.quad	_ZTSN8opendnp311ICollectionINS_7IndexedINS_7CounterEEEEE
	.weak	_ZTSN8opendnp311ICollectionINS_7IndexedINS_18BinaryOutputStatusEEEEE
	.section	.rodata._ZTSN8opendnp311ICollectionINS_7IndexedINS_18BinaryOutputStatusEEEEE,"aG",@progbits,_ZTSN8opendnp311ICollectionINS_7IndexedINS_18BinaryOutputStatusEEEEE,comdat
	.align 32
	.type	_ZTSN8opendnp311ICollectionINS_7IndexedINS_18BinaryOutputStatusEEEEE, @object
	.size	_ZTSN8opendnp311ICollectionINS_7IndexedINS_18BinaryOutputStatusEEEEE, 65
_ZTSN8opendnp311ICollectionINS_7IndexedINS_18BinaryOutputStatusEEEEE:
	.string	"N8opendnp311ICollectionINS_7IndexedINS_18BinaryOutputStatusEEEEE"
	.weak	_ZTIN8opendnp311ICollectionINS_7IndexedINS_18BinaryOutputStatusEEEEE
	.section	.data.rel.ro._ZTIN8opendnp311ICollectionINS_7IndexedINS_18BinaryOutputStatusEEEEE,"awG",@progbits,_ZTIN8opendnp311ICollectionINS_7IndexedINS_18BinaryOutputStatusEEEEE,comdat
	.align 8
	.type	_ZTIN8opendnp311ICollectionINS_7IndexedINS_18BinaryOutputStatusEEEEE, @object
	.size	_ZTIN8opendnp311ICollectionINS_7IndexedINS_18BinaryOutputStatusEEEEE, 16
_ZTIN8opendnp311ICollectionINS_7IndexedINS_18BinaryOutputStatusEEEEE:
	.quad	_ZTVN10__cxxabiv117__class_type_infoE+16
	.quad	_ZTSN8opendnp311ICollectionINS_7IndexedINS_18BinaryOutputStatusEEEEE
	.weak	_ZTSN8opendnp311ICollectionINS_7IndexedINS_15DoubleBitBinaryEEEEE
	.section	.rodata._ZTSN8opendnp311ICollectionINS_7IndexedINS_15DoubleBitBinaryEEEEE,"aG",@progbits,_ZTSN8opendnp311ICollectionINS_7IndexedINS_15DoubleBitBinaryEEEEE,comdat
	.align 32
	.type	_ZTSN8opendnp311ICollectionINS_7IndexedINS_15DoubleBitBinaryEEEEE, @object
	.size	_ZTSN8opendnp311ICollectionINS_7IndexedINS_15DoubleBitBinaryEEEEE, 62
_ZTSN8opendnp311ICollectionINS_7IndexedINS_15DoubleBitBinaryEEEEE:
	.string	"N8opendnp311ICollectionINS_7IndexedINS_15DoubleBitBinaryEEEEE"
