	.file	"DefaultListenCallbacks.cpp"
	.text
	.section	.text._ZN8asiodnp322DefaultListenCallbacksD2Ev,"axG",@progbits,_ZN8asiodnp322DefaultListenCallbacksD5Ev,comdat
	.align 2
	.p2align 4
	.weak	_ZN8asiodnp322DefaultListenCallbacksD2Ev
	.type	_ZN8asiodnp322DefaultListenCallbacksD2Ev, @function
_ZN8asiodnp322DefaultListenCallbacksD2Ev:
.LFB3353:
	.cfi_startproc
	endbr64
	ret
	.cfi_endproc
.LFE3353:
	.size	_ZN8asiodnp322DefaultListenCallbacksD2Ev, .-_ZN8asiodnp322DefaultListenCallbacksD2Ev
	.weak	_ZN8asiodnp322DefaultListenCallbacksD1Ev
	.set	_ZN8asiodnp322DefaultListenCallbacksD1Ev,_ZN8asiodnp322DefaultListenCallbacksD2Ev
	.text
	.align 2
	.p2align 4
	.globl	_ZN8asiodnp322DefaultListenCallbacks16AcceptConnectionEmRKNSt7__cxx1112basic_stringIcSt11char_traitsIcESaIcEEE
	.type	_ZN8asiodnp322DefaultListenCallbacks16AcceptConnectionEmRKNSt7__cxx1112basic_stringIcSt11char_traitsIcESaIcEEE, @function
_ZN8asiodnp322DefaultListenCallbacks16AcceptConnectionEmRKNSt7__cxx1112basic_stringIcSt11char_traitsIcESaIcEEE:
.LFB3362:
	.cfi_startproc
	endbr64
	movl	$1, %eax
	ret
	.cfi_endproc
.LFE3362:
	.size	_ZN8asiodnp322DefaultListenCallbacks16AcceptConnectionEmRKNSt7__cxx1112basic_stringIcSt11char_traitsIcESaIcEEE, .-_ZN8asiodnp322DefaultListenCallbacks16AcceptConnectionEmRKNSt7__cxx1112basic_stringIcSt11char_traitsIcESaIcEEE
	.globl	_ZN8asiodnp322DefaultListenCallbacks17AcceptCertificateEmRKNS_8X509InfoE
	.set	_ZN8asiodnp322DefaultListenCallbacks17AcceptCertificateEmRKNS_8X509InfoE,_ZN8asiodnp322DefaultListenCallbacks16AcceptConnectionEmRKNSt7__cxx1112basic_stringIcSt11char_traitsIcESaIcEEE
	.align 2
	.p2align 4
	.globl	_ZN8asiodnp322DefaultListenCallbacks17OnConnectionCloseEmRKSt10shared_ptrINS_14IMasterSessionEE
	.type	_ZN8asiodnp322DefaultListenCallbacks17OnConnectionCloseEmRKSt10shared_ptrINS_14IMasterSessionEE, @function
_ZN8asiodnp322DefaultListenCallbacks17OnConnectionCloseEmRKSt10shared_ptrINS_14IMasterSessionEE:
.LFB3372:
	.cfi_startproc
	endbr64
	ret
	.cfi_endproc
.LFE3372:
	.size	_ZN8asiodnp322DefaultListenCallbacks17OnConnectionCloseEmRKSt10shared_ptrINS_14IMasterSessionEE, .-_ZN8asiodnp322DefaultListenCallbacks17OnConnectionCloseEmRKSt10shared_ptrINS_14IMasterSessionEE
	.align 2
	.p2align 4
	.globl	_ZN8asiodnp322DefaultListenCallbacks18OnCertificateErrorEmRKNS_8X509InfoEi
	.type	_ZN8asiodnp322DefaultListenCallbacks18OnCertificateErrorEmRKNS_8X509InfoEi, @function
_ZN8asiodnp322DefaultListenCallbacks18OnCertificateErrorEmRKNS_8X509InfoEi:
.LFB3373:
	.cfi_startproc
	endbr64
	ret
	.cfi_endproc
.LFE3373:
	.size	_ZN8asiodnp322DefaultListenCallbacks18OnCertificateErrorEmRKNS_8X509InfoEi, .-_ZN8asiodnp322DefaultListenCallbacks18OnCertificateErrorEmRKNS_8X509InfoEi
	.section	.text._ZNSt23_Sp_counted_ptr_inplaceIN8asiodnp324DefaultMasterApplicationESaIS1_ELN9__gnu_cxx12_Lock_policyE2EED2Ev,"axG",@progbits,_ZNSt23_Sp_counted_ptr_inplaceIN8asiodnp324DefaultMasterApplicationESaIS1_ELN9__gnu_cxx12_Lock_policyE2EED5Ev,comdat
	.align 2
	.p2align 4
	.weak	_ZNSt23_Sp_counted_ptr_inplaceIN8asiodnp324DefaultMasterApplicationESaIS1_ELN9__gnu_cxx12_Lock_policyE2EED2Ev
	.type	_ZNSt23_Sp_counted_ptr_inplaceIN8asiodnp324DefaultMasterApplicationESaIS1_ELN9__gnu_cxx12_Lock_policyE2EED2Ev, @function
_ZNSt23_Sp_counted_ptr_inplaceIN8asiodnp324DefaultMasterApplicationESaIS1_ELN9__gnu_cxx12_Lock_policyE2EED2Ev:
.LFB4259:
	.cfi_startproc
	endbr64
	ret
	.cfi_endproc
.LFE4259:
	.size	_ZNSt23_Sp_counted_ptr_inplaceIN8asiodnp324DefaultMasterApplicationESaIS1_ELN9__gnu_cxx12_Lock_policyE2EED2Ev, .-_ZNSt23_Sp_counted_ptr_inplaceIN8asiodnp324DefaultMasterApplicationESaIS1_ELN9__gnu_cxx12_Lock_policyE2EED2Ev
	.weak	_ZNSt23_Sp_counted_ptr_inplaceIN8asiodnp324DefaultMasterApplicationESaIS1_ELN9__gnu_cxx12_Lock_policyE2EED1Ev
	.set	_ZNSt23_Sp_counted_ptr_inplaceIN8asiodnp324DefaultMasterApplicationESaIS1_ELN9__gnu_cxx12_Lock_policyE2EED1Ev,_ZNSt23_Sp_counted_ptr_inplaceIN8asiodnp324DefaultMasterApplicationESaIS1_ELN9__gnu_cxx12_Lock_policyE2EED2Ev
	.section	.text._ZNSt23_Sp_counted_ptr_inplaceIN8asiodnp324DefaultMasterApplicationESaIS1_ELN9__gnu_cxx12_Lock_policyE2EE10_M_disposeEv,"axG",@progbits,_ZNSt23_Sp_counted_ptr_inplaceIN8asiodnp324DefaultMasterApplicationESaIS1_ELN9__gnu_cxx12_Lock_policyE2EE10_M_disposeEv,comdat
	.align 2
	.p2align 4
	.weak	_ZNSt23_Sp_counted_ptr_inplaceIN8asiodnp324DefaultMasterApplicationESaIS1_ELN9__gnu_cxx12_Lock_policyE2EE10_M_disposeEv
	.type	_ZNSt23_Sp_counted_ptr_inplaceIN8asiodnp324DefaultMasterApplicationESaIS1_ELN9__gnu_cxx12_Lock_policyE2EE10_M_disposeEv, @function
_ZNSt23_Sp_counted_ptr_inplaceIN8asiodnp324DefaultMasterApplicationESaIS1_ELN9__gnu_cxx12_Lock_policyE2EE10_M_disposeEv:
.LFB4262:
	.cfi_startproc
	endbr64
	movq	16(%rdi), %rax
	leaq	16(%rdi), %r8
	movq	%r8, %rdi
	movq	32(%rax), %rax
	jmp	*%rax
	.cfi_endproc
.LFE4262:
	.size	_ZNSt23_Sp_counted_ptr_inplaceIN8asiodnp324DefaultMasterApplicationESaIS1_ELN9__gnu_cxx12_Lock_policyE2EE10_M_disposeEv, .-_ZNSt23_Sp_counted_ptr_inplaceIN8asiodnp324DefaultMasterApplicationESaIS1_ELN9__gnu_cxx12_Lock_policyE2EE10_M_disposeEv
	.section	.text._ZNSt23_Sp_counted_ptr_inplaceIN8asiodnp318PrintingSOEHandlerESaIS1_ELN9__gnu_cxx12_Lock_policyE2EED2Ev,"axG",@progbits,_ZNSt23_Sp_counted_ptr_inplaceIN8asiodnp318PrintingSOEHandlerESaIS1_ELN9__gnu_cxx12_Lock_policyE2EED5Ev,comdat
	.align 2
	.p2align 4
	.weak	_ZNSt23_Sp_counted_ptr_inplaceIN8asiodnp318PrintingSOEHandlerESaIS1_ELN9__gnu_cxx12_Lock_policyE2EED2Ev
	.type	_ZNSt23_Sp_counted_ptr_inplaceIN8asiodnp318PrintingSOEHandlerESaIS1_ELN9__gnu_cxx12_Lock_policyE2EED2Ev, @function
_ZNSt23_Sp_counted_ptr_inplaceIN8asiodnp318PrintingSOEHandlerESaIS1_ELN9__gnu_cxx12_Lock_policyE2EED2Ev:
.LFB4266:
	.cfi_startproc
	endbr64
	ret
	.cfi_endproc
.LFE4266:
	.size	_ZNSt23_Sp_counted_ptr_inplaceIN8asiodnp318PrintingSOEHandlerESaIS1_ELN9__gnu_cxx12_Lock_policyE2EED2Ev, .-_ZNSt23_Sp_counted_ptr_inplaceIN8asiodnp318PrintingSOEHandlerESaIS1_ELN9__gnu_cxx12_Lock_policyE2EED2Ev
	.weak	_ZNSt23_Sp_counted_ptr_inplaceIN8asiodnp318PrintingSOEHandlerESaIS1_ELN9__gnu_cxx12_Lock_policyE2EED1Ev
	.set	_ZNSt23_Sp_counted_ptr_inplaceIN8asiodnp318PrintingSOEHandlerESaIS1_ELN9__gnu_cxx12_Lock_policyE2EED1Ev,_ZNSt23_Sp_counted_ptr_inplaceIN8asiodnp318PrintingSOEHandlerESaIS1_ELN9__gnu_cxx12_Lock_policyE2EED2Ev
	.section	.text._ZNSt23_Sp_counted_ptr_inplaceIN8asiodnp318PrintingSOEHandlerESaIS1_ELN9__gnu_cxx12_Lock_policyE2EE10_M_disposeEv,"axG",@progbits,_ZNSt23_Sp_counted_ptr_inplaceIN8asiodnp318PrintingSOEHandlerESaIS1_ELN9__gnu_cxx12_Lock_policyE2EE10_M_disposeEv,comdat
	.align 2
	.p2align 4
	.weak	_ZNSt23_Sp_counted_ptr_inplaceIN8asiodnp318PrintingSOEHandlerESaIS1_ELN9__gnu_cxx12_Lock_policyE2EE10_M_disposeEv
	.type	_ZNSt23_Sp_counted_ptr_inplaceIN8asiodnp318PrintingSOEHandlerESaIS1_ELN9__gnu_cxx12_Lock_policyE2EE10_M_disposeEv, @function
_ZNSt23_Sp_counted_ptr_inplaceIN8asiodnp318PrintingSOEHandlerESaIS1_ELN9__gnu_cxx12_Lock_policyE2EE10_M_disposeEv:
.LFB4269:
	.cfi_startproc
	endbr64
	ret
	.cfi_endproc
.LFE4269:
	.size	_ZNSt23_Sp_counted_ptr_inplaceIN8asiodnp318PrintingSOEHandlerESaIS1_ELN9__gnu_cxx12_Lock_policyE2EE10_M_disposeEv, .-_ZNSt23_Sp_counted_ptr_inplaceIN8asiodnp318PrintingSOEHandlerESaIS1_ELN9__gnu_cxx12_Lock_policyE2EE10_M_disposeEv
	.text
	.align 2
	.p2align 4
	.globl	_ZN8asiodnp322DefaultListenCallbacks20GetFirstFrameTimeoutEv
	.type	_ZN8asiodnp322DefaultListenCallbacks20GetFirstFrameTimeoutEv, @function
_ZN8asiodnp322DefaultListenCallbacks20GetFirstFrameTimeoutEv:
.LFB3364:
	.cfi_startproc
	endbr64
	movl	$30, %edi
	jmp	_ZN7openpal12TimeDuration7SecondsEl@PLT
	.cfi_endproc
.LFE3364:
	.size	_ZN8asiodnp322DefaultListenCallbacks20GetFirstFrameTimeoutEv, .-_ZN8asiodnp322DefaultListenCallbacks20GetFirstFrameTimeoutEv
	.section	.text._ZNSt23_Sp_counted_ptr_inplaceIN8asiodnp318PrintingSOEHandlerESaIS1_ELN9__gnu_cxx12_Lock_policyE2EE14_M_get_deleterERKSt9type_info,"axG",@progbits,_ZNSt23_Sp_counted_ptr_inplaceIN8asiodnp318PrintingSOEHandlerESaIS1_ELN9__gnu_cxx12_Lock_policyE2EE14_M_get_deleterERKSt9type_info,comdat
	.align 2
	.p2align 4
	.weak	_ZNSt23_Sp_counted_ptr_inplaceIN8asiodnp318PrintingSOEHandlerESaIS1_ELN9__gnu_cxx12_Lock_policyE2EE14_M_get_deleterERKSt9type_info
	.type	_ZNSt23_Sp_counted_ptr_inplaceIN8asiodnp318PrintingSOEHandlerESaIS1_ELN9__gnu_cxx12_Lock_policyE2EE14_M_get_deleterERKSt9type_info, @function
_ZNSt23_Sp_counted_ptr_inplaceIN8asiodnp318PrintingSOEHandlerESaIS1_ELN9__gnu_cxx12_Lock_policyE2EE14_M_get_deleterERKSt9type_info:
.LFB4271:
	.cfi_startproc
	endbr64
	cmpq	_ZZNSt19_Sp_make_shared_tag5_S_tiEvE5__tag@GOTPCREL(%rip), %rsi
	pushq	%r12
	.cfi_def_cfa_offset 16
	.cfi_offset 12, -16
	leaq	16(%rdi), %r12
	je	.L11
	movq	8(%rsi), %rdi
	movq	_ZTSSt19_Sp_make_shared_tag@GOTPCREL(%rip), %rsi
	cmpq	%rsi, %rdi
	je	.L11
	cmpb	$42, (%rdi)
	je	.L13
	call	strcmp@PLT
	testl	%eax, %eax
	movl	$0, %eax
	cmovne	%rax, %r12
.L11:
	movq	%r12, %rax
	popq	%r12
	.cfi_remember_state
	.cfi_def_cfa_offset 8
	ret
	.p2align 4,,10
	.p2align 3
.L13:
	.cfi_restore_state
	xorl	%r12d, %r12d
	movq	%r12, %rax
	popq	%r12
	.cfi_def_cfa_offset 8
	ret
	.cfi_endproc
.LFE4271:
	.size	_ZNSt23_Sp_counted_ptr_inplaceIN8asiodnp318PrintingSOEHandlerESaIS1_ELN9__gnu_cxx12_Lock_policyE2EE14_M_get_deleterERKSt9type_info, .-_ZNSt23_Sp_counted_ptr_inplaceIN8asiodnp318PrintingSOEHandlerESaIS1_ELN9__gnu_cxx12_Lock_policyE2EE14_M_get_deleterERKSt9type_info
	.section	.text._ZN8asiodnp322DefaultListenCallbacksD0Ev,"axG",@progbits,_ZN8asiodnp322DefaultListenCallbacksD5Ev,comdat
	.align 2
	.p2align 4
	.weak	_ZN8asiodnp322DefaultListenCallbacksD0Ev
	.type	_ZN8asiodnp322DefaultListenCallbacksD0Ev, @function
_ZN8asiodnp322DefaultListenCallbacksD0Ev:
.LFB3355:
	.cfi_startproc
	endbr64
	movl	$8, %esi
	jmp	_ZdlPvm@PLT
	.cfi_endproc
.LFE3355:
	.size	_ZN8asiodnp322DefaultListenCallbacksD0Ev, .-_ZN8asiodnp322DefaultListenCallbacksD0Ev
	.section	.text._ZNSt23_Sp_counted_ptr_inplaceIN8asiodnp318PrintingSOEHandlerESaIS1_ELN9__gnu_cxx12_Lock_policyE2EED0Ev,"axG",@progbits,_ZNSt23_Sp_counted_ptr_inplaceIN8asiodnp318PrintingSOEHandlerESaIS1_ELN9__gnu_cxx12_Lock_policyE2EED5Ev,comdat
	.align 2
	.p2align 4
	.weak	_ZNSt23_Sp_counted_ptr_inplaceIN8asiodnp318PrintingSOEHandlerESaIS1_ELN9__gnu_cxx12_Lock_policyE2EED0Ev
	.type	_ZNSt23_Sp_counted_ptr_inplaceIN8asiodnp318PrintingSOEHandlerESaIS1_ELN9__gnu_cxx12_Lock_policyE2EED0Ev, @function
_ZNSt23_Sp_counted_ptr_inplaceIN8asiodnp318PrintingSOEHandlerESaIS1_ELN9__gnu_cxx12_Lock_policyE2EED0Ev:
.LFB4268:
	.cfi_startproc
	endbr64
	movl	$24, %esi
	jmp	_ZdlPvm@PLT
	.cfi_endproc
.LFE4268:
	.size	_ZNSt23_Sp_counted_ptr_inplaceIN8asiodnp318PrintingSOEHandlerESaIS1_ELN9__gnu_cxx12_Lock_policyE2EED0Ev, .-_ZNSt23_Sp_counted_ptr_inplaceIN8asiodnp318PrintingSOEHandlerESaIS1_ELN9__gnu_cxx12_Lock_policyE2EED0Ev
	.section	.text._ZNSt23_Sp_counted_ptr_inplaceIN8asiodnp324DefaultMasterApplicationESaIS1_ELN9__gnu_cxx12_Lock_policyE2EED0Ev,"axG",@progbits,_ZNSt23_Sp_counted_ptr_inplaceIN8asiodnp324DefaultMasterApplicationESaIS1_ELN9__gnu_cxx12_Lock_policyE2EED5Ev,comdat
	.align 2
	.p2align 4
	.weak	_ZNSt23_Sp_counted_ptr_inplaceIN8asiodnp324DefaultMasterApplicationESaIS1_ELN9__gnu_cxx12_Lock_policyE2EED0Ev
	.type	_ZNSt23_Sp_counted_ptr_inplaceIN8asiodnp324DefaultMasterApplicationESaIS1_ELN9__gnu_cxx12_Lock_policyE2EED0Ev, @function
_ZNSt23_Sp_counted_ptr_inplaceIN8asiodnp324DefaultMasterApplicationESaIS1_ELN9__gnu_cxx12_Lock_policyE2EED0Ev:
.LFB4261:
	.cfi_startproc
	endbr64
	movl	$32, %esi
	jmp	_ZdlPvm@PLT
	.cfi_endproc
.LFE4261:
	.size	_ZNSt23_Sp_counted_ptr_inplaceIN8asiodnp324DefaultMasterApplicationESaIS1_ELN9__gnu_cxx12_Lock_policyE2EED0Ev, .-_ZNSt23_Sp_counted_ptr_inplaceIN8asiodnp324DefaultMasterApplicationESaIS1_ELN9__gnu_cxx12_Lock_policyE2EED0Ev
	.section	.text._ZNSt23_Sp_counted_ptr_inplaceIN8asiodnp324DefaultMasterApplicationESaIS1_ELN9__gnu_cxx12_Lock_policyE2EE10_M_destroyEv,"axG",@progbits,_ZNSt23_Sp_counted_ptr_inplaceIN8asiodnp324DefaultMasterApplicationESaIS1_ELN9__gnu_cxx12_Lock_policyE2EE10_M_destroyEv,comdat
	.align 2
	.p2align 4
	.weak	_ZNSt23_Sp_counted_ptr_inplaceIN8asiodnp324DefaultMasterApplicationESaIS1_ELN9__gnu_cxx12_Lock_policyE2EE10_M_destroyEv
	.type	_ZNSt23_Sp_counted_ptr_inplaceIN8asiodnp324DefaultMasterApplicationESaIS1_ELN9__gnu_cxx12_Lock_policyE2EE10_M_destroyEv, @function
_ZNSt23_Sp_counted_ptr_inplaceIN8asiodnp324DefaultMasterApplicationESaIS1_ELN9__gnu_cxx12_Lock_policyE2EE10_M_destroyEv:
.LFB4263:
	.cfi_startproc
	endbr64
	movl	$32, %esi
	jmp	_ZdlPvm@PLT
	.cfi_endproc
.LFE4263:
	.size	_ZNSt23_Sp_counted_ptr_inplaceIN8asiodnp324DefaultMasterApplicationESaIS1_ELN9__gnu_cxx12_Lock_policyE2EE10_M_destroyEv, .-_ZNSt23_Sp_counted_ptr_inplaceIN8asiodnp324DefaultMasterApplicationESaIS1_ELN9__gnu_cxx12_Lock_policyE2EE10_M_destroyEv
	.section	.text._ZNSt23_Sp_counted_ptr_inplaceIN8asiodnp318PrintingSOEHandlerESaIS1_ELN9__gnu_cxx12_Lock_policyE2EE10_M_destroyEv,"axG",@progbits,_ZNSt23_Sp_counted_ptr_inplaceIN8asiodnp318PrintingSOEHandlerESaIS1_ELN9__gnu_cxx12_Lock_policyE2EE10_M_destroyEv,comdat
	.align 2
	.p2align 4
	.weak	_ZNSt23_Sp_counted_ptr_inplaceIN8asiodnp318PrintingSOEHandlerESaIS1_ELN9__gnu_cxx12_Lock_policyE2EE10_M_destroyEv
	.type	_ZNSt23_Sp_counted_ptr_inplaceIN8asiodnp318PrintingSOEHandlerESaIS1_ELN9__gnu_cxx12_Lock_policyE2EE10_M_destroyEv, @function
_ZNSt23_Sp_counted_ptr_inplaceIN8asiodnp318PrintingSOEHandlerESaIS1_ELN9__gnu_cxx12_Lock_policyE2EE10_M_destroyEv:
.LFB4270:
	.cfi_startproc
	endbr64
	movl	$24, %esi
	jmp	_ZdlPvm@PLT
	.cfi_endproc
.LFE4270:
	.size	_ZNSt23_Sp_counted_ptr_inplaceIN8asiodnp318PrintingSOEHandlerESaIS1_ELN9__gnu_cxx12_Lock_policyE2EE10_M_destroyEv, .-_ZNSt23_Sp_counted_ptr_inplaceIN8asiodnp318PrintingSOEHandlerESaIS1_ELN9__gnu_cxx12_Lock_policyE2EE10_M_destroyEv
	.section	.text._ZNSt23_Sp_counted_ptr_inplaceIN8asiodnp324DefaultMasterApplicationESaIS1_ELN9__gnu_cxx12_Lock_policyE2EE14_M_get_deleterERKSt9type_info,"axG",@progbits,_ZNSt23_Sp_counted_ptr_inplaceIN8asiodnp324DefaultMasterApplicationESaIS1_ELN9__gnu_cxx12_Lock_policyE2EE14_M_get_deleterERKSt9type_info,comdat
	.align 2
	.p2align 4
	.weak	_ZNSt23_Sp_counted_ptr_inplaceIN8asiodnp324DefaultMasterApplicationESaIS1_ELN9__gnu_cxx12_Lock_policyE2EE14_M_get_deleterERKSt9type_info
	.type	_ZNSt23_Sp_counted_ptr_inplaceIN8asiodnp324DefaultMasterApplicationESaIS1_ELN9__gnu_cxx12_Lock_policyE2EE14_M_get_deleterERKSt9type_info, @function
_ZNSt23_Sp_counted_ptr_inplaceIN8asiodnp324DefaultMasterApplicationESaIS1_ELN9__gnu_cxx12_Lock_policyE2EE14_M_get_deleterERKSt9type_info:
.LFB4264:
	.cfi_startproc
	endbr64
	cmpq	_ZZNSt19_Sp_make_shared_tag5_S_tiEvE5__tag@GOTPCREL(%rip), %rsi
	pushq	%r12
	.cfi_def_cfa_offset 16
	.cfi_offset 12, -16
	leaq	16(%rdi), %r12
	je	.L21
	movq	8(%rsi), %rdi
	movq	_ZTSSt19_Sp_make_shared_tag@GOTPCREL(%rip), %rsi
	cmpq	%rsi, %rdi
	je	.L21
	cmpb	$42, (%rdi)
	je	.L23
	call	strcmp@PLT
	testl	%eax, %eax
	movl	$0, %eax
	cmovne	%rax, %r12
.L21:
	movq	%r12, %rax
	popq	%r12
	.cfi_remember_state
	.cfi_def_cfa_offset 8
	ret
	.p2align 4,,10
	.p2align 3
.L23:
	.cfi_restore_state
	xorl	%r12d, %r12d
	movq	%r12, %rax
	popq	%r12
	.cfi_def_cfa_offset 8
	ret
	.cfi_endproc
.LFE4264:
	.size	_ZNSt23_Sp_counted_ptr_inplaceIN8asiodnp324DefaultMasterApplicationESaIS1_ELN9__gnu_cxx12_Lock_policyE2EE14_M_get_deleterERKSt9type_info, .-_ZNSt23_Sp_counted_ptr_inplaceIN8asiodnp324DefaultMasterApplicationESaIS1_ELN9__gnu_cxx12_Lock_policyE2EE14_M_get_deleterERKSt9type_info
	.text
	.align 2
	.p2align 4
	.globl	_ZN8asiodnp322DefaultListenCallbacksC2Ev
	.type	_ZN8asiodnp322DefaultListenCallbacksC2Ev, @function
_ZN8asiodnp322DefaultListenCallbacksC2Ev:
.LFB3360:
	.cfi_startproc
	endbr64
	movq	_ZTVN8asiodnp322DefaultListenCallbacksE@GOTPCREL(%rip), %rax
	addq	$16, %rax
	movq	%rax, (%rdi)
	ret
	.cfi_endproc
.LFE3360:
	.size	_ZN8asiodnp322DefaultListenCallbacksC2Ev, .-_ZN8asiodnp322DefaultListenCallbacksC2Ev
	.globl	_ZN8asiodnp322DefaultListenCallbacksC1Ev
	.set	_ZN8asiodnp322DefaultListenCallbacksC1Ev,_ZN8asiodnp322DefaultListenCallbacksC2Ev
	.section	.rodata.str1.1,"aMS",@progbits,1
.LC0:
	.string	"session-"
	.section	.text.unlikely,"ax",@progbits
	.align 2
.LCOLDB1:
	.text
.LHOTB1:
	.align 2
	.p2align 4
	.globl	_ZN8asiodnp322DefaultListenCallbacks17SessionIdToStringB5cxx11Em
	.type	_ZN8asiodnp322DefaultListenCallbacks17SessionIdToStringB5cxx11Em, @function
_ZN8asiodnp322DefaultListenCallbacks17SessionIdToStringB5cxx11Em:
.LFB3374:
	.cfi_startproc
	.cfi_personality 0x9b,DW.ref.__gxx_personality_v0
	.cfi_lsda 0x1b,.LLSDA3374
	endbr64
	pushq	%r15
	.cfi_def_cfa_offset 16
	.cfi_offset 15, -16
	pushq	%r14
	.cfi_def_cfa_offset 24
	.cfi_offset 14, -24
	movq	%rdx, %r14
	pushq	%r13
	.cfi_def_cfa_offset 32
	.cfi_offset 13, -32
	pushq	%r12
	.cfi_def_cfa_offset 40
	.cfi_offset 12, -40
	movq	%rdi, %r12
	pushq	%rbp
	.cfi_def_cfa_offset 48
	.cfi_offset 6, -48
	pushq	%rbx
	.cfi_def_cfa_offset 56
	.cfi_offset 3, -56
	subq	$440, %rsp
	.cfi_def_cfa_offset 496
	movq	%fs:40, %rax
	movq	%rax, 424(%rsp)
	movq	_ZTVNSt7__cxx1119basic_ostringstreamIcSt11char_traitsIcESaIcEEE@GOTPCREL(%rip), %rax
	leaq	160(%rsp), %r13
	leaq	48(%rsp), %rbp
	movq	%r13, %rdi
	addq	$24, %rax
	movq	%rax, %xmm0
	movq	_ZTVNSt7__cxx1115basic_stringbufIcSt11char_traitsIcESaIcEEE@GOTPCREL(%rip), %rax
	movdqa	%xmm0, %xmm1
	movdqa	%xmm0, %xmm2
	addq	$16, %rax
	movq	%rax, %xmm3
	movq	_ZTVSt15basic_streambufIcSt11char_traitsIcEE@GOTPCREL(%rip), %rax
	punpcklqdq	%xmm3, %xmm1
	addq	$16, %rax
	movaps	%xmm1, 32(%rsp)
	movq	%rax, %xmm4
	punpcklqdq	%xmm4, %xmm2
	movaps	%xmm2, 16(%rsp)
	call	_ZNSt8ios_baseC2Ev@PLT
	movq	_ZTVSt9basic_iosIcSt11char_traitsIcEE@GOTPCREL(%rip), %rax
	pxor	%xmm0, %xmm0
	xorl	%esi, %esi
	movups	%xmm0, 392(%rsp)
	addq	$16, %rax
	movups	%xmm0, 408(%rsp)
	movq	%rax, 160(%rsp)
	xorl	%eax, %eax
	movw	%ax, 384(%rsp)
	movq	_ZTTNSt7__cxx1119basic_ostringstreamIcSt11char_traitsIcESaIcEEE@GOTPCREL(%rip), %rax
	movq	$0, 376(%rsp)
	movq	8(%rax), %rbx
	movq	16(%rax), %rax
	movq	-24(%rbx), %rdi
	movq	%rbx, 48(%rsp)
	movq	%rax, 8(%rsp)
	addq	%rbp, %rdi
	movq	%rax, (%rdi)
.LEHB0:
	call	_ZNSt9basic_iosIcSt11char_traitsIcEE4initEPSt15basic_streambufIcS1_E@PLT
.LEHE0:
	movq	_ZTVNSt7__cxx1119basic_ostringstreamIcSt11char_traitsIcESaIcEEE@GOTPCREL(%rip), %rax
	movdqa	16(%rsp), %xmm2
	leaq	112(%rsp), %r15
	pxor	%xmm0, %xmm0
	movq	%r15, %rdi
	movaps	%xmm0, 64(%rsp)
	addq	$64, %rax
	movaps	%xmm2, 48(%rsp)
	movq	%rax, 160(%rsp)
	movaps	%xmm0, 80(%rsp)
	movaps	%xmm0, 96(%rsp)
	call	_ZNSt6localeC1Ev@PLT
	movq	_ZTVNSt7__cxx1115basic_stringbufIcSt11char_traitsIcESaIcEEE@GOTPCREL(%rip), %rax
	movq	%r13, %rdi
	leaq	56(%rsp), %rsi
	movl	$16, 120(%rsp)
	addq	$16, %rax
	movb	$0, 144(%rsp)
	movq	%rax, 56(%rsp)
	leaq	144(%rsp), %rax
	movq	%rax, 16(%rsp)
	movq	%rax, 128(%rsp)
	movq	$0, 136(%rsp)
.LEHB1:
	call	_ZNSt9basic_iosIcSt11char_traitsIcEE4initEPSt15basic_streambufIcS1_E@PLT
.LEHE1:
	movl	$8, %edx
	leaq	.LC0(%rip), %rsi
	movq	%rbp, %rdi
.LEHB2:
	call	_ZSt16__ostream_insertIcSt11char_traitsIcEERSt13basic_ostreamIT_T0_ES6_PKS3_l@PLT
	movq	%r14, %rsi
	movq	%rbp, %rdi
	call	_ZNSo9_M_insertImEERSoT_@PLT
.LEHE2:
	movq	96(%rsp), %rax
	leaq	16(%r12), %r14
	movq	$0, 8(%r12)
	movq	%r14, (%r12)
	movb	$0, 16(%r12)
	testq	%rax, %rax
	je	.L32
	movq	80(%rsp), %r8
	testq	%r8, %r8
	je	.L46
	cmpq	%r8, %rax
	ja	.L46
.L33:
	movq	88(%rsp), %rcx
	xorl	%edx, %edx
	xorl	%esi, %esi
	movq	%r12, %rdi
	subq	%rcx, %r8
.LEHB3:
	call	_ZNSt7__cxx1112basic_stringIcSt11char_traitsIcESaIcEE10_M_replaceEmmPKcm@PLT
.L37:
	movq	_ZTVNSt7__cxx1119basic_ostringstreamIcSt11char_traitsIcESaIcEEE@GOTPCREL(%rip), %rax
	movdqa	32(%rsp), %xmm5
	movq	128(%rsp), %rdi
	addq	$64, %rax
	movaps	%xmm5, 48(%rsp)
	movq	%rax, 160(%rsp)
	cmpq	16(%rsp), %rdi
	je	.L36
	movq	144(%rsp), %rax
	leaq	1(%rax), %rsi
	call	_ZdlPvm@PLT
.L36:
	movq	_ZTVSt15basic_streambufIcSt11char_traitsIcEE@GOTPCREL(%rip), %rax
	movq	%r15, %rdi
	addq	$16, %rax
	movq	%rax, 56(%rsp)
	call	_ZNSt6localeD1Ev@PLT
	movq	-24(%rbx), %rax
	movq	8(%rsp), %rcx
	movq	%r13, %rdi
	movq	%rbx, 48(%rsp)
	movq	%rcx, 48(%rsp,%rax)
	movq	_ZTVSt9basic_iosIcSt11char_traitsIcEE@GOTPCREL(%rip), %rax
	addq	$16, %rax
	movq	%rax, 160(%rsp)
	call	_ZNSt8ios_baseD2Ev@PLT
	movq	424(%rsp), %rax
	subq	%fs:40, %rax
	jne	.L53
	addq	$440, %rsp
	.cfi_remember_state
	.cfi_def_cfa_offset 56
	movq	%r12, %rax
	popq	%rbx
	.cfi_def_cfa_offset 48
	popq	%rbp
	.cfi_def_cfa_offset 40
	popq	%r12
	.cfi_def_cfa_offset 32
	popq	%r13
	.cfi_def_cfa_offset 24
	popq	%r14
	.cfi_def_cfa_offset 16
	popq	%r15
	.cfi_def_cfa_offset 8
	ret
	.p2align 4,,10
	.p2align 3
.L46:
	.cfi_restore_state
	movq	%rax, %r8
	jmp	.L33
	.p2align 4,,10
	.p2align 3
.L32:
	leaq	128(%rsp), %rsi
	movq	%r12, %rdi
	call	_ZNSt7__cxx1112basic_stringIcSt11char_traitsIcESaIcEE9_M_assignERKS4_@PLT
.LEHE3:
	jmp	.L37
.L53:
	call	__stack_chk_fail@PLT
.L42:
	endbr64
	movq	%rax, %r12
	jmp	.L40
.L45:
	endbr64
	movq	%rax, %rbx
	jmp	.L38
.L44:
	endbr64
	movq	%rax, %rbp
	jmp	.L29
.L43:
	endbr64
	movq	%rax, %rbp
	jmp	.L31
	.globl	__gxx_personality_v0
	.section	.gcc_except_table,"a",@progbits
.LLSDA3374:
	.byte	0xff
	.byte	0xff
	.byte	0x1
	.uleb128 .LLSDACSE3374-.LLSDACSB3374
.LLSDACSB3374:
	.uleb128 .LEHB0-.LFB3374
	.uleb128 .LEHE0-.LEHB0
	.uleb128 .L43-.LFB3374
	.uleb128 0
	.uleb128 .LEHB1-.LFB3374
	.uleb128 .LEHE1-.LEHB1
	.uleb128 .L44-.LFB3374
	.uleb128 0
	.uleb128 .LEHB2-.LFB3374
	.uleb128 .LEHE2-.LEHB2
	.uleb128 .L42-.LFB3374
	.uleb128 0
	.uleb128 .LEHB3-.LFB3374
	.uleb128 .LEHE3-.LEHB3
	.uleb128 .L45-.LFB3374
	.uleb128 0
.LLSDACSE3374:
	.text
	.cfi_endproc
	.section	.text.unlikely
	.cfi_startproc
	.cfi_personality 0x9b,DW.ref.__gxx_personality_v0
	.cfi_lsda 0x1b,.LLSDAC3374
	.type	_ZN8asiodnp322DefaultListenCallbacks17SessionIdToStringB5cxx11Em.cold, @function
_ZN8asiodnp322DefaultListenCallbacks17SessionIdToStringB5cxx11Em.cold:
.LFSB3374:
.L38:
	.cfi_def_cfa_offset 496
	.cfi_offset 3, -56
	.cfi_offset 6, -48
	.cfi_offset 12, -40
	.cfi_offset 13, -32
	.cfi_offset 14, -24
	.cfi_offset 15, -16
	movq	(%r12), %rdi
	cmpq	%rdi, %r14
	jne	.L54
.L39:
	movq	%rbx, %r12
.L40:
	movq	%rbp, %rdi
	call	_ZNSt7__cxx1119basic_ostringstreamIcSt11char_traitsIcESaIcEED1Ev@PLT
	movq	%r12, %rdi
.LEHB4:
	call	_Unwind_Resume@PLT
.L29:
	movq	_ZTVNSt7__cxx1115basic_stringbufIcSt11char_traitsIcESaIcEEE@GOTPCREL(%rip), %rax
	movq	128(%rsp), %rdi
	addq	$16, %rax
	movq	%rax, 56(%rsp)
	cmpq	16(%rsp), %rdi
	je	.L30
	movq	144(%rsp), %rax
	leaq	1(%rax), %rsi
	call	_ZdlPvm@PLT
.L30:
	movq	_ZTVSt15basic_streambufIcSt11char_traitsIcEE@GOTPCREL(%rip), %rax
	movq	%r15, %rdi
	addq	$16, %rax
	movq	%rax, 56(%rsp)
	call	_ZNSt6localeD1Ev@PLT
	movq	-24(%rbx), %rax
	movq	8(%rsp), %rdx
	movq	%rbx, 48(%rsp)
	movq	%rdx, 48(%rsp,%rax)
.L31:
	movq	_ZTVSt9basic_iosIcSt11char_traitsIcEE@GOTPCREL(%rip), %rax
	movq	%r13, %rdi
	addq	$16, %rax
	movq	%rax, 160(%rsp)
	call	_ZNSt8ios_baseD2Ev@PLT
	movq	%rbp, %rdi
	call	_Unwind_Resume@PLT
.LEHE4:
.L54:
	movq	16(%r12), %rsi
	addq	$1, %rsi
	call	_ZdlPvm@PLT
	jmp	.L39
	.cfi_endproc
.LFE3374:
	.section	.gcc_except_table
.LLSDAC3374:
	.byte	0xff
	.byte	0xff
	.byte	0x1
	.uleb128 .LLSDACSEC3374-.LLSDACSBC3374
.LLSDACSBC3374:
	.uleb128 .LEHB4-.LCOLDB1
	.uleb128 .LEHE4-.LEHB4
	.uleb128 0
	.uleb128 0
.LLSDACSEC3374:
	.section	.text.unlikely
	.text
	.size	_ZN8asiodnp322DefaultListenCallbacks17SessionIdToStringB5cxx11Em, .-_ZN8asiodnp322DefaultListenCallbacks17SessionIdToStringB5cxx11Em
	.section	.text.unlikely
	.size	_ZN8asiodnp322DefaultListenCallbacks17SessionIdToStringB5cxx11Em.cold, .-_ZN8asiodnp322DefaultListenCallbacks17SessionIdToStringB5cxx11Em.cold
.LCOLDE1:
	.text
.LHOTE1:
	.section	.text._ZNSt16_Sp_counted_baseILN9__gnu_cxx12_Lock_policyE2EE10_M_releaseEv,"axG",@progbits,_ZNSt16_Sp_counted_baseILN9__gnu_cxx12_Lock_policyE2EE10_M_releaseEv,comdat
	.align 2
	.p2align 4
	.weak	_ZNSt16_Sp_counted_baseILN9__gnu_cxx12_Lock_policyE2EE10_M_releaseEv
	.type	_ZNSt16_Sp_counted_baseILN9__gnu_cxx12_Lock_policyE2EE10_M_releaseEv, @function
_ZNSt16_Sp_counted_baseILN9__gnu_cxx12_Lock_policyE2EE10_M_releaseEv:
.LFB3837:
	.cfi_startproc
	endbr64
	pushq	%rbp
	.cfi_def_cfa_offset 16
	.cfi_offset 6, -16
	movq	%rdi, %rbp
	pushq	%rbx
	.cfi_def_cfa_offset 24
	.cfi_offset 3, -24
	subq	$8, %rsp
	.cfi_def_cfa_offset 32
	movq	__libc_single_threaded@GOTPCREL(%rip), %rbx
	cmpb	$0, (%rbx)
	je	.L56
	movl	8(%rdi), %eax
	leal	-1(%rax), %edx
	movl	%edx, 8(%rdi)
.L57:
	cmpl	$1, %eax
	je	.L64
.L55:
	addq	$8, %rsp
	.cfi_remember_state
	.cfi_def_cfa_offset 24
	popq	%rbx
	.cfi_def_cfa_offset 16
	popq	%rbp
	.cfi_def_cfa_offset 8
	ret
	.p2align 4,,10
	.p2align 3
.L64:
	.cfi_restore_state
	movq	0(%rbp), %rax
	movq	%rbp, %rdi
	call	*16(%rax)
	cmpb	$0, (%rbx)
	je	.L60
	movl	12(%rbp), %eax
	leal	-1(%rax), %edx
	movl	%edx, 12(%rbp)
.L61:
	cmpl	$1, %eax
	jne	.L55
	movq	0(%rbp), %rax
	movq	%rbp, %rdi
	movq	24(%rax), %rax
	addq	$8, %rsp
	.cfi_remember_state
	.cfi_def_cfa_offset 24
	popq	%rbx
	.cfi_def_cfa_offset 16
	popq	%rbp
	.cfi_def_cfa_offset 8
	jmp	*%rax
	.p2align 4,,10
	.p2align 3
.L56:
	.cfi_restore_state
	movl	$-1, %eax
	lock xaddl	%eax, 8(%rdi)
	jmp	.L57
	.p2align 4,,10
	.p2align 3
.L60:
	movl	$-1, %eax
	lock xaddl	%eax, 12(%rbp)
	jmp	.L61
	.cfi_endproc
.LFE3837:
	.size	_ZNSt16_Sp_counted_baseILN9__gnu_cxx12_Lock_policyE2EE10_M_releaseEv, .-_ZNSt16_Sp_counted_baseILN9__gnu_cxx12_Lock_policyE2EE10_M_releaseEv
	.section	.text.unlikely
	.align 2
.LCOLDB4:
	.text
.LHOTB4:
	.align 2
	.p2align 4
	.globl	_ZN8asiodnp322DefaultListenCallbacks12OnFirstFrameEmRKN8opendnp316LinkHeaderFieldsERNS_16ISessionAcceptorE
	.type	_ZN8asiodnp322DefaultListenCallbacks12OnFirstFrameEmRKN8opendnp316LinkHeaderFieldsERNS_16ISessionAcceptorE, @function
_ZN8asiodnp322DefaultListenCallbacks12OnFirstFrameEmRKN8opendnp316LinkHeaderFieldsERNS_16ISessionAcceptorE:
.LFB3365:
	.cfi_startproc
	.cfi_personality 0x9b,DW.ref.__gxx_personality_v0
	.cfi_lsda 0x1b,.LLSDA3365
	endbr64
	pushq	%r15
	.cfi_def_cfa_offset 16
	.cfi_offset 15, -16
	pushq	%r14
	.cfi_def_cfa_offset 24
	.cfi_offset 14, -24
	movq	%rsi, %r14
	pushq	%r13
	.cfi_def_cfa_offset 32
	.cfi_offset 13, -32
	movq	%rcx, %r13
	pushq	%r12
	.cfi_def_cfa_offset 40
	.cfi_offset 12, -40
	pushq	%rbp
	.cfi_def_cfa_offset 48
	.cfi_offset 6, -48
	pushq	%rbx
	.cfi_def_cfa_offset 56
	.cfi_offset 3, -56
	movq	%rdx, %rbx
	subq	$216, %rsp
	.cfi_def_cfa_offset 272
	movq	%rdi, 16(%rsp)
	movl	$5, %edi
	movq	%fs:40, %rax
	movq	%rax, 200(%rsp)
	xorl	%eax, %eax
.LEHB5:
	call	_ZN7openpal12TimeDuration7SecondsEl@PLT
	movb	$0, 90(%rsp)
	movq	%rax, 80(%rsp)
	movl	$256, %eax
	movw	%ax, 88(%rsp)
	call	_ZN8opendnp310ClassField15AllEventClassesEv@PLT
	movb	%al, 91(%rsp)
	call	_ZN8opendnp310ClassField10AllClassesEv@PLT
	movb	$1, 93(%rsp)
	movb	%al, 92(%rsp)
	call	_ZN8opendnp310ClassField4NoneEv@PLT
	movl	$5, %edi
	movb	%al, 94(%rsp)
	call	_ZN7openpal12TimeDuration7SecondsEl@PLT
	movl	$10, %edi
	movq	%rax, 96(%rsp)
	call	_ZN7openpal12TimeDuration7SecondsEl@PLT
	movl	$1, %edi
	movq	$1, 120(%rsp)
	movq	%rax, 104(%rsp)
	movq	.LC2(%rip), %rax
	movq	$67108865, 128(%rsp)
	movq	%rax, 112(%rsp)
	call	_ZN7openpal12TimeDuration7SecondsEl@PLT
	movl	$1, %edi
	movq	%rax, 136(%rsp)
	call	_ZN7openpal12TimeDuration7MinutesEl@PLT
	movl	$24, %edi
	movq	%rax, 144(%rsp)
	movl	4(%rbx), %eax
	movl	%eax, 128(%rsp)
	call	_Znwm@PLT
.LEHE5:
	movq	.LC3(%rip), %rbx
	movl	$32, %edi
	movq	%rax, %r12
	leaq	8(%rax), %rax
	movq	%rax, 8(%rsp)
	movq	_ZTVSt23_Sp_counted_ptr_inplaceIN8asiodnp318PrintingSOEHandlerESaIS1_ELN9__gnu_cxx12_Lock_policyE2EE@GOTPCREL(%rip), %rax
	movq	%rbx, 8(%r12)
	addq	$16, %rax
	movq	%rax, (%r12)
	movq	_ZTVN8asiodnp318PrintingSOEHandlerE@GOTPCREL(%rip), %rax
	addq	$16, %rax
	movq	%rax, 16(%r12)
.LEHB6:
	call	_Znwm@PLT
.LEHE6:
	movq	%rax, %rbp
	leaq	8(%rax), %rax
	movq	%rax, 24(%rsp)
	movq	_ZTVSt23_Sp_counted_ptr_inplaceIN8asiodnp324DefaultMasterApplicationESaIS1_ELN9__gnu_cxx12_Lock_policyE2EE@GOTPCREL(%rip), %rax
	movq	%rbp, %xmm2
	movq	%rbx, 8(%rbp)
	movq	__libc_single_threaded@GOTPCREL(%rip), %rbx
	addq	$16, %rax
	movq	%rax, 0(%rbp)
	movq	_ZTVN8asiodnp324DefaultMasterApplicationE@GOTPCREL(%rip), %rax
	leaq	144(%rax), %rdx
	addq	$16, %rax
	cmpb	$0, (%rbx)
	movq	%rax, %xmm0
	movq	0(%r13), %rax
	movq	%rdx, %xmm1
	punpcklqdq	%xmm1, %xmm0
	movq	16(%rax), %rax
	movups	%xmm0, 16(%rbp)
	movq	%rax, 8(%rsp)
	leaq	16(%rbp), %rax
	movq	%rax, %xmm0
	punpcklqdq	%xmm2, %xmm0
	movaps	%xmm0, 64(%rsp)
	je	.L66
	leaq	16(%r12), %rax
	movq	%r12, %xmm3
	movl	$2, 8(%rbp)
	movq	%rax, %xmm0
	punpcklqdq	%xmm3, %xmm0
	movaps	%xmm0, 48(%rsp)
.L67:
	addl	$1, 8(%r12)
.L69:
	leaq	160(%rsp), %r15
	movq	16(%rsp), %rsi
	movq	%r14, %rdx
	movq	%r15, %rdi
.LEHB7:
	call	_ZN8asiodnp322DefaultListenCallbacks17SessionIdToStringB5cxx11Em@PLT
.LEHE7:
	movq	8(%rsp), %rax
	leaq	32(%rsp), %rdi
	movq	%r15, %rdx
	movq	%r13, %rsi
	leaq	48(%rsp), %rcx
	leaq	80(%rsp), %r9
	leaq	64(%rsp), %r8
.LEHB8:
	call	*%rax
.LEHE8:
	movq	160(%rsp), %rdi
	leaq	176(%rsp), %rax
	cmpq	%rax, %rdi
	je	.L70
	movq	176(%rsp), %rax
	leaq	1(%rax), %rsi
	call	_ZdlPvm@PLT
.L70:
	movq	56(%rsp), %r13
	movzbl	(%rbx), %eax
	testq	%r13, %r13
	je	.L72
	testb	%al, %al
	je	.L73
	movl	8(%r13), %eax
	leal	-1(%rax), %edx
	movl	%edx, 8(%r13)
.L74:
	cmpl	$1, %eax
	je	.L128
.L72:
	movq	72(%rsp), %r13
	movzbl	(%rbx), %eax
	testq	%r13, %r13
	je	.L79
	testb	%al, %al
	je	.L80
	movl	8(%r13), %eax
	leal	-1(%rax), %edx
	movl	%edx, 8(%r13)
.L81:
	cmpl	$1, %eax
	je	.L129
.L79:
	movq	40(%rsp), %r13
	movzbl	(%rbx), %eax
	testq	%r13, %r13
	je	.L90
	testb	%al, %al
	je	.L86
	movl	8(%r13), %eax
	leal	-1(%rax), %edx
	movl	%edx, 8(%r13)
.L87:
	cmpl	$1, %eax
	je	.L130
.L90:
	cmpb	$0, (%rbx)
	je	.L131
	movl	8(%rbp), %eax
	leal	-1(%rax), %edx
	movl	%edx, 8(%rbp)
.L91:
	cmpl	$1, %eax
	je	.L132
.L95:
	cmpb	$0, (%rbx)
	je	.L133
	movl	8(%r12), %eax
	leal	-1(%rax), %edx
	movl	%edx, 8(%r12)
.L96:
	cmpl	$1, %eax
	je	.L134
.L65:
	movq	200(%rsp), %rax
	subq	%fs:40, %rax
	jne	.L135
	addq	$216, %rsp
	.cfi_remember_state
	.cfi_def_cfa_offset 56
	popq	%rbx
	.cfi_def_cfa_offset 48
	popq	%rbp
	.cfi_def_cfa_offset 40
	popq	%r12
	.cfi_def_cfa_offset 32
	popq	%r13
	.cfi_def_cfa_offset 24
	popq	%r14
	.cfi_def_cfa_offset 16
	popq	%r15
	.cfi_def_cfa_offset 8
	ret
	.p2align 4,,10
	.p2align 3
.L66:
	.cfi_restore_state
	lock addl	$1, 8(%rbp)
	cmpb	$0, (%rbx)
	leaq	16(%r12), %rax
	movq	%r12, %xmm4
	movq	%rax, %xmm0
	punpcklqdq	%xmm4, %xmm0
	movaps	%xmm0, 48(%rsp)
	jne	.L67
	lock addl	$1, 8(%r12)
	jmp	.L69
	.p2align 4,,10
	.p2align 3
.L134:
	movq	(%r12), %rax
	movq	%r12, %rdi
	call	*16(%rax)
	cmpb	$0, (%rbx)
	je	.L99
	movl	12(%r12), %eax
	leal	-1(%rax), %edx
	movl	%edx, 12(%r12)
.L100:
	cmpl	$1, %eax
	jne	.L65
	movq	(%r12), %rax
	movq	%r12, %rdi
	call	*24(%rax)
	jmp	.L65
	.p2align 4,,10
	.p2align 3
.L132:
	movq	0(%rbp), %rax
	movq	%rbp, %rdi
	call	*16(%rax)
	cmpb	$0, (%rbx)
	je	.L93
	movl	12(%rbp), %eax
	leal	-1(%rax), %edx
	movl	%edx, 12(%rbp)
.L94:
	cmpl	$1, %eax
	jne	.L95
	movq	0(%rbp), %rax
	movq	%rbp, %rdi
	call	*24(%rax)
	jmp	.L95
	.p2align 4,,10
	.p2align 3
.L130:
	movq	0(%r13), %rax
	movq	%r13, %rdi
	call	*16(%rax)
	cmpb	$0, (%rbx)
	je	.L88
	movl	12(%r13), %eax
	leal	-1(%rax), %edx
	movl	%edx, 12(%r13)
.L89:
	cmpl	$1, %eax
	jne	.L90
	movq	0(%r13), %rax
	movq	%r13, %rdi
	call	*24(%rax)
	jmp	.L90
	.p2align 4,,10
	.p2align 3
.L129:
	movq	0(%r13), %rax
	movq	%r13, %rdi
	call	*16(%rax)
	cmpb	$0, (%rbx)
	je	.L83
	movl	12(%r13), %eax
	leal	-1(%rax), %edx
	movl	%edx, 12(%r13)
.L84:
	cmpl	$1, %eax
	jne	.L79
	movq	0(%r13), %rax
	movq	%r13, %rdi
	call	*24(%rax)
	jmp	.L79
	.p2align 4,,10
	.p2align 3
.L128:
	movq	0(%r13), %rax
	movq	%r13, %rdi
	call	*16(%rax)
	cmpb	$0, (%rbx)
	je	.L76
	movl	12(%r13), %eax
	leal	-1(%rax), %edx
	movl	%edx, 12(%r13)
.L77:
	cmpl	$1, %eax
	jne	.L72
	movq	0(%r13), %rax
	movq	%r13, %rdi
	call	*24(%rax)
	jmp	.L72
	.p2align 4,,10
	.p2align 3
.L80:
	movl	$-1, %eax
	lock xaddl	%eax, 8(%r13)
	jmp	.L81
	.p2align 4,,10
	.p2align 3
.L133:
	leaq	8(%r12), %rcx
	movl	$-1, %eax
	lock xaddl	%eax, (%rcx)
	jmp	.L96
	.p2align 4,,10
	.p2align 3
.L131:
	movq	24(%rsp), %rcx
	movl	$-1, %eax
	lock xaddl	%eax, (%rcx)
	jmp	.L91
	.p2align 4,,10
	.p2align 3
.L86:
	movl	$-1, %eax
	lock xaddl	%eax, 8(%r13)
	jmp	.L87
	.p2align 4,,10
	.p2align 3
.L73:
	movl	$-1, %eax
	lock xaddl	%eax, 8(%r13)
	jmp	.L74
	.p2align 4,,10
	.p2align 3
.L99:
	movl	$-1, %eax
	lock xaddl	%eax, 12(%r12)
	jmp	.L100
	.p2align 4,,10
	.p2align 3
.L76:
	movl	$-1, %eax
	lock xaddl	%eax, 12(%r13)
	jmp	.L77
	.p2align 4,,10
	.p2align 3
.L83:
	movl	$-1, %eax
	lock xaddl	%eax, 12(%r13)
	jmp	.L84
	.p2align 4,,10
	.p2align 3
.L88:
	movl	$-1, %eax
	lock xaddl	%eax, 12(%r13)
	jmp	.L89
	.p2align 4,,10
	.p2align 3
.L93:
	movl	$-1, %eax
	lock xaddl	%eax, 12(%rbp)
	jmp	.L94
.L135:
	call	__stack_chk_fail@PLT
.L115:
	endbr64
	movq	%rax, %rbx
	jmp	.L102
.L113:
	endbr64
	movq	%rax, %rbx
	jmp	.L107
.L114:
	endbr64
	movq	%rax, %rbx
	jmp	.L104
	.section	.gcc_except_table
.LLSDA3365:
	.byte	0xff
	.byte	0xff
	.byte	0x1
	.uleb128 .LLSDACSE3365-.LLSDACSB3365
.LLSDACSB3365:
	.uleb128 .LEHB5-.LFB3365
	.uleb128 .LEHE5-.LEHB5
	.uleb128 0
	.uleb128 0
	.uleb128 .LEHB6-.LFB3365
	.uleb128 .LEHE6-.LEHB6
	.uleb128 .L113-.LFB3365
	.uleb128 0
	.uleb128 .LEHB7-.LFB3365
	.uleb128 .LEHE7-.LEHB7
	.uleb128 .L114-.LFB3365
	.uleb128 0
	.uleb128 .LEHB8-.LFB3365
	.uleb128 .LEHE8-.LEHB8
	.uleb128 .L115-.LFB3365
	.uleb128 0
.LLSDACSE3365:
	.text
	.cfi_endproc
	.section	.text.unlikely
	.cfi_startproc
	.cfi_personality 0x9b,DW.ref.__gxx_personality_v0
	.cfi_lsda 0x1b,.LLSDAC3365
	.type	_ZN8asiodnp322DefaultListenCallbacks12OnFirstFrameEmRKN8opendnp316LinkHeaderFieldsERNS_16ISessionAcceptorE.cold, @function
_ZN8asiodnp322DefaultListenCallbacks12OnFirstFrameEmRKN8opendnp316LinkHeaderFieldsERNS_16ISessionAcceptorE.cold:
.LFSB3365:
.L102:
	.cfi_def_cfa_offset 272
	.cfi_offset 3, -56
	.cfi_offset 6, -48
	.cfi_offset 12, -40
	.cfi_offset 13, -32
	.cfi_offset 14, -24
	.cfi_offset 15, -16
	movq	160(%rsp), %rdi
	leaq	176(%rsp), %rax
	cmpq	%rax, %rdi
	je	.L104
	movq	176(%rsp), %rax
	leaq	1(%rax), %rsi
	call	_ZdlPvm@PLT
.L104:
	movq	56(%rsp), %rdi
	testq	%rdi, %rdi
	je	.L105
	call	_ZNSt16_Sp_counted_baseILN9__gnu_cxx12_Lock_policyE2EE10_M_releaseEv@PLT
.L105:
	movq	72(%rsp), %rdi
	testq	%rdi, %rdi
	je	.L106
	call	_ZNSt16_Sp_counted_baseILN9__gnu_cxx12_Lock_policyE2EE10_M_releaseEv@PLT
.L106:
	movq	%rbp, %rdi
	call	_ZNSt16_Sp_counted_baseILN9__gnu_cxx12_Lock_policyE2EE10_M_releaseEv@PLT
.L107:
	movq	%r12, %rdi
	call	_ZNSt16_Sp_counted_baseILN9__gnu_cxx12_Lock_policyE2EE10_M_releaseEv@PLT
	movq	%rbx, %rdi
.LEHB9:
	call	_Unwind_Resume@PLT
.LEHE9:
	.cfi_endproc
.LFE3365:
	.section	.gcc_except_table
.LLSDAC3365:
	.byte	0xff
	.byte	0xff
	.byte	0x1
	.uleb128 .LLSDACSEC3365-.LLSDACSBC3365
.LLSDACSBC3365:
	.uleb128 .LEHB9-.LCOLDB4
	.uleb128 .LEHE9-.LEHB9
	.uleb128 0
	.uleb128 0
.LLSDACSEC3365:
	.section	.text.unlikely
	.text
	.size	_ZN8asiodnp322DefaultListenCallbacks12OnFirstFrameEmRKN8opendnp316LinkHeaderFieldsERNS_16ISessionAcceptorE, .-_ZN8asiodnp322DefaultListenCallbacks12OnFirstFrameEmRKN8opendnp316LinkHeaderFieldsERNS_16ISessionAcceptorE
	.section	.text.unlikely
	.size	_ZN8asiodnp322DefaultListenCallbacks12OnFirstFrameEmRKN8opendnp316LinkHeaderFieldsERNS_16ISessionAcceptorE.cold, .-_ZN8asiodnp322DefaultListenCallbacks12OnFirstFrameEmRKN8opendnp316LinkHeaderFieldsERNS_16ISessionAcceptorE.cold
.LCOLDE4:
	.text
.LHOTE4:
	.section	.text.startup,"ax",@progbits
	.p2align 4
	.type	_GLOBAL__sub_I_DefaultListenCallbacks.cpp, @function
_GLOBAL__sub_I_DefaultListenCallbacks.cpp:
.LFB4288:
	.cfi_startproc
	endbr64
	pushq	%rbp
	.cfi_def_cfa_offset 16
	.cfi_offset 6, -16
	movl	$5000, %edi
	leaq	_ZStL8__ioinit(%rip), %rbp
	call	_ZN7openpal12TimeDuration12MillisecondsEl@PLT
	movq	%rbp, %rdi
	call	_ZNSt8ios_base4InitC1Ev@PLT
	movq	_ZNSt8ios_base4InitD1Ev@GOTPCREL(%rip), %rdi
	movq	%rbp, %rsi
	popq	%rbp
	.cfi_def_cfa_offset 8
	leaq	__dso_handle(%rip), %rdx
	jmp	__cxa_atexit@PLT
	.cfi_endproc
.LFE4288:
	.size	_GLOBAL__sub_I_DefaultListenCallbacks.cpp, .-_GLOBAL__sub_I_DefaultListenCallbacks.cpp
	.section	.init_array,"aw"
	.align 8
	.quad	_GLOBAL__sub_I_DefaultListenCallbacks.cpp
	.weak	_ZTSSt11_Mutex_baseILN9__gnu_cxx12_Lock_policyE2EE
	.section	.rodata._ZTSSt11_Mutex_baseILN9__gnu_cxx12_Lock_policyE2EE,"aG",@progbits,_ZTSSt11_Mutex_baseILN9__gnu_cxx12_Lock_policyE2EE,comdat
	.align 32
	.type	_ZTSSt11_Mutex_baseILN9__gnu_cxx12_Lock_policyE2EE, @object
	.size	_ZTSSt11_Mutex_baseILN9__gnu_cxx12_Lock_policyE2EE, 47
_ZTSSt11_Mutex_baseILN9__gnu_cxx12_Lock_policyE2EE:
	.string	"St11_Mutex_baseILN9__gnu_cxx12_Lock_policyE2EE"
	.weak	_ZTISt11_Mutex_baseILN9__gnu_cxx12_Lock_policyE2EE
	.section	.data.rel.ro._ZTISt11_Mutex_baseILN9__gnu_cxx12_Lock_policyE2EE,"awG",@progbits,_ZTISt11_Mutex_baseILN9__gnu_cxx12_Lock_policyE2EE,comdat
	.align 8
	.type	_ZTISt11_Mutex_baseILN9__gnu_cxx12_Lock_policyE2EE, @object
	.size	_ZTISt11_Mutex_baseILN9__gnu_cxx12_Lock_policyE2EE, 16
_ZTISt11_Mutex_baseILN9__gnu_cxx12_Lock_policyE2EE:
	.quad	_ZTVN10__cxxabiv117__class_type_infoE+16
	.quad	_ZTSSt11_Mutex_baseILN9__gnu_cxx12_Lock_policyE2EE
	.weak	_ZTSSt19_Sp_make_shared_tag
	.section	.rodata._ZTSSt19_Sp_make_shared_tag,"aG",@progbits,_ZTSSt19_Sp_make_shared_tag,comdat
	.align 16
	.type	_ZTSSt19_Sp_make_shared_tag, @object
	.size	_ZTSSt19_Sp_make_shared_tag, 24
_ZTSSt19_Sp_make_shared_tag:
	.string	"St19_Sp_make_shared_tag"
	.weak	_ZTSSt16_Sp_counted_baseILN9__gnu_cxx12_Lock_policyE2EE
	.section	.rodata._ZTSSt16_Sp_counted_baseILN9__gnu_cxx12_Lock_policyE2EE,"aG",@progbits,_ZTSSt16_Sp_counted_baseILN9__gnu_cxx12_Lock_policyE2EE,comdat
	.align 32
	.type	_ZTSSt16_Sp_counted_baseILN9__gnu_cxx12_Lock_policyE2EE, @object
	.size	_ZTSSt16_Sp_counted_baseILN9__gnu_cxx12_Lock_policyE2EE, 52
_ZTSSt16_Sp_counted_baseILN9__gnu_cxx12_Lock_policyE2EE:
	.string	"St16_Sp_counted_baseILN9__gnu_cxx12_Lock_policyE2EE"
	.weak	_ZTISt16_Sp_counted_baseILN9__gnu_cxx12_Lock_policyE2EE
	.section	.data.rel.ro._ZTISt16_Sp_counted_baseILN9__gnu_cxx12_Lock_policyE2EE,"awG",@progbits,_ZTISt16_Sp_counted_baseILN9__gnu_cxx12_Lock_policyE2EE,comdat
	.align 8
	.type	_ZTISt16_Sp_counted_baseILN9__gnu_cxx12_Lock_policyE2EE, @object
	.size	_ZTISt16_Sp_counted_baseILN9__gnu_cxx12_Lock_policyE2EE, 24
_ZTISt16_Sp_counted_baseILN9__gnu_cxx12_Lock_policyE2EE:
	.quad	_ZTVN10__cxxabiv120__si_class_type_infoE+16
	.quad	_ZTSSt16_Sp_counted_baseILN9__gnu_cxx12_Lock_policyE2EE
	.quad	_ZTISt11_Mutex_baseILN9__gnu_cxx12_Lock_policyE2EE
	.weak	_ZTSN8asiodnp316IListenCallbacksE
	.section	.rodata._ZTSN8asiodnp316IListenCallbacksE,"aG",@progbits,_ZTSN8asiodnp316IListenCallbacksE,comdat
	.align 16
	.type	_ZTSN8asiodnp316IListenCallbacksE, @object
	.size	_ZTSN8asiodnp316IListenCallbacksE, 30
_ZTSN8asiodnp316IListenCallbacksE:
	.string	"N8asiodnp316IListenCallbacksE"
	.weak	_ZTIN8asiodnp316IListenCallbacksE
	.section	.data.rel.ro._ZTIN8asiodnp316IListenCallbacksE,"awG",@progbits,_ZTIN8asiodnp316IListenCallbacksE,comdat
	.align 8
	.type	_ZTIN8asiodnp316IListenCallbacksE, @object
	.size	_ZTIN8asiodnp316IListenCallbacksE, 16
_ZTIN8asiodnp316IListenCallbacksE:
	.quad	_ZTVN10__cxxabiv117__class_type_infoE+16
	.quad	_ZTSN8asiodnp316IListenCallbacksE
	.weak	_ZTSN8asiodnp322DefaultListenCallbacksE
	.section	.rodata._ZTSN8asiodnp322DefaultListenCallbacksE,"aG",@progbits,_ZTSN8asiodnp322DefaultListenCallbacksE,comdat
	.align 32
	.type	_ZTSN8asiodnp322DefaultListenCallbacksE, @object
	.size	_ZTSN8asiodnp322DefaultListenCallbacksE, 36
_ZTSN8asiodnp322DefaultListenCallbacksE:
	.string	"N8asiodnp322DefaultListenCallbacksE"
	.weak	_ZTIN8asiodnp322DefaultListenCallbacksE
	.section	.data.rel.ro._ZTIN8asiodnp322DefaultListenCallbacksE,"awG",@progbits,_ZTIN8asiodnp322DefaultListenCallbacksE,comdat
	.align 8
	.type	_ZTIN8asiodnp322DefaultListenCallbacksE, @object
	.size	_ZTIN8asiodnp322DefaultListenCallbacksE, 24
_ZTIN8asiodnp322DefaultListenCallbacksE:
	.quad	_ZTVN10__cxxabiv120__si_class_type_infoE+16
	.quad	_ZTSN8asiodnp322DefaultListenCallbacksE
	.quad	_ZTIN8asiodnp316IListenCallbacksE
	.weak	_ZTSSt23_Sp_counted_ptr_inplaceIN8asiodnp318PrintingSOEHandlerESaIS1_ELN9__gnu_cxx12_Lock_policyE2EE
	.section	.rodata._ZTSSt23_Sp_counted_ptr_inplaceIN8asiodnp318PrintingSOEHandlerESaIS1_ELN9__gnu_cxx12_Lock_policyE2EE,"aG",@progbits,_ZTSSt23_Sp_counted_ptr_inplaceIN8asiodnp318PrintingSOEHandlerESaIS1_ELN9__gnu_cxx12_Lock_policyE2EE,comdat
	.align 32
	.type	_ZTSSt23_Sp_counted_ptr_inplaceIN8asiodnp318PrintingSOEHandlerESaIS1_ELN9__gnu_cxx12_Lock_policyE2EE, @object
	.size	_ZTSSt23_Sp_counted_ptr_inplaceIN8asiodnp318PrintingSOEHandlerESaIS1_ELN9__gnu_cxx12_Lock_policyE2EE, 97
_ZTSSt23_Sp_counted_ptr_inplaceIN8asiodnp318PrintingSOEHandlerESaIS1_ELN9__gnu_cxx12_Lock_policyE2EE:
	.string	"St23_Sp_counted_ptr_inplaceIN8asiodnp318PrintingSOEHandlerESaIS1_ELN9__gnu_cxx12_Lock_policyE2EE"
	.weak	_ZTISt23_Sp_counted_ptr_inplaceIN8asiodnp318PrintingSOEHandlerESaIS1_ELN9__gnu_cxx12_Lock_policyE2EE
	.section	.data.rel.ro._ZTISt23_Sp_counted_ptr_inplaceIN8asiodnp318PrintingSOEHandlerESaIS1_ELN9__gnu_cxx12_Lock_policyE2EE,"awG",@progbits,_ZTISt23_Sp_counted_ptr_inplaceIN8asiodnp318PrintingSOEHandlerESaIS1_ELN9__gnu_cxx12_Lock_policyE2EE,comdat
	.align 8
	.type	_ZTISt23_Sp_counted_ptr_inplaceIN8asiodnp318PrintingSOEHandlerESaIS1_ELN9__gnu_cxx12_Lock_policyE2EE, @object
	.size	_ZTISt23_Sp_counted_ptr_inplaceIN8asiodnp318PrintingSOEHandlerESaIS1_ELN9__gnu_cxx12_Lock_policyE2EE, 24
_ZTISt23_Sp_counted_ptr_inplaceIN8asiodnp318PrintingSOEHandlerESaIS1_ELN9__gnu_cxx12_Lock_policyE2EE:
	.quad	_ZTVN10__cxxabiv120__si_class_type_infoE+16
	.quad	_ZTSSt23_Sp_counted_ptr_inplaceIN8asiodnp318PrintingSOEHandlerESaIS1_ELN9__gnu_cxx12_Lock_policyE2EE
	.quad	_ZTISt16_Sp_counted_baseILN9__gnu_cxx12_Lock_policyE2EE
	.weak	_ZTSSt23_Sp_counted_ptr_inplaceIN8asiodnp324DefaultMasterApplicationESaIS1_ELN9__gnu_cxx12_Lock_policyE2EE
	.section	.rodata._ZTSSt23_Sp_counted_ptr_inplaceIN8asiodnp324DefaultMasterApplicationESaIS1_ELN9__gnu_cxx12_Lock_policyE2EE,"aG",@progbits,_ZTSSt23_Sp_counted_ptr_inplaceIN8asiodnp324DefaultMasterApplicationESaIS1_ELN9__gnu_cxx12_Lock_policyE2EE,comdat
	.align 32
	.type	_ZTSSt23_Sp_counted_ptr_inplaceIN8asiodnp324DefaultMasterApplicationESaIS1_ELN9__gnu_cxx12_Lock_policyE2EE, @object
	.size	_ZTSSt23_Sp_counted_ptr_inplaceIN8asiodnp324DefaultMasterApplicationESaIS1_ELN9__gnu_cxx12_Lock_policyE2EE, 103
_ZTSSt23_Sp_counted_ptr_inplaceIN8asiodnp324DefaultMasterApplicationESaIS1_ELN9__gnu_cxx12_Lock_policyE2EE:
	.string	"St23_Sp_counted_ptr_inplaceIN8asiodnp324DefaultMasterApplicationESaIS1_ELN9__gnu_cxx12_Lock_policyE2EE"
	.weak	_ZTISt23_Sp_counted_ptr_inplaceIN8asiodnp324DefaultMasterApplicationESaIS1_ELN9__gnu_cxx12_Lock_policyE2EE
	.section	.data.rel.ro._ZTISt23_Sp_counted_ptr_inplaceIN8asiodnp324DefaultMasterApplicationESaIS1_ELN9__gnu_cxx12_Lock_policyE2EE,"awG",@progbits,_ZTISt23_Sp_counted_ptr_inplaceIN8asiodnp324DefaultMasterApplicationESaIS1_ELN9__gnu_cxx12_Lock_policyE2EE,comdat
	.align 8
	.type	_ZTISt23_Sp_counted_ptr_inplaceIN8asiodnp324DefaultMasterApplicationESaIS1_ELN9__gnu_cxx12_Lock_policyE2EE, @object
	.size	_ZTISt23_Sp_counted_ptr_inplaceIN8asiodnp324DefaultMasterApplicationESaIS1_ELN9__gnu_cxx12_Lock_policyE2EE, 24
_ZTISt23_Sp_counted_ptr_inplaceIN8asiodnp324DefaultMasterApplicationESaIS1_ELN9__gnu_cxx12_Lock_policyE2EE:
	.quad	_ZTVN10__cxxabiv120__si_class_type_infoE+16
	.quad	_ZTSSt23_Sp_counted_ptr_inplaceIN8asiodnp324DefaultMasterApplicationESaIS1_ELN9__gnu_cxx12_Lock_policyE2EE
	.quad	_ZTISt16_Sp_counted_baseILN9__gnu_cxx12_Lock_policyE2EE
	.weak	_ZTVN8asiodnp322DefaultListenCallbacksE
	.section	.data.rel.ro._ZTVN8asiodnp322DefaultListenCallbacksE,"awG",@progbits,_ZTVN8asiodnp322DefaultListenCallbacksE,comdat
	.align 8
	.type	_ZTVN8asiodnp322DefaultListenCallbacksE, @object
	.size	_ZTVN8asiodnp322DefaultListenCallbacksE, 80
_ZTVN8asiodnp322DefaultListenCallbacksE:
	.quad	0
	.quad	_ZTIN8asiodnp322DefaultListenCallbacksE
	.quad	_ZN8asiodnp322DefaultListenCallbacksD1Ev
	.quad	_ZN8asiodnp322DefaultListenCallbacksD0Ev
	.quad	_ZN8asiodnp322DefaultListenCallbacks16AcceptConnectionEmRKNSt7__cxx1112basic_stringIcSt11char_traitsIcESaIcEEE
	.quad	_ZN8asiodnp322DefaultListenCallbacks17AcceptCertificateEmRKNS_8X509InfoE
	.quad	_ZN8asiodnp322DefaultListenCallbacks20GetFirstFrameTimeoutEv
	.quad	_ZN8asiodnp322DefaultListenCallbacks12OnFirstFrameEmRKN8opendnp316LinkHeaderFieldsERNS_16ISessionAcceptorE
	.quad	_ZN8asiodnp322DefaultListenCallbacks17OnConnectionCloseEmRKSt10shared_ptrINS_14IMasterSessionEE
	.quad	_ZN8asiodnp322DefaultListenCallbacks18OnCertificateErrorEmRKNS_8X509InfoEi
	.weak	_ZTVSt23_Sp_counted_ptr_inplaceIN8asiodnp318PrintingSOEHandlerESaIS1_ELN9__gnu_cxx12_Lock_policyE2EE
	.section	.data.rel.ro._ZTVSt23_Sp_counted_ptr_inplaceIN8asiodnp318PrintingSOEHandlerESaIS1_ELN9__gnu_cxx12_Lock_policyE2EE,"awG",@progbits,_ZTVSt23_Sp_counted_ptr_inplaceIN8asiodnp318PrintingSOEHandlerESaIS1_ELN9__gnu_cxx12_Lock_policyE2EE,comdat
	.align 8
	.type	_ZTVSt23_Sp_counted_ptr_inplaceIN8asiodnp318PrintingSOEHandlerESaIS1_ELN9__gnu_cxx12_Lock_policyE2EE, @object
	.size	_ZTVSt23_Sp_counted_ptr_inplaceIN8asiodnp318PrintingSOEHandlerESaIS1_ELN9__gnu_cxx12_Lock_policyE2EE, 56
_ZTVSt23_Sp_counted_ptr_inplaceIN8asiodnp318PrintingSOEHandlerESaIS1_ELN9__gnu_cxx12_Lock_policyE2EE:
	.quad	0
	.quad	_ZTISt23_Sp_counted_ptr_inplaceIN8asiodnp318PrintingSOEHandlerESaIS1_ELN9__gnu_cxx12_Lock_policyE2EE
	.quad	_ZNSt23_Sp_counted_ptr_inplaceIN8asiodnp318PrintingSOEHandlerESaIS1_ELN9__gnu_cxx12_Lock_policyE2EED1Ev
	.quad	_ZNSt23_Sp_counted_ptr_inplaceIN8asiodnp318PrintingSOEHandlerESaIS1_ELN9__gnu_cxx12_Lock_policyE2EED0Ev
	.quad	_ZNSt23_Sp_counted_ptr_inplaceIN8asiodnp318PrintingSOEHandlerESaIS1_ELN9__gnu_cxx12_Lock_policyE2EE10_M_disposeEv
	.quad	_ZNSt23_Sp_counted_ptr_inplaceIN8asiodnp318PrintingSOEHandlerESaIS1_ELN9__gnu_cxx12_Lock_policyE2EE10_M_destroyEv
	.quad	_ZNSt23_Sp_counted_ptr_inplaceIN8asiodnp318PrintingSOEHandlerESaIS1_ELN9__gnu_cxx12_Lock_policyE2EE14_M_get_deleterERKSt9type_info
	.weak	_ZTVSt23_Sp_counted_ptr_inplaceIN8asiodnp324DefaultMasterApplicationESaIS1_ELN9__gnu_cxx12_Lock_policyE2EE
	.section	.data.rel.ro._ZTVSt23_Sp_counted_ptr_inplaceIN8asiodnp324DefaultMasterApplicationESaIS1_ELN9__gnu_cxx12_Lock_policyE2EE,"awG",@progbits,_ZTVSt23_Sp_counted_ptr_inplaceIN8asiodnp324DefaultMasterApplicationESaIS1_ELN9__gnu_cxx12_Lock_policyE2EE,comdat
	.align 8
	.type	_ZTVSt23_Sp_counted_ptr_inplaceIN8asiodnp324DefaultMasterApplicationESaIS1_ELN9__gnu_cxx12_Lock_policyE2EE, @object
	.size	_ZTVSt23_Sp_counted_ptr_inplaceIN8asiodnp324DefaultMasterApplicationESaIS1_ELN9__gnu_cxx12_Lock_policyE2EE, 56
_ZTVSt23_Sp_counted_ptr_inplaceIN8asiodnp324DefaultMasterApplicationESaIS1_ELN9__gnu_cxx12_Lock_policyE2EE:
	.quad	0
	.quad	_ZTISt23_Sp_counted_ptr_inplaceIN8asiodnp324DefaultMasterApplicationESaIS1_ELN9__gnu_cxx12_Lock_policyE2EE
	.quad	_ZNSt23_Sp_counted_ptr_inplaceIN8asiodnp324DefaultMasterApplicationESaIS1_ELN9__gnu_cxx12_Lock_policyE2EED1Ev
	.quad	_ZNSt23_Sp_counted_ptr_inplaceIN8asiodnp324DefaultMasterApplicationESaIS1_ELN9__gnu_cxx12_Lock_policyE2EED0Ev
	.quad	_ZNSt23_Sp_counted_ptr_inplaceIN8asiodnp324DefaultMasterApplicationESaIS1_ELN9__gnu_cxx12_Lock_policyE2EE10_M_disposeEv
	.quad	_ZNSt23_Sp_counted_ptr_inplaceIN8asiodnp324DefaultMasterApplicationESaIS1_ELN9__gnu_cxx12_Lock_policyE2EE10_M_destroyEv
	.quad	_ZNSt23_Sp_counted_ptr_inplaceIN8asiodnp324DefaultMasterApplicationESaIS1_ELN9__gnu_cxx12_Lock_policyE2EE14_M_get_deleterERKSt9type_info
	.local	_ZStL8__ioinit
	.comm	_ZStL8__ioinit,1,1
	.weak	_ZZNSt19_Sp_make_shared_tag5_S_tiEvE5__tag
	.section	.rodata._ZZNSt19_Sp_make_shared_tag5_S_tiEvE5__tag,"aG",@progbits,_ZZNSt19_Sp_make_shared_tag5_S_tiEvE5__tag,comdat
	.align 8
	.type	_ZZNSt19_Sp_make_shared_tag5_S_tiEvE5__tag, @gnu_unique_object
	.size	_ZZNSt19_Sp_make_shared_tag5_S_tiEvE5__tag, 16
_ZZNSt19_Sp_make_shared_tag5_S_tiEvE5__tag:
	.zero	16
	.section	.rodata.cst8,"aM",@progbits,8
	.align 8
.LC2:
	.long	2048
	.long	2048
	.align 8
.LC3:
	.long	1
	.long	1
	.hidden	DW.ref.__gxx_personality_v0
	.weak	DW.ref.__gxx_personality_v0
	.section	.data.rel.local.DW.ref.__gxx_personality_v0,"awG",@progbits,DW.ref.__gxx_personality_v0,comdat
	.align 8
	.type	DW.ref.__gxx_personality_v0, @object
	.size	DW.ref.__gxx_personality_v0, 8
DW.ref.__gxx_personality_v0:
	.quad	__gxx_personality_v0
	.hidden	__dso_handle
	.ident	"GCC: (Ubuntu 11.4.0-1ubuntu1~22.04) 11.4.0"
	.section	.note.GNU-stack,"",@progbits
	.section	.note.gnu.property,"a"
	.align 8
	.long	1f - 0f
	.long	4f - 1f
	.long	5
0:
	.string	"GNU"
1:
	.align 8
	.long	0xc0000002
	.long	3f - 2f
2:
	.long	0x3
3:
	.align 8
4:
