	.file	"DNP3Manager.cpp"
	.text
	.section	.rodata._ZNK4asio6detail15system_category4nameEv.str1.1,"aMS",@progbits,1
.LC0:
	.string	"asio.system"
	.section	.text._ZNK4asio6detail15system_category4nameEv,"axG",@progbits,_ZNK4asio6detail15system_category4nameEv,comdat
	.align 2
	.p2align 4
	.weak	_ZNK4asio6detail15system_category4nameEv
	.type	_ZNK4asio6detail15system_category4nameEv, @function
_ZNK4asio6detail15system_category4nameEv:
.LFB3511:
	.cfi_startproc
	endbr64
	leaq	.LC0(%rip), %rax
	ret
	.cfi_endproc
.LFE3511:
	.size	_ZNK4asio6detail15system_category4nameEv, .-_ZNK4asio6detail15system_category4nameEv
	.section	.rodata._ZNK4asio5error6detail14netdb_category4nameEv.str1.1,"aMS",@progbits,1
.LC1:
	.string	"asio.netdb"
	.section	.text._ZNK4asio5error6detail14netdb_category4nameEv,"axG",@progbits,_ZNK4asio5error6detail14netdb_category4nameEv,comdat
	.align 2
	.p2align 4
	.weak	_ZNK4asio5error6detail14netdb_category4nameEv
	.type	_ZNK4asio5error6detail14netdb_category4nameEv, @function
_ZNK4asio5error6detail14netdb_category4nameEv:
.LFB3551:
	.cfi_startproc
	endbr64
	leaq	.LC1(%rip), %rax
	ret
	.cfi_endproc
.LFE3551:
	.size	_ZNK4asio5error6detail14netdb_category4nameEv, .-_ZNK4asio5error6detail14netdb_category4nameEv
	.section	.rodata._ZNK4asio5error6detail17addrinfo_category4nameEv.str1.1,"aMS",@progbits,1
.LC2:
	.string	"asio.addrinfo"
	.section	.text._ZNK4asio5error6detail17addrinfo_category4nameEv,"axG",@progbits,_ZNK4asio5error6detail17addrinfo_category4nameEv,comdat
	.align 2
	.p2align 4
	.weak	_ZNK4asio5error6detail17addrinfo_category4nameEv
	.type	_ZNK4asio5error6detail17addrinfo_category4nameEv, @function
_ZNK4asio5error6detail17addrinfo_category4nameEv:
.LFB3557:
	.cfi_startproc
	endbr64
	leaq	.LC2(%rip), %rax
	ret
	.cfi_endproc
.LFE3557:
	.size	_ZNK4asio5error6detail17addrinfo_category4nameEv, .-_ZNK4asio5error6detail17addrinfo_category4nameEv
	.section	.rodata._ZNK4asio5error6detail13misc_category4nameEv.str1.1,"aMS",@progbits,1
.LC3:
	.string	"asio.misc"
	.section	.text._ZNK4asio5error6detail13misc_category4nameEv,"axG",@progbits,_ZNK4asio5error6detail13misc_category4nameEv,comdat
	.align 2
	.p2align 4
	.weak	_ZNK4asio5error6detail13misc_category4nameEv
	.type	_ZNK4asio5error6detail13misc_category4nameEv, @function
_ZNK4asio5error6detail13misc_category4nameEv:
.LFB3563:
	.cfi_startproc
	endbr64
	leaq	.LC3(%rip), %rax
	ret
	.cfi_endproc
.LFE3563:
	.size	_ZNK4asio5error6detail13misc_category4nameEv, .-_ZNK4asio5error6detail13misc_category4nameEv
	.section	.text._ZN4asio6detail7tss_ptrINS0_10call_stackINS0_15task_io_serviceENS0_27task_io_service_thread_infoEE7contextEED2Ev,"axG",@progbits,_ZN4asio6detail7tss_ptrINS0_10call_stackINS0_15task_io_serviceENS0_27task_io_service_thread_infoEE7contextEED5Ev,comdat
	.align 2
	.p2align 4
	.weak	_ZN4asio6detail7tss_ptrINS0_10call_stackINS0_15task_io_serviceENS0_27task_io_service_thread_infoEE7contextEED2Ev
	.type	_ZN4asio6detail7tss_ptrINS0_10call_stackINS0_15task_io_serviceENS0_27task_io_service_thread_infoEE7contextEED2Ev, @function
_ZN4asio6detail7tss_ptrINS0_10call_stackINS0_15task_io_serviceENS0_27task_io_service_thread_infoEE7contextEED2Ev:
.LFB10454:
	.cfi_startproc
	endbr64
	ret
	.cfi_endproc
.LFE10454:
	.size	_ZN4asio6detail7tss_ptrINS0_10call_stackINS0_15task_io_serviceENS0_27task_io_service_thread_infoEE7contextEED2Ev, .-_ZN4asio6detail7tss_ptrINS0_10call_stackINS0_15task_io_serviceENS0_27task_io_service_thread_infoEE7contextEED2Ev
	.weak	_ZN4asio6detail7tss_ptrINS0_10call_stackINS0_15task_io_serviceENS0_27task_io_service_thread_infoEE7contextEED1Ev
	.set	_ZN4asio6detail7tss_ptrINS0_10call_stackINS0_15task_io_serviceENS0_27task_io_service_thread_infoEE7contextEED1Ev,_ZN4asio6detail7tss_ptrINS0_10call_stackINS0_15task_io_serviceENS0_27task_io_service_thread_infoEE7contextEED2Ev
	.section	.text._ZN4asio6detail10service_idINS0_13epoll_reactorEED2Ev,"axG",@progbits,_ZN4asio6detail10service_idINS0_13epoll_reactorEED5Ev,comdat
	.align 2
	.p2align 4
	.weak	_ZN4asio6detail10service_idINS0_13epoll_reactorEED2Ev
	.type	_ZN4asio6detail10service_idINS0_13epoll_reactorEED2Ev, @function
_ZN4asio6detail10service_idINS0_13epoll_reactorEED2Ev:
.LFB10457:
	.cfi_startproc
	endbr64
	ret
	.cfi_endproc
.LFE10457:
	.size	_ZN4asio6detail10service_idINS0_13epoll_reactorEED2Ev, .-_ZN4asio6detail10service_idINS0_13epoll_reactorEED2Ev
	.weak	_ZN4asio6detail10service_idINS0_13epoll_reactorEED1Ev
	.set	_ZN4asio6detail10service_idINS0_13epoll_reactorEED1Ev,_ZN4asio6detail10service_idINS0_13epoll_reactorEED2Ev
	.section	.text._ZN4asio6detail10service_idINS0_15task_io_serviceEED2Ev,"axG",@progbits,_ZN4asio6detail10service_idINS0_15task_io_serviceEED5Ev,comdat
	.align 2
	.p2align 4
	.weak	_ZN4asio6detail10service_idINS0_15task_io_serviceEED2Ev
	.type	_ZN4asio6detail10service_idINS0_15task_io_serviceEED2Ev, @function
_ZN4asio6detail10service_idINS0_15task_io_serviceEED2Ev:
.LFB10460:
	.cfi_startproc
	endbr64
	ret
	.cfi_endproc
.LFE10460:
	.size	_ZN4asio6detail10service_idINS0_15task_io_serviceEED2Ev, .-_ZN4asio6detail10service_idINS0_15task_io_serviceEED2Ev
	.weak	_ZN4asio6detail10service_idINS0_15task_io_serviceEED1Ev
	.set	_ZN4asio6detail10service_idINS0_15task_io_serviceEED1Ev,_ZN4asio6detail10service_idINS0_15task_io_serviceEED2Ev
	.section	.text._ZN4asio6detail7tss_ptrINS0_10call_stackINS0_14strand_service11strand_implEhE7contextEED2Ev,"axG",@progbits,_ZN4asio6detail7tss_ptrINS0_10call_stackINS0_14strand_service11strand_implEhE7contextEED5Ev,comdat
	.align 2
	.p2align 4
	.weak	_ZN4asio6detail7tss_ptrINS0_10call_stackINS0_14strand_service11strand_implEhE7contextEED2Ev
	.type	_ZN4asio6detail7tss_ptrINS0_10call_stackINS0_14strand_service11strand_implEhE7contextEED2Ev, @function
_ZN4asio6detail7tss_ptrINS0_10call_stackINS0_14strand_service11strand_implEhE7contextEED2Ev:
.LFB10463:
	.cfi_startproc
	endbr64
	ret
	.cfi_endproc
.LFE10463:
	.size	_ZN4asio6detail7tss_ptrINS0_10call_stackINS0_14strand_service11strand_implEhE7contextEED2Ev, .-_ZN4asio6detail7tss_ptrINS0_10call_stackINS0_14strand_service11strand_implEhE7contextEED2Ev
	.weak	_ZN4asio6detail7tss_ptrINS0_10call_stackINS0_14strand_service11strand_implEhE7contextEED1Ev
	.set	_ZN4asio6detail7tss_ptrINS0_10call_stackINS0_14strand_service11strand_implEhE7contextEED1Ev,_ZN4asio6detail7tss_ptrINS0_10call_stackINS0_14strand_service11strand_implEhE7contextEED2Ev
	.section	.text._ZN4asio6detail10service_idINS0_14strand_serviceEED2Ev,"axG",@progbits,_ZN4asio6detail10service_idINS0_14strand_serviceEED5Ev,comdat
	.align 2
	.p2align 4
	.weak	_ZN4asio6detail10service_idINS0_14strand_serviceEED2Ev
	.type	_ZN4asio6detail10service_idINS0_14strand_serviceEED2Ev, @function
_ZN4asio6detail10service_idINS0_14strand_serviceEED2Ev:
.LFB10466:
	.cfi_startproc
	endbr64
	ret
	.cfi_endproc
.LFE10466:
	.size	_ZN4asio6detail10service_idINS0_14strand_serviceEED2Ev, .-_ZN4asio6detail10service_idINS0_14strand_serviceEED2Ev
	.weak	_ZN4asio6detail10service_idINS0_14strand_serviceEED1Ev
	.set	_ZN4asio6detail10service_idINS0_14strand_serviceEED1Ev,_ZN4asio6detail10service_idINS0_14strand_serviceEED2Ev
	.section	.text._ZN4asio6detail15system_categoryD2Ev,"axG",@progbits,_ZN4asio6detail15system_categoryD5Ev,comdat
	.align 2
	.p2align 4
	.weak	_ZN4asio6detail15system_categoryD2Ev
	.type	_ZN4asio6detail15system_categoryD2Ev, @function
_ZN4asio6detail15system_categoryD2Ev:
.LFB10429:
	.cfi_startproc
	endbr64
	movq	_ZTVN4asio6detail15system_categoryE@GOTPCREL(%rip), %rax
	addq	$16, %rax
	movq	%rax, (%rdi)
	jmp	_ZNSt3_V214error_categoryD2Ev@PLT
	.cfi_endproc
.LFE10429:
	.size	_ZN4asio6detail15system_categoryD2Ev, .-_ZN4asio6detail15system_categoryD2Ev
	.weak	_ZN4asio6detail15system_categoryD1Ev
	.set	_ZN4asio6detail15system_categoryD1Ev,_ZN4asio6detail15system_categoryD2Ev
	.section	.text._ZN4asio6detail15system_categoryD0Ev,"axG",@progbits,_ZN4asio6detail15system_categoryD5Ev,comdat
	.align 2
	.p2align 4
	.weak	_ZN4asio6detail15system_categoryD0Ev
	.type	_ZN4asio6detail15system_categoryD0Ev, @function
_ZN4asio6detail15system_categoryD0Ev:
.LFB10431:
	.cfi_startproc
	endbr64
	movq	_ZTVN4asio6detail15system_categoryE@GOTPCREL(%rip), %rax
	pushq	%rbp
	.cfi_def_cfa_offset 16
	.cfi_offset 6, -16
	movq	%rdi, %rbp
	addq	$16, %rax
	movq	%rax, (%rdi)
	call	_ZNSt3_V214error_categoryD2Ev@PLT
	movq	%rbp, %rdi
	movl	$8, %esi
	popq	%rbp
	.cfi_def_cfa_offset 8
	jmp	_ZdlPvm@PLT
	.cfi_endproc
.LFE10431:
	.size	_ZN4asio6detail15system_categoryD0Ev, .-_ZN4asio6detail15system_categoryD0Ev
	.section	.text._ZN4asio5error6detail14netdb_categoryD2Ev,"axG",@progbits,_ZN4asio5error6detail14netdb_categoryD5Ev,comdat
	.align 2
	.p2align 4
	.weak	_ZN4asio5error6detail14netdb_categoryD2Ev
	.type	_ZN4asio5error6detail14netdb_categoryD2Ev, @function
_ZN4asio5error6detail14netdb_categoryD2Ev:
.LFB10417:
	.cfi_startproc
	endbr64
	movq	_ZTVN4asio5error6detail14netdb_categoryE@GOTPCREL(%rip), %rax
	addq	$16, %rax
	movq	%rax, (%rdi)
	jmp	_ZNSt3_V214error_categoryD2Ev@PLT
	.cfi_endproc
.LFE10417:
	.size	_ZN4asio5error6detail14netdb_categoryD2Ev, .-_ZN4asio5error6detail14netdb_categoryD2Ev
	.weak	_ZN4asio5error6detail14netdb_categoryD1Ev
	.set	_ZN4asio5error6detail14netdb_categoryD1Ev,_ZN4asio5error6detail14netdb_categoryD2Ev
	.section	.text._ZN4asio5error6detail14netdb_categoryD0Ev,"axG",@progbits,_ZN4asio5error6detail14netdb_categoryD5Ev,comdat
	.align 2
	.p2align 4
	.weak	_ZN4asio5error6detail14netdb_categoryD0Ev
	.type	_ZN4asio5error6detail14netdb_categoryD0Ev, @function
_ZN4asio5error6detail14netdb_categoryD0Ev:
.LFB10419:
	.cfi_startproc
	endbr64
	movq	_ZTVN4asio5error6detail14netdb_categoryE@GOTPCREL(%rip), %rax
	pushq	%rbp
	.cfi_def_cfa_offset 16
	.cfi_offset 6, -16
	movq	%rdi, %rbp
	addq	$16, %rax
	movq	%rax, (%rdi)
	call	_ZNSt3_V214error_categoryD2Ev@PLT
	movq	%rbp, %rdi
	movl	$8, %esi
	popq	%rbp
	.cfi_def_cfa_offset 8
	jmp	_ZdlPvm@PLT
	.cfi_endproc
.LFE10419:
	.size	_ZN4asio5error6detail14netdb_categoryD0Ev, .-_ZN4asio5error6detail14netdb_categoryD0Ev
	.section	.text._ZN4asio5error6detail17addrinfo_categoryD2Ev,"axG",@progbits,_ZN4asio5error6detail17addrinfo_categoryD5Ev,comdat
	.align 2
	.p2align 4
	.weak	_ZN4asio5error6detail17addrinfo_categoryD2Ev
	.type	_ZN4asio5error6detail17addrinfo_categoryD2Ev, @function
_ZN4asio5error6detail17addrinfo_categoryD2Ev:
.LFB10413:
	.cfi_startproc
	endbr64
	movq	_ZTVN4asio5error6detail17addrinfo_categoryE@GOTPCREL(%rip), %rax
	addq	$16, %rax
	movq	%rax, (%rdi)
	jmp	_ZNSt3_V214error_categoryD2Ev@PLT
	.cfi_endproc
.LFE10413:
	.size	_ZN4asio5error6detail17addrinfo_categoryD2Ev, .-_ZN4asio5error6detail17addrinfo_categoryD2Ev
	.weak	_ZN4asio5error6detail17addrinfo_categoryD1Ev
	.set	_ZN4asio5error6detail17addrinfo_categoryD1Ev,_ZN4asio5error6detail17addrinfo_categoryD2Ev
	.section	.text._ZN4asio5error6detail17addrinfo_categoryD0Ev,"axG",@progbits,_ZN4asio5error6detail17addrinfo_categoryD5Ev,comdat
	.align 2
	.p2align 4
	.weak	_ZN4asio5error6detail17addrinfo_categoryD0Ev
	.type	_ZN4asio5error6detail17addrinfo_categoryD0Ev, @function
_ZN4asio5error6detail17addrinfo_categoryD0Ev:
.LFB10415:
	.cfi_startproc
	endbr64
	movq	_ZTVN4asio5error6detail17addrinfo_categoryE@GOTPCREL(%rip), %rax
	pushq	%rbp
	.cfi_def_cfa_offset 16
	.cfi_offset 6, -16
	movq	%rdi, %rbp
	addq	$16, %rax
	movq	%rax, (%rdi)
	call	_ZNSt3_V214error_categoryD2Ev@PLT
	movq	%rbp, %rdi
	movl	$8, %esi
	popq	%rbp
	.cfi_def_cfa_offset 8
	jmp	_ZdlPvm@PLT
	.cfi_endproc
.LFE10415:
	.size	_ZN4asio5error6detail17addrinfo_categoryD0Ev, .-_ZN4asio5error6detail17addrinfo_categoryD0Ev
	.section	.text._ZN4asio5error6detail13misc_categoryD2Ev,"axG",@progbits,_ZN4asio5error6detail13misc_categoryD5Ev,comdat
	.align 2
	.p2align 4
	.weak	_ZN4asio5error6detail13misc_categoryD2Ev
	.type	_ZN4asio5error6detail13misc_categoryD2Ev, @function
_ZN4asio5error6detail13misc_categoryD2Ev:
.LFB10409:
	.cfi_startproc
	endbr64
	movq	_ZTVN4asio5error6detail13misc_categoryE@GOTPCREL(%rip), %rax
	addq	$16, %rax
	movq	%rax, (%rdi)
	jmp	_ZNSt3_V214error_categoryD2Ev@PLT
	.cfi_endproc
.LFE10409:
	.size	_ZN4asio5error6detail13misc_categoryD2Ev, .-_ZN4asio5error6detail13misc_categoryD2Ev
	.weak	_ZN4asio5error6detail13misc_categoryD1Ev
	.set	_ZN4asio5error6detail13misc_categoryD1Ev,_ZN4asio5error6detail13misc_categoryD2Ev
	.section	.text._ZN4asio5error6detail13misc_categoryD0Ev,"axG",@progbits,_ZN4asio5error6detail13misc_categoryD5Ev,comdat
	.align 2
	.p2align 4
	.weak	_ZN4asio5error6detail13misc_categoryD0Ev
	.type	_ZN4asio5error6detail13misc_categoryD0Ev, @function
_ZN4asio5error6detail13misc_categoryD0Ev:
.LFB10411:
	.cfi_startproc
	endbr64
	movq	_ZTVN4asio5error6detail13misc_categoryE@GOTPCREL(%rip), %rax
	pushq	%rbp
	.cfi_def_cfa_offset 16
	.cfi_offset 6, -16
	movq	%rdi, %rbp
	addq	$16, %rax
	movq	%rax, (%rdi)
	call	_ZNSt3_V214error_categoryD2Ev@PLT
	movq	%rbp, %rdi
	movl	$8, %esi
	popq	%rbp
	.cfi_def_cfa_offset 8
	jmp	_ZdlPvm@PLT
	.cfi_endproc
.LFE10411:
	.size	_ZN4asio5error6detail13misc_categoryD0Ev, .-_ZN4asio5error6detail13misc_categoryD0Ev
	.section	.rodata._ZNK4asio6detail15system_category7messageB5cxx11Ei.str1.8,"aMS",@progbits,1
	.align 8
.LC4:
	.string	"basic_string::_M_construct null not valid"
	.section	.text._ZNK4asio6detail15system_category7messageB5cxx11Ei,"axG",@progbits,_ZNK4asio6detail15system_category7messageB5cxx11Ei,comdat
	.align 2
	.p2align 4
	.weak	_ZNK4asio6detail15system_category7messageB5cxx11Ei
	.type	_ZNK4asio6detail15system_category7messageB5cxx11Ei, @function
_ZNK4asio6detail15system_category7messageB5cxx11Ei:
.LFB3512:
	.cfi_startproc
	endbr64
	pushq	%r14
	.cfi_def_cfa_offset 16
	.cfi_offset 14, -16
	pushq	%r13
	.cfi_def_cfa_offset 24
	.cfi_offset 13, -24
	pushq	%r12
	.cfi_def_cfa_offset 32
	.cfi_offset 12, -32
	movq	%rdi, %r12
	pushq	%rbp
	.cfi_def_cfa_offset 40
	.cfi_offset 6, -40
	leaq	16(%rdi), %rbp
	subq	$296, %rsp
	.cfi_def_cfa_offset 336
	movq	%fs:40, %rax
	movq	%rax, 280(%rsp)
	xorl	%eax, %eax
	cmpl	$125, %edx
	je	.L38
	pxor	%xmm0, %xmm0
	movl	%edx, %edi
	leaq	16(%rsp), %rsi
	movl	$256, %edx
	movaps	%xmm0, 16(%rsp)
	movaps	%xmm0, 32(%rsp)
	movaps	%xmm0, 48(%rsp)
	movaps	%xmm0, 64(%rsp)
	movaps	%xmm0, 80(%rsp)
	movaps	%xmm0, 96(%rsp)
	movaps	%xmm0, 112(%rsp)
	movaps	%xmm0, 128(%rsp)
	movaps	%xmm0, 144(%rsp)
	movaps	%xmm0, 160(%rsp)
	movaps	%xmm0, 176(%rsp)
	movaps	%xmm0, 192(%rsp)
	movaps	%xmm0, 208(%rsp)
	movaps	%xmm0, 224(%rsp)
	movaps	%xmm0, 240(%rsp)
	movaps	%xmm0, 256(%rsp)
	call	strerror_r@PLT
	movq	%rbp, (%r12)
	movq	%rax, %r13
	testq	%rax, %rax
	je	.L26
	movq	%rax, %rdi
	call	strlen@PLT
	movq	%rax, 8(%rsp)
	movq	%rax, %r14
	cmpq	$15, %rax
	ja	.L39
	cmpq	$1, %rax
	jne	.L30
	movzbl	0(%r13), %edx
	movb	%dl, 16(%r12)
.L31:
	movq	%rax, 8(%r12)
	movb	$0, 0(%rbp,%rax)
.L23:
	movq	280(%rsp), %rax
	subq	%fs:40, %rax
	jne	.L40
	addq	$296, %rsp
	.cfi_remember_state
	.cfi_def_cfa_offset 40
	movq	%r12, %rax
	popq	%rbp
	.cfi_def_cfa_offset 32
	popq	%r12
	.cfi_def_cfa_offset 24
	popq	%r13
	.cfi_def_cfa_offset 16
	popq	%r14
	.cfi_def_cfa_offset 8
	ret
	.p2align 4,,10
	.p2align 3
.L39:
	.cfi_restore_state
	leaq	8(%rsp), %rsi
	xorl	%edx, %edx
	movq	%r12, %rdi
	call	_ZNSt7__cxx1112basic_stringIcSt11char_traitsIcESaIcEE9_M_createERmm@PLT
	movq	%rax, (%r12)
	movq	%rax, %rbp
	movq	8(%rsp), %rax
	movq	%rax, 16(%r12)
.L29:
	movq	%rbp, %rdi
	movq	%r14, %rdx
	movq	%r13, %rsi
	call	memcpy@PLT
	movq	8(%rsp), %rax
	movq	(%r12), %rbp
	jmp	.L31
	.p2align 4,,10
	.p2align 3
.L38:
	movq	%rbp, (%rdi)
	xorl	%edx, %edx
	leaq	8(%rsp), %rsi
	movq	$18, 8(%rsp)
	call	_ZNSt7__cxx1112basic_stringIcSt11char_traitsIcESaIcEE9_M_createERmm@PLT
	movq	8(%rsp), %rdx
	movdqa	.LC5(%rip), %xmm0
	movq	%rax, (%r12)
	movq	%rdx, 16(%r12)
	movl	$11876, %edx
	movw	%dx, 16(%rax)
	movups	%xmm0, (%rax)
	movq	8(%rsp), %rax
	movq	(%r12), %rdx
	movq	%rax, 8(%r12)
	movb	$0, (%rdx,%rax)
	jmp	.L23
	.p2align 4,,10
	.p2align 3
.L30:
	testq	%rax, %rax
	je	.L31
	jmp	.L29
.L26:
	leaq	.LC4(%rip), %rdi
	call	_ZSt19__throw_logic_errorPKc@PLT
.L40:
	call	__stack_chk_fail@PLT
	.cfi_endproc
.LFE3512:
	.size	_ZNK4asio6detail15system_category7messageB5cxx11Ei, .-_ZNK4asio6detail15system_category7messageB5cxx11Ei
	.section	.text._ZNK4asio5error6detail17addrinfo_category7messageB5cxx11Ei,"axG",@progbits,_ZNK4asio5error6detail17addrinfo_category7messageB5cxx11Ei,comdat
	.align 2
	.p2align 4
	.weak	_ZNK4asio5error6detail17addrinfo_category7messageB5cxx11Ei
	.type	_ZNK4asio5error6detail17addrinfo_category7messageB5cxx11Ei, @function
_ZNK4asio5error6detail17addrinfo_category7messageB5cxx11Ei:
.LFB3558:
	.cfi_startproc
	endbr64
	pushq	%r12
	.cfi_def_cfa_offset 16
	.cfi_offset 12, -16
	movq	%rdi, %r12
	subq	$16, %rsp
	.cfi_def_cfa_offset 32
	movq	%fs:40, %rax
	movq	%rax, 8(%rsp)
	xorl	%eax, %eax
	leaq	16(%rdi), %rax
	movq	%rax, (%rdi)
	cmpl	$-8, %edx
	je	.L47
	cmpl	$-7, %edx
	je	.L48
	xorl	%edx, %edx
	movq	%rsp, %rsi
	movq	$19, (%rsp)
	call	_ZNSt7__cxx1112basic_stringIcSt11char_traitsIcESaIcEE9_M_createERmm@PLT
	movq	(%rsp), %rdx
	movdqa	.LC8(%rip), %xmm0
	movq	%rax, (%r12)
	movq	%rdx, 16(%r12)
	movl	$28530, %edx
	movw	%dx, 16(%rax)
	movb	$114, 18(%rax)
	movups	%xmm0, (%rax)
	movq	(%rsp), %rax
	movq	(%r12), %rdx
	movq	%rax, 8(%r12)
	movb	$0, (%rdx,%rax)
.L41:
	movq	8(%rsp), %rax
	subq	%fs:40, %rax
	jne	.L49
	addq	$16, %rsp
	.cfi_remember_state
	.cfi_def_cfa_offset 16
	movq	%r12, %rax
	popq	%r12
	.cfi_def_cfa_offset 8
	ret
	.p2align 4,,10
	.p2align 3
.L48:
	.cfi_restore_state
	xorl	%edx, %edx
	movq	%rsp, %rsi
	movq	$25, (%rsp)
	call	_ZNSt7__cxx1112basic_stringIcSt11char_traitsIcESaIcEE9_M_createERmm@PLT
	movq	(%rsp), %rdx
	movdqa	.LC7(%rip), %xmm0
	movabsq	$7310593918082512243, %rcx
	movq	%rax, (%r12)
	movq	%rdx, 16(%r12)
	movq	%rcx, 16(%rax)
	movb	$100, 24(%rax)
	movups	%xmm0, (%rax)
	movq	(%rsp), %rax
	movq	(%r12), %rdx
	movq	%rax, 8(%r12)
	movb	$0, (%rdx,%rax)
	jmp	.L41
	.p2align 4,,10
	.p2align 3
.L47:
	xorl	%edx, %edx
	movq	%rsp, %rsi
	movq	$17, (%rsp)
	call	_ZNSt7__cxx1112basic_stringIcSt11char_traitsIcESaIcEE9_M_createERmm@PLT
	movq	(%rsp), %rdx
	movdqa	.LC6(%rip), %xmm0
	movq	%rax, (%r12)
	movq	%rdx, 16(%r12)
	movb	$100, 16(%rax)
	movups	%xmm0, (%rax)
	movq	(%rsp), %rax
	movq	(%r12), %rdx
	movq	%rax, 8(%r12)
	movb	$0, (%rdx,%rax)
	jmp	.L41
.L49:
	call	__stack_chk_fail@PLT
	.cfi_endproc
.LFE3558:
	.size	_ZNK4asio5error6detail17addrinfo_category7messageB5cxx11Ei, .-_ZNK4asio5error6detail17addrinfo_category7messageB5cxx11Ei
	.section	.text._ZNK4asio5error6detail14netdb_category7messageB5cxx11Ei,"axG",@progbits,_ZNK4asio5error6detail14netdb_category7messageB5cxx11Ei,comdat
	.align 2
	.p2align 4
	.weak	_ZNK4asio5error6detail14netdb_category7messageB5cxx11Ei
	.type	_ZNK4asio5error6detail14netdb_category7messageB5cxx11Ei, @function
_ZNK4asio5error6detail14netdb_category7messageB5cxx11Ei:
.LFB3552:
	.cfi_startproc
	endbr64
	pushq	%r12
	.cfi_def_cfa_offset 16
	.cfi_offset 12, -16
	movq	%rdi, %r12
	subq	$16, %rsp
	.cfi_def_cfa_offset 32
	movq	%fs:40, %rax
	movq	%rax, 8(%rsp)
	xorl	%eax, %eax
	leaq	16(%rdi), %rax
	movq	%rax, (%rdi)
	cmpl	$1, %edx
	je	.L58
	cmpl	$2, %edx
	je	.L59
	cmpl	$4, %edx
	je	.L60
	cmpl	$3, %edx
	je	.L61
	xorl	%edx, %edx
	movq	%rsp, %rsi
	movq	$16, (%rsp)
	call	_ZNSt7__cxx1112basic_stringIcSt11char_traitsIcESaIcEE9_M_createERmm@PLT
	movq	(%rsp), %rdx
	movdqa	.LC18(%rip), %xmm0
	movq	%rax, (%r12)
	movq	%rdx, 16(%r12)
	movups	%xmm0, (%rax)
	movq	(%rsp), %rax
	movq	(%r12), %rdx
	movq	%rax, 8(%r12)
	movb	$0, (%rdx,%rax)
.L50:
	movq	8(%rsp), %rax
	subq	%fs:40, %rax
	jne	.L62
	addq	$16, %rsp
	.cfi_remember_state
	.cfi_def_cfa_offset 16
	movq	%r12, %rax
	popq	%r12
	.cfi_def_cfa_offset 8
	ret
	.p2align 4,,10
	.p2align 3
.L58:
	.cfi_restore_state
	movq	%rsp, %rsi
	xorl	%edx, %edx
	movq	$30, (%rsp)
	call	_ZNSt7__cxx1112basic_stringIcSt11char_traitsIcESaIcEE9_M_createERmm@PLT
	movq	(%rsp), %rdx
	movl	$10597, %esi
	movdqa	.LC9(%rip), %xmm0
	movabsq	$8388361603773658465, %rcx
	movq	%rax, (%r12)
	movq	%rdx, 16(%r12)
	movq	%rcx, 16(%rax)
	movl	$1986622561, 24(%rax)
	movw	%si, 28(%rax)
	movups	%xmm0, (%rax)
	movq	(%rsp), %rax
	movq	(%r12), %rdx
	movq	%rax, 8(%r12)
	movb	$0, (%rdx,%rax)
	jmp	.L50
	.p2align 4,,10
	.p2align 3
.L61:
	xorl	%edx, %edx
	movq	%rsp, %rsi
	movq	$55, (%rsp)
	call	_ZNSt7__cxx1112basic_stringIcSt11char_traitsIcESaIcEE9_M_createERmm@PLT
	movq	(%rsp), %rdx
	movdqa	.LC15(%rip), %xmm0
	movq	%rax, (%r12)
	movq	%rdx, 16(%r12)
	movl	$30059, %edx
	movups	%xmm0, (%rax)
	movdqa	.LC16(%rip), %xmm0
	movl	$1869573152, 48(%rax)
	movups	%xmm0, 16(%rax)
	movdqa	.LC17(%rip), %xmm0
	movw	%dx, 52(%rax)
	movb	$112, 54(%rax)
	movups	%xmm0, 32(%rax)
	movq	(%rsp), %rax
	movq	(%r12), %rdx
	movq	%rax, 8(%r12)
	movb	$0, (%rdx,%rax)
	jmp	.L50
	.p2align 4,,10
	.p2align 3
.L59:
	xorl	%edx, %edx
	movq	%rsp, %rsi
	movq	$51, (%rsp)
	call	_ZNSt7__cxx1112basic_stringIcSt11char_traitsIcESaIcEE9_M_createERmm@PLT
	movq	(%rsp), %rdx
	movl	$25972, %ecx
	movdqa	.LC9(%rip), %xmm0
	movq	%rax, (%r12)
	movq	%rdx, 16(%r12)
	movups	%xmm0, (%rax)
	movdqa	.LC10(%rip), %xmm0
	movw	%cx, 48(%rax)
	movups	%xmm0, 16(%rax)
	movdqa	.LC11(%rip), %xmm0
	movb	$114, 50(%rax)
	movups	%xmm0, 32(%rax)
	movq	(%rsp), %rax
	movq	(%r12), %rdx
	movq	%rax, 8(%r12)
	movb	$0, (%rdx,%rax)
	jmp	.L50
	.p2align 4,,10
	.p2align 3
.L60:
	xorl	%edx, %edx
	movq	%rsp, %rsi
	movq	$56, (%rsp)
	call	_ZNSt7__cxx1112basic_stringIcSt11char_traitsIcESaIcEE9_M_createERmm@PLT
	movq	(%rsp), %rdx
	movdqa	.LC12(%rip), %xmm0
	movabsq	$7022344801645520244, %rcx
	movq	%rax, (%r12)
	movq	%rdx, 16(%r12)
	movups	%xmm0, (%rax)
	movdqa	.LC13(%rip), %xmm0
	movq	%rcx, 48(%rax)
	movups	%xmm0, 16(%rax)
	movdqa	.LC14(%rip), %xmm0
	movups	%xmm0, 32(%rax)
	movq	(%rsp), %rax
	movq	(%r12), %rdx
	movq	%rax, 8(%r12)
	movb	$0, (%rdx,%rax)
	jmp	.L50
.L62:
	call	__stack_chk_fail@PLT
	.cfi_endproc
.LFE3552:
	.size	_ZNK4asio5error6detail14netdb_category7messageB5cxx11Ei, .-_ZNK4asio5error6detail14netdb_category7messageB5cxx11Ei
	.section	.text._ZNK4asio5error6detail13misc_category7messageB5cxx11Ei,"axG",@progbits,_ZNK4asio5error6detail13misc_category7messageB5cxx11Ei,comdat
	.align 2
	.p2align 4
	.weak	_ZNK4asio5error6detail13misc_category7messageB5cxx11Ei
	.type	_ZNK4asio5error6detail13misc_category7messageB5cxx11Ei, @function
_ZNK4asio5error6detail13misc_category7messageB5cxx11Ei:
.LFB3564:
	.cfi_startproc
	endbr64
	pushq	%r12
	.cfi_def_cfa_offset 16
	.cfi_offset 12, -16
	movq	%rdi, %r12
	subq	$16, %rsp
	.cfi_def_cfa_offset 32
	movq	%fs:40, %rax
	movq	%rax, 8(%rsp)
	xorl	%eax, %eax
	leaq	16(%rdi), %rax
	movq	%rax, (%rdi)
	cmpl	$1, %edx
	je	.L71
	cmpl	$2, %edx
	je	.L72
	cmpl	$3, %edx
	je	.L73
	cmpl	$4, %edx
	je	.L74
	movabsq	$8316298233121436513, %rcx
	movl	$28530, %edx
	movq	%rcx, 16(%rdi)
	movl	$1919230051, 8(%rax)
	movw	%dx, 12(%rax)
	movb	$114, 14(%rax)
	movq	$15, 8(%rdi)
	movb	$0, 31(%rdi)
.L63:
	movq	8(%rsp), %rax
	subq	%fs:40, %rax
	jne	.L75
	addq	$16, %rsp
	.cfi_remember_state
	.cfi_def_cfa_offset 16
	movq	%r12, %rax
	popq	%r12
	.cfi_def_cfa_offset 8
	ret
	.p2align 4,,10
	.p2align 3
.L71:
	.cfi_restore_state
	movabsq	$2340011850872286273, %rcx
	movq	%rcx, 16(%rdi)
	movl	$1852141679, 8(%rax)
	movq	$12, 8(%rdi)
	movb	$0, 28(%rdi)
	jmp	.L63
	.p2align 4,,10
	.p2align 3
.L74:
	movq	%rsp, %rsi
	xorl	%edx, %edx
	movq	$57, (%rsp)
	call	_ZNSt7__cxx1112basic_stringIcSt11char_traitsIcESaIcEE9_M_createERmm@PLT
	movq	(%rsp), %rdx
	movdqa	.LC20(%rip), %xmm0
	movabsq	$7310291504967217959, %rsi
	movq	%rax, (%r12)
	movq	%rdx, 16(%r12)
	movups	%xmm0, (%rax)
	movdqa	.LC21(%rip), %xmm0
	movq	%rsi, 48(%rax)
	movups	%xmm0, 16(%rax)
	movdqa	.LC22(%rip), %xmm0
	movb	$116, 56(%rax)
	movups	%xmm0, 32(%rax)
	movq	(%rsp), %rax
	movq	(%r12), %rdx
	movq	%rax, 8(%r12)
	movb	$0, (%rdx,%rax)
	jmp	.L63
	.p2align 4,,10
	.p2align 3
.L72:
	movabsq	$7358994418594246213, %rcx
	movq	%rcx, 16(%rdi)
	movl	$27753, %ecx
	movw	%cx, 8(%rax)
	movb	$101, 10(%rax)
	movq	$11, 8(%rdi)
	movb	$0, 27(%rdi)
	jmp	.L63
	.p2align 4,,10
	.p2align 3
.L73:
	xorl	%edx, %edx
	movq	%rsp, %rsi
	movq	$17, (%rsp)
	call	_ZNSt7__cxx1112basic_stringIcSt11char_traitsIcESaIcEE9_M_createERmm@PLT
	movq	(%rsp), %rdx
	movdqa	.LC19(%rip), %xmm0
	movq	%rax, (%r12)
	movq	%rdx, 16(%r12)
	movb	$100, 16(%rax)
	movups	%xmm0, (%rax)
	movq	(%rsp), %rax
	movq	(%r12), %rdx
	movq	%rax, 8(%r12)
	movb	$0, (%rdx,%rax)
	jmp	.L63
.L75:
	call	__stack_chk_fail@PLT
	.cfi_endproc
.LFE3564:
	.size	_ZNK4asio5error6detail13misc_category7messageB5cxx11Ei, .-_ZNK4asio5error6detail13misc_category7messageB5cxx11Ei
	.text
	.align 2
	.p2align 4
	.globl	_ZN8asiodnp311DNP3ManagerD2Ev
	.type	_ZN8asiodnp311DNP3ManagerD2Ev, @function
_ZN8asiodnp311DNP3ManagerD2Ev:
.LFB7812:
	.cfi_startproc
	endbr64
	pushq	%rbp
	.cfi_def_cfa_offset 16
	.cfi_offset 6, -16
	movq	(%rdi), %rbp
	testq	%rbp, %rbp
	je	.L76
	movq	%rbp, %rdi
	call	_ZN8asiodnp315DNP3ManagerImplD1Ev@PLT
	movq	%rbp, %rdi
	movl	$272, %esi
	popq	%rbp
	.cfi_remember_state
	.cfi_def_cfa_offset 8
	jmp	_ZdlPvm@PLT
	.p2align 4,,10
	.p2align 3
.L76:
	.cfi_restore_state
	popq	%rbp
	.cfi_def_cfa_offset 8
	ret
	.cfi_endproc
.LFE7812:
	.size	_ZN8asiodnp311DNP3ManagerD2Ev, .-_ZN8asiodnp311DNP3ManagerD2Ev
	.globl	_ZN8asiodnp311DNP3ManagerD1Ev
	.set	_ZN8asiodnp311DNP3ManagerD1Ev,_ZN8asiodnp311DNP3ManagerD2Ev
	.align 2
	.p2align 4
	.globl	_ZN8asiodnp311DNP3Manager8ShutdownEv
	.type	_ZN8asiodnp311DNP3Manager8ShutdownEv, @function
_ZN8asiodnp311DNP3Manager8ShutdownEv:
.LFB7814:
	.cfi_startproc
	endbr64
	movq	(%rdi), %rdi
	jmp	_ZN8asiodnp315DNP3ManagerImpl8ShutdownEv@PLT
	.cfi_endproc
.LFE7814:
	.size	_ZN8asiodnp311DNP3Manager8ShutdownEv, .-_ZN8asiodnp311DNP3Manager8ShutdownEv
	.section	.text.unlikely,"ax",@progbits
	.align 2
.LCOLDB23:
	.text
.LHOTB23:
	.align 2
	.p2align 4
	.globl	_ZN8asiodnp311DNP3Manager14CreateListenerENSt7__cxx1112basic_stringIcSt11char_traitsIcESaIcEEEN7openpal10LogFiltersEN7asiopal10IPEndpointESt10shared_ptrINS_16IListenCallbacksEERSt10error_code
	.type	_ZN8asiodnp311DNP3Manager14CreateListenerENSt7__cxx1112basic_stringIcSt11char_traitsIcESaIcEEEN7openpal10LogFiltersEN7asiopal10IPEndpointESt10shared_ptrINS_16IListenCallbacksEERSt10error_code, @function
_ZN8asiodnp311DNP3Manager14CreateListenerENSt7__cxx1112basic_stringIcSt11char_traitsIcESaIcEEEN7openpal10LogFiltersEN7asiopal10IPEndpointESt10shared_ptrINS_16IListenCallbacksEERSt10error_code:
.LFB7845:
	.cfi_startproc
	.cfi_personality 0x9b,DW.ref.__gxx_personality_v0
	.cfi_lsda 0x1b,.LLSDA7845
	endbr64
	pushq	%rbp
	.cfi_def_cfa_offset 16
	.cfi_offset 6, -16
	movq	%rsp, %rbp
	.cfi_def_cfa_register 6
	pushq	%r15
	pushq	%r14
	.cfi_offset 15, -24
	.cfi_offset 14, -32
	movq	%r8, %r14
	pushq	%r13
	.cfi_offset 13, -40
	movq	%rdi, %r13
	pushq	%r12
	pushq	%rbx
	.cfi_offset 12, -48
	.cfi_offset 3, -56
	movq	%rdx, %rbx
	subq	$152, %rsp
	movq	16(%rbp), %rax
	movl	%ecx, -164(%rbp)
	movq	(%r8), %r15
	movq	8(%r8), %r12
	movq	%r9, -176(%rbp)
	movq	%rax, -184(%rbp)
	movq	%fs:40, %rax
	movq	%rax, -56(%rbp)
	movq	(%rsi), %rax
	movq	%rax, -160(%rbp)
	leaq	-80(%rbp), %rax
	movq	%rax, -152(%rbp)
	movq	%rax, -96(%rbp)
	movq	%r15, %rax
	addq	%r12, %rax
	je	.L81
	testq	%r15, %r15
	je	.L115
.L81:
	movq	%r12, -136(%rbp)
	cmpq	$15, %r12
	ja	.L116
	cmpq	$1, %r12
	jne	.L84
	movzbl	(%r15), %eax
	movb	%al, -80(%rbp)
	movq	-152(%rbp), %rax
.L85:
	movq	%r12, -88(%rbp)
	movb	$0, (%rax,%r12)
	movzwl	32(%r14), %eax
	leaq	-112(%rbp), %r14
	movq	(%rbx), %r15
	movq	8(%rbx), %r12
	movq	%r14, -128(%rbp)
	movw	%ax, -64(%rbp)
	movq	%r15, %rax
	addq	%r12, %rax
	je	.L86
	testq	%r15, %r15
	je	.L117
.L86:
	movq	%r12, -136(%rbp)
	cmpq	$15, %r12
	ja	.L118
	cmpq	$1, %r12
	jne	.L89
	movzbl	(%r15), %eax
	leaq	-128(%rbp), %rbx
	movb	%al, -112(%rbp)
	movq	%r14, %rax
.L90:
	movq	%r12, -120(%rbp)
	subq	$8, %rsp
	leaq	-96(%rbp), %r8
	movq	%rbx, %rdx
	movb	$0, (%rax,%r12)
	movl	-164(%rbp), %ecx
	movq	%r13, %rdi
	pushq	-184(%rbp)
	movq	-176(%rbp), %r9
	movq	-160(%rbp), %rsi
.LEHB0:
	.cfi_escape 0x2e,0x10
	call	_ZN8asiodnp315DNP3ManagerImpl14CreateListenerENSt7__cxx1112basic_stringIcSt11char_traitsIcESaIcEEEN7openpal10LogFiltersEN7asiopal10IPEndpointERKSt10shared_ptrINS_16IListenCallbacksEERSt10error_code@PLT
.LEHE0:
	movq	-128(%rbp), %rdi
	popq	%rax
	popq	%rdx
	cmpq	%r14, %rdi
	je	.L91
	movq	-112(%rbp), %rax
	leaq	1(%rax), %rsi
	call	_ZdlPvm@PLT
.L91:
	movq	-96(%rbp), %rdi
	cmpq	-152(%rbp), %rdi
	je	.L80
	movq	-80(%rbp), %rax
	leaq	1(%rax), %rsi
	call	_ZdlPvm@PLT
.L80:
	movq	-56(%rbp), %rax
	subq	%fs:40, %rax
	jne	.L119
	leaq	-40(%rbp), %rsp
	movq	%r13, %rax
	popq	%rbx
	popq	%r12
	popq	%r13
	popq	%r14
	popq	%r15
	popq	%rbp
	.cfi_remember_state
	.cfi_def_cfa 7, 8
	ret
	.p2align 4,,10
	.p2align 3
.L84:
	.cfi_restore_state
	testq	%r12, %r12
	jne	.L120
	movq	-152(%rbp), %rax
	jmp	.L85
	.p2align 4,,10
	.p2align 3
.L89:
	testq	%r12, %r12
	jne	.L121
	movq	%r14, %rax
	leaq	-128(%rbp), %rbx
	jmp	.L90
	.p2align 4,,10
	.p2align 3
.L116:
	leaq	-96(%rbp), %rdi
	leaq	-136(%rbp), %rsi
	xorl	%edx, %edx
.LEHB1:
	call	_ZNSt7__cxx1112basic_stringIcSt11char_traitsIcESaIcEE9_M_createERmm@PLT
.LEHE1:
	movq	%rax, -96(%rbp)
	movq	%rax, %rdi
	movq	-136(%rbp), %rax
	movq	%rax, -80(%rbp)
.L83:
	movq	%r12, %rdx
	movq	%r15, %rsi
	call	memcpy@PLT
	movq	-136(%rbp), %r12
	movq	-96(%rbp), %rax
	jmp	.L85
	.p2align 4,,10
	.p2align 3
.L118:
	leaq	-128(%rbp), %rbx
	leaq	-136(%rbp), %rsi
	xorl	%edx, %edx
	movq	%rbx, %rdi
.LEHB2:
	.cfi_escape 0x2e,0
	call	_ZNSt7__cxx1112basic_stringIcSt11char_traitsIcESaIcEE9_M_createERmm@PLT
.LEHE2:
	movq	%rax, -128(%rbp)
	movq	%rax, %rdi
	movq	-136(%rbp), %rax
	movq	%rax, -112(%rbp)
.L88:
	movq	%r12, %rdx
	movq	%r15, %rsi
	call	memcpy@PLT
	movq	-136(%rbp), %r12
	movq	-128(%rbp), %rax
	jmp	.L90
.L115:
	leaq	.LC4(%rip), %rdi
.LEHB3:
	call	_ZSt19__throw_logic_errorPKc@PLT
.LEHE3:
.L119:
	call	__stack_chk_fail@PLT
.L117:
	leaq	.LC4(%rip), %rdi
.LEHB4:
	call	_ZSt19__throw_logic_errorPKc@PLT
.LEHE4:
.L121:
	movq	%r14, %rdi
	leaq	-128(%rbp), %rbx
	jmp	.L88
.L120:
	movq	-152(%rbp), %rdi
	jmp	.L83
.L100:
	endbr64
	movq	%rax, %r12
	jmp	.L95
.L101:
	endbr64
	movq	%rax, %r12
	jmp	.L93
	.globl	__gxx_personality_v0
	.section	.gcc_except_table,"a",@progbits
.LLSDA7845:
	.byte	0xff
	.byte	0xff
	.byte	0x1
	.uleb128 .LLSDACSE7845-.LLSDACSB7845
.LLSDACSB7845:
	.uleb128 .LEHB0-.LFB7845
	.uleb128 .LEHE0-.LEHB0
	.uleb128 .L101-.LFB7845
	.uleb128 0
	.uleb128 .LEHB1-.LFB7845
	.uleb128 .LEHE1-.LEHB1
	.uleb128 0
	.uleb128 0
	.uleb128 .LEHB2-.LFB7845
	.uleb128 .LEHE2-.LEHB2
	.uleb128 .L100-.LFB7845
	.uleb128 0
	.uleb128 .LEHB3-.LFB7845
	.uleb128 .LEHE3-.LEHB3
	.uleb128 0
	.uleb128 0
	.uleb128 .LEHB4-.LFB7845
	.uleb128 .LEHE4-.LEHB4
	.uleb128 .L100-.LFB7845
	.uleb128 0
.LLSDACSE7845:
	.text
	.cfi_endproc
	.section	.text.unlikely
	.cfi_startproc
	.cfi_personality 0x9b,DW.ref.__gxx_personality_v0
	.cfi_lsda 0x1b,.LLSDAC7845
	.type	_ZN8asiodnp311DNP3Manager14CreateListenerENSt7__cxx1112basic_stringIcSt11char_traitsIcESaIcEEEN7openpal10LogFiltersEN7asiopal10IPEndpointESt10shared_ptrINS_16IListenCallbacksEERSt10error_code.cold, @function
_ZN8asiodnp311DNP3Manager14CreateListenerENSt7__cxx1112basic_stringIcSt11char_traitsIcESaIcEEEN7openpal10LogFiltersEN7asiopal10IPEndpointESt10shared_ptrINS_16IListenCallbacksEERSt10error_code.cold:
.LFSB7845:
.L93:
	.cfi_def_cfa 6, 16
	.cfi_offset 3, -56
	.cfi_offset 6, -16
	.cfi_offset 12, -48
	.cfi_offset 13, -40
	.cfi_offset 14, -32
	.cfi_offset 15, -24
	movq	-128(%rbp), %rdi
	cmpq	%r14, %rdi
	je	.L95
	movq	-112(%rbp), %rax
	leaq	1(%rax), %rsi
	call	_ZdlPvm@PLT
.L95:
	movq	-96(%rbp), %rdi
	cmpq	-152(%rbp), %rdi
	je	.L96
	movq	-80(%rbp), %rax
	leaq	1(%rax), %rsi
	call	_ZdlPvm@PLT
.L96:
	movq	%r12, %rdi
.LEHB5:
	call	_Unwind_Resume@PLT
.LEHE5:
	.cfi_endproc
.LFE7845:
	.section	.gcc_except_table
.LLSDAC7845:
	.byte	0xff
	.byte	0xff
	.byte	0x1
	.uleb128 .LLSDACSEC7845-.LLSDACSBC7845
.LLSDACSBC7845:
	.uleb128 .LEHB5-.LCOLDB23
	.uleb128 .LEHE5-.LEHB5
	.uleb128 0
	.uleb128 0
.LLSDACSEC7845:
	.section	.text.unlikely
	.text
	.size	_ZN8asiodnp311DNP3Manager14CreateListenerENSt7__cxx1112basic_stringIcSt11char_traitsIcESaIcEEEN7openpal10LogFiltersEN7asiopal10IPEndpointESt10shared_ptrINS_16IListenCallbacksEERSt10error_code, .-_ZN8asiodnp311DNP3Manager14CreateListenerENSt7__cxx1112basic_stringIcSt11char_traitsIcESaIcEEEN7openpal10LogFiltersEN7asiopal10IPEndpointESt10shared_ptrINS_16IListenCallbacksEERSt10error_code
	.section	.text.unlikely
	.size	_ZN8asiodnp311DNP3Manager14CreateListenerENSt7__cxx1112basic_stringIcSt11char_traitsIcESaIcEEEN7openpal10LogFiltersEN7asiopal10IPEndpointESt10shared_ptrINS_16IListenCallbacksEERSt10error_code.cold, .-_ZN8asiodnp311DNP3Manager14CreateListenerENSt7__cxx1112basic_stringIcSt11char_traitsIcESaIcEEEN7openpal10LogFiltersEN7asiopal10IPEndpointESt10shared_ptrINS_16IListenCallbacksEERSt10error_code.cold
.LCOLDE23:
	.text
.LHOTE23:
	.section	.text.unlikely
	.align 2
.LCOLDB24:
	.text
.LHOTB24:
	.align 2
	.p2align 4
	.globl	_ZN8asiodnp311DNP3Manager14CreateListenerENSt7__cxx1112basic_stringIcSt11char_traitsIcESaIcEEEN7openpal10LogFiltersEN7asiopal10IPEndpointERKNS9_9TLSConfigESt10shared_ptrINS_16IListenCallbacksEERSt10error_code
	.type	_ZN8asiodnp311DNP3Manager14CreateListenerENSt7__cxx1112basic_stringIcSt11char_traitsIcESaIcEEEN7openpal10LogFiltersEN7asiopal10IPEndpointERKNS9_9TLSConfigESt10shared_ptrINS_16IListenCallbacksEERSt10error_code, @function
_ZN8asiodnp311DNP3Manager14CreateListenerENSt7__cxx1112basic_stringIcSt11char_traitsIcESaIcEEEN7openpal10LogFiltersEN7asiopal10IPEndpointERKNS9_9TLSConfigESt10shared_ptrINS_16IListenCallbacksEERSt10error_code:
.LFB7855:
	.cfi_startproc
	.cfi_personality 0x9b,DW.ref.__gxx_personality_v0
	.cfi_lsda 0x1b,.LLSDA7855
	endbr64
	pushq	%rbp
	.cfi_def_cfa_offset 16
	.cfi_offset 6, -16
	movq	%rsp, %rbp
	.cfi_def_cfa_register 6
	pushq	%r15
	pushq	%r14
	.cfi_offset 15, -24
	.cfi_offset 14, -32
	movq	%r8, %r14
	pushq	%r13
	.cfi_offset 13, -40
	movq	%rdi, %r13
	pushq	%r12
	pushq	%rbx
	.cfi_offset 12, -48
	.cfi_offset 3, -56
	movq	%rdx, %rbx
	subq	$152, %rsp
	movq	16(%rbp), %rax
	movl	%ecx, -164(%rbp)
	movq	(%r8), %r15
	movq	8(%r8), %r12
	movq	%r9, -176(%rbp)
	movq	%rax, -184(%rbp)
	movq	24(%rbp), %rax
	movq	%rax, -192(%rbp)
	movq	%fs:40, %rax
	movq	%rax, -56(%rbp)
	movq	(%rsi), %rax
	movq	%rax, -160(%rbp)
	leaq	-80(%rbp), %rax
	movq	%rax, -152(%rbp)
	movq	%rax, -96(%rbp)
	movq	%r15, %rax
	addq	%r12, %rax
	je	.L123
	testq	%r15, %r15
	je	.L157
.L123:
	movq	%r12, -136(%rbp)
	cmpq	$15, %r12
	ja	.L158
	cmpq	$1, %r12
	jne	.L126
	movzbl	(%r15), %eax
	movb	%al, -80(%rbp)
	movq	-152(%rbp), %rax
.L127:
	movq	%r12, -88(%rbp)
	movb	$0, (%rax,%r12)
	movzwl	32(%r14), %eax
	leaq	-112(%rbp), %r14
	movq	(%rbx), %r15
	movq	8(%rbx), %r12
	movq	%r14, -128(%rbp)
	movw	%ax, -64(%rbp)
	movq	%r15, %rax
	addq	%r12, %rax
	je	.L128
	testq	%r15, %r15
	je	.L159
.L128:
	movq	%r12, -136(%rbp)
	cmpq	$15, %r12
	ja	.L160
	cmpq	$1, %r12
	jne	.L131
	movzbl	(%r15), %eax
	leaq	-128(%rbp), %rbx
	movb	%al, -112(%rbp)
	movq	%r14, %rax
.L132:
	movq	%r12, -120(%rbp)
	movl	-164(%rbp), %ecx
	movq	%rbx, %rdx
	movq	%r13, %rdi
	movb	$0, (%rax,%r12)
	movq	-176(%rbp), %r9
	leaq	-96(%rbp), %r8
	pushq	-192(%rbp)
	movq	-160(%rbp), %rsi
	pushq	-184(%rbp)
.LEHB6:
	.cfi_escape 0x2e,0x10
	call	_ZN8asiodnp315DNP3ManagerImpl14CreateListenerENSt7__cxx1112basic_stringIcSt11char_traitsIcESaIcEEEN7openpal10LogFiltersEN7asiopal10IPEndpointERKNS9_9TLSConfigERKSt10shared_ptrINS_16IListenCallbacksEERSt10error_code@PLT
.LEHE6:
	movq	-128(%rbp), %rdi
	popq	%rax
	popq	%rdx
	cmpq	%r14, %rdi
	je	.L133
	movq	-112(%rbp), %rax
	leaq	1(%rax), %rsi
	call	_ZdlPvm@PLT
.L133:
	movq	-96(%rbp), %rdi
	cmpq	-152(%rbp), %rdi
	je	.L122
	movq	-80(%rbp), %rax
	leaq	1(%rax), %rsi
	call	_ZdlPvm@PLT
.L122:
	movq	-56(%rbp), %rax
	subq	%fs:40, %rax
	jne	.L161
	leaq	-40(%rbp), %rsp
	movq	%r13, %rax
	popq	%rbx
	popq	%r12
	popq	%r13
	popq	%r14
	popq	%r15
	popq	%rbp
	.cfi_remember_state
	.cfi_def_cfa 7, 8
	ret
	.p2align 4,,10
	.p2align 3
.L126:
	.cfi_restore_state
	testq	%r12, %r12
	jne	.L162
	movq	-152(%rbp), %rax
	jmp	.L127
	.p2align 4,,10
	.p2align 3
.L131:
	testq	%r12, %r12
	jne	.L163
	movq	%r14, %rax
	leaq	-128(%rbp), %rbx
	jmp	.L132
	.p2align 4,,10
	.p2align 3
.L158:
	leaq	-96(%rbp), %rdi
	leaq	-136(%rbp), %rsi
	xorl	%edx, %edx
.LEHB7:
	call	_ZNSt7__cxx1112basic_stringIcSt11char_traitsIcESaIcEE9_M_createERmm@PLT
.LEHE7:
	movq	%rax, -96(%rbp)
	movq	%rax, %rdi
	movq	-136(%rbp), %rax
	movq	%rax, -80(%rbp)
.L125:
	movq	%r12, %rdx
	movq	%r15, %rsi
	call	memcpy@PLT
	movq	-136(%rbp), %r12
	movq	-96(%rbp), %rax
	jmp	.L127
	.p2align 4,,10
	.p2align 3
.L160:
	leaq	-128(%rbp), %rbx
	leaq	-136(%rbp), %rsi
	xorl	%edx, %edx
	movq	%rbx, %rdi
.LEHB8:
	.cfi_escape 0x2e,0
	call	_ZNSt7__cxx1112basic_stringIcSt11char_traitsIcESaIcEE9_M_createERmm@PLT
.LEHE8:
	movq	%rax, -128(%rbp)
	movq	%rax, %rdi
	movq	-136(%rbp), %rax
	movq	%rax, -112(%rbp)
.L130:
	movq	%r12, %rdx
	movq	%r15, %rsi
	call	memcpy@PLT
	movq	-136(%rbp), %r12
	movq	-128(%rbp), %rax
	jmp	.L132
.L157:
	leaq	.LC4(%rip), %rdi
.LEHB9:
	call	_ZSt19__throw_logic_errorPKc@PLT
.LEHE9:
.L161:
	call	__stack_chk_fail@PLT
.L159:
	leaq	.LC4(%rip), %rdi
.LEHB10:
	call	_ZSt19__throw_logic_errorPKc@PLT
.LEHE10:
.L163:
	movq	%r14, %rdi
	leaq	-128(%rbp), %rbx
	jmp	.L130
.L162:
	movq	-152(%rbp), %rdi
	jmp	.L125
.L142:
	endbr64
	movq	%rax, %r12
	jmp	.L137
.L143:
	endbr64
	movq	%rax, %r12
	jmp	.L135
	.section	.gcc_except_table
.LLSDA7855:
	.byte	0xff
	.byte	0xff
	.byte	0x1
	.uleb128 .LLSDACSE7855-.LLSDACSB7855
.LLSDACSB7855:
	.uleb128 .LEHB6-.LFB7855
	.uleb128 .LEHE6-.LEHB6
	.uleb128 .L143-.LFB7855
	.uleb128 0
	.uleb128 .LEHB7-.LFB7855
	.uleb128 .LEHE7-.LEHB7
	.uleb128 0
	.uleb128 0
	.uleb128 .LEHB8-.LFB7855
	.uleb128 .LEHE8-.LEHB8
	.uleb128 .L142-.LFB7855
	.uleb128 0
	.uleb128 .LEHB9-.LFB7855
	.uleb128 .LEHE9-.LEHB9
	.uleb128 0
	.uleb128 0
	.uleb128 .LEHB10-.LFB7855
	.uleb128 .LEHE10-.LEHB10
	.uleb128 .L142-.LFB7855
	.uleb128 0
.LLSDACSE7855:
	.text
	.cfi_endproc
	.section	.text.unlikely
	.cfi_startproc
	.cfi_personality 0x9b,DW.ref.__gxx_personality_v0
	.cfi_lsda 0x1b,.LLSDAC7855
	.type	_ZN8asiodnp311DNP3Manager14CreateListenerENSt7__cxx1112basic_stringIcSt11char_traitsIcESaIcEEEN7openpal10LogFiltersEN7asiopal10IPEndpointERKNS9_9TLSConfigESt10shared_ptrINS_16IListenCallbacksEERSt10error_code.cold, @function
_ZN8asiodnp311DNP3Manager14CreateListenerENSt7__cxx1112basic_stringIcSt11char_traitsIcESaIcEEEN7openpal10LogFiltersEN7asiopal10IPEndpointERKNS9_9TLSConfigESt10shared_ptrINS_16IListenCallbacksEERSt10error_code.cold:
.LFSB7855:
.L135:
	.cfi_def_cfa 6, 16
	.cfi_offset 3, -56
	.cfi_offset 6, -16
	.cfi_offset 12, -48
	.cfi_offset 13, -40
	.cfi_offset 14, -32
	.cfi_offset 15, -24
	movq	-128(%rbp), %rdi
	cmpq	%r14, %rdi
	je	.L137
	movq	-112(%rbp), %rax
	leaq	1(%rax), %rsi
	call	_ZdlPvm@PLT
.L137:
	movq	-96(%rbp), %rdi
	cmpq	-152(%rbp), %rdi
	je	.L138
	movq	-80(%rbp), %rax
	leaq	1(%rax), %rsi
	call	_ZdlPvm@PLT
.L138:
	movq	%r12, %rdi
.LEHB11:
	call	_Unwind_Resume@PLT
.LEHE11:
	.cfi_endproc
.LFE7855:
	.section	.gcc_except_table
.LLSDAC7855:
	.byte	0xff
	.byte	0xff
	.byte	0x1
	.uleb128 .LLSDACSEC7855-.LLSDACSBC7855
.LLSDACSBC7855:
	.uleb128 .LEHB11-.LCOLDB24
	.uleb128 .LEHE11-.LEHB11
	.uleb128 0
	.uleb128 0
.LLSDACSEC7855:
	.section	.text.unlikely
	.text
	.size	_ZN8asiodnp311DNP3Manager14CreateListenerENSt7__cxx1112basic_stringIcSt11char_traitsIcESaIcEEEN7openpal10LogFiltersEN7asiopal10IPEndpointERKNS9_9TLSConfigESt10shared_ptrINS_16IListenCallbacksEERSt10error_code, .-_ZN8asiodnp311DNP3Manager14CreateListenerENSt7__cxx1112basic_stringIcSt11char_traitsIcESaIcEEEN7openpal10LogFiltersEN7asiopal10IPEndpointERKNS9_9TLSConfigESt10shared_ptrINS_16IListenCallbacksEERSt10error_code
	.section	.text.unlikely
	.size	_ZN8asiodnp311DNP3Manager14CreateListenerENSt7__cxx1112basic_stringIcSt11char_traitsIcESaIcEEEN7openpal10LogFiltersEN7asiopal10IPEndpointERKNS9_9TLSConfigESt10shared_ptrINS_16IListenCallbacksEERSt10error_code.cold, .-_ZN8asiodnp311DNP3Manager14CreateListenerENSt7__cxx1112basic_stringIcSt11char_traitsIcESaIcEEEN7openpal10LogFiltersEN7asiopal10IPEndpointERKNS9_9TLSConfigESt10shared_ptrINS_16IListenCallbacksEERSt10error_code.cold
.LCOLDE24:
	.text
.LHOTE24:
	.section	.text._ZNSt16_Sp_counted_baseILN9__gnu_cxx12_Lock_policyE2EE10_M_releaseEv,"axG",@progbits,_ZNSt16_Sp_counted_baseILN9__gnu_cxx12_Lock_policyE2EE10_M_releaseEv,comdat
	.align 2
	.p2align 4
	.weak	_ZNSt16_Sp_counted_baseILN9__gnu_cxx12_Lock_policyE2EE10_M_releaseEv
	.type	_ZNSt16_Sp_counted_baseILN9__gnu_cxx12_Lock_policyE2EE10_M_releaseEv, @function
_ZNSt16_Sp_counted_baseILN9__gnu_cxx12_Lock_policyE2EE10_M_releaseEv:
.LFB8897:
	.cfi_startproc
	endbr64
	pushq	%rbp
	.cfi_def_cfa_offset 16
	.cfi_offset 6, -16
	movq	%rdi, %rbp
	pushq	%rbx
	.cfi_def_cfa_offset 24
	.cfi_offset 3, -24
	subq	$8, %rsp
	.cfi_def_cfa_offset 32
	movq	__libc_single_threaded@GOTPCREL(%rip), %rbx
	cmpb	$0, (%rbx)
	je	.L165
	movl	8(%rdi), %eax
	leal	-1(%rax), %edx
	movl	%edx, 8(%rdi)
.L166:
	cmpl	$1, %eax
	je	.L173
.L164:
	addq	$8, %rsp
	.cfi_remember_state
	.cfi_def_cfa_offset 24
	popq	%rbx
	.cfi_def_cfa_offset 16
	popq	%rbp
	.cfi_def_cfa_offset 8
	ret
	.p2align 4,,10
	.p2align 3
.L173:
	.cfi_restore_state
	movq	0(%rbp), %rax
	movq	%rbp, %rdi
	call	*16(%rax)
	cmpb	$0, (%rbx)
	je	.L169
	movl	12(%rbp), %eax
	leal	-1(%rax), %edx
	movl	%edx, 12(%rbp)
.L170:
	cmpl	$1, %eax
	jne	.L164
	movq	0(%rbp), %rax
	movq	%rbp, %rdi
	movq	24(%rax), %rax
	addq	$8, %rsp
	.cfi_remember_state
	.cfi_def_cfa_offset 24
	popq	%rbx
	.cfi_def_cfa_offset 16
	popq	%rbp
	.cfi_def_cfa_offset 8
	jmp	*%rax
	.p2align 4,,10
	.p2align 3
.L165:
	.cfi_restore_state
	movl	$-1, %eax
	lock xaddl	%eax, 8(%rdi)
	jmp	.L166
	.p2align 4,,10
	.p2align 3
.L169:
	movl	$-1, %eax
	lock xaddl	%eax, 12(%rbp)
	jmp	.L170
	.cfi_endproc
.LFE8897:
	.size	_ZNSt16_Sp_counted_baseILN9__gnu_cxx12_Lock_policyE2EE10_M_releaseEv, .-_ZNSt16_Sp_counted_baseILN9__gnu_cxx12_Lock_policyE2EE10_M_releaseEv
	.section	.text.unlikely
	.align 2
.LCOLDB25:
	.text
.LHOTB25:
	.align 2
	.p2align 4
	.globl	_ZN8asiodnp311DNP3Manager12AddTCPClientERKNSt7__cxx1112basic_stringIcSt11char_traitsIcESaIcEEEjRKN7asiopal12ChannelRetryES8_S8_tSt10shared_ptrINS_16IChannelListenerEE
	.type	_ZN8asiodnp311DNP3Manager12AddTCPClientERKNSt7__cxx1112basic_stringIcSt11char_traitsIcESaIcEEEjRKN7asiopal12ChannelRetryES8_S8_tSt10shared_ptrINS_16IChannelListenerEE, @function
_ZN8asiodnp311DNP3Manager12AddTCPClientERKNSt7__cxx1112basic_stringIcSt11char_traitsIcESaIcEEEjRKN7asiopal12ChannelRetryES8_S8_tSt10shared_ptrINS_16IChannelListenerEE:
.LFB7815:
	.cfi_startproc
	.cfi_personality 0x9b,DW.ref.__gxx_personality_v0
	.cfi_lsda 0x1b,.LLSDA7815
	endbr64
	pushq	%rbp
	.cfi_def_cfa_offset 16
	.cfi_offset 6, -16
	movq	%rsp, %rbp
	.cfi_def_cfa_register 6
	pushq	%r14
	pushq	%r12
	.cfi_offset 14, -24
	.cfi_offset 12, -32
	movq	%rdi, %r12
	pushq	%rbx
	subq	$40, %rsp
	.cfi_offset 3, -40
	movq	16(%rbp), %rdi
	movl	24(%rbp), %eax
	movq	%fs:40, %r10
	movq	%r10, -40(%rbp)
	movq	(%rsi), %r10
	movq	32(%rbp), %rsi
	movdqu	(%rsi), %xmm0
	movaps	%xmm0, -64(%rbp)
	movq	-56(%rbp), %rsi
	testq	%rsi, %rsi
	je	.L175
	movq	__libc_single_threaded@GOTPCREL(%rip), %r11
	cmpb	$0, (%r11)
	je	.L176
	addl	$1, 8(%rsi)
.L175:
	subq	$8, %rsp
	leaq	-64(%rbp), %rsi
	movzwl	%ax, %eax
	pushq	%rsi
	movq	%r10, %rsi
	pushq	%rax
	pushq	%rdi
	movq	%r12, %rdi
.LEHB12:
	.cfi_escape 0x2e,0x20
	call	_ZN8asiodnp315DNP3ManagerImpl12AddTCPClientERKNSt7__cxx1112basic_stringIcSt11char_traitsIcESaIcEEEjRKN7asiopal12ChannelRetryES8_S8_tSt10shared_ptrINS_16IChannelListenerEE@PLT
.LEHE12:
	movq	-56(%rbp), %rax
	addq	$32, %rsp
	movq	%rax, %r14
	testq	%rax, %rax
	je	.L174
	movq	__libc_single_threaded@GOTPCREL(%rip), %rbx
	cmpb	$0, (%rbx)
	je	.L179
	movl	8(%rax), %eax
	leal	-1(%rax), %edx
	movl	%edx, 8(%r14)
.L180:
	cmpl	$1, %eax
	je	.L195
.L174:
	movq	-40(%rbp), %rax
	subq	%fs:40, %rax
	jne	.L196
	leaq	-24(%rbp), %rsp
	movq	%r12, %rax
	popq	%rbx
	popq	%r12
	popq	%r14
	popq	%rbp
	.cfi_remember_state
	.cfi_def_cfa 7, 8
	ret
	.p2align 4,,10
	.p2align 3
.L176:
	.cfi_restore_state
	lock addl	$1, 8(%rsi)
	jmp	.L175
	.p2align 4,,10
	.p2align 3
.L195:
	movq	(%r14), %rax
	movq	%r14, %rdi
	call	*16(%rax)
	cmpb	$0, (%rbx)
	je	.L182
	movl	12(%r14), %eax
	leal	-1(%rax), %edx
	movl	%edx, 12(%r14)
.L183:
	cmpl	$1, %eax
	jne	.L174
	movq	(%r14), %rax
	movq	%r14, %rdi
	call	*24(%rax)
	jmp	.L174
	.p2align 4,,10
	.p2align 3
.L179:
	movl	$-1, %eax
	lock xaddl	%eax, 8(%r14)
	jmp	.L180
	.p2align 4,,10
	.p2align 3
.L182:
	movl	$-1, %eax
	lock xaddl	%eax, 12(%r14)
	jmp	.L183
.L196:
	call	__stack_chk_fail@PLT
.L187:
	endbr64
	movq	%rax, %rbx
	jmp	.L184
	.section	.gcc_except_table
.LLSDA7815:
	.byte	0xff
	.byte	0xff
	.byte	0x1
	.uleb128 .LLSDACSE7815-.LLSDACSB7815
.LLSDACSB7815:
	.uleb128 .LEHB12-.LFB7815
	.uleb128 .LEHE12-.LEHB12
	.uleb128 .L187-.LFB7815
	.uleb128 0
.LLSDACSE7815:
	.text
	.cfi_endproc
	.section	.text.unlikely
	.cfi_startproc
	.cfi_personality 0x9b,DW.ref.__gxx_personality_v0
	.cfi_lsda 0x1b,.LLSDAC7815
	.type	_ZN8asiodnp311DNP3Manager12AddTCPClientERKNSt7__cxx1112basic_stringIcSt11char_traitsIcESaIcEEEjRKN7asiopal12ChannelRetryES8_S8_tSt10shared_ptrINS_16IChannelListenerEE.cold, @function
_ZN8asiodnp311DNP3Manager12AddTCPClientERKNSt7__cxx1112basic_stringIcSt11char_traitsIcESaIcEEEjRKN7asiopal12ChannelRetryES8_S8_tSt10shared_ptrINS_16IChannelListenerEE.cold:
.LFSB7815:
.L184:
	.cfi_def_cfa 6, 16
	.cfi_offset 3, -40
	.cfi_offset 6, -16
	.cfi_offset 12, -32
	.cfi_offset 14, -24
	movq	-56(%rbp), %rdi
	testq	%rdi, %rdi
	je	.L185
	call	_ZNSt16_Sp_counted_baseILN9__gnu_cxx12_Lock_policyE2EE10_M_releaseEv@PLT
.L185:
	movq	%rbx, %rdi
.LEHB13:
	call	_Unwind_Resume@PLT
.LEHE13:
	.cfi_endproc
.LFE7815:
	.section	.gcc_except_table
.LLSDAC7815:
	.byte	0xff
	.byte	0xff
	.byte	0x1
	.uleb128 .LLSDACSEC7815-.LLSDACSBC7815
.LLSDACSBC7815:
	.uleb128 .LEHB13-.LCOLDB25
	.uleb128 .LEHE13-.LEHB13
	.uleb128 0
	.uleb128 0
.LLSDACSEC7815:
	.section	.text.unlikely
	.text
	.size	_ZN8asiodnp311DNP3Manager12AddTCPClientERKNSt7__cxx1112basic_stringIcSt11char_traitsIcESaIcEEEjRKN7asiopal12ChannelRetryES8_S8_tSt10shared_ptrINS_16IChannelListenerEE, .-_ZN8asiodnp311DNP3Manager12AddTCPClientERKNSt7__cxx1112basic_stringIcSt11char_traitsIcESaIcEEEjRKN7asiopal12ChannelRetryES8_S8_tSt10shared_ptrINS_16IChannelListenerEE
	.section	.text.unlikely
	.size	_ZN8asiodnp311DNP3Manager12AddTCPClientERKNSt7__cxx1112basic_stringIcSt11char_traitsIcESaIcEEEjRKN7asiopal12ChannelRetryES8_S8_tSt10shared_ptrINS_16IChannelListenerEE.cold, .-_ZN8asiodnp311DNP3Manager12AddTCPClientERKNSt7__cxx1112basic_stringIcSt11char_traitsIcESaIcEEEjRKN7asiopal12ChannelRetryES8_S8_tSt10shared_ptrINS_16IChannelListenerEE.cold
.LCOLDE25:
	.text
.LHOTE25:
	.section	.text.unlikely
	.align 2
.LCOLDB26:
	.text
.LHOTB26:
	.align 2
	.p2align 4
	.globl	_ZN8asiodnp311DNP3Manager12AddTCPServerERKNSt7__cxx1112basic_stringIcSt11char_traitsIcESaIcEEEjRKN7asiopal12ChannelRetryES8_tSt10shared_ptrINS_16IChannelListenerEE
	.type	_ZN8asiodnp311DNP3Manager12AddTCPServerERKNSt7__cxx1112basic_stringIcSt11char_traitsIcESaIcEEEjRKN7asiopal12ChannelRetryES8_tSt10shared_ptrINS_16IChannelListenerEE, @function
_ZN8asiodnp311DNP3Manager12AddTCPServerERKNSt7__cxx1112basic_stringIcSt11char_traitsIcESaIcEEEjRKN7asiopal12ChannelRetryES8_tSt10shared_ptrINS_16IChannelListenerEE:
.LFB7835:
	.cfi_startproc
	.cfi_personality 0x9b,DW.ref.__gxx_personality_v0
	.cfi_lsda 0x1b,.LLSDA7835
	endbr64
	pushq	%rbp
	.cfi_def_cfa_offset 16
	.cfi_offset 6, -16
	movq	%rsp, %rbp
	.cfi_def_cfa_register 6
	pushq	%r14
	pushq	%r12
	.cfi_offset 14, -24
	.cfi_offset 12, -32
	movq	%rdi, %r12
	pushq	%rbx
	subq	$40, %rsp
	.cfi_offset 3, -40
	movq	(%rsi), %r10
	movq	24(%rbp), %rsi
	movq	%fs:40, %rdi
	movq	%rdi, -40(%rbp)
	xorl	%edi, %edi
	movl	16(%rbp), %eax
	movdqu	(%rsi), %xmm0
	movaps	%xmm0, -64(%rbp)
	movq	-56(%rbp), %rsi
	testq	%rsi, %rsi
	je	.L198
	movq	__libc_single_threaded@GOTPCREL(%rip), %rdi
	cmpb	$0, (%rdi)
	je	.L199
	addl	$1, 8(%rsi)
.L198:
	leaq	-64(%rbp), %rsi
	movzwl	%ax, %eax
	movq	%r12, %rdi
	pushq	%rsi
	movq	%r10, %rsi
	pushq	%rax
.LEHB14:
	.cfi_escape 0x2e,0x10
	call	_ZN8asiodnp315DNP3ManagerImpl12AddTCPServerERKNSt7__cxx1112basic_stringIcSt11char_traitsIcESaIcEEEjRKN7asiopal12ChannelRetryES8_tSt10shared_ptrINS_16IChannelListenerEE@PLT
.LEHE14:
	popq	%rax
	movq	-56(%rbp), %rax
	popq	%rdx
	movq	%rax, %r14
	testq	%rax, %rax
	je	.L197
	movq	__libc_single_threaded@GOTPCREL(%rip), %rbx
	cmpb	$0, (%rbx)
	je	.L202
	movl	8(%rax), %eax
	leal	-1(%rax), %edx
	movl	%edx, 8(%r14)
.L203:
	cmpl	$1, %eax
	je	.L218
.L197:
	movq	-40(%rbp), %rax
	subq	%fs:40, %rax
	jne	.L219
	leaq	-24(%rbp), %rsp
	movq	%r12, %rax
	popq	%rbx
	popq	%r12
	popq	%r14
	popq	%rbp
	.cfi_remember_state
	.cfi_def_cfa 7, 8
	ret
	.p2align 4,,10
	.p2align 3
.L199:
	.cfi_restore_state
	lock addl	$1, 8(%rsi)
	jmp	.L198
	.p2align 4,,10
	.p2align 3
.L218:
	movq	(%r14), %rax
	movq	%r14, %rdi
	call	*16(%rax)
	cmpb	$0, (%rbx)
	je	.L205
	movl	12(%r14), %eax
	leal	-1(%rax), %edx
	movl	%edx, 12(%r14)
.L206:
	cmpl	$1, %eax
	jne	.L197
	movq	(%r14), %rax
	movq	%r14, %rdi
	call	*24(%rax)
	jmp	.L197
	.p2align 4,,10
	.p2align 3
.L202:
	movl	$-1, %eax
	lock xaddl	%eax, 8(%r14)
	jmp	.L203
	.p2align 4,,10
	.p2align 3
.L205:
	movl	$-1, %eax
	lock xaddl	%eax, 12(%r14)
	jmp	.L206
.L219:
	call	__stack_chk_fail@PLT
.L210:
	endbr64
	movq	%rax, %rbx
	jmp	.L207
	.section	.gcc_except_table
.LLSDA7835:
	.byte	0xff
	.byte	0xff
	.byte	0x1
	.uleb128 .LLSDACSE7835-.LLSDACSB7835
.LLSDACSB7835:
	.uleb128 .LEHB14-.LFB7835
	.uleb128 .LEHE14-.LEHB14
	.uleb128 .L210-.LFB7835
	.uleb128 0
.LLSDACSE7835:
	.text
	.cfi_endproc
	.section	.text.unlikely
	.cfi_startproc
	.cfi_personality 0x9b,DW.ref.__gxx_personality_v0
	.cfi_lsda 0x1b,.LLSDAC7835
	.type	_ZN8asiodnp311DNP3Manager12AddTCPServerERKNSt7__cxx1112basic_stringIcSt11char_traitsIcESaIcEEEjRKN7asiopal12ChannelRetryES8_tSt10shared_ptrINS_16IChannelListenerEE.cold, @function
_ZN8asiodnp311DNP3Manager12AddTCPServerERKNSt7__cxx1112basic_stringIcSt11char_traitsIcESaIcEEEjRKN7asiopal12ChannelRetryES8_tSt10shared_ptrINS_16IChannelListenerEE.cold:
.LFSB7835:
.L207:
	.cfi_def_cfa 6, 16
	.cfi_offset 3, -40
	.cfi_offset 6, -16
	.cfi_offset 12, -32
	.cfi_offset 14, -24
	movq	-56(%rbp), %rdi
	testq	%rdi, %rdi
	je	.L208
	call	_ZNSt16_Sp_counted_baseILN9__gnu_cxx12_Lock_policyE2EE10_M_releaseEv@PLT
.L208:
	movq	%rbx, %rdi
.LEHB15:
	call	_Unwind_Resume@PLT
.LEHE15:
	.cfi_endproc
.LFE7835:
	.section	.gcc_except_table
.LLSDAC7835:
	.byte	0xff
	.byte	0xff
	.byte	0x1
	.uleb128 .LLSDACSEC7835-.LLSDACSBC7835
.LLSDACSBC7835:
	.uleb128 .LEHB15-.LCOLDB26
	.uleb128 .LEHE15-.LEHB15
	.uleb128 0
	.uleb128 0
.LLSDACSEC7835:
	.section	.text.unlikely
	.text
	.size	_ZN8asiodnp311DNP3Manager12AddTCPServerERKNSt7__cxx1112basic_stringIcSt11char_traitsIcESaIcEEEjRKN7asiopal12ChannelRetryES8_tSt10shared_ptrINS_16IChannelListenerEE, .-_ZN8asiodnp311DNP3Manager12AddTCPServerERKNSt7__cxx1112basic_stringIcSt11char_traitsIcESaIcEEEjRKN7asiopal12ChannelRetryES8_tSt10shared_ptrINS_16IChannelListenerEE
	.section	.text.unlikely
	.size	_ZN8asiodnp311DNP3Manager12AddTCPServerERKNSt7__cxx1112basic_stringIcSt11char_traitsIcESaIcEEEjRKN7asiopal12ChannelRetryES8_tSt10shared_ptrINS_16IChannelListenerEE.cold, .-_ZN8asiodnp311DNP3Manager12AddTCPServerERKNSt7__cxx1112basic_stringIcSt11char_traitsIcESaIcEEEjRKN7asiopal12ChannelRetryES8_tSt10shared_ptrINS_16IChannelListenerEE.cold
.LCOLDE26:
	.text
.LHOTE26:
	.section	.text.unlikely
	.align 2
.LCOLDB27:
	.text
.LHOTB27:
	.align 2
	.p2align 4
	.globl	_ZN8asiodnp311DNP3Manager12AddTLSClientERKNSt7__cxx1112basic_stringIcSt11char_traitsIcESaIcEEEjRKN7asiopal12ChannelRetryES8_S8_tRKNS9_9TLSConfigESt10shared_ptrINS_16IChannelListenerEERSt10error_code
	.type	_ZN8asiodnp311DNP3Manager12AddTLSClientERKNSt7__cxx1112basic_stringIcSt11char_traitsIcESaIcEEEjRKN7asiopal12ChannelRetryES8_S8_tRKNS9_9TLSConfigESt10shared_ptrINS_16IChannelListenerEERSt10error_code, @function
_ZN8asiodnp311DNP3Manager12AddTLSClientERKNSt7__cxx1112basic_stringIcSt11char_traitsIcESaIcEEEjRKN7asiopal12ChannelRetryES8_S8_tRKNS9_9TLSConfigESt10shared_ptrINS_16IChannelListenerEERSt10error_code:
.LFB7843:
	.cfi_startproc
	.cfi_personality 0x9b,DW.ref.__gxx_personality_v0
	.cfi_lsda 0x1b,.LLSDA7843
	endbr64
	pushq	%rbp
	.cfi_def_cfa_offset 16
	.cfi_offset 6, -16
	movq	%rsp, %rbp
	.cfi_def_cfa_register 6
	pushq	%r14
	pushq	%r12
	.cfi_offset 14, -24
	.cfi_offset 12, -32
	movq	%rdi, %r12
	pushq	%rbx
	subq	$40, %rsp
	.cfi_offset 3, -40
	movq	16(%rbp), %r14
	movl	24(%rbp), %eax
	movq	%fs:40, %r10
	movq	%r10, -40(%rbp)
	movq	(%rsi), %r10
	movq	40(%rbp), %rsi
	movq	32(%rbp), %rdi
	movq	48(%rbp), %r11
	movdqu	(%rsi), %xmm0
	movaps	%xmm0, -64(%rbp)
	movq	-56(%rbp), %rsi
	testq	%rsi, %rsi
	je	.L221
	movq	__libc_single_threaded@GOTPCREL(%rip), %rbx
	cmpb	$0, (%rbx)
	je	.L222
	addl	$1, 8(%rsi)
.L221:
	subq	$8, %rsp
	leaq	-64(%rbp), %rsi
	movzwl	%ax, %eax
	pushq	%r11
	pushq	%rsi
	movq	%r10, %rsi
	pushq	%rdi
	movq	%r12, %rdi
	pushq	%rax
	pushq	%r14
.LEHB16:
	.cfi_escape 0x2e,0x30
	call	_ZN8asiodnp315DNP3ManagerImpl12AddTLSClientERKNSt7__cxx1112basic_stringIcSt11char_traitsIcESaIcEEEjRKN7asiopal12ChannelRetryES8_S8_tRKNS9_9TLSConfigESt10shared_ptrINS_16IChannelListenerEERSt10error_code@PLT
.LEHE16:
	movq	-56(%rbp), %rax
	addq	$48, %rsp
	movq	%rax, %r14
	testq	%rax, %rax
	je	.L220
	movq	__libc_single_threaded@GOTPCREL(%rip), %rbx
	cmpb	$0, (%rbx)
	je	.L225
	movl	8(%rax), %eax
	leal	-1(%rax), %edx
	movl	%edx, 8(%r14)
.L226:
	cmpl	$1, %eax
	je	.L241
.L220:
	movq	-40(%rbp), %rax
	subq	%fs:40, %rax
	jne	.L242
	leaq	-24(%rbp), %rsp
	movq	%r12, %rax
	popq	%rbx
	popq	%r12
	popq	%r14
	popq	%rbp
	.cfi_remember_state
	.cfi_def_cfa 7, 8
	ret
	.p2align 4,,10
	.p2align 3
.L222:
	.cfi_restore_state
	lock addl	$1, 8(%rsi)
	jmp	.L221
	.p2align 4,,10
	.p2align 3
.L241:
	movq	(%r14), %rax
	movq	%r14, %rdi
	call	*16(%rax)
	cmpb	$0, (%rbx)
	je	.L228
	movl	12(%r14), %eax
	leal	-1(%rax), %edx
	movl	%edx, 12(%r14)
.L229:
	cmpl	$1, %eax
	jne	.L220
	movq	(%r14), %rax
	movq	%r14, %rdi
	call	*24(%rax)
	jmp	.L220
	.p2align 4,,10
	.p2align 3
.L225:
	movl	$-1, %eax
	lock xaddl	%eax, 8(%r14)
	jmp	.L226
	.p2align 4,,10
	.p2align 3
.L228:
	movl	$-1, %eax
	lock xaddl	%eax, 12(%r14)
	jmp	.L229
.L242:
	call	__stack_chk_fail@PLT
.L233:
	endbr64
	movq	%rax, %rbx
	jmp	.L230
	.section	.gcc_except_table
.LLSDA7843:
	.byte	0xff
	.byte	0xff
	.byte	0x1
	.uleb128 .LLSDACSE7843-.LLSDACSB7843
.LLSDACSB7843:
	.uleb128 .LEHB16-.LFB7843
	.uleb128 .LEHE16-.LEHB16
	.uleb128 .L233-.LFB7843
	.uleb128 0
.LLSDACSE7843:
	.text
	.cfi_endproc
	.section	.text.unlikely
	.cfi_startproc
	.cfi_personality 0x9b,DW.ref.__gxx_personality_v0
	.cfi_lsda 0x1b,.LLSDAC7843
	.type	_ZN8asiodnp311DNP3Manager12AddTLSClientERKNSt7__cxx1112basic_stringIcSt11char_traitsIcESaIcEEEjRKN7asiopal12ChannelRetryES8_S8_tRKNS9_9TLSConfigESt10shared_ptrINS_16IChannelListenerEERSt10error_code.cold, @function
_ZN8asiodnp311DNP3Manager12AddTLSClientERKNSt7__cxx1112basic_stringIcSt11char_traitsIcESaIcEEEjRKN7asiopal12ChannelRetryES8_S8_tRKNS9_9TLSConfigESt10shared_ptrINS_16IChannelListenerEERSt10error_code.cold:
.LFSB7843:
.L230:
	.cfi_def_cfa 6, 16
	.cfi_offset 3, -40
	.cfi_offset 6, -16
	.cfi_offset 12, -32
	.cfi_offset 14, -24
	movq	-56(%rbp), %rdi
	testq	%rdi, %rdi
	je	.L231
	call	_ZNSt16_Sp_counted_baseILN9__gnu_cxx12_Lock_policyE2EE10_M_releaseEv@PLT
.L231:
	movq	%rbx, %rdi
.LEHB17:
	call	_Unwind_Resume@PLT
.LEHE17:
	.cfi_endproc
.LFE7843:
	.section	.gcc_except_table
.LLSDAC7843:
	.byte	0xff
	.byte	0xff
	.byte	0x1
	.uleb128 .LLSDACSEC7843-.LLSDACSBC7843
.LLSDACSBC7843:
	.uleb128 .LEHB17-.LCOLDB27
	.uleb128 .LEHE17-.LEHB17
	.uleb128 0
	.uleb128 0
.LLSDACSEC7843:
	.section	.text.unlikely
	.text
	.size	_ZN8asiodnp311DNP3Manager12AddTLSClientERKNSt7__cxx1112basic_stringIcSt11char_traitsIcESaIcEEEjRKN7asiopal12ChannelRetryES8_S8_tRKNS9_9TLSConfigESt10shared_ptrINS_16IChannelListenerEERSt10error_code, .-_ZN8asiodnp311DNP3Manager12AddTLSClientERKNSt7__cxx1112basic_stringIcSt11char_traitsIcESaIcEEEjRKN7asiopal12ChannelRetryES8_S8_tRKNS9_9TLSConfigESt10shared_ptrINS_16IChannelListenerEERSt10error_code
	.section	.text.unlikely
	.size	_ZN8asiodnp311DNP3Manager12AddTLSClientERKNSt7__cxx1112basic_stringIcSt11char_traitsIcESaIcEEEjRKN7asiopal12ChannelRetryES8_S8_tRKNS9_9TLSConfigESt10shared_ptrINS_16IChannelListenerEERSt10error_code.cold, .-_ZN8asiodnp311DNP3Manager12AddTLSClientERKNSt7__cxx1112basic_stringIcSt11char_traitsIcESaIcEEEjRKN7asiopal12ChannelRetryES8_S8_tRKNS9_9TLSConfigESt10shared_ptrINS_16IChannelListenerEERSt10error_code.cold
.LCOLDE27:
	.text
.LHOTE27:
	.section	.text.unlikely
	.align 2
.LCOLDB28:
	.text
.LHOTB28:
	.align 2
	.p2align 4
	.globl	_ZN8asiodnp311DNP3Manager12AddTLSServerERKNSt7__cxx1112basic_stringIcSt11char_traitsIcESaIcEEEjRKN7asiopal12ChannelRetryES8_tRKNS9_9TLSConfigESt10shared_ptrINS_16IChannelListenerEERSt10error_code
	.type	_ZN8asiodnp311DNP3Manager12AddTLSServerERKNSt7__cxx1112basic_stringIcSt11char_traitsIcESaIcEEEjRKN7asiopal12ChannelRetryES8_tRKNS9_9TLSConfigESt10shared_ptrINS_16IChannelListenerEERSt10error_code, @function
_ZN8asiodnp311DNP3Manager12AddTLSServerERKNSt7__cxx1112basic_stringIcSt11char_traitsIcESaIcEEEjRKN7asiopal12ChannelRetryES8_tRKNS9_9TLSConfigESt10shared_ptrINS_16IChannelListenerEERSt10error_code:
.LFB7844:
	.cfi_startproc
	.cfi_personality 0x9b,DW.ref.__gxx_personality_v0
	.cfi_lsda 0x1b,.LLSDA7844
	endbr64
	pushq	%rbp
	.cfi_def_cfa_offset 16
	.cfi_offset 6, -16
	movq	%rsp, %rbp
	.cfi_def_cfa_register 6
	pushq	%r14
	pushq	%r12
	.cfi_offset 14, -24
	.cfi_offset 12, -32
	movq	%rdi, %r12
	pushq	%rbx
	subq	$40, %rsp
	.cfi_offset 3, -40
	movl	16(%rbp), %eax
	movq	24(%rbp), %rdi
	movq	%fs:40, %r10
	movq	%r10, -40(%rbp)
	movq	(%rsi), %r10
	movq	32(%rbp), %rsi
	movq	40(%rbp), %r11
	movdqu	(%rsi), %xmm0
	movaps	%xmm0, -64(%rbp)
	movq	-56(%rbp), %rsi
	testq	%rsi, %rsi
	je	.L244
	movq	__libc_single_threaded@GOTPCREL(%rip), %rbx
	cmpb	$0, (%rbx)
	je	.L245
	addl	$1, 8(%rsi)
.L244:
	leaq	-64(%rbp), %rsi
	movzwl	%ax, %eax
	pushq	%r11
	pushq	%rsi
	movq	%r10, %rsi
	pushq	%rdi
	movq	%r12, %rdi
	pushq	%rax
.LEHB18:
	.cfi_escape 0x2e,0x20
	call	_ZN8asiodnp315DNP3ManagerImpl12AddTLSServerERKNSt7__cxx1112basic_stringIcSt11char_traitsIcESaIcEEEjRKN7asiopal12ChannelRetryES8_tRKNS9_9TLSConfigESt10shared_ptrINS_16IChannelListenerEERSt10error_code@PLT
.LEHE18:
	movq	-56(%rbp), %rax
	addq	$32, %rsp
	movq	%rax, %r14
	testq	%rax, %rax
	je	.L243
	movq	__libc_single_threaded@GOTPCREL(%rip), %rbx
	cmpb	$0, (%rbx)
	je	.L248
	movl	8(%rax), %eax
	leal	-1(%rax), %edx
	movl	%edx, 8(%r14)
.L249:
	cmpl	$1, %eax
	je	.L264
.L243:
	movq	-40(%rbp), %rax
	subq	%fs:40, %rax
	jne	.L265
	leaq	-24(%rbp), %rsp
	movq	%r12, %rax
	popq	%rbx
	popq	%r12
	popq	%r14
	popq	%rbp
	.cfi_remember_state
	.cfi_def_cfa 7, 8
	ret
	.p2align 4,,10
	.p2align 3
.L245:
	.cfi_restore_state
	lock addl	$1, 8(%rsi)
	jmp	.L244
	.p2align 4,,10
	.p2align 3
.L264:
	movq	(%r14), %rax
	movq	%r14, %rdi
	call	*16(%rax)
	cmpb	$0, (%rbx)
	je	.L251
	movl	12(%r14), %eax
	leal	-1(%rax), %edx
	movl	%edx, 12(%r14)
.L252:
	cmpl	$1, %eax
	jne	.L243
	movq	(%r14), %rax
	movq	%r14, %rdi
	call	*24(%rax)
	jmp	.L243
	.p2align 4,,10
	.p2align 3
.L248:
	movl	$-1, %eax
	lock xaddl	%eax, 8(%r14)
	jmp	.L249
	.p2align 4,,10
	.p2align 3
.L251:
	movl	$-1, %eax
	lock xaddl	%eax, 12(%r14)
	jmp	.L252
.L265:
	call	__stack_chk_fail@PLT
.L256:
	endbr64
	movq	%rax, %rbx
	jmp	.L253
	.section	.gcc_except_table
.LLSDA7844:
	.byte	0xff
	.byte	0xff
	.byte	0x1
	.uleb128 .LLSDACSE7844-.LLSDACSB7844
.LLSDACSB7844:
	.uleb128 .LEHB18-.LFB7844
	.uleb128 .LEHE18-.LEHB18
	.uleb128 .L256-.LFB7844
	.uleb128 0
.LLSDACSE7844:
	.text
	.cfi_endproc
	.section	.text.unlikely
	.cfi_startproc
	.cfi_personality 0x9b,DW.ref.__gxx_personality_v0
	.cfi_lsda 0x1b,.LLSDAC7844
	.type	_ZN8asiodnp311DNP3Manager12AddTLSServerERKNSt7__cxx1112basic_stringIcSt11char_traitsIcESaIcEEEjRKN7asiopal12ChannelRetryES8_tRKNS9_9TLSConfigESt10shared_ptrINS_16IChannelListenerEERSt10error_code.cold, @function
_ZN8asiodnp311DNP3Manager12AddTLSServerERKNSt7__cxx1112basic_stringIcSt11char_traitsIcESaIcEEEjRKN7asiopal12ChannelRetryES8_tRKNS9_9TLSConfigESt10shared_ptrINS_16IChannelListenerEERSt10error_code.cold:
.LFSB7844:
.L253:
	.cfi_def_cfa 6, 16
	.cfi_offset 3, -40
	.cfi_offset 6, -16
	.cfi_offset 12, -32
	.cfi_offset 14, -24
	movq	-56(%rbp), %rdi
	testq	%rdi, %rdi
	je	.L254
	call	_ZNSt16_Sp_counted_baseILN9__gnu_cxx12_Lock_policyE2EE10_M_releaseEv@PLT
.L254:
	movq	%rbx, %rdi
.LEHB19:
	call	_Unwind_Resume@PLT
.LEHE19:
	.cfi_endproc
.LFE7844:
	.section	.gcc_except_table
.LLSDAC7844:
	.byte	0xff
	.byte	0xff
	.byte	0x1
	.uleb128 .LLSDACSEC7844-.LLSDACSBC7844
.LLSDACSBC7844:
	.uleb128 .LEHB19-.LCOLDB28
	.uleb128 .LEHE19-.LEHB19
	.uleb128 0
	.uleb128 0
.LLSDACSEC7844:
	.section	.text.unlikely
	.text
	.size	_ZN8asiodnp311DNP3Manager12AddTLSServerERKNSt7__cxx1112basic_stringIcSt11char_traitsIcESaIcEEEjRKN7asiopal12ChannelRetryES8_tRKNS9_9TLSConfigESt10shared_ptrINS_16IChannelListenerEERSt10error_code, .-_ZN8asiodnp311DNP3Manager12AddTLSServerERKNSt7__cxx1112basic_stringIcSt11char_traitsIcESaIcEEEjRKN7asiopal12ChannelRetryES8_tRKNS9_9TLSConfigESt10shared_ptrINS_16IChannelListenerEERSt10error_code
	.section	.text.unlikely
	.size	_ZN8asiodnp311DNP3Manager12AddTLSServerERKNSt7__cxx1112basic_stringIcSt11char_traitsIcESaIcEEEjRKN7asiopal12ChannelRetryES8_tRKNS9_9TLSConfigESt10shared_ptrINS_16IChannelListenerEERSt10error_code.cold, .-_ZN8asiodnp311DNP3Manager12AddTLSServerERKNSt7__cxx1112basic_stringIcSt11char_traitsIcESaIcEEEjRKN7asiopal12ChannelRetryES8_tRKNS9_9TLSConfigESt10shared_ptrINS_16IChannelListenerEERSt10error_code.cold
.LCOLDE28:
	.text
.LHOTE28:
	.section	.text.unlikely
	.align 2
.LCOLDB29:
	.text
.LHOTB29:
	.align 2
	.p2align 4
	.globl	_ZN8asiodnp311DNP3Manager9AddSerialERKNSt7__cxx1112basic_stringIcSt11char_traitsIcESaIcEEEjRKN7asiopal12ChannelRetryENS9_14SerialSettingsESt10shared_ptrINS_16IChannelListenerEE
	.type	_ZN8asiodnp311DNP3Manager9AddSerialERKNSt7__cxx1112basic_stringIcSt11char_traitsIcESaIcEEEjRKN7asiopal12ChannelRetryENS9_14SerialSettingsESt10shared_ptrINS_16IChannelListenerEE, @function
_ZN8asiodnp311DNP3Manager9AddSerialERKNSt7__cxx1112basic_stringIcSt11char_traitsIcESaIcEEEjRKN7asiopal12ChannelRetryENS9_14SerialSettingsESt10shared_ptrINS_16IChannelListenerEE:
.LFB7836:
	.cfi_startproc
	.cfi_personality 0x9b,DW.ref.__gxx_personality_v0
	.cfi_lsda 0x1b,.LLSDA7836
	endbr64
	pushq	%rbp
	.cfi_def_cfa_offset 16
	.cfi_offset 6, -16
	movq	%rsp, %rbp
	.cfi_def_cfa_register 6
	pushq	%r15
	pushq	%r14
	pushq	%r13
	.cfi_offset 15, -24
	.cfi_offset 14, -32
	.cfi_offset 13, -40
	movq	%rdi, %r13
	pushq	%r12
	pushq	%rbx
	.cfi_offset 12, -48
	.cfi_offset 3, -56
	movq	%r9, %rbx
	subq	$152, %rsp
	movq	%rdx, -168(%rbp)
	movl	%ecx, -172(%rbp)
	movq	%r8, -184(%rbp)
	movq	%fs:40, %rax
	movq	%rax, -56(%rbp)
	movq	(%rsi), %rax
	movq	%rax, -160(%rbp)
	movq	16(%rbp), %rax
	movdqu	(%rax), %xmm0
	movaps	%xmm0, -128(%rbp)
	movq	-120(%rbp), %rax
	testq	%rax, %rax
	je	.L267
	movq	__libc_single_threaded@GOTPCREL(%rip), %rdx
	cmpb	$0, (%rdx)
	je	.L268
	addl	$1, 8(%rax)
.L267:
	movq	(%rbx), %r14
	leaq	-96(%rbp), %rax
	movq	8(%rbx), %r12
	movq	%rax, -152(%rbp)
	movq	%rax, -112(%rbp)
	movq	%r14, %rax
	addq	%r12, %rax
	je	.L269
	testq	%r14, %r14
	je	.L303
.L269:
	movq	%r12, -136(%rbp)
	cmpq	$15, %r12
	ja	.L304
	cmpq	$1, %r12
	jne	.L272
	movzbl	(%r14), %eax
	leaq	-112(%rbp), %r15
	movb	%al, -96(%rbp)
	movq	-152(%rbp), %rax
.L273:
	movq	%r12, -104(%rbp)
	movl	-172(%rbp), %ecx
	movq	%r15, %r9
	movq	%r13, %rdi
	movb	$0, (%rax,%r12)
	movq	32(%rbx), %rax
	subq	$8, %rsp
	movq	-184(%rbp), %r8
	movq	-168(%rbp), %rdx
	movq	%rax, -80(%rbp)
	movzwl	40(%rbx), %eax
	movq	-160(%rbp), %rsi
	movw	%ax, -72(%rbp)
	movzbl	42(%rbx), %eax
	movb	%al, -70(%rbp)
	movq	48(%rbx), %rax
	movq	%rax, -64(%rbp)
	leaq	-128(%rbp), %rax
	pushq	%rax
.LEHB20:
	.cfi_escape 0x2e,0x10
	call	_ZN8asiodnp315DNP3ManagerImpl9AddSerialERKNSt7__cxx1112basic_stringIcSt11char_traitsIcESaIcEEEjRKN7asiopal12ChannelRetryENS9_14SerialSettingsESt10shared_ptrINS_16IChannelListenerEE@PLT
.LEHE20:
	popq	%rax
	movq	-112(%rbp), %rdi
	popq	%rdx
	cmpq	-152(%rbp), %rdi
	je	.L274
	movq	-96(%rbp), %rax
	leaq	1(%rax), %rsi
	call	_ZdlPvm@PLT
.L274:
	movq	-120(%rbp), %rax
	movq	%rax, %r14
	testq	%rax, %rax
	je	.L266
	movq	__libc_single_threaded@GOTPCREL(%rip), %rbx
	cmpb	$0, (%rbx)
	je	.L277
	movl	8(%rax), %eax
	leal	-1(%rax), %edx
	movl	%edx, 8(%r14)
.L278:
	cmpl	$1, %eax
	je	.L305
.L266:
	movq	-56(%rbp), %rax
	subq	%fs:40, %rax
	jne	.L306
	leaq	-40(%rbp), %rsp
	movq	%r13, %rax
	popq	%rbx
	popq	%r12
	popq	%r13
	popq	%r14
	popq	%r15
	popq	%rbp
	.cfi_remember_state
	.cfi_def_cfa 7, 8
	ret
	.p2align 4,,10
	.p2align 3
.L272:
	.cfi_restore_state
	testq	%r12, %r12
	jne	.L307
	movq	-152(%rbp), %rax
	leaq	-112(%rbp), %r15
	jmp	.L273
	.p2align 4,,10
	.p2align 3
.L268:
	lock addl	$1, 8(%rax)
	jmp	.L267
	.p2align 4,,10
	.p2align 3
.L304:
	leaq	-112(%rbp), %r15
	leaq	-136(%rbp), %rsi
	xorl	%edx, %edx
	movq	%r15, %rdi
.LEHB21:
	.cfi_escape 0x2e,0
	call	_ZNSt7__cxx1112basic_stringIcSt11char_traitsIcESaIcEE9_M_createERmm@PLT
	movq	%rax, -112(%rbp)
	movq	%rax, %rdi
	movq	-136(%rbp), %rax
	movq	%rax, -96(%rbp)
.L271:
	movq	%r12, %rdx
	movq	%r14, %rsi
	call	memcpy@PLT
	movq	-136(%rbp), %r12
	movq	-112(%rbp), %rax
	jmp	.L273
	.p2align 4,,10
	.p2align 3
.L305:
	movq	(%r14), %rax
	movq	%r14, %rdi
	call	*16(%rax)
	cmpb	$0, (%rbx)
	je	.L280
	movl	12(%r14), %eax
	leal	-1(%rax), %edx
	movl	%edx, 12(%r14)
.L281:
	cmpl	$1, %eax
	jne	.L266
	movq	(%r14), %rax
	movq	%r14, %rdi
	call	*24(%rax)
	jmp	.L266
	.p2align 4,,10
	.p2align 3
.L277:
	movl	$-1, %eax
	lock xaddl	%eax, 8(%r14)
	jmp	.L278
	.p2align 4,,10
	.p2align 3
.L280:
	movl	$-1, %eax
	lock xaddl	%eax, 12(%r14)
	jmp	.L281
.L303:
	leaq	.LC4(%rip), %rdi
	call	_ZSt19__throw_logic_errorPKc@PLT
.LEHE21:
.L306:
	call	__stack_chk_fail@PLT
.L307:
	movq	-152(%rbp), %rdi
	leaq	-112(%rbp), %r15
	jmp	.L271
.L288:
	endbr64
	movq	%rax, %rbx
	jmp	.L284
.L289:
	endbr64
	movq	%rax, %rbx
	jmp	.L282
	.section	.gcc_except_table
.LLSDA7836:
	.byte	0xff
	.byte	0xff
	.byte	0x1
	.uleb128 .LLSDACSE7836-.LLSDACSB7836
.LLSDACSB7836:
	.uleb128 .LEHB20-.LFB7836
	.uleb128 .LEHE20-.LEHB20
	.uleb128 .L289-.LFB7836
	.uleb128 0
	.uleb128 .LEHB21-.LFB7836
	.uleb128 .LEHE21-.LEHB21
	.uleb128 .L288-.LFB7836
	.uleb128 0
.LLSDACSE7836:
	.text
	.cfi_endproc
	.section	.text.unlikely
	.cfi_startproc
	.cfi_personality 0x9b,DW.ref.__gxx_personality_v0
	.cfi_lsda 0x1b,.LLSDAC7836
	.type	_ZN8asiodnp311DNP3Manager9AddSerialERKNSt7__cxx1112basic_stringIcSt11char_traitsIcESaIcEEEjRKN7asiopal12ChannelRetryENS9_14SerialSettingsESt10shared_ptrINS_16IChannelListenerEE.cold, @function
_ZN8asiodnp311DNP3Manager9AddSerialERKNSt7__cxx1112basic_stringIcSt11char_traitsIcESaIcEEEjRKN7asiopal12ChannelRetryENS9_14SerialSettingsESt10shared_ptrINS_16IChannelListenerEE.cold:
.LFSB7836:
.L282:
	.cfi_def_cfa 6, 16
	.cfi_offset 3, -56
	.cfi_offset 6, -16
	.cfi_offset 12, -48
	.cfi_offset 13, -40
	.cfi_offset 14, -32
	.cfi_offset 15, -24
	movq	-112(%rbp), %rdi
	cmpq	-152(%rbp), %rdi
	je	.L284
	movq	-96(%rbp), %rax
	leaq	1(%rax), %rsi
	call	_ZdlPvm@PLT
.L284:
	movq	-120(%rbp), %rdi
	testq	%rdi, %rdi
	je	.L285
	call	_ZNSt16_Sp_counted_baseILN9__gnu_cxx12_Lock_policyE2EE10_M_releaseEv@PLT
.L285:
	movq	%rbx, %rdi
.LEHB22:
	call	_Unwind_Resume@PLT
.LEHE22:
	.cfi_endproc
.LFE7836:
	.section	.gcc_except_table
.LLSDAC7836:
	.byte	0xff
	.byte	0xff
	.byte	0x1
	.uleb128 .LLSDACSEC7836-.LLSDACSBC7836
.LLSDACSBC7836:
	.uleb128 .LEHB22-.LCOLDB29
	.uleb128 .LEHE22-.LEHB22
	.uleb128 0
	.uleb128 0
.LLSDACSEC7836:
	.section	.text.unlikely
	.text
	.size	_ZN8asiodnp311DNP3Manager9AddSerialERKNSt7__cxx1112basic_stringIcSt11char_traitsIcESaIcEEEjRKN7asiopal12ChannelRetryENS9_14SerialSettingsESt10shared_ptrINS_16IChannelListenerEE, .-_ZN8asiodnp311DNP3Manager9AddSerialERKNSt7__cxx1112basic_stringIcSt11char_traitsIcESaIcEEEjRKN7asiopal12ChannelRetryENS9_14SerialSettingsESt10shared_ptrINS_16IChannelListenerEE
	.section	.text.unlikely
	.size	_ZN8asiodnp311DNP3Manager9AddSerialERKNSt7__cxx1112basic_stringIcSt11char_traitsIcESaIcEEEjRKN7asiopal12ChannelRetryENS9_14SerialSettingsESt10shared_ptrINS_16IChannelListenerEE.cold, .-_ZN8asiodnp311DNP3Manager9AddSerialERKNSt7__cxx1112basic_stringIcSt11char_traitsIcESaIcEEEjRKN7asiopal12ChannelRetryENS9_14SerialSettingsESt10shared_ptrINS_16IChannelListenerEE.cold
.LCOLDE29:
	.text
.LHOTE29:
	.section	.text.unlikely
	.align 2
.LCOLDB30:
	.text
.LHOTB30:
	.align 2
	.p2align 4
	.globl	_ZN8asiodnp311DNP3ManagerC2EjSt10shared_ptrIN7openpal11ILogHandlerEESt8functionIFvvEES7_
	.type	_ZN8asiodnp311DNP3ManagerC2EjSt10shared_ptrIN7openpal11ILogHandlerEESt8functionIFvvEES7_, @function
_ZN8asiodnp311DNP3ManagerC2EjSt10shared_ptrIN7openpal11ILogHandlerEESt8functionIFvvEES7_:
.LFB7809:
	.cfi_startproc
	.cfi_personality 0x9b,DW.ref.__gxx_personality_v0
	.cfi_lsda 0x1b,.LLSDA7809
	endbr64
	pushq	%r15
	.cfi_def_cfa_offset 16
	.cfi_offset 15, -16
	pushq	%r14
	.cfi_def_cfa_offset 24
	.cfi_offset 14, -24
	movl	%esi, %r14d
	pushq	%r13
	.cfi_def_cfa_offset 32
	.cfi_offset 13, -32
	movq	%rdi, %r13
	pushq	%r12
	.cfi_def_cfa_offset 40
	.cfi_offset 12, -40
	pushq	%rbp
	.cfi_def_cfa_offset 48
	.cfi_offset 6, -48
	movq	%rcx, %rbp
	pushq	%rbx
	.cfi_def_cfa_offset 56
	.cfi_offset 3, -56
	movq	%r8, %rbx
	subq	$104, %rsp
	.cfi_def_cfa_offset 160
	movdqu	(%rdx), %xmm1
	movq	%fs:40, %rax
	movq	%rax, 88(%rsp)
	xorl	%eax, %eax
	movaps	%xmm1, (%rsp)
	movq	8(%rsp), %rax
	testq	%rax, %rax
	je	.L309
	movq	__libc_single_threaded@GOTPCREL(%rip), %rdx
	cmpb	$0, (%rdx)
	je	.L310
	addl	$1, 8(%rax)
.L309:
	movq	16(%rbp), %rax
	pxor	%xmm0, %xmm0
	movq	$0, 32(%rsp)
	movq	$0, 40(%rsp)
	movaps	%xmm0, 16(%rsp)
	testq	%rax, %rax
	je	.L311
	leaq	16(%rsp), %r12
	movl	$2, %edx
	movq	%rbp, %rsi
	movq	%r12, %rdi
.LEHB23:
	call	*%rax
.LEHE23:
	movdqu	16(%rbp), %xmm2
	movaps	%xmm2, 32(%rsp)
.L311:
	movq	16(%rbx), %rax
	pxor	%xmm0, %xmm0
	movq	$0, 64(%rsp)
	movq	$0, 72(%rsp)
	movaps	%xmm0, 48(%rsp)
	testq	%rax, %rax
	je	.L313
	leaq	48(%rsp), %r15
	movl	$2, %edx
	movq	%rbx, %rsi
	movq	%r15, %rdi
.LEHB24:
	call	*%rax
.LEHE24:
	movdqu	16(%rbx), %xmm3
	movaps	%xmm3, 64(%rsp)
.L313:
	movl	$272, %edi
.LEHB25:
	call	_Znwm@PLT
.LEHE25:
	leaq	48(%rsp), %r15
	leaq	16(%rsp), %r12
	movq	%rsp, %rdx
	movl	%r14d, %esi
	movq	%r15, %r8
	movq	%r12, %rcx
	movq	%rax, %rdi
	movq	%rax, %rbp
.LEHB26:
	call	_ZN8asiodnp315DNP3ManagerImplC1EjSt10shared_ptrIN7openpal11ILogHandlerEESt8functionIFvvEES7_@PLT
.LEHE26:
	movq	64(%rsp), %rax
	movq	%rbp, 0(%r13)
	testq	%rax, %rax
	je	.L321
	movl	$3, %edx
	movq	%r15, %rsi
	movq	%r15, %rdi
	call	*%rax
.L321:
	movq	32(%rsp), %rax
	testq	%rax, %rax
	je	.L322
	movl	$3, %edx
	movq	%r12, %rsi
	movq	%r12, %rdi
	call	*%rax
.L322:
	movq	8(%rsp), %rbp
	testq	%rbp, %rbp
	je	.L308
	movq	__libc_single_threaded@GOTPCREL(%rip), %rbx
	cmpb	$0, (%rbx)
	je	.L325
	movl	8(%rbp), %eax
	leal	-1(%rax), %edx
	movl	%edx, 8(%rbp)
.L326:
	cmpl	$1, %eax
	je	.L369
.L308:
	movq	88(%rsp), %rax
	subq	%fs:40, %rax
	jne	.L370
	addq	$104, %rsp
	.cfi_remember_state
	.cfi_def_cfa_offset 56
	popq	%rbx
	.cfi_def_cfa_offset 48
	popq	%rbp
	.cfi_def_cfa_offset 40
	popq	%r12
	.cfi_def_cfa_offset 32
	popq	%r13
	.cfi_def_cfa_offset 24
	popq	%r14
	.cfi_def_cfa_offset 16
	popq	%r15
	.cfi_def_cfa_offset 8
	ret
	.p2align 4,,10
	.p2align 3
.L310:
	.cfi_restore_state
	lock addl	$1, 8(%rax)
	jmp	.L309
	.p2align 4,,10
	.p2align 3
.L369:
	movq	0(%rbp), %rax
	movq	%rbp, %rdi
	call	*16(%rax)
	cmpb	$0, (%rbx)
	je	.L328
	movl	12(%rbp), %eax
	leal	-1(%rax), %edx
	movl	%edx, 12(%rbp)
.L329:
	cmpl	$1, %eax
	jne	.L308
	movq	0(%rbp), %rax
	movq	%rbp, %rdi
	call	*24(%rax)
	jmp	.L308
	.p2align 4,,10
	.p2align 3
.L325:
	movl	$-1, %eax
	lock xaddl	%eax, 8(%rbp)
	jmp	.L326
	.p2align 4,,10
	.p2align 3
.L328:
	movl	$-1, %eax
	lock xaddl	%eax, 12(%rbp)
	jmp	.L329
.L370:
	call	__stack_chk_fail@PLT
.L337:
	endbr64
	movq	%rax, %rbx
	jmp	.L330
.L338:
	endbr64
	movq	%rax, %rbx
	jmp	.L314
.L336:
	endbr64
	movq	%rax, %rbx
	jmp	.L331
.L339:
	endbr64
	movq	%rax, %rbx
	jmp	.L318
	.section	.gcc_except_table
.LLSDA7809:
	.byte	0xff
	.byte	0xff
	.byte	0x1
	.uleb128 .LLSDACSE7809-.LLSDACSB7809
.LLSDACSB7809:
	.uleb128 .LEHB23-.LFB7809
	.uleb128 .LEHE23-.LEHB23
	.uleb128 .L338-.LFB7809
	.uleb128 0
	.uleb128 .LEHB24-.LFB7809
	.uleb128 .LEHE24-.LEHB24
	.uleb128 .L339-.LFB7809
	.uleb128 0
	.uleb128 .LEHB25-.LFB7809
	.uleb128 .LEHE25-.LEHB25
	.uleb128 .L336-.LFB7809
	.uleb128 0
	.uleb128 .LEHB26-.LFB7809
	.uleb128 .LEHE26-.LEHB26
	.uleb128 .L337-.LFB7809
	.uleb128 0
.LLSDACSE7809:
	.text
	.cfi_endproc
	.section	.text.unlikely
	.cfi_startproc
	.cfi_personality 0x9b,DW.ref.__gxx_personality_v0
	.cfi_lsda 0x1b,.LLSDAC7809
	.type	_ZN8asiodnp311DNP3ManagerC2EjSt10shared_ptrIN7openpal11ILogHandlerEESt8functionIFvvEES7_.cold, @function
_ZN8asiodnp311DNP3ManagerC2EjSt10shared_ptrIN7openpal11ILogHandlerEESt8functionIFvvEES7_.cold:
.LFSB7809:
.L330:
	.cfi_def_cfa_offset 160
	.cfi_offset 3, -56
	.cfi_offset 6, -48
	.cfi_offset 12, -40
	.cfi_offset 13, -32
	.cfi_offset 14, -24
	.cfi_offset 15, -16
	movl	$272, %esi
	movq	%rbp, %rdi
	call	_ZdlPvm@PLT
.L331:
	movq	64(%rsp), %rax
	testq	%rax, %rax
	je	.L320
	leaq	48(%rsp), %rdi
	movl	$3, %edx
	movq	%rdi, %rsi
	call	*%rax
.L320:
	movq	32(%rsp), %rax
	testq	%rax, %rax
	je	.L316
	leaq	16(%rsp), %rdi
	movl	$3, %edx
	movq	%rdi, %rsi
	call	*%rax
.L316:
	movq	8(%rsp), %rdi
	testq	%rdi, %rdi
	je	.L334
	call	_ZNSt16_Sp_counted_baseILN9__gnu_cxx12_Lock_policyE2EE10_M_releaseEv@PLT
.L334:
	movq	%rbx, %rdi
.LEHB27:
	call	_Unwind_Resume@PLT
.LEHE27:
.L314:
	movq	32(%rsp), %rax
	testq	%rax, %rax
	je	.L316
	movl	$3, %edx
	movq	%r12, %rsi
	movq	%r12, %rdi
	call	*%rax
	jmp	.L316
.L318:
	movq	64(%rsp), %rax
	testq	%rax, %rax
	je	.L320
	movl	$3, %edx
	movq	%r15, %rsi
	movq	%r15, %rdi
	call	*%rax
	jmp	.L320
	.cfi_endproc
.LFE7809:
	.section	.gcc_except_table
.LLSDAC7809:
	.byte	0xff
	.byte	0xff
	.byte	0x1
	.uleb128 .LLSDACSEC7809-.LLSDACSBC7809
.LLSDACSBC7809:
	.uleb128 .LEHB27-.LCOLDB30
	.uleb128 .LEHE27-.LEHB27
	.uleb128 0
	.uleb128 0
.LLSDACSEC7809:
	.section	.text.unlikely
	.text
	.size	_ZN8asiodnp311DNP3ManagerC2EjSt10shared_ptrIN7openpal11ILogHandlerEESt8functionIFvvEES7_, .-_ZN8asiodnp311DNP3ManagerC2EjSt10shared_ptrIN7openpal11ILogHandlerEESt8functionIFvvEES7_
	.section	.text.unlikely
	.size	_ZN8asiodnp311DNP3ManagerC2EjSt10shared_ptrIN7openpal11ILogHandlerEESt8functionIFvvEES7_.cold, .-_ZN8asiodnp311DNP3ManagerC2EjSt10shared_ptrIN7openpal11ILogHandlerEESt8functionIFvvEES7_.cold
.LCOLDE30:
	.text
.LHOTE30:
	.globl	_ZN8asiodnp311DNP3ManagerC1EjSt10shared_ptrIN7openpal11ILogHandlerEESt8functionIFvvEES7_
	.set	_ZN8asiodnp311DNP3ManagerC1EjSt10shared_ptrIN7openpal11ILogHandlerEESt8functionIFvvEES7_,_ZN8asiodnp311DNP3ManagerC2EjSt10shared_ptrIN7openpal11ILogHandlerEESt8functionIFvvEES7_
	.section	.text.startup,"ax",@progbits
	.p2align 4
	.type	_GLOBAL__sub_I_DNP3Manager.cpp, @function
_GLOBAL__sub_I_DNP3Manager.cpp:
.LFB10573:
	.cfi_startproc
	endbr64
	pushq	%rbp
	.cfi_def_cfa_offset 16
	.cfi_offset 6, -16
	movl	$5000, %edi
	call	_ZN7openpal12TimeDuration12MillisecondsEl@PLT
	movq	_ZGVZN4asio15system_categoryEvE8instance@GOTPCREL(%rip), %rbp
	movzbl	0(%rbp), %eax
	testb	%al, %al
	je	.L402
.L373:
	movq	_ZGVZN4asio5error18get_netdb_categoryEvE8instance@GOTPCREL(%rip), %rbp
	movzbl	0(%rbp), %eax
	testb	%al, %al
	je	.L403
.L376:
	movq	_ZGVZN4asio5error21get_addrinfo_categoryEvE8instance@GOTPCREL(%rip), %rbp
	movzbl	0(%rbp), %eax
	testb	%al, %al
	je	.L404
.L379:
	movq	_ZGVZN4asio5error17get_misc_categoryEvE8instance@GOTPCREL(%rip), %rbp
	movzbl	0(%rbp), %eax
	testb	%al, %al
	je	.L405
.L382:
	movq	_ZGVN4asio6detail10call_stackINS0_15task_io_serviceENS0_27task_io_service_thread_infoEE4top_E@GOTPCREL(%rip), %rax
	cmpb	$0, (%rax)
	je	.L406
.L384:
	movq	_ZGVN4asio6detail12service_baseINS0_13epoll_reactorEE2idE@GOTPCREL(%rip), %rax
	cmpb	$0, (%rax)
	je	.L407
.L385:
	movq	_ZGVN4asio6detail12service_baseINS0_15task_io_serviceEE2idE@GOTPCREL(%rip), %rax
	cmpb	$0, (%rax)
	je	.L408
.L386:
	movq	_ZGVN4asio6detail10call_stackINS0_14strand_service11strand_implEhE4top_E@GOTPCREL(%rip), %rax
	cmpb	$0, (%rax)
	je	.L409
.L387:
	movq	_ZGVN4asio6detail12service_baseINS0_14strand_serviceEE2idE@GOTPCREL(%rip), %rax
	cmpb	$0, (%rax)
	je	.L410
	popq	%rbp
	.cfi_remember_state
	.cfi_def_cfa_offset 8
	ret
.L402:
	.cfi_restore_state
	movq	%rbp, %rdi
	call	__cxa_guard_acquire@PLT
	testl	%eax, %eax
	je	.L373
	movq	_ZZN4asio15system_categoryEvE8instance@GOTPCREL(%rip), %rsi
	movq	_ZN4asio6detail15system_categoryD1Ev@GOTPCREL(%rip), %rdi
	leaq	__dso_handle(%rip), %rdx
	call	__cxa_atexit@PLT
	movq	%rbp, %rdi
	call	__cxa_guard_release@PLT
	jmp	.L373
.L410:
	movb	$1, (%rax)
	leaq	__dso_handle(%rip), %rdx
	movq	_ZN4asio6detail12service_baseINS0_14strand_serviceEE2idE@GOTPCREL(%rip), %rsi
	movq	_ZN4asio6detail10service_idINS0_14strand_serviceEED1Ev@GOTPCREL(%rip), %rdi
	popq	%rbp
	.cfi_remember_state
	.cfi_def_cfa_offset 8
	jmp	__cxa_atexit@PLT
.L409:
	.cfi_restore_state
	movb	$1, (%rax)
	movq	_ZN4asio6detail10call_stackINS0_14strand_service11strand_implEhE4top_E@GOTPCREL(%rip), %rsi
	leaq	__dso_handle(%rip), %rdx
	movq	_ZN4asio6detail7tss_ptrINS0_10call_stackINS0_14strand_service11strand_implEhE7contextEED1Ev@GOTPCREL(%rip), %rdi
	call	__cxa_atexit@PLT
	jmp	.L387
.L408:
	movb	$1, (%rax)
	movq	_ZN4asio6detail12service_baseINS0_15task_io_serviceEE2idE@GOTPCREL(%rip), %rsi
	leaq	__dso_handle(%rip), %rdx
	movq	_ZN4asio6detail10service_idINS0_15task_io_serviceEED1Ev@GOTPCREL(%rip), %rdi
	call	__cxa_atexit@PLT
	jmp	.L386
.L407:
	movb	$1, (%rax)
	movq	_ZN4asio6detail12service_baseINS0_13epoll_reactorEE2idE@GOTPCREL(%rip), %rsi
	leaq	__dso_handle(%rip), %rdx
	movq	_ZN4asio6detail10service_idINS0_13epoll_reactorEED1Ev@GOTPCREL(%rip), %rdi
	call	__cxa_atexit@PLT
	jmp	.L385
.L406:
	movb	$1, (%rax)
	movq	_ZN4asio6detail10call_stackINS0_15task_io_serviceENS0_27task_io_service_thread_infoEE4top_E@GOTPCREL(%rip), %rsi
	leaq	__dso_handle(%rip), %rdx
	movq	_ZN4asio6detail7tss_ptrINS0_10call_stackINS0_15task_io_serviceENS0_27task_io_service_thread_infoEE7contextEED1Ev@GOTPCREL(%rip), %rdi
	call	__cxa_atexit@PLT
	jmp	.L384
.L405:
	movq	%rbp, %rdi
	call	__cxa_guard_acquire@PLT
	testl	%eax, %eax
	je	.L382
	movq	_ZZN4asio5error17get_misc_categoryEvE8instance@GOTPCREL(%rip), %rsi
	movq	_ZN4asio5error6detail13misc_categoryD1Ev@GOTPCREL(%rip), %rdi
	leaq	__dso_handle(%rip), %rdx
	call	__cxa_atexit@PLT
	movq	%rbp, %rdi
	call	__cxa_guard_release@PLT
	jmp	.L382
.L404:
	movq	%rbp, %rdi
	call	__cxa_guard_acquire@PLT
	testl	%eax, %eax
	je	.L379
	movq	_ZZN4asio5error21get_addrinfo_categoryEvE8instance@GOTPCREL(%rip), %rsi
	movq	_ZN4asio5error6detail17addrinfo_categoryD1Ev@GOTPCREL(%rip), %rdi
	leaq	__dso_handle(%rip), %rdx
	call	__cxa_atexit@PLT
	movq	%rbp, %rdi
	call	__cxa_guard_release@PLT
	jmp	.L379
.L403:
	movq	%rbp, %rdi
	call	__cxa_guard_acquire@PLT
	testl	%eax, %eax
	je	.L376
	movq	_ZZN4asio5error18get_netdb_categoryEvE8instance@GOTPCREL(%rip), %rsi
	movq	_ZN4asio5error6detail14netdb_categoryD1Ev@GOTPCREL(%rip), %rdi
	leaq	__dso_handle(%rip), %rdx
	call	__cxa_atexit@PLT
	movq	%rbp, %rdi
	call	__cxa_guard_release@PLT
	jmp	.L376
	.cfi_endproc
.LFE10573:
	.size	_GLOBAL__sub_I_DNP3Manager.cpp, .-_GLOBAL__sub_I_DNP3Manager.cpp
	.section	.init_array,"aw"
	.align 8
	.quad	_GLOBAL__sub_I_DNP3Manager.cpp
	.weak	_ZGVN4asio6detail12service_baseINS0_14strand_serviceEE2idE
	.section	.bss._ZGVN4asio6detail12service_baseINS0_14strand_serviceEE2idE,"awG",@nobits,_ZGVN4asio6detail12service_baseINS0_14strand_serviceEE2idE,comdat
	.align 8
	.type	_ZGVN4asio6detail12service_baseINS0_14strand_serviceEE2idE, @gnu_unique_object
	.size	_ZGVN4asio6detail12service_baseINS0_14strand_serviceEE2idE, 8
_ZGVN4asio6detail12service_baseINS0_14strand_serviceEE2idE:
	.zero	8
	.weak	_ZGVN4asio6detail10call_stackINS0_14strand_service11strand_implEhE4top_E
	.section	.bss._ZGVN4asio6detail10call_stackINS0_14strand_service11strand_implEhE4top_E,"awG",@nobits,_ZGVN4asio6detail10call_stackINS0_14strand_service11strand_implEhE4top_E,comdat
	.align 8
	.type	_ZGVN4asio6detail10call_stackINS0_14strand_service11strand_implEhE4top_E, @gnu_unique_object
	.size	_ZGVN4asio6detail10call_stackINS0_14strand_service11strand_implEhE4top_E, 8
_ZGVN4asio6detail10call_stackINS0_14strand_service11strand_implEhE4top_E:
	.zero	8
	.weak	_ZGVN4asio6detail12service_baseINS0_15task_io_serviceEE2idE
	.section	.bss._ZGVN4asio6detail12service_baseINS0_15task_io_serviceEE2idE,"awG",@nobits,_ZGVN4asio6detail12service_baseINS0_15task_io_serviceEE2idE,comdat
	.align 8
	.type	_ZGVN4asio6detail12service_baseINS0_15task_io_serviceEE2idE, @gnu_unique_object
	.size	_ZGVN4asio6detail12service_baseINS0_15task_io_serviceEE2idE, 8
_ZGVN4asio6detail12service_baseINS0_15task_io_serviceEE2idE:
	.zero	8
	.weak	_ZGVN4asio6detail12service_baseINS0_13epoll_reactorEE2idE
	.section	.bss._ZGVN4asio6detail12service_baseINS0_13epoll_reactorEE2idE,"awG",@nobits,_ZGVN4asio6detail12service_baseINS0_13epoll_reactorEE2idE,comdat
	.align 8
	.type	_ZGVN4asio6detail12service_baseINS0_13epoll_reactorEE2idE, @gnu_unique_object
	.size	_ZGVN4asio6detail12service_baseINS0_13epoll_reactorEE2idE, 8
_ZGVN4asio6detail12service_baseINS0_13epoll_reactorEE2idE:
	.zero	8
	.weak	_ZGVN4asio6detail10call_stackINS0_15task_io_serviceENS0_27task_io_service_thread_infoEE4top_E
	.section	.bss._ZGVN4asio6detail10call_stackINS0_15task_io_serviceENS0_27task_io_service_thread_infoEE4top_E,"awG",@nobits,_ZGVN4asio6detail10call_stackINS0_15task_io_serviceENS0_27task_io_service_thread_infoEE4top_E,comdat
	.align 8
	.type	_ZGVN4asio6detail10call_stackINS0_15task_io_serviceENS0_27task_io_service_thread_infoEE4top_E, @gnu_unique_object
	.size	_ZGVN4asio6detail10call_stackINS0_15task_io_serviceENS0_27task_io_service_thread_infoEE4top_E, 8
_ZGVN4asio6detail10call_stackINS0_15task_io_serviceENS0_27task_io_service_thread_infoEE4top_E:
	.zero	8
	.weak	_ZN4asio6detail12service_baseINS0_14strand_serviceEE2idE
	.section	.bss._ZN4asio6detail12service_baseINS0_14strand_serviceEE2idE,"awG",@nobits,_ZN4asio6detail12service_baseINS0_14strand_serviceEE2idE,comdat
	.type	_ZN4asio6detail12service_baseINS0_14strand_serviceEE2idE, @gnu_unique_object
	.size	_ZN4asio6detail12service_baseINS0_14strand_serviceEE2idE, 1
_ZN4asio6detail12service_baseINS0_14strand_serviceEE2idE:
	.zero	1
	.weak	_ZN4asio6detail10call_stackINS0_14strand_service11strand_implEhE4top_E
	.section	.bss._ZN4asio6detail10call_stackINS0_14strand_service11strand_implEhE4top_E,"awG",@nobits,_ZN4asio6detail10call_stackINS0_14strand_service11strand_implEhE4top_E,comdat
	.type	_ZN4asio6detail10call_stackINS0_14strand_service11strand_implEhE4top_E, @gnu_unique_object
	.size	_ZN4asio6detail10call_stackINS0_14strand_service11strand_implEhE4top_E, 1
_ZN4asio6detail10call_stackINS0_14strand_service11strand_implEhE4top_E:
	.zero	1
	.weak	_ZN4asio6detail12service_baseINS0_15task_io_serviceEE2idE
	.section	.bss._ZN4asio6detail12service_baseINS0_15task_io_serviceEE2idE,"awG",@nobits,_ZN4asio6detail12service_baseINS0_15task_io_serviceEE2idE,comdat
	.type	_ZN4asio6detail12service_baseINS0_15task_io_serviceEE2idE, @gnu_unique_object
	.size	_ZN4asio6detail12service_baseINS0_15task_io_serviceEE2idE, 1
_ZN4asio6detail12service_baseINS0_15task_io_serviceEE2idE:
	.zero	1
	.weak	_ZN4asio6detail12service_baseINS0_13epoll_reactorEE2idE
	.section	.bss._ZN4asio6detail12service_baseINS0_13epoll_reactorEE2idE,"awG",@nobits,_ZN4asio6detail12service_baseINS0_13epoll_reactorEE2idE,comdat
	.type	_ZN4asio6detail12service_baseINS0_13epoll_reactorEE2idE, @gnu_unique_object
	.size	_ZN4asio6detail12service_baseINS0_13epoll_reactorEE2idE, 1
_ZN4asio6detail12service_baseINS0_13epoll_reactorEE2idE:
	.zero	1
	.weak	_ZN4asio6detail10call_stackINS0_15task_io_serviceENS0_27task_io_service_thread_infoEE4top_E
	.section	.bss._ZN4asio6detail10call_stackINS0_15task_io_serviceENS0_27task_io_service_thread_infoEE4top_E,"awG",@nobits,_ZN4asio6detail10call_stackINS0_15task_io_serviceENS0_27task_io_service_thread_infoEE4top_E,comdat
	.type	_ZN4asio6detail10call_stackINS0_15task_io_serviceENS0_27task_io_service_thread_infoEE4top_E, @gnu_unique_object
	.size	_ZN4asio6detail10call_stackINS0_15task_io_serviceENS0_27task_io_service_thread_infoEE4top_E, 1
_ZN4asio6detail10call_stackINS0_15task_io_serviceENS0_27task_io_service_thread_infoEE4top_E:
	.zero	1
	.weak	_ZTSN4asio6detail15system_categoryE
	.section	.rodata._ZTSN4asio6detail15system_categoryE,"aG",@progbits,_ZTSN4asio6detail15system_categoryE,comdat
	.align 32
	.type	_ZTSN4asio6detail15system_categoryE, @object
	.size	_ZTSN4asio6detail15system_categoryE, 32
_ZTSN4asio6detail15system_categoryE:
	.string	"N4asio6detail15system_categoryE"
	.weak	_ZTIN4asio6detail15system_categoryE
	.section	.data.rel.ro._ZTIN4asio6detail15system_categoryE,"awG",@progbits,_ZTIN4asio6detail15system_categoryE,comdat
	.align 8
	.type	_ZTIN4asio6detail15system_categoryE, @object
	.size	_ZTIN4asio6detail15system_categoryE, 24
_ZTIN4asio6detail15system_categoryE:
	.quad	_ZTVN10__cxxabiv120__si_class_type_infoE+16
	.quad	_ZTSN4asio6detail15system_categoryE
	.quad	_ZTINSt3_V214error_categoryE
	.weak	_ZTSN4asio5error6detail14netdb_categoryE
	.section	.rodata._ZTSN4asio5error6detail14netdb_categoryE,"aG",@progbits,_ZTSN4asio5error6detail14netdb_categoryE,comdat
	.align 32
	.type	_ZTSN4asio5error6detail14netdb_categoryE, @object
	.size	_ZTSN4asio5error6detail14netdb_categoryE, 37
_ZTSN4asio5error6detail14netdb_categoryE:
	.string	"N4asio5error6detail14netdb_categoryE"
	.weak	_ZTIN4asio5error6detail14netdb_categoryE
	.section	.data.rel.ro._ZTIN4asio5error6detail14netdb_categoryE,"awG",@progbits,_ZTIN4asio5error6detail14netdb_categoryE,comdat
	.align 8
	.type	_ZTIN4asio5error6detail14netdb_categoryE, @object
	.size	_ZTIN4asio5error6detail14netdb_categoryE, 24
_ZTIN4asio5error6detail14netdb_categoryE:
	.quad	_ZTVN10__cxxabiv120__si_class_type_infoE+16
	.quad	_ZTSN4asio5error6detail14netdb_categoryE
	.quad	_ZTINSt3_V214error_categoryE
	.weak	_ZTSN4asio5error6detail17addrinfo_categoryE
	.section	.rodata._ZTSN4asio5error6detail17addrinfo_categoryE,"aG",@progbits,_ZTSN4asio5error6detail17addrinfo_categoryE,comdat
	.align 32
	.type	_ZTSN4asio5error6detail17addrinfo_categoryE, @object
	.size	_ZTSN4asio5error6detail17addrinfo_categoryE, 40
_ZTSN4asio5error6detail17addrinfo_categoryE:
	.string	"N4asio5error6detail17addrinfo_categoryE"
	.weak	_ZTIN4asio5error6detail17addrinfo_categoryE
	.section	.data.rel.ro._ZTIN4asio5error6detail17addrinfo_categoryE,"awG",@progbits,_ZTIN4asio5error6detail17addrinfo_categoryE,comdat
	.align 8
	.type	_ZTIN4asio5error6detail17addrinfo_categoryE, @object
	.size	_ZTIN4asio5error6detail17addrinfo_categoryE, 24
_ZTIN4asio5error6detail17addrinfo_categoryE:
	.quad	_ZTVN10__cxxabiv120__si_class_type_infoE+16
	.quad	_ZTSN4asio5error6detail17addrinfo_categoryE
	.quad	_ZTINSt3_V214error_categoryE
	.weak	_ZTSN4asio5error6detail13misc_categoryE
	.section	.rodata._ZTSN4asio5error6detail13misc_categoryE,"aG",@progbits,_ZTSN4asio5error6detail13misc_categoryE,comdat
	.align 32
	.type	_ZTSN4asio5error6detail13misc_categoryE, @object
	.size	_ZTSN4asio5error6detail13misc_categoryE, 36
_ZTSN4asio5error6detail13misc_categoryE:
	.string	"N4asio5error6detail13misc_categoryE"
	.weak	_ZTIN4asio5error6detail13misc_categoryE
	.section	.data.rel.ro._ZTIN4asio5error6detail13misc_categoryE,"awG",@progbits,_ZTIN4asio5error6detail13misc_categoryE,comdat
	.align 8
	.type	_ZTIN4asio5error6detail13misc_categoryE, @object
	.size	_ZTIN4asio5error6detail13misc_categoryE, 24
_ZTIN4asio5error6detail13misc_categoryE:
	.quad	_ZTVN10__cxxabiv120__si_class_type_infoE+16
	.quad	_ZTSN4asio5error6detail13misc_categoryE
	.quad	_ZTINSt3_V214error_categoryE
	.weak	_ZTVN4asio6detail15system_categoryE
	.section	.data.rel.ro._ZTVN4asio6detail15system_categoryE,"awG",@progbits,_ZTVN4asio6detail15system_categoryE,comdat
	.align 8
	.type	_ZTVN4asio6detail15system_categoryE, @object
	.size	_ZTVN4asio6detail15system_categoryE, 80
_ZTVN4asio6detail15system_categoryE:
	.quad	0
	.quad	_ZTIN4asio6detail15system_categoryE
	.quad	_ZN4asio6detail15system_categoryD1Ev
	.quad	_ZN4asio6detail15system_categoryD0Ev
	.quad	_ZNK4asio6detail15system_category4nameEv
	.quad	_ZNKSt3_V214error_category10_M_messageB5cxx11Ei
	.quad	_ZNK4asio6detail15system_category7messageB5cxx11Ei
	.quad	_ZNKSt3_V214error_category23default_error_conditionEi
	.quad	_ZNKSt3_V214error_category10equivalentEiRKSt15error_condition
	.quad	_ZNKSt3_V214error_category10equivalentERKSt10error_codei
	.weak	_ZTVN4asio5error6detail14netdb_categoryE
	.section	.data.rel.ro._ZTVN4asio5error6detail14netdb_categoryE,"awG",@progbits,_ZTVN4asio5error6detail14netdb_categoryE,comdat
	.align 8
	.type	_ZTVN4asio5error6detail14netdb_categoryE, @object
	.size	_ZTVN4asio5error6detail14netdb_categoryE, 80
_ZTVN4asio5error6detail14netdb_categoryE:
	.quad	0
	.quad	_ZTIN4asio5error6detail14netdb_categoryE
	.quad	_ZN4asio5error6detail14netdb_categoryD1Ev
	.quad	_ZN4asio5error6detail14netdb_categoryD0Ev
	.quad	_ZNK4asio5error6detail14netdb_category4nameEv
	.quad	_ZNKSt3_V214error_category10_M_messageB5cxx11Ei
	.quad	_ZNK4asio5error6detail14netdb_category7messageB5cxx11Ei
	.quad	_ZNKSt3_V214error_category23default_error_conditionEi
	.quad	_ZNKSt3_V214error_category10equivalentEiRKSt15error_condition
	.quad	_ZNKSt3_V214error_category10equivalentERKSt10error_codei
	.weak	_ZTVN4asio5error6detail17addrinfo_categoryE
	.section	.data.rel.ro._ZTVN4asio5error6detail17addrinfo_categoryE,"awG",@progbits,_ZTVN4asio5error6detail17addrinfo_categoryE,comdat
	.align 8
	.type	_ZTVN4asio5error6detail17addrinfo_categoryE, @object
	.size	_ZTVN4asio5error6detail17addrinfo_categoryE, 80
_ZTVN4asio5error6detail17addrinfo_categoryE:
	.quad	0
	.quad	_ZTIN4asio5error6detail17addrinfo_categoryE
	.quad	_ZN4asio5error6detail17addrinfo_categoryD1Ev
	.quad	_ZN4asio5error6detail17addrinfo_categoryD0Ev
	.quad	_ZNK4asio5error6detail17addrinfo_category4nameEv
	.quad	_ZNKSt3_V214error_category10_M_messageB5cxx11Ei
	.quad	_ZNK4asio5error6detail17addrinfo_category7messageB5cxx11Ei
	.quad	_ZNKSt3_V214error_category23default_error_conditionEi
	.quad	_ZNKSt3_V214error_category10equivalentEiRKSt15error_condition
	.quad	_ZNKSt3_V214error_category10equivalentERKSt10error_codei
	.weak	_ZTVN4asio5error6detail13misc_categoryE
	.section	.data.rel.ro._ZTVN4asio5error6detail13misc_categoryE,"awG",@progbits,_ZTVN4asio5error6detail13misc_categoryE,comdat
	.align 8
	.type	_ZTVN4asio5error6detail13misc_categoryE, @object
	.size	_ZTVN4asio5error6detail13misc_categoryE, 80
_ZTVN4asio5error6detail13misc_categoryE:
	.quad	0
	.quad	_ZTIN4asio5error6detail13misc_categoryE
	.quad	_ZN4asio5error6detail13misc_categoryD1Ev
	.quad	_ZN4asio5error6detail13misc_categoryD0Ev
	.quad	_ZNK4asio5error6detail13misc_category4nameEv
	.quad	_ZNKSt3_V214error_category10_M_messageB5cxx11Ei
	.quad	_ZNK4asio5error6detail13misc_category7messageB5cxx11Ei
	.quad	_ZNKSt3_V214error_category23default_error_conditionEi
	.quad	_ZNKSt3_V214error_category10equivalentEiRKSt15error_condition
	.quad	_ZNKSt3_V214error_category10equivalentERKSt10error_codei
	.weak	_ZGVZN4asio5error17get_misc_categoryEvE8instance
	.section	.bss._ZGVZN4asio5error17get_misc_categoryEvE8instance,"awG",@nobits,_ZGVZN4asio5error17get_misc_categoryEvE8instance,comdat
	.align 8
	.type	_ZGVZN4asio5error17get_misc_categoryEvE8instance, @gnu_unique_object
	.size	_ZGVZN4asio5error17get_misc_categoryEvE8instance, 8
_ZGVZN4asio5error17get_misc_categoryEvE8instance:
	.zero	8
	.weak	_ZZN4asio5error17get_misc_categoryEvE8instance
	.section	.data.rel._ZZN4asio5error17get_misc_categoryEvE8instance,"awG",@progbits,_ZZN4asio5error17get_misc_categoryEvE8instance,comdat
	.align 8
	.type	_ZZN4asio5error17get_misc_categoryEvE8instance, @gnu_unique_object
	.size	_ZZN4asio5error17get_misc_categoryEvE8instance, 8
_ZZN4asio5error17get_misc_categoryEvE8instance:
	.quad	_ZTVN4asio5error6detail13misc_categoryE+16
	.weak	_ZGVZN4asio5error21get_addrinfo_categoryEvE8instance
	.section	.bss._ZGVZN4asio5error21get_addrinfo_categoryEvE8instance,"awG",@nobits,_ZGVZN4asio5error21get_addrinfo_categoryEvE8instance,comdat
	.align 8
	.type	_ZGVZN4asio5error21get_addrinfo_categoryEvE8instance, @gnu_unique_object
	.size	_ZGVZN4asio5error21get_addrinfo_categoryEvE8instance, 8
_ZGVZN4asio5error21get_addrinfo_categoryEvE8instance:
	.zero	8
	.weak	_ZZN4asio5error21get_addrinfo_categoryEvE8instance
	.section	.data.rel._ZZN4asio5error21get_addrinfo_categoryEvE8instance,"awG",@progbits,_ZZN4asio5error21get_addrinfo_categoryEvE8instance,comdat
	.align 8
	.type	_ZZN4asio5error21get_addrinfo_categoryEvE8instance, @gnu_unique_object
	.size	_ZZN4asio5error21get_addrinfo_categoryEvE8instance, 8
_ZZN4asio5error21get_addrinfo_categoryEvE8instance:
	.quad	_ZTVN4asio5error6detail17addrinfo_categoryE+16
	.weak	_ZGVZN4asio5error18get_netdb_categoryEvE8instance
	.section	.bss._ZGVZN4asio5error18get_netdb_categoryEvE8instance,"awG",@nobits,_ZGVZN4asio5error18get_netdb_categoryEvE8instance,comdat
	.align 8
	.type	_ZGVZN4asio5error18get_netdb_categoryEvE8instance, @gnu_unique_object
	.size	_ZGVZN4asio5error18get_netdb_categoryEvE8instance, 8
_ZGVZN4asio5error18get_netdb_categoryEvE8instance:
	.zero	8
	.weak	_ZZN4asio5error18get_netdb_categoryEvE8instance
	.section	.data.rel._ZZN4asio5error18get_netdb_categoryEvE8instance,"awG",@progbits,_ZZN4asio5error18get_netdb_categoryEvE8instance,comdat
	.align 8
	.type	_ZZN4asio5error18get_netdb_categoryEvE8instance, @gnu_unique_object
	.size	_ZZN4asio5error18get_netdb_categoryEvE8instance, 8
_ZZN4asio5error18get_netdb_categoryEvE8instance:
	.quad	_ZTVN4asio5error6detail14netdb_categoryE+16
	.weak	_ZGVZN4asio15system_categoryEvE8instance
	.section	.bss._ZGVZN4asio15system_categoryEvE8instance,"awG",@nobits,_ZGVZN4asio15system_categoryEvE8instance,comdat
	.align 8
	.type	_ZGVZN4asio15system_categoryEvE8instance, @gnu_unique_object
	.size	_ZGVZN4asio15system_categoryEvE8instance, 8
_ZGVZN4asio15system_categoryEvE8instance:
	.zero	8
	.weak	_ZZN4asio15system_categoryEvE8instance
	.section	.data.rel._ZZN4asio15system_categoryEvE8instance,"awG",@progbits,_ZZN4asio15system_categoryEvE8instance,comdat
	.align 8
	.type	_ZZN4asio15system_categoryEvE8instance, @gnu_unique_object
	.size	_ZZN4asio15system_categoryEvE8instance, 8
_ZZN4asio15system_categoryEvE8instance:
	.quad	_ZTVN4asio6detail15system_categoryE+16
	.section	.rodata.cst16,"aM",@progbits,16
	.align 16
.LC5:
	.quad	8028075772644520015
	.quad	7310593917846626414
	.align 16
.LC6:
	.quad	2334381286471394643
	.quad	7959390400869068654
	.align 16
.LC7:
	.quad	8367816086596579155
	.quad	2338616625292734585
	.align 16
.LC8:
	.quad	7234013753529430881
	.quad	8243030355803531634
	.align 16
.LC9:
	.quad	8390045716486254408
	.quad	2891421386351273504
	.align 16
.LC10:
	.quad	7526769937477431150
	.quad	8532478930943832687
	.align 16
.LC11:
	.quad	2340027324477221221
	.quad	7020021577750243169
	.align 16
.LC12:
	.quad	8243123821706831956
	.quad	7809653110584451193
	.align 16
.LC13:
	.quad	2338623170819155049
	.quad	2338324160631043177
	.align 16
.LC14:
	.quad	7311138144931573614
	.quad	7019250824563089696
	.align 16
.LC15:
	.quad	7309955097514876993
	.quad	7809911847770287971
	.align 16
.LC16:
	.quad	2338053693894893669
	.quad	7234314212361855855
	.align 16
.LC17:
	.quad	2334956330985808928
	.quad	7310293695322153316
	.align 16
.LC18:
	.quad	8387231026764149601
	.quad	8245935278387126884
	.align 16
.LC19:
	.quad	2338615488418245701
	.quad	7959390400869068654
	.align 16
.LC20:
	.quad	7166182912791242836
	.quad	7214892426067994994
	.align 16
.LC21:
	.quad	2338616625293649263
	.quad	8031165433303558502
	.align 16
.LC22:
	.quad	7810775711721485344
	.quad	7812726531955123045
	.hidden	DW.ref.__gxx_personality_v0
	.weak	DW.ref.__gxx_personality_v0
	.section	.data.rel.local.DW.ref.__gxx_personality_v0,"awG",@progbits,DW.ref.__gxx_personality_v0,comdat
	.align 8
	.type	DW.ref.__gxx_personality_v0, @object
	.size	DW.ref.__gxx_personality_v0, 8
DW.ref.__gxx_personality_v0:
	.quad	__gxx_personality_v0
	.hidden	__dso_handle
	.ident	"GCC: (Ubuntu 11.4.0-1ubuntu1~22.04) 11.4.0"
	.section	.note.GNU-stack,"",@progbits
	.section	.note.gnu.property,"a"
	.align 8
	.long	1f - 0f
	.long	4f - 1f
	.long	5
0:
	.string	"GNU"
1:
	.align 8
	.long	0xc0000002
	.long	3f - 2f
2:
	.long	0x3
3:
	.align 8
4:
