	.file	"LinkSession.cpp"
	.text
	.section	.rodata._ZNK4asio6detail15system_category4nameEv.str1.1,"aMS",@progbits,1
.LC0:
	.string	"asio.system"
	.section	.text._ZNK4asio6detail15system_category4nameEv,"axG",@progbits,_ZNK4asio6detail15system_category4nameEv,comdat
	.align 2
	.p2align 4
	.weak	_ZNK4asio6detail15system_category4nameEv
	.type	_ZNK4asio6detail15system_category4nameEv, @function
_ZNK4asio6detail15system_category4nameEv:
.LFB2500:
	.cfi_startproc
	endbr64
	leaq	.LC0(%rip), %rax
	ret
	.cfi_endproc
.LFE2500:
	.size	_ZNK4asio6detail15system_category4nameEv, .-_ZNK4asio6detail15system_category4nameEv
	.section	.rodata._ZNK4asio5error6detail14netdb_category4nameEv.str1.1,"aMS",@progbits,1
.LC1:
	.string	"asio.netdb"
	.section	.text._ZNK4asio5error6detail14netdb_category4nameEv,"axG",@progbits,_ZNK4asio5error6detail14netdb_category4nameEv,comdat
	.align 2
	.p2align 4
	.weak	_ZNK4asio5error6detail14netdb_category4nameEv
	.type	_ZNK4asio5error6detail14netdb_category4nameEv, @function
_ZNK4asio5error6detail14netdb_category4nameEv:
.LFB2540:
	.cfi_startproc
	endbr64
	leaq	.LC1(%rip), %rax
	ret
	.cfi_endproc
.LFE2540:
	.size	_ZNK4asio5error6detail14netdb_category4nameEv, .-_ZNK4asio5error6detail14netdb_category4nameEv
	.section	.rodata._ZNK4asio5error6detail17addrinfo_category4nameEv.str1.1,"aMS",@progbits,1
.LC2:
	.string	"asio.addrinfo"
	.section	.text._ZNK4asio5error6detail17addrinfo_category4nameEv,"axG",@progbits,_ZNK4asio5error6detail17addrinfo_category4nameEv,comdat
	.align 2
	.p2align 4
	.weak	_ZNK4asio5error6detail17addrinfo_category4nameEv
	.type	_ZNK4asio5error6detail17addrinfo_category4nameEv, @function
_ZNK4asio5error6detail17addrinfo_category4nameEv:
.LFB2546:
	.cfi_startproc
	endbr64
	leaq	.LC2(%rip), %rax
	ret
	.cfi_endproc
.LFE2546:
	.size	_ZNK4asio5error6detail17addrinfo_category4nameEv, .-_ZNK4asio5error6detail17addrinfo_category4nameEv
	.section	.rodata._ZNK4asio5error6detail13misc_category4nameEv.str1.1,"aMS",@progbits,1
.LC3:
	.string	"asio.misc"
	.section	.text._ZNK4asio5error6detail13misc_category4nameEv,"axG",@progbits,_ZNK4asio5error6detail13misc_category4nameEv,comdat
	.align 2
	.p2align 4
	.weak	_ZNK4asio5error6detail13misc_category4nameEv
	.type	_ZNK4asio5error6detail13misc_category4nameEv, @function
_ZNK4asio5error6detail13misc_category4nameEv:
.LFB2552:
	.cfi_startproc
	endbr64
	leaq	.LC3(%rip), %rax
	ret
	.cfi_endproc
.LFE2552:
	.size	_ZNK4asio5error6detail13misc_category4nameEv, .-_ZNK4asio5error6detail13misc_category4nameEv
	.section	.text._ZN4asio6detail7tss_ptrINS0_10call_stackINS0_15task_io_serviceENS0_27task_io_service_thread_infoEE7contextEED2Ev,"axG",@progbits,_ZN4asio6detail7tss_ptrINS0_10call_stackINS0_15task_io_serviceENS0_27task_io_service_thread_infoEE7contextEED5Ev,comdat
	.align 2
	.p2align 4
	.weak	_ZN4asio6detail7tss_ptrINS0_10call_stackINS0_15task_io_serviceENS0_27task_io_service_thread_infoEE7contextEED2Ev
	.type	_ZN4asio6detail7tss_ptrINS0_10call_stackINS0_15task_io_serviceENS0_27task_io_service_thread_infoEE7contextEED2Ev, @function
_ZN4asio6detail7tss_ptrINS0_10call_stackINS0_15task_io_serviceENS0_27task_io_service_thread_infoEE7contextEED2Ev:
.LFB10556:
	.cfi_startproc
	endbr64
	ret
	.cfi_endproc
.LFE10556:
	.size	_ZN4asio6detail7tss_ptrINS0_10call_stackINS0_15task_io_serviceENS0_27task_io_service_thread_infoEE7contextEED2Ev, .-_ZN4asio6detail7tss_ptrINS0_10call_stackINS0_15task_io_serviceENS0_27task_io_service_thread_infoEE7contextEED2Ev
	.weak	_ZN4asio6detail7tss_ptrINS0_10call_stackINS0_15task_io_serviceENS0_27task_io_service_thread_infoEE7contextEED1Ev
	.set	_ZN4asio6detail7tss_ptrINS0_10call_stackINS0_15task_io_serviceENS0_27task_io_service_thread_infoEE7contextEED1Ev,_ZN4asio6detail7tss_ptrINS0_10call_stackINS0_15task_io_serviceENS0_27task_io_service_thread_infoEE7contextEED2Ev
	.section	.text._ZN4asio6detail10service_idINS0_13epoll_reactorEED2Ev,"axG",@progbits,_ZN4asio6detail10service_idINS0_13epoll_reactorEED5Ev,comdat
	.align 2
	.p2align 4
	.weak	_ZN4asio6detail10service_idINS0_13epoll_reactorEED2Ev
	.type	_ZN4asio6detail10service_idINS0_13epoll_reactorEED2Ev, @function
_ZN4asio6detail10service_idINS0_13epoll_reactorEED2Ev:
.LFB10559:
	.cfi_startproc
	endbr64
	ret
	.cfi_endproc
.LFE10559:
	.size	_ZN4asio6detail10service_idINS0_13epoll_reactorEED2Ev, .-_ZN4asio6detail10service_idINS0_13epoll_reactorEED2Ev
	.weak	_ZN4asio6detail10service_idINS0_13epoll_reactorEED1Ev
	.set	_ZN4asio6detail10service_idINS0_13epoll_reactorEED1Ev,_ZN4asio6detail10service_idINS0_13epoll_reactorEED2Ev
	.section	.text._ZN4asio6detail10service_idINS0_15task_io_serviceEED2Ev,"axG",@progbits,_ZN4asio6detail10service_idINS0_15task_io_serviceEED5Ev,comdat
	.align 2
	.p2align 4
	.weak	_ZN4asio6detail10service_idINS0_15task_io_serviceEED2Ev
	.type	_ZN4asio6detail10service_idINS0_15task_io_serviceEED2Ev, @function
_ZN4asio6detail10service_idINS0_15task_io_serviceEED2Ev:
.LFB10562:
	.cfi_startproc
	endbr64
	ret
	.cfi_endproc
.LFE10562:
	.size	_ZN4asio6detail10service_idINS0_15task_io_serviceEED2Ev, .-_ZN4asio6detail10service_idINS0_15task_io_serviceEED2Ev
	.weak	_ZN4asio6detail10service_idINS0_15task_io_serviceEED1Ev
	.set	_ZN4asio6detail10service_idINS0_15task_io_serviceEED1Ev,_ZN4asio6detail10service_idINS0_15task_io_serviceEED2Ev
	.section	.text._ZN4asio6detail7tss_ptrINS0_10call_stackINS0_14strand_service11strand_implEhE7contextEED2Ev,"axG",@progbits,_ZN4asio6detail7tss_ptrINS0_10call_stackINS0_14strand_service11strand_implEhE7contextEED5Ev,comdat
	.align 2
	.p2align 4
	.weak	_ZN4asio6detail7tss_ptrINS0_10call_stackINS0_14strand_service11strand_implEhE7contextEED2Ev
	.type	_ZN4asio6detail7tss_ptrINS0_10call_stackINS0_14strand_service11strand_implEhE7contextEED2Ev, @function
_ZN4asio6detail7tss_ptrINS0_10call_stackINS0_14strand_service11strand_implEhE7contextEED2Ev:
.LFB10565:
	.cfi_startproc
	endbr64
	ret
	.cfi_endproc
.LFE10565:
	.size	_ZN4asio6detail7tss_ptrINS0_10call_stackINS0_14strand_service11strand_implEhE7contextEED2Ev, .-_ZN4asio6detail7tss_ptrINS0_10call_stackINS0_14strand_service11strand_implEhE7contextEED2Ev
	.weak	_ZN4asio6detail7tss_ptrINS0_10call_stackINS0_14strand_service11strand_implEhE7contextEED1Ev
	.set	_ZN4asio6detail7tss_ptrINS0_10call_stackINS0_14strand_service11strand_implEhE7contextEED1Ev,_ZN4asio6detail7tss_ptrINS0_10call_stackINS0_14strand_service11strand_implEhE7contextEED2Ev
	.section	.text._ZN4asio6detail10service_idINS0_14strand_serviceEED2Ev,"axG",@progbits,_ZN4asio6detail10service_idINS0_14strand_serviceEED5Ev,comdat
	.align 2
	.p2align 4
	.weak	_ZN4asio6detail10service_idINS0_14strand_serviceEED2Ev
	.type	_ZN4asio6detail10service_idINS0_14strand_serviceEED2Ev, @function
_ZN4asio6detail10service_idINS0_14strand_serviceEED2Ev:
.LFB10568:
	.cfi_startproc
	endbr64
	ret
	.cfi_endproc
.LFE10568:
	.size	_ZN4asio6detail10service_idINS0_14strand_serviceEED2Ev, .-_ZN4asio6detail10service_idINS0_14strand_serviceEED2Ev
	.weak	_ZN4asio6detail10service_idINS0_14strand_serviceEED1Ev
	.set	_ZN4asio6detail10service_idINS0_14strand_serviceEED1Ev,_ZN4asio6detail10service_idINS0_14strand_serviceEED2Ev
	.section	.text._ZN4asio6detail15system_categoryD2Ev,"axG",@progbits,_ZN4asio6detail15system_categoryD5Ev,comdat
	.align 2
	.p2align 4
	.weak	_ZN4asio6detail15system_categoryD2Ev
	.type	_ZN4asio6detail15system_categoryD2Ev, @function
_ZN4asio6detail15system_categoryD2Ev:
.LFB10535:
	.cfi_startproc
	endbr64
	movq	_ZTVN4asio6detail15system_categoryE@GOTPCREL(%rip), %rax
	addq	$16, %rax
	movq	%rax, (%rdi)
	jmp	_ZNSt3_V214error_categoryD2Ev@PLT
	.cfi_endproc
.LFE10535:
	.size	_ZN4asio6detail15system_categoryD2Ev, .-_ZN4asio6detail15system_categoryD2Ev
	.weak	_ZN4asio6detail15system_categoryD1Ev
	.set	_ZN4asio6detail15system_categoryD1Ev,_ZN4asio6detail15system_categoryD2Ev
	.section	.text._ZN4asio6detail15system_categoryD0Ev,"axG",@progbits,_ZN4asio6detail15system_categoryD5Ev,comdat
	.align 2
	.p2align 4
	.weak	_ZN4asio6detail15system_categoryD0Ev
	.type	_ZN4asio6detail15system_categoryD0Ev, @function
_ZN4asio6detail15system_categoryD0Ev:
.LFB10537:
	.cfi_startproc
	endbr64
	movq	_ZTVN4asio6detail15system_categoryE@GOTPCREL(%rip), %rax
	pushq	%rbp
	.cfi_def_cfa_offset 16
	.cfi_offset 6, -16
	movq	%rdi, %rbp
	addq	$16, %rax
	movq	%rax, (%rdi)
	call	_ZNSt3_V214error_categoryD2Ev@PLT
	movq	%rbp, %rdi
	movl	$8, %esi
	popq	%rbp
	.cfi_def_cfa_offset 8
	jmp	_ZdlPvm@PLT
	.cfi_endproc
.LFE10537:
	.size	_ZN4asio6detail15system_categoryD0Ev, .-_ZN4asio6detail15system_categoryD0Ev
	.section	.text._ZN4asio5error6detail14netdb_categoryD2Ev,"axG",@progbits,_ZN4asio5error6detail14netdb_categoryD5Ev,comdat
	.align 2
	.p2align 4
	.weak	_ZN4asio5error6detail14netdb_categoryD2Ev
	.type	_ZN4asio5error6detail14netdb_categoryD2Ev, @function
_ZN4asio5error6detail14netdb_categoryD2Ev:
.LFB10523:
	.cfi_startproc
	endbr64
	movq	_ZTVN4asio5error6detail14netdb_categoryE@GOTPCREL(%rip), %rax
	addq	$16, %rax
	movq	%rax, (%rdi)
	jmp	_ZNSt3_V214error_categoryD2Ev@PLT
	.cfi_endproc
.LFE10523:
	.size	_ZN4asio5error6detail14netdb_categoryD2Ev, .-_ZN4asio5error6detail14netdb_categoryD2Ev
	.weak	_ZN4asio5error6detail14netdb_categoryD1Ev
	.set	_ZN4asio5error6detail14netdb_categoryD1Ev,_ZN4asio5error6detail14netdb_categoryD2Ev
	.section	.text._ZN4asio5error6detail14netdb_categoryD0Ev,"axG",@progbits,_ZN4asio5error6detail14netdb_categoryD5Ev,comdat
	.align 2
	.p2align 4
	.weak	_ZN4asio5error6detail14netdb_categoryD0Ev
	.type	_ZN4asio5error6detail14netdb_categoryD0Ev, @function
_ZN4asio5error6detail14netdb_categoryD0Ev:
.LFB10525:
	.cfi_startproc
	endbr64
	movq	_ZTVN4asio5error6detail14netdb_categoryE@GOTPCREL(%rip), %rax
	pushq	%rbp
	.cfi_def_cfa_offset 16
	.cfi_offset 6, -16
	movq	%rdi, %rbp
	addq	$16, %rax
	movq	%rax, (%rdi)
	call	_ZNSt3_V214error_categoryD2Ev@PLT
	movq	%rbp, %rdi
	movl	$8, %esi
	popq	%rbp
	.cfi_def_cfa_offset 8
	jmp	_ZdlPvm@PLT
	.cfi_endproc
.LFE10525:
	.size	_ZN4asio5error6detail14netdb_categoryD0Ev, .-_ZN4asio5error6detail14netdb_categoryD0Ev
	.section	.text._ZN4asio5error6detail17addrinfo_categoryD2Ev,"axG",@progbits,_ZN4asio5error6detail17addrinfo_categoryD5Ev,comdat
	.align 2
	.p2align 4
	.weak	_ZN4asio5error6detail17addrinfo_categoryD2Ev
	.type	_ZN4asio5error6detail17addrinfo_categoryD2Ev, @function
_ZN4asio5error6detail17addrinfo_categoryD2Ev:
.LFB10519:
	.cfi_startproc
	endbr64
	movq	_ZTVN4asio5error6detail17addrinfo_categoryE@GOTPCREL(%rip), %rax
	addq	$16, %rax
	movq	%rax, (%rdi)
	jmp	_ZNSt3_V214error_categoryD2Ev@PLT
	.cfi_endproc
.LFE10519:
	.size	_ZN4asio5error6detail17addrinfo_categoryD2Ev, .-_ZN4asio5error6detail17addrinfo_categoryD2Ev
	.weak	_ZN4asio5error6detail17addrinfo_categoryD1Ev
	.set	_ZN4asio5error6detail17addrinfo_categoryD1Ev,_ZN4asio5error6detail17addrinfo_categoryD2Ev
	.section	.text._ZN4asio5error6detail17addrinfo_categoryD0Ev,"axG",@progbits,_ZN4asio5error6detail17addrinfo_categoryD5Ev,comdat
	.align 2
	.p2align 4
	.weak	_ZN4asio5error6detail17addrinfo_categoryD0Ev
	.type	_ZN4asio5error6detail17addrinfo_categoryD0Ev, @function
_ZN4asio5error6detail17addrinfo_categoryD0Ev:
.LFB10521:
	.cfi_startproc
	endbr64
	movq	_ZTVN4asio5error6detail17addrinfo_categoryE@GOTPCREL(%rip), %rax
	pushq	%rbp
	.cfi_def_cfa_offset 16
	.cfi_offset 6, -16
	movq	%rdi, %rbp
	addq	$16, %rax
	movq	%rax, (%rdi)
	call	_ZNSt3_V214error_categoryD2Ev@PLT
	movq	%rbp, %rdi
	movl	$8, %esi
	popq	%rbp
	.cfi_def_cfa_offset 8
	jmp	_ZdlPvm@PLT
	.cfi_endproc
.LFE10521:
	.size	_ZN4asio5error6detail17addrinfo_categoryD0Ev, .-_ZN4asio5error6detail17addrinfo_categoryD0Ev
	.section	.text._ZN4asio5error6detail13misc_categoryD2Ev,"axG",@progbits,_ZN4asio5error6detail13misc_categoryD5Ev,comdat
	.align 2
	.p2align 4
	.weak	_ZN4asio5error6detail13misc_categoryD2Ev
	.type	_ZN4asio5error6detail13misc_categoryD2Ev, @function
_ZN4asio5error6detail13misc_categoryD2Ev:
.LFB10515:
	.cfi_startproc
	endbr64
	movq	_ZTVN4asio5error6detail13misc_categoryE@GOTPCREL(%rip), %rax
	addq	$16, %rax
	movq	%rax, (%rdi)
	jmp	_ZNSt3_V214error_categoryD2Ev@PLT
	.cfi_endproc
.LFE10515:
	.size	_ZN4asio5error6detail13misc_categoryD2Ev, .-_ZN4asio5error6detail13misc_categoryD2Ev
	.weak	_ZN4asio5error6detail13misc_categoryD1Ev
	.set	_ZN4asio5error6detail13misc_categoryD1Ev,_ZN4asio5error6detail13misc_categoryD2Ev
	.section	.text._ZN4asio5error6detail13misc_categoryD0Ev,"axG",@progbits,_ZN4asio5error6detail13misc_categoryD5Ev,comdat
	.align 2
	.p2align 4
	.weak	_ZN4asio5error6detail13misc_categoryD0Ev
	.type	_ZN4asio5error6detail13misc_categoryD0Ev, @function
_ZN4asio5error6detail13misc_categoryD0Ev:
.LFB10517:
	.cfi_startproc
	endbr64
	movq	_ZTVN4asio5error6detail13misc_categoryE@GOTPCREL(%rip), %rax
	pushq	%rbp
	.cfi_def_cfa_offset 16
	.cfi_offset 6, -16
	movq	%rdi, %rbp
	addq	$16, %rax
	movq	%rax, (%rdi)
	call	_ZNSt3_V214error_categoryD2Ev@PLT
	movq	%rbp, %rdi
	movl	$8, %esi
	popq	%rbp
	.cfi_def_cfa_offset 8
	jmp	_ZdlPvm@PLT
	.cfi_endproc
.LFE10517:
	.size	_ZN4asio5error6detail13misc_categoryD0Ev, .-_ZN4asio5error6detail13misc_categoryD0Ev
	.text
	.align 2
	.p2align 4
	.globl	_ZN8asiodnp311LinkSession13BeginTransmitERKN7openpal6RSliceERN8opendnp312ILinkSessionE
	.type	_ZN8asiodnp311LinkSession13BeginTransmitERKN7openpal6RSliceERN8opendnp312ILinkSessionE, @function
_ZN8asiodnp311LinkSession13BeginTransmitERKN7openpal6RSliceERN8opendnp312ILinkSessionE:
.LFB8000:
	.cfi_startproc
	endbr64
	movq	136(%rdi), %rdi
	cmpq	$0, 40(%rdi)
	je	.L23
	cmpb	$0, 56(%rdi)
	jne	.L23
	cmpb	$0, 58(%rdi)
	jne	.L23
	movq	(%rdi), %rax
	movb	$1, 58(%rdi)
	jmp	*24(%rax)
	.p2align 4,,10
	.p2align 3
.L23:
	ret
	.cfi_endproc
.LFE8000:
	.size	_ZN8asiodnp311LinkSession13BeginTransmitERKN7openpal6RSliceERN8opendnp312ILinkSessionE, .-_ZN8asiodnp311LinkSession13BeginTransmitERKN7openpal6RSliceERN8opendnp312ILinkSessionE
	.section	.rodata._ZNK4asio6detail15system_category7messageB5cxx11Ei.str1.8,"aMS",@progbits,1
	.align 8
.LC4:
	.string	"basic_string::_M_construct null not valid"
	.section	.text._ZNK4asio6detail15system_category7messageB5cxx11Ei,"axG",@progbits,_ZNK4asio6detail15system_category7messageB5cxx11Ei,comdat
	.align 2
	.p2align 4
	.weak	_ZNK4asio6detail15system_category7messageB5cxx11Ei
	.type	_ZNK4asio6detail15system_category7messageB5cxx11Ei, @function
_ZNK4asio6detail15system_category7messageB5cxx11Ei:
.LFB2501:
	.cfi_startproc
	endbr64
	pushq	%r14
	.cfi_def_cfa_offset 16
	.cfi_offset 14, -16
	pushq	%r13
	.cfi_def_cfa_offset 24
	.cfi_offset 13, -24
	pushq	%r12
	.cfi_def_cfa_offset 32
	.cfi_offset 12, -32
	movq	%rdi, %r12
	pushq	%rbp
	.cfi_def_cfa_offset 40
	.cfi_offset 6, -40
	leaq	16(%rdi), %rbp
	subq	$296, %rsp
	.cfi_def_cfa_offset 336
	movq	%fs:40, %rax
	movq	%rax, 280(%rsp)
	xorl	%eax, %eax
	cmpl	$125, %edx
	je	.L40
	pxor	%xmm0, %xmm0
	movl	%edx, %edi
	leaq	16(%rsp), %rsi
	movl	$256, %edx
	movaps	%xmm0, 16(%rsp)
	movaps	%xmm0, 32(%rsp)
	movaps	%xmm0, 48(%rsp)
	movaps	%xmm0, 64(%rsp)
	movaps	%xmm0, 80(%rsp)
	movaps	%xmm0, 96(%rsp)
	movaps	%xmm0, 112(%rsp)
	movaps	%xmm0, 128(%rsp)
	movaps	%xmm0, 144(%rsp)
	movaps	%xmm0, 160(%rsp)
	movaps	%xmm0, 176(%rsp)
	movaps	%xmm0, 192(%rsp)
	movaps	%xmm0, 208(%rsp)
	movaps	%xmm0, 224(%rsp)
	movaps	%xmm0, 240(%rsp)
	movaps	%xmm0, 256(%rsp)
	call	strerror_r@PLT
	movq	%rbp, (%r12)
	movq	%rax, %r13
	testq	%rax, %rax
	je	.L28
	movq	%rax, %rdi
	call	strlen@PLT
	movq	%rax, 8(%rsp)
	movq	%rax, %r14
	cmpq	$15, %rax
	ja	.L41
	cmpq	$1, %rax
	jne	.L32
	movzbl	0(%r13), %edx
	movb	%dl, 16(%r12)
.L33:
	movq	%rax, 8(%r12)
	movb	$0, 0(%rbp,%rax)
.L25:
	movq	280(%rsp), %rax
	subq	%fs:40, %rax
	jne	.L42
	addq	$296, %rsp
	.cfi_remember_state
	.cfi_def_cfa_offset 40
	movq	%r12, %rax
	popq	%rbp
	.cfi_def_cfa_offset 32
	popq	%r12
	.cfi_def_cfa_offset 24
	popq	%r13
	.cfi_def_cfa_offset 16
	popq	%r14
	.cfi_def_cfa_offset 8
	ret
	.p2align 4,,10
	.p2align 3
.L41:
	.cfi_restore_state
	leaq	8(%rsp), %rsi
	xorl	%edx, %edx
	movq	%r12, %rdi
	call	_ZNSt7__cxx1112basic_stringIcSt11char_traitsIcESaIcEE9_M_createERmm@PLT
	movq	%rax, (%r12)
	movq	%rax, %rbp
	movq	8(%rsp), %rax
	movq	%rax, 16(%r12)
.L31:
	movq	%rbp, %rdi
	movq	%r14, %rdx
	movq	%r13, %rsi
	call	memcpy@PLT
	movq	8(%rsp), %rax
	movq	(%r12), %rbp
	jmp	.L33
	.p2align 4,,10
	.p2align 3
.L40:
	movq	%rbp, (%rdi)
	xorl	%edx, %edx
	leaq	8(%rsp), %rsi
	movq	$18, 8(%rsp)
	call	_ZNSt7__cxx1112basic_stringIcSt11char_traitsIcESaIcEE9_M_createERmm@PLT
	movq	8(%rsp), %rdx
	movdqa	.LC5(%rip), %xmm0
	movq	%rax, (%r12)
	movq	%rdx, 16(%r12)
	movl	$11876, %edx
	movw	%dx, 16(%rax)
	movups	%xmm0, (%rax)
	movq	8(%rsp), %rax
	movq	(%r12), %rdx
	movq	%rax, 8(%r12)
	movb	$0, (%rdx,%rax)
	jmp	.L25
	.p2align 4,,10
	.p2align 3
.L32:
	testq	%rax, %rax
	je	.L33
	jmp	.L31
.L28:
	leaq	.LC4(%rip), %rdi
	call	_ZSt19__throw_logic_errorPKc@PLT
.L42:
	call	__stack_chk_fail@PLT
	.cfi_endproc
.LFE2501:
	.size	_ZNK4asio6detail15system_category7messageB5cxx11Ei, .-_ZNK4asio6detail15system_category7messageB5cxx11Ei
	.section	.text._ZNK4asio5error6detail17addrinfo_category7messageB5cxx11Ei,"axG",@progbits,_ZNK4asio5error6detail17addrinfo_category7messageB5cxx11Ei,comdat
	.align 2
	.p2align 4
	.weak	_ZNK4asio5error6detail17addrinfo_category7messageB5cxx11Ei
	.type	_ZNK4asio5error6detail17addrinfo_category7messageB5cxx11Ei, @function
_ZNK4asio5error6detail17addrinfo_category7messageB5cxx11Ei:
.LFB2547:
	.cfi_startproc
	endbr64
	pushq	%r12
	.cfi_def_cfa_offset 16
	.cfi_offset 12, -16
	movq	%rdi, %r12
	subq	$16, %rsp
	.cfi_def_cfa_offset 32
	movq	%fs:40, %rax
	movq	%rax, 8(%rsp)
	xorl	%eax, %eax
	leaq	16(%rdi), %rax
	movq	%rax, (%rdi)
	cmpl	$-8, %edx
	je	.L49
	cmpl	$-7, %edx
	je	.L50
	xorl	%edx, %edx
	movq	%rsp, %rsi
	movq	$19, (%rsp)
	call	_ZNSt7__cxx1112basic_stringIcSt11char_traitsIcESaIcEE9_M_createERmm@PLT
	movq	(%rsp), %rdx
	movdqa	.LC8(%rip), %xmm0
	movq	%rax, (%r12)
	movq	%rdx, 16(%r12)
	movl	$28530, %edx
	movw	%dx, 16(%rax)
	movb	$114, 18(%rax)
	movups	%xmm0, (%rax)
	movq	(%rsp), %rax
	movq	(%r12), %rdx
	movq	%rax, 8(%r12)
	movb	$0, (%rdx,%rax)
.L43:
	movq	8(%rsp), %rax
	subq	%fs:40, %rax
	jne	.L51
	addq	$16, %rsp
	.cfi_remember_state
	.cfi_def_cfa_offset 16
	movq	%r12, %rax
	popq	%r12
	.cfi_def_cfa_offset 8
	ret
	.p2align 4,,10
	.p2align 3
.L50:
	.cfi_restore_state
	xorl	%edx, %edx
	movq	%rsp, %rsi
	movq	$25, (%rsp)
	call	_ZNSt7__cxx1112basic_stringIcSt11char_traitsIcESaIcEE9_M_createERmm@PLT
	movq	(%rsp), %rdx
	movdqa	.LC7(%rip), %xmm0
	movabsq	$7310593918082512243, %rcx
	movq	%rax, (%r12)
	movq	%rdx, 16(%r12)
	movq	%rcx, 16(%rax)
	movb	$100, 24(%rax)
	movups	%xmm0, (%rax)
	movq	(%rsp), %rax
	movq	(%r12), %rdx
	movq	%rax, 8(%r12)
	movb	$0, (%rdx,%rax)
	jmp	.L43
	.p2align 4,,10
	.p2align 3
.L49:
	xorl	%edx, %edx
	movq	%rsp, %rsi
	movq	$17, (%rsp)
	call	_ZNSt7__cxx1112basic_stringIcSt11char_traitsIcESaIcEE9_M_createERmm@PLT
	movq	(%rsp), %rdx
	movdqa	.LC6(%rip), %xmm0
	movq	%rax, (%r12)
	movq	%rdx, 16(%r12)
	movb	$100, 16(%rax)
	movups	%xmm0, (%rax)
	movq	(%rsp), %rax
	movq	(%r12), %rdx
	movq	%rax, 8(%r12)
	movb	$0, (%rdx,%rax)
	jmp	.L43
.L51:
	call	__stack_chk_fail@PLT
	.cfi_endproc
.LFE2547:
	.size	_ZNK4asio5error6detail17addrinfo_category7messageB5cxx11Ei, .-_ZNK4asio5error6detail17addrinfo_category7messageB5cxx11Ei
	.section	.text._ZNK4asio5error6detail13misc_category7messageB5cxx11Ei,"axG",@progbits,_ZNK4asio5error6detail13misc_category7messageB5cxx11Ei,comdat
	.align 2
	.p2align 4
	.weak	_ZNK4asio5error6detail13misc_category7messageB5cxx11Ei
	.type	_ZNK4asio5error6detail13misc_category7messageB5cxx11Ei, @function
_ZNK4asio5error6detail13misc_category7messageB5cxx11Ei:
.LFB2553:
	.cfi_startproc
	endbr64
	pushq	%r12
	.cfi_def_cfa_offset 16
	.cfi_offset 12, -16
	movq	%rdi, %r12
	subq	$16, %rsp
	.cfi_def_cfa_offset 32
	movq	%fs:40, %rax
	movq	%rax, 8(%rsp)
	xorl	%eax, %eax
	leaq	16(%rdi), %rax
	movq	%rax, (%rdi)
	cmpl	$1, %edx
	je	.L60
	cmpl	$2, %edx
	je	.L61
	cmpl	$3, %edx
	je	.L62
	cmpl	$4, %edx
	je	.L63
	movabsq	$8316298233121436513, %rcx
	movl	$28530, %edx
	movq	%rcx, 16(%rdi)
	movl	$1919230051, 8(%rax)
	movw	%dx, 12(%rax)
	movb	$114, 14(%rax)
	movq	$15, 8(%rdi)
	movb	$0, 31(%rdi)
.L52:
	movq	8(%rsp), %rax
	subq	%fs:40, %rax
	jne	.L64
	addq	$16, %rsp
	.cfi_remember_state
	.cfi_def_cfa_offset 16
	movq	%r12, %rax
	popq	%r12
	.cfi_def_cfa_offset 8
	ret
	.p2align 4,,10
	.p2align 3
.L60:
	.cfi_restore_state
	movabsq	$2340011850872286273, %rcx
	movq	%rcx, 16(%rdi)
	movl	$1852141679, 8(%rax)
	movq	$12, 8(%rdi)
	movb	$0, 28(%rdi)
	jmp	.L52
	.p2align 4,,10
	.p2align 3
.L63:
	movq	%rsp, %rsi
	xorl	%edx, %edx
	movq	$57, (%rsp)
	call	_ZNSt7__cxx1112basic_stringIcSt11char_traitsIcESaIcEE9_M_createERmm@PLT
	movq	(%rsp), %rdx
	movdqa	.LC10(%rip), %xmm0
	movabsq	$7310291504967217959, %rsi
	movq	%rax, (%r12)
	movq	%rdx, 16(%r12)
	movups	%xmm0, (%rax)
	movdqa	.LC11(%rip), %xmm0
	movq	%rsi, 48(%rax)
	movups	%xmm0, 16(%rax)
	movdqa	.LC12(%rip), %xmm0
	movb	$116, 56(%rax)
	movups	%xmm0, 32(%rax)
	movq	(%rsp), %rax
	movq	(%r12), %rdx
	movq	%rax, 8(%r12)
	movb	$0, (%rdx,%rax)
	jmp	.L52
	.p2align 4,,10
	.p2align 3
.L61:
	movabsq	$7358994418594246213, %rcx
	movq	%rcx, 16(%rdi)
	movl	$27753, %ecx
	movw	%cx, 8(%rax)
	movb	$101, 10(%rax)
	movq	$11, 8(%rdi)
	movb	$0, 27(%rdi)
	jmp	.L52
	.p2align 4,,10
	.p2align 3
.L62:
	xorl	%edx, %edx
	movq	%rsp, %rsi
	movq	$17, (%rsp)
	call	_ZNSt7__cxx1112basic_stringIcSt11char_traitsIcESaIcEE9_M_createERmm@PLT
	movq	(%rsp), %rdx
	movdqa	.LC9(%rip), %xmm0
	movq	%rax, (%r12)
	movq	%rdx, 16(%r12)
	movb	$100, 16(%rax)
	movups	%xmm0, (%rax)
	movq	(%rsp), %rax
	movq	(%r12), %rdx
	movq	%rax, 8(%r12)
	movb	$0, (%rdx,%rax)
	jmp	.L52
.L64:
	call	__stack_chk_fail@PLT
	.cfi_endproc
.LFE2553:
	.size	_ZNK4asio5error6detail13misc_category7messageB5cxx11Ei, .-_ZNK4asio5error6detail13misc_category7messageB5cxx11Ei
	.section	.text._ZNK4asio5error6detail14netdb_category7messageB5cxx11Ei,"axG",@progbits,_ZNK4asio5error6detail14netdb_category7messageB5cxx11Ei,comdat
	.align 2
	.p2align 4
	.weak	_ZNK4asio5error6detail14netdb_category7messageB5cxx11Ei
	.type	_ZNK4asio5error6detail14netdb_category7messageB5cxx11Ei, @function
_ZNK4asio5error6detail14netdb_category7messageB5cxx11Ei:
.LFB2541:
	.cfi_startproc
	endbr64
	pushq	%r12
	.cfi_def_cfa_offset 16
	.cfi_offset 12, -16
	movq	%rdi, %r12
	subq	$16, %rsp
	.cfi_def_cfa_offset 32
	movq	%fs:40, %rax
	movq	%rax, 8(%rsp)
	xorl	%eax, %eax
	leaq	16(%rdi), %rax
	movq	%rax, (%rdi)
	cmpl	$1, %edx
	je	.L73
	cmpl	$2, %edx
	je	.L74
	cmpl	$4, %edx
	je	.L75
	cmpl	$3, %edx
	je	.L76
	xorl	%edx, %edx
	movq	%rsp, %rsi
	movq	$16, (%rsp)
	call	_ZNSt7__cxx1112basic_stringIcSt11char_traitsIcESaIcEE9_M_createERmm@PLT
	movq	(%rsp), %rdx
	movdqa	.LC22(%rip), %xmm0
	movq	%rax, (%r12)
	movq	%rdx, 16(%r12)
	movups	%xmm0, (%rax)
	movq	(%rsp), %rax
	movq	(%r12), %rdx
	movq	%rax, 8(%r12)
	movb	$0, (%rdx,%rax)
.L65:
	movq	8(%rsp), %rax
	subq	%fs:40, %rax
	jne	.L77
	addq	$16, %rsp
	.cfi_remember_state
	.cfi_def_cfa_offset 16
	movq	%r12, %rax
	popq	%r12
	.cfi_def_cfa_offset 8
	ret
	.p2align 4,,10
	.p2align 3
.L73:
	.cfi_restore_state
	movq	%rsp, %rsi
	xorl	%edx, %edx
	movq	$30, (%rsp)
	call	_ZNSt7__cxx1112basic_stringIcSt11char_traitsIcESaIcEE9_M_createERmm@PLT
	movq	(%rsp), %rdx
	movl	$10597, %esi
	movdqa	.LC13(%rip), %xmm0
	movabsq	$8388361603773658465, %rcx
	movq	%rax, (%r12)
	movq	%rdx, 16(%r12)
	movq	%rcx, 16(%rax)
	movl	$1986622561, 24(%rax)
	movw	%si, 28(%rax)
	movups	%xmm0, (%rax)
	movq	(%rsp), %rax
	movq	(%r12), %rdx
	movq	%rax, 8(%r12)
	movb	$0, (%rdx,%rax)
	jmp	.L65
	.p2align 4,,10
	.p2align 3
.L76:
	xorl	%edx, %edx
	movq	%rsp, %rsi
	movq	$55, (%rsp)
	call	_ZNSt7__cxx1112basic_stringIcSt11char_traitsIcESaIcEE9_M_createERmm@PLT
	movq	(%rsp), %rdx
	movdqa	.LC19(%rip), %xmm0
	movq	%rax, (%r12)
	movq	%rdx, 16(%r12)
	movl	$30059, %edx
	movups	%xmm0, (%rax)
	movdqa	.LC20(%rip), %xmm0
	movl	$1869573152, 48(%rax)
	movups	%xmm0, 16(%rax)
	movdqa	.LC21(%rip), %xmm0
	movw	%dx, 52(%rax)
	movb	$112, 54(%rax)
	movups	%xmm0, 32(%rax)
	movq	(%rsp), %rax
	movq	(%r12), %rdx
	movq	%rax, 8(%r12)
	movb	$0, (%rdx,%rax)
	jmp	.L65
	.p2align 4,,10
	.p2align 3
.L74:
	xorl	%edx, %edx
	movq	%rsp, %rsi
	movq	$51, (%rsp)
	call	_ZNSt7__cxx1112basic_stringIcSt11char_traitsIcESaIcEE9_M_createERmm@PLT
	movq	(%rsp), %rdx
	movl	$25972, %ecx
	movdqa	.LC13(%rip), %xmm0
	movq	%rax, (%r12)
	movq	%rdx, 16(%r12)
	movups	%xmm0, (%rax)
	movdqa	.LC14(%rip), %xmm0
	movw	%cx, 48(%rax)
	movups	%xmm0, 16(%rax)
	movdqa	.LC15(%rip), %xmm0
	movb	$114, 50(%rax)
	movups	%xmm0, 32(%rax)
	movq	(%rsp), %rax
	movq	(%r12), %rdx
	movq	%rax, 8(%r12)
	movb	$0, (%rdx,%rax)
	jmp	.L65
	.p2align 4,,10
	.p2align 3
.L75:
	xorl	%edx, %edx
	movq	%rsp, %rsi
	movq	$56, (%rsp)
	call	_ZNSt7__cxx1112basic_stringIcSt11char_traitsIcESaIcEE9_M_createERmm@PLT
	movq	(%rsp), %rdx
	movdqa	.LC16(%rip), %xmm0
	movabsq	$7022344801645520244, %rcx
	movq	%rax, (%r12)
	movq	%rdx, 16(%r12)
	movups	%xmm0, (%rax)
	movdqa	.LC17(%rip), %xmm0
	movq	%rcx, 48(%rax)
	movups	%xmm0, 16(%rax)
	movdqa	.LC18(%rip), %xmm0
	movups	%xmm0, 32(%rax)
	movq	(%rsp), %rax
	movq	(%r12), %rdx
	movq	%rax, 8(%r12)
	movb	$0, (%rdx,%rax)
	jmp	.L65
.L77:
	call	__stack_chk_fail@PLT
	.cfi_endproc
.LFE2541:
	.size	_ZNK4asio5error6detail14netdb_category7messageB5cxx11Ei, .-_ZNK4asio5error6detail14netdb_category7messageB5cxx11Ei
	.section	.text._ZN8asiodnp311LinkSessionD2Ev,"axG",@progbits,_ZN8asiodnp311LinkSessionD5Ev,comdat
	.p2align 4
	.weak	_ZThn48_N8asiodnp311LinkSessionD1Ev
	.type	_ZThn48_N8asiodnp311LinkSessionD1Ev, @function
_ZThn48_N8asiodnp311LinkSessionD1Ev:
.LFB10706:
	.cfi_startproc
	endbr64
	movq	_ZTVN8asiodnp311LinkSessionE@GOTPCREL(%rip), %rax
	pushq	%r12
	.cfi_def_cfa_offset 16
	.cfi_offset 12, -16
	pushq	%rbp
	.cfi_def_cfa_offset 24
	.cfi_offset 6, -24
	leaq	96(%rax), %rdx
	leaq	16(%rax), %rcx
	pushq	%rbx
	.cfi_def_cfa_offset 32
	.cfi_offset 3, -32
	movq	552(%rdi), %r12
	movq	%rdx, %xmm1
	movq	%rcx, %xmm0
	leaq	144(%rax), %rdx
	movq	%rdi, %rbx
	punpcklqdq	%xmm1, %xmm0
	movq	%rdx, -32(%rdi)
	leaq	224(%rax), %rdx
	addq	$184, %rax
	movups	%xmm0, -48(%rdi)
	movq	%rdx, %xmm2
	movq	%rax, %xmm0
	punpcklqdq	%xmm2, %xmm0
	movups	%xmm0, -8(%rdi)
	testq	%r12, %r12
	je	.L80
	movq	__libc_single_threaded@GOTPCREL(%rip), %rbp
	cmpb	$0, 0(%rbp)
	je	.L81
	movl	8(%r12), %eax
	leal	-1(%rax), %edx
	movl	%edx, 8(%r12)
.L82:
	cmpl	$1, %eax
	je	.L141
.L80:
	leaq	520(%rbx), %rdi
	call	_ZN7openpal8TimerRefD1Ev@PLT
	movq	128(%rbx), %r12
	testq	%r12, %r12
	je	.L87
	movq	__libc_single_threaded@GOTPCREL(%rip), %rbp
	cmpb	$0, 0(%rbp)
	je	.L88
	movl	8(%r12), %eax
	leal	-1(%rax), %edx
	movl	%edx, 8(%r12)
.L89:
	cmpl	$1, %eax
	je	.L142
.L87:
	movq	112(%rbx), %r12
	testq	%r12, %r12
	je	.L94
	movq	__libc_single_threaded@GOTPCREL(%rip), %rbp
	cmpb	$0, 0(%rbp)
	je	.L95
	movl	8(%r12), %eax
	leal	-1(%rax), %edx
	movl	%edx, 8(%r12)
.L96:
	cmpl	$1, %eax
	je	.L143
.L94:
	movq	96(%rbx), %r12
	testq	%r12, %r12
	je	.L101
	movq	__libc_single_threaded@GOTPCREL(%rip), %rbp
	cmpb	$0, 0(%rbp)
	je	.L102
	movl	8(%r12), %eax
	leal	-1(%rax), %edx
	movl	%edx, 8(%r12)
.L103:
	cmpl	$1, %eax
	je	.L144
.L101:
	movq	80(%rbx), %r12
	testq	%r12, %r12
	je	.L108
	movq	__libc_single_threaded@GOTPCREL(%rip), %rbp
	cmpb	$0, 0(%rbp)
	je	.L109
	movl	8(%r12), %eax
	leal	-1(%rax), %edx
	movl	%edx, 8(%r12)
.L110:
	cmpl	$1, %eax
	je	.L145
.L108:
	movq	64(%rbx), %r12
	testq	%r12, %r12
	je	.L115
	movq	__libc_single_threaded@GOTPCREL(%rip), %rbp
	cmpb	$0, 0(%rbp)
	je	.L116
	movl	8(%r12), %eax
	leal	-1(%rax), %edx
	movl	%edx, 8(%r12)
.L117:
	cmpl	$1, %eax
	je	.L146
.L115:
	movq	40(%rbx), %r12
	testq	%r12, %r12
	je	.L122
	movq	__libc_single_threaded@GOTPCREL(%rip), %rbp
	cmpb	$0, 0(%rbp)
	je	.L123
	movl	8(%r12), %eax
	leal	-1(%rax), %edx
	movl	%edx, 8(%r12)
.L124:
	cmpl	$1, %eax
	je	.L147
.L122:
	movq	24(%rbx), %r12
	testq	%r12, %r12
	je	.L129
	movq	__libc_single_threaded@GOTPCREL(%rip), %rbp
	cmpb	$0, 0(%rbp)
	je	.L130
	movl	8(%r12), %eax
	leal	-1(%rax), %edx
	movl	%edx, 8(%r12)
.L131:
	cmpl	$1, %eax
	je	.L148
.L129:
	movq	-16(%rbx), %rdi
	testq	%rdi, %rdi
	je	.L78
	movq	__libc_single_threaded@GOTPCREL(%rip), %rax
	cmpb	$0, (%rax)
	je	.L137
	movl	12(%rdi), %eax
	leal	-1(%rax), %edx
	movl	%edx, 12(%rdi)
.L138:
	cmpl	$1, %eax
	je	.L149
.L78:
	popq	%rbx
	.cfi_remember_state
	.cfi_def_cfa_offset 24
	popq	%rbp
	.cfi_def_cfa_offset 16
	popq	%r12
	.cfi_def_cfa_offset 8
	ret
	.p2align 4,,10
	.p2align 3
.L141:
	.cfi_restore_state
	movq	(%r12), %rax
	movq	%r12, %rdi
	call	*16(%rax)
	cmpb	$0, 0(%rbp)
	je	.L84
	movl	12(%r12), %eax
	leal	-1(%rax), %edx
	movl	%edx, 12(%r12)
.L85:
	cmpl	$1, %eax
	jne	.L80
	movq	(%r12), %rax
	movq	%r12, %rdi
	call	*24(%rax)
	jmp	.L80
	.p2align 4,,10
	.p2align 3
.L142:
	movq	(%r12), %rax
	movq	%r12, %rdi
	call	*16(%rax)
	cmpb	$0, 0(%rbp)
	je	.L91
	movl	12(%r12), %eax
	leal	-1(%rax), %edx
	movl	%edx, 12(%r12)
.L92:
	cmpl	$1, %eax
	jne	.L87
	movq	(%r12), %rax
	movq	%r12, %rdi
	call	*24(%rax)
	jmp	.L87
	.p2align 4,,10
	.p2align 3
.L143:
	movq	(%r12), %rax
	movq	%r12, %rdi
	call	*16(%rax)
	cmpb	$0, 0(%rbp)
	je	.L98
	movl	12(%r12), %eax
	leal	-1(%rax), %edx
	movl	%edx, 12(%r12)
.L99:
	cmpl	$1, %eax
	jne	.L94
	movq	(%r12), %rax
	movq	%r12, %rdi
	call	*24(%rax)
	jmp	.L94
	.p2align 4,,10
	.p2align 3
.L147:
	movq	(%r12), %rax
	movq	%r12, %rdi
	call	*16(%rax)
	cmpb	$0, 0(%rbp)
	je	.L126
	movl	12(%r12), %eax
	leal	-1(%rax), %edx
	movl	%edx, 12(%r12)
.L127:
	cmpl	$1, %eax
	jne	.L122
	movq	(%r12), %rax
	movq	%r12, %rdi
	call	*24(%rax)
	jmp	.L122
	.p2align 4,,10
	.p2align 3
.L145:
	movq	(%r12), %rax
	movq	%r12, %rdi
	call	*16(%rax)
	cmpb	$0, 0(%rbp)
	je	.L112
	movl	12(%r12), %eax
	leal	-1(%rax), %edx
	movl	%edx, 12(%r12)
.L113:
	cmpl	$1, %eax
	jne	.L108
	movq	(%r12), %rax
	movq	%r12, %rdi
	call	*24(%rax)
	jmp	.L108
	.p2align 4,,10
	.p2align 3
.L149:
	movq	(%rdi), %rax
	popq	%rbx
	.cfi_remember_state
	.cfi_def_cfa_offset 24
	popq	%rbp
	.cfi_def_cfa_offset 16
	popq	%r12
	.cfi_def_cfa_offset 8
	movq	24(%rax), %rax
	jmp	*%rax
	.p2align 4,,10
	.p2align 3
.L144:
	.cfi_restore_state
	movq	(%r12), %rax
	movq	%r12, %rdi
	call	*16(%rax)
	cmpb	$0, 0(%rbp)
	je	.L105
	movl	12(%r12), %eax
	leal	-1(%rax), %edx
	movl	%edx, 12(%r12)
.L106:
	cmpl	$1, %eax
	jne	.L101
	movq	(%r12), %rax
	movq	%r12, %rdi
	call	*24(%rax)
	jmp	.L101
	.p2align 4,,10
	.p2align 3
.L146:
	movq	(%r12), %rax
	movq	%r12, %rdi
	call	*16(%rax)
	cmpb	$0, 0(%rbp)
	je	.L119
	movl	12(%r12), %eax
	leal	-1(%rax), %edx
	movl	%edx, 12(%r12)
.L120:
	cmpl	$1, %eax
	jne	.L115
	movq	(%r12), %rax
	movq	%r12, %rdi
	call	*24(%rax)
	jmp	.L115
	.p2align 4,,10
	.p2align 3
.L148:
	movq	(%r12), %rax
	movq	%r12, %rdi
	call	*16(%rax)
	cmpb	$0, 0(%rbp)
	je	.L133
	movl	12(%r12), %eax
	leal	-1(%rax), %edx
	movl	%edx, 12(%r12)
.L134:
	cmpl	$1, %eax
	jne	.L129
	movq	(%r12), %rax
	movq	%r12, %rdi
	call	*24(%rax)
	jmp	.L129
	.p2align 4,,10
	.p2align 3
.L116:
	movl	$-1, %eax
	lock xaddl	%eax, 8(%r12)
	jmp	.L117
	.p2align 4,,10
	.p2align 3
.L109:
	movl	$-1, %eax
	lock xaddl	%eax, 8(%r12)
	jmp	.L110
	.p2align 4,,10
	.p2align 3
.L88:
	movl	$-1, %eax
	lock xaddl	%eax, 8(%r12)
	jmp	.L89
	.p2align 4,,10
	.p2align 3
.L95:
	movl	$-1, %eax
	lock xaddl	%eax, 8(%r12)
	jmp	.L96
	.p2align 4,,10
	.p2align 3
.L102:
	movl	$-1, %eax
	lock xaddl	%eax, 8(%r12)
	jmp	.L103
	.p2align 4,,10
	.p2align 3
.L137:
	movl	$-1, %eax
	lock xaddl	%eax, 12(%rdi)
	jmp	.L138
	.p2align 4,,10
	.p2align 3
.L130:
	movl	$-1, %eax
	lock xaddl	%eax, 8(%r12)
	jmp	.L131
	.p2align 4,,10
	.p2align 3
.L81:
	movl	$-1, %eax
	lock xaddl	%eax, 8(%r12)
	jmp	.L82
	.p2align 4,,10
	.p2align 3
.L123:
	movl	$-1, %eax
	lock xaddl	%eax, 8(%r12)
	jmp	.L124
	.p2align 4,,10
	.p2align 3
.L112:
	movl	$-1, %eax
	lock xaddl	%eax, 12(%r12)
	jmp	.L113
	.p2align 4,,10
	.p2align 3
.L133:
	movl	$-1, %eax
	lock xaddl	%eax, 12(%r12)
	jmp	.L134
	.p2align 4,,10
	.p2align 3
.L98:
	movl	$-1, %eax
	lock xaddl	%eax, 12(%r12)
	jmp	.L99
	.p2align 4,,10
	.p2align 3
.L119:
	movl	$-1, %eax
	lock xaddl	%eax, 12(%r12)
	jmp	.L120
	.p2align 4,,10
	.p2align 3
.L84:
	movl	$-1, %eax
	lock xaddl	%eax, 12(%r12)
	jmp	.L85
	.p2align 4,,10
	.p2align 3
.L91:
	movl	$-1, %eax
	lock xaddl	%eax, 12(%r12)
	jmp	.L92
	.p2align 4,,10
	.p2align 3
.L126:
	movl	$-1, %eax
	lock xaddl	%eax, 12(%r12)
	jmp	.L127
	.p2align 4,,10
	.p2align 3
.L105:
	movl	$-1, %eax
	lock xaddl	%eax, 12(%r12)
	jmp	.L106
	.cfi_endproc
.LFE10706:
	.size	_ZThn48_N8asiodnp311LinkSessionD1Ev, .-_ZThn48_N8asiodnp311LinkSessionD1Ev
	.p2align 4
	.weak	_ZThn16_N8asiodnp311LinkSessionD1Ev
	.type	_ZThn16_N8asiodnp311LinkSessionD1Ev, @function
_ZThn16_N8asiodnp311LinkSessionD1Ev:
.LFB10708:
	.cfi_startproc
	endbr64
	movq	_ZTVN8asiodnp311LinkSessionE@GOTPCREL(%rip), %rax
	pushq	%r12
	.cfi_def_cfa_offset 16
	.cfi_offset 12, -16
	pushq	%rbp
	.cfi_def_cfa_offset 24
	.cfi_offset 6, -24
	leaq	96(%rax), %rdx
	leaq	16(%rax), %rcx
	pushq	%rbx
	.cfi_def_cfa_offset 32
	.cfi_offset 3, -32
	movq	584(%rdi), %r12
	movq	%rdx, %xmm1
	movq	%rcx, %xmm0
	leaq	144(%rax), %rdx
	movq	%rdi, %rbx
	punpcklqdq	%xmm1, %xmm0
	movq	%rdx, (%rdi)
	leaq	224(%rax), %rdx
	addq	$184, %rax
	movups	%xmm0, -16(%rdi)
	movq	%rdx, %xmm2
	movq	%rax, %xmm0
	punpcklqdq	%xmm2, %xmm0
	movups	%xmm0, 24(%rdi)
	testq	%r12, %r12
	je	.L152
	movq	__libc_single_threaded@GOTPCREL(%rip), %rbp
	cmpb	$0, 0(%rbp)
	je	.L153
	movl	8(%r12), %eax
	leal	-1(%rax), %edx
	movl	%edx, 8(%r12)
.L154:
	cmpl	$1, %eax
	je	.L213
.L152:
	leaq	552(%rbx), %rdi
	call	_ZN7openpal8TimerRefD1Ev@PLT
	movq	160(%rbx), %r12
	testq	%r12, %r12
	je	.L159
	movq	__libc_single_threaded@GOTPCREL(%rip), %rbp
	cmpb	$0, 0(%rbp)
	je	.L160
	movl	8(%r12), %eax
	leal	-1(%rax), %edx
	movl	%edx, 8(%r12)
.L161:
	cmpl	$1, %eax
	je	.L214
.L159:
	movq	144(%rbx), %r12
	testq	%r12, %r12
	je	.L166
	movq	__libc_single_threaded@GOTPCREL(%rip), %rbp
	cmpb	$0, 0(%rbp)
	je	.L167
	movl	8(%r12), %eax
	leal	-1(%rax), %edx
	movl	%edx, 8(%r12)
.L168:
	cmpl	$1, %eax
	je	.L215
.L166:
	movq	128(%rbx), %r12
	testq	%r12, %r12
	je	.L173
	movq	__libc_single_threaded@GOTPCREL(%rip), %rbp
	cmpb	$0, 0(%rbp)
	je	.L174
	movl	8(%r12), %eax
	leal	-1(%rax), %edx
	movl	%edx, 8(%r12)
.L175:
	cmpl	$1, %eax
	je	.L216
.L173:
	movq	112(%rbx), %r12
	testq	%r12, %r12
	je	.L180
	movq	__libc_single_threaded@GOTPCREL(%rip), %rbp
	cmpb	$0, 0(%rbp)
	je	.L181
	movl	8(%r12), %eax
	leal	-1(%rax), %edx
	movl	%edx, 8(%r12)
.L182:
	cmpl	$1, %eax
	je	.L217
.L180:
	movq	96(%rbx), %r12
	testq	%r12, %r12
	je	.L187
	movq	__libc_single_threaded@GOTPCREL(%rip), %rbp
	cmpb	$0, 0(%rbp)
	je	.L188
	movl	8(%r12), %eax
	leal	-1(%rax), %edx
	movl	%edx, 8(%r12)
.L189:
	cmpl	$1, %eax
	je	.L218
.L187:
	movq	72(%rbx), %r12
	testq	%r12, %r12
	je	.L194
	movq	__libc_single_threaded@GOTPCREL(%rip), %rbp
	cmpb	$0, 0(%rbp)
	je	.L195
	movl	8(%r12), %eax
	leal	-1(%rax), %edx
	movl	%edx, 8(%r12)
.L196:
	cmpl	$1, %eax
	je	.L219
.L194:
	movq	56(%rbx), %r12
	testq	%r12, %r12
	je	.L201
	movq	__libc_single_threaded@GOTPCREL(%rip), %rbp
	cmpb	$0, 0(%rbp)
	je	.L202
	movl	8(%r12), %eax
	leal	-1(%rax), %edx
	movl	%edx, 8(%r12)
.L203:
	cmpl	$1, %eax
	je	.L220
.L201:
	movq	16(%rbx), %rdi
	testq	%rdi, %rdi
	je	.L150
	movq	__libc_single_threaded@GOTPCREL(%rip), %rax
	cmpb	$0, (%rax)
	je	.L209
	movl	12(%rdi), %eax
	leal	-1(%rax), %edx
	movl	%edx, 12(%rdi)
.L210:
	cmpl	$1, %eax
	je	.L221
.L150:
	popq	%rbx
	.cfi_remember_state
	.cfi_def_cfa_offset 24
	popq	%rbp
	.cfi_def_cfa_offset 16
	popq	%r12
	.cfi_def_cfa_offset 8
	ret
	.p2align 4,,10
	.p2align 3
.L213:
	.cfi_restore_state
	movq	(%r12), %rax
	movq	%r12, %rdi
	call	*16(%rax)
	cmpb	$0, 0(%rbp)
	je	.L156
	movl	12(%r12), %eax
	leal	-1(%rax), %edx
	movl	%edx, 12(%r12)
.L157:
	cmpl	$1, %eax
	jne	.L152
	movq	(%r12), %rax
	movq	%r12, %rdi
	call	*24(%rax)
	jmp	.L152
	.p2align 4,,10
	.p2align 3
.L214:
	movq	(%r12), %rax
	movq	%r12, %rdi
	call	*16(%rax)
	cmpb	$0, 0(%rbp)
	je	.L163
	movl	12(%r12), %eax
	leal	-1(%rax), %edx
	movl	%edx, 12(%r12)
.L164:
	cmpl	$1, %eax
	jne	.L159
	movq	(%r12), %rax
	movq	%r12, %rdi
	call	*24(%rax)
	jmp	.L159
	.p2align 4,,10
	.p2align 3
.L215:
	movq	(%r12), %rax
	movq	%r12, %rdi
	call	*16(%rax)
	cmpb	$0, 0(%rbp)
	je	.L170
	movl	12(%r12), %eax
	leal	-1(%rax), %edx
	movl	%edx, 12(%r12)
.L171:
	cmpl	$1, %eax
	jne	.L166
	movq	(%r12), %rax
	movq	%r12, %rdi
	call	*24(%rax)
	jmp	.L166
	.p2align 4,,10
	.p2align 3
.L219:
	movq	(%r12), %rax
	movq	%r12, %rdi
	call	*16(%rax)
	cmpb	$0, 0(%rbp)
	je	.L198
	movl	12(%r12), %eax
	leal	-1(%rax), %edx
	movl	%edx, 12(%r12)
.L199:
	cmpl	$1, %eax
	jne	.L194
	movq	(%r12), %rax
	movq	%r12, %rdi
	call	*24(%rax)
	jmp	.L194
	.p2align 4,,10
	.p2align 3
.L217:
	movq	(%r12), %rax
	movq	%r12, %rdi
	call	*16(%rax)
	cmpb	$0, 0(%rbp)
	je	.L184
	movl	12(%r12), %eax
	leal	-1(%rax), %edx
	movl	%edx, 12(%r12)
.L185:
	cmpl	$1, %eax
	jne	.L180
	movq	(%r12), %rax
	movq	%r12, %rdi
	call	*24(%rax)
	jmp	.L180
	.p2align 4,,10
	.p2align 3
.L221:
	movq	(%rdi), %rax
	popq	%rbx
	.cfi_remember_state
	.cfi_def_cfa_offset 24
	popq	%rbp
	.cfi_def_cfa_offset 16
	popq	%r12
	.cfi_def_cfa_offset 8
	movq	24(%rax), %rax
	jmp	*%rax
	.p2align 4,,10
	.p2align 3
.L216:
	.cfi_restore_state
	movq	(%r12), %rax
	movq	%r12, %rdi
	call	*16(%rax)
	cmpb	$0, 0(%rbp)
	je	.L177
	movl	12(%r12), %eax
	leal	-1(%rax), %edx
	movl	%edx, 12(%r12)
.L178:
	cmpl	$1, %eax
	jne	.L173
	movq	(%r12), %rax
	movq	%r12, %rdi
	call	*24(%rax)
	jmp	.L173
	.p2align 4,,10
	.p2align 3
.L218:
	movq	(%r12), %rax
	movq	%r12, %rdi
	call	*16(%rax)
	cmpb	$0, 0(%rbp)
	je	.L191
	movl	12(%r12), %eax
	leal	-1(%rax), %edx
	movl	%edx, 12(%r12)
.L192:
	cmpl	$1, %eax
	jne	.L187
	movq	(%r12), %rax
	movq	%r12, %rdi
	call	*24(%rax)
	jmp	.L187
	.p2align 4,,10
	.p2align 3
.L220:
	movq	(%r12), %rax
	movq	%r12, %rdi
	call	*16(%rax)
	cmpb	$0, 0(%rbp)
	je	.L205
	movl	12(%r12), %eax
	leal	-1(%rax), %edx
	movl	%edx, 12(%r12)
.L206:
	cmpl	$1, %eax
	jne	.L201
	movq	(%r12), %rax
	movq	%r12, %rdi
	call	*24(%rax)
	jmp	.L201
	.p2align 4,,10
	.p2align 3
.L188:
	movl	$-1, %eax
	lock xaddl	%eax, 8(%r12)
	jmp	.L189
	.p2align 4,,10
	.p2align 3
.L181:
	movl	$-1, %eax
	lock xaddl	%eax, 8(%r12)
	jmp	.L182
	.p2align 4,,10
	.p2align 3
.L160:
	movl	$-1, %eax
	lock xaddl	%eax, 8(%r12)
	jmp	.L161
	.p2align 4,,10
	.p2align 3
.L167:
	movl	$-1, %eax
	lock xaddl	%eax, 8(%r12)
	jmp	.L168
	.p2align 4,,10
	.p2align 3
.L174:
	movl	$-1, %eax
	lock xaddl	%eax, 8(%r12)
	jmp	.L175
	.p2align 4,,10
	.p2align 3
.L209:
	movl	$-1, %eax
	lock xaddl	%eax, 12(%rdi)
	jmp	.L210
	.p2align 4,,10
	.p2align 3
.L202:
	movl	$-1, %eax
	lock xaddl	%eax, 8(%r12)
	jmp	.L203
	.p2align 4,,10
	.p2align 3
.L153:
	movl	$-1, %eax
	lock xaddl	%eax, 8(%r12)
	jmp	.L154
	.p2align 4,,10
	.p2align 3
.L195:
	movl	$-1, %eax
	lock xaddl	%eax, 8(%r12)
	jmp	.L196
	.p2align 4,,10
	.p2align 3
.L184:
	movl	$-1, %eax
	lock xaddl	%eax, 12(%r12)
	jmp	.L185
	.p2align 4,,10
	.p2align 3
.L205:
	movl	$-1, %eax
	lock xaddl	%eax, 12(%r12)
	jmp	.L206
	.p2align 4,,10
	.p2align 3
.L170:
	movl	$-1, %eax
	lock xaddl	%eax, 12(%r12)
	jmp	.L171
	.p2align 4,,10
	.p2align 3
.L191:
	movl	$-1, %eax
	lock xaddl	%eax, 12(%r12)
	jmp	.L192
	.p2align 4,,10
	.p2align 3
.L156:
	movl	$-1, %eax
	lock xaddl	%eax, 12(%r12)
	jmp	.L157
	.p2align 4,,10
	.p2align 3
.L163:
	movl	$-1, %eax
	lock xaddl	%eax, 12(%r12)
	jmp	.L164
	.p2align 4,,10
	.p2align 3
.L198:
	movl	$-1, %eax
	lock xaddl	%eax, 12(%r12)
	jmp	.L199
	.p2align 4,,10
	.p2align 3
.L177:
	movl	$-1, %eax
	lock xaddl	%eax, 12(%r12)
	jmp	.L178
	.cfi_endproc
.LFE10708:
	.size	_ZThn16_N8asiodnp311LinkSessionD1Ev, .-_ZThn16_N8asiodnp311LinkSessionD1Ev
	.p2align 4
	.weak	_ZThn40_N8asiodnp311LinkSessionD1Ev
	.type	_ZThn40_N8asiodnp311LinkSessionD1Ev, @function
_ZThn40_N8asiodnp311LinkSessionD1Ev:
.LFB10707:
	.cfi_startproc
	endbr64
	movq	_ZTVN8asiodnp311LinkSessionE@GOTPCREL(%rip), %rax
	pushq	%r12
	.cfi_def_cfa_offset 16
	.cfi_offset 12, -16
	pushq	%rbp
	.cfi_def_cfa_offset 24
	.cfi_offset 6, -24
	leaq	96(%rax), %rdx
	leaq	16(%rax), %rcx
	pushq	%rbx
	.cfi_def_cfa_offset 32
	.cfi_offset 3, -32
	movq	560(%rdi), %r12
	movq	%rdx, %xmm1
	movq	%rcx, %xmm0
	leaq	144(%rax), %rdx
	movq	%rdi, %rbx
	punpcklqdq	%xmm1, %xmm0
	movq	%rdx, -24(%rdi)
	leaq	224(%rax), %rdx
	addq	$184, %rax
	movups	%xmm0, -40(%rdi)
	movq	%rdx, %xmm2
	movq	%rax, %xmm0
	punpcklqdq	%xmm2, %xmm0
	movups	%xmm0, (%rdi)
	testq	%r12, %r12
	je	.L224
	movq	__libc_single_threaded@GOTPCREL(%rip), %rbp
	cmpb	$0, 0(%rbp)
	je	.L225
	movl	8(%r12), %eax
	leal	-1(%rax), %edx
	movl	%edx, 8(%r12)
.L226:
	cmpl	$1, %eax
	je	.L285
.L224:
	leaq	528(%rbx), %rdi
	call	_ZN7openpal8TimerRefD1Ev@PLT
	movq	136(%rbx), %r12
	testq	%r12, %r12
	je	.L231
	movq	__libc_single_threaded@GOTPCREL(%rip), %rbp
	cmpb	$0, 0(%rbp)
	je	.L232
	movl	8(%r12), %eax
	leal	-1(%rax), %edx
	movl	%edx, 8(%r12)
.L233:
	cmpl	$1, %eax
	je	.L286
.L231:
	movq	120(%rbx), %r12
	testq	%r12, %r12
	je	.L238
	movq	__libc_single_threaded@GOTPCREL(%rip), %rbp
	cmpb	$0, 0(%rbp)
	je	.L239
	movl	8(%r12), %eax
	leal	-1(%rax), %edx
	movl	%edx, 8(%r12)
.L240:
	cmpl	$1, %eax
	je	.L287
.L238:
	movq	104(%rbx), %r12
	testq	%r12, %r12
	je	.L245
	movq	__libc_single_threaded@GOTPCREL(%rip), %rbp
	cmpb	$0, 0(%rbp)
	je	.L246
	movl	8(%r12), %eax
	leal	-1(%rax), %edx
	movl	%edx, 8(%r12)
.L247:
	cmpl	$1, %eax
	je	.L288
.L245:
	movq	88(%rbx), %r12
	testq	%r12, %r12
	je	.L252
	movq	__libc_single_threaded@GOTPCREL(%rip), %rbp
	cmpb	$0, 0(%rbp)
	je	.L253
	movl	8(%r12), %eax
	leal	-1(%rax), %edx
	movl	%edx, 8(%r12)
.L254:
	cmpl	$1, %eax
	je	.L289
.L252:
	movq	72(%rbx), %r12
	testq	%r12, %r12
	je	.L259
	movq	__libc_single_threaded@GOTPCREL(%rip), %rbp
	cmpb	$0, 0(%rbp)
	je	.L260
	movl	8(%r12), %eax
	leal	-1(%rax), %edx
	movl	%edx, 8(%r12)
.L261:
	cmpl	$1, %eax
	je	.L290
.L259:
	movq	48(%rbx), %r12
	testq	%r12, %r12
	je	.L266
	movq	__libc_single_threaded@GOTPCREL(%rip), %rbp
	cmpb	$0, 0(%rbp)
	je	.L267
	movl	8(%r12), %eax
	leal	-1(%rax), %edx
	movl	%edx, 8(%r12)
.L268:
	cmpl	$1, %eax
	je	.L291
.L266:
	movq	32(%rbx), %r12
	testq	%r12, %r12
	je	.L273
	movq	__libc_single_threaded@GOTPCREL(%rip), %rbp
	cmpb	$0, 0(%rbp)
	je	.L274
	movl	8(%r12), %eax
	leal	-1(%rax), %edx
	movl	%edx, 8(%r12)
.L275:
	cmpl	$1, %eax
	je	.L292
.L273:
	movq	-8(%rbx), %rdi
	testq	%rdi, %rdi
	je	.L222
	movq	__libc_single_threaded@GOTPCREL(%rip), %rax
	cmpb	$0, (%rax)
	je	.L281
	movl	12(%rdi), %eax
	leal	-1(%rax), %edx
	movl	%edx, 12(%rdi)
.L282:
	cmpl	$1, %eax
	je	.L293
.L222:
	popq	%rbx
	.cfi_remember_state
	.cfi_def_cfa_offset 24
	popq	%rbp
	.cfi_def_cfa_offset 16
	popq	%r12
	.cfi_def_cfa_offset 8
	ret
	.p2align 4,,10
	.p2align 3
.L285:
	.cfi_restore_state
	movq	(%r12), %rax
	movq	%r12, %rdi
	call	*16(%rax)
	cmpb	$0, 0(%rbp)
	je	.L228
	movl	12(%r12), %eax
	leal	-1(%rax), %edx
	movl	%edx, 12(%r12)
.L229:
	cmpl	$1, %eax
	jne	.L224
	movq	(%r12), %rax
	movq	%r12, %rdi
	call	*24(%rax)
	jmp	.L224
	.p2align 4,,10
	.p2align 3
.L286:
	movq	(%r12), %rax
	movq	%r12, %rdi
	call	*16(%rax)
	cmpb	$0, 0(%rbp)
	je	.L235
	movl	12(%r12), %eax
	leal	-1(%rax), %edx
	movl	%edx, 12(%r12)
.L236:
	cmpl	$1, %eax
	jne	.L231
	movq	(%r12), %rax
	movq	%r12, %rdi
	call	*24(%rax)
	jmp	.L231
	.p2align 4,,10
	.p2align 3
.L287:
	movq	(%r12), %rax
	movq	%r12, %rdi
	call	*16(%rax)
	cmpb	$0, 0(%rbp)
	je	.L242
	movl	12(%r12), %eax
	leal	-1(%rax), %edx
	movl	%edx, 12(%r12)
.L243:
	cmpl	$1, %eax
	jne	.L238
	movq	(%r12), %rax
	movq	%r12, %rdi
	call	*24(%rax)
	jmp	.L238
	.p2align 4,,10
	.p2align 3
.L291:
	movq	(%r12), %rax
	movq	%r12, %rdi
	call	*16(%rax)
	cmpb	$0, 0(%rbp)
	je	.L270
	movl	12(%r12), %eax
	leal	-1(%rax), %edx
	movl	%edx, 12(%r12)
.L271:
	cmpl	$1, %eax
	jne	.L266
	movq	(%r12), %rax
	movq	%r12, %rdi
	call	*24(%rax)
	jmp	.L266
	.p2align 4,,10
	.p2align 3
.L289:
	movq	(%r12), %rax
	movq	%r12, %rdi
	call	*16(%rax)
	cmpb	$0, 0(%rbp)
	je	.L256
	movl	12(%r12), %eax
	leal	-1(%rax), %edx
	movl	%edx, 12(%r12)
.L257:
	cmpl	$1, %eax
	jne	.L252
	movq	(%r12), %rax
	movq	%r12, %rdi
	call	*24(%rax)
	jmp	.L252
	.p2align 4,,10
	.p2align 3
.L293:
	movq	(%rdi), %rax
	popq	%rbx
	.cfi_remember_state
	.cfi_def_cfa_offset 24
	popq	%rbp
	.cfi_def_cfa_offset 16
	popq	%r12
	.cfi_def_cfa_offset 8
	movq	24(%rax), %rax
	jmp	*%rax
	.p2align 4,,10
	.p2align 3
.L288:
	.cfi_restore_state
	movq	(%r12), %rax
	movq	%r12, %rdi
	call	*16(%rax)
	cmpb	$0, 0(%rbp)
	je	.L249
	movl	12(%r12), %eax
	leal	-1(%rax), %edx
	movl	%edx, 12(%r12)
.L250:
	cmpl	$1, %eax
	jne	.L245
	movq	(%r12), %rax
	movq	%r12, %rdi
	call	*24(%rax)
	jmp	.L245
	.p2align 4,,10
	.p2align 3
.L290:
	movq	(%r12), %rax
	movq	%r12, %rdi
	call	*16(%rax)
	cmpb	$0, 0(%rbp)
	je	.L263
	movl	12(%r12), %eax
	leal	-1(%rax), %edx
	movl	%edx, 12(%r12)
.L264:
	cmpl	$1, %eax
	jne	.L259
	movq	(%r12), %rax
	movq	%r12, %rdi
	call	*24(%rax)
	jmp	.L259
	.p2align 4,,10
	.p2align 3
.L292:
	movq	(%r12), %rax
	movq	%r12, %rdi
	call	*16(%rax)
	cmpb	$0, 0(%rbp)
	je	.L277
	movl	12(%r12), %eax
	leal	-1(%rax), %edx
	movl	%edx, 12(%r12)
.L278:
	cmpl	$1, %eax
	jne	.L273
	movq	(%r12), %rax
	movq	%r12, %rdi
	call	*24(%rax)
	jmp	.L273
	.p2align 4,,10
	.p2align 3
.L260:
	movl	$-1, %eax
	lock xaddl	%eax, 8(%r12)
	jmp	.L261
	.p2align 4,,10
	.p2align 3
.L253:
	movl	$-1, %eax
	lock xaddl	%eax, 8(%r12)
	jmp	.L254
	.p2align 4,,10
	.p2align 3
.L232:
	movl	$-1, %eax
	lock xaddl	%eax, 8(%r12)
	jmp	.L233
	.p2align 4,,10
	.p2align 3
.L239:
	movl	$-1, %eax
	lock xaddl	%eax, 8(%r12)
	jmp	.L240
	.p2align 4,,10
	.p2align 3
.L246:
	movl	$-1, %eax
	lock xaddl	%eax, 8(%r12)
	jmp	.L247
	.p2align 4,,10
	.p2align 3
.L281:
	movl	$-1, %eax
	lock xaddl	%eax, 12(%rdi)
	jmp	.L282
	.p2align 4,,10
	.p2align 3
.L274:
	movl	$-1, %eax
	lock xaddl	%eax, 8(%r12)
	jmp	.L275
	.p2align 4,,10
	.p2align 3
.L225:
	movl	$-1, %eax
	lock xaddl	%eax, 8(%r12)
	jmp	.L226
	.p2align 4,,10
	.p2align 3
.L267:
	movl	$-1, %eax
	lock xaddl	%eax, 8(%r12)
	jmp	.L268
	.p2align 4,,10
	.p2align 3
.L256:
	movl	$-1, %eax
	lock xaddl	%eax, 12(%r12)
	jmp	.L257
	.p2align 4,,10
	.p2align 3
.L277:
	movl	$-1, %eax
	lock xaddl	%eax, 12(%r12)
	jmp	.L278
	.p2align 4,,10
	.p2align 3
.L242:
	movl	$-1, %eax
	lock xaddl	%eax, 12(%r12)
	jmp	.L243
	.p2align 4,,10
	.p2align 3
.L263:
	movl	$-1, %eax
	lock xaddl	%eax, 12(%r12)
	jmp	.L264
	.p2align 4,,10
	.p2align 3
.L228:
	movl	$-1, %eax
	lock xaddl	%eax, 12(%r12)
	jmp	.L229
	.p2align 4,,10
	.p2align 3
.L235:
	movl	$-1, %eax
	lock xaddl	%eax, 12(%r12)
	jmp	.L236
	.p2align 4,,10
	.p2align 3
.L270:
	movl	$-1, %eax
	lock xaddl	%eax, 12(%r12)
	jmp	.L271
	.p2align 4,,10
	.p2align 3
.L249:
	movl	$-1, %eax
	lock xaddl	%eax, 12(%r12)
	jmp	.L250
	.cfi_endproc
.LFE10707:
	.size	_ZThn40_N8asiodnp311LinkSessionD1Ev, .-_ZThn40_N8asiodnp311LinkSessionD1Ev
	.p2align 4
	.weak	_ZThn8_N8asiodnp311LinkSessionD1Ev
	.type	_ZThn8_N8asiodnp311LinkSessionD1Ev, @function
_ZThn8_N8asiodnp311LinkSessionD1Ev:
.LFB10709:
	.cfi_startproc
	endbr64
	movq	_ZTVN8asiodnp311LinkSessionE@GOTPCREL(%rip), %rax
	pushq	%r12
	.cfi_def_cfa_offset 16
	.cfi_offset 12, -16
	pushq	%rbp
	.cfi_def_cfa_offset 24
	.cfi_offset 6, -24
	leaq	96(%rax), %rdx
	leaq	16(%rax), %rcx
	pushq	%rbx
	.cfi_def_cfa_offset 32
	.cfi_offset 3, -32
	movq	592(%rdi), %r12
	movq	%rdx, %xmm1
	movq	%rcx, %xmm0
	leaq	144(%rax), %rdx
	movq	%rdi, %rbx
	punpcklqdq	%xmm1, %xmm0
	movq	%rdx, 8(%rdi)
	leaq	224(%rax), %rdx
	addq	$184, %rax
	movups	%xmm0, -8(%rdi)
	movq	%rdx, %xmm2
	movq	%rax, %xmm0
	punpcklqdq	%xmm2, %xmm0
	movups	%xmm0, 32(%rdi)
	testq	%r12, %r12
	je	.L296
	movq	__libc_single_threaded@GOTPCREL(%rip), %rbp
	cmpb	$0, 0(%rbp)
	je	.L297
	movl	8(%r12), %eax
	leal	-1(%rax), %edx
	movl	%edx, 8(%r12)
.L298:
	cmpl	$1, %eax
	je	.L357
.L296:
	leaq	560(%rbx), %rdi
	call	_ZN7openpal8TimerRefD1Ev@PLT
	movq	168(%rbx), %r12
	testq	%r12, %r12
	je	.L303
	movq	__libc_single_threaded@GOTPCREL(%rip), %rbp
	cmpb	$0, 0(%rbp)
	je	.L304
	movl	8(%r12), %eax
	leal	-1(%rax), %edx
	movl	%edx, 8(%r12)
.L305:
	cmpl	$1, %eax
	je	.L358
.L303:
	movq	152(%rbx), %r12
	testq	%r12, %r12
	je	.L310
	movq	__libc_single_threaded@GOTPCREL(%rip), %rbp
	cmpb	$0, 0(%rbp)
	je	.L311
	movl	8(%r12), %eax
	leal	-1(%rax), %edx
	movl	%edx, 8(%r12)
.L312:
	cmpl	$1, %eax
	je	.L359
.L310:
	movq	136(%rbx), %r12
	testq	%r12, %r12
	je	.L317
	movq	__libc_single_threaded@GOTPCREL(%rip), %rbp
	cmpb	$0, 0(%rbp)
	je	.L318
	movl	8(%r12), %eax
	leal	-1(%rax), %edx
	movl	%edx, 8(%r12)
.L319:
	cmpl	$1, %eax
	je	.L360
.L317:
	movq	120(%rbx), %r12
	testq	%r12, %r12
	je	.L324
	movq	__libc_single_threaded@GOTPCREL(%rip), %rbp
	cmpb	$0, 0(%rbp)
	je	.L325
	movl	8(%r12), %eax
	leal	-1(%rax), %edx
	movl	%edx, 8(%r12)
.L326:
	cmpl	$1, %eax
	je	.L361
.L324:
	movq	104(%rbx), %r12
	testq	%r12, %r12
	je	.L331
	movq	__libc_single_threaded@GOTPCREL(%rip), %rbp
	cmpb	$0, 0(%rbp)
	je	.L332
	movl	8(%r12), %eax
	leal	-1(%rax), %edx
	movl	%edx, 8(%r12)
.L333:
	cmpl	$1, %eax
	je	.L362
.L331:
	movq	80(%rbx), %r12
	testq	%r12, %r12
	je	.L338
	movq	__libc_single_threaded@GOTPCREL(%rip), %rbp
	cmpb	$0, 0(%rbp)
	je	.L339
	movl	8(%r12), %eax
	leal	-1(%rax), %edx
	movl	%edx, 8(%r12)
.L340:
	cmpl	$1, %eax
	je	.L363
.L338:
	movq	64(%rbx), %r12
	testq	%r12, %r12
	je	.L345
	movq	__libc_single_threaded@GOTPCREL(%rip), %rbp
	cmpb	$0, 0(%rbp)
	je	.L346
	movl	8(%r12), %eax
	leal	-1(%rax), %edx
	movl	%edx, 8(%r12)
.L347:
	cmpl	$1, %eax
	je	.L364
.L345:
	movq	24(%rbx), %rdi
	testq	%rdi, %rdi
	je	.L294
	movq	__libc_single_threaded@GOTPCREL(%rip), %rax
	cmpb	$0, (%rax)
	je	.L353
	movl	12(%rdi), %eax
	leal	-1(%rax), %edx
	movl	%edx, 12(%rdi)
.L354:
	cmpl	$1, %eax
	je	.L365
.L294:
	popq	%rbx
	.cfi_remember_state
	.cfi_def_cfa_offset 24
	popq	%rbp
	.cfi_def_cfa_offset 16
	popq	%r12
	.cfi_def_cfa_offset 8
	ret
	.p2align 4,,10
	.p2align 3
.L357:
	.cfi_restore_state
	movq	(%r12), %rax
	movq	%r12, %rdi
	call	*16(%rax)
	cmpb	$0, 0(%rbp)
	je	.L300
	movl	12(%r12), %eax
	leal	-1(%rax), %edx
	movl	%edx, 12(%r12)
.L301:
	cmpl	$1, %eax
	jne	.L296
	movq	(%r12), %rax
	movq	%r12, %rdi
	call	*24(%rax)
	jmp	.L296
	.p2align 4,,10
	.p2align 3
.L358:
	movq	(%r12), %rax
	movq	%r12, %rdi
	call	*16(%rax)
	cmpb	$0, 0(%rbp)
	je	.L307
	movl	12(%r12), %eax
	leal	-1(%rax), %edx
	movl	%edx, 12(%r12)
.L308:
	cmpl	$1, %eax
	jne	.L303
	movq	(%r12), %rax
	movq	%r12, %rdi
	call	*24(%rax)
	jmp	.L303
	.p2align 4,,10
	.p2align 3
.L359:
	movq	(%r12), %rax
	movq	%r12, %rdi
	call	*16(%rax)
	cmpb	$0, 0(%rbp)
	je	.L314
	movl	12(%r12), %eax
	leal	-1(%rax), %edx
	movl	%edx, 12(%r12)
.L315:
	cmpl	$1, %eax
	jne	.L310
	movq	(%r12), %rax
	movq	%r12, %rdi
	call	*24(%rax)
	jmp	.L310
	.p2align 4,,10
	.p2align 3
.L363:
	movq	(%r12), %rax
	movq	%r12, %rdi
	call	*16(%rax)
	cmpb	$0, 0(%rbp)
	je	.L342
	movl	12(%r12), %eax
	leal	-1(%rax), %edx
	movl	%edx, 12(%r12)
.L343:
	cmpl	$1, %eax
	jne	.L338
	movq	(%r12), %rax
	movq	%r12, %rdi
	call	*24(%rax)
	jmp	.L338
	.p2align 4,,10
	.p2align 3
.L361:
	movq	(%r12), %rax
	movq	%r12, %rdi
	call	*16(%rax)
	cmpb	$0, 0(%rbp)
	je	.L328
	movl	12(%r12), %eax
	leal	-1(%rax), %edx
	movl	%edx, 12(%r12)
.L329:
	cmpl	$1, %eax
	jne	.L324
	movq	(%r12), %rax
	movq	%r12, %rdi
	call	*24(%rax)
	jmp	.L324
	.p2align 4,,10
	.p2align 3
.L365:
	movq	(%rdi), %rax
	popq	%rbx
	.cfi_remember_state
	.cfi_def_cfa_offset 24
	popq	%rbp
	.cfi_def_cfa_offset 16
	popq	%r12
	.cfi_def_cfa_offset 8
	movq	24(%rax), %rax
	jmp	*%rax
	.p2align 4,,10
	.p2align 3
.L360:
	.cfi_restore_state
	movq	(%r12), %rax
	movq	%r12, %rdi
	call	*16(%rax)
	cmpb	$0, 0(%rbp)
	je	.L321
	movl	12(%r12), %eax
	leal	-1(%rax), %edx
	movl	%edx, 12(%r12)
.L322:
	cmpl	$1, %eax
	jne	.L317
	movq	(%r12), %rax
	movq	%r12, %rdi
	call	*24(%rax)
	jmp	.L317
	.p2align 4,,10
	.p2align 3
.L362:
	movq	(%r12), %rax
	movq	%r12, %rdi
	call	*16(%rax)
	cmpb	$0, 0(%rbp)
	je	.L335
	movl	12(%r12), %eax
	leal	-1(%rax), %edx
	movl	%edx, 12(%r12)
.L336:
	cmpl	$1, %eax
	jne	.L331
	movq	(%r12), %rax
	movq	%r12, %rdi
	call	*24(%rax)
	jmp	.L331
	.p2align 4,,10
	.p2align 3
.L364:
	movq	(%r12), %rax
	movq	%r12, %rdi
	call	*16(%rax)
	cmpb	$0, 0(%rbp)
	je	.L349
	movl	12(%r12), %eax
	leal	-1(%rax), %edx
	movl	%edx, 12(%r12)
.L350:
	cmpl	$1, %eax
	jne	.L345
	movq	(%r12), %rax
	movq	%r12, %rdi
	call	*24(%rax)
	jmp	.L345
	.p2align 4,,10
	.p2align 3
.L332:
	movl	$-1, %eax
	lock xaddl	%eax, 8(%r12)
	jmp	.L333
	.p2align 4,,10
	.p2align 3
.L325:
	movl	$-1, %eax
	lock xaddl	%eax, 8(%r12)
	jmp	.L326
	.p2align 4,,10
	.p2align 3
.L304:
	movl	$-1, %eax
	lock xaddl	%eax, 8(%r12)
	jmp	.L305
	.p2align 4,,10
	.p2align 3
.L311:
	movl	$-1, %eax
	lock xaddl	%eax, 8(%r12)
	jmp	.L312
	.p2align 4,,10
	.p2align 3
.L318:
	movl	$-1, %eax
	lock xaddl	%eax, 8(%r12)
	jmp	.L319
	.p2align 4,,10
	.p2align 3
.L353:
	movl	$-1, %eax
	lock xaddl	%eax, 12(%rdi)
	jmp	.L354
	.p2align 4,,10
	.p2align 3
.L346:
	movl	$-1, %eax
	lock xaddl	%eax, 8(%r12)
	jmp	.L347
	.p2align 4,,10
	.p2align 3
.L297:
	movl	$-1, %eax
	lock xaddl	%eax, 8(%r12)
	jmp	.L298
	.p2align 4,,10
	.p2align 3
.L339:
	movl	$-1, %eax
	lock xaddl	%eax, 8(%r12)
	jmp	.L340
	.p2align 4,,10
	.p2align 3
.L328:
	movl	$-1, %eax
	lock xaddl	%eax, 12(%r12)
	jmp	.L329
	.p2align 4,,10
	.p2align 3
.L349:
	movl	$-1, %eax
	lock xaddl	%eax, 12(%r12)
	jmp	.L350
	.p2align 4,,10
	.p2align 3
.L314:
	movl	$-1, %eax
	lock xaddl	%eax, 12(%r12)
	jmp	.L315
	.p2align 4,,10
	.p2align 3
.L335:
	movl	$-1, %eax
	lock xaddl	%eax, 12(%r12)
	jmp	.L336
	.p2align 4,,10
	.p2align 3
.L300:
	movl	$-1, %eax
	lock xaddl	%eax, 12(%r12)
	jmp	.L301
	.p2align 4,,10
	.p2align 3
.L307:
	movl	$-1, %eax
	lock xaddl	%eax, 12(%r12)
	jmp	.L308
	.p2align 4,,10
	.p2align 3
.L342:
	movl	$-1, %eax
	lock xaddl	%eax, 12(%r12)
	jmp	.L343
	.p2align 4,,10
	.p2align 3
.L321:
	movl	$-1, %eax
	lock xaddl	%eax, 12(%r12)
	jmp	.L322
	.cfi_endproc
.LFE10709:
	.size	_ZThn8_N8asiodnp311LinkSessionD1Ev, .-_ZThn8_N8asiodnp311LinkSessionD1Ev
	.section	.text._ZN8asiodnp311LinkSessionD0Ev,"axG",@progbits,_ZN8asiodnp311LinkSessionD5Ev,comdat
	.p2align 4
	.weak	_ZThn16_N8asiodnp311LinkSessionD0Ev
	.type	_ZThn16_N8asiodnp311LinkSessionD0Ev, @function
_ZThn16_N8asiodnp311LinkSessionD0Ev:
.LFB10699:
	.cfi_startproc
	endbr64
	pushq	%r13
	.cfi_def_cfa_offset 16
	.cfi_offset 13, -16
	leaq	-16(%rdi), %r13
	pushq	%r12
	.cfi_def_cfa_offset 24
	.cfi_offset 12, -24
	pushq	%rbp
	.cfi_def_cfa_offset 32
	.cfi_offset 6, -32
	pushq	%rbx
	.cfi_def_cfa_offset 40
	.cfi_offset 3, -40
	movq	%rdi, %rbx
	subq	$8, %rsp
	.cfi_def_cfa_offset 48
	movq	_ZTVN8asiodnp311LinkSessionE@GOTPCREL(%rip), %rax
	movq	584(%rdi), %r12
	leaq	96(%rax), %rdx
	leaq	16(%rax), %rcx
	movq	%rdx, %xmm1
	movq	%rcx, %xmm0
	leaq	144(%rax), %rdx
	punpcklqdq	%xmm1, %xmm0
	movq	%rdx, (%rdi)
	leaq	224(%rax), %rdx
	addq	$184, %rax
	movups	%xmm0, -16(%rdi)
	movq	%rdx, %xmm2
	movq	%rax, %xmm0
	punpcklqdq	%xmm2, %xmm0
	movups	%xmm0, 24(%rdi)
	testq	%r12, %r12
	je	.L368
	movq	__libc_single_threaded@GOTPCREL(%rip), %rbp
	cmpb	$0, 0(%rbp)
	je	.L369
	movl	8(%r12), %eax
	leal	-1(%rax), %edx
	movl	%edx, 8(%r12)
.L370:
	cmpl	$1, %eax
	je	.L429
.L368:
	leaq	552(%rbx), %rdi
	call	_ZN7openpal8TimerRefD1Ev@PLT
	movq	160(%rbx), %r12
	testq	%r12, %r12
	je	.L375
	movq	__libc_single_threaded@GOTPCREL(%rip), %rbp
	cmpb	$0, 0(%rbp)
	je	.L376
	movl	8(%r12), %eax
	leal	-1(%rax), %edx
	movl	%edx, 8(%r12)
.L377:
	cmpl	$1, %eax
	je	.L430
.L375:
	movq	144(%rbx), %r12
	testq	%r12, %r12
	je	.L382
	movq	__libc_single_threaded@GOTPCREL(%rip), %rbp
	cmpb	$0, 0(%rbp)
	je	.L383
	movl	8(%r12), %eax
	leal	-1(%rax), %edx
	movl	%edx, 8(%r12)
.L384:
	cmpl	$1, %eax
	je	.L431
.L382:
	movq	128(%rbx), %r12
	testq	%r12, %r12
	je	.L389
	movq	__libc_single_threaded@GOTPCREL(%rip), %rbp
	cmpb	$0, 0(%rbp)
	je	.L390
	movl	8(%r12), %eax
	leal	-1(%rax), %edx
	movl	%edx, 8(%r12)
.L391:
	cmpl	$1, %eax
	je	.L432
.L389:
	movq	112(%rbx), %r12
	testq	%r12, %r12
	je	.L396
	movq	__libc_single_threaded@GOTPCREL(%rip), %rbp
	cmpb	$0, 0(%rbp)
	je	.L397
	movl	8(%r12), %eax
	leal	-1(%rax), %edx
	movl	%edx, 8(%r12)
.L398:
	cmpl	$1, %eax
	je	.L433
.L396:
	movq	96(%rbx), %r12
	testq	%r12, %r12
	je	.L403
	movq	__libc_single_threaded@GOTPCREL(%rip), %rbp
	cmpb	$0, 0(%rbp)
	je	.L404
	movl	8(%r12), %eax
	leal	-1(%rax), %edx
	movl	%edx, 8(%r12)
.L405:
	cmpl	$1, %eax
	je	.L434
.L403:
	movq	72(%rbx), %r12
	testq	%r12, %r12
	je	.L410
	movq	__libc_single_threaded@GOTPCREL(%rip), %rbp
	cmpb	$0, 0(%rbp)
	je	.L411
	movl	8(%r12), %eax
	leal	-1(%rax), %edx
	movl	%edx, 8(%r12)
.L412:
	cmpl	$1, %eax
	je	.L435
.L410:
	movq	56(%rbx), %r12
	testq	%r12, %r12
	je	.L417
	movq	__libc_single_threaded@GOTPCREL(%rip), %rbp
	cmpb	$0, 0(%rbp)
	je	.L418
	movl	8(%r12), %eax
	leal	-1(%rax), %edx
	movl	%edx, 8(%r12)
.L419:
	cmpl	$1, %eax
	je	.L436
.L417:
	movq	16(%rbx), %rdi
	testq	%rdi, %rdi
	je	.L424
	movq	__libc_single_threaded@GOTPCREL(%rip), %rax
	cmpb	$0, (%rax)
	je	.L425
	movl	12(%rdi), %eax
	leal	-1(%rax), %edx
	movl	%edx, 12(%rdi)
.L426:
	cmpl	$1, %eax
	je	.L437
.L424:
	addq	$8, %rsp
	.cfi_remember_state
	.cfi_def_cfa_offset 40
	movq	%r13, %rdi
	movl	$608, %esi
	popq	%rbx
	.cfi_def_cfa_offset 32
	popq	%rbp
	.cfi_def_cfa_offset 24
	popq	%r12
	.cfi_def_cfa_offset 16
	popq	%r13
	.cfi_def_cfa_offset 8
	jmp	_ZdlPvm@PLT
	.p2align 4,,10
	.p2align 3
.L429:
	.cfi_restore_state
	movq	(%r12), %rax
	movq	%r12, %rdi
	call	*16(%rax)
	cmpb	$0, 0(%rbp)
	je	.L372
	movl	12(%r12), %eax
	leal	-1(%rax), %edx
	movl	%edx, 12(%r12)
.L373:
	cmpl	$1, %eax
	jne	.L368
	movq	(%r12), %rax
	movq	%r12, %rdi
	call	*24(%rax)
	jmp	.L368
	.p2align 4,,10
	.p2align 3
.L430:
	movq	(%r12), %rax
	movq	%r12, %rdi
	call	*16(%rax)
	cmpb	$0, 0(%rbp)
	je	.L379
	movl	12(%r12), %eax
	leal	-1(%rax), %edx
	movl	%edx, 12(%r12)
.L380:
	cmpl	$1, %eax
	jne	.L375
	movq	(%r12), %rax
	movq	%r12, %rdi
	call	*24(%rax)
	jmp	.L375
	.p2align 4,,10
	.p2align 3
.L431:
	movq	(%r12), %rax
	movq	%r12, %rdi
	call	*16(%rax)
	cmpb	$0, 0(%rbp)
	je	.L386
	movl	12(%r12), %eax
	leal	-1(%rax), %edx
	movl	%edx, 12(%r12)
.L387:
	cmpl	$1, %eax
	jne	.L382
	movq	(%r12), %rax
	movq	%r12, %rdi
	call	*24(%rax)
	jmp	.L382
	.p2align 4,,10
	.p2align 3
.L435:
	movq	(%r12), %rax
	movq	%r12, %rdi
	call	*16(%rax)
	cmpb	$0, 0(%rbp)
	je	.L414
	movl	12(%r12), %eax
	leal	-1(%rax), %edx
	movl	%edx, 12(%r12)
.L415:
	cmpl	$1, %eax
	jne	.L410
	movq	(%r12), %rax
	movq	%r12, %rdi
	call	*24(%rax)
	jmp	.L410
	.p2align 4,,10
	.p2align 3
.L433:
	movq	(%r12), %rax
	movq	%r12, %rdi
	call	*16(%rax)
	cmpb	$0, 0(%rbp)
	je	.L400
	movl	12(%r12), %eax
	leal	-1(%rax), %edx
	movl	%edx, 12(%r12)
.L401:
	cmpl	$1, %eax
	jne	.L396
	movq	(%r12), %rax
	movq	%r12, %rdi
	call	*24(%rax)
	jmp	.L396
	.p2align 4,,10
	.p2align 3
.L437:
	movq	(%rdi), %rax
	call	*24(%rax)
	jmp	.L424
	.p2align 4,,10
	.p2align 3
.L432:
	movq	(%r12), %rax
	movq	%r12, %rdi
	call	*16(%rax)
	cmpb	$0, 0(%rbp)
	je	.L393
	movl	12(%r12), %eax
	leal	-1(%rax), %edx
	movl	%edx, 12(%r12)
.L394:
	cmpl	$1, %eax
	jne	.L389
	movq	(%r12), %rax
	movq	%r12, %rdi
	call	*24(%rax)
	jmp	.L389
	.p2align 4,,10
	.p2align 3
.L434:
	movq	(%r12), %rax
	movq	%r12, %rdi
	call	*16(%rax)
	cmpb	$0, 0(%rbp)
	je	.L407
	movl	12(%r12), %eax
	leal	-1(%rax), %edx
	movl	%edx, 12(%r12)
.L408:
	cmpl	$1, %eax
	jne	.L403
	movq	(%r12), %rax
	movq	%r12, %rdi
	call	*24(%rax)
	jmp	.L403
	.p2align 4,,10
	.p2align 3
.L436:
	movq	(%r12), %rax
	movq	%r12, %rdi
	call	*16(%rax)
	cmpb	$0, 0(%rbp)
	je	.L421
	movl	12(%r12), %eax
	leal	-1(%rax), %edx
	movl	%edx, 12(%r12)
.L422:
	cmpl	$1, %eax
	jne	.L417
	movq	(%r12), %rax
	movq	%r12, %rdi
	call	*24(%rax)
	jmp	.L417
	.p2align 4,,10
	.p2align 3
.L404:
	movl	$-1, %eax
	lock xaddl	%eax, 8(%r12)
	jmp	.L405
	.p2align 4,,10
	.p2align 3
.L397:
	movl	$-1, %eax
	lock xaddl	%eax, 8(%r12)
	jmp	.L398
	.p2align 4,,10
	.p2align 3
.L376:
	movl	$-1, %eax
	lock xaddl	%eax, 8(%r12)
	jmp	.L377
	.p2align 4,,10
	.p2align 3
.L383:
	movl	$-1, %eax
	lock xaddl	%eax, 8(%r12)
	jmp	.L384
	.p2align 4,,10
	.p2align 3
.L390:
	movl	$-1, %eax
	lock xaddl	%eax, 8(%r12)
	jmp	.L391
	.p2align 4,,10
	.p2align 3
.L425:
	movl	$-1, %eax
	lock xaddl	%eax, 12(%rdi)
	jmp	.L426
	.p2align 4,,10
	.p2align 3
.L418:
	movl	$-1, %eax
	lock xaddl	%eax, 8(%r12)
	jmp	.L419
	.p2align 4,,10
	.p2align 3
.L369:
	movl	$-1, %eax
	lock xaddl	%eax, 8(%r12)
	jmp	.L370
	.p2align 4,,10
	.p2align 3
.L411:
	movl	$-1, %eax
	lock xaddl	%eax, 8(%r12)
	jmp	.L412
	.p2align 4,,10
	.p2align 3
.L400:
	movl	$-1, %eax
	lock xaddl	%eax, 12(%r12)
	jmp	.L401
	.p2align 4,,10
	.p2align 3
.L421:
	movl	$-1, %eax
	lock xaddl	%eax, 12(%r12)
	jmp	.L422
	.p2align 4,,10
	.p2align 3
.L386:
	movl	$-1, %eax
	lock xaddl	%eax, 12(%r12)
	jmp	.L387
	.p2align 4,,10
	.p2align 3
.L407:
	movl	$-1, %eax
	lock xaddl	%eax, 12(%r12)
	jmp	.L408
	.p2align 4,,10
	.p2align 3
.L372:
	movl	$-1, %eax
	lock xaddl	%eax, 12(%r12)
	jmp	.L373
	.p2align 4,,10
	.p2align 3
.L379:
	movl	$-1, %eax
	lock xaddl	%eax, 12(%r12)
	jmp	.L380
	.p2align 4,,10
	.p2align 3
.L414:
	movl	$-1, %eax
	lock xaddl	%eax, 12(%r12)
	jmp	.L415
	.p2align 4,,10
	.p2align 3
.L393:
	movl	$-1, %eax
	lock xaddl	%eax, 12(%r12)
	jmp	.L394
	.cfi_endproc
.LFE10699:
	.size	_ZThn16_N8asiodnp311LinkSessionD0Ev, .-_ZThn16_N8asiodnp311LinkSessionD0Ev
	.p2align 4
	.weak	_ZThn8_N8asiodnp311LinkSessionD0Ev
	.type	_ZThn8_N8asiodnp311LinkSessionD0Ev, @function
_ZThn8_N8asiodnp311LinkSessionD0Ev:
.LFB10700:
	.cfi_startproc
	endbr64
	pushq	%r13
	.cfi_def_cfa_offset 16
	.cfi_offset 13, -16
	leaq	-8(%rdi), %r13
	pushq	%r12
	.cfi_def_cfa_offset 24
	.cfi_offset 12, -24
	pushq	%rbp
	.cfi_def_cfa_offset 32
	.cfi_offset 6, -32
	pushq	%rbx
	.cfi_def_cfa_offset 40
	.cfi_offset 3, -40
	movq	%rdi, %rbx
	subq	$8, %rsp
	.cfi_def_cfa_offset 48
	movq	_ZTVN8asiodnp311LinkSessionE@GOTPCREL(%rip), %rax
	movq	592(%rdi), %r12
	leaq	96(%rax), %rdx
	leaq	16(%rax), %rcx
	movq	%rdx, %xmm1
	movq	%rcx, %xmm0
	leaq	144(%rax), %rdx
	punpcklqdq	%xmm1, %xmm0
	movq	%rdx, 8(%rdi)
	leaq	224(%rax), %rdx
	addq	$184, %rax
	movups	%xmm0, -8(%rdi)
	movq	%rdx, %xmm2
	movq	%rax, %xmm0
	punpcklqdq	%xmm2, %xmm0
	movups	%xmm0, 32(%rdi)
	testq	%r12, %r12
	je	.L440
	movq	__libc_single_threaded@GOTPCREL(%rip), %rbp
	cmpb	$0, 0(%rbp)
	je	.L441
	movl	8(%r12), %eax
	leal	-1(%rax), %edx
	movl	%edx, 8(%r12)
.L442:
	cmpl	$1, %eax
	je	.L501
.L440:
	leaq	560(%rbx), %rdi
	call	_ZN7openpal8TimerRefD1Ev@PLT
	movq	168(%rbx), %r12
	testq	%r12, %r12
	je	.L447
	movq	__libc_single_threaded@GOTPCREL(%rip), %rbp
	cmpb	$0, 0(%rbp)
	je	.L448
	movl	8(%r12), %eax
	leal	-1(%rax), %edx
	movl	%edx, 8(%r12)
.L449:
	cmpl	$1, %eax
	je	.L502
.L447:
	movq	152(%rbx), %r12
	testq	%r12, %r12
	je	.L454
	movq	__libc_single_threaded@GOTPCREL(%rip), %rbp
	cmpb	$0, 0(%rbp)
	je	.L455
	movl	8(%r12), %eax
	leal	-1(%rax), %edx
	movl	%edx, 8(%r12)
.L456:
	cmpl	$1, %eax
	je	.L503
.L454:
	movq	136(%rbx), %r12
	testq	%r12, %r12
	je	.L461
	movq	__libc_single_threaded@GOTPCREL(%rip), %rbp
	cmpb	$0, 0(%rbp)
	je	.L462
	movl	8(%r12), %eax
	leal	-1(%rax), %edx
	movl	%edx, 8(%r12)
.L463:
	cmpl	$1, %eax
	je	.L504
.L461:
	movq	120(%rbx), %r12
	testq	%r12, %r12
	je	.L468
	movq	__libc_single_threaded@GOTPCREL(%rip), %rbp
	cmpb	$0, 0(%rbp)
	je	.L469
	movl	8(%r12), %eax
	leal	-1(%rax), %edx
	movl	%edx, 8(%r12)
.L470:
	cmpl	$1, %eax
	je	.L505
.L468:
	movq	104(%rbx), %r12
	testq	%r12, %r12
	je	.L475
	movq	__libc_single_threaded@GOTPCREL(%rip), %rbp
	cmpb	$0, 0(%rbp)
	je	.L476
	movl	8(%r12), %eax
	leal	-1(%rax), %edx
	movl	%edx, 8(%r12)
.L477:
	cmpl	$1, %eax
	je	.L506
.L475:
	movq	80(%rbx), %r12
	testq	%r12, %r12
	je	.L482
	movq	__libc_single_threaded@GOTPCREL(%rip), %rbp
	cmpb	$0, 0(%rbp)
	je	.L483
	movl	8(%r12), %eax
	leal	-1(%rax), %edx
	movl	%edx, 8(%r12)
.L484:
	cmpl	$1, %eax
	je	.L507
.L482:
	movq	64(%rbx), %r12
	testq	%r12, %r12
	je	.L489
	movq	__libc_single_threaded@GOTPCREL(%rip), %rbp
	cmpb	$0, 0(%rbp)
	je	.L490
	movl	8(%r12), %eax
	leal	-1(%rax), %edx
	movl	%edx, 8(%r12)
.L491:
	cmpl	$1, %eax
	je	.L508
.L489:
	movq	24(%rbx), %rdi
	testq	%rdi, %rdi
	je	.L496
	movq	__libc_single_threaded@GOTPCREL(%rip), %rax
	cmpb	$0, (%rax)
	je	.L497
	movl	12(%rdi), %eax
	leal	-1(%rax), %edx
	movl	%edx, 12(%rdi)
.L498:
	cmpl	$1, %eax
	je	.L509
.L496:
	addq	$8, %rsp
	.cfi_remember_state
	.cfi_def_cfa_offset 40
	movq	%r13, %rdi
	movl	$608, %esi
	popq	%rbx
	.cfi_def_cfa_offset 32
	popq	%rbp
	.cfi_def_cfa_offset 24
	popq	%r12
	.cfi_def_cfa_offset 16
	popq	%r13
	.cfi_def_cfa_offset 8
	jmp	_ZdlPvm@PLT
	.p2align 4,,10
	.p2align 3
.L501:
	.cfi_restore_state
	movq	(%r12), %rax
	movq	%r12, %rdi
	call	*16(%rax)
	cmpb	$0, 0(%rbp)
	je	.L444
	movl	12(%r12), %eax
	leal	-1(%rax), %edx
	movl	%edx, 12(%r12)
.L445:
	cmpl	$1, %eax
	jne	.L440
	movq	(%r12), %rax
	movq	%r12, %rdi
	call	*24(%rax)
	jmp	.L440
	.p2align 4,,10
	.p2align 3
.L502:
	movq	(%r12), %rax
	movq	%r12, %rdi
	call	*16(%rax)
	cmpb	$0, 0(%rbp)
	je	.L451
	movl	12(%r12), %eax
	leal	-1(%rax), %edx
	movl	%edx, 12(%r12)
.L452:
	cmpl	$1, %eax
	jne	.L447
	movq	(%r12), %rax
	movq	%r12, %rdi
	call	*24(%rax)
	jmp	.L447
	.p2align 4,,10
	.p2align 3
.L503:
	movq	(%r12), %rax
	movq	%r12, %rdi
	call	*16(%rax)
	cmpb	$0, 0(%rbp)
	je	.L458
	movl	12(%r12), %eax
	leal	-1(%rax), %edx
	movl	%edx, 12(%r12)
.L459:
	cmpl	$1, %eax
	jne	.L454
	movq	(%r12), %rax
	movq	%r12, %rdi
	call	*24(%rax)
	jmp	.L454
	.p2align 4,,10
	.p2align 3
.L507:
	movq	(%r12), %rax
	movq	%r12, %rdi
	call	*16(%rax)
	cmpb	$0, 0(%rbp)
	je	.L486
	movl	12(%r12), %eax
	leal	-1(%rax), %edx
	movl	%edx, 12(%r12)
.L487:
	cmpl	$1, %eax
	jne	.L482
	movq	(%r12), %rax
	movq	%r12, %rdi
	call	*24(%rax)
	jmp	.L482
	.p2align 4,,10
	.p2align 3
.L505:
	movq	(%r12), %rax
	movq	%r12, %rdi
	call	*16(%rax)
	cmpb	$0, 0(%rbp)
	je	.L472
	movl	12(%r12), %eax
	leal	-1(%rax), %edx
	movl	%edx, 12(%r12)
.L473:
	cmpl	$1, %eax
	jne	.L468
	movq	(%r12), %rax
	movq	%r12, %rdi
	call	*24(%rax)
	jmp	.L468
	.p2align 4,,10
	.p2align 3
.L509:
	movq	(%rdi), %rax
	call	*24(%rax)
	jmp	.L496
	.p2align 4,,10
	.p2align 3
.L504:
	movq	(%r12), %rax
	movq	%r12, %rdi
	call	*16(%rax)
	cmpb	$0, 0(%rbp)
	je	.L465
	movl	12(%r12), %eax
	leal	-1(%rax), %edx
	movl	%edx, 12(%r12)
.L466:
	cmpl	$1, %eax
	jne	.L461
	movq	(%r12), %rax
	movq	%r12, %rdi
	call	*24(%rax)
	jmp	.L461
	.p2align 4,,10
	.p2align 3
.L506:
	movq	(%r12), %rax
	movq	%r12, %rdi
	call	*16(%rax)
	cmpb	$0, 0(%rbp)
	je	.L479
	movl	12(%r12), %eax
	leal	-1(%rax), %edx
	movl	%edx, 12(%r12)
.L480:
	cmpl	$1, %eax
	jne	.L475
	movq	(%r12), %rax
	movq	%r12, %rdi
	call	*24(%rax)
	jmp	.L475
	.p2align 4,,10
	.p2align 3
.L508:
	movq	(%r12), %rax
	movq	%r12, %rdi
	call	*16(%rax)
	cmpb	$0, 0(%rbp)
	je	.L493
	movl	12(%r12), %eax
	leal	-1(%rax), %edx
	movl	%edx, 12(%r12)
.L494:
	cmpl	$1, %eax
	jne	.L489
	movq	(%r12), %rax
	movq	%r12, %rdi
	call	*24(%rax)
	jmp	.L489
	.p2align 4,,10
	.p2align 3
.L476:
	movl	$-1, %eax
	lock xaddl	%eax, 8(%r12)
	jmp	.L477
	.p2align 4,,10
	.p2align 3
.L469:
	movl	$-1, %eax
	lock xaddl	%eax, 8(%r12)
	jmp	.L470
	.p2align 4,,10
	.p2align 3
.L448:
	movl	$-1, %eax
	lock xaddl	%eax, 8(%r12)
	jmp	.L449
	.p2align 4,,10
	.p2align 3
.L455:
	movl	$-1, %eax
	lock xaddl	%eax, 8(%r12)
	jmp	.L456
	.p2align 4,,10
	.p2align 3
.L462:
	movl	$-1, %eax
	lock xaddl	%eax, 8(%r12)
	jmp	.L463
	.p2align 4,,10
	.p2align 3
.L497:
	movl	$-1, %eax
	lock xaddl	%eax, 12(%rdi)
	jmp	.L498
	.p2align 4,,10
	.p2align 3
.L490:
	movl	$-1, %eax
	lock xaddl	%eax, 8(%r12)
	jmp	.L491
	.p2align 4,,10
	.p2align 3
.L441:
	movl	$-1, %eax
	lock xaddl	%eax, 8(%r12)
	jmp	.L442
	.p2align 4,,10
	.p2align 3
.L483:
	movl	$-1, %eax
	lock xaddl	%eax, 8(%r12)
	jmp	.L484
	.p2align 4,,10
	.p2align 3
.L472:
	movl	$-1, %eax
	lock xaddl	%eax, 12(%r12)
	jmp	.L473
	.p2align 4,,10
	.p2align 3
.L493:
	movl	$-1, %eax
	lock xaddl	%eax, 12(%r12)
	jmp	.L494
	.p2align 4,,10
	.p2align 3
.L458:
	movl	$-1, %eax
	lock xaddl	%eax, 12(%r12)
	jmp	.L459
	.p2align 4,,10
	.p2align 3
.L479:
	movl	$-1, %eax
	lock xaddl	%eax, 12(%r12)
	jmp	.L480
	.p2align 4,,10
	.p2align 3
.L444:
	movl	$-1, %eax
	lock xaddl	%eax, 12(%r12)
	jmp	.L445
	.p2align 4,,10
	.p2align 3
.L451:
	movl	$-1, %eax
	lock xaddl	%eax, 12(%r12)
	jmp	.L452
	.p2align 4,,10
	.p2align 3
.L486:
	movl	$-1, %eax
	lock xaddl	%eax, 12(%r12)
	jmp	.L487
	.p2align 4,,10
	.p2align 3
.L465:
	movl	$-1, %eax
	lock xaddl	%eax, 12(%r12)
	jmp	.L466
	.cfi_endproc
.LFE10700:
	.size	_ZThn8_N8asiodnp311LinkSessionD0Ev, .-_ZThn8_N8asiodnp311LinkSessionD0Ev
	.p2align 4
	.weak	_ZThn40_N8asiodnp311LinkSessionD0Ev
	.type	_ZThn40_N8asiodnp311LinkSessionD0Ev, @function
_ZThn40_N8asiodnp311LinkSessionD0Ev:
.LFB10702:
	.cfi_startproc
	endbr64
	pushq	%r13
	.cfi_def_cfa_offset 16
	.cfi_offset 13, -16
	leaq	-40(%rdi), %r13
	pushq	%r12
	.cfi_def_cfa_offset 24
	.cfi_offset 12, -24
	pushq	%rbp
	.cfi_def_cfa_offset 32
	.cfi_offset 6, -32
	pushq	%rbx
	.cfi_def_cfa_offset 40
	.cfi_offset 3, -40
	movq	%rdi, %rbx
	subq	$8, %rsp
	.cfi_def_cfa_offset 48
	movq	_ZTVN8asiodnp311LinkSessionE@GOTPCREL(%rip), %rax
	movq	560(%rdi), %r12
	leaq	96(%rax), %rdx
	leaq	16(%rax), %rcx
	movq	%rdx, %xmm1
	movq	%rcx, %xmm0
	leaq	144(%rax), %rdx
	punpcklqdq	%xmm1, %xmm0
	movq	%rdx, -24(%rdi)
	leaq	224(%rax), %rdx
	addq	$184, %rax
	movups	%xmm0, -40(%rdi)
	movq	%rdx, %xmm2
	movq	%rax, %xmm0
	punpcklqdq	%xmm2, %xmm0
	movups	%xmm0, (%rdi)
	testq	%r12, %r12
	je	.L512
	movq	__libc_single_threaded@GOTPCREL(%rip), %rbp
	cmpb	$0, 0(%rbp)
	je	.L513
	movl	8(%r12), %eax
	leal	-1(%rax), %edx
	movl	%edx, 8(%r12)
.L514:
	cmpl	$1, %eax
	je	.L573
.L512:
	leaq	528(%rbx), %rdi
	call	_ZN7openpal8TimerRefD1Ev@PLT
	movq	136(%rbx), %r12
	testq	%r12, %r12
	je	.L519
	movq	__libc_single_threaded@GOTPCREL(%rip), %rbp
	cmpb	$0, 0(%rbp)
	je	.L520
	movl	8(%r12), %eax
	leal	-1(%rax), %edx
	movl	%edx, 8(%r12)
.L521:
	cmpl	$1, %eax
	je	.L574
.L519:
	movq	120(%rbx), %r12
	testq	%r12, %r12
	je	.L526
	movq	__libc_single_threaded@GOTPCREL(%rip), %rbp
	cmpb	$0, 0(%rbp)
	je	.L527
	movl	8(%r12), %eax
	leal	-1(%rax), %edx
	movl	%edx, 8(%r12)
.L528:
	cmpl	$1, %eax
	je	.L575
.L526:
	movq	104(%rbx), %r12
	testq	%r12, %r12
	je	.L533
	movq	__libc_single_threaded@GOTPCREL(%rip), %rbp
	cmpb	$0, 0(%rbp)
	je	.L534
	movl	8(%r12), %eax
	leal	-1(%rax), %edx
	movl	%edx, 8(%r12)
.L535:
	cmpl	$1, %eax
	je	.L576
.L533:
	movq	88(%rbx), %r12
	testq	%r12, %r12
	je	.L540
	movq	__libc_single_threaded@GOTPCREL(%rip), %rbp
	cmpb	$0, 0(%rbp)
	je	.L541
	movl	8(%r12), %eax
	leal	-1(%rax), %edx
	movl	%edx, 8(%r12)
.L542:
	cmpl	$1, %eax
	je	.L577
.L540:
	movq	72(%rbx), %r12
	testq	%r12, %r12
	je	.L547
	movq	__libc_single_threaded@GOTPCREL(%rip), %rbp
	cmpb	$0, 0(%rbp)
	je	.L548
	movl	8(%r12), %eax
	leal	-1(%rax), %edx
	movl	%edx, 8(%r12)
.L549:
	cmpl	$1, %eax
	je	.L578
.L547:
	movq	48(%rbx), %r12
	testq	%r12, %r12
	je	.L554
	movq	__libc_single_threaded@GOTPCREL(%rip), %rbp
	cmpb	$0, 0(%rbp)
	je	.L555
	movl	8(%r12), %eax
	leal	-1(%rax), %edx
	movl	%edx, 8(%r12)
.L556:
	cmpl	$1, %eax
	je	.L579
.L554:
	movq	32(%rbx), %r12
	testq	%r12, %r12
	je	.L561
	movq	__libc_single_threaded@GOTPCREL(%rip), %rbp
	cmpb	$0, 0(%rbp)
	je	.L562
	movl	8(%r12), %eax
	leal	-1(%rax), %edx
	movl	%edx, 8(%r12)
.L563:
	cmpl	$1, %eax
	je	.L580
.L561:
	movq	-8(%rbx), %rdi
	testq	%rdi, %rdi
	je	.L568
	movq	__libc_single_threaded@GOTPCREL(%rip), %rax
	cmpb	$0, (%rax)
	je	.L569
	movl	12(%rdi), %eax
	leal	-1(%rax), %edx
	movl	%edx, 12(%rdi)
.L570:
	cmpl	$1, %eax
	je	.L581
.L568:
	addq	$8, %rsp
	.cfi_remember_state
	.cfi_def_cfa_offset 40
	movq	%r13, %rdi
	movl	$608, %esi
	popq	%rbx
	.cfi_def_cfa_offset 32
	popq	%rbp
	.cfi_def_cfa_offset 24
	popq	%r12
	.cfi_def_cfa_offset 16
	popq	%r13
	.cfi_def_cfa_offset 8
	jmp	_ZdlPvm@PLT
	.p2align 4,,10
	.p2align 3
.L573:
	.cfi_restore_state
	movq	(%r12), %rax
	movq	%r12, %rdi
	call	*16(%rax)
	cmpb	$0, 0(%rbp)
	je	.L516
	movl	12(%r12), %eax
	leal	-1(%rax), %edx
	movl	%edx, 12(%r12)
.L517:
	cmpl	$1, %eax
	jne	.L512
	movq	(%r12), %rax
	movq	%r12, %rdi
	call	*24(%rax)
	jmp	.L512
	.p2align 4,,10
	.p2align 3
.L574:
	movq	(%r12), %rax
	movq	%r12, %rdi
	call	*16(%rax)
	cmpb	$0, 0(%rbp)
	je	.L523
	movl	12(%r12), %eax
	leal	-1(%rax), %edx
	movl	%edx, 12(%r12)
.L524:
	cmpl	$1, %eax
	jne	.L519
	movq	(%r12), %rax
	movq	%r12, %rdi
	call	*24(%rax)
	jmp	.L519
	.p2align 4,,10
	.p2align 3
.L575:
	movq	(%r12), %rax
	movq	%r12, %rdi
	call	*16(%rax)
	cmpb	$0, 0(%rbp)
	je	.L530
	movl	12(%r12), %eax
	leal	-1(%rax), %edx
	movl	%edx, 12(%r12)
.L531:
	cmpl	$1, %eax
	jne	.L526
	movq	(%r12), %rax
	movq	%r12, %rdi
	call	*24(%rax)
	jmp	.L526
	.p2align 4,,10
	.p2align 3
.L579:
	movq	(%r12), %rax
	movq	%r12, %rdi
	call	*16(%rax)
	cmpb	$0, 0(%rbp)
	je	.L558
	movl	12(%r12), %eax
	leal	-1(%rax), %edx
	movl	%edx, 12(%r12)
.L559:
	cmpl	$1, %eax
	jne	.L554
	movq	(%r12), %rax
	movq	%r12, %rdi
	call	*24(%rax)
	jmp	.L554
	.p2align 4,,10
	.p2align 3
.L577:
	movq	(%r12), %rax
	movq	%r12, %rdi
	call	*16(%rax)
	cmpb	$0, 0(%rbp)
	je	.L544
	movl	12(%r12), %eax
	leal	-1(%rax), %edx
	movl	%edx, 12(%r12)
.L545:
	cmpl	$1, %eax
	jne	.L540
	movq	(%r12), %rax
	movq	%r12, %rdi
	call	*24(%rax)
	jmp	.L540
	.p2align 4,,10
	.p2align 3
.L581:
	movq	(%rdi), %rax
	call	*24(%rax)
	jmp	.L568
	.p2align 4,,10
	.p2align 3
.L576:
	movq	(%r12), %rax
	movq	%r12, %rdi
	call	*16(%rax)
	cmpb	$0, 0(%rbp)
	je	.L537
	movl	12(%r12), %eax
	leal	-1(%rax), %edx
	movl	%edx, 12(%r12)
.L538:
	cmpl	$1, %eax
	jne	.L533
	movq	(%r12), %rax
	movq	%r12, %rdi
	call	*24(%rax)
	jmp	.L533
	.p2align 4,,10
	.p2align 3
.L578:
	movq	(%r12), %rax
	movq	%r12, %rdi
	call	*16(%rax)
	cmpb	$0, 0(%rbp)
	je	.L551
	movl	12(%r12), %eax
	leal	-1(%rax), %edx
	movl	%edx, 12(%r12)
.L552:
	cmpl	$1, %eax
	jne	.L547
	movq	(%r12), %rax
	movq	%r12, %rdi
	call	*24(%rax)
	jmp	.L547
	.p2align 4,,10
	.p2align 3
.L580:
	movq	(%r12), %rax
	movq	%r12, %rdi
	call	*16(%rax)
	cmpb	$0, 0(%rbp)
	je	.L565
	movl	12(%r12), %eax
	leal	-1(%rax), %edx
	movl	%edx, 12(%r12)
.L566:
	cmpl	$1, %eax
	jne	.L561
	movq	(%r12), %rax
	movq	%r12, %rdi
	call	*24(%rax)
	jmp	.L561
	.p2align 4,,10
	.p2align 3
.L548:
	movl	$-1, %eax
	lock xaddl	%eax, 8(%r12)
	jmp	.L549
	.p2align 4,,10
	.p2align 3
.L541:
	movl	$-1, %eax
	lock xaddl	%eax, 8(%r12)
	jmp	.L542
	.p2align 4,,10
	.p2align 3
.L520:
	movl	$-1, %eax
	lock xaddl	%eax, 8(%r12)
	jmp	.L521
	.p2align 4,,10
	.p2align 3
.L527:
	movl	$-1, %eax
	lock xaddl	%eax, 8(%r12)
	jmp	.L528
	.p2align 4,,10
	.p2align 3
.L534:
	movl	$-1, %eax
	lock xaddl	%eax, 8(%r12)
	jmp	.L535
	.p2align 4,,10
	.p2align 3
.L569:
	movl	$-1, %eax
	lock xaddl	%eax, 12(%rdi)
	jmp	.L570
	.p2align 4,,10
	.p2align 3
.L562:
	movl	$-1, %eax
	lock xaddl	%eax, 8(%r12)
	jmp	.L563
	.p2align 4,,10
	.p2align 3
.L513:
	movl	$-1, %eax
	lock xaddl	%eax, 8(%r12)
	jmp	.L514
	.p2align 4,,10
	.p2align 3
.L555:
	movl	$-1, %eax
	lock xaddl	%eax, 8(%r12)
	jmp	.L556
	.p2align 4,,10
	.p2align 3
.L544:
	movl	$-1, %eax
	lock xaddl	%eax, 12(%r12)
	jmp	.L545
	.p2align 4,,10
	.p2align 3
.L565:
	movl	$-1, %eax
	lock xaddl	%eax, 12(%r12)
	jmp	.L566
	.p2align 4,,10
	.p2align 3
.L530:
	movl	$-1, %eax
	lock xaddl	%eax, 12(%r12)
	jmp	.L531
	.p2align 4,,10
	.p2align 3
.L551:
	movl	$-1, %eax
	lock xaddl	%eax, 12(%r12)
	jmp	.L552
	.p2align 4,,10
	.p2align 3
.L516:
	movl	$-1, %eax
	lock xaddl	%eax, 12(%r12)
	jmp	.L517
	.p2align 4,,10
	.p2align 3
.L523:
	movl	$-1, %eax
	lock xaddl	%eax, 12(%r12)
	jmp	.L524
	.p2align 4,,10
	.p2align 3
.L558:
	movl	$-1, %eax
	lock xaddl	%eax, 12(%r12)
	jmp	.L559
	.p2align 4,,10
	.p2align 3
.L537:
	movl	$-1, %eax
	lock xaddl	%eax, 12(%r12)
	jmp	.L538
	.cfi_endproc
.LFE10702:
	.size	_ZThn40_N8asiodnp311LinkSessionD0Ev, .-_ZThn40_N8asiodnp311LinkSessionD0Ev
	.p2align 4
	.weak	_ZThn48_N8asiodnp311LinkSessionD0Ev
	.type	_ZThn48_N8asiodnp311LinkSessionD0Ev, @function
_ZThn48_N8asiodnp311LinkSessionD0Ev:
.LFB10701:
	.cfi_startproc
	endbr64
	pushq	%r13
	.cfi_def_cfa_offset 16
	.cfi_offset 13, -16
	leaq	-48(%rdi), %r13
	pushq	%r12
	.cfi_def_cfa_offset 24
	.cfi_offset 12, -24
	pushq	%rbp
	.cfi_def_cfa_offset 32
	.cfi_offset 6, -32
	pushq	%rbx
	.cfi_def_cfa_offset 40
	.cfi_offset 3, -40
	movq	%rdi, %rbx
	subq	$8, %rsp
	.cfi_def_cfa_offset 48
	movq	_ZTVN8asiodnp311LinkSessionE@GOTPCREL(%rip), %rax
	movq	552(%rdi), %r12
	leaq	96(%rax), %rdx
	leaq	16(%rax), %rcx
	movq	%rdx, %xmm1
	movq	%rcx, %xmm0
	leaq	144(%rax), %rdx
	punpcklqdq	%xmm1, %xmm0
	movq	%rdx, -32(%rdi)
	leaq	224(%rax), %rdx
	addq	$184, %rax
	movups	%xmm0, -48(%rdi)
	movq	%rdx, %xmm2
	movq	%rax, %xmm0
	punpcklqdq	%xmm2, %xmm0
	movups	%xmm0, -8(%rdi)
	testq	%r12, %r12
	je	.L584
	movq	__libc_single_threaded@GOTPCREL(%rip), %rbp
	cmpb	$0, 0(%rbp)
	je	.L585
	movl	8(%r12), %eax
	leal	-1(%rax), %edx
	movl	%edx, 8(%r12)
.L586:
	cmpl	$1, %eax
	je	.L645
.L584:
	leaq	520(%rbx), %rdi
	call	_ZN7openpal8TimerRefD1Ev@PLT
	movq	128(%rbx), %r12
	testq	%r12, %r12
	je	.L591
	movq	__libc_single_threaded@GOTPCREL(%rip), %rbp
	cmpb	$0, 0(%rbp)
	je	.L592
	movl	8(%r12), %eax
	leal	-1(%rax), %edx
	movl	%edx, 8(%r12)
.L593:
	cmpl	$1, %eax
	je	.L646
.L591:
	movq	112(%rbx), %r12
	testq	%r12, %r12
	je	.L598
	movq	__libc_single_threaded@GOTPCREL(%rip), %rbp
	cmpb	$0, 0(%rbp)
	je	.L599
	movl	8(%r12), %eax
	leal	-1(%rax), %edx
	movl	%edx, 8(%r12)
.L600:
	cmpl	$1, %eax
	je	.L647
.L598:
	movq	96(%rbx), %r12
	testq	%r12, %r12
	je	.L605
	movq	__libc_single_threaded@GOTPCREL(%rip), %rbp
	cmpb	$0, 0(%rbp)
	je	.L606
	movl	8(%r12), %eax
	leal	-1(%rax), %edx
	movl	%edx, 8(%r12)
.L607:
	cmpl	$1, %eax
	je	.L648
.L605:
	movq	80(%rbx), %r12
	testq	%r12, %r12
	je	.L612
	movq	__libc_single_threaded@GOTPCREL(%rip), %rbp
	cmpb	$0, 0(%rbp)
	je	.L613
	movl	8(%r12), %eax
	leal	-1(%rax), %edx
	movl	%edx, 8(%r12)
.L614:
	cmpl	$1, %eax
	je	.L649
.L612:
	movq	64(%rbx), %r12
	testq	%r12, %r12
	je	.L619
	movq	__libc_single_threaded@GOTPCREL(%rip), %rbp
	cmpb	$0, 0(%rbp)
	je	.L620
	movl	8(%r12), %eax
	leal	-1(%rax), %edx
	movl	%edx, 8(%r12)
.L621:
	cmpl	$1, %eax
	je	.L650
.L619:
	movq	40(%rbx), %r12
	testq	%r12, %r12
	je	.L626
	movq	__libc_single_threaded@GOTPCREL(%rip), %rbp
	cmpb	$0, 0(%rbp)
	je	.L627
	movl	8(%r12), %eax
	leal	-1(%rax), %edx
	movl	%edx, 8(%r12)
.L628:
	cmpl	$1, %eax
	je	.L651
.L626:
	movq	24(%rbx), %r12
	testq	%r12, %r12
	je	.L633
	movq	__libc_single_threaded@GOTPCREL(%rip), %rbp
	cmpb	$0, 0(%rbp)
	je	.L634
	movl	8(%r12), %eax
	leal	-1(%rax), %edx
	movl	%edx, 8(%r12)
.L635:
	cmpl	$1, %eax
	je	.L652
.L633:
	movq	-16(%rbx), %rdi
	testq	%rdi, %rdi
	je	.L640
	movq	__libc_single_threaded@GOTPCREL(%rip), %rax
	cmpb	$0, (%rax)
	je	.L641
	movl	12(%rdi), %eax
	leal	-1(%rax), %edx
	movl	%edx, 12(%rdi)
.L642:
	cmpl	$1, %eax
	je	.L653
.L640:
	addq	$8, %rsp
	.cfi_remember_state
	.cfi_def_cfa_offset 40
	movq	%r13, %rdi
	movl	$608, %esi
	popq	%rbx
	.cfi_def_cfa_offset 32
	popq	%rbp
	.cfi_def_cfa_offset 24
	popq	%r12
	.cfi_def_cfa_offset 16
	popq	%r13
	.cfi_def_cfa_offset 8
	jmp	_ZdlPvm@PLT
	.p2align 4,,10
	.p2align 3
.L645:
	.cfi_restore_state
	movq	(%r12), %rax
	movq	%r12, %rdi
	call	*16(%rax)
	cmpb	$0, 0(%rbp)
	je	.L588
	movl	12(%r12), %eax
	leal	-1(%rax), %edx
	movl	%edx, 12(%r12)
.L589:
	cmpl	$1, %eax
	jne	.L584
	movq	(%r12), %rax
	movq	%r12, %rdi
	call	*24(%rax)
	jmp	.L584
	.p2align 4,,10
	.p2align 3
.L646:
	movq	(%r12), %rax
	movq	%r12, %rdi
	call	*16(%rax)
	cmpb	$0, 0(%rbp)
	je	.L595
	movl	12(%r12), %eax
	leal	-1(%rax), %edx
	movl	%edx, 12(%r12)
.L596:
	cmpl	$1, %eax
	jne	.L591
	movq	(%r12), %rax
	movq	%r12, %rdi
	call	*24(%rax)
	jmp	.L591
	.p2align 4,,10
	.p2align 3
.L647:
	movq	(%r12), %rax
	movq	%r12, %rdi
	call	*16(%rax)
	cmpb	$0, 0(%rbp)
	je	.L602
	movl	12(%r12), %eax
	leal	-1(%rax), %edx
	movl	%edx, 12(%r12)
.L603:
	cmpl	$1, %eax
	jne	.L598
	movq	(%r12), %rax
	movq	%r12, %rdi
	call	*24(%rax)
	jmp	.L598
	.p2align 4,,10
	.p2align 3
.L651:
	movq	(%r12), %rax
	movq	%r12, %rdi
	call	*16(%rax)
	cmpb	$0, 0(%rbp)
	je	.L630
	movl	12(%r12), %eax
	leal	-1(%rax), %edx
	movl	%edx, 12(%r12)
.L631:
	cmpl	$1, %eax
	jne	.L626
	movq	(%r12), %rax
	movq	%r12, %rdi
	call	*24(%rax)
	jmp	.L626
	.p2align 4,,10
	.p2align 3
.L649:
	movq	(%r12), %rax
	movq	%r12, %rdi
	call	*16(%rax)
	cmpb	$0, 0(%rbp)
	je	.L616
	movl	12(%r12), %eax
	leal	-1(%rax), %edx
	movl	%edx, 12(%r12)
.L617:
	cmpl	$1, %eax
	jne	.L612
	movq	(%r12), %rax
	movq	%r12, %rdi
	call	*24(%rax)
	jmp	.L612
	.p2align 4,,10
	.p2align 3
.L653:
	movq	(%rdi), %rax
	call	*24(%rax)
	jmp	.L640
	.p2align 4,,10
	.p2align 3
.L648:
	movq	(%r12), %rax
	movq	%r12, %rdi
	call	*16(%rax)
	cmpb	$0, 0(%rbp)
	je	.L609
	movl	12(%r12), %eax
	leal	-1(%rax), %edx
	movl	%edx, 12(%r12)
.L610:
	cmpl	$1, %eax
	jne	.L605
	movq	(%r12), %rax
	movq	%r12, %rdi
	call	*24(%rax)
	jmp	.L605
	.p2align 4,,10
	.p2align 3
.L650:
	movq	(%r12), %rax
	movq	%r12, %rdi
	call	*16(%rax)
	cmpb	$0, 0(%rbp)
	je	.L623
	movl	12(%r12), %eax
	leal	-1(%rax), %edx
	movl	%edx, 12(%r12)
.L624:
	cmpl	$1, %eax
	jne	.L619
	movq	(%r12), %rax
	movq	%r12, %rdi
	call	*24(%rax)
	jmp	.L619
	.p2align 4,,10
	.p2align 3
.L652:
	movq	(%r12), %rax
	movq	%r12, %rdi
	call	*16(%rax)
	cmpb	$0, 0(%rbp)
	je	.L637
	movl	12(%r12), %eax
	leal	-1(%rax), %edx
	movl	%edx, 12(%r12)
.L638:
	cmpl	$1, %eax
	jne	.L633
	movq	(%r12), %rax
	movq	%r12, %rdi
	call	*24(%rax)
	jmp	.L633
	.p2align 4,,10
	.p2align 3
.L620:
	movl	$-1, %eax
	lock xaddl	%eax, 8(%r12)
	jmp	.L621
	.p2align 4,,10
	.p2align 3
.L613:
	movl	$-1, %eax
	lock xaddl	%eax, 8(%r12)
	jmp	.L614
	.p2align 4,,10
	.p2align 3
.L592:
	movl	$-1, %eax
	lock xaddl	%eax, 8(%r12)
	jmp	.L593
	.p2align 4,,10
	.p2align 3
.L599:
	movl	$-1, %eax
	lock xaddl	%eax, 8(%r12)
	jmp	.L600
	.p2align 4,,10
	.p2align 3
.L606:
	movl	$-1, %eax
	lock xaddl	%eax, 8(%r12)
	jmp	.L607
	.p2align 4,,10
	.p2align 3
.L641:
	movl	$-1, %eax
	lock xaddl	%eax, 12(%rdi)
	jmp	.L642
	.p2align 4,,10
	.p2align 3
.L634:
	movl	$-1, %eax
	lock xaddl	%eax, 8(%r12)
	jmp	.L635
	.p2align 4,,10
	.p2align 3
.L585:
	movl	$-1, %eax
	lock xaddl	%eax, 8(%r12)
	jmp	.L586
	.p2align 4,,10
	.p2align 3
.L627:
	movl	$-1, %eax
	lock xaddl	%eax, 8(%r12)
	jmp	.L628
	.p2align 4,,10
	.p2align 3
.L616:
	movl	$-1, %eax
	lock xaddl	%eax, 12(%r12)
	jmp	.L617
	.p2align 4,,10
	.p2align 3
.L637:
	movl	$-1, %eax
	lock xaddl	%eax, 12(%r12)
	jmp	.L638
	.p2align 4,,10
	.p2align 3
.L602:
	movl	$-1, %eax
	lock xaddl	%eax, 12(%r12)
	jmp	.L603
	.p2align 4,,10
	.p2align 3
.L623:
	movl	$-1, %eax
	lock xaddl	%eax, 12(%r12)
	jmp	.L624
	.p2align 4,,10
	.p2align 3
.L588:
	movl	$-1, %eax
	lock xaddl	%eax, 12(%r12)
	jmp	.L589
	.p2align 4,,10
	.p2align 3
.L595:
	movl	$-1, %eax
	lock xaddl	%eax, 12(%r12)
	jmp	.L596
	.p2align 4,,10
	.p2align 3
.L630:
	movl	$-1, %eax
	lock xaddl	%eax, 12(%r12)
	jmp	.L631
	.p2align 4,,10
	.p2align 3
.L609:
	movl	$-1, %eax
	lock xaddl	%eax, 12(%r12)
	jmp	.L610
	.cfi_endproc
.LFE10701:
	.size	_ZThn48_N8asiodnp311LinkSessionD0Ev, .-_ZThn48_N8asiodnp311LinkSessionD0Ev
	.align 2
	.p2align 4
	.weak	_ZN8asiodnp311LinkSessionD0Ev
	.type	_ZN8asiodnp311LinkSessionD0Ev, @function
_ZN8asiodnp311LinkSessionD0Ev:
.LFB10485:
	.cfi_startproc
	endbr64
	movq	_ZTVN8asiodnp311LinkSessionE@GOTPCREL(%rip), %rax
	pushq	%r12
	.cfi_def_cfa_offset 16
	.cfi_offset 12, -16
	pushq	%rbp
	.cfi_def_cfa_offset 24
	.cfi_offset 6, -24
	movq	%rdi, %rbp
	leaq	96(%rax), %rdx
	leaq	16(%rax), %rcx
	pushq	%rbx
	.cfi_def_cfa_offset 32
	.cfi_offset 3, -32
	movq	600(%rdi), %r12
	movq	%rdx, %xmm1
	movq	%rcx, %xmm0
	leaq	144(%rax), %rdx
	punpcklqdq	%xmm1, %xmm0
	movq	%rdx, 16(%rdi)
	leaq	224(%rax), %rdx
	addq	$184, %rax
	movups	%xmm0, (%rdi)
	movq	%rdx, %xmm2
	movq	%rax, %xmm0
	punpcklqdq	%xmm2, %xmm0
	movups	%xmm0, 40(%rdi)
	testq	%r12, %r12
	je	.L656
	movq	__libc_single_threaded@GOTPCREL(%rip), %rbx
	cmpb	$0, (%rbx)
	je	.L657
	movl	8(%r12), %eax
	leal	-1(%rax), %edx
	movl	%edx, 8(%r12)
.L658:
	cmpl	$1, %eax
	je	.L717
.L656:
	leaq	568(%rbp), %rdi
	call	_ZN7openpal8TimerRefD1Ev@PLT
	movq	176(%rbp), %r12
	testq	%r12, %r12
	je	.L663
	movq	__libc_single_threaded@GOTPCREL(%rip), %rbx
	cmpb	$0, (%rbx)
	je	.L664
	movl	8(%r12), %eax
	leal	-1(%rax), %edx
	movl	%edx, 8(%r12)
.L665:
	cmpl	$1, %eax
	je	.L718
.L663:
	movq	160(%rbp), %r12
	testq	%r12, %r12
	je	.L670
	movq	__libc_single_threaded@GOTPCREL(%rip), %rbx
	cmpb	$0, (%rbx)
	je	.L671
	movl	8(%r12), %eax
	leal	-1(%rax), %edx
	movl	%edx, 8(%r12)
.L672:
	cmpl	$1, %eax
	je	.L719
.L670:
	movq	144(%rbp), %r12
	testq	%r12, %r12
	je	.L677
	movq	__libc_single_threaded@GOTPCREL(%rip), %rbx
	cmpb	$0, (%rbx)
	je	.L678
	movl	8(%r12), %eax
	leal	-1(%rax), %edx
	movl	%edx, 8(%r12)
.L679:
	cmpl	$1, %eax
	je	.L720
.L677:
	movq	128(%rbp), %r12
	testq	%r12, %r12
	je	.L684
	movq	__libc_single_threaded@GOTPCREL(%rip), %rbx
	cmpb	$0, (%rbx)
	je	.L685
	movl	8(%r12), %eax
	leal	-1(%rax), %edx
	movl	%edx, 8(%r12)
.L686:
	cmpl	$1, %eax
	je	.L721
.L684:
	movq	112(%rbp), %r12
	testq	%r12, %r12
	je	.L691
	movq	__libc_single_threaded@GOTPCREL(%rip), %rbx
	cmpb	$0, (%rbx)
	je	.L692
	movl	8(%r12), %eax
	leal	-1(%rax), %edx
	movl	%edx, 8(%r12)
.L693:
	cmpl	$1, %eax
	je	.L722
.L691:
	movq	88(%rbp), %r12
	testq	%r12, %r12
	je	.L698
	movq	__libc_single_threaded@GOTPCREL(%rip), %rbx
	cmpb	$0, (%rbx)
	je	.L699
	movl	8(%r12), %eax
	leal	-1(%rax), %edx
	movl	%edx, 8(%r12)
.L700:
	cmpl	$1, %eax
	je	.L723
.L698:
	movq	72(%rbp), %r12
	testq	%r12, %r12
	je	.L705
	movq	__libc_single_threaded@GOTPCREL(%rip), %rbx
	cmpb	$0, (%rbx)
	je	.L706
	movl	8(%r12), %eax
	leal	-1(%rax), %edx
	movl	%edx, 8(%r12)
.L707:
	cmpl	$1, %eax
	je	.L724
.L705:
	movq	32(%rbp), %rdi
	testq	%rdi, %rdi
	je	.L712
	movq	__libc_single_threaded@GOTPCREL(%rip), %rax
	cmpb	$0, (%rax)
	je	.L713
	movl	12(%rdi), %eax
	leal	-1(%rax), %edx
	movl	%edx, 12(%rdi)
.L714:
	cmpl	$1, %eax
	je	.L725
.L712:
	popq	%rbx
	.cfi_remember_state
	.cfi_def_cfa_offset 24
	movq	%rbp, %rdi
	movl	$608, %esi
	popq	%rbp
	.cfi_def_cfa_offset 16
	popq	%r12
	.cfi_def_cfa_offset 8
	jmp	_ZdlPvm@PLT
	.p2align 4,,10
	.p2align 3
.L717:
	.cfi_restore_state
	movq	(%r12), %rax
	movq	%r12, %rdi
	call	*16(%rax)
	cmpb	$0, (%rbx)
	je	.L660
	movl	12(%r12), %eax
	leal	-1(%rax), %edx
	movl	%edx, 12(%r12)
.L661:
	cmpl	$1, %eax
	jne	.L656
	movq	(%r12), %rax
	movq	%r12, %rdi
	call	*24(%rax)
	jmp	.L656
	.p2align 4,,10
	.p2align 3
.L718:
	movq	(%r12), %rax
	movq	%r12, %rdi
	call	*16(%rax)
	cmpb	$0, (%rbx)
	je	.L667
	movl	12(%r12), %eax
	leal	-1(%rax), %edx
	movl	%edx, 12(%r12)
.L668:
	cmpl	$1, %eax
	jne	.L663
	movq	(%r12), %rax
	movq	%r12, %rdi
	call	*24(%rax)
	jmp	.L663
	.p2align 4,,10
	.p2align 3
.L719:
	movq	(%r12), %rax
	movq	%r12, %rdi
	call	*16(%rax)
	cmpb	$0, (%rbx)
	je	.L674
	movl	12(%r12), %eax
	leal	-1(%rax), %edx
	movl	%edx, 12(%r12)
.L675:
	cmpl	$1, %eax
	jne	.L670
	movq	(%r12), %rax
	movq	%r12, %rdi
	call	*24(%rax)
	jmp	.L670
	.p2align 4,,10
	.p2align 3
.L723:
	movq	(%r12), %rax
	movq	%r12, %rdi
	call	*16(%rax)
	cmpb	$0, (%rbx)
	je	.L702
	movl	12(%r12), %eax
	leal	-1(%rax), %edx
	movl	%edx, 12(%r12)
.L703:
	cmpl	$1, %eax
	jne	.L698
	movq	(%r12), %rax
	movq	%r12, %rdi
	call	*24(%rax)
	jmp	.L698
	.p2align 4,,10
	.p2align 3
.L721:
	movq	(%r12), %rax
	movq	%r12, %rdi
	call	*16(%rax)
	cmpb	$0, (%rbx)
	je	.L688
	movl	12(%r12), %eax
	leal	-1(%rax), %edx
	movl	%edx, 12(%r12)
.L689:
	cmpl	$1, %eax
	jne	.L684
	movq	(%r12), %rax
	movq	%r12, %rdi
	call	*24(%rax)
	jmp	.L684
	.p2align 4,,10
	.p2align 3
.L725:
	movq	(%rdi), %rax
	call	*24(%rax)
	jmp	.L712
	.p2align 4,,10
	.p2align 3
.L720:
	movq	(%r12), %rax
	movq	%r12, %rdi
	call	*16(%rax)
	cmpb	$0, (%rbx)
	je	.L681
	movl	12(%r12), %eax
	leal	-1(%rax), %edx
	movl	%edx, 12(%r12)
.L682:
	cmpl	$1, %eax
	jne	.L677
	movq	(%r12), %rax
	movq	%r12, %rdi
	call	*24(%rax)
	jmp	.L677
	.p2align 4,,10
	.p2align 3
.L722:
	movq	(%r12), %rax
	movq	%r12, %rdi
	call	*16(%rax)
	cmpb	$0, (%rbx)
	je	.L695
	movl	12(%r12), %eax
	leal	-1(%rax), %edx
	movl	%edx, 12(%r12)
.L696:
	cmpl	$1, %eax
	jne	.L691
	movq	(%r12), %rax
	movq	%r12, %rdi
	call	*24(%rax)
	jmp	.L691
	.p2align 4,,10
	.p2align 3
.L724:
	movq	(%r12), %rax
	movq	%r12, %rdi
	call	*16(%rax)
	cmpb	$0, (%rbx)
	je	.L709
	movl	12(%r12), %eax
	leal	-1(%rax), %edx
	movl	%edx, 12(%r12)
.L710:
	cmpl	$1, %eax
	jne	.L705
	movq	(%r12), %rax
	movq	%r12, %rdi
	call	*24(%rax)
	jmp	.L705
	.p2align 4,,10
	.p2align 3
.L692:
	movl	$-1, %eax
	lock xaddl	%eax, 8(%r12)
	jmp	.L693
	.p2align 4,,10
	.p2align 3
.L685:
	movl	$-1, %eax
	lock xaddl	%eax, 8(%r12)
	jmp	.L686
	.p2align 4,,10
	.p2align 3
.L664:
	movl	$-1, %eax
	lock xaddl	%eax, 8(%r12)
	jmp	.L665
	.p2align 4,,10
	.p2align 3
.L671:
	movl	$-1, %eax
	lock xaddl	%eax, 8(%r12)
	jmp	.L672
	.p2align 4,,10
	.p2align 3
.L678:
	movl	$-1, %eax
	lock xaddl	%eax, 8(%r12)
	jmp	.L679
	.p2align 4,,10
	.p2align 3
.L713:
	movl	$-1, %eax
	lock xaddl	%eax, 12(%rdi)
	jmp	.L714
	.p2align 4,,10
	.p2align 3
.L706:
	movl	$-1, %eax
	lock xaddl	%eax, 8(%r12)
	jmp	.L707
	.p2align 4,,10
	.p2align 3
.L657:
	movl	$-1, %eax
	lock xaddl	%eax, 8(%r12)
	jmp	.L658
	.p2align 4,,10
	.p2align 3
.L699:
	movl	$-1, %eax
	lock xaddl	%eax, 8(%r12)
	jmp	.L700
	.p2align 4,,10
	.p2align 3
.L688:
	movl	$-1, %eax
	lock xaddl	%eax, 12(%r12)
	jmp	.L689
	.p2align 4,,10
	.p2align 3
.L709:
	movl	$-1, %eax
	lock xaddl	%eax, 12(%r12)
	jmp	.L710
	.p2align 4,,10
	.p2align 3
.L674:
	movl	$-1, %eax
	lock xaddl	%eax, 12(%r12)
	jmp	.L675
	.p2align 4,,10
	.p2align 3
.L695:
	movl	$-1, %eax
	lock xaddl	%eax, 12(%r12)
	jmp	.L696
	.p2align 4,,10
	.p2align 3
.L660:
	movl	$-1, %eax
	lock xaddl	%eax, 12(%r12)
	jmp	.L661
	.p2align 4,,10
	.p2align 3
.L667:
	movl	$-1, %eax
	lock xaddl	%eax, 12(%r12)
	jmp	.L668
	.p2align 4,,10
	.p2align 3
.L702:
	movl	$-1, %eax
	lock xaddl	%eax, 12(%r12)
	jmp	.L703
	.p2align 4,,10
	.p2align 3
.L681:
	movl	$-1, %eax
	lock xaddl	%eax, 12(%r12)
	jmp	.L682
	.cfi_endproc
.LFE10485:
	.size	_ZN8asiodnp311LinkSessionD0Ev, .-_ZN8asiodnp311LinkSessionD0Ev
	.section	.text._ZN8asiodnp311LinkSessionD2Ev,"axG",@progbits,_ZN8asiodnp311LinkSessionD5Ev,comdat
	.align 2
	.p2align 4
	.weak	_ZN8asiodnp311LinkSessionD2Ev
	.type	_ZN8asiodnp311LinkSessionD2Ev, @function
_ZN8asiodnp311LinkSessionD2Ev:
.LFB10483:
	.cfi_startproc
	endbr64
	movq	_ZTVN8asiodnp311LinkSessionE@GOTPCREL(%rip), %rax
	pushq	%r12
	.cfi_def_cfa_offset 16
	.cfi_offset 12, -16
	pushq	%rbp
	.cfi_def_cfa_offset 24
	.cfi_offset 6, -24
	leaq	96(%rax), %rdx
	leaq	16(%rax), %rcx
	pushq	%rbx
	.cfi_def_cfa_offset 32
	.cfi_offset 3, -32
	movq	600(%rdi), %r12
	movq	%rdx, %xmm1
	movq	%rcx, %xmm0
	leaq	144(%rax), %rdx
	movq	%rdi, %rbx
	punpcklqdq	%xmm1, %xmm0
	movq	%rdx, 16(%rdi)
	leaq	224(%rax), %rdx
	addq	$184, %rax
	movups	%xmm0, (%rdi)
	movq	%rdx, %xmm2
	movq	%rax, %xmm0
	punpcklqdq	%xmm2, %xmm0
	movups	%xmm0, 40(%rdi)
	testq	%r12, %r12
	je	.L728
	movq	__libc_single_threaded@GOTPCREL(%rip), %rbp
	cmpb	$0, 0(%rbp)
	je	.L729
	movl	8(%r12), %eax
	leal	-1(%rax), %edx
	movl	%edx, 8(%r12)
.L730:
	cmpl	$1, %eax
	je	.L789
.L728:
	leaq	568(%rbx), %rdi
	call	_ZN7openpal8TimerRefD1Ev@PLT
	movq	176(%rbx), %r12
	testq	%r12, %r12
	je	.L735
	movq	__libc_single_threaded@GOTPCREL(%rip), %rbp
	cmpb	$0, 0(%rbp)
	je	.L736
	movl	8(%r12), %eax
	leal	-1(%rax), %edx
	movl	%edx, 8(%r12)
.L737:
	cmpl	$1, %eax
	je	.L790
.L735:
	movq	160(%rbx), %r12
	testq	%r12, %r12
	je	.L742
	movq	__libc_single_threaded@GOTPCREL(%rip), %rbp
	cmpb	$0, 0(%rbp)
	je	.L743
	movl	8(%r12), %eax
	leal	-1(%rax), %edx
	movl	%edx, 8(%r12)
.L744:
	cmpl	$1, %eax
	je	.L791
.L742:
	movq	144(%rbx), %r12
	testq	%r12, %r12
	je	.L749
	movq	__libc_single_threaded@GOTPCREL(%rip), %rbp
	cmpb	$0, 0(%rbp)
	je	.L750
	movl	8(%r12), %eax
	leal	-1(%rax), %edx
	movl	%edx, 8(%r12)
.L751:
	cmpl	$1, %eax
	je	.L792
.L749:
	movq	128(%rbx), %r12
	testq	%r12, %r12
	je	.L756
	movq	__libc_single_threaded@GOTPCREL(%rip), %rbp
	cmpb	$0, 0(%rbp)
	je	.L757
	movl	8(%r12), %eax
	leal	-1(%rax), %edx
	movl	%edx, 8(%r12)
.L758:
	cmpl	$1, %eax
	je	.L793
.L756:
	movq	112(%rbx), %r12
	testq	%r12, %r12
	je	.L763
	movq	__libc_single_threaded@GOTPCREL(%rip), %rbp
	cmpb	$0, 0(%rbp)
	je	.L764
	movl	8(%r12), %eax
	leal	-1(%rax), %edx
	movl	%edx, 8(%r12)
.L765:
	cmpl	$1, %eax
	je	.L794
.L763:
	movq	88(%rbx), %r12
	testq	%r12, %r12
	je	.L770
	movq	__libc_single_threaded@GOTPCREL(%rip), %rbp
	cmpb	$0, 0(%rbp)
	je	.L771
	movl	8(%r12), %eax
	leal	-1(%rax), %edx
	movl	%edx, 8(%r12)
.L772:
	cmpl	$1, %eax
	je	.L795
.L770:
	movq	72(%rbx), %r12
	testq	%r12, %r12
	je	.L777
	movq	__libc_single_threaded@GOTPCREL(%rip), %rbp
	cmpb	$0, 0(%rbp)
	je	.L778
	movl	8(%r12), %eax
	leal	-1(%rax), %edx
	movl	%edx, 8(%r12)
.L779:
	cmpl	$1, %eax
	je	.L796
.L777:
	movq	32(%rbx), %rdi
	testq	%rdi, %rdi
	je	.L726
	movq	__libc_single_threaded@GOTPCREL(%rip), %rax
	cmpb	$0, (%rax)
	je	.L785
	movl	12(%rdi), %eax
	leal	-1(%rax), %edx
	movl	%edx, 12(%rdi)
.L786:
	cmpl	$1, %eax
	je	.L797
.L726:
	popq	%rbx
	.cfi_remember_state
	.cfi_def_cfa_offset 24
	popq	%rbp
	.cfi_def_cfa_offset 16
	popq	%r12
	.cfi_def_cfa_offset 8
	ret
	.p2align 4,,10
	.p2align 3
.L789:
	.cfi_restore_state
	movq	(%r12), %rax
	movq	%r12, %rdi
	call	*16(%rax)
	cmpb	$0, 0(%rbp)
	je	.L732
	movl	12(%r12), %eax
	leal	-1(%rax), %edx
	movl	%edx, 12(%r12)
.L733:
	cmpl	$1, %eax
	jne	.L728
	movq	(%r12), %rax
	movq	%r12, %rdi
	call	*24(%rax)
	jmp	.L728
	.p2align 4,,10
	.p2align 3
.L790:
	movq	(%r12), %rax
	movq	%r12, %rdi
	call	*16(%rax)
	cmpb	$0, 0(%rbp)
	je	.L739
	movl	12(%r12), %eax
	leal	-1(%rax), %edx
	movl	%edx, 12(%r12)
.L740:
	cmpl	$1, %eax
	jne	.L735
	movq	(%r12), %rax
	movq	%r12, %rdi
	call	*24(%rax)
	jmp	.L735
	.p2align 4,,10
	.p2align 3
.L791:
	movq	(%r12), %rax
	movq	%r12, %rdi
	call	*16(%rax)
	cmpb	$0, 0(%rbp)
	je	.L746
	movl	12(%r12), %eax
	leal	-1(%rax), %edx
	movl	%edx, 12(%r12)
.L747:
	cmpl	$1, %eax
	jne	.L742
	movq	(%r12), %rax
	movq	%r12, %rdi
	call	*24(%rax)
	jmp	.L742
	.p2align 4,,10
	.p2align 3
.L795:
	movq	(%r12), %rax
	movq	%r12, %rdi
	call	*16(%rax)
	cmpb	$0, 0(%rbp)
	je	.L774
	movl	12(%r12), %eax
	leal	-1(%rax), %edx
	movl	%edx, 12(%r12)
.L775:
	cmpl	$1, %eax
	jne	.L770
	movq	(%r12), %rax
	movq	%r12, %rdi
	call	*24(%rax)
	jmp	.L770
	.p2align 4,,10
	.p2align 3
.L793:
	movq	(%r12), %rax
	movq	%r12, %rdi
	call	*16(%rax)
	cmpb	$0, 0(%rbp)
	je	.L760
	movl	12(%r12), %eax
	leal	-1(%rax), %edx
	movl	%edx, 12(%r12)
.L761:
	cmpl	$1, %eax
	jne	.L756
	movq	(%r12), %rax
	movq	%r12, %rdi
	call	*24(%rax)
	jmp	.L756
	.p2align 4,,10
	.p2align 3
.L797:
	movq	(%rdi), %rax
	popq	%rbx
	.cfi_remember_state
	.cfi_def_cfa_offset 24
	popq	%rbp
	.cfi_def_cfa_offset 16
	popq	%r12
	.cfi_def_cfa_offset 8
	movq	24(%rax), %rax
	jmp	*%rax
	.p2align 4,,10
	.p2align 3
.L792:
	.cfi_restore_state
	movq	(%r12), %rax
	movq	%r12, %rdi
	call	*16(%rax)
	cmpb	$0, 0(%rbp)
	je	.L753
	movl	12(%r12), %eax
	leal	-1(%rax), %edx
	movl	%edx, 12(%r12)
.L754:
	cmpl	$1, %eax
	jne	.L749
	movq	(%r12), %rax
	movq	%r12, %rdi
	call	*24(%rax)
	jmp	.L749
	.p2align 4,,10
	.p2align 3
.L794:
	movq	(%r12), %rax
	movq	%r12, %rdi
	call	*16(%rax)
	cmpb	$0, 0(%rbp)
	je	.L767
	movl	12(%r12), %eax
	leal	-1(%rax), %edx
	movl	%edx, 12(%r12)
.L768:
	cmpl	$1, %eax
	jne	.L763
	movq	(%r12), %rax
	movq	%r12, %rdi
	call	*24(%rax)
	jmp	.L763
	.p2align 4,,10
	.p2align 3
.L796:
	movq	(%r12), %rax
	movq	%r12, %rdi
	call	*16(%rax)
	cmpb	$0, 0(%rbp)
	je	.L781
	movl	12(%r12), %eax
	leal	-1(%rax), %edx
	movl	%edx, 12(%r12)
.L782:
	cmpl	$1, %eax
	jne	.L777
	movq	(%r12), %rax
	movq	%r12, %rdi
	call	*24(%rax)
	jmp	.L777
	.p2align 4,,10
	.p2align 3
.L764:
	movl	$-1, %eax
	lock xaddl	%eax, 8(%r12)
	jmp	.L765
	.p2align 4,,10
	.p2align 3
.L757:
	movl	$-1, %eax
	lock xaddl	%eax, 8(%r12)
	jmp	.L758
	.p2align 4,,10
	.p2align 3
.L736:
	movl	$-1, %eax
	lock xaddl	%eax, 8(%r12)
	jmp	.L737
	.p2align 4,,10
	.p2align 3
.L743:
	movl	$-1, %eax
	lock xaddl	%eax, 8(%r12)
	jmp	.L744
	.p2align 4,,10
	.p2align 3
.L750:
	movl	$-1, %eax
	lock xaddl	%eax, 8(%r12)
	jmp	.L751
	.p2align 4,,10
	.p2align 3
.L785:
	movl	$-1, %eax
	lock xaddl	%eax, 12(%rdi)
	jmp	.L786
	.p2align 4,,10
	.p2align 3
.L778:
	movl	$-1, %eax
	lock xaddl	%eax, 8(%r12)
	jmp	.L779
	.p2align 4,,10
	.p2align 3
.L729:
	movl	$-1, %eax
	lock xaddl	%eax, 8(%r12)
	jmp	.L730
	.p2align 4,,10
	.p2align 3
.L771:
	movl	$-1, %eax
	lock xaddl	%eax, 8(%r12)
	jmp	.L772
	.p2align 4,,10
	.p2align 3
.L760:
	movl	$-1, %eax
	lock xaddl	%eax, 12(%r12)
	jmp	.L761
	.p2align 4,,10
	.p2align 3
.L781:
	movl	$-1, %eax
	lock xaddl	%eax, 12(%r12)
	jmp	.L782
	.p2align 4,,10
	.p2align 3
.L746:
	movl	$-1, %eax
	lock xaddl	%eax, 12(%r12)
	jmp	.L747
	.p2align 4,,10
	.p2align 3
.L767:
	movl	$-1, %eax
	lock xaddl	%eax, 12(%r12)
	jmp	.L768
	.p2align 4,,10
	.p2align 3
.L732:
	movl	$-1, %eax
	lock xaddl	%eax, 12(%r12)
	jmp	.L733
	.p2align 4,,10
	.p2align 3
.L739:
	movl	$-1, %eax
	lock xaddl	%eax, 12(%r12)
	jmp	.L740
	.p2align 4,,10
	.p2align 3
.L774:
	movl	$-1, %eax
	lock xaddl	%eax, 12(%r12)
	jmp	.L775
	.p2align 4,,10
	.p2align 3
.L753:
	movl	$-1, %eax
	lock xaddl	%eax, 12(%r12)
	jmp	.L754
	.cfi_endproc
.LFE10483:
	.size	_ZN8asiodnp311LinkSessionD2Ev, .-_ZN8asiodnp311LinkSessionD2Ev
	.weak	_ZN8asiodnp311LinkSessionD1Ev
	.set	_ZN8asiodnp311LinkSessionD1Ev,_ZN8asiodnp311LinkSessionD2Ev
	.text
	.p2align 4
	.type	_ZNSt17_Function_handlerIFvvEZN8asiodnp311LinkSession8ShutdownEvEUlvE_E10_M_managerERSt9_Any_dataRKS5_St18_Manager_operation, @function
_ZNSt17_Function_handlerIFvvEZN8asiodnp311LinkSession8ShutdownEvEUlvE_E10_M_managerERSt9_Any_dataRKS5_St18_Manager_operation:
.LFB9382:
	.cfi_startproc
	endbr64
	pushq	%r12
	.cfi_def_cfa_offset 16
	.cfi_offset 12, -16
	pushq	%rbp
	.cfi_def_cfa_offset 24
	.cfi_offset 6, -24
	pushq	%rbx
	.cfi_def_cfa_offset 32
	.cfi_offset 3, -32
	movq	%rdi, %rbx
	testl	%edx, %edx
	je	.L799
	cmpl	$1, %edx
	je	.L800
	cmpl	$2, %edx
	je	.L803
	cmpl	$3, %edx
	jne	.L802
	movq	(%rdi), %rbp
	testq	%rbp, %rbp
	je	.L802
	movq	8(%rbp), %r12
	testq	%r12, %r12
	je	.L808
	movq	__libc_single_threaded@GOTPCREL(%rip), %rbx
	cmpb	$0, (%rbx)
	je	.L809
	movl	8(%r12), %eax
	leal	-1(%rax), %edx
	movl	%edx, 8(%r12)
.L810:
	cmpl	$1, %eax
	je	.L822
.L808:
	movl	$16, %esi
	movq	%rbp, %rdi
	call	_ZdlPvm@PLT
.L802:
	popq	%rbx
	.cfi_remember_state
	.cfi_def_cfa_offset 24
	xorl	%eax, %eax
	popq	%rbp
	.cfi_def_cfa_offset 16
	popq	%r12
	.cfi_def_cfa_offset 8
	ret
	.p2align 4,,10
	.p2align 3
.L799:
	.cfi_restore_state
	leaq	_ZTIZN8asiodnp311LinkSession8ShutdownEvEUlvE_(%rip), %rax
	movq	%rax, (%rdi)
	xorl	%eax, %eax
	popq	%rbx
	.cfi_remember_state
	.cfi_def_cfa_offset 24
	popq	%rbp
	.cfi_def_cfa_offset 16
	popq	%r12
	.cfi_def_cfa_offset 8
	ret
	.p2align 4,,10
	.p2align 3
.L800:
	.cfi_restore_state
	movq	(%rsi), %rax
	movq	%rax, (%rdi)
	xorl	%eax, %eax
	popq	%rbx
	.cfi_remember_state
	.cfi_def_cfa_offset 24
	popq	%rbp
	.cfi_def_cfa_offset 16
	popq	%r12
	.cfi_def_cfa_offset 8
	ret
	.p2align 4,,10
	.p2align 3
.L803:
	.cfi_restore_state
	movq	(%rsi), %rbp
	movl	$16, %edi
	call	_Znwm@PLT
	movdqu	0(%rbp), %xmm0
	movups	%xmm0, (%rax)
	movq	8(%rax), %rdx
	testq	%rdx, %rdx
	je	.L805
	movq	__libc_single_threaded@GOTPCREL(%rip), %rcx
	cmpb	$0, (%rcx)
	je	.L806
	addl	$1, 8(%rdx)
.L805:
	movq	%rax, (%rbx)
	jmp	.L802
	.p2align 4,,10
	.p2align 3
.L806:
	lock addl	$1, 8(%rdx)
	jmp	.L805
.L822:
	movq	(%r12), %rax
	movq	%r12, %rdi
	call	*16(%rax)
	cmpb	$0, (%rbx)
	je	.L812
	movl	12(%r12), %eax
	leal	-1(%rax), %edx
	movl	%edx, 12(%r12)
.L813:
	cmpl	$1, %eax
	jne	.L808
	movq	(%r12), %rax
	movq	%r12, %rdi
	call	*24(%rax)
	jmp	.L808
.L809:
	movl	$-1, %eax
	lock xaddl	%eax, 8(%r12)
	jmp	.L810
.L812:
	movl	$-1, %eax
	lock xaddl	%eax, 12(%r12)
	jmp	.L813
	.cfi_endproc
.LFE9382:
	.size	_ZNSt17_Function_handlerIFvvEZN8asiodnp311LinkSession8ShutdownEvEUlvE_E10_M_managerERSt9_Any_dataRKS5_St18_Manager_operation, .-_ZNSt17_Function_handlerIFvvEZN8asiodnp311LinkSession8ShutdownEvEUlvE_E10_M_managerERSt9_Any_dataRKS5_St18_Manager_operation
	.p2align 4
	.type	_ZNSt17_Function_handlerIFvvEZN7openpal8TimerRef5StartIZN8asiodnp311LinkSession5StartEvEUlvE_EEbRKNS1_12TimeDurationERKT_EUlvE_E10_M_managerERSt9_Any_dataRKSF_St18_Manager_operation, @function
_ZNSt17_Function_handlerIFvvEZN7openpal8TimerRef5StartIZN8asiodnp311LinkSession5StartEvEUlvE_EEbRKNS1_12TimeDurationERKT_EUlvE_E10_M_managerERSt9_Any_dataRKSF_St18_Manager_operation:
.LFB9735:
	.cfi_startproc
	endbr64
	pushq	%r12
	.cfi_def_cfa_offset 16
	.cfi_offset 12, -16
	pushq	%rbp
	.cfi_def_cfa_offset 24
	.cfi_offset 6, -24
	pushq	%rbx
	.cfi_def_cfa_offset 32
	.cfi_offset 3, -32
	movq	%rdi, %rbx
	testl	%edx, %edx
	je	.L824
	cmpl	$1, %edx
	je	.L825
	cmpl	$2, %edx
	je	.L828
	cmpl	$3, %edx
	jne	.L827
	movq	(%rdi), %rbp
	testq	%rbp, %rbp
	je	.L827
	movq	16(%rbp), %r12
	testq	%r12, %r12
	je	.L833
	movq	__libc_single_threaded@GOTPCREL(%rip), %rbx
	cmpb	$0, (%rbx)
	je	.L834
	movl	8(%r12), %eax
	leal	-1(%rax), %edx
	movl	%edx, 8(%r12)
.L835:
	cmpl	$1, %eax
	je	.L847
.L833:
	movl	$24, %esi
	movq	%rbp, %rdi
	call	_ZdlPvm@PLT
.L827:
	popq	%rbx
	.cfi_remember_state
	.cfi_def_cfa_offset 24
	xorl	%eax, %eax
	popq	%rbp
	.cfi_def_cfa_offset 16
	popq	%r12
	.cfi_def_cfa_offset 8
	ret
	.p2align 4,,10
	.p2align 3
.L824:
	.cfi_restore_state
	leaq	_ZTIZN7openpal8TimerRef5StartIZN8asiodnp311LinkSession5StartEvEUlvE_EEbRKNS_12TimeDurationERKT_EUlvE_(%rip), %rax
	movq	%rax, (%rdi)
	xorl	%eax, %eax
	popq	%rbx
	.cfi_remember_state
	.cfi_def_cfa_offset 24
	popq	%rbp
	.cfi_def_cfa_offset 16
	popq	%r12
	.cfi_def_cfa_offset 8
	ret
	.p2align 4,,10
	.p2align 3
.L825:
	.cfi_restore_state
	movq	(%rsi), %rax
	movq	%rax, (%rdi)
	xorl	%eax, %eax
	popq	%rbx
	.cfi_remember_state
	.cfi_def_cfa_offset 24
	popq	%rbp
	.cfi_def_cfa_offset 16
	popq	%r12
	.cfi_def_cfa_offset 8
	ret
	.p2align 4,,10
	.p2align 3
.L828:
	.cfi_restore_state
	movq	(%rsi), %rbp
	movl	$24, %edi
	call	_Znwm@PLT
	movdqu	0(%rbp), %xmm0
	movups	%xmm0, (%rax)
	movq	16(%rbp), %rdx
	movq	%rdx, 16(%rax)
	testq	%rdx, %rdx
	je	.L830
	movq	__libc_single_threaded@GOTPCREL(%rip), %rcx
	cmpb	$0, (%rcx)
	je	.L831
	addl	$1, 8(%rdx)
.L830:
	movq	%rax, (%rbx)
	jmp	.L827
	.p2align 4,,10
	.p2align 3
.L831:
	lock addl	$1, 8(%rdx)
	jmp	.L830
.L847:
	movq	(%r12), %rax
	movq	%r12, %rdi
	call	*16(%rax)
	cmpb	$0, (%rbx)
	je	.L837
	movl	12(%r12), %eax
	leal	-1(%rax), %edx
	movl	%edx, 12(%r12)
.L838:
	cmpl	$1, %eax
	jne	.L833
	movq	(%r12), %rax
	movq	%r12, %rdi
	call	*24(%rax)
	jmp	.L833
.L834:
	movl	$-1, %eax
	lock xaddl	%eax, 8(%r12)
	jmp	.L835
.L837:
	movl	$-1, %eax
	lock xaddl	%eax, 12(%r12)
	jmp	.L838
	.cfi_endproc
.LFE9735:
	.size	_ZNSt17_Function_handlerIFvvEZN7openpal8TimerRef5StartIZN8asiodnp311LinkSession5StartEvEUlvE_EEbRKNS1_12TimeDurationERKT_EUlvE_E10_M_managerERSt9_Any_dataRKSF_St18_Manager_operation, .-_ZNSt17_Function_handlerIFvvEZN7openpal8TimerRef5StartIZN8asiodnp311LinkSession5StartEvEUlvE_EEbRKNS1_12TimeDurationERKT_EUlvE_E10_M_managerERSt9_Any_dataRKSF_St18_Manager_operation
	.section	.text._ZN7openpal6LoggerD2Ev,"axG",@progbits,_ZN7openpal6LoggerD5Ev,comdat
	.align 2
	.p2align 4
	.weak	_ZN7openpal6LoggerD2Ev
	.type	_ZN7openpal6LoggerD2Ev, @function
_ZN7openpal6LoggerD2Ev:
.LFB2070:
	.cfi_startproc
	endbr64
	pushq	%r12
	.cfi_def_cfa_offset 16
	.cfi_offset 12, -16
	pushq	%rbp
	.cfi_def_cfa_offset 24
	.cfi_offset 6, -24
	pushq	%rbx
	.cfi_def_cfa_offset 32
	.cfi_offset 3, -32
	movq	24(%rdi), %rbp
	movq	%rdi, %rbx
	testq	%rbp, %rbp
	je	.L850
	movq	__libc_single_threaded@GOTPCREL(%rip), %r12
	cmpb	$0, (%r12)
	je	.L851
	movl	8(%rbp), %eax
	leal	-1(%rax), %edx
	movl	%edx, 8(%rbp)
.L852:
	cmpl	$1, %eax
	je	.L864
.L850:
	movq	8(%rbx), %rbp
	testq	%rbp, %rbp
	je	.L848
	movq	__libc_single_threaded@GOTPCREL(%rip), %r12
	cmpb	$0, (%r12)
	je	.L858
	movl	8(%rbp), %eax
	leal	-1(%rax), %edx
	movl	%edx, 8(%rbp)
.L859:
	cmpl	$1, %eax
	je	.L865
.L848:
	popq	%rbx
	.cfi_remember_state
	.cfi_def_cfa_offset 24
	popq	%rbp
	.cfi_def_cfa_offset 16
	popq	%r12
	.cfi_def_cfa_offset 8
	ret
	.p2align 4,,10
	.p2align 3
.L864:
	.cfi_restore_state
	movq	0(%rbp), %rax
	movq	%rbp, %rdi
	call	*16(%rax)
	cmpb	$0, (%r12)
	je	.L854
	movl	12(%rbp), %eax
	leal	-1(%rax), %edx
	movl	%edx, 12(%rbp)
.L855:
	cmpl	$1, %eax
	jne	.L850
	movq	0(%rbp), %rax
	movq	%rbp, %rdi
	call	*24(%rax)
	jmp	.L850
	.p2align 4,,10
	.p2align 3
.L865:
	movq	0(%rbp), %rax
	movq	%rbp, %rdi
	call	*16(%rax)
	cmpb	$0, (%r12)
	je	.L861
	movl	12(%rbp), %eax
	leal	-1(%rax), %edx
	movl	%edx, 12(%rbp)
.L862:
	cmpl	$1, %eax
	jne	.L848
	movq	0(%rbp), %rax
	popq	%rbx
	.cfi_remember_state
	.cfi_def_cfa_offset 24
	movq	%rbp, %rdi
	popq	%rbp
	.cfi_def_cfa_offset 16
	popq	%r12
	.cfi_def_cfa_offset 8
	movq	24(%rax), %rax
	jmp	*%rax
	.p2align 4,,10
	.p2align 3
.L858:
	.cfi_restore_state
	movl	$-1, %eax
	lock xaddl	%eax, 8(%rbp)
	jmp	.L859
	.p2align 4,,10
	.p2align 3
.L851:
	movl	$-1, %eax
	lock xaddl	%eax, 8(%rbp)
	jmp	.L852
	.p2align 4,,10
	.p2align 3
.L854:
	movl	$-1, %eax
	lock xaddl	%eax, 12(%rbp)
	jmp	.L855
	.p2align 4,,10
	.p2align 3
.L861:
	movl	$-1, %eax
	lock xaddl	%eax, 12(%rbp)
	jmp	.L862
	.cfi_endproc
.LFE2070:
	.size	_ZN7openpal6LoggerD2Ev, .-_ZN7openpal6LoggerD2Ev
	.weak	_ZN7openpal6LoggerD1Ev
	.set	_ZN7openpal6LoggerD1Ev,_ZN7openpal6LoggerD2Ev
	.text
	.align 2
	.p2align 4
	.globl	_ZN8asiodnp311LinkSession13SetLogFiltersEN7openpal10LogFiltersE
	.type	_ZN8asiodnp311LinkSession13SetLogFiltersEN7openpal10LogFiltersE, @function
_ZN8asiodnp311LinkSession13SetLogFiltersEN7openpal10LogFiltersE:
.LFB7997:
	.cfi_startproc
	endbr64
	movq	80(%rdi), %rax
	movl	%esi, 32(%rax)
	ret
	.cfi_endproc
.LFE7997:
	.size	_ZN8asiodnp311LinkSession13SetLogFiltersEN7openpal10LogFiltersE, .-_ZN8asiodnp311LinkSession13SetLogFiltersEN7openpal10LogFiltersE
	.align 2
	.p2align 4
	.globl	_ZN8asiodnp311LinkSession12BeginReceiveEv
	.type	_ZN8asiodnp311LinkSession12BeginReceiveEv, @function
_ZN8asiodnp311LinkSession12BeginReceiveEv:
.LFB8012:
	.cfi_startproc
	endbr64
	pushq	%rbx
	.cfi_def_cfa_offset 16
	.cfi_offset 3, -16
	movq	%rdi, %rbx
	addq	$152, %rdi
	call	_ZNK8opendnp315LinkLayerParser9WriteBuffEv@PLT
	movq	136(%rbx), %rdi
	cmpq	$0, 40(%rdi)
	je	.L868
	cmpb	$0, 56(%rdi)
	jne	.L868
	cmpb	$0, 57(%rdi)
	jne	.L868
	movl	%eax, %esi
	movq	(%rdi), %rax
	movb	$1, 57(%rdi)
	popq	%rbx
	.cfi_remember_state
	.cfi_def_cfa_offset 8
	movq	16(%rax), %rax
	jmp	*%rax
	.p2align 4,,10
	.p2align 3
.L868:
	.cfi_restore_state
	popq	%rbx
	.cfi_def_cfa_offset 8
	ret
	.cfi_endproc
.LFE8012:
	.size	_ZN8asiodnp311LinkSession12BeginReceiveEv, .-_ZN8asiodnp311LinkSession12BeginReceiveEv
	.section	.text._ZNSt16_Sp_counted_baseILN9__gnu_cxx12_Lock_policyE2EE10_M_releaseEv,"axG",@progbits,_ZNSt16_Sp_counted_baseILN9__gnu_cxx12_Lock_policyE2EE10_M_releaseEv,comdat
	.align 2
	.p2align 4
	.weak	_ZNSt16_Sp_counted_baseILN9__gnu_cxx12_Lock_policyE2EE10_M_releaseEv
	.type	_ZNSt16_Sp_counted_baseILN9__gnu_cxx12_Lock_policyE2EE10_M_releaseEv, @function
_ZNSt16_Sp_counted_baseILN9__gnu_cxx12_Lock_policyE2EE10_M_releaseEv:
.LFB9060:
	.cfi_startproc
	endbr64
	pushq	%rbp
	.cfi_def_cfa_offset 16
	.cfi_offset 6, -16
	movq	%rdi, %rbp
	pushq	%rbx
	.cfi_def_cfa_offset 24
	.cfi_offset 3, -24
	subq	$8, %rsp
	.cfi_def_cfa_offset 32
	movq	__libc_single_threaded@GOTPCREL(%rip), %rbx
	cmpb	$0, (%rbx)
	je	.L871
	movl	8(%rdi), %eax
	leal	-1(%rax), %edx
	movl	%edx, 8(%rdi)
.L872:
	cmpl	$1, %eax
	je	.L879
.L870:
	addq	$8, %rsp
	.cfi_remember_state
	.cfi_def_cfa_offset 24
	popq	%rbx
	.cfi_def_cfa_offset 16
	popq	%rbp
	.cfi_def_cfa_offset 8
	ret
	.p2align 4,,10
	.p2align 3
.L879:
	.cfi_restore_state
	movq	0(%rbp), %rax
	movq	%rbp, %rdi
	call	*16(%rax)
	cmpb	$0, (%rbx)
	je	.L875
	movl	12(%rbp), %eax
	leal	-1(%rax), %edx
	movl	%edx, 12(%rbp)
.L876:
	cmpl	$1, %eax
	jne	.L870
	movq	0(%rbp), %rax
	movq	%rbp, %rdi
	movq	24(%rax), %rax
	addq	$8, %rsp
	.cfi_remember_state
	.cfi_def_cfa_offset 24
	popq	%rbx
	.cfi_def_cfa_offset 16
	popq	%rbp
	.cfi_def_cfa_offset 8
	jmp	*%rax
	.p2align 4,,10
	.p2align 3
.L871:
	.cfi_restore_state
	movl	$-1, %eax
	lock xaddl	%eax, 8(%rdi)
	jmp	.L872
	.p2align 4,,10
	.p2align 3
.L875:
	movl	$-1, %eax
	lock xaddl	%eax, 12(%rbp)
	jmp	.L876
	.cfi_endproc
.LFE9060:
	.size	_ZNSt16_Sp_counted_baseILN9__gnu_cxx12_Lock_policyE2EE10_M_releaseEv, .-_ZNSt16_Sp_counted_baseILN9__gnu_cxx12_Lock_policyE2EE10_M_releaseEv
	.section	.text.unlikely,"ax",@progbits
	.align 2
.LCOLDB23:
	.text
.LHOTB23:
	.align 2
	.p2align 4
	.globl	_ZN8asiodnp311LinkSessionC2ERKN7openpal6LoggerEmRKSt10shared_ptrIN7asiopal16IResourceManagerEERKS5_INS_16IListenCallbacksEERKS5_INS6_13IAsyncChannelEE
	.type	_ZN8asiodnp311LinkSessionC2ERKN7openpal6LoggerEmRKSt10shared_ptrIN7asiopal16IResourceManagerEERKS5_INS_16IListenCallbacksEERKS5_INS6_13IAsyncChannelEE, @function
_ZN8asiodnp311LinkSessionC2ERKN7openpal6LoggerEmRKSt10shared_ptrIN7asiopal16IResourceManagerEERKS5_INS_16IListenCallbacksEERKS5_INS6_13IAsyncChannelEE:
.LFB7960:
	.cfi_startproc
	.cfi_personality 0x9b,DW.ref.__gxx_personality_v0
	.cfi_lsda 0x1b,.LLSDA7960
	endbr64
	pushq	%r13
	.cfi_def_cfa_offset 16
	.cfi_offset 13, -16
	pxor	%xmm0, %xmm0
	pushq	%r12
	.cfi_def_cfa_offset 24
	.cfi_offset 12, -24
	pushq	%rbp
	.cfi_def_cfa_offset 32
	.cfi_offset 6, -32
	movq	%r9, %rbp
	pushq	%rbx
	.cfi_def_cfa_offset 40
	.cfi_offset 3, -40
	movq	%rdi, %rbx
	movq	%rdx, %rdi
	movq	%rcx, %rdx
	leaq	64(%rbx), %r12
	subq	$8, %rsp
	.cfi_def_cfa_offset 48
	movq	_ZTVN8asiodnp311LinkSessionE@GOTPCREL(%rip), %rax
	movups	%xmm0, 24(%rbx)
	movb	$0, 56(%rbx)
	leaq	96(%rax), %rcx
	leaq	16(%rax), %r10
	movq	%rcx, %xmm1
	movq	%r10, %xmm0
	leaq	144(%rax), %rcx
	movq	%rcx, 16(%rbx)
	punpcklqdq	%xmm1, %xmm0
	leaq	224(%rax), %rcx
	addq	$184, %rax
	movups	%xmm0, (%rbx)
	movq	%rcx, %xmm2
	movq	%rax, %xmm0
	punpcklqdq	%xmm2, %xmm0
	movups	%xmm0, 40(%rbx)
	movdqu	(%rsi), %xmm3
	movq	8(%rsi), %rax
	movups	%xmm3, 64(%rbx)
	testq	%rax, %rax
	je	.L881
	movq	__libc_single_threaded@GOTPCREL(%rip), %rcx
	cmpb	$0, (%rcx)
	je	.L882
	addl	$1, 8(%rax)
.L881:
	movdqu	16(%rsi), %xmm4
	movq	24(%rsi), %rax
	movups	%xmm4, 80(%rbx)
	testq	%rax, %rax
	je	.L883
	movq	__libc_single_threaded@GOTPCREL(%rip), %rcx
	cmpb	$0, (%rcx)
	je	.L884
	addl	$1, 8(%rax)
.L883:
	movq	%rdi, 96(%rbx)
	movdqu	(%rdx), %xmm5
	movups	%xmm5, 104(%rbx)
	movq	112(%rbx), %rax
	testq	%rax, %rax
	je	.L885
	movq	__libc_single_threaded@GOTPCREL(%rip), %rdx
	cmpb	$0, (%rdx)
	je	.L886
	addl	$1, 8(%rax)
.L885:
	movdqu	(%r8), %xmm6
	movups	%xmm6, 120(%rbx)
	movq	128(%rbx), %rax
	testq	%rax, %rax
	je	.L887
	movq	__libc_single_threaded@GOTPCREL(%rip), %rdx
	cmpb	$0, (%rdx)
	je	.L888
	addl	$1, 8(%rax)
.L887:
	movdqu	0(%rbp), %xmm7
	movq	8(%rbp), %rax
	movups	%xmm7, 136(%rbx)
	testq	%rax, %rax
	je	.L889
	movq	__libc_single_threaded@GOTPCREL(%rip), %rdx
	cmpb	$0, (%rdx)
	je	.L890
	addl	$1, 8(%rax)
.L889:
	leaq	152(%rbx), %r13
	movq	%r13, %rdi
.LEHB0:
	call	_ZN8opendnp315LinkLayerParserC1ERKN7openpal6LoggerE@PLT
.LEHE0:
	movq	0(%rbp), %rax
	leaq	568(%rbx), %rdi
	movq	24(%rax), %rsi
.LEHB1:
	call	_ZN7openpal8TimerRefC1ERNS_9IExecutorE@PLT
.LEHE1:
	movl	$0, 584(%rbx)
	pxor	%xmm0, %xmm0
	movups	%xmm0, 592(%rbx)
	addq	$8, %rsp
	.cfi_remember_state
	.cfi_def_cfa_offset 40
	popq	%rbx
	.cfi_def_cfa_offset 32
	popq	%rbp
	.cfi_def_cfa_offset 24
	popq	%r12
	.cfi_def_cfa_offset 16
	popq	%r13
	.cfi_def_cfa_offset 8
	ret
	.p2align 4,,10
	.p2align 3
.L890:
	.cfi_restore_state
	lock addl	$1, 8(%rax)
	jmp	.L889
	.p2align 4,,10
	.p2align 3
.L884:
	lock addl	$1, 8(%rax)
	jmp	.L883
	.p2align 4,,10
	.p2align 3
.L882:
	lock addl	$1, 8(%rax)
	jmp	.L881
	.p2align 4,,10
	.p2align 3
.L888:
	lock addl	$1, 8(%rax)
	jmp	.L887
	.p2align 4,,10
	.p2align 3
.L886:
	lock addl	$1, 8(%rax)
	jmp	.L885
.L902:
	endbr64
	movq	%rax, %rbp
	jmp	.L891
.L901:
	endbr64
	movq	%rax, %rbp
	jmp	.L892
	.globl	__gxx_personality_v0
	.section	.gcc_except_table,"a",@progbits
.LLSDA7960:
	.byte	0xff
	.byte	0xff
	.byte	0x1
	.uleb128 .LLSDACSE7960-.LLSDACSB7960
.LLSDACSB7960:
	.uleb128 .LEHB0-.LFB7960
	.uleb128 .LEHE0-.LEHB0
	.uleb128 .L901-.LFB7960
	.uleb128 0
	.uleb128 .LEHB1-.LFB7960
	.uleb128 .LEHE1-.LEHB1
	.uleb128 .L902-.LFB7960
	.uleb128 0
.LLSDACSE7960:
	.text
	.cfi_endproc
	.section	.text.unlikely
	.cfi_startproc
	.cfi_personality 0x9b,DW.ref.__gxx_personality_v0
	.cfi_lsda 0x1b,.LLSDAC7960
	.type	_ZN8asiodnp311LinkSessionC2ERKN7openpal6LoggerEmRKSt10shared_ptrIN7asiopal16IResourceManagerEERKS5_INS_16IListenCallbacksEERKS5_INS6_13IAsyncChannelEE.cold, @function
_ZN8asiodnp311LinkSessionC2ERKN7openpal6LoggerEmRKSt10shared_ptrIN7asiopal16IResourceManagerEERKS5_INS_16IListenCallbacksEERKS5_INS6_13IAsyncChannelEE.cold:
.LFSB7960:
.L891:
	.cfi_def_cfa_offset 48
	.cfi_offset 3, -40
	.cfi_offset 6, -32
	.cfi_offset 12, -24
	.cfi_offset 13, -16
	movq	%r13, %rdi
	call	_ZN7openpal6LoggerD1Ev@PLT
.L892:
	movq	144(%rbx), %rdi
	testq	%rdi, %rdi
	je	.L893
	call	_ZNSt16_Sp_counted_baseILN9__gnu_cxx12_Lock_policyE2EE10_M_releaseEv@PLT
.L893:
	movq	128(%rbx), %rdi
	testq	%rdi, %rdi
	je	.L894
	call	_ZNSt16_Sp_counted_baseILN9__gnu_cxx12_Lock_policyE2EE10_M_releaseEv@PLT
.L894:
	movq	112(%rbx), %rdi
	testq	%rdi, %rdi
	je	.L895
	call	_ZNSt16_Sp_counted_baseILN9__gnu_cxx12_Lock_policyE2EE10_M_releaseEv@PLT
.L895:
	movq	%r12, %rdi
	call	_ZN7openpal6LoggerD1Ev@PLT
	movq	32(%rbx), %rdi
	testq	%rdi, %rdi
	je	.L897
	movq	__libc_single_threaded@GOTPCREL(%rip), %rax
	leaq	12(%rdi), %rdx
	cmpb	$0, (%rax)
	je	.L898
	movl	12(%rdi), %eax
	leal	-1(%rax), %edx
	movl	%edx, 12(%rdi)
.L899:
	subl	$1, %eax
	jne	.L897
	movq	(%rdi), %rax
	call	*24(%rax)
.L897:
	movq	%rbp, %rdi
.LEHB2:
	call	_Unwind_Resume@PLT
.LEHE2:
.L898:
	orl	$-1, %eax
	lock xaddl	%eax, (%rdx)
	jmp	.L899
	.cfi_endproc
.LFE7960:
	.section	.gcc_except_table
.LLSDAC7960:
	.byte	0xff
	.byte	0xff
	.byte	0x1
	.uleb128 .LLSDACSEC7960-.LLSDACSBC7960
.LLSDACSBC7960:
	.uleb128 .LEHB2-.LCOLDB23
	.uleb128 .LEHE2-.LEHB2
	.uleb128 0
	.uleb128 0
.LLSDACSEC7960:
	.section	.text.unlikely
	.text
	.size	_ZN8asiodnp311LinkSessionC2ERKN7openpal6LoggerEmRKSt10shared_ptrIN7asiopal16IResourceManagerEERKS5_INS_16IListenCallbacksEERKS5_INS6_13IAsyncChannelEE, .-_ZN8asiodnp311LinkSessionC2ERKN7openpal6LoggerEmRKSt10shared_ptrIN7asiopal16IResourceManagerEERKS5_INS_16IListenCallbacksEERKS5_INS6_13IAsyncChannelEE
	.section	.text.unlikely
	.size	_ZN8asiodnp311LinkSessionC2ERKN7openpal6LoggerEmRKSt10shared_ptrIN7asiopal16IResourceManagerEERKS5_INS_16IListenCallbacksEERKS5_INS6_13IAsyncChannelEE.cold, .-_ZN8asiodnp311LinkSessionC2ERKN7openpal6LoggerEmRKSt10shared_ptrIN7asiopal16IResourceManagerEERKS5_INS_16IListenCallbacksEERKS5_INS6_13IAsyncChannelEE.cold
.LCOLDE23:
	.text
.LHOTE23:
	.globl	_ZN8asiodnp311LinkSessionC1ERKN7openpal6LoggerEmRKSt10shared_ptrIN7asiopal16IResourceManagerEERKS5_INS_16IListenCallbacksEERKS5_INS6_13IAsyncChannelEE
	.set	_ZN8asiodnp311LinkSessionC1ERKN7openpal6LoggerEmRKSt10shared_ptrIN7asiopal16IResourceManagerEERKS5_INS_16IListenCallbacksEERKS5_INS6_13IAsyncChannelEE,_ZN8asiodnp311LinkSessionC2ERKN7openpal6LoggerEmRKSt10shared_ptrIN7asiopal16IResourceManagerEERKS5_INS_16IListenCallbacksEERKS5_INS6_13IAsyncChannelEE
	.section	.text.unlikely
.LCOLDB24:
	.text
.LHOTB24:
	.p2align 4
	.type	_ZN4asio6detail18completion_handlerIZN8asiodnp311LinkSession12ShutdownImplEvEUlvE_E11do_completeEPNS0_15task_io_serviceEPNS0_25task_io_service_operationERKSt10error_codem, @function
_ZN4asio6detail18completion_handlerIZN8asiodnp311LinkSession12ShutdownImplEvEUlvE_E11do_completeEPNS0_15task_io_serviceEPNS0_25task_io_service_operationERKSt10error_codem:
.LFB9889:
	.cfi_startproc
	.cfi_personality 0x9b,DW.ref.__gxx_personality_v0
	.cfi_lsda 0x1b,.LLSDA9889
	endbr64
	pushq	%r13
	.cfi_def_cfa_offset 16
	.cfi_offset 13, -16
	movq	%rdi, %r13
	pushq	%r12
	.cfi_def_cfa_offset 24
	.cfi_offset 12, -24
	movq	%rsi, %r12
	pushq	%rbp
	.cfi_def_cfa_offset 32
	.cfi_offset 6, -32
	pushq	%rbx
	.cfi_def_cfa_offset 40
	.cfi_offset 3, -40
	subq	$40, %rsp
	.cfi_def_cfa_offset 80
	movq	24(%rsi), %rbx
	movq	32(%rsi), %rbp
	movq	%fs:40, %rax
	movq	%rax, 24(%rsp)
	xorl	%eax, %eax
	data16	leaq	_ZN4asio6detail15keyword_tss_ptrINS0_10call_stackINS0_15task_io_serviceENS0_27task_io_service_thread_infoEE7contextEE6value_E@tlsgd(%rip), %rdi
	.value	0x6666
	rex64
	call	__tls_get_addr@PLT
	movq	(%rax), %rax
	testq	%rax, %rax
	je	.L930
	movq	8(%rax), %rax
	testq	%rax, %rax
	je	.L930
	cmpq	$0, (%rax)
	je	.L973
.L930:
	movq	%r12, %rdi
	call	_ZdlPv@PLT
.L931:
	testq	%r13, %r13
	je	.L932
	movq	104(%rbx), %rdi
	leaq	40(%rbx), %rcx
	movq	%rbp, %xmm1
	movq	%rcx, %xmm0
	movq	(%rdi), %rax
	punpcklqdq	%xmm1, %xmm0
	movaps	%xmm0, (%rsp)
	movq	16(%rax), %rax
	testq	%rbp, %rbp
	je	.L933
	movq	__libc_single_threaded@GOTPCREL(%rip), %rdx
	cmpb	$0, (%rdx)
	je	.L934
	addl	$1, 8(%rbp)
.L933:
	movq	%rsp, %rsi
.LEHB3:
	call	*%rax
.LEHE3:
	movq	8(%rsp), %r12
	testq	%r12, %r12
	je	.L936
	movq	__libc_single_threaded@GOTPCREL(%rip), %rbx
	cmpb	$0, (%rbx)
	je	.L937
	movl	8(%r12), %eax
	leal	-1(%rax), %edx
	movl	%edx, 8(%r12)
.L938:
	cmpl	$1, %eax
	jne	.L936
	movq	(%r12), %rax
	movq	%r12, %rdi
	call	*16(%rax)
	cmpb	$0, (%rbx)
	je	.L940
	movl	12(%r12), %eax
	leal	-1(%rax), %edx
	movl	%edx, 12(%r12)
.L941:
	cmpl	$1, %eax
	je	.L974
	.p2align 4,,10
	.p2align 3
.L936:
	sfence
.L932:
	testq	%rbp, %rbp
	je	.L929
	movq	__libc_single_threaded@GOTPCREL(%rip), %rbx
	cmpb	$0, (%rbx)
	je	.L948
	movl	8(%rbp), %eax
	leal	-1(%rax), %edx
	movl	%edx, 8(%rbp)
.L949:
	cmpl	$1, %eax
	je	.L975
.L929:
	movq	24(%rsp), %rax
	subq	%fs:40, %rax
	jne	.L972
	addq	$40, %rsp
	.cfi_remember_state
	.cfi_def_cfa_offset 40
	popq	%rbx
	.cfi_def_cfa_offset 32
	popq	%rbp
	.cfi_def_cfa_offset 24
	popq	%r12
	.cfi_def_cfa_offset 16
	popq	%r13
	.cfi_def_cfa_offset 8
	ret
	.p2align 4,,10
	.p2align 3
.L975:
	.cfi_restore_state
	movq	0(%rbp), %rax
	movq	%rbp, %rdi
	call	*16(%rax)
	cmpb	$0, (%rbx)
	je	.L951
	movl	12(%rbp), %eax
	leal	-1(%rax), %edx
	movl	%edx, 12(%rbp)
.L952:
	cmpl	$1, %eax
	jne	.L929
	movq	24(%rsp), %rax
	subq	%fs:40, %rax
	jne	.L972
	movq	0(%rbp), %rax
	movq	%rbp, %rdi
	movq	24(%rax), %rax
	addq	$40, %rsp
	.cfi_remember_state
	.cfi_def_cfa_offset 40
	popq	%rbx
	.cfi_def_cfa_offset 32
	popq	%rbp
	.cfi_def_cfa_offset 24
	popq	%r12
	.cfi_def_cfa_offset 16
	popq	%r13
	.cfi_def_cfa_offset 8
	jmp	*%rax
	.p2align 4,,10
	.p2align 3
.L948:
	.cfi_restore_state
	movl	$-1, %eax
	lock xaddl	%eax, 8(%rbp)
	jmp	.L949
	.p2align 4,,10
	.p2align 3
.L937:
	movl	$-1, %eax
	lock xaddl	%eax, 8(%r12)
	jmp	.L938
	.p2align 4,,10
	.p2align 3
.L973:
	movzbl	40(%r12), %edx
	movb	%dl, (%r12)
	movq	%r12, (%rax)
	jmp	.L931
	.p2align 4,,10
	.p2align 3
.L934:
	lock addl	$1, 8(%rbp)
	jmp	.L933
	.p2align 4,,10
	.p2align 3
.L951:
	movl	$-1, %eax
	lock xaddl	%eax, 12(%rbp)
	jmp	.L952
	.p2align 4,,10
	.p2align 3
.L974:
	movq	(%r12), %rax
	movq	%r12, %rdi
	call	*24(%rax)
	jmp	.L936
	.p2align 4,,10
	.p2align 3
.L940:
	movl	$-1, %eax
	lock xaddl	%eax, 12(%r12)
	jmp	.L941
.L972:
	call	__stack_chk_fail@PLT
.L955:
	endbr64
	movq	%rax, %r12
	jmp	.L942
	.section	.gcc_except_table
.LLSDA9889:
	.byte	0xff
	.byte	0xff
	.byte	0x1
	.uleb128 .LLSDACSE9889-.LLSDACSB9889
.LLSDACSB9889:
	.uleb128 .LEHB3-.LFB9889
	.uleb128 .LEHE3-.LEHB3
	.uleb128 .L955-.LFB9889
	.uleb128 0
.LLSDACSE9889:
	.text
	.cfi_endproc
	.section	.text.unlikely
	.cfi_startproc
	.cfi_personality 0x9b,DW.ref.__gxx_personality_v0
	.cfi_lsda 0x1b,.LLSDAC9889
	.type	_ZN4asio6detail18completion_handlerIZN8asiodnp311LinkSession12ShutdownImplEvEUlvE_E11do_completeEPNS0_15task_io_serviceEPNS0_25task_io_service_operationERKSt10error_codem.cold, @function
_ZN4asio6detail18completion_handlerIZN8asiodnp311LinkSession12ShutdownImplEvEUlvE_E11do_completeEPNS0_15task_io_serviceEPNS0_25task_io_service_operationERKSt10error_codem.cold:
.LFSB9889:
.L942:
	.cfi_def_cfa_offset 80
	.cfi_offset 3, -40
	.cfi_offset 6, -32
	.cfi_offset 12, -24
	.cfi_offset 13, -16
	movq	8(%rsp), %rdi
	testq	%rdi, %rdi
	je	.L943
	call	_ZNSt16_Sp_counted_baseILN9__gnu_cxx12_Lock_policyE2EE10_M_releaseEv@PLT
.L943:
	sfence
	testq	%rbp, %rbp
	je	.L945
	movq	%rbp, %rdi
	call	_ZNSt16_Sp_counted_baseILN9__gnu_cxx12_Lock_policyE2EE10_M_releaseEv@PLT
.L945:
	movq	%r12, %rdi
.LEHB4:
	call	_Unwind_Resume@PLT
.LEHE4:
	.cfi_endproc
.LFE9889:
	.section	.gcc_except_table
.LLSDAC9889:
	.byte	0xff
	.byte	0xff
	.byte	0x1
	.uleb128 .LLSDACSEC9889-.LLSDACSBC9889
.LLSDACSBC9889:
	.uleb128 .LEHB4-.LCOLDB24
	.uleb128 .LEHE4-.LEHB4
	.uleb128 0
	.uleb128 0
.LLSDACSEC9889:
	.section	.text.unlikely
	.text
	.size	_ZN4asio6detail18completion_handlerIZN8asiodnp311LinkSession12ShutdownImplEvEUlvE_E11do_completeEPNS0_15task_io_serviceEPNS0_25task_io_service_operationERKSt10error_codem, .-_ZN4asio6detail18completion_handlerIZN8asiodnp311LinkSession12ShutdownImplEvEUlvE_E11do_completeEPNS0_15task_io_serviceEPNS0_25task_io_service_operationERKSt10error_codem
	.section	.text.unlikely
	.size	_ZN4asio6detail18completion_handlerIZN8asiodnp311LinkSession12ShutdownImplEvEUlvE_E11do_completeEPNS0_15task_io_serviceEPNS0_25task_io_service_operationERKSt10error_codem.cold, .-_ZN4asio6detail18completion_handlerIZN8asiodnp311LinkSession12ShutdownImplEvEUlvE_E11do_completeEPNS0_15task_io_serviceEPNS0_25task_io_service_operationERKSt10error_codem.cold
.LCOLDE24:
	.text
.LHOTE24:
	.section	.text.unlikely
	.align 2
.LCOLDB25:
	.text
.LHOTB25:
	.align 2
	.p2align 4
	.globl	_ZN8asiodnp311LinkSession8ShutdownEv
	.type	_ZN8asiodnp311LinkSession8ShutdownEv, @function
_ZN8asiodnp311LinkSession8ShutdownEv:
.LFB7962:
	.cfi_startproc
	.cfi_personality 0x9b,DW.ref.__gxx_personality_v0
	.cfi_lsda 0x1b,.LLSDA7962
	endbr64
	pushq	%r14
	.cfi_def_cfa_offset 16
	.cfi_offset 14, -16
	pushq	%r13
	.cfi_def_cfa_offset 24
	.cfi_offset 13, -24
	pushq	%r12
	.cfi_def_cfa_offset 32
	.cfi_offset 12, -32
	pushq	%rbp
	.cfi_def_cfa_offset 40
	.cfi_offset 6, -40
	pushq	%rbx
	.cfi_def_cfa_offset 48
	.cfi_offset 3, -48
	subq	$48, %rsp
	.cfi_def_cfa_offset 96
	movq	32(%rdi), %rbp
	movq	%fs:40, %rax
	movq	%rax, 40(%rsp)
	xorl	%eax, %eax
	testq	%rbp, %rbp
	je	.L977
	movl	8(%rbp), %eax
	leaq	8(%rbp), %rbx
.L979:
	testl	%eax, %eax
	je	.L977
	leal	1(%rax), %edx
	lock cmpxchgl	%edx, (%rbx)
	jne	.L979
	movq	136(%rdi), %rax
	movq	24(%rdi), %r12
	pxor	%xmm0, %xmm0
	movl	$16, %edi
	movaps	%xmm0, (%rsp)
	movq	24(%rax), %r13
	movq	$0, 16(%rsp)
	movq	$0, 24(%rsp)
.LEHB5:
	call	_Znwm@PLT
.LEHE5:
	movq	%r12, %xmm0
	movq	__libc_single_threaded@GOTPCREL(%rip), %r12
	movq	%rbp, %xmm2
	punpcklqdq	%xmm2, %xmm0
	cmpb	$0, (%r12)
	movups	%xmm0, (%rax)
	je	.L1020
	addl	$1, 8(%rbp)
.L981:
	movq	%rax, (%rsp)
	leaq	_ZNSt17_Function_handlerIFvvEZN8asiodnp311LinkSession8ShutdownEvEUlvE_E10_M_managerERSt9_Any_dataRKS5_St18_Manager_operation(%rip), %rcx
	movq	%rsp, %r14
	movq	%r13, %rdi
	leaq	_ZNSt17_Function_handlerIFvvEZN8asiodnp311LinkSession8ShutdownEvEUlvE_E9_M_invokeERKSt9_Any_data(%rip), %rax
	movq	%rcx, %xmm0
	movq	%r14, %rsi
	movq	%rax, %xmm1
	punpcklqdq	%xmm1, %xmm0
	movaps	%xmm0, 16(%rsp)
.LEHB6:
	call	_ZN7asiopal8Executor18BlockUntilAndFlushERKSt8functionIFvvEE@PLT
.LEHE6:
	movq	16(%rsp), %rax
	testq	%rax, %rax
	je	.L986
	movl	$3, %edx
	movq	%r14, %rsi
	movq	%r14, %rdi
	call	*%rax
.L986:
	cmpb	$0, (%r12)
	je	.L987
	movl	8(%rbp), %eax
	leal	-1(%rax), %edx
	movl	%edx, 8(%rbp)
	cmpl	$1, %eax
	je	.L1021
.L976:
	movq	40(%rsp), %rax
	subq	%fs:40, %rax
	jne	.L1019
	addq	$48, %rsp
	.cfi_remember_state
	.cfi_def_cfa_offset 48
	popq	%rbx
	.cfi_def_cfa_offset 40
	popq	%rbp
	.cfi_def_cfa_offset 32
	popq	%r12
	.cfi_def_cfa_offset 24
	popq	%r13
	.cfi_def_cfa_offset 16
	popq	%r14
	.cfi_def_cfa_offset 8
	ret
	.p2align 4,,10
	.p2align 3
.L1020:
	.cfi_restore_state
	lock addl	$1, 8(%rbp)
	jmp	.L981
	.p2align 4,,10
	.p2align 3
.L1021:
	movq	0(%rbp), %rax
	movq	%rbp, %rdi
	call	*16(%rax)
	cmpb	$0, (%r12)
	je	.L991
	movl	12(%rbp), %eax
	leal	-1(%rax), %edx
	movl	%edx, 12(%rbp)
.L992:
	cmpl	$1, %eax
	jne	.L976
	movq	40(%rsp), %rax
	subq	%fs:40, %rax
	jne	.L1019
	movq	0(%rbp), %rax
	movq	%rbp, %rdi
	movq	24(%rax), %rax
	addq	$48, %rsp
	.cfi_remember_state
	.cfi_def_cfa_offset 48
	popq	%rbx
	.cfi_def_cfa_offset 40
	popq	%rbp
	.cfi_def_cfa_offset 32
	popq	%r12
	.cfi_def_cfa_offset 24
	popq	%r13
	.cfi_def_cfa_offset 16
	popq	%r14
	.cfi_def_cfa_offset 8
	jmp	*%rax
	.p2align 4,,10
	.p2align 3
.L987:
	.cfi_restore_state
	movl	$-1, %eax
	lock xaddl	%eax, (%rbx)
	cmpl	$1, %eax
	jne	.L976
	jmp	.L1021
	.p2align 4,,10
	.p2align 3
.L991:
	movl	$-1, %eax
	lock xaddl	%eax, 12(%rbp)
	jmp	.L992
.L1019:
	call	__stack_chk_fail@PLT
.L1000:
	endbr64
	movq	%rax, %r12
	jmp	.L983
.L999:
	endbr64
	movq	%rax, %r12
	jmp	.L995
	.section	.gcc_except_table
.LLSDA7962:
	.byte	0xff
	.byte	0xff
	.byte	0x1
	.uleb128 .LLSDACSE7962-.LLSDACSB7962
.LLSDACSB7962:
	.uleb128 .LEHB5-.LFB7962
	.uleb128 .LEHE5-.LEHB5
	.uleb128 .L1000-.LFB7962
	.uleb128 0
	.uleb128 .LEHB6-.LFB7962
	.uleb128 .LEHE6-.LEHB6
	.uleb128 .L999-.LFB7962
	.uleb128 0
.LLSDACSE7962:
	.text
	.cfi_endproc
	.section	.text.unlikely
	.cfi_startproc
	.cfi_personality 0x9b,DW.ref.__gxx_personality_v0
	.cfi_lsda 0x1b,.LLSDAC7962
	.type	_ZN8asiodnp311LinkSession8ShutdownEv.cold, @function
_ZN8asiodnp311LinkSession8ShutdownEv.cold:
.LFSB7962:
.L977:
	.cfi_def_cfa_offset 96
	.cfi_offset 3, -48
	.cfi_offset 6, -40
	.cfi_offset 12, -32
	.cfi_offset 13, -24
	.cfi_offset 14, -16
	movl	$8, %edi
	call	__cxa_allocate_exception@PLT
	movq	_ZNSt12bad_weak_ptrD1Ev@GOTPCREL(%rip), %rdx
	movq	_ZTISt12bad_weak_ptr@GOTPCREL(%rip), %rsi
	movq	%rax, %rdi
	movq	_ZTVSt12bad_weak_ptr@GOTPCREL(%rip), %rax
	addq	$16, %rax
	movq	%rax, (%rdi)
.LEHB7:
	call	__cxa_throw@PLT
.LEHE7:
.L983:
	movq	16(%rsp), %rax
	testq	%rax, %rax
	je	.L985
	movq	%rsp, %rdi
	movl	$3, %edx
	movq	%rdi, %rsi
	call	*%rax
.L985:
	movq	%rbp, %rdi
	call	_ZNSt16_Sp_counted_baseILN9__gnu_cxx12_Lock_policyE2EE10_M_releaseEv@PLT
	movq	%r12, %rdi
.LEHB8:
	call	_Unwind_Resume@PLT
.LEHE8:
.L995:
	movq	16(%rsp), %rax
	testq	%rax, %rax
	je	.L985
	movl	$3, %edx
	movq	%r14, %rsi
	movq	%r14, %rdi
	call	*%rax
	jmp	.L985
	.cfi_endproc
.LFE7962:
	.section	.gcc_except_table
.LLSDAC7962:
	.byte	0xff
	.byte	0xff
	.byte	0x1
	.uleb128 .LLSDACSEC7962-.LLSDACSBC7962
.LLSDACSBC7962:
	.uleb128 .LEHB7-.LCOLDB25
	.uleb128 .LEHE7-.LEHB7
	.uleb128 0
	.uleb128 0
	.uleb128 .LEHB8-.LCOLDB25
	.uleb128 .LEHE8-.LEHB8
	.uleb128 0
	.uleb128 0
.LLSDACSEC7962:
	.section	.text.unlikely
	.text
	.size	_ZN8asiodnp311LinkSession8ShutdownEv, .-_ZN8asiodnp311LinkSession8ShutdownEv
	.section	.text.unlikely
	.size	_ZN8asiodnp311LinkSession8ShutdownEv.cold, .-_ZN8asiodnp311LinkSession8ShutdownEv.cold
.LCOLDE25:
	.text
.LHOTE25:
	.set	.LTHUNK2,_ZN8asiodnp311LinkSession8ShutdownEv
	.p2align 4
	.globl	_ZThn40_N8asiodnp311LinkSession8ShutdownEv
	.type	_ZThn40_N8asiodnp311LinkSession8ShutdownEv, @function
_ZThn40_N8asiodnp311LinkSession8ShutdownEv:
.LFB10721:
	.cfi_startproc
	endbr64
	subq	$40, %rdi
	jmp	.LTHUNK2
	.cfi_endproc
.LFE10721:
	.size	_ZThn40_N8asiodnp311LinkSession8ShutdownEv, .-_ZThn40_N8asiodnp311LinkSession8ShutdownEv
	.section	.rodata.str1.8,"aMS",@progbits,1
	.align 8
.LC26:
	.string	"SocketSession already has a master bound"
	.align 8
.LC27:
	.string	"/home/saptarshi/Desktop/OpenPLC61850/utils/dnp3_src/cpp/libs/src/asiodnp3/LinkSession.cpp(161)"
	.section	.text.unlikely
	.align 2
.LCOLDB28:
	.text
.LHOTB28:
	.align 2
	.p2align 4
	.globl	_ZN8asiodnp311LinkSession13AcceptSessionERKNSt7__cxx1112basic_stringIcSt11char_traitsIcESaIcEEESt10shared_ptrIN8opendnp311ISOEHandlerEES9_INSA_18IMasterApplicationEERKNS_17MasterStackConfigE
	.type	_ZN8asiodnp311LinkSession13AcceptSessionERKNSt7__cxx1112basic_stringIcSt11char_traitsIcESaIcEEESt10shared_ptrIN8opendnp311ISOEHandlerEES9_INSA_18IMasterApplicationEERKNS_17MasterStackConfigE, @function
_ZN8asiodnp311LinkSession13AcceptSessionERKNSt7__cxx1112basic_stringIcSt11char_traitsIcESaIcEEESt10shared_ptrIN8opendnp311ISOEHandlerEES9_INSA_18IMasterApplicationEERKNS_17MasterStackConfigE:
.LFB8002:
	.cfi_startproc
	.cfi_personality 0x9b,DW.ref.__gxx_personality_v0
	.cfi_lsda 0x1b,.LLSDA8002
	endbr64
	pushq	%rbp
	.cfi_def_cfa_offset 16
	.cfi_offset 6, -16
	movq	%rsp, %rbp
	.cfi_def_cfa_register 6
	pushq	%r15
	pushq	%r14
	pushq	%r13
	pushq	%r12
	.cfi_offset 15, -24
	.cfi_offset 14, -32
	.cfi_offset 13, -40
	.cfi_offset 12, -48
	movq	%rdi, %r12
	pushq	%rbx
	.cfi_offset 3, -56
	movq	%rsi, %rbx
	subq	$56, %rsp
	movq	%fs:40, %rax
	movq	%rax, -56(%rbp)
	xorl	%eax, %eax
	cmpq	$0, 592(%rsi)
	je	.L1023
	leaq	64(%rsi), %rax
	leaq	-80(%rbp), %r13
	movl	$2, -80(%rbp)
	movq	%r13, %rsi
	movq	%rax, %rdi
	movq	%rax, %rbx
.LEHB9:
	call	_ZNK7openpal6Logger9IsEnabledERKNS_10LogFiltersE@PLT
	testb	%al, %al
	jne	.L1079
.L1024:
	pxor	%xmm0, %xmm0
	movups	%xmm0, (%r12)
.L1022:
	movq	-56(%rbp), %rax
	subq	%fs:40, %rax
	jne	.L1080
	leaq	-40(%rbp), %rsp
	movq	%r12, %rax
	popq	%rbx
	popq	%r12
	popq	%r13
	popq	%r14
	popq	%r15
	popq	%rbp
	.cfi_remember_state
	.cfi_def_cfa 7, 8
	ret
	.p2align 4,,10
	.p2align 3
.L1079:
	.cfi_restore_state
	leaq	.LC26(%rip), %rcx
	leaq	.LC27(%rip), %rdx
	movq	%r13, %rsi
	movq	%rbx, %rdi
	movl	$2, -80(%rbp)
	call	_ZN7openpal6Logger3LogERKNS_10LogFiltersEPKcS5_@PLT
	jmp	.L1024
	.p2align 4,,10
	.p2align 3
.L1023:
	movq	80(%rsi), %rdi
	movq	%rdx, %rsi
	movq	%rcx, %r14
	movq	%r8, %r13
	movq	%r9, %r15
	call	_ZNSt7__cxx1112basic_stringIcSt11char_traitsIcESaIcEE9_M_assignERKS4_@PLT
.LEHE9:
	movq	32(%rbx), %rax
	movq	%rax, -88(%rbp)
	testq	%rax, %rax
	je	.L1026
	leaq	8(%rax), %rdx
	movl	8(%rax), %eax
.L1028:
	testl	%eax, %eax
	je	.L1026
	leal	1(%rax), %ecx
	lock cmpxchgl	%ecx, (%rdx)
	jne	.L1028
	movq	24(%rbx), %rax
	leaq	-80(%rbp), %rdi
	leaq	64(%rbx), %rsi
	movq	%r13, %r8
	leaq	-96(%rbp), %r9
	movq	%r14, %rcx
	movq	%rax, -96(%rbp)
	movq	136(%rbx), %rax
	pushq	%r15
	pushq	%rbx
	leaq	24(%rax), %rdx
.LEHB10:
	.cfi_escape 0x2e,0x10
	call	_ZN8asiodnp318MasterSessionStack6CreateERKN7openpal6LoggerERKSt10shared_ptrIN7asiopal8ExecutorEERKS5_IN8opendnp311ISOEHandlerEERKS5_INSB_18IMasterApplicationEERKS5_INS_11LinkSessionEERNSB_7ILinkTxERKNS_17MasterStackConfigE@PLT
.LEHE10:
	popq	%rax
	movdqa	-80(%rbp), %xmm0
	pxor	%xmm1, %xmm1
	movq	600(%rbx), %rax
	popq	%rdx
	movaps	%xmm1, -80(%rbp)
	movups	%xmm0, 592(%rbx)
	movq	%rax, %r15
	testq	%rax, %rax
	je	.L1030
	movq	__libc_single_threaded@GOTPCREL(%rip), %r13
	cmpb	$0, 0(%r13)
	je	.L1031
	movl	8(%r15), %eax
	leal	-1(%rax), %edx
	movl	%edx, 8(%r15)
	cmpl	$1, %eax
	jne	.L1030
.L1035:
	movq	(%r15), %rax
	movq	%r15, %rdi
	call	*16(%rax)
	cmpb	$0, 0(%r13)
	je	.L1081
	movl	12(%r15), %eax
	leal	-1(%rax), %edx
	movl	%edx, 12(%r15)
.L1037:
	cmpl	$1, %eax
	je	.L1082
.L1036:
	movq	-72(%rbp), %rsi
	movq	%rsi, %r14
	testq	%rsi, %rsi
	je	.L1030
	cmpb	$0, 0(%r13)
	je	.L1039
	movl	8(%rsi), %eax
	leal	-1(%rax), %edx
	movl	%edx, 8(%rsi)
.L1040:
	cmpl	$1, %eax
	jne	.L1030
	movq	(%r14), %rax
	movq	%r14, %rdi
	call	*16(%rax)
	cmpb	$0, 0(%r13)
	je	.L1041
	movl	12(%r14), %eax
	leal	-1(%rax), %edx
	movl	%edx, 12(%r14)
.L1042:
	cmpl	$1, %eax
	jne	.L1030
	movq	(%r14), %rax
	movq	%r14, %rdi
	call	*24(%rax)
	.p2align 4,,10
	.p2align 3
.L1030:
	movq	-88(%rbp), %rax
	movq	%rax, %r15
	testq	%rax, %rax
	je	.L1044
	movq	__libc_single_threaded@GOTPCREL(%rip), %r13
	cmpb	$0, 0(%r13)
	je	.L1045
	movl	8(%rax), %eax
	leal	-1(%rax), %edx
	movl	%edx, 8(%r15)
.L1046:
	cmpl	$1, %eax
	jne	.L1044
	movq	(%r15), %rax
	movq	%r15, %rdi
	call	*16(%rax)
	cmpb	$0, 0(%r13)
	je	.L1048
	movl	12(%r15), %eax
	leal	-1(%rax), %edx
	movl	%edx, 12(%r15)
.L1049:
	cmpl	$1, %eax
	jne	.L1044
	movq	(%r15), %rax
	movq	%r15, %rdi
	call	*24(%rax)
	.p2align 4,,10
	.p2align 3
.L1044:
	movdqu	592(%rbx), %xmm2
	movups	%xmm2, (%r12)
	movq	8(%r12), %rax
	testq	%rax, %rax
	je	.L1022
	movq	__libc_single_threaded@GOTPCREL(%rip), %rdx
	cmpb	$0, (%rdx)
	je	.L1050
	addl	$1, 8(%rax)
	jmp	.L1022
	.p2align 4,,10
	.p2align 3
.L1050:
	lock addl	$1, 8(%rax)
	jmp	.L1022
	.p2align 4,,10
	.p2align 3
.L1031:
	lock subl	$1, 8(%r15)
	jne	.L1036
	jmp	.L1035
	.p2align 4,,10
	.p2align 3
.L1039:
	movl	$-1, %eax
	lock xaddl	%eax, 8(%rsi)
	jmp	.L1040
	.p2align 4,,10
	.p2align 3
.L1045:
	movl	$-1, %eax
	lock xaddl	%eax, 8(%r15)
	jmp	.L1046
	.p2align 4,,10
	.p2align 3
.L1082:
	movq	(%r15), %rax
	movq	%r15, %rdi
	call	*24(%rax)
	jmp	.L1036
	.p2align 4,,10
	.p2align 3
.L1048:
	movl	$-1, %eax
	lock xaddl	%eax, 12(%r15)
	jmp	.L1049
	.p2align 4,,10
	.p2align 3
.L1041:
	movl	$-1, %eax
	lock xaddl	%eax, 12(%r14)
	jmp	.L1042
	.p2align 4,,10
	.p2align 3
.L1081:
	movl	$-1, %eax
	lock xaddl	%eax, 12(%r15)
	jmp	.L1037
.L1080:
	call	__stack_chk_fail@PLT
.L1055:
	endbr64
	movq	%rax, %rbx
	jmp	.L1051
	.section	.gcc_except_table
.LLSDA8002:
	.byte	0xff
	.byte	0xff
	.byte	0x1
	.uleb128 .LLSDACSE8002-.LLSDACSB8002
.LLSDACSB8002:
	.uleb128 .LEHB9-.LFB8002
	.uleb128 .LEHE9-.LEHB9
	.uleb128 0
	.uleb128 0
	.uleb128 .LEHB10-.LFB8002
	.uleb128 .LEHE10-.LEHB10
	.uleb128 .L1055-.LFB8002
	.uleb128 0
.LLSDACSE8002:
	.text
	.cfi_endproc
	.section	.text.unlikely
	.cfi_startproc
	.cfi_personality 0x9b,DW.ref.__gxx_personality_v0
	.cfi_lsda 0x1b,.LLSDAC8002
	.type	_ZN8asiodnp311LinkSession13AcceptSessionERKNSt7__cxx1112basic_stringIcSt11char_traitsIcESaIcEEESt10shared_ptrIN8opendnp311ISOEHandlerEES9_INSA_18IMasterApplicationEERKNS_17MasterStackConfigE.cold, @function
_ZN8asiodnp311LinkSession13AcceptSessionERKNSt7__cxx1112basic_stringIcSt11char_traitsIcESaIcEEESt10shared_ptrIN8opendnp311ISOEHandlerEES9_INSA_18IMasterApplicationEERKNS_17MasterStackConfigE.cold:
.LFSB8002:
.L1026:
	.cfi_def_cfa 6, 16
	.cfi_offset 3, -56
	.cfi_offset 6, -16
	.cfi_offset 12, -48
	.cfi_offset 13, -40
	.cfi_offset 14, -32
	.cfi_offset 15, -24
	movl	$8, %edi
	call	__cxa_allocate_exception@PLT
	movq	_ZNSt12bad_weak_ptrD1Ev@GOTPCREL(%rip), %rdx
	movq	_ZTISt12bad_weak_ptr@GOTPCREL(%rip), %rsi
	movq	%rax, %rdi
	movq	_ZTVSt12bad_weak_ptr@GOTPCREL(%rip), %rax
	addq	$16, %rax
	movq	%rax, (%rdi)
.LEHB11:
	call	__cxa_throw@PLT
.L1051:
	movq	-88(%rbp), %rdi
	testq	%rdi, %rdi
	je	.L1052
	call	_ZNSt16_Sp_counted_baseILN9__gnu_cxx12_Lock_policyE2EE10_M_releaseEv@PLT
.L1052:
	movq	%rbx, %rdi
	call	_Unwind_Resume@PLT
.LEHE11:
	.cfi_endproc
.LFE8002:
	.section	.gcc_except_table
.LLSDAC8002:
	.byte	0xff
	.byte	0xff
	.byte	0x1
	.uleb128 .LLSDACSEC8002-.LLSDACSBC8002
.LLSDACSBC8002:
	.uleb128 .LEHB11-.LCOLDB28
	.uleb128 .LEHE11-.LEHB11
	.uleb128 0
	.uleb128 0
.LLSDACSEC8002:
	.section	.text.unlikely
	.text
	.size	_ZN8asiodnp311LinkSession13AcceptSessionERKNSt7__cxx1112basic_stringIcSt11char_traitsIcESaIcEEESt10shared_ptrIN8opendnp311ISOEHandlerEES9_INSA_18IMasterApplicationEERKNS_17MasterStackConfigE, .-_ZN8asiodnp311LinkSession13AcceptSessionERKNSt7__cxx1112basic_stringIcSt11char_traitsIcESaIcEEESt10shared_ptrIN8opendnp311ISOEHandlerEES9_INSA_18IMasterApplicationEERKNS_17MasterStackConfigE
	.section	.text.unlikely
	.size	_ZN8asiodnp311LinkSession13AcceptSessionERKNSt7__cxx1112basic_stringIcSt11char_traitsIcESaIcEEESt10shared_ptrIN8opendnp311ISOEHandlerEES9_INSA_18IMasterApplicationEERKNS_17MasterStackConfigE.cold, .-_ZN8asiodnp311LinkSession13AcceptSessionERKNSt7__cxx1112basic_stringIcSt11char_traitsIcESaIcEEESt10shared_ptrIN8opendnp311ISOEHandlerEES9_INSA_18IMasterApplicationEERKNS_17MasterStackConfigE.cold
.LCOLDE28:
	.text
.LHOTE28:
	.section	.text.unlikely
	.align 2
.LCOLDB29:
	.text
.LHOTB29:
	.align 2
	.p2align 4
	.globl	_ZN8asiodnp311LinkSession5StartEv
	.type	_ZN8asiodnp311LinkSession5StartEv, @function
_ZN8asiodnp311LinkSession5StartEv:
.LFB8003:
	.cfi_startproc
	.cfi_personality 0x9b,DW.ref.__gxx_personality_v0
	.cfi_lsda 0x1b,.LLSDA8003
	endbr64
	pushq	%r15
	.cfi_def_cfa_offset 16
	.cfi_offset 15, -16
	pushq	%r14
	.cfi_def_cfa_offset 24
	.cfi_offset 14, -24
	pushq	%r13
	.cfi_def_cfa_offset 32
	.cfi_offset 13, -32
	pushq	%r12
	.cfi_def_cfa_offset 40
	.cfi_offset 12, -40
	pushq	%rbp
	.cfi_def_cfa_offset 48
	.cfi_offset 6, -48
	pushq	%rbx
	.cfi_def_cfa_offset 56
	.cfi_offset 3, -56
	subq	$72, %rsp
	.cfi_def_cfa_offset 128
	movq	32(%rdi), %rbp
	movq	136(%rdi), %r14
	movq	%fs:40, %rax
	movq	%rax, 56(%rsp)
	xorl	%eax, %eax
	testq	%rbp, %rbp
	je	.L1105
	movl	8(%rbp), %eax
	movq	%rdi, %r12
	leaq	8(%rbp), %r15
.L1086:
	testl	%eax, %eax
	je	.L1105
	leal	1(%rax), %edx
	lock cmpxchgl	%edx, (%r15)
	jne	.L1086
	movq	24(%r12), %rax
	movq	__libc_single_threaded@GOTPCREL(%rip), %rbx
	movq	48(%r14), %r13
	leaq	8(%rax), %rdx
	testq	%rax, %rax
	cmovne	%rdx, %rax
	movq	%rax, 40(%r14)
	movzbl	(%rbx), %eax
	cmpq	%r13, %rbp
	je	.L1087
	testb	%al, %al
	je	.L1088
	addl	$1, 8(%rbp)
	testq	%r13, %r13
	je	.L1090
.L1089:
	movl	8(%r13), %eax
	leal	-1(%rax), %edx
	movl	%edx, 8(%r13)
	cmpl	$1, %eax
	je	.L1094
.L1169:
	movzbl	(%rbx), %eax
.L1090:
	movq	%rbp, 48(%r14)
.L1087:
	testb	%al, %al
	je	.L1098
	movl	8(%rbp), %eax
	leal	-1(%rax), %edx
	movl	%edx, 8(%rbp)
	cmpl	$1, %eax
	je	.L1171
.L1101:
	movq	32(%r12), %rbp
	testq	%rbp, %rbp
	je	.L1105
	movl	8(%rbp), %eax
	leaq	8(%rbp), %r13
.L1107:
	testl	%eax, %eax
	je	.L1105
	leal	1(%rax), %edx
	lock cmpxchgl	%edx, 0(%r13)
	jne	.L1107
	movq	120(%r12), %rdi
	movq	24(%r12), %r15
	leaq	568(%r12), %r14
	movq	(%rdi), %rax
.LEHB12:
	call	*32(%rax)
.LEHE12:
	cmpb	$0, (%rbx)
	movq	%rax, 8(%rsp)
	je	.L1172
	addl	$1, 8(%rbp)
.L1109:
	pxor	%xmm0, %xmm0
	movl	$24, %edi
	movq	$0, 32(%rsp)
	movq	$0, 40(%rsp)
	movaps	%xmm0, 16(%rsp)
.LEHB13:
	call	_Znwm@PLT
.LEHE13:
	movq	%r14, %xmm0
	movq	%r15, %xmm1
	cmpb	$0, (%rbx)
	movq	%rbp, 16(%rax)
	punpcklqdq	%xmm1, %xmm0
	movups	%xmm0, (%rax)
	je	.L1110
	addl	$1, 8(%rbp)
.L1111:
	movq	%rax, 16(%rsp)
	leaq	_ZNSt17_Function_handlerIFvvEZN7openpal8TimerRef5StartIZN8asiodnp311LinkSession5StartEvEUlvE_EEbRKNS1_12TimeDurationERKT_EUlvE_E10_M_managerERSt9_Any_dataRKSF_St18_Manager_operation(%rip), %rcx
	leaq	16(%rsp), %r15
	movq	%r14, %rdi
	leaq	_ZNSt17_Function_handlerIFvvEZN7openpal8TimerRef5StartIZN8asiodnp311LinkSession5StartEvEUlvE_EEbRKNS1_12TimeDurationERKT_EUlvE_E9_M_invokeERKSt9_Any_data(%rip), %rax
	movq	%rcx, %xmm0
	leaq	8(%rsp), %rsi
	movq	%r15, %rdx
	movq	%rax, %xmm2
	punpcklqdq	%xmm2, %xmm0
	movaps	%xmm0, 32(%rsp)
.LEHB14:
	call	_ZN7openpal8TimerRef11StartActionERKNS_12TimeDurationERKSt8functionIFvvEE@PLT
.LEHE14:
	movq	32(%rsp), %rax
	testq	%rax, %rax
	je	.L1116
	movl	$3, %edx
	movq	%r15, %rsi
	movq	%r15, %rdi
	call	*%rax
.L1116:
	cmpb	$0, (%rbx)
	je	.L1117
	movl	8(%rbp), %eax
	leal	-1(%rax), %edx
	movl	%edx, 8(%rbp)
	cmpl	$1, %eax
	je	.L1173
.L1120:
	movq	%r12, %rdi
.LEHB15:
	call	_ZN8asiodnp311LinkSession12BeginReceiveEv@PLT
.LEHE15:
	cmpb	$0, (%rbx)
	je	.L1128
	movl	8(%rbp), %eax
	leal	-1(%rax), %edx
	movl	%edx, 8(%rbp)
	cmpl	$1, %eax
	je	.L1174
.L1083:
	movq	56(%rsp), %rax
	subq	%fs:40, %rax
	jne	.L1170
	addq	$72, %rsp
	.cfi_remember_state
	.cfi_def_cfa_offset 56
	popq	%rbx
	.cfi_def_cfa_offset 48
	popq	%rbp
	.cfi_def_cfa_offset 40
	popq	%r12
	.cfi_def_cfa_offset 32
	popq	%r13
	.cfi_def_cfa_offset 24
	popq	%r14
	.cfi_def_cfa_offset 16
	popq	%r15
	.cfi_def_cfa_offset 8
	ret
	.p2align 4,,10
	.p2align 3
.L1088:
	.cfi_restore_state
	lock addl	$1, 8(%rbp)
	movq	48(%r14), %r13
	testq	%r13, %r13
	je	.L1169
	cmpb	$0, (%rbx)
	jne	.L1089
	movl	$-1, %eax
	lock xaddl	%eax, 8(%r13)
	cmpl	$1, %eax
	jne	.L1169
.L1094:
	movq	0(%r13), %rax
	movq	%r13, %rdi
	call	*16(%rax)
	cmpb	$0, (%rbx)
	je	.L1095
	movl	12(%r13), %eax
	leal	-1(%rax), %edx
	movl	%edx, 12(%r13)
.L1096:
	cmpl	$1, %eax
	jne	.L1169
	movq	0(%r13), %rax
	movq	%r13, %rdi
	call	*24(%rax)
	jmp	.L1169
	.p2align 4,,10
	.p2align 3
.L1172:
	lock addl	$1, 8(%rbp)
	jmp	.L1109
	.p2align 4,,10
	.p2align 3
.L1110:
	lock addl	$1, 8(%rbp)
	jmp	.L1111
	.p2align 4,,10
	.p2align 3
.L1171:
	movq	0(%rbp), %rax
	movq	%rbp, %rdi
	call	*16(%rax)
	cmpb	$0, (%rbx)
	je	.L1102
	movl	12(%rbp), %eax
	leal	-1(%rax), %edx
	movl	%edx, 12(%rbp)
.L1103:
	cmpl	$1, %eax
	jne	.L1101
	movq	0(%rbp), %rax
	movq	%rbp, %rdi
	call	*24(%rax)
	jmp	.L1101
	.p2align 4,,10
	.p2align 3
.L1173:
	movq	0(%rbp), %rax
	movq	%rbp, %rdi
	call	*16(%rax)
	cmpb	$0, (%rbx)
	je	.L1121
	movl	12(%rbp), %eax
	leal	-1(%rax), %edx
	movl	%edx, 12(%rbp)
.L1122:
	cmpl	$1, %eax
	jne	.L1120
	movq	0(%rbp), %rax
	movq	%rbp, %rdi
	call	*24(%rax)
	jmp	.L1120
	.p2align 4,,10
	.p2align 3
.L1128:
	movl	$-1, %eax
	lock xaddl	%eax, 0(%r13)
	cmpl	$1, %eax
	jne	.L1083
.L1174:
	movq	0(%rbp), %rax
	movq	%rbp, %rdi
	call	*16(%rax)
	cmpb	$0, (%rbx)
	je	.L1132
	movl	12(%rbp), %eax
	leal	-1(%rax), %edx
	movl	%edx, 12(%rbp)
.L1133:
	cmpl	$1, %eax
	jne	.L1083
	movq	56(%rsp), %rax
	subq	%fs:40, %rax
	jne	.L1170
	movq	0(%rbp), %rax
	movq	%rbp, %rdi
	movq	24(%rax), %rax
	addq	$72, %rsp
	.cfi_remember_state
	.cfi_def_cfa_offset 56
	popq	%rbx
	.cfi_def_cfa_offset 48
	popq	%rbp
	.cfi_def_cfa_offset 40
	popq	%r12
	.cfi_def_cfa_offset 32
	popq	%r13
	.cfi_def_cfa_offset 24
	popq	%r14
	.cfi_def_cfa_offset 16
	popq	%r15
	.cfi_def_cfa_offset 8
	jmp	*%rax
	.p2align 4,,10
	.p2align 3
.L1117:
	.cfi_restore_state
	movl	$-1, %eax
	lock xaddl	%eax, 0(%r13)
	cmpl	$1, %eax
	jne	.L1120
	jmp	.L1173
	.p2align 4,,10
	.p2align 3
.L1098:
	movl	$-1, %eax
	lock xaddl	%eax, (%r15)
	cmpl	$1, %eax
	jne	.L1101
	jmp	.L1171
	.p2align 4,,10
	.p2align 3
.L1132:
	movl	$-1, %eax
	lock xaddl	%eax, 12(%rbp)
	jmp	.L1133
	.p2align 4,,10
	.p2align 3
.L1121:
	movl	$-1, %eax
	lock xaddl	%eax, 12(%rbp)
	jmp	.L1122
	.p2align 4,,10
	.p2align 3
.L1102:
	movl	$-1, %eax
	lock xaddl	%eax, 12(%rbp)
	jmp	.L1103
	.p2align 4,,10
	.p2align 3
.L1095:
	movl	$-1, %eax
	lock xaddl	%eax, 12(%r13)
	jmp	.L1096
.L1170:
	call	__stack_chk_fail@PLT
.L1140:
	endbr64
	movq	%rax, %r12
	jmp	.L1127
.L1141:
	endbr64
	movq	%rax, %r12
	jmp	.L1125
.L1142:
	endbr64
	movq	%rax, %r12
	jmp	.L1113
	.section	.gcc_except_table
.LLSDA8003:
	.byte	0xff
	.byte	0xff
	.byte	0x1
	.uleb128 .LLSDACSE8003-.LLSDACSB8003
.LLSDACSB8003:
	.uleb128 .LEHB12-.LFB8003
	.uleb128 .LEHE12-.LEHB12
	.uleb128 .L1140-.LFB8003
	.uleb128 0
	.uleb128 .LEHB13-.LFB8003
	.uleb128 .LEHE13-.LEHB13
	.uleb128 .L1142-.LFB8003
	.uleb128 0
	.uleb128 .LEHB14-.LFB8003
	.uleb128 .LEHE14-.LEHB14
	.uleb128 .L1141-.LFB8003
	.uleb128 0
	.uleb128 .LEHB15-.LFB8003
	.uleb128 .LEHE15-.LEHB15
	.uleb128 .L1140-.LFB8003
	.uleb128 0
.LLSDACSE8003:
	.text
	.cfi_endproc
	.section	.text.unlikely
	.cfi_startproc
	.cfi_personality 0x9b,DW.ref.__gxx_personality_v0
	.cfi_lsda 0x1b,.LLSDAC8003
	.type	_ZN8asiodnp311LinkSession5StartEv.cold, @function
_ZN8asiodnp311LinkSession5StartEv.cold:
.LFSB8003:
.L1125:
	.cfi_def_cfa_offset 128
	.cfi_offset 3, -56
	.cfi_offset 6, -48
	.cfi_offset 12, -40
	.cfi_offset 13, -32
	.cfi_offset 14, -24
	.cfi_offset 15, -16
	movq	32(%rsp), %rax
	testq	%rax, %rax
	je	.L1115
	movl	$3, %edx
	movq	%r15, %rsi
	movq	%r15, %rdi
	call	*%rax
.L1115:
	movq	%rbp, %rdi
	call	_ZNSt16_Sp_counted_baseILN9__gnu_cxx12_Lock_policyE2EE10_M_releaseEv@PLT
.L1127:
	movq	%rbp, %rdi
	call	_ZNSt16_Sp_counted_baseILN9__gnu_cxx12_Lock_policyE2EE10_M_releaseEv@PLT
	movq	%r12, %rdi
.LEHB16:
	call	_Unwind_Resume@PLT
.L1105:
	movl	$8, %edi
	call	__cxa_allocate_exception@PLT
	movq	_ZNSt12bad_weak_ptrD1Ev@GOTPCREL(%rip), %rdx
	movq	_ZTISt12bad_weak_ptr@GOTPCREL(%rip), %rsi
	movq	%rax, %rdi
	movq	_ZTVSt12bad_weak_ptr@GOTPCREL(%rip), %rax
	addq	$16, %rax
	movq	%rax, (%rdi)
	call	__cxa_throw@PLT
.LEHE16:
.L1113:
	movq	32(%rsp), %rax
	testq	%rax, %rax
	je	.L1115
	leaq	16(%rsp), %rdi
	movl	$3, %edx
	movq	%rdi, %rsi
	call	*%rax
	jmp	.L1115
	.cfi_endproc
.LFE8003:
	.section	.gcc_except_table
.LLSDAC8003:
	.byte	0xff
	.byte	0xff
	.byte	0x1
	.uleb128 .LLSDACSEC8003-.LLSDACSBC8003
.LLSDACSBC8003:
	.uleb128 .LEHB16-.LCOLDB29
	.uleb128 .LEHE16-.LEHB16
	.uleb128 0
	.uleb128 0
.LLSDACSEC8003:
	.section	.text.unlikely
	.text
	.size	_ZN8asiodnp311LinkSession5StartEv, .-_ZN8asiodnp311LinkSession5StartEv
	.section	.text.unlikely
	.size	_ZN8asiodnp311LinkSession5StartEv.cold, .-_ZN8asiodnp311LinkSession5StartEv.cold
.LCOLDE29:
	.text
.LHOTE29:
	.section	.text.unlikely
	.align 2
.LCOLDB30:
	.text
.LHOTB30:
	.align 2
	.p2align 4
	.globl	_ZN8asiodnp311LinkSession12ShutdownImplEv
	.type	_ZN8asiodnp311LinkSession12ShutdownImplEv, @function
_ZN8asiodnp311LinkSession12ShutdownImplEv:
.LFB7975:
	.cfi_startproc
	.cfi_personality 0x9b,DW.ref.__gxx_personality_v0
	.cfi_lsda 0x1b,.LLSDA7975
	endbr64
	pushq	%r15
	.cfi_def_cfa_offset 16
	.cfi_offset 15, -16
	pushq	%r14
	.cfi_def_cfa_offset 24
	.cfi_offset 14, -24
	pushq	%r13
	.cfi_def_cfa_offset 32
	.cfi_offset 13, -32
	pushq	%r12
	.cfi_def_cfa_offset 40
	.cfi_offset 12, -40
	pushq	%rbp
	.cfi_def_cfa_offset 48
	.cfi_offset 6, -48
	pushq	%rbx
	.cfi_def_cfa_offset 56
	.cfi_offset 3, -56
	subq	$104, %rsp
	.cfi_def_cfa_offset 160
	movq	%fs:40, %rax
	movq	%rax, 88(%rsp)
	xorl	%eax, %eax
	cmpb	$0, 56(%rdi)
	je	.L1322
.L1175:
	movq	88(%rsp), %rax
	subq	%fs:40, %rax
	jne	.L1321
	addq	$104, %rsp
	.cfi_remember_state
	.cfi_def_cfa_offset 56
	popq	%rbx
	.cfi_def_cfa_offset 48
	popq	%rbp
	.cfi_def_cfa_offset 40
	popq	%r12
	.cfi_def_cfa_offset 32
	popq	%r13
	.cfi_def_cfa_offset 24
	popq	%r14
	.cfi_def_cfa_offset 16
	popq	%r15
	.cfi_def_cfa_offset 8
	ret
	.p2align 4,,10
	.p2align 3
.L1322:
	.cfi_restore_state
	movb	$1, 56(%rdi)
	movq	%rdi, %rbx
	movq	120(%rdi), %rdi
	movdqu	592(%rbx), %xmm3
	movq	(%rdi), %rax
	movq	48(%rax), %rcx
	movq	600(%rbx), %rax
	movaps	%xmm3, 64(%rsp)
	testq	%rax, %rax
	je	.L1177
	movq	__libc_single_threaded@GOTPCREL(%rip), %rdx
	cmpb	$0, (%rdx)
	je	.L1178
	addl	$1, 8(%rax)
.L1177:
	leaq	64(%rsp), %r15
	movq	96(%rbx), %rsi
	movq	%r15, %rdx
.LEHB17:
	call	*%rcx
.LEHE17:
	movq	72(%rsp), %r12
	testq	%r12, %r12
	je	.L1180
	movq	__libc_single_threaded@GOTPCREL(%rip), %rbp
	cmpb	$0, 0(%rbp)
	je	.L1181
	movl	8(%r12), %eax
	leal	-1(%rax), %edx
	movl	%edx, 8(%r12)
.L1182:
	cmpl	$1, %eax
	jne	.L1180
	movq	(%r12), %rax
	movq	%r12, %rdi
	call	*16(%rax)
	cmpb	$0, 0(%rbp)
	je	.L1184
	movl	12(%r12), %eax
	leal	-1(%rax), %edx
	movl	%edx, 12(%r12)
.L1185:
	cmpl	$1, %eax
	je	.L1323
	.p2align 4,,10
	.p2align 3
.L1180:
	movq	592(%rbx), %rdi
	testq	%rdi, %rdi
	je	.L1186
.LEHB18:
	call	_ZN8asiodnp318MasterSessionStack16OnLowerLayerDownEv@PLT
.L1186:
	leaq	568(%rbx), %rdi
	call	_ZN7openpal8TimerRef6CancelEv@PLT
	movq	136(%rbx), %rbp
	cmpb	$0, 56(%rbp)
	jne	.L1187
	movq	0(%rbp), %rax
	movb	$1, 56(%rbp)
	movq	%rbp, %rdi
	call	*32(%rax)
.LEHE18:
	movq	16(%rbp), %r12
	testq	%r12, %r12
	je	.L1220
	leaq	8(%r12), %rax
	movq	%rax, (%rsp)
	movl	8(%r12), %eax
.L1190:
	testl	%eax, %eax
	je	.L1220
	movq	(%rsp), %rsi
	leal	1(%rax), %edx
	lock cmpxchgl	%edx, (%rsi)
	jne	.L1190
	movq	8(%rbp), %r14
	movq	24(%rbp), %r13
	movq	__libc_single_threaded@GOTPCREL(%rip), %rbp
	cmpb	$0, 0(%rbp)
	je	.L1324
	addl	$1, 8(%r12)
.L1191:
	movq	40(%r13), %rax
	movq	%rax, 16(%rsp)
	data16	leaq	_ZN4asio6detail15keyword_tss_ptrINS0_10call_stackINS0_15task_io_serviceENS0_27task_io_service_thread_infoEE7contextEE6value_E@tlsgd(%rip), %rdi
	.value	0x6666
	rex64
	call	__tls_get_addr@PLT
	movq	(%rax), %rax
	testq	%rax, %rax
	je	.L1192
	movq	8(%rax), %rax
	testq	%rax, %rax
	je	.L1192
	movq	(%rax), %r8
	testq	%r8, %r8
	je	.L1192
	movq	$0, (%rax)
	movzbl	(%r8), %eax
	cmpb	$39, %al
	jbe	.L1193
	movb	%al, 40(%r8)
	jmp	.L1194
	.p2align 4,,10
	.p2align 3
.L1193:
	movq	%r8, %rdi
	call	_ZdlPv@PLT
.L1192:
	movl	$41, %edi
.LEHB19:
	call	_Znwm@PLT
.LEHE19:
	movb	$40, 40(%rax)
	movq	%rax, %r8
.L1194:
	movq	%r12, %xmm6
	movq	_ZN4asio6detail18completion_handlerIZN7asiopal13IAsyncChannel8ShutdownEvEUlvE_E11do_completeEPNS0_15task_io_serviceEPNS0_25task_io_service_operationERKSt10error_codem@GOTPCREL(%rip), %rax
	movq	%r14, %xmm0
	movq	$0, (%r8)
	punpcklqdq	%xmm6, %xmm0
	movq	%r8, %xmm2
	movq	%r8, 8(%rsp)
	movq	%rax, 8(%r8)
	punpcklqdq	%xmm2, %xmm2
	movups	%xmm0, 24(%r8)
	movq	48(%r13), %rax
	movl	$0, 16(%r8)
	leaq	24(%rax), %rdi
	movaps	%xmm2, 32(%rsp)
	call	pthread_mutex_lock@PLT
	movq	48(%r13), %rdi
	movq	8(%rsp), %r8
	cmpb	$0, 64(%rdi)
	je	.L1195
	movq	$0, (%r8)
	movq	80(%rdi), %rax
	testq	%rax, %rax
	je	.L1196
	movq	%r8, (%rax)
	movq	%r8, 80(%rdi)
.L1197:
	addq	$24, %rdi
	call	pthread_mutex_unlock@PLT
.L1198:
	cmpb	$0, 0(%rbp)
	je	.L1325
	movl	8(%r12), %eax
	leal	-1(%rax), %edx
	movl	%edx, 8(%r12)
.L1214:
	cmpl	$1, %eax
	jne	.L1187
	movq	(%r12), %rax
	movq	%r12, %rdi
	call	*16(%rax)
	cmpb	$0, 0(%rbp)
	je	.L1217
	movl	12(%r12), %eax
	leal	-1(%rax), %edx
	movl	%edx, 12(%r12)
.L1218:
	cmpl	$1, %eax
	jne	.L1187
	movq	(%r12), %rax
	movq	%r12, %rdi
	call	*24(%rax)
	.p2align 4,,10
	.p2align 3
.L1187:
	movq	32(%rbx), %r12
	testq	%r12, %r12
	je	.L1220
	leaq	8(%r12), %rax
	movq	%rax, (%rsp)
	movl	8(%r12), %eax
.L1222:
	testl	%eax, %eax
	je	.L1220
	movq	(%rsp), %rcx
	leal	1(%rax), %edx
	lock cmpxchgl	%edx, (%rcx)
	jne	.L1222
	movq	__libc_single_threaded@GOTPCREL(%rip), %rbp
	movq	136(%rbx), %rax
	movq	24(%rbx), %r13
	cmpb	$0, 0(%rbp)
	movq	24(%rax), %rbx
	je	.L1326
	addl	$1, 8(%r12)
.L1223:
	movq	40(%rbx), %rax
	movq	%rax, 8(%rsp)
	data16	leaq	_ZN4asio6detail15keyword_tss_ptrINS0_10call_stackINS0_15task_io_serviceENS0_27task_io_service_thread_infoEE7contextEE6value_E@tlsgd(%rip), %rdi
	.value	0x6666
	rex64
	call	__tls_get_addr@PLT
	movq	(%rax), %rax
	testq	%rax, %rax
	je	.L1224
	movq	8(%rax), %rax
	testq	%rax, %rax
	je	.L1224
	movq	(%rax), %r14
	testq	%r14, %r14
	je	.L1224
	movq	$0, (%rax)
	movzbl	(%r14), %eax
	cmpb	$39, %al
	jbe	.L1225
	movb	%al, 40(%r14)
	jmp	.L1226
	.p2align 4,,10
	.p2align 3
.L1225:
	movq	%r14, %rdi
	call	_ZdlPv@PLT
.L1224:
	movl	$41, %edi
.LEHB20:
	call	_Znwm@PLT
.LEHE20:
	movb	$40, 40(%rax)
	movq	%rax, %r14
.L1226:
	movq	%r12, %xmm4
	movq	%r13, %xmm0
	leaq	_ZN4asio6detail18completion_handlerIZN8asiodnp311LinkSession12ShutdownImplEvEUlvE_E11do_completeEPNS0_15task_io_serviceEPNS0_25task_io_service_operationERKSt10error_codem(%rip), %rax
	movq	$0, (%r14)
	punpcklqdq	%xmm4, %xmm0
	movq	%rax, 8(%r14)
	movq	%r14, %xmm1
	movups	%xmm0, 24(%r14)
	movq	48(%rbx), %rax
	punpcklqdq	%xmm1, %xmm1
	movl	$0, 16(%r14)
	leaq	24(%rax), %rdi
	movaps	%xmm1, 16(%rsp)
	call	pthread_mutex_lock@PLT
	movq	48(%rbx), %rdi
	cmpb	$0, 64(%rdi)
	je	.L1227
	movq	$0, (%r14)
	movq	80(%rdi), %rax
	testq	%rax, %rax
	je	.L1228
	movq	%r14, (%rax)
	movq	%r14, 80(%rdi)
.L1229:
	addq	$24, %rdi
	call	pthread_mutex_unlock@PLT
.L1230:
	cmpb	$0, 0(%rbp)
	je	.L1327
	movl	8(%r12), %eax
	leal	-1(%rax), %edx
	movl	%edx, 8(%r12)
.L1246:
	cmpl	$1, %eax
	jne	.L1175
	movq	(%r12), %rax
	movq	%r12, %rdi
	call	*16(%rax)
	cmpb	$0, 0(%rbp)
	je	.L1249
	movl	12(%r12), %eax
	leal	-1(%rax), %edx
	movl	%edx, 12(%r12)
.L1250:
	cmpl	$1, %eax
	jne	.L1175
	movq	88(%rsp), %rax
	subq	%fs:40, %rax
	jne	.L1321
	movq	(%r12), %rax
	movq	%r12, %rdi
	movq	24(%rax), %rax
	addq	$104, %rsp
	.cfi_remember_state
	.cfi_def_cfa_offset 56
	popq	%rbx
	.cfi_def_cfa_offset 48
	popq	%rbp
	.cfi_def_cfa_offset 40
	popq	%r12
	.cfi_def_cfa_offset 32
	popq	%r13
	.cfi_def_cfa_offset 24
	popq	%r14
	.cfi_def_cfa_offset 16
	popq	%r15
	.cfi_def_cfa_offset 8
	jmp	*%rax
	.p2align 4,,10
	.p2align 3
.L1181:
	.cfi_restore_state
	movl	$-1, %eax
	lock xaddl	%eax, 8(%r12)
	jmp	.L1182
	.p2align 4,,10
	.p2align 3
.L1196:
	movdqa	32(%rsp), %xmm6
	movups	%xmm6, 72(%rdi)
	jmp	.L1197
	.p2align 4,,10
	.p2align 3
.L1227:
	movb	$1, 64(%rdi)
	addq	$24, %rdi
	call	pthread_mutex_unlock@PLT
	movq	48(%rbx), %r13
	movq	$0, (%r14)
	movq	%r13, %xmm5
	cmpq	$0, 96(%r13)
	punpcklqdq	%xmm5, %xmm5
	movaps	%xmm5, 32(%rsp)
	je	.L1231
	movq	96(%r13), %rax
	movq	%r14, (%rax)
	movq	%r14, 96(%r13)
.L1232:
	movq	8(%rsp), %rax
	movq	40(%rax), %rbx
	cmpb	$0, 40(%rbx)
	jne	.L1328
.L1233:
	lock addq	$1, 184(%rbx)
	leaq	48(%rbx), %r8
	movq	%r8, %rdi
	movq	%r8, 8(%rsp)
	call	pthread_mutex_lock@PLT
	cmpq	$0, 200(%rbx)
	movq	8(%rsp), %r8
	movq	$0, 0(%r13)
	je	.L1238
	movq	200(%rbx), %rax
	movq	%r13, (%rax)
	movq	%r13, 200(%rbx)
.L1239:
	movq	136(%rbx), %rax
	orq	$1, %rax
	movq	%rax, 136(%rbx)
	cmpq	$1, %rax
	je	.L1240
	movq	%r8, %rdi
	call	pthread_mutex_unlock@PLT
	leaq	88(%rbx), %rdi
	call	pthread_cond_signal@PLT
	jmp	.L1230
	.p2align 4,,10
	.p2align 3
.L1240:
	cmpb	$0, 176(%rbx)
	jne	.L1242
	movq	144(%rbx), %rax
	testq	%rax, %rax
	je	.L1242
	movb	$1, 176(%rbx)
	leaq	88(%rax), %rdx
	movq	%r15, %rcx
	movl	$3, %esi
	movq	%rdx, 68(%rsp)
	movl	88(%rax), %edx
	movl	$-2147483639, 64(%rsp)
	movl	96(%rax), %edi
	movq	%r8, 8(%rsp)
	call	epoll_ctl@PLT
	movq	8(%rsp), %r8
.L1242:
	movq	%r8, %rdi
	call	pthread_mutex_unlock@PLT
	jmp	.L1230
	.p2align 4,,10
	.p2align 3
.L1328:
	data16	leaq	_ZN4asio6detail15keyword_tss_ptrINS0_10call_stackINS0_15task_io_serviceENS0_27task_io_service_thread_infoEE7contextEE6value_E@tlsgd(%rip), %rdi
	.value	0x6666
	rex64
	call	__tls_get_addr@PLT
	movq	(%rax), %rax
	testq	%rax, %rax
	jne	.L1236
	jmp	.L1233
	.p2align 4,,10
	.p2align 3
.L1234:
	movq	16(%rax), %rax
	testq	%rax, %rax
	je	.L1233
.L1236:
	cmpq	(%rax), %rbx
	jne	.L1234
	movq	8(%rax), %rax
	testq	%rax, %rax
	je	.L1233
	addq	$1, 24(%rax)
	movq	$0, 0(%r13)
	movq	16(%rax), %rdx
	testq	%rdx, %rdx
	je	.L1237
	movq	%r13, (%rdx)
	movq	%r13, 16(%rax)
	jmp	.L1230
	.p2align 4,,10
	.p2align 3
.L1326:
	lock addl	$1, 8(%r12)
	jmp	.L1223
	.p2align 4,,10
	.p2align 3
.L1178:
	lock addl	$1, 8(%rax)
	jmp	.L1177
	.p2align 4,,10
	.p2align 3
.L1195:
	movb	$1, 64(%rdi)
	addq	$24, %rdi
	movq	%r8, 8(%rsp)
	call	pthread_mutex_unlock@PLT
	movq	48(%r13), %r14
	movq	8(%rsp), %r8
	movq	%r14, %xmm7
	cmpq	$0, 96(%r14)
	movq	$0, (%r8)
	punpcklqdq	%xmm7, %xmm7
	movaps	%xmm7, 48(%rsp)
	je	.L1199
	movq	96(%r14), %rax
	movq	%r8, (%rax)
	movq	%r8, 96(%r14)
.L1200:
	movq	16(%rsp), %rax
	movq	40(%rax), %r13
	cmpb	$0, 40(%r13)
	jne	.L1329
.L1201:
	lock addq	$1, 184(%r13)
	leaq	48(%r13), %r8
	movq	%r8, %rdi
	movq	%r8, 8(%rsp)
	call	pthread_mutex_lock@PLT
	cmpq	$0, 200(%r13)
	movq	8(%rsp), %r8
	movq	$0, (%r14)
	je	.L1206
	movq	200(%r13), %rax
	movq	%r14, (%rax)
	movq	%r14, 200(%r13)
.L1207:
	movq	136(%r13), %rax
	orq	$1, %rax
	movq	%rax, 136(%r13)
	cmpq	$1, %rax
	je	.L1208
	movq	%r8, %rdi
	call	pthread_mutex_unlock@PLT
	leaq	88(%r13), %rdi
	call	pthread_cond_signal@PLT
	jmp	.L1198
	.p2align 4,,10
	.p2align 3
.L1228:
	movdqa	16(%rsp), %xmm7
	movups	%xmm7, 72(%rdi)
	jmp	.L1229
	.p2align 4,,10
	.p2align 3
.L1327:
	movq	(%rsp), %rcx
	movl	$-1, %eax
	lock xaddl	%eax, (%rcx)
	jmp	.L1246
	.p2align 4,,10
	.p2align 3
.L1329:
	data16	leaq	_ZN4asio6detail15keyword_tss_ptrINS0_10call_stackINS0_15task_io_serviceENS0_27task_io_service_thread_infoEE7contextEE6value_E@tlsgd(%rip), %rdi
	.value	0x6666
	rex64
	call	__tls_get_addr@PLT
	movq	(%rax), %rax
	testq	%rax, %rax
	jne	.L1204
	jmp	.L1201
	.p2align 4,,10
	.p2align 3
.L1202:
	movq	16(%rax), %rax
	testq	%rax, %rax
	je	.L1201
.L1204:
	cmpq	(%rax), %r13
	jne	.L1202
	movq	8(%rax), %rax
	testq	%rax, %rax
	je	.L1201
	addq	$1, 24(%rax)
	movq	$0, (%r14)
	movq	16(%rax), %rdx
	testq	%rdx, %rdx
	je	.L1205
	movq	%r14, (%rdx)
	movq	%r14, 16(%rax)
	jmp	.L1198
	.p2align 4,,10
	.p2align 3
.L1324:
	lock addl	$1, 8(%r12)
	jmp	.L1191
	.p2align 4,,10
	.p2align 3
.L1325:
	movq	(%rsp), %rcx
	movl	$-1, %eax
	lock xaddl	%eax, (%rcx)
	jmp	.L1214
	.p2align 4,,10
	.p2align 3
.L1323:
	movq	(%r12), %rax
	movq	%r12, %rdi
	call	*24(%rax)
	jmp	.L1180
	.p2align 4,,10
	.p2align 3
.L1237:
	movdqa	32(%rsp), %xmm7
	movups	%xmm7, 8(%rax)
	jmp	.L1230
	.p2align 4,,10
	.p2align 3
.L1217:
	movl	$-1, %eax
	lock xaddl	%eax, 12(%r12)
	jmp	.L1218
	.p2align 4,,10
	.p2align 3
.L1206:
	movdqa	48(%rsp), %xmm6
	movups	%xmm6, 192(%r13)
	jmp	.L1207
	.p2align 4,,10
	.p2align 3
.L1231:
	movdqa	16(%rsp), %xmm7
	movups	%xmm7, 88(%r13)
	jmp	.L1232
	.p2align 4,,10
	.p2align 3
.L1208:
	cmpb	$0, 176(%r13)
	jne	.L1210
	movq	144(%r13), %rax
	testq	%rax, %rax
	je	.L1210
	movb	$1, 176(%r13)
	leaq	88(%rax), %rdx
	movq	%r15, %rcx
	movl	$3, %esi
	movq	%rdx, 68(%rsp)
	movl	88(%rax), %edx
	movl	$-2147483639, 64(%rsp)
	movl	96(%rax), %edi
	movq	%r8, 8(%rsp)
	call	epoll_ctl@PLT
	movq	8(%rsp), %r8
.L1210:
	movq	%r8, %rdi
	call	pthread_mutex_unlock@PLT
	jmp	.L1198
	.p2align 4,,10
	.p2align 3
.L1199:
	movdqa	32(%rsp), %xmm6
	movups	%xmm6, 88(%r14)
	jmp	.L1200
	.p2align 4,,10
	.p2align 3
.L1249:
	movl	$-1, %eax
	lock xaddl	%eax, 12(%r12)
	jmp	.L1250
	.p2align 4,,10
	.p2align 3
.L1184:
	movl	$-1, %eax
	lock xaddl	%eax, 12(%r12)
	jmp	.L1185
	.p2align 4,,10
	.p2align 3
.L1238:
	movdqa	32(%rsp), %xmm5
	movups	%xmm5, 192(%rbx)
	jmp	.L1239
	.p2align 4,,10
	.p2align 3
.L1205:
	movdqa	48(%rsp), %xmm5
	movups	%xmm5, 8(%rax)
	jmp	.L1198
.L1321:
	call	__stack_chk_fail@PLT
.L1261:
	endbr64
	movq	%rax, %rbp
	jmp	.L1245
.L1260:
	endbr64
	movq	%rax, %rbp
	jmp	.L1253
.L1262:
	endbr64
	movq	%rax, %rbp
	jmp	.L1245
	.section	.gcc_except_table
.LLSDA7975:
	.byte	0xff
	.byte	0xff
	.byte	0x1
	.uleb128 .LLSDACSE7975-.LLSDACSB7975
.LLSDACSB7975:
	.uleb128 .LEHB17-.LFB7975
	.uleb128 .LEHE17-.LEHB17
	.uleb128 .L1260-.LFB7975
	.uleb128 0
	.uleb128 .LEHB18-.LFB7975
	.uleb128 .LEHE18-.LEHB18
	.uleb128 0
	.uleb128 0
	.uleb128 .LEHB19-.LFB7975
	.uleb128 .LEHE19-.LEHB19
	.uleb128 .L1262-.LFB7975
	.uleb128 0
	.uleb128 .LEHB20-.LFB7975
	.uleb128 .LEHE20-.LEHB20
	.uleb128 .L1261-.LFB7975
	.uleb128 0
.LLSDACSE7975:
	.text
	.cfi_endproc
	.section	.text.unlikely
	.cfi_startproc
	.cfi_personality 0x9b,DW.ref.__gxx_personality_v0
	.cfi_lsda 0x1b,.LLSDAC7975
	.type	_ZN8asiodnp311LinkSession12ShutdownImplEv.cold, @function
_ZN8asiodnp311LinkSession12ShutdownImplEv.cold:
.LFSB7975:
.L1245:
	.cfi_def_cfa_offset 160
	.cfi_offset 3, -56
	.cfi_offset 6, -48
	.cfi_offset 12, -40
	.cfi_offset 13, -32
	.cfi_offset 14, -24
	.cfi_offset 15, -16
	movq	%r12, %rdi
	call	_ZNSt16_Sp_counted_baseILN9__gnu_cxx12_Lock_policyE2EE10_M_releaseEv@PLT
	movq	%r12, %rdi
	call	_ZNSt16_Sp_counted_baseILN9__gnu_cxx12_Lock_policyE2EE10_M_releaseEv@PLT
	movq	%rbp, %rdi
.LEHB21:
	call	_Unwind_Resume@PLT
.L1253:
	movq	72(%rsp), %rdi
	testq	%rdi, %rdi
	je	.L1254
	call	_ZNSt16_Sp_counted_baseILN9__gnu_cxx12_Lock_policyE2EE10_M_releaseEv@PLT
.L1254:
	movq	%rbp, %rdi
	call	_Unwind_Resume@PLT
.L1220:
	movl	$8, %edi
	call	__cxa_allocate_exception@PLT
	movq	_ZNSt12bad_weak_ptrD1Ev@GOTPCREL(%rip), %rdx
	movq	_ZTISt12bad_weak_ptr@GOTPCREL(%rip), %rsi
	movq	%rax, %rdi
	movq	_ZTVSt12bad_weak_ptr@GOTPCREL(%rip), %rax
	addq	$16, %rax
	movq	%rax, (%rdi)
	call	__cxa_throw@PLT
.LEHE21:
	.cfi_endproc
.LFE7975:
	.section	.gcc_except_table
.LLSDAC7975:
	.byte	0xff
	.byte	0xff
	.byte	0x1
	.uleb128 .LLSDACSEC7975-.LLSDACSBC7975
.LLSDACSBC7975:
	.uleb128 .LEHB21-.LCOLDB30
	.uleb128 .LEHE21-.LEHB21
	.uleb128 0
	.uleb128 0
.LLSDACSEC7975:
	.section	.text.unlikely
	.text
	.size	_ZN8asiodnp311LinkSession12ShutdownImplEv, .-_ZN8asiodnp311LinkSession12ShutdownImplEv
	.section	.text.unlikely
	.size	_ZN8asiodnp311LinkSession12ShutdownImplEv.cold, .-_ZN8asiodnp311LinkSession12ShutdownImplEv.cold
.LCOLDE30:
	.text
.LHOTE30:
	.p2align 4
	.type	_ZNSt17_Function_handlerIFvvEZN8asiodnp311LinkSession8ShutdownEvEUlvE_E9_M_invokeERKSt9_Any_data, @function
_ZNSt17_Function_handlerIFvvEZN8asiodnp311LinkSession8ShutdownEvEUlvE_E9_M_invokeERKSt9_Any_data:
.LFB9381:
	.cfi_startproc
	endbr64
	movq	(%rdi), %rax
	movq	(%rax), %rdi
	jmp	_ZN8asiodnp311LinkSession12ShutdownImplEv@PLT
	.cfi_endproc
.LFE9381:
	.size	_ZNSt17_Function_handlerIFvvEZN8asiodnp311LinkSession8ShutdownEvEUlvE_E9_M_invokeERKSt9_Any_data, .-_ZNSt17_Function_handlerIFvvEZN8asiodnp311LinkSession8ShutdownEvEUlvE_E9_M_invokeERKSt9_Any_data
	.section	.rodata.str1.8
	.align 8
.LC31:
	.string	"/home/saptarshi/Desktop/OpenPLC61850/utils/dnp3_src/cpp/libs/src/asiodnp3/LinkSession.cpp(96)"
	.section	.text.unlikely
	.align 2
.LCOLDB32:
	.text
.LHOTB32:
	.align 2
	.p2align 4
	.globl	_ZN8asiodnp311LinkSession14OnReadCompleteERKSt10error_codem
	.type	_ZN8asiodnp311LinkSession14OnReadCompleteERKSt10error_codem, @function
_ZN8asiodnp311LinkSession14OnReadCompleteERKSt10error_codem:
.LFB7998:
	.cfi_startproc
	.cfi_personality 0x9b,DW.ref.__gxx_personality_v0
	.cfi_lsda 0x1b,.LLSDA7998
	endbr64
	pushq	%r13
	.cfi_def_cfa_offset 16
	.cfi_offset 13, -16
	pushq	%r12
	.cfi_def_cfa_offset 24
	.cfi_offset 12, -24
	pushq	%rbp
	.cfi_def_cfa_offset 32
	.cfi_offset 6, -32
	movq	%rdi, %rbp
	pushq	%rbx
	.cfi_def_cfa_offset 40
	.cfi_offset 3, -40
	movq	%rsi, %rbx
	subq	$72, %rsp
	.cfi_def_cfa_offset 112
	movq	%fs:40, %rax
	movq	%rax, 56(%rsp)
	xorl	%eax, %eax
	movl	(%rsi), %eax
	testl	%eax, %eax
	je	.L1332
	leaq	64(%rdi), %r12
	leaq	12(%rsp), %r13
	movl	$4, 12(%rsp)
	movq	%r13, %rsi
	movq	%r12, %rdi
.LEHB22:
	call	_ZNK7openpal6Logger9IsEnabledERKNS_10LogFiltersE@PLT
	testb	%al, %al
	je	.L1333
	movq	8(%rbx), %rsi
	movl	(%rbx), %edx
	leaq	16(%rsp), %rdi
	movq	(%rsi), %rax
	call	*32(%rax)
.LEHE22:
	movq	16(%rsp), %rcx
	movq	%r13, %rsi
	movq	%r12, %rdi
	leaq	.LC31(%rip), %rdx
	movl	$4, 12(%rsp)
.LEHB23:
	call	_ZN7openpal6Logger3LogERKNS_10LogFiltersEPKcS5_@PLT
.LEHE23:
	movq	16(%rsp), %rdi
	leaq	32(%rsp), %rax
	cmpq	%rax, %rdi
	je	.L1333
	movq	32(%rsp), %rax
	leaq	1(%rax), %rsi
	call	_ZdlPvm@PLT
.L1333:
	movq	56(%rsp), %rax
	subq	%fs:40, %rax
	jne	.L1345
	addq	$72, %rsp
	.cfi_remember_state
	.cfi_def_cfa_offset 40
	movq	%rbp, %rdi
	popq	%rbx
	.cfi_def_cfa_offset 32
	popq	%rbp
	.cfi_def_cfa_offset 24
	popq	%r12
	.cfi_def_cfa_offset 16
	popq	%r13
	.cfi_def_cfa_offset 8
.LEHB24:
	jmp	_ZN8asiodnp311LinkSession12ShutdownImplEv@PLT
	.p2align 4,,10
	.p2align 3
.L1332:
	.cfi_restore_state
	movq	%rdx, %rsi
	leaq	16(%rdi), %rdx
	leaq	152(%rdi), %rdi
	call	_ZN8opendnp315LinkLayerParser6OnReadEjRNS_10IFrameSinkE@PLT
	movq	56(%rsp), %rax
	subq	%fs:40, %rax
	jne	.L1345
	addq	$72, %rsp
	.cfi_remember_state
	.cfi_def_cfa_offset 40
	movq	%rbp, %rdi
	popq	%rbx
	.cfi_def_cfa_offset 32
	popq	%rbp
	.cfi_def_cfa_offset 24
	popq	%r12
	.cfi_def_cfa_offset 16
	popq	%r13
	.cfi_def_cfa_offset 8
	jmp	_ZN8asiodnp311LinkSession12BeginReceiveEv@PLT
.LEHE24:
.L1345:
	.cfi_restore_state
	call	__stack_chk_fail@PLT
.L1340:
	endbr64
	movq	%rax, %rbp
	jmp	.L1337
	.section	.gcc_except_table
.LLSDA7998:
	.byte	0xff
	.byte	0xff
	.byte	0x1
	.uleb128 .LLSDACSE7998-.LLSDACSB7998
.LLSDACSB7998:
	.uleb128 .LEHB22-.LFB7998
	.uleb128 .LEHE22-.LEHB22
	.uleb128 0
	.uleb128 0
	.uleb128 .LEHB23-.LFB7998
	.uleb128 .LEHE23-.LEHB23
	.uleb128 .L1340-.LFB7998
	.uleb128 0
	.uleb128 .LEHB24-.LFB7998
	.uleb128 .LEHE24-.LEHB24
	.uleb128 0
	.uleb128 0
.LLSDACSE7998:
	.text
	.cfi_endproc
	.section	.text.unlikely
	.cfi_startproc
	.cfi_personality 0x9b,DW.ref.__gxx_personality_v0
	.cfi_lsda 0x1b,.LLSDAC7998
	.type	_ZN8asiodnp311LinkSession14OnReadCompleteERKSt10error_codem.cold, @function
_ZN8asiodnp311LinkSession14OnReadCompleteERKSt10error_codem.cold:
.LFSB7998:
.L1337:
	.cfi_def_cfa_offset 112
	.cfi_offset 3, -40
	.cfi_offset 6, -32
	.cfi_offset 12, -24
	.cfi_offset 13, -16
	movq	16(%rsp), %rdi
	leaq	32(%rsp), %rax
	cmpq	%rax, %rdi
	je	.L1338
	movq	32(%rsp), %rax
	leaq	1(%rax), %rsi
	call	_ZdlPvm@PLT
.L1338:
	movq	%rbp, %rdi
.LEHB25:
	call	_Unwind_Resume@PLT
.LEHE25:
	.cfi_endproc
.LFE7998:
	.section	.gcc_except_table
.LLSDAC7998:
	.byte	0xff
	.byte	0xff
	.byte	0x1
	.uleb128 .LLSDACSEC7998-.LLSDACSBC7998
.LLSDACSBC7998:
	.uleb128 .LEHB25-.LCOLDB32
	.uleb128 .LEHE25-.LEHB25
	.uleb128 0
	.uleb128 0
.LLSDACSEC7998:
	.section	.text.unlikely
	.text
	.size	_ZN8asiodnp311LinkSession14OnReadCompleteERKSt10error_codem, .-_ZN8asiodnp311LinkSession14OnReadCompleteERKSt10error_codem
	.section	.text.unlikely
	.size	_ZN8asiodnp311LinkSession14OnReadCompleteERKSt10error_codem.cold, .-_ZN8asiodnp311LinkSession14OnReadCompleteERKSt10error_codem.cold
.LCOLDE32:
	.text
.LHOTE32:
	.section	.rodata.str1.8
	.align 8
.LC33:
	.string	"/home/saptarshi/Desktop/OpenPLC61850/utils/dnp3_src/cpp/libs/src/asiodnp3/LinkSession.cpp(110)"
	.section	.text.unlikely
	.align 2
.LCOLDB34:
	.text
.LHOTB34:
	.align 2
	.p2align 4
	.globl	_ZN8asiodnp311LinkSession15OnWriteCompleteERKSt10error_codem
	.type	_ZN8asiodnp311LinkSession15OnWriteCompleteERKSt10error_codem, @function
_ZN8asiodnp311LinkSession15OnWriteCompleteERKSt10error_codem:
.LFB7999:
	.cfi_startproc
	.cfi_personality 0x9b,DW.ref.__gxx_personality_v0
	.cfi_lsda 0x1b,.LLSDA7999
	endbr64
	pushq	%r13
	.cfi_def_cfa_offset 16
	.cfi_offset 13, -16
	pushq	%r12
	.cfi_def_cfa_offset 24
	.cfi_offset 12, -24
	pushq	%rbp
	.cfi_def_cfa_offset 32
	.cfi_offset 6, -32
	movq	%rdi, %rbp
	pushq	%rbx
	.cfi_def_cfa_offset 40
	.cfi_offset 3, -40
	subq	$72, %rsp
	.cfi_def_cfa_offset 112
	movq	%fs:40, %rax
	movq	%rax, 56(%rsp)
	xorl	%eax, %eax
	movl	(%rsi), %eax
	testl	%eax, %eax
	je	.L1347
	leaq	64(%rdi), %r12
	leaq	12(%rsp), %r13
	movq	%rsi, %rbx
	movl	$4, 12(%rsp)
	movq	%r13, %rsi
	movq	%r12, %rdi
.LEHB26:
	call	_ZNK7openpal6Logger9IsEnabledERKNS_10LogFiltersE@PLT
	testb	%al, %al
	je	.L1348
	movq	8(%rbx), %rsi
	movl	(%rbx), %edx
	leaq	16(%rsp), %rdi
	movq	(%rsi), %rax
	call	*32(%rax)
.LEHE26:
	movq	16(%rsp), %rcx
	movq	%r13, %rsi
	movq	%r12, %rdi
	leaq	.LC33(%rip), %rdx
	movl	$4, 12(%rsp)
.LEHB27:
	call	_ZN7openpal6Logger3LogERKNS_10LogFiltersEPKcS5_@PLT
.LEHE27:
	movq	16(%rsp), %rdi
	leaq	32(%rsp), %rax
	cmpq	%rax, %rdi
	je	.L1348
	movq	32(%rsp), %rax
	leaq	1(%rax), %rsi
	call	_ZdlPvm@PLT
.L1348:
	movq	56(%rsp), %rax
	subq	%fs:40, %rax
	jne	.L1360
	addq	$72, %rsp
	.cfi_remember_state
	.cfi_def_cfa_offset 40
	movq	%rbp, %rdi
	popq	%rbx
	.cfi_def_cfa_offset 32
	popq	%rbp
	.cfi_def_cfa_offset 24
	popq	%r12
	.cfi_def_cfa_offset 16
	popq	%r13
	.cfi_def_cfa_offset 8
.LEHB28:
	jmp	_ZN8asiodnp311LinkSession12ShutdownImplEv@PLT
	.p2align 4,,10
	.p2align 3
.L1347:
	.cfi_restore_state
	movq	56(%rsp), %rax
	subq	%fs:40, %rax
	jne	.L1360
	movq	592(%rdi), %rdi
	addq	$72, %rsp
	.cfi_remember_state
	.cfi_def_cfa_offset 40
	movl	$1, %esi
	popq	%rbx
	.cfi_def_cfa_offset 32
	popq	%rbp
	.cfi_def_cfa_offset 24
	popq	%r12
	.cfi_def_cfa_offset 16
	popq	%r13
	.cfi_def_cfa_offset 8
	jmp	_ZN8asiodnp318MasterSessionStack18OnTransmitCompleteEb@PLT
.LEHE28:
.L1360:
	.cfi_restore_state
	call	__stack_chk_fail@PLT
.L1355:
	endbr64
	movq	%rax, %rbp
	jmp	.L1352
	.section	.gcc_except_table
.LLSDA7999:
	.byte	0xff
	.byte	0xff
	.byte	0x1
	.uleb128 .LLSDACSE7999-.LLSDACSB7999
.LLSDACSB7999:
	.uleb128 .LEHB26-.LFB7999
	.uleb128 .LEHE26-.LEHB26
	.uleb128 0
	.uleb128 0
	.uleb128 .LEHB27-.LFB7999
	.uleb128 .LEHE27-.LEHB27
	.uleb128 .L1355-.LFB7999
	.uleb128 0
	.uleb128 .LEHB28-.LFB7999
	.uleb128 .LEHE28-.LEHB28
	.uleb128 0
	.uleb128 0
.LLSDACSE7999:
	.text
	.cfi_endproc
	.section	.text.unlikely
	.cfi_startproc
	.cfi_personality 0x9b,DW.ref.__gxx_personality_v0
	.cfi_lsda 0x1b,.LLSDAC7999
	.type	_ZN8asiodnp311LinkSession15OnWriteCompleteERKSt10error_codem.cold, @function
_ZN8asiodnp311LinkSession15OnWriteCompleteERKSt10error_codem.cold:
.LFSB7999:
.L1352:
	.cfi_def_cfa_offset 112
	.cfi_offset 3, -40
	.cfi_offset 6, -32
	.cfi_offset 12, -24
	.cfi_offset 13, -16
	movq	16(%rsp), %rdi
	leaq	32(%rsp), %rax
	cmpq	%rax, %rdi
	je	.L1353
	movq	32(%rsp), %rax
	leaq	1(%rax), %rsi
	call	_ZdlPvm@PLT
.L1353:
	movq	%rbp, %rdi
.LEHB29:
	call	_Unwind_Resume@PLT
.LEHE29:
	.cfi_endproc
.LFE7999:
	.section	.gcc_except_table
.LLSDAC7999:
	.byte	0xff
	.byte	0xff
	.byte	0x1
	.uleb128 .LLSDACSEC7999-.LLSDACSBC7999
.LLSDACSBC7999:
	.uleb128 .LEHB29-.LCOLDB34
	.uleb128 .LEHE29-.LEHB29
	.uleb128 0
	.uleb128 0
.LLSDACSEC7999:
	.section	.text.unlikely
	.text
	.size	_ZN8asiodnp311LinkSession15OnWriteCompleteERKSt10error_codem, .-_ZN8asiodnp311LinkSession15OnWriteCompleteERKSt10error_codem
	.section	.text.unlikely
	.size	_ZN8asiodnp311LinkSession15OnWriteCompleteERKSt10error_codem.cold, .-_ZN8asiodnp311LinkSession15OnWriteCompleteERKSt10error_codem.cold
.LCOLDE34:
	.text
.LHOTE34:
	.section	.rodata.str1.8
	.align 8
.LC35:
	.string	"No master created. Closing socket."
	.align 8
.LC36:
	.string	"/home/saptarshi/Desktop/OpenPLC61850/utils/dnp3_src/cpp/libs/src/asiodnp3/LinkSession.cpp(145)"
	.text
	.align 2
	.p2align 4
	.globl	_ZN8asiodnp311LinkSession7OnFrameERKN8opendnp316LinkHeaderFieldsERKN7openpal6RSliceE
	.type	_ZN8asiodnp311LinkSession7OnFrameERKN8opendnp316LinkHeaderFieldsERKN7openpal6RSliceE, @function
_ZN8asiodnp311LinkSession7OnFrameERKN8opendnp316LinkHeaderFieldsERKN7openpal6RSliceE:
.LFB8001:
	.cfi_startproc
	endbr64
	pushq	%r13
	.cfi_def_cfa_offset 16
	.cfi_offset 13, -16
	movq	%rdx, %r13
	pushq	%r12
	.cfi_def_cfa_offset 24
	.cfi_offset 12, -24
	movq	%rsi, %r12
	pushq	%rbp
	.cfi_def_cfa_offset 32
	.cfi_offset 6, -32
	movq	%rdi, %rbp
	subq	$16, %rsp
	.cfi_def_cfa_offset 48
	movq	592(%rdi), %rdi
	movq	%fs:40, %rax
	movq	%rax, 8(%rsp)
	xorl	%eax, %eax
	testq	%rdi, %rdi
	je	.L1362
.L1371:
	movq	%r13, %rdx
	movq	%r12, %rsi
	call	_ZN8asiodnp318MasterSessionStack7OnFrameERKN8opendnp316LinkHeaderFieldsERKN7openpal6RSliceE@PLT
.L1363:
	movq	8(%rsp), %rax
	subq	%fs:40, %rax
	jne	.L1372
	addq	$16, %rsp
	.cfi_remember_state
	.cfi_def_cfa_offset 32
	movl	$1, %eax
	popq	%rbp
	.cfi_def_cfa_offset 24
	popq	%r12
	.cfi_def_cfa_offset 16
	popq	%r13
	.cfi_def_cfa_offset 8
	ret
	.p2align 4,,10
	.p2align 3
.L1362:
	.cfi_restore_state
	leaq	568(%rbp), %rdi
	call	_ZN7openpal8TimerRef6CancelEv@PLT
	movq	120(%rbp), %rdi
	movq	96(%rbp), %rsi
	movq	%r12, %rdx
	leaq	48(%rbp), %rcx
	movq	(%rdi), %rax
	call	*40(%rax)
	movq	592(%rbp), %rdi
	testq	%rdi, %rdi
	je	.L1364
	call	_ZN8asiodnp318MasterSessionStack14OnLowerLayerUpEv@PLT
	movq	592(%rbp), %rdi
	jmp	.L1371
	.p2align 4,,10
	.p2align 3
.L1364:
	leaq	64(%rbp), %r12
	leaq	4(%rsp), %r13
	movl	$4, 4(%rsp)
	movq	%r13, %rsi
	movq	%r12, %rdi
	call	_ZNK7openpal6Logger9IsEnabledERKNS_10LogFiltersE@PLT
	testb	%al, %al
	jne	.L1373
.L1365:
	movq	%rbp, %rdi
	call	_ZN8asiodnp311LinkSession12ShutdownImplEv@PLT
	jmp	.L1363
	.p2align 4,,10
	.p2align 3
.L1373:
	leaq	.LC35(%rip), %rcx
	leaq	.LC36(%rip), %rdx
	movq	%r13, %rsi
	movq	%r12, %rdi
	movl	$4, 4(%rsp)
	call	_ZN7openpal6Logger3LogERKNS_10LogFiltersEPKcS5_@PLT
	jmp	.L1365
.L1372:
	call	__stack_chk_fail@PLT
	.cfi_endproc
.LFE8001:
	.size	_ZN8asiodnp311LinkSession7OnFrameERKN8opendnp316LinkHeaderFieldsERKN7openpal6RSliceE, .-_ZN8asiodnp311LinkSession7OnFrameERKN8opendnp316LinkHeaderFieldsERKN7openpal6RSliceE
	.p2align 4
	.globl	_ZThn16_N8asiodnp311LinkSession7OnFrameERKN8opendnp316LinkHeaderFieldsERKN7openpal6RSliceE
	.type	_ZThn16_N8asiodnp311LinkSession7OnFrameERKN8opendnp316LinkHeaderFieldsERKN7openpal6RSliceE, @function
_ZThn16_N8asiodnp311LinkSession7OnFrameERKN8opendnp316LinkHeaderFieldsERKN7openpal6RSliceE:
.LFB10703:
	.cfi_startproc
	endbr64
	pushq	%r12
	.cfi_def_cfa_offset 16
	.cfi_offset 12, -16
	movq	%rdx, %r12
	pushq	%rbp
	.cfi_def_cfa_offset 24
	.cfi_offset 6, -24
	movq	%rsi, %rbp
	pushq	%rbx
	.cfi_def_cfa_offset 32
	.cfi_offset 3, -32
	movq	%rdi, %rbx
	subq	$16, %rsp
	.cfi_def_cfa_offset 48
	movq	576(%rdi), %rdi
	movq	%fs:40, %rax
	movq	%rax, 8(%rsp)
	xorl	%eax, %eax
	testq	%rdi, %rdi
	je	.L1375
.L1384:
	movq	%r12, %rdx
	movq	%rbp, %rsi
	call	_ZN8asiodnp318MasterSessionStack7OnFrameERKN8opendnp316LinkHeaderFieldsERKN7openpal6RSliceE@PLT
.L1376:
	movq	8(%rsp), %rax
	subq	%fs:40, %rax
	jne	.L1385
	addq	$16, %rsp
	.cfi_remember_state
	.cfi_def_cfa_offset 32
	movl	$1, %eax
	popq	%rbx
	.cfi_def_cfa_offset 24
	popq	%rbp
	.cfi_def_cfa_offset 16
	popq	%r12
	.cfi_def_cfa_offset 8
	ret
	.p2align 4,,10
	.p2align 3
.L1375:
	.cfi_restore_state
	leaq	552(%rbx), %rdi
	call	_ZN7openpal8TimerRef6CancelEv@PLT
	movq	104(%rbx), %rdi
	movq	80(%rbx), %rsi
	movq	%rbp, %rdx
	leaq	32(%rbx), %rcx
	movq	(%rdi), %rax
	call	*40(%rax)
	movq	576(%rbx), %rdi
	testq	%rdi, %rdi
	je	.L1377
	call	_ZN8asiodnp318MasterSessionStack14OnLowerLayerUpEv@PLT
	movq	576(%rbx), %rdi
	jmp	.L1384
	.p2align 4,,10
	.p2align 3
.L1377:
	leaq	48(%rbx), %rbp
	leaq	4(%rsp), %r12
	movl	$4, 4(%rsp)
	movq	%r12, %rsi
	movq	%rbp, %rdi
	call	_ZNK7openpal6Logger9IsEnabledERKNS_10LogFiltersE@PLT
	testb	%al, %al
	jne	.L1386
.L1378:
	leaq	-16(%rbx), %rdi
	call	_ZN8asiodnp311LinkSession12ShutdownImplEv@PLT
	jmp	.L1376
	.p2align 4,,10
	.p2align 3
.L1386:
	leaq	.LC35(%rip), %rcx
	leaq	.LC36(%rip), %rdx
	movq	%r12, %rsi
	movq	%rbp, %rdi
	movl	$4, 4(%rsp)
	call	_ZN7openpal6Logger3LogERKNS_10LogFiltersEPKcS5_@PLT
	jmp	.L1378
.L1385:
	call	__stack_chk_fail@PLT
	.cfi_endproc
.LFE10703:
	.size	_ZThn16_N8asiodnp311LinkSession7OnFrameERKN8opendnp316LinkHeaderFieldsERKN7openpal6RSliceE, .-_ZThn16_N8asiodnp311LinkSession7OnFrameERKN8opendnp316LinkHeaderFieldsERKN7openpal6RSliceE
	.section	.text.unlikely
.LCOLDB37:
	.text
.LHOTB37:
	.p2align 4
	.globl	_ZThn8_N8asiodnp311LinkSession15OnWriteCompleteERKSt10error_codem
	.type	_ZThn8_N8asiodnp311LinkSession15OnWriteCompleteERKSt10error_codem, @function
_ZThn8_N8asiodnp311LinkSession15OnWriteCompleteERKSt10error_codem:
.LFB10704:
	.cfi_startproc
	.cfi_personality 0x9b,DW.ref.__gxx_personality_v0
	.cfi_lsda 0x1b,.LLSDA10704
	endbr64
	pushq	%r13
	.cfi_def_cfa_offset 16
	.cfi_offset 13, -16
	pushq	%r12
	.cfi_def_cfa_offset 24
	.cfi_offset 12, -24
	pushq	%rbp
	.cfi_def_cfa_offset 32
	.cfi_offset 6, -32
	pushq	%rbx
	.cfi_def_cfa_offset 40
	.cfi_offset 3, -40
	movq	%rdi, %rbx
	subq	$72, %rsp
	.cfi_def_cfa_offset 112
	movq	%fs:40, %rax
	movq	%rax, 56(%rsp)
	xorl	%eax, %eax
	movl	(%rsi), %eax
	testl	%eax, %eax
	je	.L1388
	leaq	56(%rdi), %r12
	leaq	12(%rsp), %r13
	movq	%rsi, %rbp
	movl	$4, 12(%rsp)
	movq	%r13, %rsi
	movq	%r12, %rdi
.LEHB30:
	call	_ZNK7openpal6Logger9IsEnabledERKNS_10LogFiltersE@PLT
	testb	%al, %al
	je	.L1389
	movq	8(%rbp), %rsi
	movl	0(%rbp), %edx
	leaq	16(%rsp), %rdi
	movq	(%rsi), %rax
	call	*32(%rax)
.LEHE30:
	movq	16(%rsp), %rcx
	movq	%r13, %rsi
	movq	%r12, %rdi
	leaq	.LC33(%rip), %rdx
	movl	$4, 12(%rsp)
.LEHB31:
	call	_ZN7openpal6Logger3LogERKNS_10LogFiltersEPKcS5_@PLT
.LEHE31:
	movq	16(%rsp), %rdi
	leaq	32(%rsp), %rax
	cmpq	%rax, %rdi
	je	.L1389
	movq	32(%rsp), %rax
	leaq	1(%rax), %rsi
	call	_ZdlPvm@PLT
.L1389:
	movq	56(%rsp), %rax
	subq	%fs:40, %rax
	jne	.L1401
	addq	$72, %rsp
	.cfi_remember_state
	.cfi_def_cfa_offset 40
	leaq	-8(%rbx), %rdi
	popq	%rbx
	.cfi_def_cfa_offset 32
	popq	%rbp
	.cfi_def_cfa_offset 24
	popq	%r12
	.cfi_def_cfa_offset 16
	popq	%r13
	.cfi_def_cfa_offset 8
.LEHB32:
	jmp	_ZN8asiodnp311LinkSession12ShutdownImplEv@PLT
	.p2align 4,,10
	.p2align 3
.L1388:
	.cfi_restore_state
	movq	56(%rsp), %rax
	subq	%fs:40, %rax
	jne	.L1401
	movq	584(%rdi), %rdi
	addq	$72, %rsp
	.cfi_remember_state
	.cfi_def_cfa_offset 40
	movl	$1, %esi
	popq	%rbx
	.cfi_def_cfa_offset 32
	popq	%rbp
	.cfi_def_cfa_offset 24
	popq	%r12
	.cfi_def_cfa_offset 16
	popq	%r13
	.cfi_def_cfa_offset 8
	jmp	_ZN8asiodnp318MasterSessionStack18OnTransmitCompleteEb@PLT
.LEHE32:
.L1401:
	.cfi_restore_state
	call	__stack_chk_fail@PLT
.L1396:
	endbr64
	movq	%rax, %rbp
	jmp	.L1393
	.section	.gcc_except_table
.LLSDA10704:
	.byte	0xff
	.byte	0xff
	.byte	0x1
	.uleb128 .LLSDACSE10704-.LLSDACSB10704
.LLSDACSB10704:
	.uleb128 .LEHB30-.LFB10704
	.uleb128 .LEHE30-.LEHB30
	.uleb128 0
	.uleb128 0
	.uleb128 .LEHB31-.LFB10704
	.uleb128 .LEHE31-.LEHB31
	.uleb128 .L1396-.LFB10704
	.uleb128 0
	.uleb128 .LEHB32-.LFB10704
	.uleb128 .LEHE32-.LEHB32
	.uleb128 0
	.uleb128 0
.LLSDACSE10704:
	.text
	.cfi_endproc
	.section	.text.unlikely
	.cfi_startproc
	.cfi_personality 0x9b,DW.ref.__gxx_personality_v0
	.cfi_lsda 0x1b,.LLSDAC10704
	.type	_ZThn8_N8asiodnp311LinkSession15OnWriteCompleteERKSt10error_codem.cold, @function
_ZThn8_N8asiodnp311LinkSession15OnWriteCompleteERKSt10error_codem.cold:
.LFSB10704:
.L1393:
	.cfi_def_cfa_offset 112
	.cfi_offset 3, -40
	.cfi_offset 6, -32
	.cfi_offset 12, -24
	.cfi_offset 13, -16
	movq	16(%rsp), %rdi
	leaq	32(%rsp), %rax
	cmpq	%rax, %rdi
	je	.L1394
	movq	32(%rsp), %rax
	leaq	1(%rax), %rsi
	call	_ZdlPvm@PLT
.L1394:
	movq	%rbp, %rdi
.LEHB33:
	call	_Unwind_Resume@PLT
.LEHE33:
	.cfi_endproc
.LFE10704:
	.section	.gcc_except_table
.LLSDAC10704:
	.byte	0xff
	.byte	0xff
	.byte	0x1
	.uleb128 .LLSDACSEC10704-.LLSDACSBC10704
.LLSDACSBC10704:
	.uleb128 .LEHB33-.LCOLDB37
	.uleb128 .LEHE33-.LEHB33
	.uleb128 0
	.uleb128 0
.LLSDACSEC10704:
	.section	.text.unlikely
	.text
	.size	_ZThn8_N8asiodnp311LinkSession15OnWriteCompleteERKSt10error_codem, .-_ZThn8_N8asiodnp311LinkSession15OnWriteCompleteERKSt10error_codem
	.section	.text.unlikely
	.size	_ZThn8_N8asiodnp311LinkSession15OnWriteCompleteERKSt10error_codem.cold, .-_ZThn8_N8asiodnp311LinkSession15OnWriteCompleteERKSt10error_codem.cold
.LCOLDE37:
	.text
.LHOTE37:
	.section	.text.unlikely
.LCOLDB38:
	.text
.LHOTB38:
	.p2align 4
	.globl	_ZThn8_N8asiodnp311LinkSession14OnReadCompleteERKSt10error_codem
	.type	_ZThn8_N8asiodnp311LinkSession14OnReadCompleteERKSt10error_codem, @function
_ZThn8_N8asiodnp311LinkSession14OnReadCompleteERKSt10error_codem:
.LFB10705:
	.cfi_startproc
	.cfi_personality 0x9b,DW.ref.__gxx_personality_v0
	.cfi_lsda 0x1b,.LLSDA10705
	endbr64
	pushq	%r13
	.cfi_def_cfa_offset 16
	.cfi_offset 13, -16
	pushq	%r12
	.cfi_def_cfa_offset 24
	.cfi_offset 12, -24
	leaq	-8(%rdi), %r12
	pushq	%rbp
	.cfi_def_cfa_offset 32
	.cfi_offset 6, -32
	pushq	%rbx
	.cfi_def_cfa_offset 40
	.cfi_offset 3, -40
	movq	%rsi, %rbx
	subq	$72, %rsp
	.cfi_def_cfa_offset 112
	movq	%fs:40, %rax
	movq	%rax, 56(%rsp)
	xorl	%eax, %eax
	movl	(%rsi), %eax
	testl	%eax, %eax
	je	.L1403
	leaq	56(%rdi), %rbp
	leaq	12(%rsp), %r13
	movl	$4, 12(%rsp)
	movq	%r13, %rsi
	movq	%rbp, %rdi
.LEHB34:
	call	_ZNK7openpal6Logger9IsEnabledERKNS_10LogFiltersE@PLT
	testb	%al, %al
	je	.L1404
	movq	8(%rbx), %rsi
	movl	(%rbx), %edx
	leaq	16(%rsp), %rdi
	movq	(%rsi), %rax
	call	*32(%rax)
.LEHE34:
	movq	16(%rsp), %rcx
	movq	%r13, %rsi
	movq	%rbp, %rdi
	leaq	.LC31(%rip), %rdx
	movl	$4, 12(%rsp)
.LEHB35:
	call	_ZN7openpal6Logger3LogERKNS_10LogFiltersEPKcS5_@PLT
.LEHE35:
	movq	16(%rsp), %rdi
	leaq	32(%rsp), %rax
	cmpq	%rax, %rdi
	je	.L1404
	movq	32(%rsp), %rax
	leaq	1(%rax), %rsi
	call	_ZdlPvm@PLT
.L1404:
	movq	56(%rsp), %rax
	subq	%fs:40, %rax
	jne	.L1416
	addq	$72, %rsp
	.cfi_remember_state
	.cfi_def_cfa_offset 40
	movq	%r12, %rdi
	popq	%rbx
	.cfi_def_cfa_offset 32
	popq	%rbp
	.cfi_def_cfa_offset 24
	popq	%r12
	.cfi_def_cfa_offset 16
	popq	%r13
	.cfi_def_cfa_offset 8
.LEHB36:
	jmp	_ZN8asiodnp311LinkSession12ShutdownImplEv@PLT
	.p2align 4,,10
	.p2align 3
.L1403:
	.cfi_restore_state
	movq	%rdx, %rsi
	leaq	8(%rdi), %rdx
	addq	$144, %rdi
	call	_ZN8opendnp315LinkLayerParser6OnReadEjRNS_10IFrameSinkE@PLT
	movq	56(%rsp), %rax
	subq	%fs:40, %rax
	jne	.L1416
	addq	$72, %rsp
	.cfi_remember_state
	.cfi_def_cfa_offset 40
	movq	%r12, %rdi
	popq	%rbx
	.cfi_def_cfa_offset 32
	popq	%rbp
	.cfi_def_cfa_offset 24
	popq	%r12
	.cfi_def_cfa_offset 16
	popq	%r13
	.cfi_def_cfa_offset 8
	jmp	_ZN8asiodnp311LinkSession12BeginReceiveEv@PLT
.LEHE36:
.L1416:
	.cfi_restore_state
	call	__stack_chk_fail@PLT
.L1411:
	endbr64
	movq	%rax, %rbp
	jmp	.L1408
	.section	.gcc_except_table
.LLSDA10705:
	.byte	0xff
	.byte	0xff
	.byte	0x1
	.uleb128 .LLSDACSE10705-.LLSDACSB10705
.LLSDACSB10705:
	.uleb128 .LEHB34-.LFB10705
	.uleb128 .LEHE34-.LEHB34
	.uleb128 0
	.uleb128 0
	.uleb128 .LEHB35-.LFB10705
	.uleb128 .LEHE35-.LEHB35
	.uleb128 .L1411-.LFB10705
	.uleb128 0
	.uleb128 .LEHB36-.LFB10705
	.uleb128 .LEHE36-.LEHB36
	.uleb128 0
	.uleb128 0
.LLSDACSE10705:
	.text
	.cfi_endproc
	.section	.text.unlikely
	.cfi_startproc
	.cfi_personality 0x9b,DW.ref.__gxx_personality_v0
	.cfi_lsda 0x1b,.LLSDAC10705
	.type	_ZThn8_N8asiodnp311LinkSession14OnReadCompleteERKSt10error_codem.cold, @function
_ZThn8_N8asiodnp311LinkSession14OnReadCompleteERKSt10error_codem.cold:
.LFSB10705:
.L1408:
	.cfi_def_cfa_offset 112
	.cfi_offset 3, -40
	.cfi_offset 6, -32
	.cfi_offset 12, -24
	.cfi_offset 13, -16
	movq	16(%rsp), %rdi
	leaq	32(%rsp), %rax
	cmpq	%rax, %rdi
	je	.L1409
	movq	32(%rsp), %rax
	leaq	1(%rax), %rsi
	call	_ZdlPvm@PLT
.L1409:
	movq	%rbp, %rdi
.LEHB37:
	call	_Unwind_Resume@PLT
.LEHE37:
	.cfi_endproc
.LFE10705:
	.section	.gcc_except_table
.LLSDAC10705:
	.byte	0xff
	.byte	0xff
	.byte	0x1
	.uleb128 .LLSDACSEC10705-.LLSDACSBC10705
.LLSDACSBC10705:
	.uleb128 .LEHB37-.LCOLDB38
	.uleb128 .LEHE37-.LEHB37
	.uleb128 0
	.uleb128 0
.LLSDACSEC10705:
	.section	.text.unlikely
	.text
	.size	_ZThn8_N8asiodnp311LinkSession14OnReadCompleteERKSt10error_codem, .-_ZThn8_N8asiodnp311LinkSession14OnReadCompleteERKSt10error_codem
	.section	.text.unlikely
	.size	_ZThn8_N8asiodnp311LinkSession14OnReadCompleteERKSt10error_codem.cold, .-_ZThn8_N8asiodnp311LinkSession14OnReadCompleteERKSt10error_codem.cold
.LCOLDE38:
	.text
.LHOTE38:
	.section	.rodata.str1.8
	.align 8
.LC39:
	.string	"Timed out before receving a frame. Closing socket."
	.align 8
.LC40:
	.string	"/home/saptarshi/Desktop/OpenPLC61850/utils/dnp3_src/cpp/libs/src/asiodnp3/LinkSession.cpp(187)"
	.section	.text.unlikely
.LCOLDB41:
	.text
.LHOTB41:
	.p2align 4
	.type	_ZNSt17_Function_handlerIFvvEZN7openpal8TimerRef5StartIZN8asiodnp311LinkSession5StartEvEUlvE_EEbRKNS1_12TimeDurationERKT_EUlvE_E9_M_invokeERKSt9_Any_data, @function
_ZNSt17_Function_handlerIFvvEZN7openpal8TimerRef5StartIZN8asiodnp311LinkSession5StartEvEUlvE_EEbRKNS1_12TimeDurationERKT_EUlvE_E9_M_invokeERKSt9_Any_data:
.LFB9734:
	.cfi_startproc
	.cfi_personality 0x9b,DW.ref.__gxx_personality_v0
	.cfi_lsda 0x1b,.LLSDA9734
	endbr64
	pushq	%r15
	.cfi_def_cfa_offset 16
	.cfi_offset 15, -16
	pushq	%r14
	.cfi_def_cfa_offset 24
	.cfi_offset 14, -24
	pushq	%r13
	.cfi_def_cfa_offset 32
	.cfi_offset 13, -32
	pushq	%r12
	.cfi_def_cfa_offset 40
	.cfi_offset 12, -40
	pushq	%rbp
	.cfi_def_cfa_offset 48
	.cfi_offset 6, -48
	pushq	%rbx
	.cfi_def_cfa_offset 56
	.cfi_offset 3, -56
	subq	$88, %rsp
	.cfi_def_cfa_offset 144
	movq	(%rdi), %rbx
	movq	%fs:40, %rax
	movq	%rax, 72(%rsp)
	xorl	%eax, %eax
	leaq	60(%rsp), %r13
	movq	(%rbx), %rax
	movq	%r13, %rsi
	movq	$0, 8(%rax)
	movq	8(%rbx), %rax
	movl	$2, 60(%rsp)
	leaq	64(%rax), %rdi
.LEHB38:
	call	_ZNK7openpal6Logger9IsEnabledERKNS_10LogFiltersE@PLT
	testb	%al, %al
	jne	.L1486
.L1418:
	movq	8(%rbx), %rax
	movq	136(%rax), %rbx
	cmpb	$0, 56(%rbx)
	jne	.L1417
	movq	(%rbx), %rax
	movb	$1, 56(%rbx)
	movq	%rbx, %rdi
	call	*32(%rax)
.LEHE38:
	movq	16(%rbx), %rbp
	testq	%rbp, %rbp
	je	.L1420
	movl	8(%rbp), %eax
	leaq	8(%rbp), %r14
.L1422:
	testl	%eax, %eax
	je	.L1420
	leal	1(%rax), %edx
	lock cmpxchgl	%edx, (%r14)
	jne	.L1422
	movq	__libc_single_threaded@GOTPCREL(%rip), %rax
	movq	8(%rbx), %r12
	movq	24(%rbx), %rbx
	cmpb	$0, (%rax)
	je	.L1487
	addl	$1, 8(%rbp)
.L1423:
	movq	40(%rbx), %rax
	movq	%rax, 8(%rsp)
	data16	leaq	_ZN4asio6detail15keyword_tss_ptrINS0_10call_stackINS0_15task_io_serviceENS0_27task_io_service_thread_infoEE7contextEE6value_E@tlsgd(%rip), %rdi
	.value	0x6666
	rex64
	call	__tls_get_addr@PLT
	movq	(%rax), %rax
	testq	%rax, %rax
	je	.L1424
	movq	8(%rax), %rax
	testq	%rax, %rax
	je	.L1424
	movq	(%rax), %r15
	testq	%r15, %r15
	je	.L1424
	movq	$0, (%rax)
	movzbl	(%r15), %eax
	cmpb	$39, %al
	jbe	.L1425
	movb	%al, 40(%r15)
	jmp	.L1426
	.p2align 4,,10
	.p2align 3
.L1425:
	movq	%r15, %rdi
	call	_ZdlPv@PLT
.L1424:
	movl	$41, %edi
.LEHB39:
	call	_Znwm@PLT
.LEHE39:
	movb	$40, 40(%rax)
	movq	%rax, %r15
.L1426:
	movq	%rbp, %xmm2
	movq	_ZN4asio6detail18completion_handlerIZN7asiopal13IAsyncChannel8ShutdownEvEUlvE_E11do_completeEPNS0_15task_io_serviceEPNS0_25task_io_service_operationERKSt10error_codem@GOTPCREL(%rip), %rax
	movq	%r12, %xmm0
	movq	$0, (%r15)
	punpcklqdq	%xmm2, %xmm0
	movl	$0, 16(%r15)
	movq	%r15, %xmm1
	movq	%rax, 8(%r15)
	punpcklqdq	%xmm1, %xmm1
	movups	%xmm0, 24(%r15)
	movq	48(%rbx), %rax
	movaps	%xmm1, 16(%rsp)
	leaq	24(%rax), %rdi
	call	pthread_mutex_lock@PLT
	movq	48(%rbx), %rdi
	cmpb	$0, 64(%rdi)
	je	.L1427
	movq	$0, (%r15)
	movq	80(%rdi), %rax
	testq	%rax, %rax
	je	.L1428
	movq	%r15, (%rax)
	movq	%r15, 80(%rdi)
.L1429:
	addq	$24, %rdi
	call	pthread_mutex_unlock@PLT
.L1430:
	movq	__libc_single_threaded@GOTPCREL(%rip), %rax
	cmpb	$0, (%rax)
	je	.L1488
	movl	8(%rbp), %eax
	leal	-1(%rax), %edx
	movl	%edx, 8(%rbp)
.L1446:
	cmpl	$1, %eax
	je	.L1489
.L1417:
	movq	72(%rsp), %rax
	subq	%fs:40, %rax
	jne	.L1485
	addq	$88, %rsp
	.cfi_remember_state
	.cfi_def_cfa_offset 56
	popq	%rbx
	.cfi_def_cfa_offset 48
	popq	%rbp
	.cfi_def_cfa_offset 40
	popq	%r12
	.cfi_def_cfa_offset 32
	popq	%r13
	.cfi_def_cfa_offset 24
	popq	%r14
	.cfi_def_cfa_offset 16
	popq	%r15
	.cfi_def_cfa_offset 8
	ret
	.p2align 4,,10
	.p2align 3
.L1486:
	.cfi_restore_state
	movq	8(%rbx), %rax
	leaq	.LC39(%rip), %rcx
	movq	%r13, %rsi
	leaq	.LC40(%rip), %rdx
	movl	$2, 60(%rsp)
	leaq	64(%rax), %rdi
.LEHB40:
	call	_ZN7openpal6Logger3LogERKNS_10LogFiltersEPKcS5_@PLT
.LEHE40:
	jmp	.L1418
	.p2align 4,,10
	.p2align 3
.L1427:
	movb	$1, 64(%rdi)
	addq	$24, %rdi
	call	pthread_mutex_unlock@PLT
	movq	48(%rbx), %r12
	movq	$0, (%r15)
	movq	%r12, %xmm3
	cmpq	$0, 96(%r12)
	punpcklqdq	%xmm3, %xmm3
	movaps	%xmm3, 32(%rsp)
	je	.L1431
	movq	96(%r12), %rax
	movq	%r15, (%rax)
	movq	%r15, 96(%r12)
.L1432:
	movq	8(%rsp), %rax
	movq	40(%rax), %rbx
	cmpb	$0, 40(%rbx)
	jne	.L1490
.L1433:
	lock addq	$1, 184(%rbx)
	leaq	48(%rbx), %r15
	movq	%r15, %rdi
	call	pthread_mutex_lock@PLT
	cmpq	$0, 200(%rbx)
	movq	$0, (%r12)
	je	.L1438
	movq	200(%rbx), %rax
	movq	%r12, (%rax)
	movq	%r12, 200(%rbx)
.L1439:
	movq	136(%rbx), %rax
	orq	$1, %rax
	movq	%rax, 136(%rbx)
	cmpq	$1, %rax
	je	.L1440
	movq	%r15, %rdi
	call	pthread_mutex_unlock@PLT
	leaq	88(%rbx), %rdi
	call	pthread_cond_signal@PLT
	jmp	.L1430
	.p2align 4,,10
	.p2align 3
.L1487:
	lock addl	$1, 8(%rbp)
	jmp	.L1423
	.p2align 4,,10
	.p2align 3
.L1489:
	movq	0(%rbp), %rax
	movq	%rbp, %rdi
	call	*16(%rax)
	movq	__libc_single_threaded@GOTPCREL(%rip), %rax
	cmpb	$0, (%rax)
	je	.L1449
	movl	12(%rbp), %eax
	leal	-1(%rax), %edx
	movl	%edx, 12(%rbp)
.L1450:
	cmpl	$1, %eax
	jne	.L1417
	movq	72(%rsp), %rax
	subq	%fs:40, %rax
	jne	.L1485
	movq	0(%rbp), %rax
	movq	%rbp, %rdi
	movq	24(%rax), %rax
	addq	$88, %rsp
	.cfi_remember_state
	.cfi_def_cfa_offset 56
	popq	%rbx
	.cfi_def_cfa_offset 48
	popq	%rbp
	.cfi_def_cfa_offset 40
	popq	%r12
	.cfi_def_cfa_offset 32
	popq	%r13
	.cfi_def_cfa_offset 24
	popq	%r14
	.cfi_def_cfa_offset 16
	popq	%r15
	.cfi_def_cfa_offset 8
	jmp	*%rax
	.p2align 4,,10
	.p2align 3
.L1431:
	.cfi_restore_state
	movdqa	16(%rsp), %xmm5
	movups	%xmm5, 88(%r12)
	jmp	.L1432
	.p2align 4,,10
	.p2align 3
.L1490:
	data16	leaq	_ZN4asio6detail15keyword_tss_ptrINS0_10call_stackINS0_15task_io_serviceENS0_27task_io_service_thread_infoEE7contextEE6value_E@tlsgd(%rip), %rdi
	.value	0x6666
	rex64
	call	__tls_get_addr@PLT
	movq	(%rax), %rax
	testq	%rax, %rax
	jne	.L1436
	jmp	.L1433
	.p2align 4,,10
	.p2align 3
.L1434:
	movq	16(%rax), %rax
	testq	%rax, %rax
	je	.L1433
.L1436:
	cmpq	(%rax), %rbx
	jne	.L1434
	movq	8(%rax), %rax
	testq	%rax, %rax
	je	.L1433
	addq	$1, 24(%rax)
	movq	$0, (%r12)
	movq	16(%rax), %rdx
	testq	%rdx, %rdx
	je	.L1437
	movq	%r12, (%rdx)
	movq	%r12, 16(%rax)
	jmp	.L1430
	.p2align 4,,10
	.p2align 3
.L1428:
	movdqa	16(%rsp), %xmm4
	movups	%xmm4, 72(%rdi)
	jmp	.L1429
	.p2align 4,,10
	.p2align 3
.L1488:
	movl	$-1, %eax
	lock xaddl	%eax, (%r14)
	jmp	.L1446
	.p2align 4,,10
	.p2align 3
.L1440:
	cmpb	$0, 176(%rbx)
	jne	.L1442
	movq	144(%rbx), %rax
	testq	%rax, %rax
	je	.L1442
	movb	$1, 176(%rbx)
	leaq	88(%rax), %rdx
	movq	%r13, %rcx
	movl	$3, %esi
	movq	%rdx, 64(%rsp)
	movl	88(%rax), %edx
	movl	$-2147483639, 60(%rsp)
	movl	96(%rax), %edi
	call	epoll_ctl@PLT
.L1442:
	movq	%r15, %rdi
	call	pthread_mutex_unlock@PLT
	jmp	.L1430
	.p2align 4,,10
	.p2align 3
.L1449:
	movl	$-1, %eax
	lock xaddl	%eax, 12(%rbp)
	jmp	.L1450
	.p2align 4,,10
	.p2align 3
.L1438:
	movdqa	32(%rsp), %xmm6
	movups	%xmm6, 192(%rbx)
	jmp	.L1439
	.p2align 4,,10
	.p2align 3
.L1437:
	movdqa	32(%rsp), %xmm7
	movups	%xmm7, 8(%rax)
	jmp	.L1430
.L1485:
	call	__stack_chk_fail@PLT
.L1456:
	endbr64
	movq	%rax, %r12
	jmp	.L1445
	.section	.gcc_except_table
.LLSDA9734:
	.byte	0xff
	.byte	0xff
	.byte	0x1
	.uleb128 .LLSDACSE9734-.LLSDACSB9734
.LLSDACSB9734:
	.uleb128 .LEHB38-.LFB9734
	.uleb128 .LEHE38-.LEHB38
	.uleb128 0
	.uleb128 0
	.uleb128 .LEHB39-.LFB9734
	.uleb128 .LEHE39-.LEHB39
	.uleb128 .L1456-.LFB9734
	.uleb128 0
	.uleb128 .LEHB40-.LFB9734
	.uleb128 .LEHE40-.LEHB40
	.uleb128 0
	.uleb128 0
.LLSDACSE9734:
	.text
	.cfi_endproc
	.section	.text.unlikely
	.cfi_startproc
	.cfi_personality 0x9b,DW.ref.__gxx_personality_v0
	.cfi_lsda 0x1b,.LLSDAC9734
	.type	_ZNSt17_Function_handlerIFvvEZN7openpal8TimerRef5StartIZN8asiodnp311LinkSession5StartEvEUlvE_EEbRKNS1_12TimeDurationERKT_EUlvE_E9_M_invokeERKSt9_Any_data.cold, @function
_ZNSt17_Function_handlerIFvvEZN7openpal8TimerRef5StartIZN8asiodnp311LinkSession5StartEvEUlvE_EEbRKNS1_12TimeDurationERKT_EUlvE_E9_M_invokeERKSt9_Any_data.cold:
.LFSB9734:
.L1420:
	.cfi_def_cfa_offset 144
	.cfi_offset 3, -56
	.cfi_offset 6, -48
	.cfi_offset 12, -40
	.cfi_offset 13, -32
	.cfi_offset 14, -24
	.cfi_offset 15, -16
	movl	$8, %edi
	call	__cxa_allocate_exception@PLT
	movq	_ZNSt12bad_weak_ptrD1Ev@GOTPCREL(%rip), %rdx
	movq	_ZTISt12bad_weak_ptr@GOTPCREL(%rip), %rsi
	movq	%rax, %rdi
	movq	_ZTVSt12bad_weak_ptr@GOTPCREL(%rip), %rax
	addq	$16, %rax
	movq	%rax, (%rdi)
.LEHB41:
	call	__cxa_throw@PLT
.L1445:
	movq	%rbp, %rdi
	call	_ZNSt16_Sp_counted_baseILN9__gnu_cxx12_Lock_policyE2EE10_M_releaseEv@PLT
	movq	%rbp, %rdi
	call	_ZNSt16_Sp_counted_baseILN9__gnu_cxx12_Lock_policyE2EE10_M_releaseEv@PLT
	movq	%r12, %rdi
	call	_Unwind_Resume@PLT
.LEHE41:
	.cfi_endproc
.LFE9734:
	.section	.gcc_except_table
.LLSDAC9734:
	.byte	0xff
	.byte	0xff
	.byte	0x1
	.uleb128 .LLSDACSEC9734-.LLSDACSBC9734
.LLSDACSBC9734:
	.uleb128 .LEHB41-.LCOLDB41
	.uleb128 .LEHE41-.LEHB41
	.uleb128 0
	.uleb128 0
.LLSDACSEC9734:
	.section	.text.unlikely
	.text
	.size	_ZNSt17_Function_handlerIFvvEZN7openpal8TimerRef5StartIZN8asiodnp311LinkSession5StartEvEUlvE_EEbRKNS1_12TimeDurationERKT_EUlvE_E9_M_invokeERKSt9_Any_data, .-_ZNSt17_Function_handlerIFvvEZN7openpal8TimerRef5StartIZN8asiodnp311LinkSession5StartEvEUlvE_EEbRKNS1_12TimeDurationERKT_EUlvE_E9_M_invokeERKSt9_Any_data
	.section	.text.unlikely
	.size	_ZNSt17_Function_handlerIFvvEZN7openpal8TimerRef5StartIZN8asiodnp311LinkSession5StartEvEUlvE_EEbRKNS1_12TimeDurationERKT_EUlvE_E9_M_invokeERKSt9_Any_data.cold, .-_ZNSt17_Function_handlerIFvvEZN7openpal8TimerRef5StartIZN8asiodnp311LinkSession5StartEvEUlvE_EEbRKNS1_12TimeDurationERKT_EUlvE_E9_M_invokeERKSt9_Any_data.cold
.LCOLDE41:
	.text
.LHOTE41:
	.section	.text.unlikely
.LCOLDB42:
	.text
.LHOTB42:
	.p2align 4
	.globl	_ZThn48_N8asiodnp311LinkSession13AcceptSessionERKNSt7__cxx1112basic_stringIcSt11char_traitsIcESaIcEEESt10shared_ptrIN8opendnp311ISOEHandlerEES9_INSA_18IMasterApplicationEERKNS_17MasterStackConfigE
	.type	_ZThn48_N8asiodnp311LinkSession13AcceptSessionERKNSt7__cxx1112basic_stringIcSt11char_traitsIcESaIcEEESt10shared_ptrIN8opendnp311ISOEHandlerEES9_INSA_18IMasterApplicationEERKNS_17MasterStackConfigE, @function
_ZThn48_N8asiodnp311LinkSession13AcceptSessionERKNSt7__cxx1112basic_stringIcSt11char_traitsIcESaIcEEESt10shared_ptrIN8opendnp311ISOEHandlerEES9_INSA_18IMasterApplicationEERKNS_17MasterStackConfigE:
.LFB10710:
	.cfi_startproc
	.cfi_personality 0x9b,DW.ref.__gxx_personality_v0
	.cfi_lsda 0x1b,.LLSDA10710
	endbr64
	pushq	%rbp
	.cfi_def_cfa_offset 16
	.cfi_offset 6, -16
	movq	%rsp, %rbp
	.cfi_def_cfa_register 6
	pushq	%r15
	pushq	%r14
	pushq	%r13
	pushq	%r12
	.cfi_offset 15, -24
	.cfi_offset 14, -32
	.cfi_offset 13, -40
	.cfi_offset 12, -48
	movq	%rdi, %r12
	pushq	%rbx
	.cfi_offset 3, -56
	movq	%rsi, %rbx
	subq	$56, %rsp
	movq	%fs:40, %rax
	movq	%rax, -56(%rbp)
	xorl	%eax, %eax
	cmpq	$0, 544(%rsi)
	je	.L1492
	leaq	16(%rsi), %rax
	leaq	-80(%rbp), %r13
	movl	$2, -80(%rbp)
	movq	%r13, %rsi
	movq	%rax, %rdi
	movq	%rax, %rbx
.LEHB42:
	call	_ZNK7openpal6Logger9IsEnabledERKNS_10LogFiltersE@PLT
	testb	%al, %al
	jne	.L1548
.L1493:
	pxor	%xmm0, %xmm0
	movups	%xmm0, (%r12)
.L1491:
	movq	-56(%rbp), %rax
	subq	%fs:40, %rax
	jne	.L1549
	leaq	-40(%rbp), %rsp
	movq	%r12, %rax
	popq	%rbx
	popq	%r12
	popq	%r13
	popq	%r14
	popq	%r15
	popq	%rbp
	.cfi_remember_state
	.cfi_def_cfa 7, 8
	ret
	.p2align 4,,10
	.p2align 3
.L1548:
	.cfi_restore_state
	leaq	.LC26(%rip), %rcx
	leaq	.LC27(%rip), %rdx
	movq	%r13, %rsi
	movq	%rbx, %rdi
	movl	$2, -80(%rbp)
	call	_ZN7openpal6Logger3LogERKNS_10LogFiltersEPKcS5_@PLT
	jmp	.L1493
	.p2align 4,,10
	.p2align 3
.L1492:
	movq	32(%rsi), %rdi
	movq	%rdx, %rsi
	movq	%rcx, %r14
	movq	%r8, %r13
	movq	%r9, %r15
	call	_ZNSt7__cxx1112basic_stringIcSt11char_traitsIcESaIcEE9_M_assignERKS4_@PLT
.LEHE42:
	movq	-16(%rbx), %rax
	leaq	-48(%rbx), %rcx
	movq	%rax, -72(%rbp)
	testq	%rax, %rax
	je	.L1495
	leaq	8(%rax), %rdx
	movl	8(%rax), %eax
.L1497:
	testl	%eax, %eax
	je	.L1495
	leal	1(%rax), %esi
	lock cmpxchgl	%esi, (%rdx)
	jne	.L1497
	movq	-24(%rbx), %rax
	leaq	-96(%rbp), %rdi
	leaq	16(%rbx), %rsi
	movq	%r13, %r8
	leaq	-80(%rbp), %r9
	movq	%rax, -80(%rbp)
	movq	88(%rbx), %rax
	pushq	%r15
	pushq	%rcx
	leaq	24(%rax), %rdx
	movq	%r14, %rcx
.LEHB43:
	.cfi_escape 0x2e,0x10
	call	_ZN8asiodnp318MasterSessionStack6CreateERKN7openpal6LoggerERKSt10shared_ptrIN7asiopal8ExecutorEERKS5_IN8opendnp311ISOEHandlerEERKS5_INSB_18IMasterApplicationEERKS5_INS_11LinkSessionEERNSB_7ILinkTxERKNS_17MasterStackConfigE@PLT
.LEHE43:
	popq	%rax
	movdqa	-96(%rbp), %xmm0
	pxor	%xmm1, %xmm1
	movq	552(%rbx), %rax
	popq	%rdx
	movaps	%xmm1, -96(%rbp)
	movups	%xmm0, 544(%rbx)
	movq	%rax, %r15
	testq	%rax, %rax
	je	.L1499
	movq	__libc_single_threaded@GOTPCREL(%rip), %r13
	cmpb	$0, 0(%r13)
	je	.L1500
	movl	8(%r15), %eax
	leal	-1(%rax), %edx
	movl	%edx, 8(%r15)
	cmpl	$1, %eax
	jne	.L1499
.L1504:
	movq	(%r15), %rax
	movq	%r15, %rdi
	call	*16(%rax)
	cmpb	$0, 0(%r13)
	je	.L1550
	movl	12(%r15), %eax
	leal	-1(%rax), %edx
	movl	%edx, 12(%r15)
.L1506:
	cmpl	$1, %eax
	je	.L1551
.L1505:
	movq	-88(%rbp), %rcx
	movq	%rcx, %r14
	testq	%rcx, %rcx
	je	.L1499
	cmpb	$0, 0(%r13)
	je	.L1508
	movl	8(%rcx), %eax
	leal	-1(%rax), %edx
	movl	%edx, 8(%rcx)
.L1509:
	cmpl	$1, %eax
	jne	.L1499
	movq	(%r14), %rax
	movq	%r14, %rdi
	call	*16(%rax)
	cmpb	$0, 0(%r13)
	je	.L1510
	movl	12(%r14), %eax
	leal	-1(%rax), %edx
	movl	%edx, 12(%r14)
.L1511:
	cmpl	$1, %eax
	jne	.L1499
	movq	(%r14), %rax
	movq	%r14, %rdi
	call	*24(%rax)
	.p2align 4,,10
	.p2align 3
.L1499:
	movq	-72(%rbp), %rax
	movq	%rax, %r15
	testq	%rax, %rax
	je	.L1513
	movq	__libc_single_threaded@GOTPCREL(%rip), %r13
	cmpb	$0, 0(%r13)
	je	.L1514
	movl	8(%rax), %eax
	leal	-1(%rax), %edx
	movl	%edx, 8(%r15)
.L1515:
	cmpl	$1, %eax
	jne	.L1513
	movq	(%r15), %rax
	movq	%r15, %rdi
	call	*16(%rax)
	cmpb	$0, 0(%r13)
	je	.L1517
	movl	12(%r15), %eax
	leal	-1(%rax), %edx
	movl	%edx, 12(%r15)
.L1518:
	cmpl	$1, %eax
	jne	.L1513
	movq	(%r15), %rax
	movq	%r15, %rdi
	call	*24(%rax)
	.p2align 4,,10
	.p2align 3
.L1513:
	movdqu	544(%rbx), %xmm2
	movups	%xmm2, (%r12)
	movq	8(%r12), %rax
	testq	%rax, %rax
	je	.L1491
	movq	__libc_single_threaded@GOTPCREL(%rip), %rdx
	cmpb	$0, (%rdx)
	je	.L1519
	addl	$1, 8(%rax)
	jmp	.L1491
	.p2align 4,,10
	.p2align 3
.L1519:
	lock addl	$1, 8(%rax)
	jmp	.L1491
	.p2align 4,,10
	.p2align 3
.L1500:
	lock subl	$1, 8(%r15)
	jne	.L1505
	jmp	.L1504
	.p2align 4,,10
	.p2align 3
.L1508:
	movl	$-1, %eax
	lock xaddl	%eax, 8(%rcx)
	jmp	.L1509
	.p2align 4,,10
	.p2align 3
.L1514:
	movl	$-1, %eax
	lock xaddl	%eax, 8(%r15)
	jmp	.L1515
	.p2align 4,,10
	.p2align 3
.L1551:
	movq	(%r15), %rax
	movq	%r15, %rdi
	call	*24(%rax)
	jmp	.L1505
	.p2align 4,,10
	.p2align 3
.L1517:
	movl	$-1, %eax
	lock xaddl	%eax, 12(%r15)
	jmp	.L1518
	.p2align 4,,10
	.p2align 3
.L1510:
	movl	$-1, %eax
	lock xaddl	%eax, 12(%r14)
	jmp	.L1511
	.p2align 4,,10
	.p2align 3
.L1550:
	movl	$-1, %eax
	lock xaddl	%eax, 12(%r15)
	jmp	.L1506
.L1549:
	call	__stack_chk_fail@PLT
.L1524:
	endbr64
	movq	%rax, %rbx
	jmp	.L1520
	.section	.gcc_except_table
.LLSDA10710:
	.byte	0xff
	.byte	0xff
	.byte	0x1
	.uleb128 .LLSDACSE10710-.LLSDACSB10710
.LLSDACSB10710:
	.uleb128 .LEHB42-.LFB10710
	.uleb128 .LEHE42-.LEHB42
	.uleb128 0
	.uleb128 0
	.uleb128 .LEHB43-.LFB10710
	.uleb128 .LEHE43-.LEHB43
	.uleb128 .L1524-.LFB10710
	.uleb128 0
.LLSDACSE10710:
	.text
	.cfi_endproc
	.section	.text.unlikely
	.cfi_startproc
	.cfi_personality 0x9b,DW.ref.__gxx_personality_v0
	.cfi_lsda 0x1b,.LLSDAC10710
	.type	_ZThn48_N8asiodnp311LinkSession13AcceptSessionERKNSt7__cxx1112basic_stringIcSt11char_traitsIcESaIcEEESt10shared_ptrIN8opendnp311ISOEHandlerEES9_INSA_18IMasterApplicationEERKNS_17MasterStackConfigE.cold, @function
_ZThn48_N8asiodnp311LinkSession13AcceptSessionERKNSt7__cxx1112basic_stringIcSt11char_traitsIcESaIcEEESt10shared_ptrIN8opendnp311ISOEHandlerEES9_INSA_18IMasterApplicationEERKNS_17MasterStackConfigE.cold:
.LFSB10710:
.L1495:
	.cfi_def_cfa 6, 16
	.cfi_offset 3, -56
	.cfi_offset 6, -16
	.cfi_offset 12, -48
	.cfi_offset 13, -40
	.cfi_offset 14, -32
	.cfi_offset 15, -24
	movl	$8, %edi
	call	__cxa_allocate_exception@PLT
	movq	_ZNSt12bad_weak_ptrD1Ev@GOTPCREL(%rip), %rdx
	movq	_ZTISt12bad_weak_ptr@GOTPCREL(%rip), %rsi
	movq	%rax, %rdi
	movq	_ZTVSt12bad_weak_ptr@GOTPCREL(%rip), %rax
	addq	$16, %rax
	movq	%rax, (%rdi)
.LEHB44:
	call	__cxa_throw@PLT
.L1520:
	movq	-72(%rbp), %rdi
	testq	%rdi, %rdi
	je	.L1521
	call	_ZNSt16_Sp_counted_baseILN9__gnu_cxx12_Lock_policyE2EE10_M_releaseEv@PLT
.L1521:
	movq	%rbx, %rdi
	call	_Unwind_Resume@PLT
.LEHE44:
	.cfi_endproc
.LFE10710:
	.section	.gcc_except_table
.LLSDAC10710:
	.byte	0xff
	.byte	0xff
	.byte	0x1
	.uleb128 .LLSDACSEC10710-.LLSDACSBC10710
.LLSDACSBC10710:
	.uleb128 .LEHB44-.LCOLDB42
	.uleb128 .LEHE44-.LEHB44
	.uleb128 0
	.uleb128 0
.LLSDACSEC10710:
	.section	.text.unlikely
	.text
	.size	_ZThn48_N8asiodnp311LinkSession13AcceptSessionERKNSt7__cxx1112basic_stringIcSt11char_traitsIcESaIcEEESt10shared_ptrIN8opendnp311ISOEHandlerEES9_INSA_18IMasterApplicationEERKNS_17MasterStackConfigE, .-_ZThn48_N8asiodnp311LinkSession13AcceptSessionERKNSt7__cxx1112basic_stringIcSt11char_traitsIcESaIcEEESt10shared_ptrIN8opendnp311ISOEHandlerEES9_INSA_18IMasterApplicationEERKNS_17MasterStackConfigE
	.section	.text.unlikely
	.size	_ZThn48_N8asiodnp311LinkSession13AcceptSessionERKNSt7__cxx1112basic_stringIcSt11char_traitsIcESaIcEEESt10shared_ptrIN8opendnp311ISOEHandlerEES9_INSA_18IMasterApplicationEERKNS_17MasterStackConfigE.cold, .-_ZThn48_N8asiodnp311LinkSession13AcceptSessionERKNSt7__cxx1112basic_stringIcSt11char_traitsIcESaIcEEESt10shared_ptrIN8opendnp311ISOEHandlerEES9_INSA_18IMasterApplicationEERKNS_17MasterStackConfigE.cold
.LCOLDE42:
	.text
.LHOTE42:
	.section	.text._ZN4asio6detail18completion_handlerIZN7asiopal13IAsyncChannel8ShutdownEvEUlvE_E3ptr5resetEv,"axG",@progbits,_ZN4asio6detail18completion_handlerIZN7asiopal13IAsyncChannel8ShutdownEvEUlvE_E3ptr5resetEv,comdat
	.align 2
	.p2align 4
	.weak	_ZN4asio6detail18completion_handlerIZN7asiopal13IAsyncChannel8ShutdownEvEUlvE_E3ptr5resetEv
	.type	_ZN4asio6detail18completion_handlerIZN7asiopal13IAsyncChannel8ShutdownEvEUlvE_E3ptr5resetEv, @function
_ZN4asio6detail18completion_handlerIZN7asiopal13IAsyncChannel8ShutdownEvEUlvE_E3ptr5resetEv:
.LFB9861:
	.cfi_startproc
	endbr64
	pushq	%r12
	.cfi_def_cfa_offset 16
	.cfi_offset 12, -16
	pushq	%rbp
	.cfi_def_cfa_offset 24
	.cfi_offset 6, -24
	pushq	%rbx
	.cfi_def_cfa_offset 32
	.cfi_offset 3, -32
	movq	16(%rdi), %rax
	movq	%rdi, %rbx
	testq	%rax, %rax
	je	.L1553
	movq	32(%rax), %rbp
	testq	%rbp, %rbp
	je	.L1555
	movq	__libc_single_threaded@GOTPCREL(%rip), %r12
	cmpb	$0, (%r12)
	je	.L1556
	movl	8(%rbp), %eax
	leal	-1(%rax), %edx
	movl	%edx, 8(%rbp)
.L1557:
	cmpl	$1, %eax
	je	.L1577
.L1555:
	movq	$0, 16(%rbx)
.L1553:
	movq	8(%rbx), %rbp
	testq	%rbp, %rbp
	je	.L1552
	data16	leaq	_ZN4asio6detail15keyword_tss_ptrINS0_10call_stackINS0_15task_io_serviceENS0_27task_io_service_thread_infoEE7contextEE6value_E@tlsgd(%rip), %rdi
	.value	0x6666
	rex64
	call	__tls_get_addr@PLT
	movq	(%rax), %rax
	testq	%rax, %rax
	je	.L1562
	movq	8(%rax), %rax
	testq	%rax, %rax
	je	.L1562
	cmpq	$0, (%rax)
	je	.L1578
.L1562:
	movq	%rbp, %rdi
	call	_ZdlPv@PLT
.L1563:
	movq	$0, 8(%rbx)
.L1552:
	popq	%rbx
	.cfi_remember_state
	.cfi_def_cfa_offset 24
	popq	%rbp
	.cfi_def_cfa_offset 16
	popq	%r12
	.cfi_def_cfa_offset 8
	ret
	.p2align 4,,10
	.p2align 3
.L1577:
	.cfi_restore_state
	movq	0(%rbp), %rax
	movq	%rbp, %rdi
	call	*16(%rax)
	cmpb	$0, (%r12)
	je	.L1559
	movl	12(%rbp), %eax
	leal	-1(%rax), %edx
	movl	%edx, 12(%rbp)
.L1560:
	cmpl	$1, %eax
	jne	.L1555
	movq	0(%rbp), %rax
	movq	%rbp, %rdi
	call	*24(%rax)
	jmp	.L1555
	.p2align 4,,10
	.p2align 3
.L1578:
	movzbl	40(%rbp), %edx
	movb	%dl, 0(%rbp)
	movq	%rbp, (%rax)
	jmp	.L1563
	.p2align 4,,10
	.p2align 3
.L1556:
	movl	$-1, %eax
	lock xaddl	%eax, 8(%rbp)
	jmp	.L1557
	.p2align 4,,10
	.p2align 3
.L1559:
	movl	$-1, %eax
	lock xaddl	%eax, 12(%rbp)
	jmp	.L1560
	.cfi_endproc
.LFE9861:
	.size	_ZN4asio6detail18completion_handlerIZN7asiopal13IAsyncChannel8ShutdownEvEUlvE_E3ptr5resetEv, .-_ZN4asio6detail18completion_handlerIZN7asiopal13IAsyncChannel8ShutdownEvEUlvE_E3ptr5resetEv
	.section	.text._ZN4asio6detail18completion_handlerIZN7asiopal13IAsyncChannel8ShutdownEvEUlvE_E11do_completeEPNS0_15task_io_serviceEPNS0_25task_io_service_operationERKSt10error_codem,"axG",@progbits,_ZN4asio6detail18completion_handlerIZN7asiopal13IAsyncChannel8ShutdownEvEUlvE_E11do_completeEPNS0_15task_io_serviceEPNS0_25task_io_service_operationERKSt10error_codem,comdat
	.p2align 4
	.weak	_ZN4asio6detail18completion_handlerIZN7asiopal13IAsyncChannel8ShutdownEvEUlvE_E11do_completeEPNS0_15task_io_serviceEPNS0_25task_io_service_operationERKSt10error_codem
	.type	_ZN4asio6detail18completion_handlerIZN7asiopal13IAsyncChannel8ShutdownEvEUlvE_E11do_completeEPNS0_15task_io_serviceEPNS0_25task_io_service_operationERKSt10error_codem, @function
_ZN4asio6detail18completion_handlerIZN7asiopal13IAsyncChannel8ShutdownEvEUlvE_E11do_completeEPNS0_15task_io_serviceEPNS0_25task_io_service_operationERKSt10error_codem:
.LFB9865:
	.cfi_startproc
	.cfi_personality 0x9b,DW.ref.__gxx_personality_v0
	.cfi_lsda 0x1b,.LLSDA9865
	endbr64
	pushq	%r14
	.cfi_def_cfa_offset 16
	.cfi_offset 14, -16
	pushq	%r13
	.cfi_def_cfa_offset 24
	.cfi_offset 13, -24
	pushq	%r12
	.cfi_def_cfa_offset 32
	.cfi_offset 12, -32
	movq	%rsi, %r12
	pushq	%rbp
	.cfi_def_cfa_offset 40
	.cfi_offset 6, -40
	pushq	%rbx
	.cfi_def_cfa_offset 48
	.cfi_offset 3, -48
	movq	%rdi, %rbx
	subq	$96, %rsp
	.cfi_def_cfa_offset 144
	movdqu	24(%rsi), %xmm1
	movq	32(%rsi), %rbp
	movq	%fs:40, %rax
	movq	%rax, 88(%rsp)
	xorl	%eax, %eax
	leaq	48(%rsp), %rax
	movq	%rsi, 72(%rsp)
	movq	%rax, 64(%rsp)
	movq	$0, 80(%rsp)
	movaps	%xmm1, 48(%rsp)
	data16	leaq	_ZN4asio6detail15keyword_tss_ptrINS0_10call_stackINS0_15task_io_serviceENS0_27task_io_service_thread_infoEE7contextEE6value_E@tlsgd(%rip), %rdi
	.value	0x6666
	rex64
	call	__tls_get_addr@PLT
	movq	(%rax), %rax
	testq	%rax, %rax
	je	.L1580
	movq	8(%rax), %rax
	testq	%rax, %rax
	je	.L1580
	cmpq	$0, (%rax)
	je	.L1708
.L1580:
	movq	%r12, %rdi
	call	_ZdlPv@PLT
	movq	56(%rsp), %rbp
.L1581:
	movq	$0, 72(%rsp)
	testq	%rbx, %rbx
	je	.L1582
	movq	48(%rsp), %rbx
	testq	%rbp, %rbp
	je	.L1583
	movq	__libc_single_threaded@GOTPCREL(%rip), %r12
	leaq	8(%rbp), %rax
	cmpb	$0, (%r12)
	je	.L1584
	addl	$1, 8(%rbp)
.L1585:
	cmpb	$0, 57(%rbx)
	jne	.L1659
	cmpb	$0, 58(%rbx)
	je	.L1661
.L1659:
	cmpb	$0, (%r12)
	je	.L1709
	addl	$1, 8(%rbp)
	movq	24(%rbx), %r13
.L1586:
	addl	$1, 8(%rbp)
.L1588:
	data16	leaq	_ZN4asio6detail15keyword_tss_ptrINS0_10call_stackINS0_15task_io_serviceENS0_27task_io_service_thread_infoEE7contextEE6value_E@tlsgd(%rip), %rdi
	.value	0x6666
	rex64
	call	__tls_get_addr@PLT
	movq	40(%r13), %r14
	movq	(%rax), %rax
	testq	%rax, %rax
	je	.L1589
	movq	8(%rax), %rax
	testq	%rax, %rax
	je	.L1589
	movq	(%rax), %r12
	testq	%r12, %r12
	je	.L1589
	movq	$0, (%rax)
	movzbl	(%r12), %eax
	cmpb	$39, %al
	jbe	.L1590
	movb	%al, 40(%r12)
.L1591:
	movq	%rbp, %xmm3
	movq	_ZN4asio6detail18completion_handlerIZN7asiopal13IAsyncChannel16CheckForShutdownESt10shared_ptrIS3_EEUlvE_E11do_completeEPNS0_15task_io_serviceEPNS0_25task_io_service_operationERKSt10error_codem@GOTPCREL(%rip), %rax
	movq	%rbx, %xmm0
	movq	$0, (%r12)
	punpcklqdq	%xmm3, %xmm0
	movq	%r12, %xmm2
	movl	$0, 16(%r12)
	movq	%rax, 8(%r12)
	punpcklqdq	%xmm2, %xmm2
	movups	%xmm0, 24(%r12)
	movq	48(%r13), %rax
	movaps	%xmm2, (%rsp)
	leaq	24(%rax), %rdi
	call	pthread_mutex_lock@PLT
	movq	48(%r13), %rdi
	cmpb	$0, 64(%rdi)
	je	.L1592
	movq	$0, (%r12)
	movq	80(%rdi), %rax
	testq	%rax, %rax
	je	.L1593
	movq	%r12, (%rax)
	movq	%r12, 80(%rdi)
.L1594:
	addq	$24, %rdi
	call	pthread_mutex_unlock@PLT
.L1595:
	testq	%rbp, %rbp
	je	.L1627
	movq	__libc_single_threaded@GOTPCREL(%rip), %r12
	cmpb	$0, (%r12)
	je	.L1616
	movl	8(%rbp), %eax
	leal	-1(%rax), %edx
	movl	%edx, 8(%rbp)
.L1617:
	cmpl	$1, %eax
	je	.L1710
.L1615:
	testq	%rbp, %rbp
	je	.L1627
	movq	__libc_single_threaded@GOTPCREL(%rip), %r12
	cmpb	$0, (%r12)
	je	.L1630
	movl	8(%rbp), %eax
	leal	-1(%rax), %edx
	movl	%edx, 8(%rbp)
.L1631:
	cmpl	$1, %eax
	je	.L1711
.L1627:
	sfence
	movq	56(%rsp), %rbp
.L1582:
	testq	%rbp, %rbp
	je	.L1638
	movq	__libc_single_threaded@GOTPCREL(%rip), %r12
	cmpb	$0, (%r12)
	je	.L1639
	movl	8(%rbp), %eax
	leal	-1(%rax), %edx
	movl	%edx, 8(%rbp)
.L1640:
	cmpl	$1, %eax
	je	.L1712
.L1638:
	movq	80(%rsp), %rax
	testq	%rax, %rax
	je	.L1644
	movq	32(%rax), %rbp
	testq	%rbp, %rbp
	je	.L1646
	movq	__libc_single_threaded@GOTPCREL(%rip), %r12
	cmpb	$0, (%r12)
	je	.L1647
	movl	8(%rbp), %eax
	leal	-1(%rax), %edx
	movl	%edx, 8(%rbp)
.L1648:
	cmpl	$1, %eax
	je	.L1713
.L1646:
	movq	$0, 80(%rsp)
.L1644:
	movq	72(%rsp), %rbp
	testq	%rbp, %rbp
	je	.L1579
	data16	leaq	_ZN4asio6detail15keyword_tss_ptrINS0_10call_stackINS0_15task_io_serviceENS0_27task_io_service_thread_infoEE7contextEE6value_E@tlsgd(%rip), %rdi
	.value	0x6666
	rex64
	call	__tls_get_addr@PLT
	movq	(%rax), %rax
	testq	%rax, %rax
	je	.L1653
	movq	8(%rax), %rax
	testq	%rax, %rax
	je	.L1653
	cmpq	$0, (%rax)
	je	.L1714
.L1653:
	movq	88(%rsp), %rax
	subq	%fs:40, %rax
	jne	.L1707
	addq	$96, %rsp
	.cfi_remember_state
	.cfi_def_cfa_offset 48
	movq	%rbp, %rdi
	popq	%rbx
	.cfi_def_cfa_offset 40
	popq	%rbp
	.cfi_def_cfa_offset 32
	popq	%r12
	.cfi_def_cfa_offset 24
	popq	%r13
	.cfi_def_cfa_offset 16
	popq	%r14
	.cfi_def_cfa_offset 8
	jmp	_ZdlPv@PLT
	.p2align 4,,10
	.p2align 3
.L1714:
	.cfi_restore_state
	movzbl	40(%rbp), %edx
	movb	%dl, 0(%rbp)
	movq	%rbp, (%rax)
.L1579:
	movq	88(%rsp), %rax
	subq	%fs:40, %rax
	jne	.L1707
	addq	$96, %rsp
	.cfi_remember_state
	.cfi_def_cfa_offset 48
	popq	%rbx
	.cfi_def_cfa_offset 40
	popq	%rbp
	.cfi_def_cfa_offset 32
	popq	%r12
	.cfi_def_cfa_offset 24
	popq	%r13
	.cfi_def_cfa_offset 16
	popq	%r14
	.cfi_def_cfa_offset 8
	ret
	.p2align 4,,10
	.p2align 3
.L1712:
	.cfi_restore_state
	movq	0(%rbp), %rax
	movq	%rbp, %rdi
	call	*16(%rax)
	cmpb	$0, (%r12)
	je	.L1642
	movl	12(%rbp), %eax
	leal	-1(%rax), %edx
	movl	%edx, 12(%rbp)
.L1643:
	cmpl	$1, %eax
	jne	.L1638
	movq	0(%rbp), %rax
	movq	%rbp, %rdi
	call	*24(%rax)
	jmp	.L1638
	.p2align 4,,10
	.p2align 3
.L1639:
	movl	$-1, %eax
	lock xaddl	%eax, 8(%rbp)
	jmp	.L1640
	.p2align 4,,10
	.p2align 3
.L1583:
	cmpb	$0, 57(%rbx)
	jne	.L1655
	cmpb	$0, 58(%rbx)
	je	.L1661
.L1655:
	movq	24(%rbx), %r13
	jmp	.L1588
	.p2align 4,,10
	.p2align 3
.L1713:
	movq	0(%rbp), %rax
	movq	%rbp, %rdi
	call	*16(%rax)
	cmpb	$0, (%r12)
	je	.L1650
	movl	12(%rbp), %eax
	leal	-1(%rax), %edx
	movl	%edx, 12(%rbp)
.L1651:
	cmpl	$1, %eax
	jne	.L1646
	movq	0(%rbp), %rax
	movq	%rbp, %rdi
	call	*24(%rax)
	jmp	.L1646
	.p2align 4,,10
	.p2align 3
.L1661:
	movq	48(%rbx), %r13
	pxor	%xmm0, %xmm0
	movups	%xmm0, 40(%rbx)
	testq	%r13, %r13
	je	.L1615
	movq	__libc_single_threaded@GOTPCREL(%rip), %r12
	cmpb	$0, (%r12)
	je	.L1621
	movl	8(%r13), %eax
	leal	-1(%rax), %edx
	movl	%edx, 8(%r13)
.L1622:
	cmpl	$1, %eax
	jne	.L1615
	movq	0(%r13), %rax
	movq	%r13, %rdi
	call	*16(%rax)
	cmpb	$0, (%r12)
	je	.L1624
	movl	12(%r13), %eax
	leal	-1(%rax), %edx
	movl	%edx, 12(%r13)
.L1625:
	cmpl	$1, %eax
	jne	.L1615
	movq	0(%r13), %rax
	movq	%r13, %rdi
	call	*24(%rax)
	jmp	.L1615
	.p2align 4,,10
	.p2align 3
.L1708:
	movzbl	40(%r12), %edx
	movb	%dl, (%r12)
	movq	%r12, (%rax)
	jmp	.L1581
	.p2align 4,,10
	.p2align 3
.L1709:
	lock addl	$1, (%rax)
	cmpb	$0, (%r12)
	movq	24(%rbx), %r13
	jne	.L1586
	lock addl	$1, (%rax)
	jmp	.L1588
	.p2align 4,,10
	.p2align 3
.L1590:
	movq	%r12, %rdi
	call	_ZdlPv@PLT
.L1589:
	movl	$41, %edi
.LEHB45:
	call	_Znwm@PLT
.LEHE45:
	movb	$40, 40(%rax)
	movq	%rax, %r12
	jmp	.L1591
	.p2align 4,,10
	.p2align 3
.L1584:
	lock addl	$1, 8(%rbp)
	jmp	.L1585
	.p2align 4,,10
	.p2align 3
.L1647:
	movl	$-1, %eax
	lock xaddl	%eax, 8(%rbp)
	jmp	.L1648
	.p2align 4,,10
	.p2align 3
.L1592:
	movb	$1, 64(%rdi)
	addq	$24, %rdi
	call	pthread_mutex_unlock@PLT
	movq	48(%r13), %r13
	movq	$0, (%r12)
	movq	%r13, %xmm4
	cmpq	$0, 96(%r13)
	punpcklqdq	%xmm4, %xmm4
	movaps	%xmm4, 16(%rsp)
	je	.L1596
	movq	96(%r13), %rax
	movq	%r12, (%rax)
	movq	%r12, 96(%r13)
.L1597:
	movq	40(%r14), %rbx
	cmpb	$0, 40(%rbx)
	jne	.L1715
.L1598:
	lock addq	$1, 184(%rbx)
	leaq	48(%rbx), %r12
	movq	%r12, %rdi
	call	pthread_mutex_lock@PLT
	cmpq	$0, 200(%rbx)
	movq	$0, 0(%r13)
	je	.L1603
	movq	200(%rbx), %rax
	movq	%r13, (%rax)
	movq	%r13, 200(%rbx)
.L1604:
	movq	136(%rbx), %rax
	orq	$1, %rax
	movq	%rax, 136(%rbx)
	cmpq	$1, %rax
	je	.L1605
	movq	%r12, %rdi
	call	pthread_mutex_unlock@PLT
	leaq	88(%rbx), %rdi
	call	pthread_cond_signal@PLT
	jmp	.L1595
	.p2align 4,,10
	.p2align 3
.L1711:
	movq	0(%rbp), %rax
	movq	%rbp, %rdi
	call	*16(%rax)
	cmpb	$0, (%r12)
	je	.L1633
	movl	12(%rbp), %eax
	leal	-1(%rax), %edx
	movl	%edx, 12(%rbp)
.L1634:
	cmpl	$1, %eax
	jne	.L1627
	movq	0(%rbp), %rax
	movq	%rbp, %rdi
	call	*24(%rax)
	jmp	.L1627
	.p2align 4,,10
	.p2align 3
.L1630:
	movl	$-1, %eax
	lock xaddl	%eax, 8(%rbp)
	jmp	.L1631
	.p2align 4,,10
	.p2align 3
.L1715:
	data16	leaq	_ZN4asio6detail15keyword_tss_ptrINS0_10call_stackINS0_15task_io_serviceENS0_27task_io_service_thread_infoEE7contextEE6value_E@tlsgd(%rip), %rdi
	.value	0x6666
	rex64
	call	__tls_get_addr@PLT
	movq	(%rax), %rax
	testq	%rax, %rax
	jne	.L1601
	jmp	.L1598
	.p2align 4,,10
	.p2align 3
.L1599:
	movq	16(%rax), %rax
	testq	%rax, %rax
	je	.L1598
.L1601:
	cmpq	(%rax), %rbx
	jne	.L1599
	movq	8(%rax), %rax
	testq	%rax, %rax
	je	.L1598
	addq	$1, 24(%rax)
	movq	$0, 0(%r13)
	movq	16(%rax), %rdx
	testq	%rdx, %rdx
	je	.L1602
	movq	%r13, (%rdx)
	movq	%r13, 16(%rax)
	jmp	.L1595
	.p2align 4,,10
	.p2align 3
.L1593:
	movdqa	(%rsp), %xmm5
	movups	%xmm5, 72(%rdi)
	jmp	.L1594
	.p2align 4,,10
	.p2align 3
.L1710:
	movq	0(%rbp), %rax
	movq	%rbp, %rdi
	call	*16(%rax)
	cmpb	$0, (%r12)
	je	.L1619
	movl	12(%rbp), %eax
	leal	-1(%rax), %edx
	movl	%edx, 12(%rbp)
.L1620:
	cmpl	$1, %eax
	jne	.L1615
	movq	0(%rbp), %rax
	movq	%rbp, %rdi
	call	*24(%rax)
	jmp	.L1615
	.p2align 4,,10
	.p2align 3
.L1616:
	movl	$-1, %eax
	lock xaddl	%eax, 8(%rbp)
	jmp	.L1617
	.p2align 4,,10
	.p2align 3
.L1642:
	movl	$-1, %eax
	lock xaddl	%eax, 12(%rbp)
	jmp	.L1643
	.p2align 4,,10
	.p2align 3
.L1619:
	movl	$-1, %eax
	lock xaddl	%eax, 12(%rbp)
	jmp	.L1620
	.p2align 4,,10
	.p2align 3
.L1603:
	movdqa	16(%rsp), %xmm7
	movups	%xmm7, 192(%rbx)
	jmp	.L1604
	.p2align 4,,10
	.p2align 3
.L1605:
	cmpb	$0, 176(%rbx)
	jne	.L1607
	movq	144(%rbx), %rax
	testq	%rax, %rax
	je	.L1607
	leaq	88(%rax), %rdx
	movb	$1, 176(%rbx)
	movl	96(%rax), %edi
	leaq	36(%rsp), %rcx
	movq	%rdx, 40(%rsp)
	movl	88(%rax), %edx
	movl	$3, %esi
	movl	$-2147483639, 36(%rsp)
	call	epoll_ctl@PLT
.L1607:
	movq	%r12, %rdi
	call	pthread_mutex_unlock@PLT
	jmp	.L1595
	.p2align 4,,10
	.p2align 3
.L1650:
	movl	$-1, %eax
	lock xaddl	%eax, 12(%rbp)
	jmp	.L1651
	.p2align 4,,10
	.p2align 3
.L1596:
	movdqa	(%rsp), %xmm6
	movups	%xmm6, 88(%r13)
	jmp	.L1597
	.p2align 4,,10
	.p2align 3
.L1633:
	movl	$-1, %eax
	lock xaddl	%eax, 12(%rbp)
	jmp	.L1634
	.p2align 4,,10
	.p2align 3
.L1621:
	movl	$-1, %eax
	lock xaddl	%eax, 8(%r13)
	jmp	.L1622
	.p2align 4,,10
	.p2align 3
.L1602:
	movdqa	16(%rsp), %xmm7
	movups	%xmm7, 8(%rax)
	jmp	.L1595
	.p2align 4,,10
	.p2align 3
.L1624:
	movl	$-1, %eax
	lock xaddl	%eax, 12(%r13)
	jmp	.L1625
.L1707:
	call	__stack_chk_fail@PLT
.L1663:
	endbr64
	movq	%rax, %r12
.L1610:
	testq	%rbp, %rbp
	je	.L1629
	movq	%rbp, %rdi
	call	_ZNSt16_Sp_counted_baseILN9__gnu_cxx12_Lock_policyE2EE10_M_releaseEv@PLT
	movq	%rbp, %rdi
	call	_ZNSt16_Sp_counted_baseILN9__gnu_cxx12_Lock_policyE2EE10_M_releaseEv@PLT
	movq	%rbp, %rdi
	call	_ZNSt16_Sp_counted_baseILN9__gnu_cxx12_Lock_policyE2EE10_M_releaseEv@PLT
.L1629:
	sfence
	movq	56(%rsp), %rdi
	testq	%rdi, %rdi
	je	.L1636
	call	_ZNSt16_Sp_counted_baseILN9__gnu_cxx12_Lock_policyE2EE10_M_releaseEv@PLT
.L1636:
	leaq	64(%rsp), %rdi
	call	_ZN4asio6detail18completion_handlerIZN7asiopal13IAsyncChannel8ShutdownEvEUlvE_E3ptr5resetEv@PLT
	movq	%r12, %rdi
.LEHB46:
	call	_Unwind_Resume@PLT
.LEHE46:
	.cfi_endproc
.LFE9865:
	.section	.gcc_except_table
.LLSDA9865:
	.byte	0xff
	.byte	0xff
	.byte	0x1
	.uleb128 .LLSDACSE9865-.LLSDACSB9865
.LLSDACSB9865:
	.uleb128 .LEHB45-.LFB9865
	.uleb128 .LEHE45-.LEHB45
	.uleb128 .L1663-.LFB9865
	.uleb128 0
	.uleb128 .LEHB46-.LFB9865
	.uleb128 .LEHE46-.LEHB46
	.uleb128 0
	.uleb128 0
.LLSDACSE9865:
	.section	.text._ZN4asio6detail18completion_handlerIZN7asiopal13IAsyncChannel8ShutdownEvEUlvE_E11do_completeEPNS0_15task_io_serviceEPNS0_25task_io_service_operationERKSt10error_codem,"axG",@progbits,_ZN4asio6detail18completion_handlerIZN7asiopal13IAsyncChannel8ShutdownEvEUlvE_E11do_completeEPNS0_15task_io_serviceEPNS0_25task_io_service_operationERKSt10error_codem,comdat
	.size	_ZN4asio6detail18completion_handlerIZN7asiopal13IAsyncChannel8ShutdownEvEUlvE_E11do_completeEPNS0_15task_io_serviceEPNS0_25task_io_service_operationERKSt10error_codem, .-_ZN4asio6detail18completion_handlerIZN7asiopal13IAsyncChannel8ShutdownEvEUlvE_E11do_completeEPNS0_15task_io_serviceEPNS0_25task_io_service_operationERKSt10error_codem
	.section	.text._ZN4asio6detail18completion_handlerIZN7asiopal13IAsyncChannel16CheckForShutdownESt10shared_ptrIS3_EEUlvE_E3ptr5resetEv,"axG",@progbits,_ZN4asio6detail18completion_handlerIZN7asiopal13IAsyncChannel16CheckForShutdownESt10shared_ptrIS3_EEUlvE_E3ptr5resetEv,comdat
	.align 2
	.p2align 4
	.weak	_ZN4asio6detail18completion_handlerIZN7asiopal13IAsyncChannel16CheckForShutdownESt10shared_ptrIS3_EEUlvE_E3ptr5resetEv
	.type	_ZN4asio6detail18completion_handlerIZN7asiopal13IAsyncChannel16CheckForShutdownESt10shared_ptrIS3_EEUlvE_E3ptr5resetEv, @function
_ZN4asio6detail18completion_handlerIZN7asiopal13IAsyncChannel16CheckForShutdownESt10shared_ptrIS3_EEUlvE_E3ptr5resetEv:
.LFB9866:
	.cfi_startproc
	endbr64
	pushq	%r12
	.cfi_def_cfa_offset 16
	.cfi_offset 12, -16
	pushq	%rbp
	.cfi_def_cfa_offset 24
	.cfi_offset 6, -24
	pushq	%rbx
	.cfi_def_cfa_offset 32
	.cfi_offset 3, -32
	movq	16(%rdi), %rax
	movq	%rdi, %rbx
	testq	%rax, %rax
	je	.L1717
	movq	32(%rax), %rbp
	testq	%rbp, %rbp
	je	.L1719
	movq	__libc_single_threaded@GOTPCREL(%rip), %r12
	cmpb	$0, (%r12)
	je	.L1720
	movl	8(%rbp), %eax
	leal	-1(%rax), %edx
	movl	%edx, 8(%rbp)
.L1721:
	cmpl	$1, %eax
	je	.L1741
.L1719:
	movq	$0, 16(%rbx)
.L1717:
	movq	8(%rbx), %rbp
	testq	%rbp, %rbp
	je	.L1716
	data16	leaq	_ZN4asio6detail15keyword_tss_ptrINS0_10call_stackINS0_15task_io_serviceENS0_27task_io_service_thread_infoEE7contextEE6value_E@tlsgd(%rip), %rdi
	.value	0x6666
	rex64
	call	__tls_get_addr@PLT
	movq	(%rax), %rax
	testq	%rax, %rax
	je	.L1726
	movq	8(%rax), %rax
	testq	%rax, %rax
	je	.L1726
	cmpq	$0, (%rax)
	je	.L1742
.L1726:
	movq	%rbp, %rdi
	call	_ZdlPv@PLT
.L1727:
	movq	$0, 8(%rbx)
.L1716:
	popq	%rbx
	.cfi_remember_state
	.cfi_def_cfa_offset 24
	popq	%rbp
	.cfi_def_cfa_offset 16
	popq	%r12
	.cfi_def_cfa_offset 8
	ret
	.p2align 4,,10
	.p2align 3
.L1741:
	.cfi_restore_state
	movq	0(%rbp), %rax
	movq	%rbp, %rdi
	call	*16(%rax)
	cmpb	$0, (%r12)
	je	.L1723
	movl	12(%rbp), %eax
	leal	-1(%rax), %edx
	movl	%edx, 12(%rbp)
.L1724:
	cmpl	$1, %eax
	jne	.L1719
	movq	0(%rbp), %rax
	movq	%rbp, %rdi
	call	*24(%rax)
	jmp	.L1719
	.p2align 4,,10
	.p2align 3
.L1742:
	movzbl	40(%rbp), %edx
	movb	%dl, 0(%rbp)
	movq	%rbp, (%rax)
	jmp	.L1727
	.p2align 4,,10
	.p2align 3
.L1720:
	movl	$-1, %eax
	lock xaddl	%eax, 8(%rbp)
	jmp	.L1721
	.p2align 4,,10
	.p2align 3
.L1723:
	movl	$-1, %eax
	lock xaddl	%eax, 12(%rbp)
	jmp	.L1724
	.cfi_endproc
.LFE9866:
	.size	_ZN4asio6detail18completion_handlerIZN7asiopal13IAsyncChannel16CheckForShutdownESt10shared_ptrIS3_EEUlvE_E3ptr5resetEv, .-_ZN4asio6detail18completion_handlerIZN7asiopal13IAsyncChannel16CheckForShutdownESt10shared_ptrIS3_EEUlvE_E3ptr5resetEv
	.section	.text._ZN4asio6detail18completion_handlerIZN7asiopal13IAsyncChannel16CheckForShutdownESt10shared_ptrIS3_EEUlvE_E11do_completeEPNS0_15task_io_serviceEPNS0_25task_io_service_operationERKSt10error_codem,"axG",@progbits,_ZN4asio6detail18completion_handlerIZN7asiopal13IAsyncChannel16CheckForShutdownESt10shared_ptrIS3_EEUlvE_E11do_completeEPNS0_15task_io_serviceEPNS0_25task_io_service_operationERKSt10error_codem,comdat
	.p2align 4
	.weak	_ZN4asio6detail18completion_handlerIZN7asiopal13IAsyncChannel16CheckForShutdownESt10shared_ptrIS3_EEUlvE_E11do_completeEPNS0_15task_io_serviceEPNS0_25task_io_service_operationERKSt10error_codem
	.type	_ZN4asio6detail18completion_handlerIZN7asiopal13IAsyncChannel16CheckForShutdownESt10shared_ptrIS3_EEUlvE_E11do_completeEPNS0_15task_io_serviceEPNS0_25task_io_service_operationERKSt10error_codem, @function
_ZN4asio6detail18completion_handlerIZN7asiopal13IAsyncChannel16CheckForShutdownESt10shared_ptrIS3_EEUlvE_E11do_completeEPNS0_15task_io_serviceEPNS0_25task_io_service_operationERKSt10error_codem:
.LFB9870:
	.cfi_startproc
	.cfi_personality 0x9b,DW.ref.__gxx_personality_v0
	.cfi_lsda 0x1b,.LLSDA9870
	endbr64
	pushq	%r14
	.cfi_def_cfa_offset 16
	.cfi_offset 14, -16
	pushq	%r13
	.cfi_def_cfa_offset 24
	.cfi_offset 13, -24
	pushq	%r12
	.cfi_def_cfa_offset 32
	.cfi_offset 12, -32
	movq	%rsi, %r12
	pushq	%rbp
	.cfi_def_cfa_offset 40
	.cfi_offset 6, -40
	pushq	%rbx
	.cfi_def_cfa_offset 48
	.cfi_offset 3, -48
	movq	%rdi, %rbx
	subq	$96, %rsp
	.cfi_def_cfa_offset 144
	movdqu	24(%rsi), %xmm1
	movq	32(%rsi), %rbp
	movq	%fs:40, %rax
	movq	%rax, 88(%rsp)
	xorl	%eax, %eax
	leaq	48(%rsp), %rax
	movq	%rsi, 72(%rsp)
	movq	%rax, 64(%rsp)
	movq	$0, 80(%rsp)
	movaps	%xmm1, 48(%rsp)
	data16	leaq	_ZN4asio6detail15keyword_tss_ptrINS0_10call_stackINS0_15task_io_serviceENS0_27task_io_service_thread_infoEE7contextEE6value_E@tlsgd(%rip), %rdi
	.value	0x6666
	rex64
	call	__tls_get_addr@PLT
	movq	(%rax), %rax
	testq	%rax, %rax
	je	.L1744
	movq	8(%rax), %rax
	testq	%rax, %rax
	je	.L1744
	cmpq	$0, (%rax)
	je	.L1872
.L1744:
	movq	%r12, %rdi
	call	_ZdlPv@PLT
	movq	56(%rsp), %rbp
.L1745:
	movq	$0, 72(%rsp)
	testq	%rbx, %rbx
	je	.L1746
	movq	48(%rsp), %rbx
	testq	%rbp, %rbp
	je	.L1747
	movq	__libc_single_threaded@GOTPCREL(%rip), %r12
	leaq	8(%rbp), %rax
	cmpb	$0, (%r12)
	je	.L1748
	addl	$1, 8(%rbp)
.L1749:
	cmpb	$0, 57(%rbx)
	jne	.L1823
	cmpb	$0, 58(%rbx)
	je	.L1825
.L1823:
	cmpb	$0, (%r12)
	je	.L1873
	addl	$1, 8(%rbp)
	movq	24(%rbx), %r13
.L1750:
	addl	$1, 8(%rbp)
.L1752:
	data16	leaq	_ZN4asio6detail15keyword_tss_ptrINS0_10call_stackINS0_15task_io_serviceENS0_27task_io_service_thread_infoEE7contextEE6value_E@tlsgd(%rip), %rdi
	.value	0x6666
	rex64
	call	__tls_get_addr@PLT
	movq	40(%r13), %r14
	movq	(%rax), %rax
	testq	%rax, %rax
	je	.L1753
	movq	8(%rax), %rax
	testq	%rax, %rax
	je	.L1753
	movq	(%rax), %r12
	testq	%r12, %r12
	je	.L1753
	movq	$0, (%rax)
	movzbl	(%r12), %eax
	cmpb	$39, %al
	jbe	.L1754
	movb	%al, 40(%r12)
.L1755:
	movq	%rbp, %xmm3
	movq	_ZN4asio6detail18completion_handlerIZN7asiopal13IAsyncChannel16CheckForShutdownESt10shared_ptrIS3_EEUlvE_E11do_completeEPNS0_15task_io_serviceEPNS0_25task_io_service_operationERKSt10error_codem@GOTPCREL(%rip), %rax
	movq	%rbx, %xmm0
	movq	$0, (%r12)
	punpcklqdq	%xmm3, %xmm0
	movq	%r12, %xmm2
	movl	$0, 16(%r12)
	movq	%rax, 8(%r12)
	punpcklqdq	%xmm2, %xmm2
	movups	%xmm0, 24(%r12)
	movq	48(%r13), %rax
	movaps	%xmm2, (%rsp)
	leaq	24(%rax), %rdi
	call	pthread_mutex_lock@PLT
	movq	48(%r13), %rdi
	cmpb	$0, 64(%rdi)
	je	.L1756
	movq	$0, (%r12)
	movq	80(%rdi), %rax
	testq	%rax, %rax
	je	.L1757
	movq	%r12, (%rax)
	movq	%r12, 80(%rdi)
.L1758:
	addq	$24, %rdi
	call	pthread_mutex_unlock@PLT
.L1759:
	testq	%rbp, %rbp
	je	.L1791
	movq	__libc_single_threaded@GOTPCREL(%rip), %r12
	cmpb	$0, (%r12)
	je	.L1780
	movl	8(%rbp), %eax
	leal	-1(%rax), %edx
	movl	%edx, 8(%rbp)
.L1781:
	cmpl	$1, %eax
	je	.L1874
.L1779:
	testq	%rbp, %rbp
	je	.L1791
	movq	__libc_single_threaded@GOTPCREL(%rip), %r12
	cmpb	$0, (%r12)
	je	.L1794
	movl	8(%rbp), %eax
	leal	-1(%rax), %edx
	movl	%edx, 8(%rbp)
.L1795:
	cmpl	$1, %eax
	je	.L1875
.L1791:
	sfence
	movq	56(%rsp), %rbp
.L1746:
	testq	%rbp, %rbp
	je	.L1802
	movq	__libc_single_threaded@GOTPCREL(%rip), %r12
	cmpb	$0, (%r12)
	je	.L1803
	movl	8(%rbp), %eax
	leal	-1(%rax), %edx
	movl	%edx, 8(%rbp)
.L1804:
	cmpl	$1, %eax
	je	.L1876
.L1802:
	movq	80(%rsp), %rax
	testq	%rax, %rax
	je	.L1808
	movq	32(%rax), %rbp
	testq	%rbp, %rbp
	je	.L1810
	movq	__libc_single_threaded@GOTPCREL(%rip), %r12
	cmpb	$0, (%r12)
	je	.L1811
	movl	8(%rbp), %eax
	leal	-1(%rax), %edx
	movl	%edx, 8(%rbp)
.L1812:
	cmpl	$1, %eax
	je	.L1877
.L1810:
	movq	$0, 80(%rsp)
.L1808:
	movq	72(%rsp), %rbp
	testq	%rbp, %rbp
	je	.L1743
	data16	leaq	_ZN4asio6detail15keyword_tss_ptrINS0_10call_stackINS0_15task_io_serviceENS0_27task_io_service_thread_infoEE7contextEE6value_E@tlsgd(%rip), %rdi
	.value	0x6666
	rex64
	call	__tls_get_addr@PLT
	movq	(%rax), %rax
	testq	%rax, %rax
	je	.L1817
	movq	8(%rax), %rax
	testq	%rax, %rax
	je	.L1817
	cmpq	$0, (%rax)
	je	.L1878
.L1817:
	movq	88(%rsp), %rax
	subq	%fs:40, %rax
	jne	.L1871
	addq	$96, %rsp
	.cfi_remember_state
	.cfi_def_cfa_offset 48
	movq	%rbp, %rdi
	popq	%rbx
	.cfi_def_cfa_offset 40
	popq	%rbp
	.cfi_def_cfa_offset 32
	popq	%r12
	.cfi_def_cfa_offset 24
	popq	%r13
	.cfi_def_cfa_offset 16
	popq	%r14
	.cfi_def_cfa_offset 8
	jmp	_ZdlPv@PLT
	.p2align 4,,10
	.p2align 3
.L1878:
	.cfi_restore_state
	movzbl	40(%rbp), %edx
	movb	%dl, 0(%rbp)
	movq	%rbp, (%rax)
.L1743:
	movq	88(%rsp), %rax
	subq	%fs:40, %rax
	jne	.L1871
	addq	$96, %rsp
	.cfi_remember_state
	.cfi_def_cfa_offset 48
	popq	%rbx
	.cfi_def_cfa_offset 40
	popq	%rbp
	.cfi_def_cfa_offset 32
	popq	%r12
	.cfi_def_cfa_offset 24
	popq	%r13
	.cfi_def_cfa_offset 16
	popq	%r14
	.cfi_def_cfa_offset 8
	ret
	.p2align 4,,10
	.p2align 3
.L1876:
	.cfi_restore_state
	movq	0(%rbp), %rax
	movq	%rbp, %rdi
	call	*16(%rax)
	cmpb	$0, (%r12)
	je	.L1806
	movl	12(%rbp), %eax
	leal	-1(%rax), %edx
	movl	%edx, 12(%rbp)
.L1807:
	cmpl	$1, %eax
	jne	.L1802
	movq	0(%rbp), %rax
	movq	%rbp, %rdi
	call	*24(%rax)
	jmp	.L1802
	.p2align 4,,10
	.p2align 3
.L1803:
	movl	$-1, %eax
	lock xaddl	%eax, 8(%rbp)
	jmp	.L1804
	.p2align 4,,10
	.p2align 3
.L1747:
	cmpb	$0, 57(%rbx)
	jne	.L1819
	cmpb	$0, 58(%rbx)
	je	.L1825
.L1819:
	movq	24(%rbx), %r13
	jmp	.L1752
	.p2align 4,,10
	.p2align 3
.L1877:
	movq	0(%rbp), %rax
	movq	%rbp, %rdi
	call	*16(%rax)
	cmpb	$0, (%r12)
	je	.L1814
	movl	12(%rbp), %eax
	leal	-1(%rax), %edx
	movl	%edx, 12(%rbp)
.L1815:
	cmpl	$1, %eax
	jne	.L1810
	movq	0(%rbp), %rax
	movq	%rbp, %rdi
	call	*24(%rax)
	jmp	.L1810
	.p2align 4,,10
	.p2align 3
.L1825:
	movq	48(%rbx), %r13
	pxor	%xmm0, %xmm0
	movups	%xmm0, 40(%rbx)
	testq	%r13, %r13
	je	.L1779
	movq	__libc_single_threaded@GOTPCREL(%rip), %r12
	cmpb	$0, (%r12)
	je	.L1785
	movl	8(%r13), %eax
	leal	-1(%rax), %edx
	movl	%edx, 8(%r13)
.L1786:
	cmpl	$1, %eax
	jne	.L1779
	movq	0(%r13), %rax
	movq	%r13, %rdi
	call	*16(%rax)
	cmpb	$0, (%r12)
	je	.L1788
	movl	12(%r13), %eax
	leal	-1(%rax), %edx
	movl	%edx, 12(%r13)
.L1789:
	cmpl	$1, %eax
	jne	.L1779
	movq	0(%r13), %rax
	movq	%r13, %rdi
	call	*24(%rax)
	jmp	.L1779
	.p2align 4,,10
	.p2align 3
.L1872:
	movzbl	40(%r12), %edx
	movb	%dl, (%r12)
	movq	%r12, (%rax)
	jmp	.L1745
	.p2align 4,,10
	.p2align 3
.L1873:
	lock addl	$1, (%rax)
	cmpb	$0, (%r12)
	movq	24(%rbx), %r13
	jne	.L1750
	lock addl	$1, (%rax)
	jmp	.L1752
	.p2align 4,,10
	.p2align 3
.L1754:
	movq	%r12, %rdi
	call	_ZdlPv@PLT
.L1753:
	movl	$41, %edi
.LEHB47:
	call	_Znwm@PLT
.LEHE47:
	movb	$40, 40(%rax)
	movq	%rax, %r12
	jmp	.L1755
	.p2align 4,,10
	.p2align 3
.L1748:
	lock addl	$1, 8(%rbp)
	jmp	.L1749
	.p2align 4,,10
	.p2align 3
.L1811:
	movl	$-1, %eax
	lock xaddl	%eax, 8(%rbp)
	jmp	.L1812
	.p2align 4,,10
	.p2align 3
.L1756:
	movb	$1, 64(%rdi)
	addq	$24, %rdi
	call	pthread_mutex_unlock@PLT
	movq	48(%r13), %r13
	movq	$0, (%r12)
	movq	%r13, %xmm4
	cmpq	$0, 96(%r13)
	punpcklqdq	%xmm4, %xmm4
	movaps	%xmm4, 16(%rsp)
	je	.L1760
	movq	96(%r13), %rax
	movq	%r12, (%rax)
	movq	%r12, 96(%r13)
.L1761:
	movq	40(%r14), %rbx
	cmpb	$0, 40(%rbx)
	jne	.L1879
.L1762:
	lock addq	$1, 184(%rbx)
	leaq	48(%rbx), %r12
	movq	%r12, %rdi
	call	pthread_mutex_lock@PLT
	cmpq	$0, 200(%rbx)
	movq	$0, 0(%r13)
	je	.L1767
	movq	200(%rbx), %rax
	movq	%r13, (%rax)
	movq	%r13, 200(%rbx)
.L1768:
	movq	136(%rbx), %rax
	orq	$1, %rax
	movq	%rax, 136(%rbx)
	cmpq	$1, %rax
	je	.L1769
	movq	%r12, %rdi
	call	pthread_mutex_unlock@PLT
	leaq	88(%rbx), %rdi
	call	pthread_cond_signal@PLT
	jmp	.L1759
	.p2align 4,,10
	.p2align 3
.L1875:
	movq	0(%rbp), %rax
	movq	%rbp, %rdi
	call	*16(%rax)
	cmpb	$0, (%r12)
	je	.L1797
	movl	12(%rbp), %eax
	leal	-1(%rax), %edx
	movl	%edx, 12(%rbp)
.L1798:
	cmpl	$1, %eax
	jne	.L1791
	movq	0(%rbp), %rax
	movq	%rbp, %rdi
	call	*24(%rax)
	jmp	.L1791
	.p2align 4,,10
	.p2align 3
.L1794:
	movl	$-1, %eax
	lock xaddl	%eax, 8(%rbp)
	jmp	.L1795
	.p2align 4,,10
	.p2align 3
.L1879:
	data16	leaq	_ZN4asio6detail15keyword_tss_ptrINS0_10call_stackINS0_15task_io_serviceENS0_27task_io_service_thread_infoEE7contextEE6value_E@tlsgd(%rip), %rdi
	.value	0x6666
	rex64
	call	__tls_get_addr@PLT
	movq	(%rax), %rax
	testq	%rax, %rax
	jne	.L1765
	jmp	.L1762
	.p2align 4,,10
	.p2align 3
.L1763:
	movq	16(%rax), %rax
	testq	%rax, %rax
	je	.L1762
.L1765:
	cmpq	(%rax), %rbx
	jne	.L1763
	movq	8(%rax), %rax
	testq	%rax, %rax
	je	.L1762
	addq	$1, 24(%rax)
	movq	$0, 0(%r13)
	movq	16(%rax), %rdx
	testq	%rdx, %rdx
	je	.L1766
	movq	%r13, (%rdx)
	movq	%r13, 16(%rax)
	jmp	.L1759
	.p2align 4,,10
	.p2align 3
.L1757:
	movdqa	(%rsp), %xmm5
	movups	%xmm5, 72(%rdi)
	jmp	.L1758
	.p2align 4,,10
	.p2align 3
.L1874:
	movq	0(%rbp), %rax
	movq	%rbp, %rdi
	call	*16(%rax)
	cmpb	$0, (%r12)
	je	.L1783
	movl	12(%rbp), %eax
	leal	-1(%rax), %edx
	movl	%edx, 12(%rbp)
.L1784:
	cmpl	$1, %eax
	jne	.L1779
	movq	0(%rbp), %rax
	movq	%rbp, %rdi
	call	*24(%rax)
	jmp	.L1779
	.p2align 4,,10
	.p2align 3
.L1780:
	movl	$-1, %eax
	lock xaddl	%eax, 8(%rbp)
	jmp	.L1781
	.p2align 4,,10
	.p2align 3
.L1806:
	movl	$-1, %eax
	lock xaddl	%eax, 12(%rbp)
	jmp	.L1807
	.p2align 4,,10
	.p2align 3
.L1783:
	movl	$-1, %eax
	lock xaddl	%eax, 12(%rbp)
	jmp	.L1784
	.p2align 4,,10
	.p2align 3
.L1767:
	movdqa	16(%rsp), %xmm7
	movups	%xmm7, 192(%rbx)
	jmp	.L1768
	.p2align 4,,10
	.p2align 3
.L1769:
	cmpb	$0, 176(%rbx)
	jne	.L1771
	movq	144(%rbx), %rax
	testq	%rax, %rax
	je	.L1771
	leaq	88(%rax), %rdx
	movb	$1, 176(%rbx)
	movl	96(%rax), %edi
	leaq	36(%rsp), %rcx
	movq	%rdx, 40(%rsp)
	movl	88(%rax), %edx
	movl	$3, %esi
	movl	$-2147483639, 36(%rsp)
	call	epoll_ctl@PLT
.L1771:
	movq	%r12, %rdi
	call	pthread_mutex_unlock@PLT
	jmp	.L1759
	.p2align 4,,10
	.p2align 3
.L1814:
	movl	$-1, %eax
	lock xaddl	%eax, 12(%rbp)
	jmp	.L1815
	.p2align 4,,10
	.p2align 3
.L1760:
	movdqa	(%rsp), %xmm6
	movups	%xmm6, 88(%r13)
	jmp	.L1761
	.p2align 4,,10
	.p2align 3
.L1797:
	movl	$-1, %eax
	lock xaddl	%eax, 12(%rbp)
	jmp	.L1798
	.p2align 4,,10
	.p2align 3
.L1785:
	movl	$-1, %eax
	lock xaddl	%eax, 8(%r13)
	jmp	.L1786
	.p2align 4,,10
	.p2align 3
.L1766:
	movdqa	16(%rsp), %xmm7
	movups	%xmm7, 8(%rax)
	jmp	.L1759
	.p2align 4,,10
	.p2align 3
.L1788:
	movl	$-1, %eax
	lock xaddl	%eax, 12(%r13)
	jmp	.L1789
.L1871:
	call	__stack_chk_fail@PLT
.L1827:
	endbr64
	movq	%rax, %r12
.L1774:
	testq	%rbp, %rbp
	je	.L1793
	movq	%rbp, %rdi
	call	_ZNSt16_Sp_counted_baseILN9__gnu_cxx12_Lock_policyE2EE10_M_releaseEv@PLT
	movq	%rbp, %rdi
	call	_ZNSt16_Sp_counted_baseILN9__gnu_cxx12_Lock_policyE2EE10_M_releaseEv@PLT
	movq	%rbp, %rdi
	call	_ZNSt16_Sp_counted_baseILN9__gnu_cxx12_Lock_policyE2EE10_M_releaseEv@PLT
.L1793:
	sfence
	movq	56(%rsp), %rdi
	testq	%rdi, %rdi
	je	.L1800
	call	_ZNSt16_Sp_counted_baseILN9__gnu_cxx12_Lock_policyE2EE10_M_releaseEv@PLT
.L1800:
	leaq	64(%rsp), %rdi
	call	_ZN4asio6detail18completion_handlerIZN7asiopal13IAsyncChannel16CheckForShutdownESt10shared_ptrIS3_EEUlvE_E3ptr5resetEv@PLT
	movq	%r12, %rdi
.LEHB48:
	call	_Unwind_Resume@PLT
.LEHE48:
	.cfi_endproc
.LFE9870:
	.section	.gcc_except_table
.LLSDA9870:
	.byte	0xff
	.byte	0xff
	.byte	0x1
	.uleb128 .LLSDACSE9870-.LLSDACSB9870
.LLSDACSB9870:
	.uleb128 .LEHB47-.LFB9870
	.uleb128 .LEHE47-.LEHB47
	.uleb128 .L1827-.LFB9870
	.uleb128 0
	.uleb128 .LEHB48-.LFB9870
	.uleb128 .LEHE48-.LEHB48
	.uleb128 0
	.uleb128 0
.LLSDACSE9870:
	.section	.text._ZN4asio6detail18completion_handlerIZN7asiopal13IAsyncChannel16CheckForShutdownESt10shared_ptrIS3_EEUlvE_E11do_completeEPNS0_15task_io_serviceEPNS0_25task_io_service_operationERKSt10error_codem,"axG",@progbits,_ZN4asio6detail18completion_handlerIZN7asiopal13IAsyncChannel16CheckForShutdownESt10shared_ptrIS3_EEUlvE_E11do_completeEPNS0_15task_io_serviceEPNS0_25task_io_service_operationERKSt10error_codem,comdat
	.size	_ZN4asio6detail18completion_handlerIZN7asiopal13IAsyncChannel16CheckForShutdownESt10shared_ptrIS3_EEUlvE_E11do_completeEPNS0_15task_io_serviceEPNS0_25task_io_service_operationERKSt10error_codem, .-_ZN4asio6detail18completion_handlerIZN7asiopal13IAsyncChannel16CheckForShutdownESt10shared_ptrIS3_EEUlvE_E11do_completeEPNS0_15task_io_serviceEPNS0_25task_io_service_operationERKSt10error_codem
	.section	.text.startup,"ax",@progbits
	.p2align 4
	.type	_GLOBAL__sub_I_LinkSession.cpp, @function
_GLOBAL__sub_I_LinkSession.cpp:
.LFB10687:
	.cfi_startproc
	endbr64
	pushq	%rbp
	.cfi_def_cfa_offset 16
	.cfi_offset 6, -16
	movq	_ZGVZN4asio15system_categoryEvE8instance@GOTPCREL(%rip), %rbp
	movzbl	0(%rbp), %eax
	testb	%al, %al
	je	.L1911
.L1882:
	movq	_ZGVZN4asio5error18get_netdb_categoryEvE8instance@GOTPCREL(%rip), %rbp
	movzbl	0(%rbp), %eax
	testb	%al, %al
	je	.L1912
.L1885:
	movq	_ZGVZN4asio5error21get_addrinfo_categoryEvE8instance@GOTPCREL(%rip), %rbp
	movzbl	0(%rbp), %eax
	testb	%al, %al
	je	.L1913
.L1888:
	movq	_ZGVZN4asio5error17get_misc_categoryEvE8instance@GOTPCREL(%rip), %rbp
	movzbl	0(%rbp), %eax
	testb	%al, %al
	je	.L1914
.L1891:
	movl	$5000, %edi
	call	_ZN7openpal12TimeDuration12MillisecondsEl@PLT
	movq	_ZGVN4asio6detail10call_stackINS0_15task_io_serviceENS0_27task_io_service_thread_infoEE4top_E@GOTPCREL(%rip), %rax
	cmpb	$0, (%rax)
	je	.L1915
.L1893:
	movq	_ZGVN4asio6detail12service_baseINS0_13epoll_reactorEE2idE@GOTPCREL(%rip), %rax
	cmpb	$0, (%rax)
	je	.L1916
.L1894:
	movq	_ZGVN4asio6detail12service_baseINS0_15task_io_serviceEE2idE@GOTPCREL(%rip), %rax
	cmpb	$0, (%rax)
	je	.L1917
.L1895:
	movq	_ZGVN4asio6detail10call_stackINS0_14strand_service11strand_implEhE4top_E@GOTPCREL(%rip), %rax
	cmpb	$0, (%rax)
	je	.L1918
.L1896:
	movq	_ZGVN4asio6detail12service_baseINS0_14strand_serviceEE2idE@GOTPCREL(%rip), %rax
	cmpb	$0, (%rax)
	je	.L1919
	popq	%rbp
	.cfi_remember_state
	.cfi_def_cfa_offset 8
	ret
.L1911:
	.cfi_restore_state
	movq	%rbp, %rdi
	call	__cxa_guard_acquire@PLT
	testl	%eax, %eax
	je	.L1882
	movq	_ZZN4asio15system_categoryEvE8instance@GOTPCREL(%rip), %rsi
	movq	_ZN4asio6detail15system_categoryD1Ev@GOTPCREL(%rip), %rdi
	leaq	__dso_handle(%rip), %rdx
	call	__cxa_atexit@PLT
	movq	%rbp, %rdi
	call	__cxa_guard_release@PLT
	jmp	.L1882
.L1919:
	movb	$1, (%rax)
	leaq	__dso_handle(%rip), %rdx
	movq	_ZN4asio6detail12service_baseINS0_14strand_serviceEE2idE@GOTPCREL(%rip), %rsi
	movq	_ZN4asio6detail10service_idINS0_14strand_serviceEED1Ev@GOTPCREL(%rip), %rdi
	popq	%rbp
	.cfi_remember_state
	.cfi_def_cfa_offset 8
	jmp	__cxa_atexit@PLT
.L1918:
	.cfi_restore_state
	movb	$1, (%rax)
	movq	_ZN4asio6detail10call_stackINS0_14strand_service11strand_implEhE4top_E@GOTPCREL(%rip), %rsi
	leaq	__dso_handle(%rip), %rdx
	movq	_ZN4asio6detail7tss_ptrINS0_10call_stackINS0_14strand_service11strand_implEhE7contextEED1Ev@GOTPCREL(%rip), %rdi
	call	__cxa_atexit@PLT
	jmp	.L1896
.L1917:
	movb	$1, (%rax)
	movq	_ZN4asio6detail12service_baseINS0_15task_io_serviceEE2idE@GOTPCREL(%rip), %rsi
	leaq	__dso_handle(%rip), %rdx
	movq	_ZN4asio6detail10service_idINS0_15task_io_serviceEED1Ev@GOTPCREL(%rip), %rdi
	call	__cxa_atexit@PLT
	jmp	.L1895
.L1916:
	movb	$1, (%rax)
	movq	_ZN4asio6detail12service_baseINS0_13epoll_reactorEE2idE@GOTPCREL(%rip), %rsi
	leaq	__dso_handle(%rip), %rdx
	movq	_ZN4asio6detail10service_idINS0_13epoll_reactorEED1Ev@GOTPCREL(%rip), %rdi
	call	__cxa_atexit@PLT
	jmp	.L1894
.L1915:
	movb	$1, (%rax)
	movq	_ZN4asio6detail10call_stackINS0_15task_io_serviceENS0_27task_io_service_thread_infoEE4top_E@GOTPCREL(%rip), %rsi
	leaq	__dso_handle(%rip), %rdx
	movq	_ZN4asio6detail7tss_ptrINS0_10call_stackINS0_15task_io_serviceENS0_27task_io_service_thread_infoEE7contextEED1Ev@GOTPCREL(%rip), %rdi
	call	__cxa_atexit@PLT
	jmp	.L1893
.L1914:
	movq	%rbp, %rdi
	call	__cxa_guard_acquire@PLT
	testl	%eax, %eax
	je	.L1891
	movq	_ZZN4asio5error17get_misc_categoryEvE8instance@GOTPCREL(%rip), %rsi
	movq	_ZN4asio5error6detail13misc_categoryD1Ev@GOTPCREL(%rip), %rdi
	leaq	__dso_handle(%rip), %rdx
	call	__cxa_atexit@PLT
	movq	%rbp, %rdi
	call	__cxa_guard_release@PLT
	jmp	.L1891
.L1913:
	movq	%rbp, %rdi
	call	__cxa_guard_acquire@PLT
	testl	%eax, %eax
	je	.L1888
	movq	_ZZN4asio5error21get_addrinfo_categoryEvE8instance@GOTPCREL(%rip), %rsi
	movq	_ZN4asio5error6detail17addrinfo_categoryD1Ev@GOTPCREL(%rip), %rdi
	leaq	__dso_handle(%rip), %rdx
	call	__cxa_atexit@PLT
	movq	%rbp, %rdi
	call	__cxa_guard_release@PLT
	jmp	.L1888
.L1912:
	movq	%rbp, %rdi
	call	__cxa_guard_acquire@PLT
	testl	%eax, %eax
	je	.L1885
	movq	_ZZN4asio5error18get_netdb_categoryEvE8instance@GOTPCREL(%rip), %rsi
	movq	_ZN4asio5error6detail14netdb_categoryD1Ev@GOTPCREL(%rip), %rdi
	leaq	__dso_handle(%rip), %rdx
	call	__cxa_atexit@PLT
	movq	%rbp, %rdi
	call	__cxa_guard_release@PLT
	jmp	.L1885
	.cfi_endproc
.LFE10687:
	.size	_GLOBAL__sub_I_LinkSession.cpp, .-_GLOBAL__sub_I_LinkSession.cpp
	.section	.init_array,"aw"
	.align 8
	.quad	_GLOBAL__sub_I_LinkSession.cpp
	.weak	_ZTSN7openpal10UncopyableE
	.section	.rodata._ZTSN7openpal10UncopyableE,"aG",@progbits,_ZTSN7openpal10UncopyableE,comdat
	.align 16
	.type	_ZTSN7openpal10UncopyableE, @object
	.size	_ZTSN7openpal10UncopyableE, 23
_ZTSN7openpal10UncopyableE:
	.string	"N7openpal10UncopyableE"
	.weak	_ZTIN7openpal10UncopyableE
	.section	.data.rel.ro._ZTIN7openpal10UncopyableE,"awG",@progbits,_ZTIN7openpal10UncopyableE,comdat
	.align 8
	.type	_ZTIN7openpal10UncopyableE, @object
	.size	_ZTIN7openpal10UncopyableE, 16
_ZTIN7openpal10UncopyableE:
	.quad	_ZTVN10__cxxabiv117__class_type_infoE+16
	.quad	_ZTSN7openpal10UncopyableE
	.weak	_ZTSSt23enable_shared_from_thisIN8asiodnp311LinkSessionEE
	.section	.rodata._ZTSSt23enable_shared_from_thisIN8asiodnp311LinkSessionEE,"aG",@progbits,_ZTSSt23enable_shared_from_thisIN8asiodnp311LinkSessionEE,comdat
	.align 32
	.type	_ZTSSt23enable_shared_from_thisIN8asiodnp311LinkSessionEE, @object
	.size	_ZTSSt23enable_shared_from_thisIN8asiodnp311LinkSessionEE, 54
_ZTSSt23enable_shared_from_thisIN8asiodnp311LinkSessionEE:
	.string	"St23enable_shared_from_thisIN8asiodnp311LinkSessionEE"
	.weak	_ZTISt23enable_shared_from_thisIN8asiodnp311LinkSessionEE
	.section	.data.rel.ro._ZTISt23enable_shared_from_thisIN8asiodnp311LinkSessionEE,"awG",@progbits,_ZTISt23enable_shared_from_thisIN8asiodnp311LinkSessionEE,comdat
	.align 8
	.type	_ZTISt23enable_shared_from_thisIN8asiodnp311LinkSessionEE, @object
	.size	_ZTISt23enable_shared_from_thisIN8asiodnp311LinkSessionEE, 16
_ZTISt23enable_shared_from_thisIN8asiodnp311LinkSessionEE:
	.quad	_ZTVN10__cxxabiv117__class_type_infoE+16
	.quad	_ZTSSt23enable_shared_from_thisIN8asiodnp311LinkSessionEE
	.weak	_ZGVN4asio6detail12service_baseINS0_14strand_serviceEE2idE
	.section	.bss._ZGVN4asio6detail12service_baseINS0_14strand_serviceEE2idE,"awG",@nobits,_ZGVN4asio6detail12service_baseINS0_14strand_serviceEE2idE,comdat
	.align 8
	.type	_ZGVN4asio6detail12service_baseINS0_14strand_serviceEE2idE, @gnu_unique_object
	.size	_ZGVN4asio6detail12service_baseINS0_14strand_serviceEE2idE, 8
_ZGVN4asio6detail12service_baseINS0_14strand_serviceEE2idE:
	.zero	8
	.weak	_ZGVN4asio6detail10call_stackINS0_14strand_service11strand_implEhE4top_E
	.section	.bss._ZGVN4asio6detail10call_stackINS0_14strand_service11strand_implEhE4top_E,"awG",@nobits,_ZGVN4asio6detail10call_stackINS0_14strand_service11strand_implEhE4top_E,comdat
	.align 8
	.type	_ZGVN4asio6detail10call_stackINS0_14strand_service11strand_implEhE4top_E, @gnu_unique_object
	.size	_ZGVN4asio6detail10call_stackINS0_14strand_service11strand_implEhE4top_E, 8
_ZGVN4asio6detail10call_stackINS0_14strand_service11strand_implEhE4top_E:
	.zero	8
	.weak	_ZGVN4asio6detail12service_baseINS0_15task_io_serviceEE2idE
	.section	.bss._ZGVN4asio6detail12service_baseINS0_15task_io_serviceEE2idE,"awG",@nobits,_ZGVN4asio6detail12service_baseINS0_15task_io_serviceEE2idE,comdat
	.align 8
	.type	_ZGVN4asio6detail12service_baseINS0_15task_io_serviceEE2idE, @gnu_unique_object
	.size	_ZGVN4asio6detail12service_baseINS0_15task_io_serviceEE2idE, 8
_ZGVN4asio6detail12service_baseINS0_15task_io_serviceEE2idE:
	.zero	8
	.weak	_ZGVN4asio6detail12service_baseINS0_13epoll_reactorEE2idE
	.section	.bss._ZGVN4asio6detail12service_baseINS0_13epoll_reactorEE2idE,"awG",@nobits,_ZGVN4asio6detail12service_baseINS0_13epoll_reactorEE2idE,comdat
	.align 8
	.type	_ZGVN4asio6detail12service_baseINS0_13epoll_reactorEE2idE, @gnu_unique_object
	.size	_ZGVN4asio6detail12service_baseINS0_13epoll_reactorEE2idE, 8
_ZGVN4asio6detail12service_baseINS0_13epoll_reactorEE2idE:
	.zero	8
	.weak	_ZGVN4asio6detail10call_stackINS0_15task_io_serviceENS0_27task_io_service_thread_infoEE4top_E
	.section	.bss._ZGVN4asio6detail10call_stackINS0_15task_io_serviceENS0_27task_io_service_thread_infoEE4top_E,"awG",@nobits,_ZGVN4asio6detail10call_stackINS0_15task_io_serviceENS0_27task_io_service_thread_infoEE4top_E,comdat
	.align 8
	.type	_ZGVN4asio6detail10call_stackINS0_15task_io_serviceENS0_27task_io_service_thread_infoEE4top_E, @gnu_unique_object
	.size	_ZGVN4asio6detail10call_stackINS0_15task_io_serviceENS0_27task_io_service_thread_infoEE4top_E, 8
_ZGVN4asio6detail10call_stackINS0_15task_io_serviceENS0_27task_io_service_thread_infoEE4top_E:
	.zero	8
	.weak	_ZN4asio6detail12service_baseINS0_14strand_serviceEE2idE
	.section	.bss._ZN4asio6detail12service_baseINS0_14strand_serviceEE2idE,"awG",@nobits,_ZN4asio6detail12service_baseINS0_14strand_serviceEE2idE,comdat
	.type	_ZN4asio6detail12service_baseINS0_14strand_serviceEE2idE, @gnu_unique_object
	.size	_ZN4asio6detail12service_baseINS0_14strand_serviceEE2idE, 1
_ZN4asio6detail12service_baseINS0_14strand_serviceEE2idE:
	.zero	1
	.weak	_ZN4asio6detail10call_stackINS0_14strand_service11strand_implEhE4top_E
	.section	.bss._ZN4asio6detail10call_stackINS0_14strand_service11strand_implEhE4top_E,"awG",@nobits,_ZN4asio6detail10call_stackINS0_14strand_service11strand_implEhE4top_E,comdat
	.type	_ZN4asio6detail10call_stackINS0_14strand_service11strand_implEhE4top_E, @gnu_unique_object
	.size	_ZN4asio6detail10call_stackINS0_14strand_service11strand_implEhE4top_E, 1
_ZN4asio6detail10call_stackINS0_14strand_service11strand_implEhE4top_E:
	.zero	1
	.weak	_ZN4asio6detail12service_baseINS0_15task_io_serviceEE2idE
	.section	.bss._ZN4asio6detail12service_baseINS0_15task_io_serviceEE2idE,"awG",@nobits,_ZN4asio6detail12service_baseINS0_15task_io_serviceEE2idE,comdat
	.type	_ZN4asio6detail12service_baseINS0_15task_io_serviceEE2idE, @gnu_unique_object
	.size	_ZN4asio6detail12service_baseINS0_15task_io_serviceEE2idE, 1
_ZN4asio6detail12service_baseINS0_15task_io_serviceEE2idE:
	.zero	1
	.weak	_ZN4asio6detail12service_baseINS0_13epoll_reactorEE2idE
	.section	.bss._ZN4asio6detail12service_baseINS0_13epoll_reactorEE2idE,"awG",@nobits,_ZN4asio6detail12service_baseINS0_13epoll_reactorEE2idE,comdat
	.type	_ZN4asio6detail12service_baseINS0_13epoll_reactorEE2idE, @gnu_unique_object
	.size	_ZN4asio6detail12service_baseINS0_13epoll_reactorEE2idE, 1
_ZN4asio6detail12service_baseINS0_13epoll_reactorEE2idE:
	.zero	1
	.weak	_ZN4asio6detail10call_stackINS0_15task_io_serviceENS0_27task_io_service_thread_infoEE4top_E
	.section	.bss._ZN4asio6detail10call_stackINS0_15task_io_serviceENS0_27task_io_service_thread_infoEE4top_E,"awG",@nobits,_ZN4asio6detail10call_stackINS0_15task_io_serviceENS0_27task_io_service_thread_infoEE4top_E,comdat
	.type	_ZN4asio6detail10call_stackINS0_15task_io_serviceENS0_27task_io_service_thread_infoEE4top_E, @gnu_unique_object
	.size	_ZN4asio6detail10call_stackINS0_15task_io_serviceENS0_27task_io_service_thread_infoEE4top_E, 1
_ZN4asio6detail10call_stackINS0_15task_io_serviceENS0_27task_io_service_thread_infoEE4top_E:
	.zero	1
	.weak	_ZTSN8opendnp310IFrameSinkE
	.section	.rodata._ZTSN8opendnp310IFrameSinkE,"aG",@progbits,_ZTSN8opendnp310IFrameSinkE,comdat
	.align 16
	.type	_ZTSN8opendnp310IFrameSinkE, @object
	.size	_ZTSN8opendnp310IFrameSinkE, 24
_ZTSN8opendnp310IFrameSinkE:
	.string	"N8opendnp310IFrameSinkE"
	.weak	_ZTIN8opendnp310IFrameSinkE
	.section	.data.rel.ro._ZTIN8opendnp310IFrameSinkE,"awG",@progbits,_ZTIN8opendnp310IFrameSinkE,comdat
	.align 8
	.type	_ZTIN8opendnp310IFrameSinkE, @object
	.size	_ZTIN8opendnp310IFrameSinkE, 16
_ZTIN8opendnp310IFrameSinkE:
	.quad	_ZTVN10__cxxabiv117__class_type_infoE+16
	.quad	_ZTSN8opendnp310IFrameSinkE
	.weak	_ZTSN8opendnp37ILinkTxE
	.section	.rodata._ZTSN8opendnp37ILinkTxE,"aG",@progbits,_ZTSN8opendnp37ILinkTxE,comdat
	.align 16
	.type	_ZTSN8opendnp37ILinkTxE, @object
	.size	_ZTSN8opendnp37ILinkTxE, 20
_ZTSN8opendnp37ILinkTxE:
	.string	"N8opendnp37ILinkTxE"
	.weak	_ZTIN8opendnp37ILinkTxE
	.section	.data.rel.ro._ZTIN8opendnp37ILinkTxE,"awG",@progbits,_ZTIN8opendnp37ILinkTxE,comdat
	.align 8
	.type	_ZTIN8opendnp37ILinkTxE, @object
	.size	_ZTIN8opendnp37ILinkTxE, 16
_ZTIN8opendnp37ILinkTxE:
	.quad	_ZTVN10__cxxabiv117__class_type_infoE+16
	.quad	_ZTSN8opendnp37ILinkTxE
	.weak	_ZTSN4asio6detail15system_categoryE
	.section	.rodata._ZTSN4asio6detail15system_categoryE,"aG",@progbits,_ZTSN4asio6detail15system_categoryE,comdat
	.align 32
	.type	_ZTSN4asio6detail15system_categoryE, @object
	.size	_ZTSN4asio6detail15system_categoryE, 32
_ZTSN4asio6detail15system_categoryE:
	.string	"N4asio6detail15system_categoryE"
	.weak	_ZTIN4asio6detail15system_categoryE
	.section	.data.rel.ro._ZTIN4asio6detail15system_categoryE,"awG",@progbits,_ZTIN4asio6detail15system_categoryE,comdat
	.align 8
	.type	_ZTIN4asio6detail15system_categoryE, @object
	.size	_ZTIN4asio6detail15system_categoryE, 24
_ZTIN4asio6detail15system_categoryE:
	.quad	_ZTVN10__cxxabiv120__si_class_type_infoE+16
	.quad	_ZTSN4asio6detail15system_categoryE
	.quad	_ZTINSt3_V214error_categoryE
	.weak	_ZTSN4asio5error6detail14netdb_categoryE
	.section	.rodata._ZTSN4asio5error6detail14netdb_categoryE,"aG",@progbits,_ZTSN4asio5error6detail14netdb_categoryE,comdat
	.align 32
	.type	_ZTSN4asio5error6detail14netdb_categoryE, @object
	.size	_ZTSN4asio5error6detail14netdb_categoryE, 37
_ZTSN4asio5error6detail14netdb_categoryE:
	.string	"N4asio5error6detail14netdb_categoryE"
	.weak	_ZTIN4asio5error6detail14netdb_categoryE
	.section	.data.rel.ro._ZTIN4asio5error6detail14netdb_categoryE,"awG",@progbits,_ZTIN4asio5error6detail14netdb_categoryE,comdat
	.align 8
	.type	_ZTIN4asio5error6detail14netdb_categoryE, @object
	.size	_ZTIN4asio5error6detail14netdb_categoryE, 24
_ZTIN4asio5error6detail14netdb_categoryE:
	.quad	_ZTVN10__cxxabiv120__si_class_type_infoE+16
	.quad	_ZTSN4asio5error6detail14netdb_categoryE
	.quad	_ZTINSt3_V214error_categoryE
	.weak	_ZTSN4asio5error6detail17addrinfo_categoryE
	.section	.rodata._ZTSN4asio5error6detail17addrinfo_categoryE,"aG",@progbits,_ZTSN4asio5error6detail17addrinfo_categoryE,comdat
	.align 32
	.type	_ZTSN4asio5error6detail17addrinfo_categoryE, @object
	.size	_ZTSN4asio5error6detail17addrinfo_categoryE, 40
_ZTSN4asio5error6detail17addrinfo_categoryE:
	.string	"N4asio5error6detail17addrinfo_categoryE"
	.weak	_ZTIN4asio5error6detail17addrinfo_categoryE
	.section	.data.rel.ro._ZTIN4asio5error6detail17addrinfo_categoryE,"awG",@progbits,_ZTIN4asio5error6detail17addrinfo_categoryE,comdat
	.align 8
	.type	_ZTIN4asio5error6detail17addrinfo_categoryE, @object
	.size	_ZTIN4asio5error6detail17addrinfo_categoryE, 24
_ZTIN4asio5error6detail17addrinfo_categoryE:
	.quad	_ZTVN10__cxxabiv120__si_class_type_infoE+16
	.quad	_ZTSN4asio5error6detail17addrinfo_categoryE
	.quad	_ZTINSt3_V214error_categoryE
	.weak	_ZTSN4asio5error6detail13misc_categoryE
	.section	.rodata._ZTSN4asio5error6detail13misc_categoryE,"aG",@progbits,_ZTSN4asio5error6detail13misc_categoryE,comdat
	.align 32
	.type	_ZTSN4asio5error6detail13misc_categoryE, @object
	.size	_ZTSN4asio5error6detail13misc_categoryE, 36
_ZTSN4asio5error6detail13misc_categoryE:
	.string	"N4asio5error6detail13misc_categoryE"
	.weak	_ZTIN4asio5error6detail13misc_categoryE
	.section	.data.rel.ro._ZTIN4asio5error6detail13misc_categoryE,"awG",@progbits,_ZTIN4asio5error6detail13misc_categoryE,comdat
	.align 8
	.type	_ZTIN4asio5error6detail13misc_categoryE, @object
	.size	_ZTIN4asio5error6detail13misc_categoryE, 24
_ZTIN4asio5error6detail13misc_categoryE:
	.quad	_ZTVN10__cxxabiv120__si_class_type_infoE+16
	.quad	_ZTSN4asio5error6detail13misc_categoryE
	.quad	_ZTINSt3_V214error_categoryE
	.weak	_ZTSN7asiopal9IResourceE
	.section	.rodata._ZTSN7asiopal9IResourceE,"aG",@progbits,_ZTSN7asiopal9IResourceE,comdat
	.align 16
	.type	_ZTSN7asiopal9IResourceE, @object
	.size	_ZTSN7asiopal9IResourceE, 21
_ZTSN7asiopal9IResourceE:
	.string	"N7asiopal9IResourceE"
	.weak	_ZTIN7asiopal9IResourceE
	.section	.data.rel.ro._ZTIN7asiopal9IResourceE,"awG",@progbits,_ZTIN7asiopal9IResourceE,comdat
	.align 8
	.type	_ZTIN7asiopal9IResourceE, @object
	.size	_ZTIN7asiopal9IResourceE, 16
_ZTIN7asiopal9IResourceE:
	.quad	_ZTVN10__cxxabiv117__class_type_infoE+16
	.quad	_ZTSN7asiopal9IResourceE
	.weak	_ZTSN7asiopal17IChannelCallbacksE
	.section	.rodata._ZTSN7asiopal17IChannelCallbacksE,"aG",@progbits,_ZTSN7asiopal17IChannelCallbacksE,comdat
	.align 16
	.type	_ZTSN7asiopal17IChannelCallbacksE, @object
	.size	_ZTSN7asiopal17IChannelCallbacksE, 30
_ZTSN7asiopal17IChannelCallbacksE:
	.string	"N7asiopal17IChannelCallbacksE"
	.weak	_ZTIN7asiopal17IChannelCallbacksE
	.section	.data.rel.ro._ZTIN7asiopal17IChannelCallbacksE,"awG",@progbits,_ZTIN7asiopal17IChannelCallbacksE,comdat
	.align 8
	.type	_ZTIN7asiopal17IChannelCallbacksE, @object
	.size	_ZTIN7asiopal17IChannelCallbacksE, 16
_ZTIN7asiopal17IChannelCallbacksE:
	.quad	_ZTVN10__cxxabiv117__class_type_infoE+16
	.quad	_ZTSN7asiopal17IChannelCallbacksE
	.weak	_ZTSN8asiodnp316ISessionAcceptorE
	.section	.rodata._ZTSN8asiodnp316ISessionAcceptorE,"aG",@progbits,_ZTSN8asiodnp316ISessionAcceptorE,comdat
	.align 16
	.type	_ZTSN8asiodnp316ISessionAcceptorE, @object
	.size	_ZTSN8asiodnp316ISessionAcceptorE, 30
_ZTSN8asiodnp316ISessionAcceptorE:
	.string	"N8asiodnp316ISessionAcceptorE"
	.weak	_ZTIN8asiodnp316ISessionAcceptorE
	.section	.data.rel.ro._ZTIN8asiodnp316ISessionAcceptorE,"awG",@progbits,_ZTIN8asiodnp316ISessionAcceptorE,comdat
	.align 8
	.type	_ZTIN8asiodnp316ISessionAcceptorE, @object
	.size	_ZTIN8asiodnp316ISessionAcceptorE, 16
_ZTIN8asiodnp316ISessionAcceptorE:
	.quad	_ZTVN10__cxxabiv117__class_type_infoE+16
	.quad	_ZTSN8asiodnp316ISessionAcceptorE
	.weak	_ZTSN8asiodnp311LinkSessionE
	.section	.rodata._ZTSN8asiodnp311LinkSessionE,"aG",@progbits,_ZTSN8asiodnp311LinkSessionE,comdat
	.align 16
	.type	_ZTSN8asiodnp311LinkSessionE, @object
	.size	_ZTSN8asiodnp311LinkSessionE, 25
_ZTSN8asiodnp311LinkSessionE:
	.string	"N8asiodnp311LinkSessionE"
	.weak	_ZTIN8asiodnp311LinkSessionE
	.section	.data.rel.ro._ZTIN8asiodnp311LinkSessionE,"awG",@progbits,_ZTIN8asiodnp311LinkSessionE,comdat
	.align 8
	.type	_ZTIN8asiodnp311LinkSessionE, @object
	.size	_ZTIN8asiodnp311LinkSessionE, 136
_ZTIN8asiodnp311LinkSessionE:
	.quad	_ZTVN10__cxxabiv121__vmi_class_type_infoE+16
	.quad	_ZTSN8asiodnp311LinkSessionE
	.long	0
	.long	7
	.quad	_ZTIN8opendnp37ILinkTxE
	.quad	2
	.quad	_ZTIN7asiopal17IChannelCallbacksE
	.quad	2050
	.quad	_ZTIN8opendnp310IFrameSinkE
	.quad	4096
	.quad	_ZTISt23enable_shared_from_thisIN8asiodnp311LinkSessionEE
	.quad	6146
	.quad	_ZTIN7asiopal9IResourceE
	.quad	10242
	.quad	_ZTIN8asiodnp316ISessionAcceptorE
	.quad	12288
	.quad	_ZTIN7openpal10UncopyableE
	.quad	0
	.section	.data.rel.ro,"aw"
	.align 8
	.type	_ZTIZN8asiodnp311LinkSession8ShutdownEvEUlvE_, @object
	.size	_ZTIZN8asiodnp311LinkSession8ShutdownEvEUlvE_, 16
_ZTIZN8asiodnp311LinkSession8ShutdownEvEUlvE_:
	.quad	_ZTVN10__cxxabiv117__class_type_infoE+16
	.quad	_ZTSZN8asiodnp311LinkSession8ShutdownEvEUlvE_
	.section	.rodata
	.align 32
	.type	_ZTSZN8asiodnp311LinkSession8ShutdownEvEUlvE_, @object
	.size	_ZTSZN8asiodnp311LinkSession8ShutdownEvEUlvE_, 43
_ZTSZN8asiodnp311LinkSession8ShutdownEvEUlvE_:
	.string	"*ZN8asiodnp311LinkSession8ShutdownEvEUlvE_"
	.section	.data.rel.ro
	.align 8
	.type	_ZTIZN7openpal8TimerRef5StartIZN8asiodnp311LinkSession5StartEvEUlvE_EEbRKNS_12TimeDurationERKT_EUlvE_, @object
	.size	_ZTIZN7openpal8TimerRef5StartIZN8asiodnp311LinkSession5StartEvEUlvE_EEbRKNS_12TimeDurationERKT_EUlvE_, 16
_ZTIZN7openpal8TimerRef5StartIZN8asiodnp311LinkSession5StartEvEUlvE_EEbRKNS_12TimeDurationERKT_EUlvE_:
	.quad	_ZTVN10__cxxabiv117__class_type_infoE+16
	.quad	_ZTSZN7openpal8TimerRef5StartIZN8asiodnp311LinkSession5StartEvEUlvE_EEbRKNS_12TimeDurationERKT_EUlvE_
	.section	.rodata
	.align 32
	.type	_ZTSZN7openpal8TimerRef5StartIZN8asiodnp311LinkSession5StartEvEUlvE_EEbRKNS_12TimeDurationERKT_EUlvE_, @object
	.size	_ZTSZN7openpal8TimerRef5StartIZN8asiodnp311LinkSession5StartEvEUlvE_EEbRKNS_12TimeDurationERKT_EUlvE_, 99
_ZTSZN7openpal8TimerRef5StartIZN8asiodnp311LinkSession5StartEvEUlvE_EEbRKNS_12TimeDurationERKT_EUlvE_:
	.string	"*ZN7openpal8TimerRef5StartIZN8asiodnp311LinkSession5StartEvEUlvE_EEbRKNS_12TimeDurationERKT_EUlvE_"
	.weak	_ZTVN4asio6detail15system_categoryE
	.section	.data.rel.ro._ZTVN4asio6detail15system_categoryE,"awG",@progbits,_ZTVN4asio6detail15system_categoryE,comdat
	.align 8
	.type	_ZTVN4asio6detail15system_categoryE, @object
	.size	_ZTVN4asio6detail15system_categoryE, 80
_ZTVN4asio6detail15system_categoryE:
	.quad	0
	.quad	_ZTIN4asio6detail15system_categoryE
	.quad	_ZN4asio6detail15system_categoryD1Ev
	.quad	_ZN4asio6detail15system_categoryD0Ev
	.quad	_ZNK4asio6detail15system_category4nameEv
	.quad	_ZNKSt3_V214error_category10_M_messageB5cxx11Ei
	.quad	_ZNK4asio6detail15system_category7messageB5cxx11Ei
	.quad	_ZNKSt3_V214error_category23default_error_conditionEi
	.quad	_ZNKSt3_V214error_category10equivalentEiRKSt15error_condition
	.quad	_ZNKSt3_V214error_category10equivalentERKSt10error_codei
	.weak	_ZTVN4asio5error6detail14netdb_categoryE
	.section	.data.rel.ro._ZTVN4asio5error6detail14netdb_categoryE,"awG",@progbits,_ZTVN4asio5error6detail14netdb_categoryE,comdat
	.align 8
	.type	_ZTVN4asio5error6detail14netdb_categoryE, @object
	.size	_ZTVN4asio5error6detail14netdb_categoryE, 80
_ZTVN4asio5error6detail14netdb_categoryE:
	.quad	0
	.quad	_ZTIN4asio5error6detail14netdb_categoryE
	.quad	_ZN4asio5error6detail14netdb_categoryD1Ev
	.quad	_ZN4asio5error6detail14netdb_categoryD0Ev
	.quad	_ZNK4asio5error6detail14netdb_category4nameEv
	.quad	_ZNKSt3_V214error_category10_M_messageB5cxx11Ei
	.quad	_ZNK4asio5error6detail14netdb_category7messageB5cxx11Ei
	.quad	_ZNKSt3_V214error_category23default_error_conditionEi
	.quad	_ZNKSt3_V214error_category10equivalentEiRKSt15error_condition
	.quad	_ZNKSt3_V214error_category10equivalentERKSt10error_codei
	.weak	_ZTVN4asio5error6detail17addrinfo_categoryE
	.section	.data.rel.ro._ZTVN4asio5error6detail17addrinfo_categoryE,"awG",@progbits,_ZTVN4asio5error6detail17addrinfo_categoryE,comdat
	.align 8
	.type	_ZTVN4asio5error6detail17addrinfo_categoryE, @object
	.size	_ZTVN4asio5error6detail17addrinfo_categoryE, 80
_ZTVN4asio5error6detail17addrinfo_categoryE:
	.quad	0
	.quad	_ZTIN4asio5error6detail17addrinfo_categoryE
	.quad	_ZN4asio5error6detail17addrinfo_categoryD1Ev
	.quad	_ZN4asio5error6detail17addrinfo_categoryD0Ev
	.quad	_ZNK4asio5error6detail17addrinfo_category4nameEv
	.quad	_ZNKSt3_V214error_category10_M_messageB5cxx11Ei
	.quad	_ZNK4asio5error6detail17addrinfo_category7messageB5cxx11Ei
	.quad	_ZNKSt3_V214error_category23default_error_conditionEi
	.quad	_ZNKSt3_V214error_category10equivalentEiRKSt15error_condition
	.quad	_ZNKSt3_V214error_category10equivalentERKSt10error_codei
	.weak	_ZTVN4asio5error6detail13misc_categoryE
	.section	.data.rel.ro._ZTVN4asio5error6detail13misc_categoryE,"awG",@progbits,_ZTVN4asio5error6detail13misc_categoryE,comdat
	.align 8
	.type	_ZTVN4asio5error6detail13misc_categoryE, @object
	.size	_ZTVN4asio5error6detail13misc_categoryE, 80
