	.file	"MasterTCPServer.cpp"
	.text
	.section	.rodata._ZNK4asio6detail15system_category4nameEv.str1.1,"aMS",@progbits,1
.LC0:
	.string	"asio.system"
	.section	.text._ZNK4asio6detail15system_category4nameEv,"axG",@progbits,_ZNK4asio6detail15system_category4nameEv,comdat
	.align 2
	.p2align 4
	.weak	_ZNK4asio6detail15system_category4nameEv
	.type	_ZNK4asio6detail15system_category4nameEv, @function
_ZNK4asio6detail15system_category4nameEv:
.LFB2458:
	.cfi_startproc
	endbr64
	leaq	.LC0(%rip), %rax
	ret
	.cfi_endproc
.LFE2458:
	.size	_ZNK4asio6detail15system_category4nameEv, .-_ZNK4asio6detail15system_category4nameEv
	.section	.rodata._ZNK4asio5error6detail14netdb_category4nameEv.str1.1,"aMS",@progbits,1
.LC1:
	.string	"asio.netdb"
	.section	.text._ZNK4asio5error6detail14netdb_category4nameEv,"axG",@progbits,_ZNK4asio5error6detail14netdb_category4nameEv,comdat
	.align 2
	.p2align 4
	.weak	_ZNK4asio5error6detail14netdb_category4nameEv
	.type	_ZNK4asio5error6detail14netdb_category4nameEv, @function
_ZNK4asio5error6detail14netdb_category4nameEv:
.LFB2498:
	.cfi_startproc
	endbr64
	leaq	.LC1(%rip), %rax
	ret
	.cfi_endproc
.LFE2498:
	.size	_ZNK4asio5error6detail14netdb_category4nameEv, .-_ZNK4asio5error6detail14netdb_category4nameEv
	.section	.rodata._ZNK4asio5error6detail17addrinfo_category4nameEv.str1.1,"aMS",@progbits,1
.LC2:
	.string	"asio.addrinfo"
	.section	.text._ZNK4asio5error6detail17addrinfo_category4nameEv,"axG",@progbits,_ZNK4asio5error6detail17addrinfo_category4nameEv,comdat
	.align 2
	.p2align 4
	.weak	_ZNK4asio5error6detail17addrinfo_category4nameEv
	.type	_ZNK4asio5error6detail17addrinfo_category4nameEv, @function
_ZNK4asio5error6detail17addrinfo_category4nameEv:
.LFB2504:
	.cfi_startproc
	endbr64
	leaq	.LC2(%rip), %rax
	ret
	.cfi_endproc
.LFE2504:
	.size	_ZNK4asio5error6detail17addrinfo_category4nameEv, .-_ZNK4asio5error6detail17addrinfo_category4nameEv
	.section	.rodata._ZNK4asio5error6detail13misc_category4nameEv.str1.1,"aMS",@progbits,1
.LC3:
	.string	"asio.misc"
	.section	.text._ZNK4asio5error6detail13misc_category4nameEv,"axG",@progbits,_ZNK4asio5error6detail13misc_category4nameEv,comdat
	.align 2
	.p2align 4
	.weak	_ZNK4asio5error6detail13misc_category4nameEv
	.type	_ZNK4asio5error6detail13misc_category4nameEv, @function
_ZNK4asio5error6detail13misc_category4nameEv:
.LFB2510:
	.cfi_startproc
	endbr64
	leaq	.LC3(%rip), %rax
	ret
	.cfi_endproc
.LFE2510:
	.size	_ZNK4asio5error6detail13misc_category4nameEv, .-_ZNK4asio5error6detail13misc_category4nameEv
	.section	.text._ZNKSt5ctypeIcE8do_widenEc,"axG",@progbits,_ZNKSt5ctypeIcE8do_widenEc,comdat
	.align 2
	.p2align 4
	.weak	_ZNKSt5ctypeIcE8do_widenEc
	.type	_ZNKSt5ctypeIcE8do_widenEc, @function
_ZNKSt5ctypeIcE8do_widenEc:
.LFB4678:
	.cfi_startproc
	endbr64
	movl	%esi, %eax
	ret
	.cfi_endproc
.LFE4678:
	.size	_ZNKSt5ctypeIcE8do_widenEc, .-_ZNKSt5ctypeIcE8do_widenEc
	.section	.text._ZN4asio6detail7tss_ptrINS0_10call_stackINS0_15task_io_serviceENS0_27task_io_service_thread_infoEE7contextEED2Ev,"axG",@progbits,_ZN4asio6detail7tss_ptrINS0_10call_stackINS0_15task_io_serviceENS0_27task_io_service_thread_infoEE7contextEED5Ev,comdat
	.align 2
	.p2align 4
	.weak	_ZN4asio6detail7tss_ptrINS0_10call_stackINS0_15task_io_serviceENS0_27task_io_service_thread_infoEE7contextEED2Ev
	.type	_ZN4asio6detail7tss_ptrINS0_10call_stackINS0_15task_io_serviceENS0_27task_io_service_thread_infoEE7contextEED2Ev, @function
_ZN4asio6detail7tss_ptrINS0_10call_stackINS0_15task_io_serviceENS0_27task_io_service_thread_infoEE7contextEED2Ev:
.LFB11217:
	.cfi_startproc
	endbr64
	ret
	.cfi_endproc
.LFE11217:
	.size	_ZN4asio6detail7tss_ptrINS0_10call_stackINS0_15task_io_serviceENS0_27task_io_service_thread_infoEE7contextEED2Ev, .-_ZN4asio6detail7tss_ptrINS0_10call_stackINS0_15task_io_serviceENS0_27task_io_service_thread_infoEE7contextEED2Ev
	.weak	_ZN4asio6detail7tss_ptrINS0_10call_stackINS0_15task_io_serviceENS0_27task_io_service_thread_infoEE7contextEED1Ev
	.set	_ZN4asio6detail7tss_ptrINS0_10call_stackINS0_15task_io_serviceENS0_27task_io_service_thread_infoEE7contextEED1Ev,_ZN4asio6detail7tss_ptrINS0_10call_stackINS0_15task_io_serviceENS0_27task_io_service_thread_infoEE7contextEED2Ev
	.section	.text._ZN4asio6detail10service_idINS0_13epoll_reactorEED2Ev,"axG",@progbits,_ZN4asio6detail10service_idINS0_13epoll_reactorEED5Ev,comdat
	.align 2
	.p2align 4
	.weak	_ZN4asio6detail10service_idINS0_13epoll_reactorEED2Ev
	.type	_ZN4asio6detail10service_idINS0_13epoll_reactorEED2Ev, @function
_ZN4asio6detail10service_idINS0_13epoll_reactorEED2Ev:
.LFB11220:
	.cfi_startproc
	endbr64
	ret
	.cfi_endproc
.LFE11220:
	.size	_ZN4asio6detail10service_idINS0_13epoll_reactorEED2Ev, .-_ZN4asio6detail10service_idINS0_13epoll_reactorEED2Ev
	.weak	_ZN4asio6detail10service_idINS0_13epoll_reactorEED1Ev
	.set	_ZN4asio6detail10service_idINS0_13epoll_reactorEED1Ev,_ZN4asio6detail10service_idINS0_13epoll_reactorEED2Ev
	.section	.text._ZN4asio6detail10service_idINS0_15task_io_serviceEED2Ev,"axG",@progbits,_ZN4asio6detail10service_idINS0_15task_io_serviceEED5Ev,comdat
	.align 2
	.p2align 4
	.weak	_ZN4asio6detail10service_idINS0_15task_io_serviceEED2Ev
	.type	_ZN4asio6detail10service_idINS0_15task_io_serviceEED2Ev, @function
_ZN4asio6detail10service_idINS0_15task_io_serviceEED2Ev:
.LFB11223:
	.cfi_startproc
	endbr64
	ret
	.cfi_endproc
.LFE11223:
	.size	_ZN4asio6detail10service_idINS0_15task_io_serviceEED2Ev, .-_ZN4asio6detail10service_idINS0_15task_io_serviceEED2Ev
	.weak	_ZN4asio6detail10service_idINS0_15task_io_serviceEED1Ev
	.set	_ZN4asio6detail10service_idINS0_15task_io_serviceEED1Ev,_ZN4asio6detail10service_idINS0_15task_io_serviceEED2Ev
	.section	.text._ZN4asio6detail7tss_ptrINS0_10call_stackINS0_14strand_service11strand_implEhE7contextEED2Ev,"axG",@progbits,_ZN4asio6detail7tss_ptrINS0_10call_stackINS0_14strand_service11strand_implEhE7contextEED5Ev,comdat
	.align 2
	.p2align 4
	.weak	_ZN4asio6detail7tss_ptrINS0_10call_stackINS0_14strand_service11strand_implEhE7contextEED2Ev
	.type	_ZN4asio6detail7tss_ptrINS0_10call_stackINS0_14strand_service11strand_implEhE7contextEED2Ev, @function
_ZN4asio6detail7tss_ptrINS0_10call_stackINS0_14strand_service11strand_implEhE7contextEED2Ev:
.LFB11226:
	.cfi_startproc
	endbr64
	ret
	.cfi_endproc
.LFE11226:
	.size	_ZN4asio6detail7tss_ptrINS0_10call_stackINS0_14strand_service11strand_implEhE7contextEED2Ev, .-_ZN4asio6detail7tss_ptrINS0_10call_stackINS0_14strand_service11strand_implEhE7contextEED2Ev
	.weak	_ZN4asio6detail7tss_ptrINS0_10call_stackINS0_14strand_service11strand_implEhE7contextEED1Ev
	.set	_ZN4asio6detail7tss_ptrINS0_10call_stackINS0_14strand_service11strand_implEhE7contextEED1Ev,_ZN4asio6detail7tss_ptrINS0_10call_stackINS0_14strand_service11strand_implEhE7contextEED2Ev
	.section	.text._ZN4asio6detail10service_idINS0_14strand_serviceEED2Ev,"axG",@progbits,_ZN4asio6detail10service_idINS0_14strand_serviceEED5Ev,comdat
	.align 2
	.p2align 4
	.weak	_ZN4asio6detail10service_idINS0_14strand_serviceEED2Ev
	.type	_ZN4asio6detail10service_idINS0_14strand_serviceEED2Ev, @function
_ZN4asio6detail10service_idINS0_14strand_serviceEED2Ev:
.LFB11229:
	.cfi_startproc
	endbr64
	ret
	.cfi_endproc
.LFE11229:
	.size	_ZN4asio6detail10service_idINS0_14strand_serviceEED2Ev, .-_ZN4asio6detail10service_idINS0_14strand_serviceEED2Ev
	.weak	_ZN4asio6detail10service_idINS0_14strand_serviceEED1Ev
	.set	_ZN4asio6detail10service_idINS0_14strand_serviceEED1Ev,_ZN4asio6detail10service_idINS0_14strand_serviceEED2Ev
	.section	.text._ZNSt23_Sp_counted_ptr_inplaceIN7asiopal13SocketChannelESaIS1_ELN9__gnu_cxx12_Lock_policyE2EED2Ev,"axG",@progbits,_ZNSt23_Sp_counted_ptr_inplaceIN7asiopal13SocketChannelESaIS1_ELN9__gnu_cxx12_Lock_policyE2EED5Ev,comdat
	.align 2
	.p2align 4
	.weak	_ZNSt23_Sp_counted_ptr_inplaceIN7asiopal13SocketChannelESaIS1_ELN9__gnu_cxx12_Lock_policyE2EED2Ev
	.type	_ZNSt23_Sp_counted_ptr_inplaceIN7asiopal13SocketChannelESaIS1_ELN9__gnu_cxx12_Lock_policyE2EED2Ev, @function
_ZNSt23_Sp_counted_ptr_inplaceIN7asiopal13SocketChannelESaIS1_ELN9__gnu_cxx12_Lock_policyE2EED2Ev:
.LFB11232:
	.cfi_startproc
	endbr64
	ret
	.cfi_endproc
.LFE11232:
	.size	_ZNSt23_Sp_counted_ptr_inplaceIN7asiopal13SocketChannelESaIS1_ELN9__gnu_cxx12_Lock_policyE2EED2Ev, .-_ZNSt23_Sp_counted_ptr_inplaceIN7asiopal13SocketChannelESaIS1_ELN9__gnu_cxx12_Lock_policyE2EED2Ev
	.weak	_ZNSt23_Sp_counted_ptr_inplaceIN7asiopal13SocketChannelESaIS1_ELN9__gnu_cxx12_Lock_policyE2EED1Ev
	.set	_ZNSt23_Sp_counted_ptr_inplaceIN7asiopal13SocketChannelESaIS1_ELN9__gnu_cxx12_Lock_policyE2EED1Ev,_ZNSt23_Sp_counted_ptr_inplaceIN7asiopal13SocketChannelESaIS1_ELN9__gnu_cxx12_Lock_policyE2EED2Ev
	.section	.text._ZNSt23_Sp_counted_ptr_inplaceIN8asiodnp311LinkSessionESaIS1_ELN9__gnu_cxx12_Lock_policyE2EED2Ev,"axG",@progbits,_ZNSt23_Sp_counted_ptr_inplaceIN8asiodnp311LinkSessionESaIS1_ELN9__gnu_cxx12_Lock_policyE2EED5Ev,comdat
	.align 2
	.p2align 4
	.weak	_ZNSt23_Sp_counted_ptr_inplaceIN8asiodnp311LinkSessionESaIS1_ELN9__gnu_cxx12_Lock_policyE2EED2Ev
	.type	_ZNSt23_Sp_counted_ptr_inplaceIN8asiodnp311LinkSessionESaIS1_ELN9__gnu_cxx12_Lock_policyE2EED2Ev, @function
_ZNSt23_Sp_counted_ptr_inplaceIN8asiodnp311LinkSessionESaIS1_ELN9__gnu_cxx12_Lock_policyE2EED2Ev:
.LFB11239:
	.cfi_startproc
	endbr64
	ret
	.cfi_endproc
.LFE11239:
	.size	_ZNSt23_Sp_counted_ptr_inplaceIN8asiodnp311LinkSessionESaIS1_ELN9__gnu_cxx12_Lock_policyE2EED2Ev, .-_ZNSt23_Sp_counted_ptr_inplaceIN8asiodnp311LinkSessionESaIS1_ELN9__gnu_cxx12_Lock_policyE2EED2Ev
	.weak	_ZNSt23_Sp_counted_ptr_inplaceIN8asiodnp311LinkSessionESaIS1_ELN9__gnu_cxx12_Lock_policyE2EED1Ev
	.set	_ZNSt23_Sp_counted_ptr_inplaceIN8asiodnp311LinkSessionESaIS1_ELN9__gnu_cxx12_Lock_policyE2EED1Ev,_ZNSt23_Sp_counted_ptr_inplaceIN8asiodnp311LinkSessionESaIS1_ELN9__gnu_cxx12_Lock_policyE2EED2Ev
	.section	.text._ZNSt23_Sp_counted_ptr_inplaceIN7asiopal8ExecutorESaIS1_ELN9__gnu_cxx12_Lock_policyE2EED2Ev,"axG",@progbits,_ZNSt23_Sp_counted_ptr_inplaceIN7asiopal8ExecutorESaIS1_ELN9__gnu_cxx12_Lock_policyE2EED5Ev,comdat
	.align 2
	.p2align 4
	.weak	_ZNSt23_Sp_counted_ptr_inplaceIN7asiopal8ExecutorESaIS1_ELN9__gnu_cxx12_Lock_policyE2EED2Ev
	.type	_ZNSt23_Sp_counted_ptr_inplaceIN7asiopal8ExecutorESaIS1_ELN9__gnu_cxx12_Lock_policyE2EED2Ev, @function
_ZNSt23_Sp_counted_ptr_inplaceIN7asiopal8ExecutorESaIS1_ELN9__gnu_cxx12_Lock_policyE2EED2Ev:
.LFB11267:
	.cfi_startproc
	endbr64
	ret
	.cfi_endproc
.LFE11267:
	.size	_ZNSt23_Sp_counted_ptr_inplaceIN7asiopal8ExecutorESaIS1_ELN9__gnu_cxx12_Lock_policyE2EED2Ev, .-_ZNSt23_Sp_counted_ptr_inplaceIN7asiopal8ExecutorESaIS1_ELN9__gnu_cxx12_Lock_policyE2EED2Ev
	.weak	_ZNSt23_Sp_counted_ptr_inplaceIN7asiopal8ExecutorESaIS1_ELN9__gnu_cxx12_Lock_policyE2EED1Ev
	.set	_ZNSt23_Sp_counted_ptr_inplaceIN7asiopal8ExecutorESaIS1_ELN9__gnu_cxx12_Lock_policyE2EED1Ev,_ZNSt23_Sp_counted_ptr_inplaceIN7asiopal8ExecutorESaIS1_ELN9__gnu_cxx12_Lock_policyE2EED2Ev
	.section	.text._ZNSt23_Sp_counted_ptr_inplaceIN7openpal6Logger8SettingsESaIS2_ELN9__gnu_cxx12_Lock_policyE2EED2Ev,"axG",@progbits,_ZNSt23_Sp_counted_ptr_inplaceIN7openpal6Logger8SettingsESaIS2_ELN9__gnu_cxx12_Lock_policyE2EED5Ev,comdat
	.align 2
	.p2align 4
	.weak	_ZNSt23_Sp_counted_ptr_inplaceIN7openpal6Logger8SettingsESaIS2_ELN9__gnu_cxx12_Lock_policyE2EED2Ev
	.type	_ZNSt23_Sp_counted_ptr_inplaceIN7openpal6Logger8SettingsESaIS2_ELN9__gnu_cxx12_Lock_policyE2EED2Ev, @function
_ZNSt23_Sp_counted_ptr_inplaceIN7openpal6Logger8SettingsESaIS2_ELN9__gnu_cxx12_Lock_policyE2EED2Ev:
.LFB11288:
	.cfi_startproc
	endbr64
	ret
	.cfi_endproc
.LFE11288:
	.size	_ZNSt23_Sp_counted_ptr_inplaceIN7openpal6Logger8SettingsESaIS2_ELN9__gnu_cxx12_Lock_policyE2EED2Ev, .-_ZNSt23_Sp_counted_ptr_inplaceIN7openpal6Logger8SettingsESaIS2_ELN9__gnu_cxx12_Lock_policyE2EED2Ev
	.weak	_ZNSt23_Sp_counted_ptr_inplaceIN7openpal6Logger8SettingsESaIS2_ELN9__gnu_cxx12_Lock_policyE2EED1Ev
	.set	_ZNSt23_Sp_counted_ptr_inplaceIN7openpal6Logger8SettingsESaIS2_ELN9__gnu_cxx12_Lock_policyE2EED1Ev,_ZNSt23_Sp_counted_ptr_inplaceIN7openpal6Logger8SettingsESaIS2_ELN9__gnu_cxx12_Lock_policyE2EED2Ev
	.section	.text._ZN4asio6detail15system_categoryD2Ev,"axG",@progbits,_ZN4asio6detail15system_categoryD5Ev,comdat
	.align 2
	.p2align 4
	.weak	_ZN4asio6detail15system_categoryD2Ev
	.type	_ZN4asio6detail15system_categoryD2Ev, @function
_ZN4asio6detail15system_categoryD2Ev:
.LFB11196:
	.cfi_startproc
	endbr64
	movq	_ZTVN4asio6detail15system_categoryE@GOTPCREL(%rip), %rax
	addq	$16, %rax
	movq	%rax, (%rdi)
	jmp	_ZNSt3_V214error_categoryD2Ev@PLT
	.cfi_endproc
.LFE11196:
	.size	_ZN4asio6detail15system_categoryD2Ev, .-_ZN4asio6detail15system_categoryD2Ev
	.weak	_ZN4asio6detail15system_categoryD1Ev
	.set	_ZN4asio6detail15system_categoryD1Ev,_ZN4asio6detail15system_categoryD2Ev
	.section	.text._ZN4asio5error6detail14netdb_categoryD2Ev,"axG",@progbits,_ZN4asio5error6detail14netdb_categoryD5Ev,comdat
	.align 2
	.p2align 4
	.weak	_ZN4asio5error6detail14netdb_categoryD2Ev
	.type	_ZN4asio5error6detail14netdb_categoryD2Ev, @function
_ZN4asio5error6detail14netdb_categoryD2Ev:
.LFB11184:
	.cfi_startproc
	endbr64
	movq	_ZTVN4asio5error6detail14netdb_categoryE@GOTPCREL(%rip), %rax
	addq	$16, %rax
	movq	%rax, (%rdi)
	jmp	_ZNSt3_V214error_categoryD2Ev@PLT
	.cfi_endproc
.LFE11184:
	.size	_ZN4asio5error6detail14netdb_categoryD2Ev, .-_ZN4asio5error6detail14netdb_categoryD2Ev
	.weak	_ZN4asio5error6detail14netdb_categoryD1Ev
	.set	_ZN4asio5error6detail14netdb_categoryD1Ev,_ZN4asio5error6detail14netdb_categoryD2Ev
	.section	.text._ZN4asio5error6detail17addrinfo_categoryD2Ev,"axG",@progbits,_ZN4asio5error6detail17addrinfo_categoryD5Ev,comdat
	.align 2
	.p2align 4
	.weak	_ZN4asio5error6detail17addrinfo_categoryD2Ev
	.type	_ZN4asio5error6detail17addrinfo_categoryD2Ev, @function
_ZN4asio5error6detail17addrinfo_categoryD2Ev:
.LFB11180:
	.cfi_startproc
	endbr64
	movq	_ZTVN4asio5error6detail17addrinfo_categoryE@GOTPCREL(%rip), %rax
	addq	$16, %rax
	movq	%rax, (%rdi)
	jmp	_ZNSt3_V214error_categoryD2Ev@PLT
	.cfi_endproc
.LFE11180:
	.size	_ZN4asio5error6detail17addrinfo_categoryD2Ev, .-_ZN4asio5error6detail17addrinfo_categoryD2Ev
	.weak	_ZN4asio5error6detail17addrinfo_categoryD1Ev
	.set	_ZN4asio5error6detail17addrinfo_categoryD1Ev,_ZN4asio5error6detail17addrinfo_categoryD2Ev
	.section	.text._ZN4asio5error6detail13misc_categoryD2Ev,"axG",@progbits,_ZN4asio5error6detail13misc_categoryD5Ev,comdat
	.align 2
	.p2align 4
	.weak	_ZN4asio5error6detail13misc_categoryD2Ev
	.type	_ZN4asio5error6detail13misc_categoryD2Ev, @function
_ZN4asio5error6detail13misc_categoryD2Ev:
.LFB11176:
	.cfi_startproc
	endbr64
	movq	_ZTVN4asio5error6detail13misc_categoryE@GOTPCREL(%rip), %rax
	addq	$16, %rax
	movq	%rax, (%rdi)
	jmp	_ZNSt3_V214error_categoryD2Ev@PLT
	.cfi_endproc
.LFE11176:
	.size	_ZN4asio5error6detail13misc_categoryD2Ev, .-_ZN4asio5error6detail13misc_categoryD2Ev
	.weak	_ZN4asio5error6detail13misc_categoryD1Ev
	.set	_ZN4asio5error6detail13misc_categoryD1Ev,_ZN4asio5error6detail13misc_categoryD2Ev
	.section	.text._ZN4asio6detail15system_categoryD0Ev,"axG",@progbits,_ZN4asio6detail15system_categoryD5Ev,comdat
	.align 2
	.p2align 4
	.weak	_ZN4asio6detail15system_categoryD0Ev
	.type	_ZN4asio6detail15system_categoryD0Ev, @function
_ZN4asio6detail15system_categoryD0Ev:
.LFB11198:
	.cfi_startproc
	endbr64
	movq	_ZTVN4asio6detail15system_categoryE@GOTPCREL(%rip), %rax
	pushq	%rbp
	.cfi_def_cfa_offset 16
	.cfi_offset 6, -16
	movq	%rdi, %rbp
	addq	$16, %rax
	movq	%rax, (%rdi)
	call	_ZNSt3_V214error_categoryD2Ev@PLT
	movq	%rbp, %rdi
	movl	$8, %esi
	popq	%rbp
	.cfi_def_cfa_offset 8
	jmp	_ZdlPvm@PLT
	.cfi_endproc
.LFE11198:
	.size	_ZN4asio6detail15system_categoryD0Ev, .-_ZN4asio6detail15system_categoryD0Ev
	.section	.text._ZN4asio5error6detail14netdb_categoryD0Ev,"axG",@progbits,_ZN4asio5error6detail14netdb_categoryD5Ev,comdat
	.align 2
	.p2align 4
	.weak	_ZN4asio5error6detail14netdb_categoryD0Ev
	.type	_ZN4asio5error6detail14netdb_categoryD0Ev, @function
_ZN4asio5error6detail14netdb_categoryD0Ev:
.LFB11186:
	.cfi_startproc
	endbr64
	movq	_ZTVN4asio5error6detail14netdb_categoryE@GOTPCREL(%rip), %rax
	pushq	%rbp
	.cfi_def_cfa_offset 16
	.cfi_offset 6, -16
	movq	%rdi, %rbp
	addq	$16, %rax
	movq	%rax, (%rdi)
	call	_ZNSt3_V214error_categoryD2Ev@PLT
	movq	%rbp, %rdi
	movl	$8, %esi
	popq	%rbp
	.cfi_def_cfa_offset 8
	jmp	_ZdlPvm@PLT
	.cfi_endproc
.LFE11186:
	.size	_ZN4asio5error6detail14netdb_categoryD0Ev, .-_ZN4asio5error6detail14netdb_categoryD0Ev
	.section	.text._ZN4asio5error6detail17addrinfo_categoryD0Ev,"axG",@progbits,_ZN4asio5error6detail17addrinfo_categoryD5Ev,comdat
	.align 2
	.p2align 4
	.weak	_ZN4asio5error6detail17addrinfo_categoryD0Ev
	.type	_ZN4asio5error6detail17addrinfo_categoryD0Ev, @function
_ZN4asio5error6detail17addrinfo_categoryD0Ev:
.LFB11182:
	.cfi_startproc
	endbr64
	movq	_ZTVN4asio5error6detail17addrinfo_categoryE@GOTPCREL(%rip), %rax
	pushq	%rbp
	.cfi_def_cfa_offset 16
	.cfi_offset 6, -16
	movq	%rdi, %rbp
	addq	$16, %rax
	movq	%rax, (%rdi)
	call	_ZNSt3_V214error_categoryD2Ev@PLT
	movq	%rbp, %rdi
	movl	$8, %esi
	popq	%rbp
	.cfi_def_cfa_offset 8
	jmp	_ZdlPvm@PLT
	.cfi_endproc
.LFE11182:
	.size	_ZN4asio5error6detail17addrinfo_categoryD0Ev, .-_ZN4asio5error6detail17addrinfo_categoryD0Ev
	.section	.text._ZN4asio5error6detail13misc_categoryD0Ev,"axG",@progbits,_ZN4asio5error6detail13misc_categoryD5Ev,comdat
	.align 2
	.p2align 4
	.weak	_ZN4asio5error6detail13misc_categoryD0Ev
	.type	_ZN4asio5error6detail13misc_categoryD0Ev, @function
_ZN4asio5error6detail13misc_categoryD0Ev:
.LFB11178:
	.cfi_startproc
	endbr64
	movq	_ZTVN4asio5error6detail13misc_categoryE@GOTPCREL(%rip), %rax
	pushq	%rbp
	.cfi_def_cfa_offset 16
	.cfi_offset 6, -16
	movq	%rdi, %rbp
	addq	$16, %rax
	movq	%rax, (%rdi)
	call	_ZNSt3_V214error_categoryD2Ev@PLT
	movq	%rbp, %rdi
	movl	$8, %esi
	popq	%rbp
	.cfi_def_cfa_offset 8
	jmp	_ZdlPvm@PLT
	.cfi_endproc
.LFE11178:
	.size	_ZN4asio5error6detail13misc_categoryD0Ev, .-_ZN4asio5error6detail13misc_categoryD0Ev
	.section	.text._ZNSt23_Sp_counted_ptr_inplaceIN7openpal6Logger8SettingsESaIS2_ELN9__gnu_cxx12_Lock_policyE2EED0Ev,"axG",@progbits,_ZNSt23_Sp_counted_ptr_inplaceIN7openpal6Logger8SettingsESaIS2_ELN9__gnu_cxx12_Lock_policyE2EED5Ev,comdat
	.align 2
	.p2align 4
	.weak	_ZNSt23_Sp_counted_ptr_inplaceIN7openpal6Logger8SettingsESaIS2_ELN9__gnu_cxx12_Lock_policyE2EED0Ev
	.type	_ZNSt23_Sp_counted_ptr_inplaceIN7openpal6Logger8SettingsESaIS2_ELN9__gnu_cxx12_Lock_policyE2EED0Ev, @function
_ZNSt23_Sp_counted_ptr_inplaceIN7openpal6Logger8SettingsESaIS2_ELN9__gnu_cxx12_Lock_policyE2EED0Ev:
.LFB11290:
	.cfi_startproc
	endbr64
	movl	$56, %esi
	jmp	_ZdlPvm@PLT
	.cfi_endproc
.LFE11290:
	.size	_ZNSt23_Sp_counted_ptr_inplaceIN7openpal6Logger8SettingsESaIS2_ELN9__gnu_cxx12_Lock_policyE2EED0Ev, .-_ZNSt23_Sp_counted_ptr_inplaceIN7openpal6Logger8SettingsESaIS2_ELN9__gnu_cxx12_Lock_policyE2EED0Ev
	.section	.text._ZNSt23_Sp_counted_ptr_inplaceIN7asiopal8ExecutorESaIS1_ELN9__gnu_cxx12_Lock_policyE2EED0Ev,"axG",@progbits,_ZNSt23_Sp_counted_ptr_inplaceIN7asiopal8ExecutorESaIS1_ELN9__gnu_cxx12_Lock_policyE2EED5Ev,comdat
	.align 2
	.p2align 4
	.weak	_ZNSt23_Sp_counted_ptr_inplaceIN7asiopal8ExecutorESaIS1_ELN9__gnu_cxx12_Lock_policyE2EED0Ev
	.type	_ZNSt23_Sp_counted_ptr_inplaceIN7asiopal8ExecutorESaIS1_ELN9__gnu_cxx12_Lock_policyE2EED0Ev, @function
_ZNSt23_Sp_counted_ptr_inplaceIN7asiopal8ExecutorESaIS1_ELN9__gnu_cxx12_Lock_policyE2EED0Ev:
.LFB11269:
	.cfi_startproc
	endbr64
	movl	$72, %esi
	jmp	_ZdlPvm@PLT
	.cfi_endproc
.LFE11269:
	.size	_ZNSt23_Sp_counted_ptr_inplaceIN7asiopal8ExecutorESaIS1_ELN9__gnu_cxx12_Lock_policyE2EED0Ev, .-_ZNSt23_Sp_counted_ptr_inplaceIN7asiopal8ExecutorESaIS1_ELN9__gnu_cxx12_Lock_policyE2EED0Ev
	.section	.text._ZNSt23_Sp_counted_ptr_inplaceIN8asiodnp311LinkSessionESaIS1_ELN9__gnu_cxx12_Lock_policyE2EED0Ev,"axG",@progbits,_ZNSt23_Sp_counted_ptr_inplaceIN8asiodnp311LinkSessionESaIS1_ELN9__gnu_cxx12_Lock_policyE2EED5Ev,comdat
	.align 2
	.p2align 4
	.weak	_ZNSt23_Sp_counted_ptr_inplaceIN8asiodnp311LinkSessionESaIS1_ELN9__gnu_cxx12_Lock_policyE2EED0Ev
	.type	_ZNSt23_Sp_counted_ptr_inplaceIN8asiodnp311LinkSessionESaIS1_ELN9__gnu_cxx12_Lock_policyE2EED0Ev, @function
_ZNSt23_Sp_counted_ptr_inplaceIN8asiodnp311LinkSessionESaIS1_ELN9__gnu_cxx12_Lock_policyE2EED0Ev:
.LFB11241:
	.cfi_startproc
	endbr64
	movl	$624, %esi
	jmp	_ZdlPvm@PLT
	.cfi_endproc
.LFE11241:
	.size	_ZNSt23_Sp_counted_ptr_inplaceIN8asiodnp311LinkSessionESaIS1_ELN9__gnu_cxx12_Lock_policyE2EED0Ev, .-_ZNSt23_Sp_counted_ptr_inplaceIN8asiodnp311LinkSessionESaIS1_ELN9__gnu_cxx12_Lock_policyE2EED0Ev
	.section	.text._ZNSt23_Sp_counted_ptr_inplaceIN7asiopal13SocketChannelESaIS1_ELN9__gnu_cxx12_Lock_policyE2EED0Ev,"axG",@progbits,_ZNSt23_Sp_counted_ptr_inplaceIN7asiopal13SocketChannelESaIS1_ELN9__gnu_cxx12_Lock_policyE2EED5Ev,comdat
	.align 2
	.p2align 4
	.weak	_ZNSt23_Sp_counted_ptr_inplaceIN7asiopal13SocketChannelESaIS1_ELN9__gnu_cxx12_Lock_policyE2EED0Ev
	.type	_ZNSt23_Sp_counted_ptr_inplaceIN7asiopal13SocketChannelESaIS1_ELN9__gnu_cxx12_Lock_policyE2EED0Ev, @function
_ZNSt23_Sp_counted_ptr_inplaceIN7asiopal13SocketChannelESaIS1_ELN9__gnu_cxx12_Lock_policyE2EED0Ev:
.LFB11234:
	.cfi_startproc
	endbr64
	movl	$112, %esi
	jmp	_ZdlPvm@PLT
	.cfi_endproc
.LFE11234:
	.size	_ZNSt23_Sp_counted_ptr_inplaceIN7asiopal13SocketChannelESaIS1_ELN9__gnu_cxx12_Lock_policyE2EED0Ev, .-_ZNSt23_Sp_counted_ptr_inplaceIN7asiopal13SocketChannelESaIS1_ELN9__gnu_cxx12_Lock_policyE2EED0Ev
	.section	.text._ZNSt23_Sp_counted_ptr_inplaceIN7asiopal13SocketChannelESaIS1_ELN9__gnu_cxx12_Lock_policyE2EE10_M_destroyEv,"axG",@progbits,_ZNSt23_Sp_counted_ptr_inplaceIN7asiopal13SocketChannelESaIS1_ELN9__gnu_cxx12_Lock_policyE2EE10_M_destroyEv,comdat
	.align 2
	.p2align 4
	.weak	_ZNSt23_Sp_counted_ptr_inplaceIN7asiopal13SocketChannelESaIS1_ELN9__gnu_cxx12_Lock_policyE2EE10_M_destroyEv
	.type	_ZNSt23_Sp_counted_ptr_inplaceIN7asiopal13SocketChannelESaIS1_ELN9__gnu_cxx12_Lock_policyE2EE10_M_destroyEv, @function
_ZNSt23_Sp_counted_ptr_inplaceIN7asiopal13SocketChannelESaIS1_ELN9__gnu_cxx12_Lock_policyE2EE10_M_destroyEv:
.LFB11236:
	.cfi_startproc
	endbr64
	movl	$112, %esi
	jmp	_ZdlPvm@PLT
	.cfi_endproc
.LFE11236:
	.size	_ZNSt23_Sp_counted_ptr_inplaceIN7asiopal13SocketChannelESaIS1_ELN9__gnu_cxx12_Lock_policyE2EE10_M_destroyEv, .-_ZNSt23_Sp_counted_ptr_inplaceIN7asiopal13SocketChannelESaIS1_ELN9__gnu_cxx12_Lock_policyE2EE10_M_destroyEv
	.section	.text._ZNSt23_Sp_counted_ptr_inplaceIN8asiodnp311LinkSessionESaIS1_ELN9__gnu_cxx12_Lock_policyE2EE10_M_destroyEv,"axG",@progbits,_ZNSt23_Sp_counted_ptr_inplaceIN8asiodnp311LinkSessionESaIS1_ELN9__gnu_cxx12_Lock_policyE2EE10_M_destroyEv,comdat
	.align 2
	.p2align 4
	.weak	_ZNSt23_Sp_counted_ptr_inplaceIN8asiodnp311LinkSessionESaIS1_ELN9__gnu_cxx12_Lock_policyE2EE10_M_destroyEv
	.type	_ZNSt23_Sp_counted_ptr_inplaceIN8asiodnp311LinkSessionESaIS1_ELN9__gnu_cxx12_Lock_policyE2EE10_M_destroyEv, @function
_ZNSt23_Sp_counted_ptr_inplaceIN8asiodnp311LinkSessionESaIS1_ELN9__gnu_cxx12_Lock_policyE2EE10_M_destroyEv:
.LFB11243:
	.cfi_startproc
	endbr64
	movl	$624, %esi
	jmp	_ZdlPvm@PLT
	.cfi_endproc
.LFE11243:
	.size	_ZNSt23_Sp_counted_ptr_inplaceIN8asiodnp311LinkSessionESaIS1_ELN9__gnu_cxx12_Lock_policyE2EE10_M_destroyEv, .-_ZNSt23_Sp_counted_ptr_inplaceIN8asiodnp311LinkSessionESaIS1_ELN9__gnu_cxx12_Lock_policyE2EE10_M_destroyEv
	.section	.text._ZNSt23_Sp_counted_ptr_inplaceIN7asiopal8ExecutorESaIS1_ELN9__gnu_cxx12_Lock_policyE2EE10_M_destroyEv,"axG",@progbits,_ZNSt23_Sp_counted_ptr_inplaceIN7asiopal8ExecutorESaIS1_ELN9__gnu_cxx12_Lock_policyE2EE10_M_destroyEv,comdat
	.align 2
	.p2align 4
	.weak	_ZNSt23_Sp_counted_ptr_inplaceIN7asiopal8ExecutorESaIS1_ELN9__gnu_cxx12_Lock_policyE2EE10_M_destroyEv
	.type	_ZNSt23_Sp_counted_ptr_inplaceIN7asiopal8ExecutorESaIS1_ELN9__gnu_cxx12_Lock_policyE2EE10_M_destroyEv, @function
_ZNSt23_Sp_counted_ptr_inplaceIN7asiopal8ExecutorESaIS1_ELN9__gnu_cxx12_Lock_policyE2EE10_M_destroyEv:
.LFB11271:
	.cfi_startproc
	endbr64
	movl	$72, %esi
	jmp	_ZdlPvm@PLT
	.cfi_endproc
.LFE11271:
	.size	_ZNSt23_Sp_counted_ptr_inplaceIN7asiopal8ExecutorESaIS1_ELN9__gnu_cxx12_Lock_policyE2EE10_M_destroyEv, .-_ZNSt23_Sp_counted_ptr_inplaceIN7asiopal8ExecutorESaIS1_ELN9__gnu_cxx12_Lock_policyE2EE10_M_destroyEv
	.section	.text._ZNSt23_Sp_counted_ptr_inplaceIN7openpal6Logger8SettingsESaIS2_ELN9__gnu_cxx12_Lock_policyE2EE10_M_destroyEv,"axG",@progbits,_ZNSt23_Sp_counted_ptr_inplaceIN7openpal6Logger8SettingsESaIS2_ELN9__gnu_cxx12_Lock_policyE2EE10_M_destroyEv,comdat
	.align 2
	.p2align 4
	.weak	_ZNSt23_Sp_counted_ptr_inplaceIN7openpal6Logger8SettingsESaIS2_ELN9__gnu_cxx12_Lock_policyE2EE10_M_destroyEv
	.type	_ZNSt23_Sp_counted_ptr_inplaceIN7openpal6Logger8SettingsESaIS2_ELN9__gnu_cxx12_Lock_policyE2EE10_M_destroyEv, @function
_ZNSt23_Sp_counted_ptr_inplaceIN7openpal6Logger8SettingsESaIS2_ELN9__gnu_cxx12_Lock_policyE2EE10_M_destroyEv:
.LFB11292:
	.cfi_startproc
	endbr64
	movl	$56, %esi
	jmp	_ZdlPvm@PLT
	.cfi_endproc
.LFE11292:
	.size	_ZNSt23_Sp_counted_ptr_inplaceIN7openpal6Logger8SettingsESaIS2_ELN9__gnu_cxx12_Lock_policyE2EE10_M_destroyEv, .-_ZNSt23_Sp_counted_ptr_inplaceIN7openpal6Logger8SettingsESaIS2_ELN9__gnu_cxx12_Lock_policyE2EE10_M_destroyEv
	.section	.text._ZNSt23_Sp_counted_ptr_inplaceIN7openpal6Logger8SettingsESaIS2_ELN9__gnu_cxx12_Lock_policyE2EE10_M_disposeEv,"axG",@progbits,_ZNSt23_Sp_counted_ptr_inplaceIN7openpal6Logger8SettingsESaIS2_ELN9__gnu_cxx12_Lock_policyE2EE10_M_disposeEv,comdat
	.align 2
	.p2align 4
	.weak	_ZNSt23_Sp_counted_ptr_inplaceIN7openpal6Logger8SettingsESaIS2_ELN9__gnu_cxx12_Lock_policyE2EE10_M_disposeEv
	.type	_ZNSt23_Sp_counted_ptr_inplaceIN7openpal6Logger8SettingsESaIS2_ELN9__gnu_cxx12_Lock_policyE2EE10_M_disposeEv, @function
_ZNSt23_Sp_counted_ptr_inplaceIN7openpal6Logger8SettingsESaIS2_ELN9__gnu_cxx12_Lock_policyE2EE10_M_disposeEv:
.LFB11291:
	.cfi_startproc
	endbr64
	movq	16(%rdi), %r8
	leaq	32(%rdi), %rax
	cmpq	%rax, %r8
	je	.L36
	movq	32(%rdi), %rsi
	movq	%r8, %rdi
	addq	$1, %rsi
	jmp	_ZdlPvm@PLT
	.p2align 4,,10
	.p2align 3
.L36:
	ret
	.cfi_endproc
.LFE11291:
	.size	_ZNSt23_Sp_counted_ptr_inplaceIN7openpal6Logger8SettingsESaIS2_ELN9__gnu_cxx12_Lock_policyE2EE10_M_disposeEv, .-_ZNSt23_Sp_counted_ptr_inplaceIN7openpal6Logger8SettingsESaIS2_ELN9__gnu_cxx12_Lock_policyE2EE10_M_disposeEv
	.section	.text._ZNSt23_Sp_counted_ptr_inplaceIN7asiopal13SocketChannelESaIS1_ELN9__gnu_cxx12_Lock_policyE2EE14_M_get_deleterERKSt9type_info,"axG",@progbits,_ZNSt23_Sp_counted_ptr_inplaceIN7asiopal13SocketChannelESaIS1_ELN9__gnu_cxx12_Lock_policyE2EE14_M_get_deleterERKSt9type_info,comdat
	.align 2
	.p2align 4
	.weak	_ZNSt23_Sp_counted_ptr_inplaceIN7asiopal13SocketChannelESaIS1_ELN9__gnu_cxx12_Lock_policyE2EE14_M_get_deleterERKSt9type_info
	.type	_ZNSt23_Sp_counted_ptr_inplaceIN7asiopal13SocketChannelESaIS1_ELN9__gnu_cxx12_Lock_policyE2EE14_M_get_deleterERKSt9type_info, @function
_ZNSt23_Sp_counted_ptr_inplaceIN7asiopal13SocketChannelESaIS1_ELN9__gnu_cxx12_Lock_policyE2EE14_M_get_deleterERKSt9type_info:
.LFB11237:
	.cfi_startproc
	endbr64
	cmpq	_ZZNSt19_Sp_make_shared_tag5_S_tiEvE5__tag@GOTPCREL(%rip), %rsi
	pushq	%r12
	.cfi_def_cfa_offset 16
	.cfi_offset 12, -16
	leaq	16(%rdi), %r12
	je	.L38
	movq	8(%rsi), %rdi
	movq	_ZTSSt19_Sp_make_shared_tag@GOTPCREL(%rip), %rsi
	cmpq	%rsi, %rdi
	je	.L38
	cmpb	$42, (%rdi)
	je	.L40
	call	strcmp@PLT
	testl	%eax, %eax
	movl	$0, %eax
	cmovne	%rax, %r12
.L38:
	movq	%r12, %rax
	popq	%r12
	.cfi_remember_state
	.cfi_def_cfa_offset 8
	ret
	.p2align 4,,10
	.p2align 3
.L40:
	.cfi_restore_state
	xorl	%r12d, %r12d
	movq	%r12, %rax
	popq	%r12
	.cfi_def_cfa_offset 8
	ret
	.cfi_endproc
.LFE11237:
	.size	_ZNSt23_Sp_counted_ptr_inplaceIN7asiopal13SocketChannelESaIS1_ELN9__gnu_cxx12_Lock_policyE2EE14_M_get_deleterERKSt9type_info, .-_ZNSt23_Sp_counted_ptr_inplaceIN7asiopal13SocketChannelESaIS1_ELN9__gnu_cxx12_Lock_policyE2EE14_M_get_deleterERKSt9type_info
	.section	.text.unlikely,"ax",@progbits
	.type	_ZN4asio6detail15throw_exceptionISt8bad_castEEvRKT_.isra.0, @function
_ZN4asio6detail15throw_exceptionISt8bad_castEEvRKT_.isra.0:
.LFB11435:
	.cfi_startproc
	pushq	%rax
	.cfi_def_cfa_offset 16
	popq	%rax
	.cfi_def_cfa_offset 8
	movl	$8, %edi
	pushq	%rax
	.cfi_def_cfa_offset 16
	call	__cxa_allocate_exception@PLT
	movq	_ZNSt8bad_castD1Ev@GOTPCREL(%rip), %rdx
	movq	_ZTISt8bad_cast@GOTPCREL(%rip), %rsi
	movq	%rax, %rdi
	movq	_ZTVSt8bad_cast@GOTPCREL(%rip), %rax
	addq	$16, %rax
	movq	%rax, (%rdi)
	call	__cxa_throw@PLT
	.cfi_endproc
.LFE11435:
	.size	_ZN4asio6detail15throw_exceptionISt8bad_castEEvRKT_.isra.0, .-_ZN4asio6detail15throw_exceptionISt8bad_castEEvRKT_.isra.0
	.section	.text._ZNSt23_Sp_counted_ptr_inplaceIN7openpal6Logger8SettingsESaIS2_ELN9__gnu_cxx12_Lock_policyE2EE14_M_get_deleterERKSt9type_info,"axG",@progbits,_ZNSt23_Sp_counted_ptr_inplaceIN7openpal6Logger8SettingsESaIS2_ELN9__gnu_cxx12_Lock_policyE2EE14_M_get_deleterERKSt9type_info,comdat
	.align 2
	.p2align 4
	.weak	_ZNSt23_Sp_counted_ptr_inplaceIN7openpal6Logger8SettingsESaIS2_ELN9__gnu_cxx12_Lock_policyE2EE14_M_get_deleterERKSt9type_info
	.type	_ZNSt23_Sp_counted_ptr_inplaceIN7openpal6Logger8SettingsESaIS2_ELN9__gnu_cxx12_Lock_policyE2EE14_M_get_deleterERKSt9type_info, @function
_ZNSt23_Sp_counted_ptr_inplaceIN7openpal6Logger8SettingsESaIS2_ELN9__gnu_cxx12_Lock_policyE2EE14_M_get_deleterERKSt9type_info:
.LFB11293:
	.cfi_startproc
	endbr64
	cmpq	_ZZNSt19_Sp_make_shared_tag5_S_tiEvE5__tag@GOTPCREL(%rip), %rsi
	pushq	%r12
	.cfi_def_cfa_offset 16
	.cfi_offset 12, -16
	leaq	16(%rdi), %r12
	je	.L45
	movq	8(%rsi), %rdi
	movq	_ZTSSt19_Sp_make_shared_tag@GOTPCREL(%rip), %rsi
	cmpq	%rsi, %rdi
	je	.L45
	cmpb	$42, (%rdi)
	je	.L47
	call	strcmp@PLT
	testl	%eax, %eax
	movl	$0, %eax
	cmovne	%rax, %r12
.L45:
	movq	%r12, %rax
	popq	%r12
	.cfi_remember_state
	.cfi_def_cfa_offset 8
	ret
	.p2align 4,,10
	.p2align 3
.L47:
	.cfi_restore_state
	xorl	%r12d, %r12d
	movq	%r12, %rax
	popq	%r12
	.cfi_def_cfa_offset 8
	ret
	.cfi_endproc
.LFE11293:
	.size	_ZNSt23_Sp_counted_ptr_inplaceIN7openpal6Logger8SettingsESaIS2_ELN9__gnu_cxx12_Lock_policyE2EE14_M_get_deleterERKSt9type_info, .-_ZNSt23_Sp_counted_ptr_inplaceIN7openpal6Logger8SettingsESaIS2_ELN9__gnu_cxx12_Lock_policyE2EE14_M_get_deleterERKSt9type_info
	.section	.text._ZNSt23_Sp_counted_ptr_inplaceIN8asiodnp311LinkSessionESaIS1_ELN9__gnu_cxx12_Lock_policyE2EE14_M_get_deleterERKSt9type_info,"axG",@progbits,_ZNSt23_Sp_counted_ptr_inplaceIN8asiodnp311LinkSessionESaIS1_ELN9__gnu_cxx12_Lock_policyE2EE14_M_get_deleterERKSt9type_info,comdat
	.align 2
	.p2align 4
	.weak	_ZNSt23_Sp_counted_ptr_inplaceIN8asiodnp311LinkSessionESaIS1_ELN9__gnu_cxx12_Lock_policyE2EE14_M_get_deleterERKSt9type_info
	.type	_ZNSt23_Sp_counted_ptr_inplaceIN8asiodnp311LinkSessionESaIS1_ELN9__gnu_cxx12_Lock_policyE2EE14_M_get_deleterERKSt9type_info, @function
_ZNSt23_Sp_counted_ptr_inplaceIN8asiodnp311LinkSessionESaIS1_ELN9__gnu_cxx12_Lock_policyE2EE14_M_get_deleterERKSt9type_info:
.LFB11244:
	.cfi_startproc
	endbr64
	cmpq	_ZZNSt19_Sp_make_shared_tag5_S_tiEvE5__tag@GOTPCREL(%rip), %rsi
	pushq	%r12
	.cfi_def_cfa_offset 16
	.cfi_offset 12, -16
	leaq	16(%rdi), %r12
	je	.L50
	movq	8(%rsi), %rdi
	movq	_ZTSSt19_Sp_make_shared_tag@GOTPCREL(%rip), %rsi
	cmpq	%rsi, %rdi
	je	.L50
	cmpb	$42, (%rdi)
	je	.L52
	call	strcmp@PLT
	testl	%eax, %eax
	movl	$0, %eax
	cmovne	%rax, %r12
.L50:
	movq	%r12, %rax
	popq	%r12
	.cfi_remember_state
	.cfi_def_cfa_offset 8
	ret
	.p2align 4,,10
	.p2align 3
.L52:
	.cfi_restore_state
	xorl	%r12d, %r12d
	movq	%r12, %rax
	popq	%r12
	.cfi_def_cfa_offset 8
	ret
	.cfi_endproc
.LFE11244:
	.size	_ZNSt23_Sp_counted_ptr_inplaceIN8asiodnp311LinkSessionESaIS1_ELN9__gnu_cxx12_Lock_policyE2EE14_M_get_deleterERKSt9type_info, .-_ZNSt23_Sp_counted_ptr_inplaceIN8asiodnp311LinkSessionESaIS1_ELN9__gnu_cxx12_Lock_policyE2EE14_M_get_deleterERKSt9type_info
	.section	.text._ZNSt23_Sp_counted_ptr_inplaceIN7asiopal8ExecutorESaIS1_ELN9__gnu_cxx12_Lock_policyE2EE14_M_get_deleterERKSt9type_info,"axG",@progbits,_ZNSt23_Sp_counted_ptr_inplaceIN7asiopal8ExecutorESaIS1_ELN9__gnu_cxx12_Lock_policyE2EE14_M_get_deleterERKSt9type_info,comdat
	.align 2
	.p2align 4
	.weak	_ZNSt23_Sp_counted_ptr_inplaceIN7asiopal8ExecutorESaIS1_ELN9__gnu_cxx12_Lock_policyE2EE14_M_get_deleterERKSt9type_info
	.type	_ZNSt23_Sp_counted_ptr_inplaceIN7asiopal8ExecutorESaIS1_ELN9__gnu_cxx12_Lock_policyE2EE14_M_get_deleterERKSt9type_info, @function
_ZNSt23_Sp_counted_ptr_inplaceIN7asiopal8ExecutorESaIS1_ELN9__gnu_cxx12_Lock_policyE2EE14_M_get_deleterERKSt9type_info:
.LFB11272:
	.cfi_startproc
	endbr64
	cmpq	_ZZNSt19_Sp_make_shared_tag5_S_tiEvE5__tag@GOTPCREL(%rip), %rsi
	pushq	%r12
	.cfi_def_cfa_offset 16
	.cfi_offset 12, -16
	leaq	16(%rdi), %r12
	je	.L55
	movq	8(%rsi), %rdi
	movq	_ZTSSt19_Sp_make_shared_tag@GOTPCREL(%rip), %rsi
	cmpq	%rsi, %rdi
	je	.L55
	cmpb	$42, (%rdi)
	je	.L57
	call	strcmp@PLT
	testl	%eax, %eax
	movl	$0, %eax
	cmovne	%rax, %r12
.L55:
	movq	%r12, %rax
	popq	%r12
	.cfi_remember_state
	.cfi_def_cfa_offset 8
	ret
	.p2align 4,,10
	.p2align 3
.L57:
	.cfi_restore_state
	xorl	%r12d, %r12d
	movq	%r12, %rax
	popq	%r12
	.cfi_def_cfa_offset 8
	ret
	.cfi_endproc
.LFE11272:
	.size	_ZNSt23_Sp_counted_ptr_inplaceIN7asiopal8ExecutorESaIS1_ELN9__gnu_cxx12_Lock_policyE2EE14_M_get_deleterERKSt9type_info, .-_ZNSt23_Sp_counted_ptr_inplaceIN7asiopal8ExecutorESaIS1_ELN9__gnu_cxx12_Lock_policyE2EE14_M_get_deleterERKSt9type_info
	.section	.rodata._ZNK4asio6detail15system_category7messageB5cxx11Ei.str1.8,"aMS",@progbits,1
	.align 8
.LC4:
	.string	"basic_string::_M_construct null not valid"
	.section	.text._ZNK4asio6detail15system_category7messageB5cxx11Ei,"axG",@progbits,_ZNK4asio6detail15system_category7messageB5cxx11Ei,comdat
	.align 2
	.p2align 4
	.weak	_ZNK4asio6detail15system_category7messageB5cxx11Ei
	.type	_ZNK4asio6detail15system_category7messageB5cxx11Ei, @function
_ZNK4asio6detail15system_category7messageB5cxx11Ei:
.LFB2459:
	.cfi_startproc
	endbr64
	pushq	%r14
	.cfi_def_cfa_offset 16
	.cfi_offset 14, -16
	pushq	%r13
	.cfi_def_cfa_offset 24
	.cfi_offset 13, -24
	pushq	%r12
	.cfi_def_cfa_offset 32
	.cfi_offset 12, -32
	movq	%rdi, %r12
	pushq	%rbp
	.cfi_def_cfa_offset 40
	.cfi_offset 6, -40
	leaq	16(%rdi), %rbp
	subq	$296, %rsp
	.cfi_def_cfa_offset 336
	movq	%fs:40, %rax
	movq	%rax, 280(%rsp)
	xorl	%eax, %eax
	cmpl	$125, %edx
	je	.L75
	pxor	%xmm0, %xmm0
	movl	%edx, %edi
	leaq	16(%rsp), %rsi
	movl	$256, %edx
	movaps	%xmm0, 16(%rsp)
	movaps	%xmm0, 32(%rsp)
	movaps	%xmm0, 48(%rsp)
	movaps	%xmm0, 64(%rsp)
	movaps	%xmm0, 80(%rsp)
	movaps	%xmm0, 96(%rsp)
	movaps	%xmm0, 112(%rsp)
	movaps	%xmm0, 128(%rsp)
	movaps	%xmm0, 144(%rsp)
	movaps	%xmm0, 160(%rsp)
	movaps	%xmm0, 176(%rsp)
	movaps	%xmm0, 192(%rsp)
	movaps	%xmm0, 208(%rsp)
	movaps	%xmm0, 224(%rsp)
	movaps	%xmm0, 240(%rsp)
	movaps	%xmm0, 256(%rsp)
	call	strerror_r@PLT
	movq	%rbp, (%r12)
	movq	%rax, %r13
	testq	%rax, %rax
	je	.L63
	movq	%rax, %rdi
	call	strlen@PLT
	movq	%rax, 8(%rsp)
	movq	%rax, %r14
	cmpq	$15, %rax
	ja	.L76
	cmpq	$1, %rax
	jne	.L67
	movzbl	0(%r13), %edx
	movb	%dl, 16(%r12)
.L68:
	movq	%rax, 8(%r12)
	movb	$0, 0(%rbp,%rax)
.L60:
	movq	280(%rsp), %rax
	subq	%fs:40, %rax
	jne	.L77
	addq	$296, %rsp
	.cfi_remember_state
	.cfi_def_cfa_offset 40
	movq	%r12, %rax
	popq	%rbp
	.cfi_def_cfa_offset 32
	popq	%r12
	.cfi_def_cfa_offset 24
	popq	%r13
	.cfi_def_cfa_offset 16
	popq	%r14
	.cfi_def_cfa_offset 8
	ret
	.p2align 4,,10
	.p2align 3
.L76:
	.cfi_restore_state
	leaq	8(%rsp), %rsi
	xorl	%edx, %edx
	movq	%r12, %rdi
	call	_ZNSt7__cxx1112basic_stringIcSt11char_traitsIcESaIcEE9_M_createERmm@PLT
	movq	%rax, (%r12)
	movq	%rax, %rbp
	movq	8(%rsp), %rax
	movq	%rax, 16(%r12)
.L66:
	movq	%rbp, %rdi
	movq	%r14, %rdx
	movq	%r13, %rsi
	call	memcpy@PLT
	movq	8(%rsp), %rax
	movq	(%r12), %rbp
	jmp	.L68
	.p2align 4,,10
	.p2align 3
.L75:
	movq	%rbp, (%rdi)
	xorl	%edx, %edx
	leaq	8(%rsp), %rsi
	movq	$18, 8(%rsp)
	call	_ZNSt7__cxx1112basic_stringIcSt11char_traitsIcESaIcEE9_M_createERmm@PLT
	movq	8(%rsp), %rdx
	movdqa	.LC5(%rip), %xmm0
	movq	%rax, (%r12)
	movq	%rdx, 16(%r12)
	movl	$11876, %edx
	movw	%dx, 16(%rax)
	movups	%xmm0, (%rax)
	movq	8(%rsp), %rax
	movq	(%r12), %rdx
	movq	%rax, 8(%r12)
	movb	$0, (%rdx,%rax)
	jmp	.L60
	.p2align 4,,10
	.p2align 3
.L67:
	testq	%rax, %rax
	je	.L68
	jmp	.L66
.L63:
	leaq	.LC4(%rip), %rdi
	call	_ZSt19__throw_logic_errorPKc@PLT
.L77:
	call	__stack_chk_fail@PLT
	.cfi_endproc
.LFE2459:
	.size	_ZNK4asio6detail15system_category7messageB5cxx11Ei, .-_ZNK4asio6detail15system_category7messageB5cxx11Ei
	.section	.text._ZNK4asio5error6detail17addrinfo_category7messageB5cxx11Ei,"axG",@progbits,_ZNK4asio5error6detail17addrinfo_category7messageB5cxx11Ei,comdat
	.align 2
	.p2align 4
	.weak	_ZNK4asio5error6detail17addrinfo_category7messageB5cxx11Ei
	.type	_ZNK4asio5error6detail17addrinfo_category7messageB5cxx11Ei, @function
_ZNK4asio5error6detail17addrinfo_category7messageB5cxx11Ei:
.LFB2505:
	.cfi_startproc
	endbr64
	pushq	%r12
	.cfi_def_cfa_offset 16
	.cfi_offset 12, -16
	movq	%rdi, %r12
	subq	$16, %rsp
	.cfi_def_cfa_offset 32
	movq	%fs:40, %rax
	movq	%rax, 8(%rsp)
	xorl	%eax, %eax
	leaq	16(%rdi), %rax
	movq	%rax, (%rdi)
	cmpl	$-8, %edx
	je	.L84
	cmpl	$-7, %edx
	je	.L85
	xorl	%edx, %edx
	movq	%rsp, %rsi
	movq	$19, (%rsp)
	call	_ZNSt7__cxx1112basic_stringIcSt11char_traitsIcESaIcEE9_M_createERmm@PLT
	movq	(%rsp), %rdx
	movdqa	.LC8(%rip), %xmm0
	movq	%rax, (%r12)
	movq	%rdx, 16(%r12)
	movl	$28530, %edx
	movw	%dx, 16(%rax)
	movb	$114, 18(%rax)
	movups	%xmm0, (%rax)
	movq	(%rsp), %rax
	movq	(%r12), %rdx
	movq	%rax, 8(%r12)
	movb	$0, (%rdx,%rax)
.L78:
	movq	8(%rsp), %rax
	subq	%fs:40, %rax
	jne	.L86
	addq	$16, %rsp
	.cfi_remember_state
	.cfi_def_cfa_offset 16
	movq	%r12, %rax
	popq	%r12
	.cfi_def_cfa_offset 8
	ret
	.p2align 4,,10
	.p2align 3
.L85:
	.cfi_restore_state
	xorl	%edx, %edx
	movq	%rsp, %rsi
	movq	$25, (%rsp)
	call	_ZNSt7__cxx1112basic_stringIcSt11char_traitsIcESaIcEE9_M_createERmm@PLT
	movq	(%rsp), %rdx
	movdqa	.LC7(%rip), %xmm0
	movabsq	$7310593918082512243, %rcx
	movq	%rax, (%r12)
	movq	%rdx, 16(%r12)
	movq	%rcx, 16(%rax)
	movb	$100, 24(%rax)
	movups	%xmm0, (%rax)
	movq	(%rsp), %rax
	movq	(%r12), %rdx
	movq	%rax, 8(%r12)
	movb	$0, (%rdx,%rax)
	jmp	.L78
	.p2align 4,,10
	.p2align 3
.L84:
	xorl	%edx, %edx
	movq	%rsp, %rsi
	movq	$17, (%rsp)
	call	_ZNSt7__cxx1112basic_stringIcSt11char_traitsIcESaIcEE9_M_createERmm@PLT
	movq	(%rsp), %rdx
	movdqa	.LC6(%rip), %xmm0
	movq	%rax, (%r12)
	movq	%rdx, 16(%r12)
	movb	$100, 16(%rax)
	movups	%xmm0, (%rax)
	movq	(%rsp), %rax
	movq	(%r12), %rdx
	movq	%rax, 8(%r12)
	movb	$0, (%rdx,%rax)
	jmp	.L78
.L86:
	call	__stack_chk_fail@PLT
	.cfi_endproc
.LFE2505:
	.size	_ZNK4asio5error6detail17addrinfo_category7messageB5cxx11Ei, .-_ZNK4asio5error6detail17addrinfo_category7messageB5cxx11Ei
	.section	.text._ZNK4asio5error6detail14netdb_category7messageB5cxx11Ei,"axG",@progbits,_ZNK4asio5error6detail14netdb_category7messageB5cxx11Ei,comdat
	.align 2
	.p2align 4
	.weak	_ZNK4asio5error6detail14netdb_category7messageB5cxx11Ei
	.type	_ZNK4asio5error6detail14netdb_category7messageB5cxx11Ei, @function
_ZNK4asio5error6detail14netdb_category7messageB5cxx11Ei:
.LFB2499:
	.cfi_startproc
	endbr64
	pushq	%r12
	.cfi_def_cfa_offset 16
	.cfi_offset 12, -16
	movq	%rdi, %r12
	subq	$16, %rsp
	.cfi_def_cfa_offset 32
	movq	%fs:40, %rax
	movq	%rax, 8(%rsp)
	xorl	%eax, %eax
	leaq	16(%rdi), %rax
	movq	%rax, (%rdi)
	cmpl	$1, %edx
	je	.L95
	cmpl	$2, %edx
	je	.L96
	cmpl	$4, %edx
	je	.L97
	cmpl	$3, %edx
	je	.L98
	xorl	%edx, %edx
	movq	%rsp, %rsi
	movq	$16, (%rsp)
	call	_ZNSt7__cxx1112basic_stringIcSt11char_traitsIcESaIcEE9_M_createERmm@PLT
	movq	(%rsp), %rdx
	movdqa	.LC18(%rip), %xmm0
	movq	%rax, (%r12)
	movq	%rdx, 16(%r12)
	movups	%xmm0, (%rax)
	movq	(%rsp), %rax
	movq	(%r12), %rdx
	movq	%rax, 8(%r12)
	movb	$0, (%rdx,%rax)
.L87:
	movq	8(%rsp), %rax
	subq	%fs:40, %rax
	jne	.L99
	addq	$16, %rsp
	.cfi_remember_state
	.cfi_def_cfa_offset 16
	movq	%r12, %rax
	popq	%r12
	.cfi_def_cfa_offset 8
	ret
	.p2align 4,,10
	.p2align 3
.L95:
	.cfi_restore_state
	movq	%rsp, %rsi
	xorl	%edx, %edx
	movq	$30, (%rsp)
	call	_ZNSt7__cxx1112basic_stringIcSt11char_traitsIcESaIcEE9_M_createERmm@PLT
	movq	(%rsp), %rdx
	movl	$10597, %esi
	movdqa	.LC9(%rip), %xmm0
	movabsq	$8388361603773658465, %rcx
	movq	%rax, (%r12)
	movq	%rdx, 16(%r12)
	movq	%rcx, 16(%rax)
	movl	$1986622561, 24(%rax)
	movw	%si, 28(%rax)
	movups	%xmm0, (%rax)
	movq	(%rsp), %rax
	movq	(%r12), %rdx
	movq	%rax, 8(%r12)
	movb	$0, (%rdx,%rax)
	jmp	.L87
	.p2align 4,,10
	.p2align 3
.L98:
	xorl	%edx, %edx
	movq	%rsp, %rsi
	movq	$55, (%rsp)
	call	_ZNSt7__cxx1112basic_stringIcSt11char_traitsIcESaIcEE9_M_createERmm@PLT
	movq	(%rsp), %rdx
	movdqa	.LC15(%rip), %xmm0
	movq	%rax, (%r12)
	movq	%rdx, 16(%r12)
	movl	$30059, %edx
	movups	%xmm0, (%rax)
	movdqa	.LC16(%rip), %xmm0
	movl	$1869573152, 48(%rax)
	movups	%xmm0, 16(%rax)
	movdqa	.LC17(%rip), %xmm0
	movw	%dx, 52(%rax)
	movb	$112, 54(%rax)
	movups	%xmm0, 32(%rax)
	movq	(%rsp), %rax
	movq	(%r12), %rdx
	movq	%rax, 8(%r12)
	movb	$0, (%rdx,%rax)
	jmp	.L87
	.p2align 4,,10
	.p2align 3
.L96:
	xorl	%edx, %edx
	movq	%rsp, %rsi
	movq	$51, (%rsp)
	call	_ZNSt7__cxx1112basic_stringIcSt11char_traitsIcESaIcEE9_M_createERmm@PLT
	movq	(%rsp), %rdx
	movl	$25972, %ecx
	movdqa	.LC9(%rip), %xmm0
	movq	%rax, (%r12)
	movq	%rdx, 16(%r12)
	movups	%xmm0, (%rax)
	movdqa	.LC10(%rip), %xmm0
	movw	%cx, 48(%rax)
	movups	%xmm0, 16(%rax)
	movdqa	.LC11(%rip), %xmm0
	movb	$114, 50(%rax)
	movups	%xmm0, 32(%rax)
	movq	(%rsp), %rax
	movq	(%r12), %rdx
	movq	%rax, 8(%r12)
	movb	$0, (%rdx,%rax)
	jmp	.L87
	.p2align 4,,10
	.p2align 3
.L97:
	xorl	%edx, %edx
	movq	%rsp, %rsi
	movq	$56, (%rsp)
	call	_ZNSt7__cxx1112basic_stringIcSt11char_traitsIcESaIcEE9_M_createERmm@PLT
	movq	(%rsp), %rdx
	movdqa	.LC12(%rip), %xmm0
	movabsq	$7022344801645520244, %rcx
	movq	%rax, (%r12)
	movq	%rdx, 16(%r12)
	movups	%xmm0, (%rax)
	movdqa	.LC13(%rip), %xmm0
	movq	%rcx, 48(%rax)
	movups	%xmm0, 16(%rax)
	movdqa	.LC14(%rip), %xmm0
	movups	%xmm0, 32(%rax)
	movq	(%rsp), %rax
	movq	(%r12), %rdx
	movq	%rax, 8(%r12)
	movb	$0, (%rdx,%rax)
	jmp	.L87
.L99:
	call	__stack_chk_fail@PLT
	.cfi_endproc
.LFE2499:
	.size	_ZNK4asio5error6detail14netdb_category7messageB5cxx11Ei, .-_ZNK4asio5error6detail14netdb_category7messageB5cxx11Ei
	.section	.text._ZNK4asio5error6detail13misc_category7messageB5cxx11Ei,"axG",@progbits,_ZNK4asio5error6detail13misc_category7messageB5cxx11Ei,comdat
	.align 2
	.p2align 4
	.weak	_ZNK4asio5error6detail13misc_category7messageB5cxx11Ei
	.type	_ZNK4asio5error6detail13misc_category7messageB5cxx11Ei, @function
_ZNK4asio5error6detail13misc_category7messageB5cxx11Ei:
.LFB2511:
	.cfi_startproc
	endbr64
	pushq	%r12
	.cfi_def_cfa_offset 16
	.cfi_offset 12, -16
	movq	%rdi, %r12
	subq	$16, %rsp
	.cfi_def_cfa_offset 32
	movq	%fs:40, %rax
	movq	%rax, 8(%rsp)
	xorl	%eax, %eax
	leaq	16(%rdi), %rax
	movq	%rax, (%rdi)
	cmpl	$1, %edx
	je	.L108
	cmpl	$2, %edx
	je	.L109
	cmpl	$3, %edx
	je	.L110
	cmpl	$4, %edx
	je	.L111
	movabsq	$8316298233121436513, %rcx
	movl	$28530, %edx
	movq	%rcx, 16(%rdi)
	movl	$1919230051, 8(%rax)
	movw	%dx, 12(%rax)
	movb	$114, 14(%rax)
	movq	$15, 8(%rdi)
	movb	$0, 31(%rdi)
.L100:
	movq	8(%rsp), %rax
	subq	%fs:40, %rax
	jne	.L112
	addq	$16, %rsp
	.cfi_remember_state
	.cfi_def_cfa_offset 16
	movq	%r12, %rax
	popq	%r12
	.cfi_def_cfa_offset 8
	ret
	.p2align 4,,10
	.p2align 3
.L108:
	.cfi_restore_state
	movabsq	$2340011850872286273, %rcx
	movq	%rcx, 16(%rdi)
	movl	$1852141679, 8(%rax)
	movq	$12, 8(%rdi)
	movb	$0, 28(%rdi)
	jmp	.L100
	.p2align 4,,10
	.p2align 3
.L111:
	movq	%rsp, %rsi
	xorl	%edx, %edx
	movq	$57, (%rsp)
	call	_ZNSt7__cxx1112basic_stringIcSt11char_traitsIcESaIcEE9_M_createERmm@PLT
	movq	(%rsp), %rdx
	movdqa	.LC20(%rip), %xmm0
	movabsq	$7310291504967217959, %rsi
	movq	%rax, (%r12)
	movq	%rdx, 16(%r12)
	movups	%xmm0, (%rax)
	movdqa	.LC21(%rip), %xmm0
	movq	%rsi, 48(%rax)
	movups	%xmm0, 16(%rax)
	movdqa	.LC22(%rip), %xmm0
	movb	$116, 56(%rax)
	movups	%xmm0, 32(%rax)
	movq	(%rsp), %rax
	movq	(%r12), %rdx
	movq	%rax, 8(%r12)
	movb	$0, (%rdx,%rax)
	jmp	.L100
	.p2align 4,,10
	.p2align 3
.L109:
	movabsq	$7358994418594246213, %rcx
	movq	%rcx, 16(%rdi)
	movl	$27753, %ecx
	movw	%cx, 8(%rax)
	movb	$101, 10(%rax)
	movq	$11, 8(%rdi)
	movb	$0, 27(%rdi)
	jmp	.L100
	.p2align 4,,10
	.p2align 3
.L110:
	xorl	%edx, %edx
	movq	%rsp, %rsi
	movq	$17, (%rsp)
	call	_ZNSt7__cxx1112basic_stringIcSt11char_traitsIcESaIcEE9_M_createERmm@PLT
	movq	(%rsp), %rdx
	movdqa	.LC19(%rip), %xmm0
	movq	%rax, (%r12)
	movq	%rdx, 16(%r12)
	movb	$100, 16(%rax)
	movups	%xmm0, (%rax)
	movq	(%rsp), %rax
	movq	(%r12), %rdx
	movq	%rax, 8(%r12)
	movb	$0, (%rdx,%rax)
	jmp	.L100
.L112:
	call	__stack_chk_fail@PLT
	.cfi_endproc
.LFE2511:
	.size	_ZNK4asio5error6detail13misc_category7messageB5cxx11Ei, .-_ZNK4asio5error6detail13misc_category7messageB5cxx11Ei
	.section	.text._ZNSt23_Sp_counted_ptr_inplaceIN7asiopal8ExecutorESaIS1_ELN9__gnu_cxx12_Lock_policyE2EE10_M_disposeEv,"axG",@progbits,_ZNSt23_Sp_counted_ptr_inplaceIN7asiopal8ExecutorESaIS1_ELN9__gnu_cxx12_Lock_policyE2EE10_M_disposeEv,comdat
	.align 2
	.p2align 4
	.weak	_ZNSt23_Sp_counted_ptr_inplaceIN7asiopal8ExecutorESaIS1_ELN9__gnu_cxx12_Lock_policyE2EE10_M_disposeEv
	.type	_ZNSt23_Sp_counted_ptr_inplaceIN7asiopal8ExecutorESaIS1_ELN9__gnu_cxx12_Lock_policyE2EE10_M_disposeEv, @function
_ZNSt23_Sp_counted_ptr_inplaceIN7asiopal8ExecutorESaIS1_ELN9__gnu_cxx12_Lock_policyE2EE10_M_disposeEv:
.LFB11270:
	.cfi_startproc
	endbr64
	movq	_ZTVN7asiopal8ExecutorE@GOTPCREL(%rip), %rax
	pushq	%r12
	.cfi_def_cfa_offset 16
	.cfi_offset 12, -16
	pushq	%rbp
	.cfi_def_cfa_offset 24
	.cfi_offset 6, -24
	pushq	%rbx
	.cfi_def_cfa_offset 32
	.cfi_offset 3, -32
	movq	48(%rdi), %rbp
	addq	$16, %rax
	movq	%rdi, %rbx
	movq	%rax, 16(%rdi)
	testq	%rbp, %rbp
	je	.L115
	movq	__libc_single_threaded@GOTPCREL(%rip), %r12
	cmpb	$0, (%r12)
	je	.L116
	movl	8(%rbp), %eax
	leal	-1(%rax), %edx
	movl	%edx, 8(%rbp)
.L117:
	cmpl	$1, %eax
	je	.L127
.L115:
	movq	32(%rbx), %rdi
	testq	%rdi, %rdi
	je	.L113
	movq	__libc_single_threaded@GOTPCREL(%rip), %rax
	cmpb	$0, (%rax)
	je	.L123
	movl	12(%rdi), %eax
	leal	-1(%rax), %edx
	movl	%edx, 12(%rdi)
.L124:
	cmpl	$1, %eax
	je	.L128
.L113:
	popq	%rbx
	.cfi_remember_state
	.cfi_def_cfa_offset 24
	popq	%rbp
	.cfi_def_cfa_offset 16
	popq	%r12
	.cfi_def_cfa_offset 8
	ret
	.p2align 4,,10
	.p2align 3
.L127:
	.cfi_restore_state
	movq	0(%rbp), %rax
	movq	%rbp, %rdi
	call	*16(%rax)
	cmpb	$0, (%r12)
	je	.L119
	movl	12(%rbp), %eax
	leal	-1(%rax), %edx
	movl	%edx, 12(%rbp)
.L120:
	cmpl	$1, %eax
	jne	.L115
	movq	0(%rbp), %rax
	movq	%rbp, %rdi
	call	*24(%rax)
	jmp	.L115
	.p2align 4,,10
	.p2align 3
.L128:
	movq	(%rdi), %rax
	popq	%rbx
	.cfi_remember_state
	.cfi_def_cfa_offset 24
	popq	%rbp
	.cfi_def_cfa_offset 16
	popq	%r12
	.cfi_def_cfa_offset 8
	movq	24(%rax), %rax
	jmp	*%rax
	.p2align 4,,10
	.p2align 3
.L123:
	.cfi_restore_state
	movl	$-1, %eax
	lock xaddl	%eax, 12(%rdi)
	jmp	.L124
	.p2align 4,,10
	.p2align 3
.L116:
	movl	$-1, %eax
	lock xaddl	%eax, 8(%rbp)
	jmp	.L117
	.p2align 4,,10
	.p2align 3
.L119:
	movl	$-1, %eax
	lock xaddl	%eax, 12(%rbp)
	jmp	.L120
	.cfi_endproc
.LFE11270:
	.size	_ZNSt23_Sp_counted_ptr_inplaceIN7asiopal8ExecutorESaIS1_ELN9__gnu_cxx12_Lock_policyE2EE10_M_disposeEv, .-_ZNSt23_Sp_counted_ptr_inplaceIN7asiopal8ExecutorESaIS1_ELN9__gnu_cxx12_Lock_policyE2EE10_M_disposeEv
	.section	.text._ZNSt23_Sp_counted_ptr_inplaceIN8asiodnp311LinkSessionESaIS1_ELN9__gnu_cxx12_Lock_policyE2EE10_M_disposeEv,"axG",@progbits,_ZNSt23_Sp_counted_ptr_inplaceIN8asiodnp311LinkSessionESaIS1_ELN9__gnu_cxx12_Lock_policyE2EE10_M_disposeEv,comdat
	.align 2
	.p2align 4
	.weak	_ZNSt23_Sp_counted_ptr_inplaceIN8asiodnp311LinkSessionESaIS1_ELN9__gnu_cxx12_Lock_policyE2EE10_M_disposeEv
	.type	_ZNSt23_Sp_counted_ptr_inplaceIN8asiodnp311LinkSessionESaIS1_ELN9__gnu_cxx12_Lock_policyE2EE10_M_disposeEv, @function
_ZNSt23_Sp_counted_ptr_inplaceIN8asiodnp311LinkSessionESaIS1_ELN9__gnu_cxx12_Lock_policyE2EE10_M_disposeEv:
.LFB11242:
	.cfi_startproc
	endbr64
	movq	_ZTVN8asiodnp311LinkSessionE@GOTPCREL(%rip), %rax
	pushq	%r12
	.cfi_def_cfa_offset 16
	.cfi_offset 12, -16
	pushq	%rbp
	.cfi_def_cfa_offset 24
	.cfi_offset 6, -24
	leaq	96(%rax), %rdx
	leaq	16(%rax), %rcx
	pushq	%rbx
	.cfi_def_cfa_offset 32
	.cfi_offset 3, -32
	movq	616(%rdi), %r12
	movq	%rdx, %xmm1
	movq	%rcx, %xmm0
	leaq	144(%rax), %rdx
	movq	%rdi, %rbx
	punpcklqdq	%xmm1, %xmm0
	movq	%rdx, 32(%rdi)
	leaq	224(%rax), %rdx
	addq	$184, %rax
	movups	%xmm0, 16(%rdi)
	movq	%rdx, %xmm2
	movq	%rax, %xmm0
	punpcklqdq	%xmm2, %xmm0
	movups	%xmm0, 56(%rdi)
	testq	%r12, %r12
	je	.L131
	movq	__libc_single_threaded@GOTPCREL(%rip), %rbp
	cmpb	$0, 0(%rbp)
	je	.L132
	movl	8(%r12), %eax
	leal	-1(%rax), %edx
	movl	%edx, 8(%r12)
.L133:
	cmpl	$1, %eax
	je	.L192
.L131:
	leaq	584(%rbx), %rdi
	call	_ZN7openpal8TimerRefD1Ev@PLT
	movq	192(%rbx), %r12
	testq	%r12, %r12
	je	.L138
	movq	__libc_single_threaded@GOTPCREL(%rip), %rbp
	cmpb	$0, 0(%rbp)
	je	.L139
	movl	8(%r12), %eax
	leal	-1(%rax), %edx
	movl	%edx, 8(%r12)
.L140:
	cmpl	$1, %eax
	je	.L193
.L138:
	movq	176(%rbx), %r12
	testq	%r12, %r12
	je	.L145
	movq	__libc_single_threaded@GOTPCREL(%rip), %rbp
	cmpb	$0, 0(%rbp)
	je	.L146
	movl	8(%r12), %eax
	leal	-1(%rax), %edx
	movl	%edx, 8(%r12)
.L147:
	cmpl	$1, %eax
	je	.L194
.L145:
	movq	160(%rbx), %r12
	testq	%r12, %r12
	je	.L152
	movq	__libc_single_threaded@GOTPCREL(%rip), %rbp
	cmpb	$0, 0(%rbp)
	je	.L153
	movl	8(%r12), %eax
	leal	-1(%rax), %edx
	movl	%edx, 8(%r12)
.L154:
	cmpl	$1, %eax
	je	.L195
.L152:
	movq	144(%rbx), %r12
	testq	%r12, %r12
	je	.L159
	movq	__libc_single_threaded@GOTPCREL(%rip), %rbp
	cmpb	$0, 0(%rbp)
	je	.L160
	movl	8(%r12), %eax
	leal	-1(%rax), %edx
	movl	%edx, 8(%r12)
.L161:
	cmpl	$1, %eax
	je	.L196
.L159:
	movq	128(%rbx), %r12
	testq	%r12, %r12
	je	.L166
	movq	__libc_single_threaded@GOTPCREL(%rip), %rbp
	cmpb	$0, 0(%rbp)
	je	.L167
	movl	8(%r12), %eax
	leal	-1(%rax), %edx
	movl	%edx, 8(%r12)
.L168:
	cmpl	$1, %eax
	je	.L197
.L166:
	movq	104(%rbx), %r12
	testq	%r12, %r12
	je	.L173
	movq	__libc_single_threaded@GOTPCREL(%rip), %rbp
	cmpb	$0, 0(%rbp)
	je	.L174
	movl	8(%r12), %eax
	leal	-1(%rax), %edx
	movl	%edx, 8(%r12)
.L175:
	cmpl	$1, %eax
	je	.L198
.L173:
	movq	88(%rbx), %r12
	testq	%r12, %r12
	je	.L180
	movq	__libc_single_threaded@GOTPCREL(%rip), %rbp
	cmpb	$0, 0(%rbp)
	je	.L181
	movl	8(%r12), %eax
	leal	-1(%rax), %edx
	movl	%edx, 8(%r12)
.L182:
	cmpl	$1, %eax
	je	.L199
.L180:
	movq	48(%rbx), %rdi
	testq	%rdi, %rdi
	je	.L129
	movq	__libc_single_threaded@GOTPCREL(%rip), %rax
	cmpb	$0, (%rax)
	je	.L188
	movl	12(%rdi), %eax
	leal	-1(%rax), %edx
	movl	%edx, 12(%rdi)
.L189:
	cmpl	$1, %eax
	je	.L200
.L129:
	popq	%rbx
	.cfi_remember_state
	.cfi_def_cfa_offset 24
	popq	%rbp
	.cfi_def_cfa_offset 16
	popq	%r12
	.cfi_def_cfa_offset 8
	ret
	.p2align 4,,10
	.p2align 3
.L192:
	.cfi_restore_state
	movq	(%r12), %rax
	movq	%r12, %rdi
	call	*16(%rax)
	cmpb	$0, 0(%rbp)
	je	.L135
	movl	12(%r12), %eax
	leal	-1(%rax), %edx
	movl	%edx, 12(%r12)
.L136:
	cmpl	$1, %eax
	jne	.L131
	movq	(%r12), %rax
	movq	%r12, %rdi
	call	*24(%rax)
	jmp	.L131
	.p2align 4,,10
	.p2align 3
.L193:
	movq	(%r12), %rax
	movq	%r12, %rdi
	call	*16(%rax)
	cmpb	$0, 0(%rbp)
	je	.L142
	movl	12(%r12), %eax
	leal	-1(%rax), %edx
	movl	%edx, 12(%r12)
.L143:
	cmpl	$1, %eax
	jne	.L138
	movq	(%r12), %rax
	movq	%r12, %rdi
	call	*24(%rax)
	jmp	.L138
	.p2align 4,,10
	.p2align 3
.L194:
	movq	(%r12), %rax
	movq	%r12, %rdi
	call	*16(%rax)
	cmpb	$0, 0(%rbp)
	je	.L149
	movl	12(%r12), %eax
	leal	-1(%rax), %edx
	movl	%edx, 12(%r12)
.L150:
	cmpl	$1, %eax
	jne	.L145
	movq	(%r12), %rax
	movq	%r12, %rdi
	call	*24(%rax)
	jmp	.L145
	.p2align 4,,10
	.p2align 3
.L198:
	movq	(%r12), %rax
	movq	%r12, %rdi
	call	*16(%rax)
	cmpb	$0, 0(%rbp)
	je	.L177
	movl	12(%r12), %eax
	leal	-1(%rax), %edx
	movl	%edx, 12(%r12)
.L178:
	cmpl	$1, %eax
	jne	.L173
	movq	(%r12), %rax
	movq	%r12, %rdi
	call	*24(%rax)
	jmp	.L173
	.p2align 4,,10
	.p2align 3
.L196:
	movq	(%r12), %rax
	movq	%r12, %rdi
	call	*16(%rax)
	cmpb	$0, 0(%rbp)
	je	.L163
	movl	12(%r12), %eax
	leal	-1(%rax), %edx
	movl	%edx, 12(%r12)
.L164:
	cmpl	$1, %eax
	jne	.L159
	movq	(%r12), %rax
	movq	%r12, %rdi
	call	*24(%rax)
	jmp	.L159
	.p2align 4,,10
	.p2align 3
.L200:
	movq	(%rdi), %rax
	popq	%rbx
	.cfi_remember_state
	.cfi_def_cfa_offset 24
	popq	%rbp
	.cfi_def_cfa_offset 16
	popq	%r12
	.cfi_def_cfa_offset 8
	movq	24(%rax), %rax
	jmp	*%rax
	.p2align 4,,10
	.p2align 3
.L195:
	.cfi_restore_state
	movq	(%r12), %rax
	movq	%r12, %rdi
	call	*16(%rax)
	cmpb	$0, 0(%rbp)
	je	.L156
	movl	12(%r12), %eax
	leal	-1(%rax), %edx
	movl	%edx, 12(%r12)
.L157:
	cmpl	$1, %eax
	jne	.L152
	movq	(%r12), %rax
	movq	%r12, %rdi
	call	*24(%rax)
	jmp	.L152
	.p2align 4,,10
	.p2align 3
.L197:
	movq	(%r12), %rax
	movq	%r12, %rdi
	call	*16(%rax)
	cmpb	$0, 0(%rbp)
	je	.L170
	movl	12(%r12), %eax
	leal	-1(%rax), %edx
	movl	%edx, 12(%r12)
.L171:
	cmpl	$1, %eax
	jne	.L166
	movq	(%r12), %rax
	movq	%r12, %rdi
	call	*24(%rax)
	jmp	.L166
	.p2align 4,,10
	.p2align 3
.L199:
	movq	(%r12), %rax
	movq	%r12, %rdi
	call	*16(%rax)
	cmpb	$0, 0(%rbp)
	je	.L184
	movl	12(%r12), %eax
	leal	-1(%rax), %edx
	movl	%edx, 12(%r12)
.L185:
	cmpl	$1, %eax
	jne	.L180
	movq	(%r12), %rax
	movq	%r12, %rdi
	call	*24(%rax)
	jmp	.L180
	.p2align 4,,10
	.p2align 3
.L167:
	movl	$-1, %eax
	lock xaddl	%eax, 8(%r12)
	jmp	.L168
	.p2align 4,,10
	.p2align 3
.L160:
	movl	$-1, %eax
	lock xaddl	%eax, 8(%r12)
	jmp	.L161
	.p2align 4,,10
	.p2align 3
.L139:
	movl	$-1, %eax
	lock xaddl	%eax, 8(%r12)
	jmp	.L140
	.p2align 4,,10
	.p2align 3
.L146:
	movl	$-1, %eax
	lock xaddl	%eax, 8(%r12)
	jmp	.L147
	.p2align 4,,10
	.p2align 3
.L153:
	movl	$-1, %eax
	lock xaddl	%eax, 8(%r12)
	jmp	.L154
	.p2align 4,,10
	.p2align 3
.L188:
	movl	$-1, %eax
	lock xaddl	%eax, 12(%rdi)
	jmp	.L189
	.p2align 4,,10
	.p2align 3
.L181:
	movl	$-1, %eax
	lock xaddl	%eax, 8(%r12)
	jmp	.L182
	.p2align 4,,10
	.p2align 3
.L132:
	movl	$-1, %eax
	lock xaddl	%eax, 8(%r12)
	jmp	.L133
	.p2align 4,,10
	.p2align 3
.L174:
	movl	$-1, %eax
	lock xaddl	%eax, 8(%r12)
	jmp	.L175
	.p2align 4,,10
	.p2align 3
.L163:
	movl	$-1, %eax
	lock xaddl	%eax, 12(%r12)
	jmp	.L164
	.p2align 4,,10
	.p2align 3
.L184:
	movl	$-1, %eax
	lock xaddl	%eax, 12(%r12)
	jmp	.L185
	.p2align 4,,10
	.p2align 3
.L149:
	movl	$-1, %eax
	lock xaddl	%eax, 12(%r12)
	jmp	.L150
	.p2align 4,,10
	.p2align 3
.L170:
	movl	$-1, %eax
	lock xaddl	%eax, 12(%r12)
	jmp	.L171
	.p2align 4,,10
	.p2align 3
.L135:
	movl	$-1, %eax
	lock xaddl	%eax, 12(%r12)
	jmp	.L136
	.p2align 4,,10
	.p2align 3
.L142:
	movl	$-1, %eax
	lock xaddl	%eax, 12(%r12)
	jmp	.L143
	.p2align 4,,10
	.p2align 3
.L177:
	movl	$-1, %eax
	lock xaddl	%eax, 12(%r12)
	jmp	.L178
	.p2align 4,,10
	.p2align 3
.L156:
	movl	$-1, %eax
	lock xaddl	%eax, 12(%r12)
	jmp	.L157
	.cfi_endproc
.LFE11242:
	.size	_ZNSt23_Sp_counted_ptr_inplaceIN8asiodnp311LinkSessionESaIS1_ELN9__gnu_cxx12_Lock_policyE2EE10_M_disposeEv, .-_ZNSt23_Sp_counted_ptr_inplaceIN8asiodnp311LinkSessionESaIS1_ELN9__gnu_cxx12_Lock_policyE2EE10_M_disposeEv
	.section	.text.unlikely._ZSt20__throw_bad_weak_ptrv,"axG",@progbits,_ZSt20__throw_bad_weak_ptrv,comdat
	.weak	_ZSt20__throw_bad_weak_ptrv
	.type	_ZSt20__throw_bad_weak_ptrv, @function
_ZSt20__throw_bad_weak_ptrv:
.LFB1256:
	.cfi_startproc
	endbr64
	pushq	%rax
	.cfi_def_cfa_offset 16
	popq	%rax
	.cfi_def_cfa_offset 8
	movl	$8, %edi
	pushq	%rax
	.cfi_def_cfa_offset 16
	call	__cxa_allocate_exception@PLT
	movq	_ZNSt12bad_weak_ptrD1Ev@GOTPCREL(%rip), %rdx
	movq	_ZTISt12bad_weak_ptr@GOTPCREL(%rip), %rsi
	movq	%rax, %rdi
	movq	_ZTVSt12bad_weak_ptr@GOTPCREL(%rip), %rax
	addq	$16, %rax
	movq	%rax, (%rdi)
	call	__cxa_throw@PLT
	.cfi_endproc
.LFE1256:
	.size	_ZSt20__throw_bad_weak_ptrv, .-_ZSt20__throw_bad_weak_ptrv
	.section	.text._ZN7openpal6LoggerD2Ev,"axG",@progbits,_ZN7openpal6LoggerD5Ev,comdat
	.align 2
	.p2align 4
	.weak	_ZN7openpal6LoggerD2Ev
	.type	_ZN7openpal6LoggerD2Ev, @function
_ZN7openpal6LoggerD2Ev:
.LFB2070:
	.cfi_startproc
	endbr64
	pushq	%r12
	.cfi_def_cfa_offset 16
	.cfi_offset 12, -16
	pushq	%rbp
	.cfi_def_cfa_offset 24
	.cfi_offset 6, -24
	pushq	%rbx
	.cfi_def_cfa_offset 32
	.cfi_offset 3, -32
	movq	24(%rdi), %rbp
	movq	%rdi, %rbx
	testq	%rbp, %rbp
	je	.L205
	movq	__libc_single_threaded@GOTPCREL(%rip), %r12
	cmpb	$0, (%r12)
	je	.L206
	movl	8(%rbp), %eax
	leal	-1(%rax), %edx
	movl	%edx, 8(%rbp)
.L207:
	cmpl	$1, %eax
	je	.L219
.L205:
	movq	8(%rbx), %rbp
	testq	%rbp, %rbp
	je	.L203
	movq	__libc_single_threaded@GOTPCREL(%rip), %r12
	cmpb	$0, (%r12)
	je	.L213
	movl	8(%rbp), %eax
	leal	-1(%rax), %edx
	movl	%edx, 8(%rbp)
.L214:
	cmpl	$1, %eax
	je	.L220
.L203:
	popq	%rbx
	.cfi_remember_state
	.cfi_def_cfa_offset 24
	popq	%rbp
	.cfi_def_cfa_offset 16
	popq	%r12
	.cfi_def_cfa_offset 8
	ret
	.p2align 4,,10
	.p2align 3
.L219:
	.cfi_restore_state
	movq	0(%rbp), %rax
	movq	%rbp, %rdi
	call	*16(%rax)
	cmpb	$0, (%r12)
	je	.L209
	movl	12(%rbp), %eax
	leal	-1(%rax), %edx
	movl	%edx, 12(%rbp)
.L210:
	cmpl	$1, %eax
	jne	.L205
	movq	0(%rbp), %rax
	movq	%rbp, %rdi
	call	*24(%rax)
	jmp	.L205
	.p2align 4,,10
	.p2align 3
.L220:
	movq	0(%rbp), %rax
	movq	%rbp, %rdi
	call	*16(%rax)
	cmpb	$0, (%r12)
	je	.L216
	movl	12(%rbp), %eax
	leal	-1(%rax), %edx
	movl	%edx, 12(%rbp)
.L217:
	cmpl	$1, %eax
	jne	.L203
	movq	0(%rbp), %rax
	popq	%rbx
	.cfi_remember_state
	.cfi_def_cfa_offset 24
	movq	%rbp, %rdi
	popq	%rbp
	.cfi_def_cfa_offset 16
	popq	%r12
	.cfi_def_cfa_offset 8
	movq	24(%rax), %rax
	jmp	*%rax
	.p2align 4,,10
	.p2align 3
.L213:
	.cfi_restore_state
	movl	$-1, %eax
	lock xaddl	%eax, 8(%rbp)
	jmp	.L214
	.p2align 4,,10
	.p2align 3
.L206:
	movl	$-1, %eax
	lock xaddl	%eax, 8(%rbp)
	jmp	.L207
	.p2align 4,,10
	.p2align 3
.L209:
	movl	$-1, %eax
	lock xaddl	%eax, 12(%rbp)
	jmp	.L210
	.p2align 4,,10
	.p2align 3
.L216:
	movl	$-1, %eax
	lock xaddl	%eax, 12(%rbp)
	jmp	.L217
	.cfi_endproc
.LFE2070:
	.size	_ZN7openpal6LoggerD2Ev, .-_ZN7openpal6LoggerD2Ev
	.weak	_ZN7openpal6LoggerD1Ev
	.set	_ZN7openpal6LoggerD1Ev,_ZN7openpal6LoggerD2Ev
	.section	.rodata._ZNSt12system_errorC2ESt10error_codePKc.str1.1,"aMS",@progbits,1
.LC23:
	.string	": "
	.section	.text._ZNSt12system_errorC2ESt10error_codePKc,"axG",@progbits,_ZNSt12system_errorC5ESt10error_codePKc,comdat
	.align 2
	.p2align 4
	.weak	_ZNSt12system_errorC2ESt10error_codePKc
	.type	_ZNSt12system_errorC2ESt10error_codePKc, @function
_ZNSt12system_errorC2ESt10error_codePKc:
.LFB2409:
	.cfi_startproc
	.cfi_personality 0x9b,DW.ref.__gxx_personality_v0
	.cfi_lsda 0x1b,.LLSDA2409
	endbr64
	pushq	%r14
	.cfi_def_cfa_offset 16
	.cfi_offset 14, -16
	movq	%rcx, %r14
	pushq	%r13
	.cfi_def_cfa_offset 24
	.cfi_offset 13, -24
	pushq	%r12
	.cfi_def_cfa_offset 32
	.cfi_offset 12, -32
	movq	%rsi, %r12
	pushq	%rbp
	.cfi_def_cfa_offset 40
	.cfi_offset 6, -40
	movq	%rdx, %rbp
	pushq	%rbx
	.cfi_def_cfa_offset 48
	.cfi_offset 3, -48
	movq	%rdi, %rbx
	subq	$112, %rsp
	.cfi_def_cfa_offset 160
	movq	%fs:40, %rax
	movq	%rax, 104(%rsp)
	xorl	%eax, %eax
	movq	(%rdx), %rax
	leaq	64(%rsp), %r13
	movl	%esi, %edx
	movq	%r13, %rdi
	movq	%rbp, %rsi
.LEHB0:
	call	*32(%rax)
.LEHE0:
	movl	$2, %r8d
	xorl	%edx, %edx
	xorl	%esi, %esi
	leaq	.LC23(%rip), %rcx
	movq	%r13, %rdi
.LEHB1:
	call	_ZNSt7__cxx1112basic_stringIcSt11char_traitsIcESaIcEE10_M_replaceEmmPKcm@PLT
.LEHE1:
	leaq	48(%rsp), %r13
	leaq	16(%rax), %rdx
	movq	%r13, 32(%rsp)
	movq	(%rax), %rcx
	cmpq	%rdx, %rcx
	je	.L241
	movq	%rcx, 32(%rsp)
	movq	16(%rax), %rcx
	movq	%rcx, 48(%rsp)
.L223:
	movq	8(%rax), %rcx
	movb	$0, 16(%rax)
	movq	%r14, %rdi
	movq	%rcx, 40(%rsp)
	movq	%rdx, (%rax)
	movq	$0, 8(%rax)
	call	strlen@PLT
	leaq	32(%rsp), %rdi
	movq	%r14, %rcx
	xorl	%edx, %edx
	movq	%rax, %r8
	xorl	%esi, %esi
.LEHB2:
	call	_ZNSt7__cxx1112basic_stringIcSt11char_traitsIcESaIcEE10_M_replaceEmmPKcm@PLT
.LEHE2:
	leaq	16(%rsp), %r14
	leaq	16(%rax), %rdx
	movq	%r14, (%rsp)
	movq	(%rax), %rcx
	cmpq	%rdx, %rcx
	je	.L242
	movq	%rcx, (%rsp)
	movq	16(%rax), %rcx
	movq	%rcx, 16(%rsp)
.L225:
	movq	8(%rax), %rcx
	movb	$0, 16(%rax)
	movq	%rsp, %rsi
	movq	%rbx, %rdi
	movq	%rcx, 8(%rsp)
	movq	%rdx, (%rax)
	movq	$0, 8(%rax)
.LEHB3:
	call	_ZNSt13runtime_errorC2ERKNSt7__cxx1112basic_stringIcSt11char_traitsIcESaIcEEE@PLT
.LEHE3:
	movq	(%rsp), %rdi
	cmpq	%r14, %rdi
	je	.L226
	movq	16(%rsp), %rax
	leaq	1(%rax), %rsi
	call	_ZdlPvm@PLT
.L226:
	movq	32(%rsp), %rdi
	cmpq	%r13, %rdi
	je	.L227
	movq	48(%rsp), %rax
	leaq	1(%rax), %rsi
	call	_ZdlPvm@PLT
.L227:
	movq	64(%rsp), %rdi
	leaq	80(%rsp), %rax
	cmpq	%rax, %rdi
	je	.L228
	movq	80(%rsp), %rax
	leaq	1(%rax), %rsi
	call	_ZdlPvm@PLT
.L228:
	movq	_ZTVSt12system_error@GOTPCREL(%rip), %rax
	movq	%r12, 16(%rbx)
	movq	%rbp, 24(%rbx)
	addq	$16, %rax
	movq	%rax, (%rbx)
	movq	104(%rsp), %rax
	subq	%fs:40, %rax
	jne	.L243
	addq	$112, %rsp
	.cfi_remember_state
	.cfi_def_cfa_offset 48
	popq	%rbx
	.cfi_def_cfa_offset 40
	popq	%rbp
	.cfi_def_cfa_offset 32
	popq	%r12
	.cfi_def_cfa_offset 24
	popq	%r13
	.cfi_def_cfa_offset 16
	popq	%r14
	.cfi_def_cfa_offset 8
	ret
	.p2align 4,,10
	.p2align 3
.L241:
	.cfi_restore_state
	movdqu	16(%rax), %xmm0
	movaps	%xmm0, 48(%rsp)
	jmp	.L223
	.p2align 4,,10
	.p2align 3
.L242:
	movdqu	16(%rax), %xmm1
	movaps	%xmm1, 16(%rsp)
	jmp	.L225
.L243:
	call	__stack_chk_fail@PLT
.L238:
	endbr64
	movq	%rax, %rbp
	jmp	.L229
.L236:
	endbr64
	movq	%rax, %rbp
	jmp	.L233
.L237:
	endbr64
	movq	%rax, %rbp
	jmp	.L231
.L229:
	movq	(%rsp), %rdi
	cmpq	%r14, %rdi
	je	.L231
	movq	16(%rsp), %rax
	leaq	1(%rax), %rsi
	call	_ZdlPvm@PLT
.L231:
	movq	32(%rsp), %rdi
	cmpq	%r13, %rdi
	je	.L233
	movq	48(%rsp), %rax
	leaq	1(%rax), %rsi
	call	_ZdlPvm@PLT
.L233:
	movq	64(%rsp), %rdi
	leaq	80(%rsp), %rax
	cmpq	%rax, %rdi
	je	.L234
	movq	80(%rsp), %rax
	leaq	1(%rax), %rsi
	call	_ZdlPvm@PLT
.L234:
	movq	%rbp, %rdi
.LEHB4:
	call	_Unwind_Resume@PLT
.LEHE4:
	.cfi_endproc
.LFE2409:
	.globl	__gxx_personality_v0
	.section	.gcc_except_table._ZNSt12system_errorC2ESt10error_codePKc,"aG",@progbits,_ZNSt12system_errorC5ESt10error_codePKc,comdat
.LLSDA2409:
	.byte	0xff
	.byte	0xff
	.byte	0x1
	.uleb128 .LLSDACSE2409-.LLSDACSB2409
.LLSDACSB2409:
	.uleb128 .LEHB0-.LFB2409
	.uleb128 .LEHE0-.LEHB0
	.uleb128 0
	.uleb128 0
	.uleb128 .LEHB1-.LFB2409
	.uleb128 .LEHE1-.LEHB1
	.uleb128 .L236-.LFB2409
	.uleb128 0
	.uleb128 .LEHB2-.LFB2409
	.uleb128 .LEHE2-.LEHB2
	.uleb128 .L237-.LFB2409
	.uleb128 0
	.uleb128 .LEHB3-.LFB2409
	.uleb128 .LEHE3-.LEHB3
	.uleb128 .L238-.LFB2409
	.uleb128 0
	.uleb128 .LEHB4-.LFB2409
	.uleb128 .LEHE4-.LEHB4
	.uleb128 0
	.uleb128 0
.LLSDACSE2409:
	.section	.text._ZNSt12system_errorC2ESt10error_codePKc,"axG",@progbits,_ZNSt12system_errorC5ESt10error_codePKc,comdat
	.size	_ZNSt12system_errorC2ESt10error_codePKc, .-_ZNSt12system_errorC2ESt10error_codePKc
	.weak	_ZNSt12system_errorC1ESt10error_codePKc
	.set	_ZNSt12system_errorC1ESt10error_codePKc,_ZNSt12system_errorC2ESt10error_codePKc
	.section	.text._ZN4asio15system_categoryEv,"axG",@progbits,_ZN4asio15system_categoryEv,comdat
	.p2align 4
	.weak	_ZN4asio15system_categoryEv
	.type	_ZN4asio15system_categoryEv, @function
_ZN4asio15system_categoryEv:
.LFB2462:
	.cfi_startproc
	endbr64
	pushq	%r12
	.cfi_def_cfa_offset 16
	.cfi_offset 12, -16
	pushq	%rbp
	.cfi_def_cfa_offset 24
	.cfi_offset 6, -24
	subq	$8, %rsp
	.cfi_def_cfa_offset 32
	movq	_ZGVZN4asio15system_categoryEvE8instance@GOTPCREL(%rip), %rbp
	movzbl	0(%rbp), %eax
	testb	%al, %al
	je	.L245
.L252:
	movq	_ZZN4asio15system_categoryEvE8instance@GOTPCREL(%rip), %r12
	addq	$8, %rsp
	.cfi_remember_state
	.cfi_def_cfa_offset 24
	popq	%rbp
	.cfi_def_cfa_offset 16
	movq	%r12, %rax
	popq	%r12
	.cfi_def_cfa_offset 8
	ret
	.p2align 4,,10
	.p2align 3
.L245:
	.cfi_restore_state
	movq	%rbp, %rdi
	call	__cxa_guard_acquire@PLT
	testl	%eax, %eax
	je	.L252
	movq	_ZZN4asio15system_categoryEvE8instance@GOTPCREL(%rip), %r12
	movq	_ZN4asio6detail15system_categoryD1Ev@GOTPCREL(%rip), %rdi
	leaq	__dso_handle(%rip), %rdx
	movq	%r12, %rsi
	call	__cxa_atexit@PLT
	movq	%rbp, %rdi
	call	__cxa_guard_release@PLT
	addq	$8, %rsp
	.cfi_def_cfa_offset 24
	movq	%r12, %rax
	popq	%rbp
	.cfi_def_cfa_offset 16
	popq	%r12
	.cfi_def_cfa_offset 8
	ret
	.cfi_endproc
.LFE2462:
	.size	_ZN4asio15system_categoryEv, .-_ZN4asio15system_categoryEv
	.section	.text._ZNSt23_Sp_counted_ptr_inplaceIN7asiopal13SocketChannelESaIS1_ELN9__gnu_cxx12_Lock_policyE2EE10_M_disposeEv,"axG",@progbits,_ZNSt23_Sp_counted_ptr_inplaceIN7asiopal13SocketChannelESaIS1_ELN9__gnu_cxx12_Lock_policyE2EE10_M_disposeEv,comdat
	.align 2
	.p2align 4
	.weak	_ZNSt23_Sp_counted_ptr_inplaceIN7asiopal13SocketChannelESaIS1_ELN9__gnu_cxx12_Lock_policyE2EE10_M_disposeEv
	.type	_ZNSt23_Sp_counted_ptr_inplaceIN7asiopal13SocketChannelESaIS1_ELN9__gnu_cxx12_Lock_policyE2EE10_M_disposeEv, @function
_ZNSt23_Sp_counted_ptr_inplaceIN7asiopal13SocketChannelESaIS1_ELN9__gnu_cxx12_Lock_policyE2EE10_M_disposeEv:
.LFB11235:
	.cfi_startproc
	.cfi_personality 0x9b,DW.ref.__gxx_personality_v0
	.cfi_lsda 0x1b,.LLSDA11235
	endbr64
	pushq	%r15
	.cfi_def_cfa_offset 16
	.cfi_offset 15, -16
	movq	%rdi, %r15
	pushq	%r14
	.cfi_def_cfa_offset 24
	.cfi_offset 14, -24
	pushq	%r13
	.cfi_def_cfa_offset 32
	.cfi_offset 13, -32
	pushq	%r12
	.cfi_def_cfa_offset 40
	.cfi_offset 12, -40
	pushq	%rbp
	.cfi_def_cfa_offset 48
	.cfi_offset 6, -48
	pushq	%rbx
	.cfi_def_cfa_offset 56
	.cfi_offset 3, -56
	subq	$72, %rsp
	.cfi_def_cfa_offset 128
	movl	80(%rdi), %r12d
	movq	%fs:40, %rax
	movq	%rax, 56(%rsp)
	movq	_ZTVN7asiopal13SocketChannelE@GOTPCREL(%rip), %rax
	addq	$16, %rax
	movq	%rax, 16(%rdi)
	cmpl	$-1, %r12d
	jne	.L383
.L254:
	movq	_ZTVN7asiopal13IAsyncChannelE@GOTPCREL(%rip), %rax
	movq	64(%r15), %rbp
	addq	$16, %rax
	movq	%rax, 16(%r15)
	testq	%rbp, %rbp
	je	.L302
	movq	__libc_single_threaded@GOTPCREL(%rip), %rbx
	cmpb	$0, (%rbx)
	je	.L303
	movl	8(%rbp), %eax
	leal	-1(%rax), %edx
	movl	%edx, 8(%rbp)
.L304:
	cmpl	$1, %eax
	je	.L384
.L302:
	movq	48(%r15), %rbp
	testq	%rbp, %rbp
	je	.L309
	movq	__libc_single_threaded@GOTPCREL(%rip), %rbx
	cmpb	$0, (%rbx)
	je	.L310
	movl	8(%rbp), %eax
	leal	-1(%rax), %edx
	movl	%edx, 8(%rbp)
.L311:
	cmpl	$1, %eax
	je	.L385
.L309:
	movq	32(%r15), %rdi
	testq	%rdi, %rdi
	je	.L253
	movq	__libc_single_threaded@GOTPCREL(%rip), %rax
	cmpb	$0, (%rax)
	je	.L317
	movl	12(%rdi), %eax
	leal	-1(%rax), %edx
	movl	%edx, 12(%rdi)
.L318:
	cmpl	$1, %eax
	je	.L386
.L253:
	movq	56(%rsp), %rax
	subq	%fs:40, %rax
	jne	.L378
	addq	$72, %rsp
	.cfi_remember_state
	.cfi_def_cfa_offset 56
	popq	%rbx
	.cfi_def_cfa_offset 48
	popq	%rbp
	.cfi_def_cfa_offset 40
	popq	%r12
	.cfi_def_cfa_offset 32
	popq	%r13
	.cfi_def_cfa_offset 24
	popq	%r14
	.cfi_def_cfa_offset 16
	popq	%r15
	.cfi_def_cfa_offset 8
	ret
	.p2align 4,,10
	.p2align 3
.L383:
	.cfi_restore_state
	movq	88(%rdi), %rbp
	testq	%rbp, %rbp
	je	.L284
	movq	104(%rdi), %rax
	movzbl	84(%rdi), %ebx
	movq	40(%rax), %rax
	movq	%rax, 16(%rsp)
	leaq	40(%rbp), %rax
	movq	%rax, %rdi
	movq	%rax, 24(%rsp)
	call	pthread_mutex_lock@PLT
	movq	88(%r15), %rdi
	cmpb	$0, 144(%rdi)
	jne	.L256
	andl	$64, %ebx
	jne	.L387
.L257:
	movq	$0, 8(%rsp)
	xorl	%ebp, %ebp
	movl	$0, 4(%rsp)
.L258:
	movslq	4(%rsp), %r12
	movq	%r12, %rax
	salq	$4, %rax
	movq	96(%rax,%rdi), %rbx
	testq	%rbx, %rbx
	je	.L324
	movq	_ZGVZN4asio15system_categoryEvE8instance@GOTPCREL(%rip), %r14
	movq	_ZZN4asio15system_categoryEvE8instance@GOTPCREL(%rip), %r13
	movzbl	(%r14), %eax
	testb	%al, %al
	je	.L388
	.p2align 4,,10
	.p2align 3
.L260:
	movq	88(%r15), %rdi
	movq	%r12, %rax
	movl	$125, 24(%rbx)
	salq	$4, %rax
	movq	%r13, 32(%rbx)
	addq	%rdi, %rax
	movq	96(%rax), %rdx
	testq	%rdx, %rdx
	je	.L262
	movq	(%rdx), %r11
	movq	%r11, 96(%rax)
	testq	%r11, %r11
	je	.L389
	movq	$0, (%rdx)
	movq	$0, (%rbx)
	testq	%rbp, %rbp
	je	.L390
.L321:
	movq	%rbx, 0(%rbp)
	testq	%r11, %r11
	je	.L264
.L265:
	movzbl	(%r14), %eax
	movq	%rbx, %rbp
	movq	%r11, %rbx
	testb	%al, %al
	jne	.L260
.L388:
	movq	%r14, %rdi
	call	__cxa_guard_acquire@PLT
	testl	%eax, %eax
	je	.L260
	movq	_ZN4asio6detail15system_categoryD1Ev@GOTPCREL(%rip), %rdi
	leaq	__dso_handle(%rip), %rdx
	movq	%r13, %rsi
	call	__cxa_atexit@PLT
	movq	%r14, %rdi
	call	__cxa_guard_release@PLT
	jmp	.L260
	.p2align 4,,10
	.p2align 3
.L256:
	movq	24(%rsp), %rdi
	call	pthread_mutex_unlock@PLT
.L376:
	movl	80(%r15), %r12d
	cmpl	$-1, %r12d
	je	.L254
.L284:
	call	__errno_location@PLT
	movzbl	84(%r15), %ebp
	movq	%rax, %rbx
	testb	$8, %bpl
	jne	.L374
	movq	_ZGVZN4asio15system_categoryEvE8instance@GOTPCREL(%rip), %r14
.L286:
	movl	$0, (%rbx)
	movl	%r12d, %edi
	call	close@PLT
	movl	%eax, %ebp
	movzbl	(%r14), %eax
	testb	%al, %al
	je	.L391
.L291:
	movl	(%rbx), %r13d
	testl	%ebp, %ebp
	je	.L254
	movzbl	(%r14), %eax
	testb	%al, %al
	je	.L392
.L295:
	cmpl	$11, %r13d
	je	.L297
.L382:
	movzbl	(%r14), %eax
	testb	%al, %al
	jne	.L254
	movq	%r14, %rdi
	call	__cxa_guard_acquire@PLT
	testl	%eax, %eax
	je	.L254
	movq	_ZZN4asio15system_categoryEvE8instance@GOTPCREL(%rip), %rsi
	movq	_ZN4asio6detail15system_categoryD1Ev@GOTPCREL(%rip), %rdi
	leaq	__dso_handle(%rip), %rdx
	call	__cxa_atexit@PLT
	movq	%r14, %rdi
	call	__cxa_guard_release@PLT
	jmp	.L254
	.p2align 4,,10
	.p2align 3
.L384:
	movq	0(%rbp), %rax
	movq	%rbp, %rdi
	call	*16(%rax)
	cmpb	$0, (%rbx)
	je	.L306
	movl	12(%rbp), %eax
	leal	-1(%rax), %edx
	movl	%edx, 12(%rbp)
.L307:
	cmpl	$1, %eax
	jne	.L302
	movq	0(%rbp), %rax
	movq	%rbp, %rdi
	call	*24(%rax)
	jmp	.L302
	.p2align 4,,10
	.p2align 3
.L385:
	movq	0(%rbp), %rax
	movq	%rbp, %rdi
	call	*16(%rax)
	cmpb	$0, (%rbx)
	je	.L313
	movl	12(%rbp), %eax
	leal	-1(%rax), %edx
	movl	%edx, 12(%rbp)
.L314:
	cmpl	$1, %eax
	jne	.L309
	movq	0(%rbp), %rax
	movq	%rbp, %rdi
	call	*24(%rax)
	jmp	.L309
	.p2align 4,,10
	.p2align 3
.L386:
	movq	56(%rsp), %rax
	subq	%fs:40, %rax
	jne	.L378
	movq	(%rdi), %rax
	movq	24(%rax), %rax
	addq	$72, %rsp
	.cfi_remember_state
	.cfi_def_cfa_offset 56
	popq	%rbx
	.cfi_def_cfa_offset 48
	popq	%rbp
	.cfi_def_cfa_offset 40
	popq	%r12
	.cfi_def_cfa_offset 32
	popq	%r13
	.cfi_def_cfa_offset 24
	popq	%r14
	.cfi_def_cfa_offset 16
	popq	%r15
	.cfi_def_cfa_offset 8
	jmp	*%rax
	.p2align 4,,10
	.p2align 3
.L317:
	.cfi_restore_state
	movl	$-1, %eax
	lock xaddl	%eax, 12(%rdi)
	jmp	.L318
	.p2align 4,,10
	.p2align 3
.L303:
	movl	$-1, %eax
	lock xaddl	%eax, 8(%rbp)
	jmp	.L304
	.p2align 4,,10
	.p2align 3
.L310:
	movl	$-1, %eax
	lock xaddl	%eax, 8(%rbp)
	jmp	.L311
	.p2align 4,,10
	.p2align 3
.L262:
	movq	$0, (%rbx)
	testq	%rbp, %rbp
	je	.L325
	movq	%rbx, 0(%rbp)
.L264:
	addl	$1, 4(%rsp)
	movl	4(%rsp), %eax
	cmpl	$3, %eax
	je	.L266
.L393:
	movq	%rbx, %rbp
	jmp	.L258
	.p2align 4,,10
	.p2align 3
.L389:
	movq	$0, 104(%rax)
	movq	$0, (%rdx)
	movq	$0, (%rbx)
	testq	%rbp, %rbp
	jne	.L321
	.p2align 4,,10
	.p2align 3
.L325:
	addl	$1, 4(%rsp)
	movl	4(%rsp), %eax
	movq	%rbx, 8(%rsp)
	cmpl	$3, %eax
	jne	.L393
.L266:
	movl	$-1, 88(%rdi)
	movb	$1, 144(%rdi)
	movq	24(%rsp), %rdi
	call	pthread_mutex_unlock@PLT
	movq	16(%rsp), %r14
	movq	88(%r15), %rbp
	leaq	120(%r14), %r12
	movq	%r12, %rdi
	call	pthread_mutex_lock@PLT
	cmpq	160(%r14), %rbp
	je	.L394
.L268:
	movq	32(%rbp), %rax
	testq	%rax, %rax
	je	.L269
	movq	24(%rbp), %rdx
	movq	%rdx, 24(%rax)
.L269:
	movq	24(%rbp), %rax
	testq	%rax, %rax
	je	.L270
	movq	32(%rbp), %rdx
	movq	%rdx, 32(%rax)
.L270:
	movq	16(%rsp), %r14
	movq	%r12, %rdi
	movq	168(%r14), %rax
	movq	$0, 32(%rbp)
	movq	%rax, 24(%rbp)
	movq	%rbp, 168(%r14)
	call	pthread_mutex_unlock@PLT
	cmpq	$0, 8(%rsp)
	movq	$0, 88(%r15)
	je	.L376
	movq	40(%r14), %rbp
	cmpb	$0, 40(%rbp)
	je	.L272
	data16	leaq	_ZN4asio6detail15keyword_tss_ptrINS0_10call_stackINS0_15task_io_serviceENS0_27task_io_service_thread_infoEE7contextEE6value_E@tlsgd(%rip), %rdi
	.value	0x6666
	rex64
	call	__tls_get_addr@PLT
	movq	(%rax), %rax
	testq	%rax, %rax
	jne	.L275
	jmp	.L272
	.p2align 4,,10
	.p2align 3
.L273:
	movq	16(%rax), %rax
	testq	%rax, %rax
	je	.L272
.L275:
	cmpq	(%rax), %rbp
	jne	.L273
	movq	8(%rax), %rax
	testq	%rax, %rax
	je	.L272
	movq	16(%rax), %rdx
	testq	%rdx, %rdx
	je	.L276
	movq	8(%rsp), %rsi
	movq	%rsi, (%rdx)
.L277:
	movq	%rbx, 16(%rax)
	jmp	.L376
	.p2align 4,,10
	.p2align 3
.L390:
	movq	%rbx, 8(%rsp)
	jmp	.L265
	.p2align 4,,10
	.p2align 3
.L391:
	movq	%r14, %rdi
	call	__cxa_guard_acquire@PLT
	testl	%eax, %eax
	je	.L291
	movq	_ZZN4asio15system_categoryEvE8instance@GOTPCREL(%rip), %rsi
	movq	_ZN4asio6detail15system_categoryD1Ev@GOTPCREL(%rip), %rdi
	leaq	__dso_handle(%rip), %rdx
	call	__cxa_atexit@PLT
	movq	%r14, %rdi
	call	__cxa_guard_release@PLT
	jmp	.L291
	.p2align 4,,10
	.p2align 3
.L374:
	orl	$8, %ebp
	leaq	40(%rsp), %rcx
	movl	$13, %edx
	movl	%r12d, %edi
	movb	%bpl, 84(%r15)
	movl	$8, %r8d
	movl	$1, %esi
	movl	$0, (%rax)
	movq	$0, 40(%rsp)
	call	setsockopt@PLT
	movq	_ZGVZN4asio15system_categoryEvE8instance@GOTPCREL(%rip), %r14
	movzbl	(%r14), %eax
	testb	%al, %al
	jne	.L286
	movq	%r14, %rdi
	call	__cxa_guard_acquire@PLT
	testl	%eax, %eax
	je	.L286
	movq	_ZZN4asio15system_categoryEvE8instance@GOTPCREL(%rip), %rsi
	movq	_ZN4asio6detail15system_categoryD1Ev@GOTPCREL(%rip), %rdi
	leaq	__dso_handle(%rip), %rdx
	call	__cxa_atexit@PLT
	movq	%r14, %rdi
	call	__cxa_guard_release@PLT
	jmp	.L286
	.p2align 4,,10
	.p2align 3
.L272:
	leaq	48(%rbp), %r12
	movq	%r12, %rdi
	call	pthread_mutex_lock@PLT
	movq	200(%rbp), %rax
	testq	%rax, %rax
	je	.L279
	movq	8(%rsp), %rcx
	movq	%rcx, (%rax)
.L280:
	movq	136(%rbp), %rax
	movq	%rbx, 200(%rbp)
	orq	$1, %rax
	movq	%rax, 136(%rbp)
	cmpq	$1, %rax
	je	.L281
	movq	%r12, %rdi
	call	pthread_mutex_unlock@PLT
	leaq	88(%rbp), %rdi
	call	pthread_cond_signal@PLT
	jmp	.L376
.L281:
	cmpb	$0, 176(%rbp)
	jne	.L283
	movq	144(%rbp), %rax
	testq	%rax, %rax
	je	.L283
	movb	$1, 176(%rbp)
	leaq	88(%rax), %rdx
	leaq	40(%rsp), %rcx
	movl	$3, %esi
	movq	%rdx, 44(%rsp)
	movl	88(%rax), %edx
	movl	$-2147483639, 40(%rsp)
	movl	96(%rax), %edi
	call	epoll_ctl@PLT
.L283:
	movq	%r12, %rdi
	call	pthread_mutex_unlock@PLT
	jmp	.L376
	.p2align 4,,10
	.p2align 3
.L306:
	movl	$-1, %eax
	lock xaddl	%eax, 12(%rbp)
	jmp	.L307
	.p2align 4,,10
	.p2align 3
.L313:
	movl	$-1, %eax
	lock xaddl	%eax, 12(%rbp)
	jmp	.L314
	.p2align 4,,10
	.p2align 3
.L387:
	movq	16(%rsp), %rax
	movl	$0, 40(%rsp)
	leaq	40(%rsp), %rcx
	movl	%r12d, %edx
	movq	$0, 44(%rsp)
	movl	$2, %esi
	movl	96(%rax), %edi
	call	epoll_ctl@PLT
	movq	88(%r15), %rdi
	jmp	.L257
	.p2align 4,,10
	.p2align 3
.L324:
	movq	%rbp, %rbx
	jmp	.L264
	.p2align 4,,10
	.p2align 3
.L394:
	movq	24(%rbp), %rax
	movq	16(%rsp), %rcx
	movq	%rax, 160(%rcx)
	jmp	.L268
.L392:
	movq	%r14, %rdi
	call	__cxa_guard_acquire@PLT
	testl	%eax, %eax
	je	.L295
	movq	_ZZN4asio15system_categoryEvE8instance@GOTPCREL(%rip), %rsi
	movq	_ZN4asio6detail15system_categoryD1Ev@GOTPCREL(%rip), %rdi
	leaq	__dso_handle(%rip), %rdx
	call	__cxa_atexit@PLT
	movq	%r14, %rdi
	call	__cxa_guard_release@PLT
	jmp	.L295
.L297:
	movl	%r12d, %edi
	leaq	40(%rsp), %rdx
	movl	$21537, %esi
	xorl	%eax, %eax
	movl	$0, 40(%rsp)
	call	ioctl@PLT
	andb	$-4, 84(%r15)
	movl	%r12d, %edi
	movl	$0, (%rbx)
	call	close@PLT
	jmp	.L382
.L279:
	movq	8(%rsp), %rax
	movq	%rax, 192(%rbp)
	jmp	.L280
.L276:
	movq	8(%rsp), %rcx
	movq	%rcx, 8(%rax)
	jmp	.L277
.L378:
	call	__stack_chk_fail@PLT
	.cfi_endproc
.LFE11235:
	.section	.gcc_except_table._ZNSt23_Sp_counted_ptr_inplaceIN7asiopal13SocketChannelESaIS1_ELN9__gnu_cxx12_Lock_policyE2EE10_M_disposeEv,"aG",@progbits,_ZNSt23_Sp_counted_ptr_inplaceIN7asiopal13SocketChannelESaIS1_ELN9__gnu_cxx12_Lock_policyE2EE10_M_disposeEv,comdat
.LLSDA11235:
	.byte	0xff
	.byte	0xff
	.byte	0x1
	.uleb128 .LLSDACSE11235-.LLSDACSB11235
.LLSDACSB11235:
.LLSDACSE11235:
	.section	.text._ZNSt23_Sp_counted_ptr_inplaceIN7asiopal13SocketChannelESaIS1_ELN9__gnu_cxx12_Lock_policyE2EE10_M_disposeEv,"axG",@progbits,_ZNSt23_Sp_counted_ptr_inplaceIN7asiopal13SocketChannelESaIS1_ELN9__gnu_cxx12_Lock_policyE2EE10_M_disposeEv,comdat
	.size	_ZNSt23_Sp_counted_ptr_inplaceIN7asiopal13SocketChannelESaIS1_ELN9__gnu_cxx12_Lock_policyE2EE10_M_disposeEv, .-_ZNSt23_Sp_counted_ptr_inplaceIN7asiopal13SocketChannelESaIS1_ELN9__gnu_cxx12_Lock_policyE2EE10_M_disposeEv
	.section	.text._ZN4asio6detail13epoll_reactor21deregister_descriptorEiRPNS1_16descriptor_stateEb,"axG",@progbits,_ZN4asio6detail13epoll_reactor21deregister_descriptorEiRPNS1_16descriptor_stateEb,comdat
	.align 2
	.p2align 4
	.weak	_ZN4asio6detail13epoll_reactor21deregister_descriptorEiRPNS1_16descriptor_stateEb
	.type	_ZN4asio6detail13epoll_reactor21deregister_descriptorEiRPNS1_16descriptor_stateEb, @function
_ZN4asio6detail13epoll_reactor21deregister_descriptorEiRPNS1_16descriptor_stateEb:
.LFB3380:
	.cfi_startproc
	endbr64
	pushq	%r15
	.cfi_def_cfa_offset 16
	.cfi_offset 15, -16
	pushq	%r14
	.cfi_def_cfa_offset 24
	.cfi_offset 14, -24
	pushq	%r13
	.cfi_def_cfa_offset 32
	.cfi_offset 13, -32
	pushq	%r12
	.cfi_def_cfa_offset 40
	.cfi_offset 12, -40
	pushq	%rbp
	.cfi_def_cfa_offset 48
	.cfi_offset 6, -48
	pushq	%rbx
	.cfi_def_cfa_offset 56
	.cfi_offset 3, -56
	subq	$72, %rsp
	.cfi_def_cfa_offset 128
	movq	(%rdx), %r12
	movq	%rdi, 16(%rsp)
	movq	%fs:40, %rax
	movq	%rax, 56(%rsp)
	xorl	%eax, %eax
	testq	%r12, %r12
	je	.L395
	leaq	40(%r12), %rax
	movq	%rdx, %r15
	movl	%esi, %r13d
	movl	%ecx, %ebx
	movq	%rax, %rdi
	movq	%rax, 24(%rsp)
	call	pthread_mutex_lock@PLT
	movq	(%r15), %rdi
	cmpb	$0, 144(%rdi)
	jne	.L397
	testb	%bl, %bl
	je	.L456
.L398:
	movq	$0, 8(%rsp)
	xorl	%r12d, %r12d
	movl	$0, 4(%rsp)
.L399:
	movslq	4(%rsp), %r13
	movq	%r13, %rax
	salq	$4, %rax
	movq	96(%rax,%rdi), %rbx
	testq	%rbx, %rbx
	je	.L429
	movq	_ZGVZN4asio15system_categoryEvE8instance@GOTPCREL(%rip), %r14
	movq	_ZZN4asio15system_categoryEvE8instance@GOTPCREL(%rip), %rbp
	movzbl	(%r14), %eax
	testb	%al, %al
	je	.L457
	.p2align 4,,10
	.p2align 3
.L401:
	movq	(%r15), %rdi
	movq	%r13, %rax
	movl	$125, 24(%rbx)
	salq	$4, %rax
	movq	%rbp, 32(%rbx)
	addq	%rdi, %rax
	movq	96(%rax), %rdx
	testq	%rdx, %rdx
	je	.L403
	movq	(%rdx), %r11
	movq	%r11, 96(%rax)
	testq	%r11, %r11
	je	.L458
	movq	$0, (%rdx)
	movq	$0, (%rbx)
	testq	%r12, %r12
	je	.L459
.L426:
	movq	%rbx, (%r12)
	testq	%r11, %r11
	je	.L405
.L406:
	movzbl	(%r14), %eax
	movq	%rbx, %r12
	movq	%r11, %rbx
	testb	%al, %al
	jne	.L401
.L457:
	movq	%r14, %rdi
	call	__cxa_guard_acquire@PLT
	testl	%eax, %eax
	je	.L401
	movq	_ZN4asio6detail15system_categoryD1Ev@GOTPCREL(%rip), %rdi
	leaq	__dso_handle(%rip), %rdx
	movq	%rbp, %rsi
	call	__cxa_atexit@PLT
	movq	%r14, %rdi
	call	__cxa_guard_release@PLT
	jmp	.L401
	.p2align 4,,10
	.p2align 3
.L407:
	movl	$-1, 88(%rdi)
	movb	$1, 144(%rdi)
	movq	24(%rsp), %rdi
	call	pthread_mutex_unlock@PLT
	movq	16(%rsp), %r14
	movq	(%r15), %r12
	leaq	120(%r14), %r13
	movq	%r13, %rdi
	call	pthread_mutex_lock@PLT
	cmpq	160(%r14), %r12
	je	.L460
.L409:
	movq	32(%r12), %rax
	testq	%rax, %rax
	je	.L410
	movq	24(%r12), %rdx
	movq	%rdx, 24(%rax)
.L410:
	movq	24(%r12), %rax
	testq	%rax, %rax
	je	.L411
	movq	32(%r12), %rdx
	movq	%rdx, 32(%rax)
.L411:
	movq	16(%rsp), %r14
	movq	%r13, %rdi
	movq	168(%r14), %rax
	movq	$0, 32(%r12)
	movq	%rax, 24(%r12)
	movq	%r12, 168(%r14)
	call	pthread_mutex_unlock@PLT
	cmpq	$0, 8(%rsp)
	movq	$0, (%r15)
	je	.L395
	movq	40(%r14), %rbp
	cmpb	$0, 40(%rbp)
	je	.L413
	data16	leaq	_ZN4asio6detail15keyword_tss_ptrINS0_10call_stackINS0_15task_io_serviceENS0_27task_io_service_thread_infoEE7contextEE6value_E@tlsgd(%rip), %rdi
	.value	0x6666
	rex64
	call	__tls_get_addr@PLT
	movq	(%rax), %rax
	testq	%rax, %rax
	jne	.L416
	jmp	.L413
	.p2align 4,,10
	.p2align 3
.L414:
	movq	16(%rax), %rax
	testq	%rax, %rax
	je	.L413
.L416:
	cmpq	(%rax), %rbp
	jne	.L414
	movq	8(%rax), %rax
	testq	%rax, %rax
	je	.L413
	movq	16(%rax), %rdx
	movq	8(%rsp), %rcx
	testq	%rdx, %rdx
	je	.L417
	movq	%rcx, (%rdx)
.L418:
	movq	%rbx, 16(%rax)
	.p2align 4,,10
	.p2align 3
.L395:
	movq	56(%rsp), %rax
	subq	%fs:40, %rax
	jne	.L455
	addq	$72, %rsp
	.cfi_remember_state
	.cfi_def_cfa_offset 56
	popq	%rbx
	.cfi_def_cfa_offset 48
	popq	%rbp
	.cfi_def_cfa_offset 40
	popq	%r12
	.cfi_def_cfa_offset 32
	popq	%r13
	.cfi_def_cfa_offset 24
	popq	%r14
	.cfi_def_cfa_offset 16
	popq	%r15
	.cfi_def_cfa_offset 8
	ret
	.p2align 4,,10
	.p2align 3
.L397:
	.cfi_restore_state
	movq	56(%rsp), %rax
	subq	%fs:40, %rax
	jne	.L455
	movq	24(%rsp), %rdi
.L454:
	addq	$72, %rsp
	.cfi_remember_state
	.cfi_def_cfa_offset 56
	popq	%rbx
	.cfi_def_cfa_offset 48
	popq	%rbp
	.cfi_def_cfa_offset 40
	popq	%r12
	.cfi_def_cfa_offset 32
	popq	%r13
	.cfi_def_cfa_offset 24
	popq	%r14
	.cfi_def_cfa_offset 16
	popq	%r15
	.cfi_def_cfa_offset 8
	jmp	pthread_mutex_unlock@PLT
	.p2align 4,,10
	.p2align 3
.L403:
	.cfi_restore_state
	movq	$0, (%rbx)
	testq	%r12, %r12
	je	.L430
	movq	%rbx, (%r12)
.L405:
	addl	$1, 4(%rsp)
	movl	4(%rsp), %eax
	cmpl	$3, %eax
	je	.L407
	movq	%rbx, %r12
	jmp	.L399
	.p2align 4,,10
	.p2align 3
.L458:
	movq	$0, 104(%rax)
	movq	$0, (%rdx)
	movq	$0, (%rbx)
	testq	%r12, %r12
	jne	.L426
	.p2align 4,,10
	.p2align 3
.L430:
	movq	%rbx, 8(%rsp)
	jmp	.L405
	.p2align 4,,10
	.p2align 3
.L459:
	movq	%rbx, 8(%rsp)
	jmp	.L406
	.p2align 4,,10
	.p2align 3
.L413:
	leaq	48(%rbp), %r12
	movq	%r12, %rdi
	call	pthread_mutex_lock@PLT
	movq	200(%rbp), %rax
	testq	%rax, %rax
	je	.L419
	movq	8(%rsp), %rcx
	movq	%rcx, (%rax)
.L420:
	movq	136(%rbp), %rax
	movq	%rbx, 200(%rbp)
	orq	$1, %rax
	movq	%rax, 136(%rbp)
	cmpq	$1, %rax
	je	.L421
	movq	%r12, %rdi
	call	pthread_mutex_unlock@PLT
	movq	56(%rsp), %rax
	subq	%fs:40, %rax
	jne	.L455
	addq	$72, %rsp
	.cfi_remember_state
	.cfi_def_cfa_offset 56
	leaq	88(%rbp), %rdi
	popq	%rbx
	.cfi_def_cfa_offset 48
	popq	%rbp
	.cfi_def_cfa_offset 40
	popq	%r12
	.cfi_def_cfa_offset 32
	popq	%r13
	.cfi_def_cfa_offset 24
	popq	%r14
	.cfi_def_cfa_offset 16
	popq	%r15
	.cfi_def_cfa_offset 8
	jmp	pthread_cond_signal@PLT
.L421:
	.cfi_restore_state
	cmpb	$0, 176(%rbp)
	jne	.L423
	movq	144(%rbp), %rax
	testq	%rax, %rax
	je	.L423
	movb	$1, 176(%rbp)
	leaq	88(%rax), %rdx
	leaq	44(%rsp), %rcx
	movl	$3, %esi
	movq	%rdx, 48(%rsp)
	movl	88(%rax), %edx
	movl	$-2147483639, 44(%rsp)
	movl	96(%rax), %edi
	call	epoll_ctl@PLT
.L423:
	movq	56(%rsp), %rax
	subq	%fs:40, %rax
	jne	.L455
	movq	%r12, %rdi
	jmp	.L454
	.p2align 4,,10
	.p2align 3
.L429:
	movq	%r12, %rbx
	jmp	.L405
	.p2align 4,,10
	.p2align 3
.L456:
	movq	16(%rsp), %rax
	leaq	44(%rsp), %rcx
	movl	%r13d, %edx
	movl	$2, %esi
	movl	$0, 44(%rsp)
	movq	$0, 48(%rsp)
	movl	96(%rax), %edi
	call	epoll_ctl@PLT
	movq	(%r15), %rdi
	jmp	.L398
	.p2align 4,,10
	.p2align 3
.L460:
	movq	24(%r12), %rax
	movq	16(%rsp), %rcx
	movq	%rax, 160(%rcx)
	jmp	.L409
.L419:
	movq	8(%rsp), %rax
	movq	%rax, 192(%rbp)
	jmp	.L420
.L417:
	movq	%rcx, 8(%rax)
	jmp	.L418
.L455:
	call	__stack_chk_fail@PLT
	.cfi_endproc
.LFE3380:
	.size	_ZN4asio6detail13epoll_reactor21deregister_descriptorEiRPNS1_16descriptor_stateEb, .-_ZN4asio6detail13epoll_reactor21deregister_descriptorEiRPNS1_16descriptor_stateEb
	.section	.text._ZN4asio6detail28reactive_socket_service_base7destroyERNS1_24base_implementation_typeE,"axG",@progbits,_ZN4asio6detail28reactive_socket_service_base7destroyERNS1_24base_implementation_typeE,comdat
	.align 2
	.p2align 4
	.weak	_ZN4asio6detail28reactive_socket_service_base7destroyERNS1_24base_implementation_typeE
	.type	_ZN4asio6detail28reactive_socket_service_base7destroyERNS1_24base_implementation_typeE, @function
_ZN4asio6detail28reactive_socket_service_base7destroyERNS1_24base_implementation_typeE:
.LFB3935:
	.cfi_startproc
	endbr64
	pushq	%r15
	.cfi_def_cfa_offset 16
	.cfi_offset 15, -16
	pushq	%r14
	.cfi_def_cfa_offset 24
	.cfi_offset 14, -24
	pushq	%r13
	.cfi_def_cfa_offset 32
	.cfi_offset 13, -32
	pushq	%r12
	.cfi_def_cfa_offset 40
	.cfi_offset 12, -40
	pushq	%rbp
	.cfi_def_cfa_offset 48
	.cfi_offset 6, -48
	pushq	%rbx
	.cfi_def_cfa_offset 56
	.cfi_offset 3, -56
	subq	$72, %rsp
	.cfi_def_cfa_offset 128
	movl	(%rsi), %r12d
	movq	%fs:40, %rax
	movq	%rax, 56(%rsp)
	xorl	%eax, %eax
	cmpl	$-1, %r12d
	jne	.L567
.L461:
	movq	56(%rsp), %rax
	subq	%fs:40, %rax
	jne	.L566
	addq	$72, %rsp
	.cfi_remember_state
	.cfi_def_cfa_offset 56
	popq	%rbx
	.cfi_def_cfa_offset 48
	popq	%rbp
	.cfi_def_cfa_offset 40
	popq	%r12
	.cfi_def_cfa_offset 32
	popq	%r13
	.cfi_def_cfa_offset 24
	popq	%r14
	.cfi_def_cfa_offset 16
	popq	%r15
	.cfi_def_cfa_offset 8
	ret
	.p2align 4,,10
	.p2align 3
.L567:
	.cfi_restore_state
	movq	8(%rsi), %rbp
	movq	%rsi, %r15
	testq	%rbp, %rbp
	je	.L492
	movq	(%rdi), %rax
	movzbl	4(%rsi), %ebx
	movq	%rax, 16(%rsp)
	leaq	40(%rbp), %rax
	movq	%rax, %rdi
	movq	%rax, 24(%rsp)
	call	pthread_mutex_lock@PLT
	movq	8(%r15), %rdi
	cmpb	$0, 144(%rdi)
	jne	.L464
	andl	$64, %ebx
	jne	.L568
.L465:
	movq	$0, 8(%rsp)
	xorl	%ebp, %ebp
	movl	$0, 4(%rsp)
.L466:
	movslq	4(%rsp), %r12
	movq	%r12, %rax
	salq	$4, %rax
	movq	96(%rax,%rdi), %rbx
	testq	%rbx, %rbx
	je	.L513
	movq	_ZGVZN4asio15system_categoryEvE8instance@GOTPCREL(%rip), %r14
	movq	_ZZN4asio15system_categoryEvE8instance@GOTPCREL(%rip), %r13
	movzbl	(%r14), %eax
	testb	%al, %al
	je	.L569
	.p2align 4,,10
	.p2align 3
.L468:
	movq	8(%r15), %rdi
	movq	%r12, %rax
	movl	$125, 24(%rbx)
	salq	$4, %rax
	movq	%r13, 32(%rbx)
	addq	%rdi, %rax
	movq	96(%rax), %rdx
	testq	%rdx, %rdx
	je	.L470
	movq	(%rdx), %r11
	movq	%r11, 96(%rax)
	testq	%r11, %r11
	je	.L570
	movq	$0, (%rdx)
	movq	$0, (%rbx)
	testq	%rbp, %rbp
	je	.L571
.L510:
	movq	%rbx, 0(%rbp)
	testq	%r11, %r11
	je	.L472
.L473:
	movzbl	(%r14), %eax
	movq	%rbx, %rbp
	movq	%r11, %rbx
	testb	%al, %al
	jne	.L468
.L569:
	movq	%r14, %rdi
	call	__cxa_guard_acquire@PLT
	testl	%eax, %eax
	je	.L468
	movq	_ZN4asio6detail15system_categoryD1Ev@GOTPCREL(%rip), %rdi
	leaq	__dso_handle(%rip), %rdx
	movq	%r13, %rsi
	call	__cxa_atexit@PLT
	movq	%r14, %rdi
	call	__cxa_guard_release@PLT
	jmp	.L468
	.p2align 4,,10
	.p2align 3
.L464:
	movq	24(%rsp), %rdi
	call	pthread_mutex_unlock@PLT
.L565:
	movl	(%r15), %r12d
	cmpl	$-1, %r12d
	je	.L461
.L492:
	call	__errno_location@PLT
	movzbl	4(%r15), %ebp
	movq	%rax, %rbx
	testb	$8, %bpl
	jne	.L563
	movq	_ZGVZN4asio15system_categoryEvE8instance@GOTPCREL(%rip), %r14
.L494:
	movl	$0, (%rbx)
	movl	%r12d, %edi
	call	close@PLT
	movl	%eax, %ebp
	movzbl	(%r14), %eax
	testb	%al, %al
	je	.L572
.L499:
	movl	(%rbx), %r13d
	testl	%ebp, %ebp
	je	.L461
	movzbl	(%r14), %eax
	testb	%al, %al
	je	.L573
.L503:
	cmpl	$11, %r13d
	je	.L505
	movzbl	(%r14), %eax
	testb	%al, %al
	jne	.L461
	movq	%r14, %rdi
	call	__cxa_guard_acquire@PLT
	testl	%eax, %eax
	je	.L461
	movq	_ZZN4asio15system_categoryEvE8instance@GOTPCREL(%rip), %rsi
	movq	_ZN4asio6detail15system_categoryD1Ev@GOTPCREL(%rip), %rdi
	leaq	__dso_handle(%rip), %rdx
	call	__cxa_atexit@PLT
	movq	56(%rsp), %rax
	subq	%fs:40, %rax
	jne	.L566
	addq	$72, %rsp
	.cfi_remember_state
	.cfi_def_cfa_offset 56
	movq	%r14, %rdi
	popq	%rbx
	.cfi_def_cfa_offset 48
	popq	%rbp
	.cfi_def_cfa_offset 40
	popq	%r12
	.cfi_def_cfa_offset 32
	popq	%r13
	.cfi_def_cfa_offset 24
	popq	%r14
	.cfi_def_cfa_offset 16
	popq	%r15
	.cfi_def_cfa_offset 8
	jmp	__cxa_guard_release@PLT
	.p2align 4,,10
	.p2align 3
.L470:
	.cfi_restore_state
	movq	$0, (%rbx)
	testq	%rbp, %rbp
	je	.L514
	movq	%rbx, 0(%rbp)
.L472:
	addl	$1, 4(%rsp)
	movl	4(%rsp), %eax
	cmpl	$3, %eax
	je	.L474
.L574:
	movq	%rbx, %rbp
	jmp	.L466
	.p2align 4,,10
	.p2align 3
.L570:
	movq	$0, 104(%rax)
	movq	$0, (%rdx)
	movq	$0, (%rbx)
	testq	%rbp, %rbp
	jne	.L510
	.p2align 4,,10
	.p2align 3
.L514:
	addl	$1, 4(%rsp)
	movl	4(%rsp), %eax
	movq	%rbx, 8(%rsp)
	cmpl	$3, %eax
	jne	.L574
.L474:
	movl	$-1, 88(%rdi)
	movb	$1, 144(%rdi)
	movq	24(%rsp), %rdi
	call	pthread_mutex_unlock@PLT
	movq	16(%rsp), %r14
	movq	8(%r15), %rbp
	leaq	120(%r14), %r12
	movq	%r12, %rdi
	call	pthread_mutex_lock@PLT
	cmpq	160(%r14), %rbp
	je	.L575
.L476:
	movq	32(%rbp), %rax
	testq	%rax, %rax
	je	.L477
	movq	24(%rbp), %rdx
	movq	%rdx, 24(%rax)
.L477:
	movq	24(%rbp), %rax
	testq	%rax, %rax
	je	.L478
	movq	32(%rbp), %rdx
	movq	%rdx, 32(%rax)
.L478:
	movq	16(%rsp), %r14
	movq	%r12, %rdi
	movq	168(%r14), %rax
	movq	$0, 32(%rbp)
	movq	%rax, 24(%rbp)
	movq	%rbp, 168(%r14)
	call	pthread_mutex_unlock@PLT
	cmpq	$0, 8(%rsp)
	movq	$0, 8(%r15)
	je	.L565
	movq	40(%r14), %rbp
	cmpb	$0, 40(%rbp)
	je	.L480
	data16	leaq	_ZN4asio6detail15keyword_tss_ptrINS0_10call_stackINS0_15task_io_serviceENS0_27task_io_service_thread_infoEE7contextEE6value_E@tlsgd(%rip), %rdi
	.value	0x6666
	rex64
	call	__tls_get_addr@PLT
	movq	(%rax), %rax
	testq	%rax, %rax
	jne	.L483
	jmp	.L480
	.p2align 4,,10
	.p2align 3
.L481:
	movq	16(%rax), %rax
	testq	%rax, %rax
	je	.L480
.L483:
	cmpq	(%rax), %rbp
	jne	.L481
	movq	8(%rax), %rax
	testq	%rax, %rax
	je	.L480
	movq	16(%rax), %rdx
	movq	8(%rsp), %rcx
	testq	%rdx, %rdx
	je	.L484
	movq	%rcx, (%rdx)
.L485:
	movq	%rbx, 16(%rax)
	jmp	.L565
	.p2align 4,,10
	.p2align 3
.L571:
	movq	%rbx, 8(%rsp)
	jmp	.L473
	.p2align 4,,10
	.p2align 3
.L572:
	movq	%r14, %rdi
	call	__cxa_guard_acquire@PLT
	testl	%eax, %eax
	je	.L499
	movq	_ZZN4asio15system_categoryEvE8instance@GOTPCREL(%rip), %rsi
	movq	_ZN4asio6detail15system_categoryD1Ev@GOTPCREL(%rip), %rdi
	leaq	__dso_handle(%rip), %rdx
	call	__cxa_atexit@PLT
	movq	%r14, %rdi
	call	__cxa_guard_release@PLT
	jmp	.L499
	.p2align 4,,10
	.p2align 3
.L563:
	orl	$8, %ebp
	leaq	40(%rsp), %rcx
	movl	$13, %edx
	movl	%r12d, %edi
	movb	%bpl, 4(%r15)
	movl	$8, %r8d
	movl	$1, %esi
	movl	$0, (%rax)
	movq	$0, 40(%rsp)
	call	setsockopt@PLT
	movq	_ZGVZN4asio15system_categoryEvE8instance@GOTPCREL(%rip), %r14
	movzbl	(%r14), %eax
	testb	%al, %al
	jne	.L494
	movq	%r14, %rdi
	call	__cxa_guard_acquire@PLT
	testl	%eax, %eax
	je	.L494
	movq	_ZZN4asio15system_categoryEvE8instance@GOTPCREL(%rip), %rsi
	movq	_ZN4asio6detail15system_categoryD1Ev@GOTPCREL(%rip), %rdi
	leaq	__dso_handle(%rip), %rdx
	call	__cxa_atexit@PLT
	movq	%r14, %rdi
	call	__cxa_guard_release@PLT
	jmp	.L494
	.p2align 4,,10
	.p2align 3
.L480:
	leaq	48(%rbp), %r12
	movq	%r12, %rdi
	call	pthread_mutex_lock@PLT
	movq	200(%rbp), %rax
	testq	%rax, %rax
	je	.L487
	movq	8(%rsp), %rcx
	movq	%rcx, (%rax)
.L488:
	movq	136(%rbp), %rax
	movq	%rbx, 200(%rbp)
	orq	$1, %rax
	movq	%rax, 136(%rbp)
	cmpq	$1, %rax
	je	.L489
	movq	%r12, %rdi
	call	pthread_mutex_unlock@PLT
	leaq	88(%rbp), %rdi
	call	pthread_cond_signal@PLT
	jmp	.L565
.L489:
	cmpb	$0, 176(%rbp)
	jne	.L491
	movq	144(%rbp), %rax
	testq	%rax, %rax
	je	.L491
	movb	$1, 176(%rbp)
	leaq	88(%rax), %rdx
	leaq	40(%rsp), %rcx
	movl	$3, %esi
	movq	%rdx, 44(%rsp)
	movl	88(%rax), %edx
	movl	$-2147483639, 40(%rsp)
	movl	96(%rax), %edi
	call	epoll_ctl@PLT
.L491:
	movq	%r12, %rdi
	call	pthread_mutex_unlock@PLT
	jmp	.L565
	.p2align 4,,10
	.p2align 3
.L513:
	movq	%rbp, %rbx
	jmp	.L472
	.p2align 4,,10
	.p2align 3
.L568:
	movq	16(%rsp), %rax
	movl	$0, 40(%rsp)
	leaq	40(%rsp), %rcx
	movl	%r12d, %edx
	movq	$0, 44(%rsp)
	movl	$2, %esi
	movl	96(%rax), %edi
	call	epoll_ctl@PLT
	movq	8(%r15), %rdi
	jmp	.L465
	.p2align 4,,10
	.p2align 3
.L575:
	movq	24(%rbp), %rax
	movq	16(%rsp), %rcx
	movq	%rax, 160(%rcx)
	jmp	.L476
.L573:
	movq	%r14, %rdi
	call	__cxa_guard_acquire@PLT
	testl	%eax, %eax
	je	.L503
	movq	_ZZN4asio15system_categoryEvE8instance@GOTPCREL(%rip), %rsi
	movq	_ZN4asio6detail15system_categoryD1Ev@GOTPCREL(%rip), %rdi
	leaq	__dso_handle(%rip), %rdx
	call	__cxa_atexit@PLT
	movq	%r14, %rdi
	call	__cxa_guard_release@PLT
	jmp	.L503
.L505:
	leaq	40(%rsp), %rdx
	movl	$21537, %esi
	movl	%r12d, %edi
	xorl	%eax, %eax
	movl	$0, 40(%rsp)
	call	ioctl@PLT
	andb	$-4, 4(%r15)
	movl	%r12d, %edi
	movl	$0, (%rbx)
	call	close@PLT
	movzbl	(%r14), %eax
	testb	%al, %al
	jne	.L461
	movq	%r14, %rdi
	call	__cxa_guard_acquire@PLT
	testl	%eax, %eax
	je	.L461
	movq	_ZZN4asio15system_categoryEvE8instance@GOTPCREL(%rip), %rsi
	movq	_ZN4asio6detail15system_categoryD1Ev@GOTPCREL(%rip), %rdi
	leaq	__dso_handle(%rip), %rdx
	call	__cxa_atexit@PLT
	movq	%r14, %rdi
	call	__cxa_guard_release@PLT
	jmp	.L461
.L487:
	movq	8(%rsp), %rax
	movq	%rax, 192(%rbp)
	jmp	.L488
.L484:
	movq	%rcx, 8(%rax)
	jmp	.L485
.L566:
	call	__stack_chk_fail@PLT
	.cfi_endproc
.LFE3935:
	.size	_ZN4asio6detail28reactive_socket_service_base7destroyERNS1_24base_implementation_typeE, .-_ZN4asio6detail28reactive_socket_service_base7destroyERNS1_24base_implementation_typeE
	.text
	.align 2
	.p2align 4
	.globl	_ZN8asiodnp315MasterTCPServerC2ERKN7openpal6LoggerERKSt10shared_ptrIN7asiopal8ExecutorEERKNS6_10IPEndpointERKS5_INS_16IListenCallbacksEERKS5_INS6_15ResourceManagerEERSt10error_code
	.type	_ZN8asiodnp315MasterTCPServerC2ERKN7openpal6LoggerERKSt10shared_ptrIN7asiopal8ExecutorEERKNS6_10IPEndpointERKS5_INS_16IListenCallbacksEERKS5_INS6_15ResourceManagerEERSt10error_code, @function
_ZN8asiodnp315MasterTCPServerC2ERKN7openpal6LoggerERKSt10shared_ptrIN7asiopal8ExecutorEERKNS6_10IPEndpointERKS5_INS_16IListenCallbacksEERKS5_INS6_15ResourceManagerEERSt10error_code:
.LFB8259:
	.cfi_startproc
	endbr64
	pushq	%r12
	.cfi_def_cfa_offset 16
	.cfi_offset 12, -16
	movq	%r8, %r12
	pushq	%rbp
	.cfi_def_cfa_offset 24
	.cfi_offset 6, -24
	movq	%r9, %rbp
	pushq	%rbx
	.cfi_def_cfa_offset 32
	.cfi_offset 3, -32
	movq	32(%rsp), %r8
	movq	%rdi, %rbx
	call	_ZN7asiopal9TCPServerC2ERKN7openpal6LoggerERKSt10shared_ptrINS_8ExecutorEERKNS_10IPEndpointERSt10error_code@PLT
	movq	_ZTVN8asiodnp315MasterTCPServerE@GOTPCREL(%rip), %rax
	addq	$16, %rax
	movq	%rax, (%rbx)
	movdqu	(%r12), %xmm0
	movups	%xmm0, 208(%rbx)
	movq	216(%rbx), %rax
	testq	%rax, %rax
	je	.L577
	movq	__libc_single_threaded@GOTPCREL(%rip), %rdx
	cmpb	$0, (%rdx)
	je	.L578
	addl	$1, 8(%rax)
.L577:
	movdqu	0(%rbp), %xmm1
	movups	%xmm1, 224(%rbx)
	movq	232(%rbx), %rax
	testq	%rax, %rax
	je	.L576
	movq	__libc_single_threaded@GOTPCREL(%rip), %rdx
	cmpb	$0, (%rdx)
	je	.L580
	addl	$1, 8(%rax)
.L576:
	popq	%rbx
	.cfi_remember_state
	.cfi_def_cfa_offset 24
	popq	%rbp
	.cfi_def_cfa_offset 16
	popq	%r12
	.cfi_def_cfa_offset 8
	ret
	.p2align 4,,10
	.p2align 3
.L578:
	.cfi_restore_state
	lock addl	$1, 8(%rax)
	jmp	.L577
	.p2align 4,,10
	.p2align 3
.L580:
	lock addl	$1, 8(%rax)
	popq	%rbx
	.cfi_def_cfa_offset 24
	popq	%rbp
	.cfi_def_cfa_offset 16
	popq	%r12
	.cfi_def_cfa_offset 8
	ret
	.cfi_endproc
.LFE8259:
	.size	_ZN8asiodnp315MasterTCPServerC2ERKN7openpal6LoggerERKSt10shared_ptrIN7asiopal8ExecutorEERKNS6_10IPEndpointERKS5_INS_16IListenCallbacksEERKS5_INS6_15ResourceManagerEERSt10error_code, .-_ZN8asiodnp315MasterTCPServerC2ERKN7openpal6LoggerERKSt10shared_ptrIN7asiopal8ExecutorEERKNS6_10IPEndpointERKS5_INS_16IListenCallbacksEERKS5_INS6_15ResourceManagerEERSt10error_code
	.globl	_ZN8asiodnp315MasterTCPServerC1ERKN7openpal6LoggerERKSt10shared_ptrIN7asiopal8ExecutorEERKNS6_10IPEndpointERKS5_INS_16IListenCallbacksEERKS5_INS6_15ResourceManagerEERSt10error_code
	.set	_ZN8asiodnp315MasterTCPServerC1ERKN7openpal6LoggerERKSt10shared_ptrIN7asiopal8ExecutorEERKNS6_10IPEndpointERKS5_INS_16IListenCallbacksEERKS5_INS6_15ResourceManagerEERSt10error_code,_ZN8asiodnp315MasterTCPServerC2ERKN7openpal6LoggerERKSt10shared_ptrIN7asiopal8ExecutorEERKNS6_10IPEndpointERKS5_INS_16IListenCallbacksEERKS5_INS6_15ResourceManagerEERSt10error_code
	.section	.text.unlikely._ZN4asio6detail15throw_exceptionISt12system_errorEEvRKT_,"axG",@progbits,_ZN4asio6detail15throw_exceptionISt12system_errorEEvRKT_,comdat
	.weak	_ZN4asio6detail15throw_exceptionISt12system_errorEEvRKT_
	.type	_ZN4asio6detail15throw_exceptionISt12system_errorEEvRKT_, @function
_ZN4asio6detail15throw_exceptionISt12system_errorEEvRKT_:
.LFB8562:
	.cfi_startproc
	endbr64
	pushq	%rbp
	.cfi_def_cfa_offset 16
	.cfi_offset 6, -16
	pushq	%rbx
	.cfi_def_cfa_offset 24
	.cfi_offset 3, -24
	movq	%rdi, %rbx
	movl	$32, %edi
	pushq	%rax
	.cfi_def_cfa_offset 32
	call	__cxa_allocate_exception@PLT
	movq	%rbx, %rsi
	movq	%rax, %rdi
	movq	%rax, %rbp
	call	_ZNSt13runtime_errorC2ERKS_@PLT
	movq	_ZTVSt12system_error@GOTPCREL(%rip), %rax
	movups	16(%rbx), %xmm0
	movq	%rbp, %rdi
	movq	_ZNSt12system_errorD1Ev@GOTPCREL(%rip), %rdx
	movq	_ZTISt12system_error@GOTPCREL(%rip), %rsi
	addq	$16, %rax
	movups	%xmm0, 16(%rbp)
	movq	%rax, 0(%rbp)
	call	__cxa_throw@PLT
	.cfi_endproc
.LFE8562:
	.size	_ZN4asio6detail15throw_exceptionISt12system_errorEEvRKT_, .-_ZN4asio6detail15throw_exceptionISt12system_errorEEvRKT_
	.section	.text._ZN4asio6detail14do_throw_errorERKSt10error_code,"axG",@progbits,_ZN4asio6detail14do_throw_errorERKSt10error_code,comdat
	.p2align 4
	.weak	_ZN4asio6detail14do_throw_errorERKSt10error_code
	.type	_ZN4asio6detail14do_throw_errorERKSt10error_code, @function
_ZN4asio6detail14do_throw_errorERKSt10error_code:
.LFB2491:
	.cfi_startproc
	.cfi_personality 0x9b,DW.ref.__gxx_personality_v0
	.cfi_lsda 0x1b,.LLSDA2491
	endbr64
	pushq	%r13
	.cfi_def_cfa_offset 16
	.cfi_offset 13, -16
	pushq	%r12
	.cfi_def_cfa_offset 24
	.cfi_offset 12, -24
	pushq	%rbp
	.cfi_def_cfa_offset 32
	.cfi_offset 6, -32
	pushq	%rbx
	.cfi_def_cfa_offset 40
	.cfi_offset 3, -40
	subq	$88, %rsp
	.cfi_def_cfa_offset 128
	movq	8(%rdi), %rbx
	movl	(%rdi), %r12d
	movq	%fs:40, %rax
	movq	%rax, 72(%rsp)
	xorl	%eax, %eax
	leaq	32(%rsp), %rbp
	movq	%rsp, %r13
	movq	(%rbx), %rax
	movq	%rbx, %rsi
	movq	%rbp, %rdi
	movl	%r12d, %edx
.LEHB5:
	call	*32(%rax)
.LEHE5:
	movq	%rbp, %rsi
	movq	%r13, %rdi
.LEHB6:
	call	_ZNSt13runtime_errorC2ERKNSt7__cxx1112basic_stringIcSt11char_traitsIcESaIcEEE@PLT
.LEHE6:
	movq	32(%rsp), %rdi
	leaq	48(%rsp), %rax
	cmpq	%rax, %rdi
	je	.L591
	movq	48(%rsp), %rax
	leaq	1(%rax), %rsi
	call	_ZdlPvm@PLT
.L591:
	movq	_ZTVSt12system_error@GOTPCREL(%rip), %rax
	movq	%r13, %rdi
	movl	%r12d, 16(%rsp)
	movq	%rbx, 24(%rsp)
	addq	$16, %rax
	movq	%rax, (%rsp)
.LEHB7:
	call	_ZN4asio6detail15throw_exceptionISt12system_errorEEvRKT_@PLT
.LEHE7:
.L597:
	endbr64
	movq	%rax, %rbp
	jmp	.L592
.L596:
	endbr64
	movq	%rax, %rbp
	jmp	.L594
.L592:
	movq	32(%rsp), %rdi
	leaq	48(%rsp), %rax
	cmpq	%rax, %rdi
	je	.L599
	movq	48(%rsp), %rax
	leaq	1(%rax), %rsi
	call	_ZdlPvm@PLT
	jmp	.L599
.L594:
	movq	%r13, %rdi
	call	_ZNSt12system_errorD1Ev@PLT
.L599:
	movq	%rbp, %rdi
.LEHB8:
	call	_Unwind_Resume@PLT
.LEHE8:
	.cfi_endproc
.LFE2491:
	.section	.gcc_except_table._ZN4asio6detail14do_throw_errorERKSt10error_code,"aG",@progbits,_ZN4asio6detail14do_throw_errorERKSt10error_code,comdat
.LLSDA2491:
	.byte	0xff
	.byte	0xff
	.byte	0x1
	.uleb128 .LLSDACSE2491-.LLSDACSB2491
.LLSDACSB2491:
	.uleb128 .LEHB5-.LFB2491
	.uleb128 .LEHE5-.LEHB5
	.uleb128 0
	.uleb128 0
	.uleb128 .LEHB6-.LFB2491
	.uleb128 .LEHE6-.LEHB6
	.uleb128 .L597-.LFB2491
	.uleb128 0
	.uleb128 .LEHB7-.LFB2491
	.uleb128 .LEHE7-.LEHB7
	.uleb128 .L596-.LFB2491
	.uleb128 0
	.uleb128 .LEHB8-.LFB2491
	.uleb128 .LEHE8-.LEHB8
	.uleb128 0
	.uleb128 0
.LLSDACSE2491:
	.section	.text._ZN4asio6detail14do_throw_errorERKSt10error_code,"axG",@progbits,_ZN4asio6detail14do_throw_errorERKSt10error_code,comdat
	.size	_ZN4asio6detail14do_throw_errorERKSt10error_code, .-_ZN4asio6detail14do_throw_errorERKSt10error_code
	.section	.text._ZN4asio6detail14do_throw_errorERKSt10error_codePKc,"axG",@progbits,_ZN4asio6detail14do_throw_errorERKSt10error_codePKc,comdat
	.p2align 4
	.weak	_ZN4asio6detail14do_throw_errorERKSt10error_codePKc
	.type	_ZN4asio6detail14do_throw_errorERKSt10error_codePKc, @function
_ZN4asio6detail14do_throw_errorERKSt10error_codePKc:
.LFB2492:
	.cfi_startproc
	.cfi_personality 0x9b,DW.ref.__gxx_personality_v0
	.cfi_lsda 0x1b,.LLSDA2492
	endbr64
	pushq	%r12
	.cfi_def_cfa_offset 16
	.cfi_offset 12, -16
	movq	%rsi, %rcx
	pushq	%rbp
	.cfi_def_cfa_offset 24
	.cfi_offset 6, -24
	subq	$56, %rsp
	.cfi_def_cfa_offset 80
	movl	(%rdi), %esi
	movq	8(%rdi), %rdx
	movq	%fs:40, %rax
	movq	%rax, 40(%rsp)
	xorl	%eax, %eax
	movq	%rsp, %rbp
	movq	%rbp, %rdi
.LEHB9:
	call	_ZNSt12system_errorC1ESt10error_codePKc@PLT
.LEHE9:
	movq	%rbp, %rdi
.LEHB10:
	call	_ZN4asio6detail15throw_exceptionISt12system_errorEEvRKT_@PLT
.LEHE10:
.L603:
	endbr64
	movq	%rax, %r12
.L601:
	movq	%rbp, %rdi
	call	_ZNSt12system_errorD1Ev@PLT
	movq	%r12, %rdi
.LEHB11:
	call	_Unwind_Resume@PLT
.LEHE11:
	.cfi_endproc
.LFE2492:
	.section	.gcc_except_table._ZN4asio6detail14do_throw_errorERKSt10error_codePKc,"aG",@progbits,_ZN4asio6detail14do_throw_errorERKSt10error_codePKc,comdat
.LLSDA2492:
	.byte	0xff
	.byte	0xff
	.byte	0x1
	.uleb128 .LLSDACSE2492-.LLSDACSB2492
.LLSDACSB2492:
	.uleb128 .LEHB9-.LFB2492
	.uleb128 .LEHE9-.LEHB9
	.uleb128 0
	.uleb128 0
	.uleb128 .LEHB10-.LFB2492
	.uleb128 .LEHE10-.LEHB10
	.uleb128 .L603-.LFB2492
	.uleb128 0
	.uleb128 .LEHB11-.LFB2492
	.uleb128 .LEHE11-.LEHB11
	.uleb128 0
	.uleb128 0
.LLSDACSE2492:
	.section	.text._ZN4asio6detail14do_throw_errorERKSt10error_codePKc,"axG",@progbits,_ZN4asio6detail14do_throw_errorERKSt10error_codePKc,comdat
	.size	_ZN4asio6detail14do_throw_errorERKSt10error_codePKc, .-_ZN4asio6detail14do_throw_errorERKSt10error_codePKc
	.section	.text.unlikely._ZN4asio6detail15throw_exceptionISt12out_of_rangeEEvRKT_,"axG",@progbits,_ZN4asio6detail15throw_exceptionISt12out_of_rangeEEvRKT_,comdat
	.weak	_ZN4asio6detail15throw_exceptionISt12out_of_rangeEEvRKT_
	.type	_ZN4asio6detail15throw_exceptionISt12out_of_rangeEEvRKT_, @function
_ZN4asio6detail15throw_exceptionISt12out_of_rangeEEvRKT_:
.LFB8713:
	.cfi_startproc
	endbr64
	pushq	%r12
	.cfi_def_cfa_offset 16
	.cfi_offset 12, -16
	movq	%rdi, %r12
	movl	$16, %edi
	pushq	%rbp
	.cfi_def_cfa_offset 24
	.cfi_offset 6, -24
	pushq	%rax
	.cfi_def_cfa_offset 32
	call	__cxa_allocate_exception@PLT
	movq	%r12, %rsi
	movq	%rax, %rdi
	movq	%rax, %rbp
	call	_ZNSt11logic_errorC2ERKS_@PLT
	movq	_ZTVSt12out_of_range@GOTPCREL(%rip), %rax
	movq	_ZNSt12out_of_rangeD1Ev@GOTPCREL(%rip), %rdx
	movq	%rbp, %rdi
	movq	_ZTISt12out_of_range@GOTPCREL(%rip), %rsi
	addq	$16, %rax
	movq	%rax, 0(%rbp)
	call	__cxa_throw@PLT
	.cfi_endproc
.LFE8713:
	.size	_ZN4asio6detail15throw_exceptionISt12out_of_rangeEEvRKT_, .-_ZN4asio6detail15throw_exceptionISt12out_of_rangeEEvRKT_
	.section	.text._ZNSt7__cxx1115basic_stringbufIcSt11char_traitsIcESaIcEED2Ev,"axG",@progbits,_ZNSt7__cxx1115basic_stringbufIcSt11char_traitsIcESaIcEED5Ev,comdat
	.align 2
	.p2align 4
	.weak	_ZNSt7__cxx1115basic_stringbufIcSt11char_traitsIcESaIcEED2Ev
	.type	_ZNSt7__cxx1115basic_stringbufIcSt11char_traitsIcESaIcEED2Ev, @function
_ZNSt7__cxx1115basic_stringbufIcSt11char_traitsIcESaIcEED2Ev:
.LFB8796:
	.cfi_startproc
	endbr64
	movq	_ZTVNSt7__cxx1115basic_stringbufIcSt11char_traitsIcESaIcEEE@GOTPCREL(%rip), %rax
	pushq	%rbx
	.cfi_def_cfa_offset 16
	.cfi_offset 3, -16
	movq	%rdi, %rbx
	addq	$16, %rax
	movq	%rax, (%rdi)
	movq	72(%rdi), %rdi
	leaq	88(%rbx), %rax
	cmpq	%rax, %rdi
	je	.L608
	movq	88(%rbx), %rax
	leaq	1(%rax), %rsi
	call	_ZdlPvm@PLT
.L608:
	movq	_ZTVSt15basic_streambufIcSt11char_traitsIcEE@GOTPCREL(%rip), %rax
	leaq	56(%rbx), %rdi
	addq	$16, %rax
	movq	%rax, (%rbx)
	popq	%rbx
	.cfi_def_cfa_offset 8
	jmp	_ZNSt6localeD1Ev@PLT
	.cfi_endproc
.LFE8796:
	.size	_ZNSt7__cxx1115basic_stringbufIcSt11char_traitsIcESaIcEED2Ev, .-_ZNSt7__cxx1115basic_stringbufIcSt11char_traitsIcESaIcEED2Ev
	.weak	_ZNSt7__cxx1115basic_stringbufIcSt11char_traitsIcESaIcEED1Ev
	.set	_ZNSt7__cxx1115basic_stringbufIcSt11char_traitsIcESaIcEED1Ev,_ZNSt7__cxx1115basic_stringbufIcSt11char_traitsIcESaIcEED2Ev
	.section	.text._ZNSt7__cxx1115basic_stringbufIcSt11char_traitsIcESaIcEED0Ev,"axG",@progbits,_ZNSt7__cxx1115basic_stringbufIcSt11char_traitsIcESaIcEED5Ev,comdat
	.align 2
	.p2align 4
	.weak	_ZNSt7__cxx1115basic_stringbufIcSt11char_traitsIcESaIcEED0Ev
	.type	_ZNSt7__cxx1115basic_stringbufIcSt11char_traitsIcESaIcEED0Ev, @function
_ZNSt7__cxx1115basic_stringbufIcSt11char_traitsIcESaIcEED0Ev:
.LFB8798:
	.cfi_startproc
	endbr64
	movq	_ZTVNSt7__cxx1115basic_stringbufIcSt11char_traitsIcESaIcEEE@GOTPCREL(%rip), %rax
	pushq	%rbp
	.cfi_def_cfa_offset 16
	.cfi_offset 6, -16
	movq	%rdi, %rbp
	addq	$16, %rax
	movq	%rax, (%rdi)
	movq	72(%rdi), %rdi
	leaq	88(%rbp), %rax
	cmpq	%rax, %rdi
	je	.L611
	movq	88(%rbp), %rax
	leaq	1(%rax), %rsi
	call	_ZdlPvm@PLT
.L611:
	movq	_ZTVSt15basic_streambufIcSt11char_traitsIcEE@GOTPCREL(%rip), %rax
	leaq	56(%rbp), %rdi
	addq	$16, %rax
	movq	%rax, 0(%rbp)
	call	_ZNSt6localeD1Ev@PLT
	movq	%rbp, %rdi
	movl	$104, %esi
	popq	%rbp
	.cfi_def_cfa_offset 8
	jmp	_ZdlPvm@PLT
	.cfi_endproc
.LFE8798:
	.size	_ZNSt7__cxx1115basic_stringbufIcSt11char_traitsIcESaIcEED0Ev, .-_ZNSt7__cxx1115basic_stringbufIcSt11char_traitsIcESaIcEED0Ev
	.section	.rodata._ZNK4asio2ip6detail8endpoint9to_stringB5cxx11ERSt10error_code.str1.1,"aMS",@progbits,1
.LC25:
	.string	"%lu"
	.section	.text._ZNK4asio2ip6detail8endpoint9to_stringB5cxx11ERSt10error_code,"axG",@progbits,_ZNK4asio2ip6detail8endpoint9to_stringB5cxx11ERSt10error_code,comdat
	.align 2
	.p2align 4
	.weak	_ZNK4asio2ip6detail8endpoint9to_stringB5cxx11ERSt10error_code
	.type	_ZNK4asio2ip6detail8endpoint9to_stringB5cxx11ERSt10error_code, @function
_ZNK4asio2ip6detail8endpoint9to_stringB5cxx11ERSt10error_code:
.LFB6019:
	.cfi_startproc
	.cfi_personality 0x9b,DW.ref.__gxx_personality_v0
	.cfi_lsda 0x1b,.LLSDA6019
	endbr64
	pushq	%r15
	.cfi_def_cfa_offset 16
	.cfi_offset 15, -16
	pushq	%r14
	.cfi_def_cfa_offset 24
	.cfi_offset 14, -24
	pushq	%r13
	.cfi_def_cfa_offset 32
	.cfi_offset 13, -32
	movq	%rdx, %r13
	pushq	%r12
	.cfi_def_cfa_offset 40
	.cfi_offset 12, -40
	movq	%rdi, %r12
	pushq	%rbp
	.cfi_def_cfa_offset 48
	.cfi_offset 6, -48
	pushq	%rbx
	.cfi_def_cfa_offset 56
	.cfi_offset 3, -56
	movq	%rsi, %rbx
	subq	$616, %rsp
	.cfi_def_cfa_offset 672
	movq	%fs:40, %rax
	movq	%rax, 600(%rsp)
	movq	_ZTVNSt7__cxx1119basic_ostringstreamIcSt11char_traitsIcESaIcEEE@GOTPCREL(%rip), %rax
	leaq	24(%rax), %rcx
	movq	_ZTVSt15basic_streambufIcSt11char_traitsIcEE@GOTPCREL(%rip), %rax
	movq	%rcx, %xmm1
	movq	%rcx, (%rsp)
	addq	$16, %rax
	movq	%rax, %xmm2
	punpcklqdq	%xmm2, %xmm1
	movaps	%xmm1, 16(%rsp)
	call	__errno_location@PLT
	cmpw	$2, (%rbx)
	movq	%rax, %rbp
	je	.L715
	movl	24(%rbx), %r14d
	movdqu	8(%rbx), %xmm4
	movl	$0, 0(%rbp)
	leaq	528(%rsp), %r15
	movq	.LC24(%rip), %rax
	leaq	120(%rsp), %rsi
	movl	$63, %ecx
	movq	%r15, %rdx
	movl	$10, %edi
	movl	%r14d, 32(%rsp)
	movq	%rax, 112(%rsp)
	movq	%r14, 136(%rsp)
	movups	%xmm4, 120(%rsp)
	call	inet_ntop@PLT
	movq	_ZGVZN4asio15system_categoryEvE8instance@GOTPCREL(%rip), %r8
	movq	%rax, %r9
	movzbl	(%r8), %eax
	testb	%al, %al
	je	.L617
.L705:
	movq	_ZZN4asio15system_categoryEvE8instance@GOTPCREL(%rip), %rcx
.L618:
	movl	0(%rbp), %eax
	movq	%rcx, 8(%r13)
	movl	%eax, 0(%r13)
	testq	%r9, %r9
	je	.L714
	testq	%r14, %r14
	je	.L630
	movzbl	120(%rsp), %eax
	movb	$0, 512(%rsp)
	movq	$37, 496(%rsp)
	movq	$0, 504(%rsp)
	cmpb	$-2, %al
	je	.L716
	cmpb	$-1, %al
	jne	.L706
	movzbl	121(%rsp), %eax
	leaq	497(%rsp), %rbp
	andl	$15, %eax
	cmpb	$2, %al
	je	.L627
.L629:
	movq	%r14, %r8
	leaq	.LC25(%rip), %rcx
	movq	%rbp, %rdi
	xorl	%eax, %eax
	movl	$16, %edx
	movl	$1, %esi
	movq	%r9, 32(%rsp)
	call	__sprintf_chk@PLT
	movq	32(%rsp), %r9
.L628:
	leaq	496(%rsp), %rsi
	movl	$63, %edx
	movq	%r15, %rdi
	movq	%r9, 32(%rsp)
	call	__strcat_chk@PLT
	movq	32(%rsp), %r9
.L630:
	movq	%r9, %rdi
	leaq	96(%rsp), %rbp
	movq	%r9, 32(%rsp)
	leaq	80(%rsp), %r14
	movq	%rbp, 80(%rsp)
	call	strlen@PLT
	movq	32(%rsp), %r9
	cmpq	$15, %rax
	movq	%rax, 72(%rsp)
	movq	%rax, %r15
	ja	.L717
	cmpq	$1, %rax
	jne	.L632
	movzbl	(%r9), %edx
	movb	%dl, 96(%rsp)
	movq	%rbp, %rdx
	jmp	.L643
	.p2align 4,,10
	.p2align 3
.L715:
	movl	4(%rbx), %eax
	movl	$0, 0(%rbp)
	pxor	%xmm0, %xmm0
	leaq	528(%rsp), %rdx
	leaq	116(%rsp), %rsi
	movl	$16, %ecx
	movl	$2, %edi
	movl	$0, 112(%rsp)
	movl	%eax, 116(%rsp)
	movq	$0, 136(%rsp)
	movups	%xmm0, 120(%rsp)
	call	inet_ntop@PLT
	movq	_ZGVZN4asio15system_categoryEvE8instance@GOTPCREL(%rip), %r8
	movq	%rax, %r15
	movzbl	(%r8), %eax
	testb	%al, %al
	je	.L615
.L707:
	movq	_ZZN4asio15system_categoryEvE8instance@GOTPCREL(%rip), %rcx
.L616:
	movl	0(%rbp), %eax
	movq	%rcx, 8(%r13)
	movl	%eax, 0(%r13)
	testq	%r15, %r15
	je	.L714
	leaq	96(%rsp), %rbp
	movq	%r15, %rdi
	leaq	80(%rsp), %r14
	movq	%rbp, 80(%rsp)
	call	strlen@PLT
	movq	%rax, 72(%rsp)
	movq	%rax, %r8
	cmpq	$15, %rax
	ja	.L718
	cmpq	$1, %rax
	jne	.L642
	movzbl	(%r15), %edx
	movb	%dl, 96(%rsp)
	movq	%rbp, %rdx
.L643:
	movq	%rax, 88(%rsp)
	movb	$0, (%rdx,%rax)
	movl	0(%r13), %eax
	testl	%eax, %eax
	jne	.L625
.L644:
	leaq	224(%rsp), %r13
	leaq	112(%rsp), %r14
	movq	%r13, %rdi
	call	_ZNSt8ios_baseC2Ev@PLT
	movq	_ZTVSt9basic_iosIcSt11char_traitsIcEE@GOTPCREL(%rip), %rax
	pxor	%xmm0, %xmm0
	xorl	%esi, %esi
	movups	%xmm0, 456(%rsp)
	addq	$16, %rax
	movups	%xmm0, 472(%rsp)
	movq	%rax, 224(%rsp)
	xorl	%eax, %eax
	movw	%ax, 448(%rsp)
	movq	_ZTTNSt7__cxx1119basic_ostringstreamIcSt11char_traitsIcESaIcEEE@GOTPCREL(%rip), %rax
	movq	$0, 440(%rsp)
	movq	8(%rax), %rdx
	movq	16(%rax), %rax
	movq	-24(%rdx), %rdi
	movq	%rdx, 112(%rsp)
	movq	%rdx, 32(%rsp)
	addq	%r14, %rdi
	movq	%rax, 40(%rsp)
	movq	%rax, (%rdi)
.LEHB12:
	call	_ZNSt9basic_iosIcSt11char_traitsIcEE4initEPSt15basic_streambufIcS1_E@PLT
.LEHE12:
	movq	_ZTVNSt7__cxx1119basic_ostringstreamIcSt11char_traitsIcESaIcEEE@GOTPCREL(%rip), %rax
	movdqa	16(%rsp), %xmm5
	pxor	%xmm0, %xmm0
	leaq	120(%rsp), %r15
	movaps	%xmm0, 128(%rsp)
	addq	$64, %rax
	movaps	%xmm5, 112(%rsp)
	movq	%rax, 224(%rsp)
	leaq	176(%rsp), %rax
	movq	%rax, %rdi
	movq	%rax, 48(%rsp)
	movaps	%xmm0, 144(%rsp)
	movaps	%xmm0, 160(%rsp)
	call	_ZNSt6localeC1Ev@PLT
	movq	_ZTVNSt7__cxx1115basic_stringbufIcSt11char_traitsIcESaIcEEE@GOTPCREL(%rip), %rax
	movq	%r15, %rsi
	movq	%r13, %rdi
	movl	$16, 184(%rsp)
	addq	$16, %rax
	movb	$0, 208(%rsp)
	movq	%rax, 120(%rsp)
	leaq	208(%rsp), %rax
	movq	%rax, 16(%rsp)
	movq	%rax, 192(%rsp)
	movq	$0, 200(%rsp)
.LEHB13:
	call	_ZNSt9basic_iosIcSt11char_traitsIcEE4initEPSt15basic_streambufIcS1_E@PLT
.LEHE13:
.LEHB14:
	call	_ZNSt6locale7classicEv@PLT
	leaq	72(%rsp), %r15
	movq	%rax, %rdx
	movq	%r13, %rsi
	movq	%r15, %rdi
	call	_ZNSt9basic_iosIcSt11char_traitsIcEE5imbueERKSt6locale@PLT
	movq	%r15, %rdi
	call	_ZNSt6localeD1Ev@PLT
	cmpw	$2, (%rbx)
	je	.L719
	leaq	69(%rsp), %rsi
	movl	$1, %edx
	movq	%r14, %rdi
	movb	$91, 69(%rsp)
	call	_ZSt16__ostream_insertIcSt11char_traitsIcEERSt13basic_ostreamIT_T0_ES6_PKS3_l@PLT
	movq	88(%rsp), %rdx
	movq	80(%rsp), %rsi
	movq	%rax, %rdi
	call	_ZSt16__ostream_insertIcSt11char_traitsIcEERSt13basic_ostreamIT_T0_ES6_PKS3_l@PLT
	movq	%rax, %rdi
	leaq	70(%rsp), %rsi
	movl	$1, %edx
	movb	$93, 70(%rsp)
	call	_ZSt16__ostream_insertIcSt11char_traitsIcEERSt13basic_ostreamIT_T0_ES6_PKS3_l@PLT
.L651:
	leaq	71(%rsp), %rsi
	movl	$1, %edx
	movq	%r14, %rdi
	movb	$58, 71(%rsp)
	call	_ZSt16__ostream_insertIcSt11char_traitsIcEERSt13basic_ostreamIT_T0_ES6_PKS3_l@PLT
	movq	%rax, %rdi
	movq	_ZTVNSt7__cxx1115basic_stringbufIcSt11char_traitsIcESaIcEEE@GOTPCREL(%rip), %rax
	movzwl	2(%rbx), %esi
	movq	(%rsp), %xmm3
	addq	$16, %rax
	rolw	$8, %si
	movq	%rax, %xmm6
	movzwl	%si, %esi
	punpcklqdq	%xmm6, %xmm3
	movaps	%xmm3, (%rsp)
	call	_ZNSo9_M_insertImEERSoT_@PLT
.LEHE14:
	movq	160(%rsp), %rax
	leaq	16(%r12), %rbx
	movq	$0, 8(%r12)
	movq	%rbx, (%r12)
	movb	$0, 16(%r12)
	testq	%rax, %rax
	je	.L652
	movq	144(%rsp), %r8
	testq	%r8, %r8
	je	.L678
	cmpq	%r8, %rax
	ja	.L678
.L653:
	movq	152(%rsp), %rcx
	xorl	%edx, %edx
	xorl	%esi, %esi
	movq	%r12, %rdi
	subq	%rcx, %r8
.LEHB15:
	call	_ZNSt7__cxx1112basic_stringIcSt11char_traitsIcESaIcEE10_M_replaceEmmPKcm@PLT
.LEHE15:
.L655:
	movq	_ZTVNSt7__cxx1119basic_ostringstreamIcSt11char_traitsIcESaIcEEE@GOTPCREL(%rip), %rax
	movdqa	(%rsp), %xmm7
	movq	192(%rsp), %rdi
	addq	$64, %rax
	movaps	%xmm7, 112(%rsp)
	movq	%rax, 224(%rsp)
	cmpq	16(%rsp), %rdi
	je	.L657
	movq	208(%rsp), %rax
	leaq	1(%rax), %rsi
	call	_ZdlPvm@PLT
.L657:
	movq	_ZTVSt15basic_streambufIcSt11char_traitsIcEE@GOTPCREL(%rip), %rax
	movq	48(%rsp), %rdi
	addq	$16, %rax
	movq	%rax, 120(%rsp)
	call	_ZNSt6localeD1Ev@PLT
	movq	32(%rsp), %rax
	movq	40(%rsp), %rbx
	movq	%r13, %rdi
	movq	%rax, 112(%rsp)
	movq	-24(%rax), %rax
	movq	%rbx, 112(%rsp,%rax)
	movq	_ZTVSt9basic_iosIcSt11char_traitsIcEE@GOTPCREL(%rip), %rax
	addq	$16, %rax
	movq	%rax, 224(%rsp)
	call	_ZNSt8ios_baseD2Ev@PLT
	jmp	.L645
	.p2align 4,,10
	.p2align 3
.L615:
	movq	%r8, %rdi
	movq	%r8, 32(%rsp)
	call	__cxa_guard_acquire@PLT
	movq	32(%rsp), %r8
	testl	%eax, %eax
	je	.L707
	movq	_ZZN4asio15system_categoryEvE8instance@GOTPCREL(%rip), %rcx
	movq	_ZN4asio6detail15system_categoryD1Ev@GOTPCREL(%rip), %rdi
	movq	%r8, 32(%rsp)
	leaq	__dso_handle(%rip), %rdx
	movq	%rcx, %rsi
	movq	%rcx, 40(%rsp)
	call	__cxa_atexit@PLT
	movq	32(%rsp), %rdi
	call	__cxa_guard_release@PLT
	movq	40(%rsp), %rcx
	movq	32(%rsp), %r8
	jmp	.L616
	.p2align 4,,10
	.p2align 3
.L714:
	testl	%eax, %eax
	je	.L720
	leaq	96(%rsp), %rbp
	movb	$0, 96(%rsp)
	movq	%rbp, 80(%rsp)
	movq	$0, 88(%rsp)
	testl	%eax, %eax
	je	.L644
.L625:
	leaq	16(%r12), %rax
	movb	$0, 16(%r12)
	movq	%rax, (%r12)
	movq	$0, 8(%r12)
.L645:
	movq	80(%rsp), %rdi
	cmpq	%rbp, %rdi
	je	.L613
	movq	96(%rsp), %rax
	leaq	1(%rax), %rsi
	call	_ZdlPvm@PLT
.L613:
	movq	600(%rsp), %rax
	subq	%fs:40, %rax
	jne	.L721
	addq	$616, %rsp
	.cfi_remember_state
	.cfi_def_cfa_offset 56
	movq	%r12, %rax
	popq	%rbx
	.cfi_def_cfa_offset 48
	popq	%rbp
	.cfi_def_cfa_offset 40
	popq	%r12
	.cfi_def_cfa_offset 32
	popq	%r13
	.cfi_def_cfa_offset 24
	popq	%r14
	.cfi_def_cfa_offset 16
	popq	%r15
	.cfi_def_cfa_offset 8
	ret
	.p2align 4,,10
	.p2align 3
.L642:
	.cfi_restore_state
	testq	%r8, %r8
	jne	.L722
.L673:
	movq	%rbp, %rdx
	jmp	.L643
	.p2align 4,,10
	.p2align 3
.L678:
	movq	%rax, %r8
	jmp	.L653
	.p2align 4,,10
	.p2align 3
.L718:
	movq	%r14, %rdi
	leaq	72(%rsp), %rsi
	xorl	%edx, %edx
	movq	%r8, 32(%rsp)
.LEHB16:
	call	_ZNSt7__cxx1112basic_stringIcSt11char_traitsIcESaIcEE9_M_createERmm@PLT
.LEHE16:
	movq	32(%rsp), %r8
	movq	%rax, 80(%rsp)
	movq	%rax, %rdi
	movq	72(%rsp), %rax
	movq	%rax, 96(%rsp)
.L641:
	movq	%r8, %rdx
	movq	%r15, %rsi
	call	memcpy@PLT
	movq	72(%rsp), %rax
	movq	80(%rsp), %rdx
	jmp	.L643
	.p2align 4,,10
	.p2align 3
.L617:
	movq	%r8, %rdi
	movq	%r9, 48(%rsp)
	movq	%r8, 40(%rsp)
	call	__cxa_guard_acquire@PLT
	movq	40(%rsp), %r8
	movq	48(%rsp), %r9
	testl	%eax, %eax
	je	.L705
	movq	_ZZN4asio15system_categoryEvE8instance@GOTPCREL(%rip), %rcx
	movq	_ZN4asio6detail15system_categoryD1Ev@GOTPCREL(%rip), %rdi
	movq	%r8, 40(%rsp)
	leaq	__dso_handle(%rip), %rdx
	movq	%r9, 56(%rsp)
	movq	%rcx, %rsi
	movq	%rcx, 48(%rsp)
	call	__cxa_atexit@PLT
	movq	40(%rsp), %rdi
	call	__cxa_guard_release@PLT
	movq	56(%rsp), %r9
	movq	48(%rsp), %rcx
	movq	40(%rsp), %r8
	jmp	.L618
	.p2align 4,,10
	.p2align 3
.L719:
	movq	88(%rsp), %rdx
	movq	80(%rsp), %rsi
	movq	%r14, %rdi
.LEHB17:
	call	_ZSt16__ostream_insertIcSt11char_traitsIcEERSt13basic_ostreamIT_T0_ES6_PKS3_l@PLT
.LEHE17:
	jmp	.L651
	.p2align 4,,10
	.p2align 3
.L720:
	movzbl	(%r8), %eax
	testb	%al, %al
	je	.L723
.L639:
	leaq	96(%rsp), %rbp
	movl	$22, 0(%r13)
	movq	%rcx, 8(%r13)
	movb	$0, 96(%rsp)
	movq	%rbp, 80(%rsp)
	movq	$0, 88(%rsp)
	jmp	.L625
	.p2align 4,,10
	.p2align 3
.L652:
	leaq	192(%rsp), %rsi
	movq	%r12, %rdi
.LEHB18:
	call	_ZNSt7__cxx1112basic_stringIcSt11char_traitsIcESaIcEE9_M_assignERKS4_@PLT
.LEHE18:
	jmp	.L655
	.p2align 4,,10
	.p2align 3
.L632:
	testq	%r15, %r15
	je	.L673
	movq	%rbp, %rdi
	jmp	.L631
	.p2align 4,,10
	.p2align 3
.L717:
	movq	%r14, %rdi
	leaq	72(%rsp), %rsi
	xorl	%edx, %edx
	movq	%r9, 32(%rsp)
.LEHB19:
	call	_ZNSt7__cxx1112basic_stringIcSt11char_traitsIcESaIcEE9_M_createERmm@PLT
	movq	32(%rsp), %r9
	movq	%rax, 80(%rsp)
	movq	%rax, %rdi
	movq	72(%rsp), %rax
	movq	%rax, 96(%rsp)
.L631:
	movq	%r15, %rdx
	movq	%r9, %rsi
	call	memcpy@PLT
	movq	72(%rsp), %rax
	movq	80(%rsp), %rdx
	jmp	.L643
	.p2align 4,,10
	.p2align 3
.L716:
	movzbl	121(%rsp), %eax
	andl	$-64, %eax
	cmpb	$-128, %al
	je	.L627
.L706:
	leaq	497(%rsp), %rbp
	jmp	.L629
	.p2align 4,,10
	.p2align 3
.L627:
	movl	32(%rsp), %edi
	leaq	497(%rsp), %rbp
	movq	%r9, 40(%rsp)
	movq	%rbp, %rsi
	call	if_indextoname@PLT
	movq	40(%rsp), %r9
	testq	%rax, %rax
	jne	.L628
	jmp	.L629
	.p2align 4,,10
	.p2align 3
.L723:
	movq	%r8, %rdi
	movq	%rcx, 16(%rsp)
	movq	%r8, (%rsp)
	call	__cxa_guard_acquire@PLT
	movq	(%rsp), %r8
	movq	16(%rsp), %rcx
	testl	%eax, %eax
	je	.L639
	movq	_ZN4asio6detail15system_categoryD1Ev@GOTPCREL(%rip), %rdi
	movq	%rcx, %rsi
	leaq	__dso_handle(%rip), %rdx
	movq	%rcx, (%rsp)
	movq	%r8, 16(%rsp)
	call	__cxa_atexit@PLT
	movq	16(%rsp), %rdi
	call	__cxa_guard_release@PLT
	movq	(%rsp), %rcx
	jmp	.L639
.L721:
	call	__stack_chk_fail@PLT
.L722:
	movq	%rbp, %rdi
	jmp	.L641
.L675:
	endbr64
	movq	%rax, %rbx
	jmp	.L648
.L677:
	endbr64
	movq	%rax, %r13
	jmp	.L658
.L647:
	movq	%r15, %rdi
	call	_ZNSt7__cxx1115basic_stringbufIcSt11char_traitsIcESaIcEED1Ev@PLT
	movq	32(%rsp), %rax
	movq	40(%rsp), %rcx
	movq	%rax, 112(%rsp)
	movq	-24(%rax), %rax
	movq	%rcx, 112(%rsp,%rax)
.L648:
	movq	_ZTVSt9basic_iosIcSt11char_traitsIcEE@GOTPCREL(%rip), %rax
	movq	%r13, %rdi
	movq	%rbx, %r12
	addq	$16, %rax
	movq	%rax, 224(%rsp)
	call	_ZNSt8ios_baseD2Ev@PLT
.L649:
	movq	80(%rsp), %rdi
	cmpq	%rbp, %rdi
	je	.L662
	movq	96(%rsp), %rax
	leaq	1(%rax), %rsi
	call	_ZdlPvm@PLT
.L662:
	movq	%r12, %rdi
	call	_Unwind_Resume@PLT
.LEHE19:
.L658:
	movq	(%r12), %rdi
	cmpq	%rdi, %rbx
	je	.L659
	movq	16(%r12), %rsi
	addq	$1, %rsi
	call	_ZdlPvm@PLT
.L659:
	movq	%r13, %r12
.L660:
	movq	%r14, %rdi
	call	_ZNSt7__cxx1119basic_ostringstreamIcSt11char_traitsIcESaIcEED1Ev@PLT
	jmp	.L649
.L676:
	endbr64
	movq	%rax, %rbx
	jmp	.L647
.L674:
	endbr64
	movq	%rax, %r12
	jmp	.L660
	.cfi_endproc
.LFE6019:
	.section	.gcc_except_table._ZNK4asio2ip6detail8endpoint9to_stringB5cxx11ERSt10error_code,"aG",@progbits,_ZNK4asio2ip6detail8endpoint9to_stringB5cxx11ERSt10error_code,comdat
.LLSDA6019:
	.byte	0xff
	.byte	0xff
	.byte	0x1
	.uleb128 .LLSDACSE6019-.LLSDACSB6019
.LLSDACSB6019:
	.uleb128 .LEHB12-.LFB6019
	.uleb128 .LEHE12-.LEHB12
	.uleb128 .L675-.LFB6019
	.uleb128 0
	.uleb128 .LEHB13-.LFB6019
	.uleb128 .LEHE13-.LEHB13
	.uleb128 .L676-.LFB6019
	.uleb128 0
	.uleb128 .LEHB14-.LFB6019
	.uleb128 .LEHE14-.LEHB14
	.uleb128 .L674-.LFB6019
	.uleb128 0
	.uleb128 .LEHB15-.LFB6019
	.uleb128 .LEHE15-.LEHB15
	.uleb128 .L677-.LFB6019
	.uleb128 0
	.uleb128 .LEHB16-.LFB6019
	.uleb128 .LEHE16-.LEHB16
	.uleb128 0
	.uleb128 0
	.uleb128 .LEHB17-.LFB6019
	.uleb128 .LEHE17-.LEHB17
	.uleb128 .L674-.LFB6019
	.uleb128 0
	.uleb128 .LEHB18-.LFB6019
	.uleb128 .LEHE18-.LEHB18
	.uleb128 .L677-.LFB6019
	.uleb128 0
	.uleb128 .LEHB19-.LFB6019
	.uleb128 .LEHE19-.LEHB19
	.uleb128 0
	.uleb128 0
.LLSDACSE6019:
	.section	.text._ZNK4asio2ip6detail8endpoint9to_stringB5cxx11ERSt10error_code,"axG",@progbits,_ZNK4asio2ip6detail8endpoint9to_stringB5cxx11ERSt10error_code,comdat
	.size	_ZNK4asio2ip6detail8endpoint9to_stringB5cxx11ERSt10error_code, .-_ZNK4asio2ip6detail8endpoint9to_stringB5cxx11ERSt10error_code
	.section	.rodata.str1.1,"aMS",@progbits,1
.LC26:
	.string	"session-"
	.section	.text.unlikely
	.align 2
.LCOLDB27:
	.text
.LHOTB27:
	.align 2
	.p2align 4
	.globl	_ZN8asiodnp315MasterTCPServer17SessionIdToStringB5cxx11Em
	.type	_ZN8asiodnp315MasterTCPServer17SessionIdToStringB5cxx11Em, @function
_ZN8asiodnp315MasterTCPServer17SessionIdToStringB5cxx11Em:
.LFB8284:
	.cfi_startproc
	.cfi_personality 0x9b,DW.ref.__gxx_personality_v0
	.cfi_lsda 0x1b,.LLSDA8284
	endbr64
	pushq	%r15
	.cfi_def_cfa_offset 16
	.cfi_offset 15, -16
	pushq	%r14
	.cfi_def_cfa_offset 24
	.cfi_offset 14, -24
	pushq	%r13
	.cfi_def_cfa_offset 32
	.cfi_offset 13, -32
	pushq	%r12
	.cfi_def_cfa_offset 40
	.cfi_offset 12, -40
	movq	%rdi, %r12
	pushq	%rbp
	.cfi_def_cfa_offset 48
	.cfi_offset 6, -48
	pushq	%rbx
	.cfi_def_cfa_offset 56
	.cfi_offset 3, -56
	subq	$440, %rsp
	.cfi_def_cfa_offset 496
	movq	_ZTVNSt7__cxx1115basic_stringbufIcSt11char_traitsIcESaIcEEE@GOTPCREL(%rip), %r14
	movq	%rsi, 40(%rsp)
	leaq	160(%rsp), %r13
	leaq	48(%rsp), %rbp
	movq	%r13, %rdi
	movq	%fs:40, %rax
	movq	%rax, 424(%rsp)
	movq	_ZTVNSt7__cxx1119basic_ostringstreamIcSt11char_traitsIcESaIcEEE@GOTPCREL(%rip), %rax
	addq	$24, %rax
	movq	%rax, %xmm0
	leaq	16(%r14), %rax
	movq	%rax, %xmm3
	movq	_ZTVSt15basic_streambufIcSt11char_traitsIcEE@GOTPCREL(%rip), %rax
	movdqa	%xmm0, %xmm1
	movdqa	%xmm0, %xmm2
	punpcklqdq	%xmm3, %xmm1
	addq	$16, %rax
	movaps	%xmm1, (%rsp)
	movq	%rax, %xmm4
	punpcklqdq	%xmm4, %xmm2
	movaps	%xmm2, 16(%rsp)
	call	_ZNSt8ios_baseC2Ev@PLT
	movq	_ZTVSt9basic_iosIcSt11char_traitsIcEE@GOTPCREL(%rip), %rax
	pxor	%xmm0, %xmm0
	xorl	%esi, %esi
	movups	%xmm0, 392(%rsp)
	addq	$16, %rax
	movups	%xmm0, 408(%rsp)
	movq	%rax, 160(%rsp)
	xorl	%eax, %eax
	movw	%ax, 384(%rsp)
	movq	_ZTTNSt7__cxx1119basic_ostringstreamIcSt11char_traitsIcESaIcEEE@GOTPCREL(%rip), %rax
	movq	$0, 376(%rsp)
	movq	8(%rax), %rbx
	movq	16(%rax), %rax
	movq	-24(%rbx), %rdi
	movq	%rbx, 48(%rsp)
	movq	%rax, 32(%rsp)
	addq	%rbp, %rdi
	movq	%rax, (%rdi)
.LEHB20:
	call	_ZNSt9basic_iosIcSt11char_traitsIcEE4initEPSt15basic_streambufIcS1_E@PLT
.LEHE20:
	movq	_ZTVNSt7__cxx1119basic_ostringstreamIcSt11char_traitsIcESaIcEEE@GOTPCREL(%rip), %rax
	movdqa	16(%rsp), %xmm2
	leaq	112(%rsp), %r15
	pxor	%xmm0, %xmm0
	movq	%r15, %rdi
	movaps	%xmm0, 64(%rsp)
	addq	$64, %rax
	movaps	%xmm2, 48(%rsp)
	movq	%rax, 160(%rsp)
	movaps	%xmm0, 80(%rsp)
	movaps	%xmm0, 96(%rsp)
	call	_ZNSt6localeC1Ev@PLT
	leaq	16(%r14), %rax
	movq	%r13, %rdi
	leaq	56(%rsp), %r14
	movq	%rax, 56(%rsp)
	movq	%r14, %rsi
	leaq	144(%rsp), %rax
	movl	$16, 120(%rsp)
	movq	%rax, 16(%rsp)
	movq	%rax, 128(%rsp)
	movq	$0, 136(%rsp)
	movb	$0, 144(%rsp)
.LEHB21:
	call	_ZNSt9basic_iosIcSt11char_traitsIcEE4initEPSt15basic_streambufIcS1_E@PLT
.LEHE21:
	movl	$8, %edx
	leaq	.LC26(%rip), %rsi
	movq	%rbp, %rdi
.LEHB22:
	call	_ZSt16__ostream_insertIcSt11char_traitsIcEERSt13basic_ostreamIT_T0_ES6_PKS3_l@PLT
	movq	40(%rsp), %rsi
	movq	%rbp, %rdi
	call	_ZNSo9_M_insertImEERSoT_@PLT
.LEHE22:
	movq	96(%rsp), %rax
	leaq	16(%r12), %r14
	movq	$0, 8(%r12)
	movq	%r14, (%r12)
	movb	$0, 16(%r12)
	testq	%rax, %rax
	je	.L728
	movq	80(%rsp), %r8
	testq	%r8, %r8
	je	.L742
	cmpq	%r8, %rax
	ja	.L742
.L729:
	movq	88(%rsp), %rcx
	xorl	%edx, %edx
	xorl	%esi, %esi
	movq	%r12, %rdi
	subq	%rcx, %r8
.LEHB23:
	call	_ZNSt7__cxx1112basic_stringIcSt11char_traitsIcESaIcEE10_M_replaceEmmPKcm@PLT
.L733:
	movq	_ZTVNSt7__cxx1119basic_ostringstreamIcSt11char_traitsIcESaIcEEE@GOTPCREL(%rip), %rax
	movdqa	(%rsp), %xmm5
	movq	128(%rsp), %rdi
	addq	$64, %rax
	movaps	%xmm5, 48(%rsp)
	movq	%rax, 160(%rsp)
	cmpq	16(%rsp), %rdi
	je	.L732
	movq	144(%rsp), %rax
	leaq	1(%rax), %rsi
	call	_ZdlPvm@PLT
.L732:
	movq	_ZTVSt15basic_streambufIcSt11char_traitsIcEE@GOTPCREL(%rip), %rax
	movq	%r15, %rdi
	addq	$16, %rax
	movq	%rax, 56(%rsp)
	call	_ZNSt6localeD1Ev@PLT
	movq	-24(%rbx), %rax
	movq	32(%rsp), %rdx
	movq	%r13, %rdi
	movq	%rbx, 48(%rsp)
	movq	%rdx, 48(%rsp,%rax)
	movq	_ZTVSt9basic_iosIcSt11char_traitsIcEE@GOTPCREL(%rip), %rax
	addq	$16, %rax
	movq	%rax, 160(%rsp)
	call	_ZNSt8ios_baseD2Ev@PLT
	movq	424(%rsp), %rax
	subq	%fs:40, %rax
	jne	.L749
	addq	$440, %rsp
	.cfi_remember_state
	.cfi_def_cfa_offset 56
	movq	%r12, %rax
	popq	%rbx
	.cfi_def_cfa_offset 48
	popq	%rbp
	.cfi_def_cfa_offset 40
	popq	%r12
	.cfi_def_cfa_offset 32
	popq	%r13
	.cfi_def_cfa_offset 24
	popq	%r14
	.cfi_def_cfa_offset 16
	popq	%r15
	.cfi_def_cfa_offset 8
	ret
	.p2align 4,,10
	.p2align 3
.L742:
	.cfi_restore_state
	movq	%rax, %r8
	jmp	.L729
	.p2align 4,,10
	.p2align 3
.L728:
	leaq	128(%rsp), %rsi
	movq	%r12, %rdi
	call	_ZNSt7__cxx1112basic_stringIcSt11char_traitsIcESaIcEE9_M_assignERKS4_@PLT
.LEHE23:
	jmp	.L733
.L749:
	call	__stack_chk_fail@PLT
.L738:
	endbr64
	movq	%rax, %r12
	jmp	.L736
.L741:
	endbr64
	movq	%rax, %rbx
	jmp	.L734
.L740:
	endbr64
	movq	%rax, %rbp
	jmp	.L726
.L739:
	endbr64
	movq	%rax, %rbp
	jmp	.L727
	.section	.gcc_except_table,"a",@progbits
.LLSDA8284:
	.byte	0xff
	.byte	0xff
	.byte	0x1
	.uleb128 .LLSDACSE8284-.LLSDACSB8284
.LLSDACSB8284:
	.uleb128 .LEHB20-.LFB8284
	.uleb128 .LEHE20-.LEHB20
	.uleb128 .L739-.LFB8284
	.uleb128 0
	.uleb128 .LEHB21-.LFB8284
	.uleb128 .LEHE21-.LEHB21
	.uleb128 .L740-.LFB8284
	.uleb128 0
	.uleb128 .LEHB22-.LFB8284
	.uleb128 .LEHE22-.LEHB22
	.uleb128 .L738-.LFB8284
	.uleb128 0
	.uleb128 .LEHB23-.LFB8284
	.uleb128 .LEHE23-.LEHB23
	.uleb128 .L741-.LFB8284
	.uleb128 0
.LLSDACSE8284:
	.text
	.cfi_endproc
	.section	.text.unlikely
	.cfi_startproc
	.cfi_personality 0x9b,DW.ref.__gxx_personality_v0
	.cfi_lsda 0x1b,.LLSDAC8284
	.type	_ZN8asiodnp315MasterTCPServer17SessionIdToStringB5cxx11Em.cold, @function
_ZN8asiodnp315MasterTCPServer17SessionIdToStringB5cxx11Em.cold:
.LFSB8284:
.L734:
	.cfi_def_cfa_offset 496
	.cfi_offset 3, -56
	.cfi_offset 6, -48
	.cfi_offset 12, -40
	.cfi_offset 13, -32
	.cfi_offset 14, -24
	.cfi_offset 15, -16
	movq	(%r12), %rdi
	cmpq	%rdi, %r14
	jne	.L750
.L735:
	movq	%rbx, %r12
.L736:
	movq	%rbp, %rdi
	call	_ZNSt7__cxx1119basic_ostringstreamIcSt11char_traitsIcESaIcEED1Ev@PLT
	movq	%r12, %rdi
.LEHB24:
	call	_Unwind_Resume@PLT
.L726:
	movq	%r14, %rdi
	call	_ZNSt7__cxx1115basic_stringbufIcSt11char_traitsIcESaIcEED1Ev@PLT
	movq	-24(%rbx), %rax
	movq	32(%rsp), %rcx
	movq	%rbx, 48(%rsp)
	movq	%rcx, 48(%rsp,%rax)
.L727:
	movq	_ZTVSt9basic_iosIcSt11char_traitsIcEE@GOTPCREL(%rip), %rax
	movq	%r13, %rdi
	addq	$16, %rax
	movq	%rax, 160(%rsp)
	call	_ZNSt8ios_baseD2Ev@PLT
	movq	%rbp, %rdi
	call	_Unwind_Resume@PLT
.LEHE24:
.L750:
	movq	16(%r12), %rsi
	addq	$1, %rsi
	call	_ZdlPvm@PLT
	jmp	.L735
	.cfi_endproc
.LFE8284:
	.section	.gcc_except_table
.LLSDAC8284:
	.byte	0xff
	.byte	0xff
	.byte	0x1
	.uleb128 .LLSDACSEC8284-.LLSDACSBC8284
.LLSDACSBC8284:
	.uleb128 .LEHB24-.LCOLDB27
	.uleb128 .LEHE24-.LEHB24
	.uleb128 0
	.uleb128 0
.LLSDACSEC8284:
	.section	.text.unlikely
	.text
	.size	_ZN8asiodnp315MasterTCPServer17SessionIdToStringB5cxx11Em, .-_ZN8asiodnp315MasterTCPServer17SessionIdToStringB5cxx11Em
	.section	.text.unlikely
	.size	_ZN8asiodnp315MasterTCPServer17SessionIdToStringB5cxx11Em.cold, .-_ZN8asiodnp315MasterTCPServer17SessionIdToStringB5cxx11Em.cold
.LCOLDE27:
	.text
.LHOTE27:
	.section	.text._ZN4asio2iplsIcSt11char_traitsIcENS0_3tcpEEERSt13basic_ostreamIT_T0_ES9_RKNS0_14basic_endpointIT1_EE,"axG",@progbits,_ZN4asio2iplsIcSt11char_traitsIcENS0_3tcpEEERSt13basic_ostreamIT_T0_ES9_RKNS0_14basic_endpointIT1_EE,comdat
	.p2align 4
	.weak	_ZN4asio2iplsIcSt11char_traitsIcENS0_3tcpEEERSt13basic_ostreamIT_T0_ES9_RKNS0_14basic_endpointIT1_EE
	.type	_ZN4asio2iplsIcSt11char_traitsIcENS0_3tcpEEERSt13basic_ostreamIT_T0_ES9_RKNS0_14basic_endpointIT1_EE, @function
_ZN4asio2iplsIcSt11char_traitsIcENS0_3tcpEEERSt13basic_ostreamIT_T0_ES9_RKNS0_14basic_endpointIT1_EE:
.LFB9202:
	.cfi_startproc
	.cfi_personality 0x9b,DW.ref.__gxx_personality_v0
	.cfi_lsda 0x1b,.LLSDA9202
	endbr64
	pushq	%r14
	.cfi_def_cfa_offset 16
	.cfi_offset 14, -16
	pushq	%r13
	.cfi_def_cfa_offset 24
	.cfi_offset 13, -24
	pushq	%r12
	.cfi_def_cfa_offset 32
	.cfi_offset 12, -32
	movq	%rdi, %r12
	pushq	%rbp
	.cfi_def_cfa_offset 40
	.cfi_offset 6, -40
	pushq	%rbx
	.cfi_def_cfa_offset 48
	.cfi_offset 3, -48
	subq	$112, %rsp
	.cfi_def_cfa_offset 160
	movq	%fs:40, %rax
	movq	%rax, 104(%rsp)
	xorl	%eax, %eax
	cmpw	$2, (%rsi)
	movzwl	2(%rsi), %eax
	je	.L771
	movl	24(%rsi), %edx
	movdqu	8(%rsi), %xmm0
	movq	$10, 32(%rsp)
	movw	%ax, 34(%rsp)
	movl	%edx, 56(%rsp)
	movups	%xmm0, 40(%rsp)
.L753:
	leaq	16(%rsp), %rbp
	movl	$0, 16(%rsp)
	call	_ZNSt3_V215system_categoryEv@PLT
	leaq	64(%rsp), %rdi
	leaq	32(%rsp), %rsi
	movq	%rbp, %rdx
	movq	%rax, 24(%rsp)
.LEHB25:
	call	_ZNK4asio2ip6detail8endpoint9to_stringB5cxx11ERSt10error_code@PLT
.LEHE25:
	movl	16(%rsp), %eax
	testl	%eax, %eax
	je	.L754
	movq	(%r12), %rax
	movq	-24(%rax), %rdi
	addq	%r12, %rdi
	testb	$4, 28(%rdi)
	jne	.L772
	movl	32(%rdi), %esi
	orl	$4, %esi
.LEHB26:
	call	_ZNSt9basic_iosIcSt11char_traitsIcEE5clearESt12_Ios_Iostate@PLT
	movq	64(%rsp), %rdi
.L757:
	leaq	80(%rsp), %rax
	cmpq	%rax, %rdi
	je	.L762
	movq	80(%rsp), %rax
	leaq	1(%rax), %rsi
	call	_ZdlPvm@PLT
.L762:
	movq	104(%rsp), %rax
	subq	%fs:40, %rax
	jne	.L773
	addq	$112, %rsp
	.cfi_remember_state
	.cfi_def_cfa_offset 48
	movq	%r12, %rax
	popq	%rbx
	.cfi_def_cfa_offset 40
	popq	%rbp
	.cfi_def_cfa_offset 32
	popq	%r12
	.cfi_def_cfa_offset 24
	popq	%r13
	.cfi_def_cfa_offset 16
	popq	%r14
	.cfi_def_cfa_offset 8
	ret
	.p2align 4,,10
	.p2align 3
.L754:
	.cfi_restore_state
	cmpq	$0, 72(%rsp)
	movq	64(%rsp), %rdi
	je	.L757
	movq	%rdi, %r13
	leaq	15(%rsp), %r14
	jmp	.L761
	.p2align 4,,10
	.p2align 3
.L775:
	movzbl	57(%rbp,%rbx), %ebx
.L760:
	movl	$1, %edx
	movq	%r14, %rsi
	movq	%r12, %rdi
	movb	%bl, 15(%rsp)
	call	_ZSt16__ostream_insertIcSt11char_traitsIcEERSt13basic_ostreamIT_T0_ES6_PKS3_l@PLT
	movq	64(%rsp), %rdi
	movq	72(%rsp), %rax
	addq	$1, %r13
	addq	%rdi, %rax
	cmpq	%r13, %rax
	je	.L757
.L761:
	movq	(%r12), %rax
	movzbl	0(%r13), %ebx
	movq	-24(%rax), %rax
	movq	240(%r12,%rax), %rbp
	testq	%rbp, %rbp
	je	.L774
	cmpb	$0, 56(%rbp)
	jne	.L775
	movq	%rbp, %rdi
	call	_ZNKSt5ctypeIcE13_M_widen_initEv@PLT
	movq	0(%rbp), %rax
	movq	48(%rax), %rax
	cmpq	_ZNKSt5ctypeIcE8do_widenEc@GOTPCREL(%rip), %rax
	je	.L760
	movsbl	%bl, %esi
	movq	%rbp, %rdi
	call	*%rax
	movl	%eax, %ebx
	jmp	.L760
	.p2align 4,,10
	.p2align 3
.L771:
	movl	4(%rsi), %edx
	pxor	%xmm0, %xmm0
	movq	$2, 32(%rsp)
	movl	$0, 56(%rsp)
	movw	%ax, 34(%rsp)
	movl	%edx, 36(%rsp)
	movups	%xmm0, 40(%rsp)
	jmp	.L753
.L774:
	call	_ZSt16__throw_bad_castv@PLT
.L773:
	call	__stack_chk_fail@PLT
.L772:
	movq	%rbp, %rdi
	call	_ZN4asio6detail14do_throw_errorERKSt10error_code@PLT
.LEHE26:
.L766:
	endbr64
	movq	%rax, %rbp
.L763:
	movq	64(%rsp), %rdi
	leaq	80(%rsp), %rax
	cmpq	%rax, %rdi
	je	.L764
	movq	80(%rsp), %rax
	leaq	1(%rax), %rsi
	call	_ZdlPvm@PLT
.L764:
	movq	%rbp, %rdi
.LEHB27:
	call	_Unwind_Resume@PLT
.LEHE27:
	.cfi_endproc
.LFE9202:
	.section	.gcc_except_table
.LLSDA9202:
	.byte	0xff
	.byte	0xff
	.byte	0x1
	.uleb128 .LLSDACSE9202-.LLSDACSB9202
.LLSDACSB9202:
	.uleb128 .LEHB25-.LFB9202
	.uleb128 .LEHE25-.LEHB25
	.uleb128 0
	.uleb128 0
	.uleb128 .LEHB26-.LFB9202
	.uleb128 .LEHE26-.LEHB26
	.uleb128 .L766-.LFB9202
	.uleb128 0
	.uleb128 .LEHB27-.LFB9202
	.uleb128 .LEHE27-.LEHB27
	.uleb128 0
	.uleb128 0
.LLSDACSE9202:
	.section	.text._ZN4asio2iplsIcSt11char_traitsIcENS0_3tcpEEERSt13basic_ostreamIT_T0_ES9_RKNS0_14basic_endpointIT1_EE,"axG",@progbits,_ZN4asio2iplsIcSt11char_traitsIcENS0_3tcpEEERSt13basic_ostreamIT_T0_ES9_RKNS0_14basic_endpointIT1_EE,comdat
	.size	_ZN4asio2iplsIcSt11char_traitsIcENS0_3tcpEEERSt13basic_ostreamIT_T0_ES9_RKNS0_14basic_endpointIT1_EE, .-_ZN4asio2iplsIcSt11char_traitsIcENS0_3tcpEEERSt13basic_ostreamIT_T0_ES9_RKNS0_14basic_endpointIT1_EE
	.section	.text._ZNSt16_Sp_counted_baseILN9__gnu_cxx12_Lock_policyE2EE10_M_releaseEv,"axG",@progbits,_ZNSt16_Sp_counted_baseILN9__gnu_cxx12_Lock_policyE2EE10_M_releaseEv,comdat
	.align 2
	.p2align 4
	.weak	_ZNSt16_Sp_counted_baseILN9__gnu_cxx12_Lock_policyE2EE10_M_releaseEv
	.type	_ZNSt16_Sp_counted_baseILN9__gnu_cxx12_Lock_policyE2EE10_M_releaseEv, @function
_ZNSt16_Sp_counted_baseILN9__gnu_cxx12_Lock_policyE2EE10_M_releaseEv:
.LFB9325:
	.cfi_startproc
	endbr64
	pushq	%rbp
	.cfi_def_cfa_offset 16
	.cfi_offset 6, -16
	movq	%rdi, %rbp
	pushq	%rbx
	.cfi_def_cfa_offset 24
	.cfi_offset 3, -24
	subq	$8, %rsp
	.cfi_def_cfa_offset 32
	movq	__libc_single_threaded@GOTPCREL(%rip), %rbx
	cmpb	$0, (%rbx)
	je	.L777
	movl	8(%rdi), %eax
	leal	-1(%rax), %edx
	movl	%edx, 8(%rdi)
.L778:
	cmpl	$1, %eax
	je	.L785
.L776:
	addq	$8, %rsp
	.cfi_remember_state
	.cfi_def_cfa_offset 24
	popq	%rbx
	.cfi_def_cfa_offset 16
	popq	%rbp
	.cfi_def_cfa_offset 8
	ret
	.p2align 4,,10
	.p2align 3
.L785:
	.cfi_restore_state
	movq	0(%rbp), %rax
	movq	%rbp, %rdi
	call	*16(%rax)
	cmpb	$0, (%rbx)
	je	.L781
	movl	12(%rbp), %eax
	leal	-1(%rax), %edx
	movl	%edx, 12(%rbp)
.L782:
	cmpl	$1, %eax
	jne	.L776
	movq	0(%rbp), %rax
	movq	%rbp, %rdi
	movq	24(%rax), %rax
	addq	$8, %rsp
	.cfi_remember_state
	.cfi_def_cfa_offset 24
	popq	%rbx
	.cfi_def_cfa_offset 16
	popq	%rbp
	.cfi_def_cfa_offset 8
	jmp	*%rax
	.p2align 4,,10
	.p2align 3
.L777:
	.cfi_restore_state
	movl	$-1, %eax
	lock xaddl	%eax, 8(%rdi)
	jmp	.L778
	.p2align 4,,10
	.p2align 3
.L781:
	movl	$-1, %eax
	lock xaddl	%eax, 12(%rbp)
	jmp	.L782
	.cfi_endproc
.LFE9325:
	.size	_ZNSt16_Sp_counted_baseILN9__gnu_cxx12_Lock_policyE2EE10_M_releaseEv, .-_ZNSt16_Sp_counted_baseILN9__gnu_cxx12_Lock_policyE2EE10_M_releaseEv
	.section	.text.unlikely
	.align 2
.LCOLDB28:
	.text
.LHOTB28:
	.align 2
	.p2align 4
	.globl	_ZN8asiodnp315MasterTCPServer10OnShutdownEv
	.type	_ZN8asiodnp315MasterTCPServer10OnShutdownEv, @function
_ZN8asiodnp315MasterTCPServer10OnShutdownEv:
.LFB8261:
	.cfi_startproc
	.cfi_personality 0x9b,DW.ref.__gxx_personality_v0
	.cfi_lsda 0x1b,.LLSDA8261
	endbr64
	pushq	%rbp
	.cfi_def_cfa_offset 16
	.cfi_offset 6, -16
	pushq	%rbx
	.cfi_def_cfa_offset 24
	.cfi_offset 3, -24
	subq	$40, %rsp
	.cfi_def_cfa_offset 64
	movq	16(%rdi), %rdx
	movq	224(%rdi), %r8
	movq	%fs:40, %rax
	movq	%rax, 24(%rsp)
	xorl	%eax, %eax
	testq	%rdx, %rdx
	je	.L787
	movl	8(%rdx), %eax
	leaq	8(%rdx), %rcx
.L789:
	testl	%eax, %eax
	je	.L787
	leal	1(%rax), %esi
	lock cmpxchgl	%esi, (%rcx)
	jne	.L789
	movq	8(%rdi), %xmm0
	movq	%rdx, %xmm1
	movq	%rsp, %rsi
	movq	%r8, %rdi
	punpcklqdq	%xmm1, %xmm0
	movaps	%xmm0, (%rsp)
.LEHB28:
	call	_ZN7asiopal15ResourceManager6DetachERKSt10shared_ptrINS_9IResourceEE@PLT
.LEHE28:
	movq	8(%rsp), %rbp
	testq	%rbp, %rbp
	je	.L786
	movq	__libc_single_threaded@GOTPCREL(%rip), %rbx
	cmpb	$0, (%rbx)
	je	.L792
	movl	8(%rbp), %eax
	leal	-1(%rax), %edx
	movl	%edx, 8(%rbp)
.L793:
	cmpl	$1, %eax
	je	.L813
.L786:
	movq	24(%rsp), %rax
	subq	%fs:40, %rax
	jne	.L814
	addq	$40, %rsp
	.cfi_remember_state
	.cfi_def_cfa_offset 24
	popq	%rbx
	.cfi_def_cfa_offset 16
	popq	%rbp
	.cfi_def_cfa_offset 8
	ret
	.p2align 4,,10
	.p2align 3
.L813:
	.cfi_restore_state
	movq	0(%rbp), %rax
	movq	%rbp, %rdi
	call	*16(%rax)
	cmpb	$0, (%rbx)
	je	.L795
	movl	12(%rbp), %eax
	leal	-1(%rax), %edx
	movl	%edx, 12(%rbp)
.L796:
	cmpl	$1, %eax
	jne	.L786
	movq	0(%rbp), %rax
	movq	%rbp, %rdi
	call	*24(%rax)
	jmp	.L786
	.p2align 4,,10
	.p2align 3
.L792:
	movl	$-1, %eax
	lock xaddl	%eax, 8(%rbp)
	jmp	.L793
	.p2align 4,,10
	.p2align 3
.L795:
	movl	$-1, %eax
	lock xaddl	%eax, 12(%rbp)
	jmp	.L796
.L814:
	call	__stack_chk_fail@PLT
.L801:
	endbr64
	movq	%rax, %rbp
	jmp	.L797
	.section	.gcc_except_table
.LLSDA8261:
	.byte	0xff
	.byte	0xff
	.byte	0x1
	.uleb128 .LLSDACSE8261-.LLSDACSB8261
.LLSDACSB8261:
	.uleb128 .LEHB28-.LFB8261
	.uleb128 .LEHE28-.LEHB28
	.uleb128 .L801-.LFB8261
	.uleb128 0
.LLSDACSE8261:
	.text
	.cfi_endproc
	.section	.text.unlikely
	.cfi_startproc
	.cfi_personality 0x9b,DW.ref.__gxx_personality_v0
	.cfi_lsda 0x1b,.LLSDAC8261
	.type	_ZN8asiodnp315MasterTCPServer10OnShutdownEv.cold, @function
_ZN8asiodnp315MasterTCPServer10OnShutdownEv.cold:
.LFSB8261:
.L787:
	.cfi_def_cfa_offset 64
	.cfi_offset 3, -24
	.cfi_offset 6, -16
.LEHB29:
	call	_ZSt20__throw_bad_weak_ptrv@PLT
.L797:
	movq	8(%rsp), %rdi
	testq	%rdi, %rdi
	je	.L798
	call	_ZNSt16_Sp_counted_baseILN9__gnu_cxx12_Lock_policyE2EE10_M_releaseEv@PLT
.L798:
	movq	%rbp, %rdi
	call	_Unwind_Resume@PLT
.LEHE29:
	.cfi_endproc
.LFE8261:
	.section	.gcc_except_table
.LLSDAC8261:
	.byte	0xff
	.byte	0xff
	.byte	0x1
	.uleb128 .LLSDACSEC8261-.LLSDACSBC8261
.LLSDACSBC8261:
	.uleb128 .LEHB29-.LCOLDB28
	.uleb128 .LEHE29-.LEHB29
	.uleb128 0
	.uleb128 0
.LLSDACSEC8261:
	.section	.text.unlikely
	.text
	.size	_ZN8asiodnp315MasterTCPServer10OnShutdownEv, .-_ZN8asiodnp315MasterTCPServer10OnShutdownEv
	.section	.text.unlikely
	.size	_ZN8asiodnp315MasterTCPServer10OnShutdownEv.cold, .-_ZN8asiodnp315MasterTCPServer10OnShutdownEv.cold
.LCOLDE28:
	.text
.LHOTE28:
	.section	.text.unlikely
	.align 2
.LCOLDB29:
	.text
.LHOTB29:
	.align 2
	.p2align 4
	.type	_ZN7asiopal13IAsyncChannel16CheckForShutdownESt10shared_ptrIS0_E.isra.0, @function
_ZN7asiopal13IAsyncChannel16CheckForShutdownESt10shared_ptrIS0_E.isra.0:
.LFB11448:
	.cfi_startproc
	.cfi_personality 0x9b,DW.ref.__gxx_personality_v0
	.cfi_lsda 0x1b,.LLSDA11448
	pushq	%r14
	.cfi_def_cfa_offset 16
	.cfi_offset 14, -16
	pushq	%r13
	.cfi_def_cfa_offset 24
	.cfi_offset 13, -24
	pushq	%r12
	.cfi_def_cfa_offset 32
	.cfi_offset 12, -32
	pushq	%rbp
	.cfi_def_cfa_offset 40
	.cfi_offset 6, -40
	pushq	%rbx
	.cfi_def_cfa_offset 48
	.cfi_offset 3, -48
	subq	$64, %rsp
	.cfi_def_cfa_offset 112
	movq	(%rdi), %rbx
	movq	%fs:40, %rax
	movq	%rax, 56(%rsp)
	xorl	%eax, %eax
	cmpb	$0, 57(%rbx)
	jne	.L816
	cmpb	$0, 58(%rbx)
	je	.L817
.L816:
	movq	8(%rdi), %r12
	testq	%r12, %r12
	je	.L818
	movq	__libc_single_threaded@GOTPCREL(%rip), %rax
	cmpb	$0, (%rax)
	je	.L819
	addl	$1, 8(%r12)
	movq	24(%rbx), %r13
.L820:
	addl	$1, 8(%r12)
	movq	%r12, (%rsp)
.L822:
	data16	leaq	_ZN4asio6detail15keyword_tss_ptrINS0_10call_stackINS0_15task_io_serviceENS0_27task_io_service_thread_infoEE7contextEE6value_E@tlsgd(%rip), %rdi
	.value	0x6666
	rex64
	call	__tls_get_addr@PLT
	movq	40(%r13), %r14
	movq	(%rax), %rax
	testq	%rax, %rax
	je	.L823
	movq	8(%rax), %rax
	testq	%rax, %rax
	je	.L823
	movq	(%rax), %rbp
	testq	%rbp, %rbp
	je	.L823
	movq	$0, (%rax)
	movzbl	0(%rbp), %eax
	cmpb	$39, %al
	jbe	.L824
	movb	%al, 40(%rbp)
	jmp	.L825
	.p2align 4,,10
	.p2align 3
.L817:
	movq	48(%rbx), %rdi
	pxor	%xmm0, %xmm0
	movups	%xmm0, 40(%rbx)
	testq	%rdi, %rdi
	je	.L815
	movq	56(%rsp), %rax
	subq	%fs:40, %rax
	jne	.L880
	addq	$64, %rsp
	.cfi_remember_state
	.cfi_def_cfa_offset 48
	popq	%rbx
	.cfi_def_cfa_offset 40
	popq	%rbp
	.cfi_def_cfa_offset 32
	popq	%r12
	.cfi_def_cfa_offset 24
	popq	%r13
	.cfi_def_cfa_offset 16
	popq	%r14
	.cfi_def_cfa_offset 8
	jmp	_ZNSt16_Sp_counted_baseILN9__gnu_cxx12_Lock_policyE2EE10_M_releaseEv@PLT
	.p2align 4,,10
	.p2align 3
.L824:
	.cfi_restore_state
	movq	%rbp, %rdi
	call	_ZdlPv@PLT
.L823:
	movl	$41, %edi
.LEHB30:
	call	_Znwm@PLT
.LEHE30:
	movb	$40, 40(%rax)
	movq	%rax, %rbp
.L825:
	movq	_ZN4asio6detail18completion_handlerIZN7asiopal13IAsyncChannel16CheckForShutdownESt10shared_ptrIS3_EEUlvE_E11do_completeEPNS0_15task_io_serviceEPNS0_25task_io_service_operationERKSt10error_codem@GOTPCREL(%rip), %rax
	movq	%rbx, %xmm0
	movq	$0, 0(%rbp)
	movq	%rbp, %xmm1
	movhps	(%rsp), %xmm0
	movl	$0, 16(%rbp)
	punpcklqdq	%xmm1, %xmm1
	movq	%rax, 8(%rbp)
	movups	%xmm0, 24(%rbp)
	movq	48(%r13), %rax
	movaps	%xmm1, 16(%rsp)
	leaq	24(%rax), %rdi
	call	pthread_mutex_lock@PLT
	movq	48(%r13), %rdi
	cmpb	$0, 64(%rdi)
	je	.L826
	movq	$0, 0(%rbp)
	movq	80(%rdi), %rax
	testq	%rax, %rax
	je	.L827
	movq	%rbp, (%rax)
	movq	%rbp, 80(%rdi)
.L828:
	addq	$24, %rdi
	call	pthread_mutex_unlock@PLT
.L829:
	testq	%r12, %r12
	je	.L815
	movq	__libc_single_threaded@GOTPCREL(%rip), %rbx
	cmpb	$0, (%rbx)
	je	.L850
	movl	8(%r12), %eax
	leal	-1(%rax), %edx
	movl	%edx, 8(%r12)
.L851:
	cmpl	$1, %eax
	je	.L881
.L815:
	movq	56(%rsp), %rax
	subq	%fs:40, %rax
	jne	.L880
	addq	$64, %rsp
	.cfi_remember_state
	.cfi_def_cfa_offset 48
	popq	%rbx
	.cfi_def_cfa_offset 40
	popq	%rbp
	.cfi_def_cfa_offset 32
	popq	%r12
	.cfi_def_cfa_offset 24
	popq	%r13
	.cfi_def_cfa_offset 16
	popq	%r14
	.cfi_def_cfa_offset 8
	ret
	.p2align 4,,10
	.p2align 3
.L826:
	.cfi_restore_state
	movb	$1, 64(%rdi)
	addq	$24, %rdi
	call	pthread_mutex_unlock@PLT
	movq	48(%r13), %r13
	movq	$0, 0(%rbp)
	movq	%r13, %xmm2
	cmpq	$0, 96(%r13)
	punpcklqdq	%xmm2, %xmm2
	movaps	%xmm2, (%rsp)
	je	.L830
	movq	96(%r13), %rax
	movq	%rbp, (%rax)
	movq	%rbp, 96(%r13)
.L831:
	movq	40(%r14), %rbx
	cmpb	$0, 40(%rbx)
	jne	.L882
.L832:
	lock addq	$1, 184(%rbx)
	leaq	48(%rbx), %rbp
	movq	%rbp, %rdi
	call	pthread_mutex_lock@PLT
	cmpq	$0, 200(%rbx)
	movq	$0, 0(%r13)
	je	.L837
	movq	200(%rbx), %rax
	movq	%r13, (%rax)
	movq	%r13, 200(%rbx)
.L838:
	movq	136(%rbx), %rax
	orq	$1, %rax
	movq	%rax, 136(%rbx)
	cmpq	$1, %rax
	je	.L839
	movq	%rbp, %rdi
	call	pthread_mutex_unlock@PLT
	leaq	88(%rbx), %rdi
	call	pthread_cond_signal@PLT
	jmp	.L829
	.p2align 4,,10
	.p2align 3
.L818:
	movq	$0, (%rsp)
	movq	24(%rbx), %r13
	jmp	.L822
	.p2align 4,,10
	.p2align 3
.L881:
	movq	(%r12), %rax
	movq	%r12, %rdi
	call	*16(%rax)
	cmpb	$0, (%rbx)
	je	.L853
	movl	12(%r12), %eax
	leal	-1(%rax), %edx
	movl	%edx, 12(%r12)
.L854:
	cmpl	$1, %eax
	jne	.L815
	movq	56(%rsp), %rax
	subq	%fs:40, %rax
	jne	.L880
	movq	(%r12), %rax
	movq	%r12, %rdi
	movq	24(%rax), %rax
	addq	$64, %rsp
	.cfi_remember_state
	.cfi_def_cfa_offset 48
	popq	%rbx
	.cfi_def_cfa_offset 40
	popq	%rbp
	.cfi_def_cfa_offset 32
	popq	%r12
	.cfi_def_cfa_offset 24
	popq	%r13
	.cfi_def_cfa_offset 16
	popq	%r14
	.cfi_def_cfa_offset 8
	jmp	*%rax
	.p2align 4,,10
	.p2align 3
.L830:
	.cfi_restore_state
	movdqa	16(%rsp), %xmm4
	movups	%xmm4, 88(%r13)
	jmp	.L831
	.p2align 4,,10
	.p2align 3
.L882:
	data16	leaq	_ZN4asio6detail15keyword_tss_ptrINS0_10call_stackINS0_15task_io_serviceENS0_27task_io_service_thread_infoEE7contextEE6value_E@tlsgd(%rip), %rdi
	.value	0x6666
	rex64
	call	__tls_get_addr@PLT
	movq	(%rax), %rax
	testq	%rax, %rax
	jne	.L835
	jmp	.L832
	.p2align 4,,10
	.p2align 3
.L833:
	movq	16(%rax), %rax
	testq	%rax, %rax
	je	.L832
.L835:
	cmpq	(%rax), %rbx
	jne	.L833
	movq	8(%rax), %rax
	testq	%rax, %rax
	je	.L832
	addq	$1, 24(%rax)
	movq	$0, 0(%r13)
	movq	16(%rax), %rdx
	testq	%rdx, %rdx
	je	.L836
	movq	%r13, (%rdx)
	movq	%r13, 16(%rax)
	jmp	.L829
	.p2align 4,,10
	.p2align 3
.L819:
	lock addl	$1, 8(%r12)
	movq	(%rdi), %rdx
	cmpb	$0, (%rax)
	movq	24(%rdx), %r13
	jne	.L820
	lock addl	$1, 8(%r12)
	movq	%r12, (%rsp)
	jmp	.L822
	.p2align 4,,10
	.p2align 3
.L827:
	movdqa	16(%rsp), %xmm3
	movups	%xmm3, 72(%rdi)
	jmp	.L828
	.p2align 4,,10
	.p2align 3
.L850:
	movl	$-1, %eax
	lock xaddl	%eax, 8(%r12)
	jmp	.L851
	.p2align 4,,10
	.p2align 3
.L839:
	cmpb	$0, 176(%rbx)
	jne	.L841
	movq	144(%rbx), %rax
	testq	%rax, %rax
	je	.L841
	leaq	88(%rax), %rdx
	movb	$1, 176(%rbx)
	movl	96(%rax), %edi
	leaq	44(%rsp), %rcx
	movq	%rdx, 48(%rsp)
	movl	88(%rax), %edx
	movl	$3, %esi
	movl	$-2147483639, 44(%rsp)
	call	epoll_ctl@PLT
.L841:
	movq	%rbp, %rdi
	call	pthread_mutex_unlock@PLT
	jmp	.L829
	.p2align 4,,10
	.p2align 3
.L853:
	movl	$-1, %eax
	lock xaddl	%eax, 12(%r12)
	jmp	.L854
	.p2align 4,,10
	.p2align 3
.L837:
	movdqa	(%rsp), %xmm5
	movups	%xmm5, 192(%rbx)
	jmp	.L838
	.p2align 4,,10
	.p2align 3
.L836:
	movdqa	(%rsp), %xmm6
	movups	%xmm6, 8(%rax)
	jmp	.L829
.L880:
	call	__stack_chk_fail@PLT
.L858:
	endbr64
	movq	%rax, %rbp
	jmp	.L844
	.section	.gcc_except_table
.LLSDA11448:
	.byte	0xff
	.byte	0xff
	.byte	0x1
	.uleb128 .LLSDACSE11448-.LLSDACSB11448
.LLSDACSB11448:
	.uleb128 .LEHB30-.LFB11448
	.uleb128 .LEHE30-.LEHB30
	.uleb128 .L858-.LFB11448
	.uleb128 0
.LLSDACSE11448:
	.text
	.cfi_endproc
	.section	.text.unlikely
	.cfi_startproc
	.cfi_personality 0x9b,DW.ref.__gxx_personality_v0
	.cfi_lsda 0x1b,.LLSDAC11448
	.type	_ZN7asiopal13IAsyncChannel16CheckForShutdownESt10shared_ptrIS0_E.isra.0.cold, @function
_ZN7asiopal13IAsyncChannel16CheckForShutdownESt10shared_ptrIS0_E.isra.0.cold:
.LFSB11448:
.L844:
	.cfi_def_cfa_offset 112
	.cfi_offset 3, -48
	.cfi_offset 6, -40
	.cfi_offset 12, -32
	.cfi_offset 13, -24
	.cfi_offset 14, -16
	cmpq	$0, (%rsp)
	je	.L845
	movq	(%rsp), %rdi
	call	_ZNSt16_Sp_counted_baseILN9__gnu_cxx12_Lock_policyE2EE10_M_releaseEv@PLT
.L845:
	testq	%r12, %r12
	je	.L847
	movq	%r12, %rdi
	call	_ZNSt16_Sp_counted_baseILN9__gnu_cxx12_Lock_policyE2EE10_M_releaseEv@PLT
.L847:
	movq	%rbp, %rdi
.LEHB31:
	call	_Unwind_Resume@PLT
.LEHE31:
	.cfi_endproc
.LFE11448:
	.section	.gcc_except_table
.LLSDAC11448:
	.byte	0xff
	.byte	0xff
	.byte	0x1
	.uleb128 .LLSDACSEC11448-.LLSDACSBC11448
.LLSDACSBC11448:
	.uleb128 .LEHB31-.LCOLDB29
	.uleb128 .LEHE31-.LEHB31
	.uleb128 0
	.uleb128 0
.LLSDACSEC11448:
	.section	.text.unlikely
	.text
	.size	_ZN7asiopal13IAsyncChannel16CheckForShutdownESt10shared_ptrIS0_E.isra.0, .-_ZN7asiopal13IAsyncChannel16CheckForShutdownESt10shared_ptrIS0_E.isra.0
	.section	.text.unlikely
	.size	_ZN7asiopal13IAsyncChannel16CheckForShutdownESt10shared_ptrIS0_E.isra.0.cold, .-_ZN7asiopal13IAsyncChannel16CheckForShutdownESt10shared_ptrIS0_E.isra.0.cold
.LCOLDE29:
	.text
.LHOTE29:
	.section	.text._ZN8asiodnp315MasterTCPServerD2Ev,"axG",@progbits,_ZN8asiodnp315MasterTCPServerD5Ev,comdat
	.align 2
	.p2align 4
	.weak	_ZN8asiodnp315MasterTCPServerD2Ev
	.type	_ZN8asiodnp315MasterTCPServerD2Ev, @function
_ZN8asiodnp315MasterTCPServerD2Ev:
.LFB11144:
	.cfi_startproc
	.cfi_personality 0x9b,DW.ref.__gxx_personality_v0
	.cfi_lsda 0x1b,.LLSDA11144
	endbr64
	pushq	%r15
	.cfi_def_cfa_offset 16
	.cfi_offset 15, -16
	pushq	%r14
	.cfi_def_cfa_offset 24
	.cfi_offset 14, -24
	pushq	%r13
	.cfi_def_cfa_offset 32
	.cfi_offset 13, -32
	pushq	%r12
	.cfi_def_cfa_offset 40
	.cfi_offset 12, -40
	pushq	%rbp
	.cfi_def_cfa_offset 48
	.cfi_offset 6, -48
	pushq	%rbx
	.cfi_def_cfa_offset 56
	.cfi_offset 3, -56
	movq	%rdi, %rbx
	subq	$72, %rsp
	.cfi_def_cfa_offset 128
	movq	%fs:40, %rax
	movq	%rax, 56(%rsp)
	movq	_ZTVN8asiodnp315MasterTCPServerE@GOTPCREL(%rip), %rax
	addq	$16, %rax
	movq	%rax, (%rdi)
	movq	232(%rdi), %rdi
	testq	%rdi, %rdi
	je	.L884
	call	_ZNSt16_Sp_counted_baseILN9__gnu_cxx12_Lock_policyE2EE10_M_releaseEv@PLT
.L884:
	movq	216(%rbx), %rdi
	testq	%rdi, %rdi
	je	.L885
	call	_ZNSt16_Sp_counted_baseILN9__gnu_cxx12_Lock_policyE2EE10_M_releaseEv@PLT
.L885:
	movq	_ZTVN7asiopal9TCPServerE@GOTPCREL(%rip), %rax
	movl	136(%rbx), %r12d
	addq	$16, %rax
	movq	%rax, (%rbx)
	cmpl	$-1, %r12d
	jne	.L1097
.L886:
	movl	104(%rbx), %r12d
	cmpl	$-1, %r12d
	jne	.L1098
.L927:
	movq	64(%rbx), %rdi
	testq	%rdi, %rdi
	je	.L971
	call	_ZNSt16_Sp_counted_baseILN9__gnu_cxx12_Lock_policyE2EE10_M_releaseEv@PLT
.L971:
	movq	48(%rbx), %rdi
	testq	%rdi, %rdi
	je	.L972
	call	_ZNSt16_Sp_counted_baseILN9__gnu_cxx12_Lock_policyE2EE10_M_releaseEv@PLT
.L972:
	movq	32(%rbx), %rdi
	testq	%rdi, %rdi
	je	.L973
	call	_ZNSt16_Sp_counted_baseILN9__gnu_cxx12_Lock_policyE2EE10_M_releaseEv@PLT
.L973:
	movq	16(%rbx), %rdi
	testq	%rdi, %rdi
	je	.L883
	movq	__libc_single_threaded@GOTPCREL(%rip), %rax
	cmpb	$0, (%rax)
	je	.L976
	movl	12(%rdi), %eax
	leal	-1(%rax), %edx
	movl	%edx, 12(%rdi)
.L977:
	cmpl	$1, %eax
	je	.L1099
.L883:
	movq	56(%rsp), %rax
	subq	%fs:40, %rax
	jne	.L1096
	addq	$72, %rsp
	.cfi_remember_state
	.cfi_def_cfa_offset 56
	popq	%rbx
	.cfi_def_cfa_offset 48
	popq	%rbp
	.cfi_def_cfa_offset 40
	popq	%r12
	.cfi_def_cfa_offset 32
	popq	%r13
	.cfi_def_cfa_offset 24
	popq	%r14
	.cfi_def_cfa_offset 16
	popq	%r15
	.cfi_def_cfa_offset 8
	ret
	.p2align 4,,10
	.p2align 3
.L1098:
	.cfi_restore_state
	movq	112(%rbx), %rbp
	testq	%rbp, %rbp
	je	.L957
	movq	128(%rbx), %rax
	movzbl	108(%rbx), %r13d
	movq	40(%rax), %rax
	movq	%rax, 16(%rsp)
	leaq	40(%rbp), %rax
	movq	%rax, %rdi
	movq	%rax, 24(%rsp)
	call	pthread_mutex_lock@PLT
	movq	112(%rbx), %rdi
	cmpb	$0, 144(%rdi)
	jne	.L929
	andl	$64, %r13d
	jne	.L1100
.L930:
	movq	$0, 8(%rsp)
	xorl	%ebp, %ebp
	movl	$0, 4(%rsp)
.L931:
	movslq	4(%rsp), %r12
	movq	%r12, %rax
	salq	$4, %rax
	movq	96(%rax,%rdi), %r14
	testq	%r14, %r14
	je	.L986
	movq	_ZGVZN4asio15system_categoryEvE8instance@GOTPCREL(%rip), %r15
	movq	_ZZN4asio15system_categoryEvE8instance@GOTPCREL(%rip), %r13
	movzbl	(%r15), %eax
	testb	%al, %al
	je	.L1101
	.p2align 4,,10
	.p2align 3
.L933:
	movq	112(%rbx), %rdi
	movq	%r12, %rax
	movl	$125, 24(%r14)
	salq	$4, %rax
	movq	%r13, 32(%r14)
	addq	%rdi, %rax
	movq	96(%rax), %rdx
	testq	%rdx, %rdx
	je	.L935
	movq	(%rdx), %r11
	movq	%r11, 96(%rax)
	testq	%r11, %r11
	je	.L1102
	movq	$0, (%rdx)
	movq	$0, (%r14)
	testq	%rbp, %rbp
	je	.L1103
.L980:
	movq	%r14, 0(%rbp)
	testq	%r11, %r11
	je	.L937
.L938:
	movzbl	(%r15), %eax
	movq	%r14, %rbp
	movq	%r11, %r14
	testb	%al, %al
	jne	.L933
.L1101:
	movq	%r15, %rdi
	call	__cxa_guard_acquire@PLT
	testl	%eax, %eax
	je	.L933
	movq	_ZN4asio6detail15system_categoryD1Ev@GOTPCREL(%rip), %rdi
	leaq	__dso_handle(%rip), %rdx
	movq	%r13, %rsi
	call	__cxa_atexit@PLT
	movq	%r15, %rdi
	call	__cxa_guard_release@PLT
	jmp	.L933
	.p2align 4,,10
	.p2align 3
.L1097:
	movq	144(%rbx), %rbp
	testq	%rbp, %rbp
	je	.L916
	movq	160(%rbx), %rax
	movzbl	140(%rbx), %r13d
	movq	40(%rax), %rax
	movq	%rax, 16(%rsp)
	leaq	40(%rbp), %rax
	movq	%rax, %rdi
	movq	%rax, 24(%rsp)
	call	pthread_mutex_lock@PLT
	movq	144(%rbx), %rdi
	cmpb	$0, 144(%rdi)
	jne	.L888
	andl	$64, %r13d
	jne	.L1104
.L889:
	movq	$0, 8(%rsp)
	xorl	%ebp, %ebp
	movl	$0, 4(%rsp)
.L890:
	movslq	4(%rsp), %r12
	movq	%r12, %rax
	salq	$4, %rax
	movq	96(%rax,%rdi), %r14
	testq	%r14, %r14
	je	.L984
	movq	_ZGVZN4asio15system_categoryEvE8instance@GOTPCREL(%rip), %r15
	movq	_ZZN4asio15system_categoryEvE8instance@GOTPCREL(%rip), %r13
	movzbl	(%r15), %eax
	testb	%al, %al
	je	.L1105
	.p2align 4,,10
	.p2align 3
.L892:
	movq	144(%rbx), %rdi
	movq	%r12, %rax
	movl	$125, 24(%r14)
	salq	$4, %rax
	movq	%r13, 32(%r14)
	addq	%rdi, %rax
	movq	96(%rax), %rdx
	testq	%rdx, %rdx
	je	.L894
	movq	(%rdx), %r11
	movq	%r11, 96(%rax)
	testq	%r11, %r11
	je	.L1106
	movq	$0, (%rdx)
	movq	$0, (%r14)
	testq	%rbp, %rbp
	je	.L1107
.L981:
	movq	%r14, 0(%rbp)
	testq	%r11, %r11
	je	.L896
.L897:
	movzbl	(%r15), %eax
	movq	%r14, %rbp
	movq	%r11, %r14
	testb	%al, %al
	jne	.L892
.L1105:
	movq	%r15, %rdi
	call	__cxa_guard_acquire@PLT
	testl	%eax, %eax
	je	.L892
	movq	_ZN4asio6detail15system_categoryD1Ev@GOTPCREL(%rip), %rdi
	leaq	__dso_handle(%rip), %rdx
	movq	%r13, %rsi
	call	__cxa_atexit@PLT
	movq	%r15, %rdi
	call	__cxa_guard_release@PLT
	jmp	.L892
	.p2align 4,,10
	.p2align 3
.L929:
	movq	24(%rsp), %rdi
	call	pthread_mutex_unlock@PLT
.L1095:
	movl	104(%rbx), %r12d
	cmpl	$-1, %r12d
	je	.L927
.L957:
	call	__errno_location@PLT
	movzbl	108(%rbx), %r13d
	movq	%rax, %rbp
	testb	$8, %r13b
	jne	.L1092
	movq	_ZGVZN4asio15system_categoryEvE8instance@GOTPCREL(%rip), %r15
.L959:
	movl	$0, 0(%rbp)
	movl	%r12d, %edi
	call	close@PLT
	movl	%eax, %r13d
	movzbl	(%r15), %eax
	testb	%al, %al
	je	.L1108
.L964:
	movl	0(%rbp), %r14d
	testl	%r13d, %r13d
	je	.L927
	movzbl	(%r15), %eax
	testb	%al, %al
	je	.L1109
.L968:
	cmpl	$11, %r14d
	je	.L970
	movzbl	(%r15), %eax
	testb	%al, %al
	jne	.L927
	movq	%r15, %rdi
	call	__cxa_guard_acquire@PLT
	testl	%eax, %eax
	je	.L927
	movq	_ZZN4asio15system_categoryEvE8instance@GOTPCREL(%rip), %rsi
	movq	_ZN4asio6detail15system_categoryD1Ev@GOTPCREL(%rip), %rdi
	leaq	__dso_handle(%rip), %rdx
	call	__cxa_atexit@PLT
	movq	%r15, %rdi
	call	__cxa_guard_release@PLT
	jmp	.L927
	.p2align 4,,10
	.p2align 3
.L888:
	movq	24(%rsp), %rdi
	call	pthread_mutex_unlock@PLT
.L1094:
	movl	136(%rbx), %r12d
	cmpl	$-1, %r12d
	je	.L886
.L916:
	call	__errno_location@PLT
	movzbl	140(%rbx), %r13d
	movq	%rax, %rbp
	testb	$8, %r13b
	jne	.L1110
.L918:
	movl	$0, 0(%rbp)
	movl	%r12d, %edi
	call	close@PLT
	movq	_ZGVZN4asio15system_categoryEvE8instance@GOTPCREL(%rip), %r15
	movl	%eax, %ecx
	movzbl	(%r15), %eax
	testb	%al, %al
	je	.L1111
.L920:
	movl	0(%rbp), %r14d
	testl	%ecx, %ecx
	je	.L886
	movzbl	(%r15), %eax
	testb	%al, %al
	je	.L1112
.L924:
	cmpl	$11, %r14d
	je	.L926
	movzbl	(%r15), %eax
	testb	%al, %al
	jne	.L886
	movq	%r15, %rdi
	call	__cxa_guard_acquire@PLT
	testl	%eax, %eax
	je	.L886
	movq	_ZZN4asio15system_categoryEvE8instance@GOTPCREL(%rip), %rsi
	movq	_ZN4asio6detail15system_categoryD1Ev@GOTPCREL(%rip), %rdi
	leaq	__dso_handle(%rip), %rdx
	call	__cxa_atexit@PLT
	movq	%r15, %rdi
	call	__cxa_guard_release@PLT
	jmp	.L886
	.p2align 4,,10
	.p2align 3
.L1099:
	movq	56(%rsp), %rax
	subq	%fs:40, %rax
	jne	.L1096
	movq	(%rdi), %rax
	movq	24(%rax), %rax
	addq	$72, %rsp
	.cfi_remember_state
	.cfi_def_cfa_offset 56
	popq	%rbx
	.cfi_def_cfa_offset 48
	popq	%rbp
	.cfi_def_cfa_offset 40
	popq	%r12
	.cfi_def_cfa_offset 32
	popq	%r13
	.cfi_def_cfa_offset 24
	popq	%r14
	.cfi_def_cfa_offset 16
	popq	%r15
	.cfi_def_cfa_offset 8
	jmp	*%rax
	.p2align 4,,10
	.p2align 3
.L976:
	.cfi_restore_state
	movl	$-1, %eax
	lock xaddl	%eax, 12(%rdi)
	jmp	.L977
	.p2align 4,,10
	.p2align 3
.L935:
	movq	$0, (%r14)
	testq	%rbp, %rbp
	je	.L987
	movq	%r14, 0(%rbp)
.L937:
	addl	$1, 4(%rsp)
	movl	4(%rsp), %eax
	cmpl	$3, %eax
	je	.L939
.L1113:
	movq	%r14, %rbp
	jmp	.L931
	.p2align 4,,10
	.p2align 3
.L894:
	movq	$0, (%r14)
	testq	%rbp, %rbp
	je	.L988
	movq	%r14, 0(%rbp)
.L896:
	addl	$1, 4(%rsp)
	movl	4(%rsp), %eax
	cmpl	$3, %eax
	je	.L898
.L1115:
	movq	%r14, %rbp
	jmp	.L890
	.p2align 4,,10
	.p2align 3
.L1102:
	movq	$0, 104(%rax)
	movq	$0, (%rdx)
	movq	$0, (%r14)
	testq	%rbp, %rbp
	jne	.L980
	.p2align 4,,10
	.p2align 3
.L987:
	addl	$1, 4(%rsp)
	movl	4(%rsp), %eax
	movq	%r14, 8(%rsp)
	cmpl	$3, %eax
	jne	.L1113
.L939:
	movl	$-1, 88(%rdi)
	movb	$1, 144(%rdi)
	movq	24(%rsp), %rdi
	call	pthread_mutex_unlock@PLT
	movq	16(%rsp), %r15
	movq	112(%rbx), %rbp
	leaq	120(%r15), %r12
	movq	%r12, %rdi
	call	pthread_mutex_lock@PLT
	cmpq	160(%r15), %rbp
	je	.L1114
.L941:
	movq	32(%rbp), %rax
	testq	%rax, %rax
	je	.L942
	movq	24(%rbp), %rdx
	movq	%rdx, 24(%rax)
.L942:
	movq	24(%rbp), %rax
	testq	%rax, %rax
	je	.L943
	movq	32(%rbp), %rdx
	movq	%rdx, 32(%rax)
.L943:
	movq	16(%rsp), %r15
	movq	%r12, %rdi
	movq	168(%r15), %rax
	movq	$0, 32(%rbp)
	movq	%rax, 24(%rbp)
	movq	%rbp, 168(%r15)
	call	pthread_mutex_unlock@PLT
	cmpq	$0, 8(%rsp)
	movq	$0, 112(%rbx)
	je	.L1095
	movq	40(%r15), %rbp
	cmpb	$0, 40(%rbp)
	je	.L945
	data16	leaq	_ZN4asio6detail15keyword_tss_ptrINS0_10call_stackINS0_15task_io_serviceENS0_27task_io_service_thread_infoEE7contextEE6value_E@tlsgd(%rip), %rdi
	.value	0x6666
	rex64
	call	__tls_get_addr@PLT
	movq	(%rax), %rax
	testq	%rax, %rax
	jne	.L948
	jmp	.L945
	.p2align 4,,10
	.p2align 3
.L946:
	movq	16(%rax), %rax
	testq	%rax, %rax
	je	.L945
.L948:
	cmpq	(%rax), %rbp
	jne	.L946
	movq	8(%rax), %rax
	testq	%rax, %rax
	je	.L945
	movq	16(%rax), %rdx
	testq	%rdx, %rdx
	je	.L949
	movq	8(%rsp), %rsi
	movq	%rsi, (%rdx)
.L950:
	movq	%r14, 16(%rax)
	jmp	.L1095
	.p2align 4,,10
	.p2align 3
.L1106:
	movq	$0, 104(%rax)
	movq	$0, (%rdx)
	movq	$0, (%r14)
	testq	%rbp, %rbp
	jne	.L981
	.p2align 4,,10
	.p2align 3
.L988:
	addl	$1, 4(%rsp)
	movl	4(%rsp), %eax
	movq	%r14, 8(%rsp)
	cmpl	$3, %eax
	jne	.L1115
.L898:
	movl	$-1, 88(%rdi)
	movb	$1, 144(%rdi)
	movq	24(%rsp), %rdi
	call	pthread_mutex_unlock@PLT
	movq	16(%rsp), %r15
	movq	144(%rbx), %rbp
	leaq	120(%r15), %r12
	movq	%r12, %rdi
	call	pthread_mutex_lock@PLT
	cmpq	160(%r15), %rbp
	je	.L1116
.L900:
	movq	32(%rbp), %rax
	testq	%rax, %rax
	je	.L901
	movq	24(%rbp), %rdx
	movq	%rdx, 24(%rax)
.L901:
	movq	24(%rbp), %rax
	testq	%rax, %rax
	je	.L902
	movq	32(%rbp), %rdx
	movq	%rdx, 32(%rax)
.L902:
	movq	16(%rsp), %r15
	movq	%r12, %rdi
	movq	168(%r15), %rax
	movq	$0, 32(%rbp)
	movq	%rax, 24(%rbp)
	movq	%rbp, 168(%r15)
	call	pthread_mutex_unlock@PLT
	cmpq	$0, 8(%rsp)
	movq	$0, 144(%rbx)
	je	.L1094
	movq	40(%r15), %rbp
	cmpb	$0, 40(%rbp)
	je	.L904
	data16	leaq	_ZN4asio6detail15keyword_tss_ptrINS0_10call_stackINS0_15task_io_serviceENS0_27task_io_service_thread_infoEE7contextEE6value_E@tlsgd(%rip), %rdi
	.value	0x6666
	rex64
	call	__tls_get_addr@PLT
	movq	(%rax), %rax
	testq	%rax, %rax
	jne	.L907
	jmp	.L904
	.p2align 4,,10
	.p2align 3
.L905:
	movq	16(%rax), %rax
	testq	%rax, %rax
	je	.L904
.L907:
	cmpq	(%rax), %rbp
	jne	.L905
	movq	8(%rax), %rax
	testq	%rax, %rax
	je	.L904
	movq	16(%rax), %rdx
	testq	%rdx, %rdx
	je	.L908
	movq	8(%rsp), %rsi
	movq	%rsi, (%rdx)
.L909:
	movq	%r14, 16(%rax)
	jmp	.L1094
	.p2align 4,,10
	.p2align 3
.L1103:
	movq	%r14, 8(%rsp)
	jmp	.L938
	.p2align 4,,10
	.p2align 3
.L1107:
	movq	%r14, 8(%rsp)
	jmp	.L897
	.p2align 4,,10
	.p2align 3
.L1092:
	orl	$8, %r13d
	leaq	40(%rsp), %rcx
	movl	$8, %r8d
	movl	%r12d, %edi
	movb	%r13b, 108(%rbx)
	movl	$13, %edx
	movl	$1, %esi
	movl	$0, (%rax)
	movq	$0, 40(%rsp)
	call	setsockopt@PLT
	movq	_ZGVZN4asio15system_categoryEvE8instance@GOTPCREL(%rip), %r15
	movzbl	(%r15), %eax
	testb	%al, %al
	jne	.L959
	movq	%r15, %rdi
	call	__cxa_guard_acquire@PLT
	testl	%eax, %eax
	je	.L959
	movq	_ZZN4asio15system_categoryEvE8instance@GOTPCREL(%rip), %rsi
	movq	_ZN4asio6detail15system_categoryD1Ev@GOTPCREL(%rip), %rdi
	leaq	__dso_handle(%rip), %rdx
	call	__cxa_atexit@PLT
	movq	%r15, %rdi
	call	__cxa_guard_release@PLT
	jmp	.L959
	.p2align 4,,10
	.p2align 3
.L1108:
	movq	%r15, %rdi
	call	__cxa_guard_acquire@PLT
	testl	%eax, %eax
	je	.L964
	movq	_ZZN4asio15system_categoryEvE8instance@GOTPCREL(%rip), %rsi
	movq	_ZN4asio6detail15system_categoryD1Ev@GOTPCREL(%rip), %rdi
	leaq	__dso_handle(%rip), %rdx
	call	__cxa_atexit@PLT
	movq	%r15, %rdi
	call	__cxa_guard_release@PLT
	jmp	.L964
	.p2align 4,,10
	.p2align 3
.L1111:
	movq	%r15, %rdi
	movl	%ecx, 4(%rsp)
	call	__cxa_guard_acquire@PLT
	movl	4(%rsp), %ecx
	testl	%eax, %eax
	je	.L920
	movq	_ZZN4asio15system_categoryEvE8instance@GOTPCREL(%rip), %rsi
	movq	_ZN4asio6detail15system_categoryD1Ev@GOTPCREL(%rip), %rdi
	leaq	__dso_handle(%rip), %rdx
	call	__cxa_atexit@PLT
	movq	%r15, %rdi
	call	__cxa_guard_release@PLT
	movl	4(%rsp), %ecx
	jmp	.L920
	.p2align 4,,10
	.p2align 3
.L1110:
	orl	$8, %r13d
	leaq	40(%rsp), %rcx
	movl	$8, %r8d
	movl	%r12d, %edi
	movb	%r13b, 140(%rbx)
	movl	$13, %edx
	movl	$1, %esi
	movl	$0, (%rax)
	movq	$0, 40(%rsp)
	call	setsockopt@PLT
	call	_ZN4asio15system_categoryEv@PLT
	jmp	.L918
.L970:
	leaq	40(%rsp), %rdx
	movl	$21537, %esi
	movl	%r12d, %edi
	xorl	%eax, %eax
	movl	$0, 40(%rsp)
	call	ioctl@PLT
	andb	$-4, 108(%rbx)
	movl	%r12d, %edi
	movl	$0, 0(%rbp)
	call	close@PLT
	call	_ZN4asio15system_categoryEv@PLT
	jmp	.L927
.L926:
	leaq	40(%rsp), %rdx
	movl	$21537, %esi
	movl	%r12d, %edi
	xorl	%eax, %eax
	movl	$0, 40(%rsp)
	call	ioctl@PLT
	andb	$-4, 140(%rbx)
	movl	%r12d, %edi
	movl	$0, 0(%rbp)
	call	close@PLT
	call	_ZN4asio15system_categoryEv@PLT
	jmp	.L886
	.p2align 4,,10
	.p2align 3
.L945:
	leaq	48(%rbp), %r12
	movq	%r12, %rdi
	call	pthread_mutex_lock@PLT
	movq	200(%rbp), %rax
	testq	%rax, %rax
	je	.L952
	movq	8(%rsp), %rsi
	movq	%rsi, (%rax)
.L953:
	movq	136(%rbp), %rax
	movq	%r14, 200(%rbp)
	orq	$1, %rax
	movq	%rax, 136(%rbp)
	cmpq	$1, %rax
	je	.L954
	movq	%r12, %rdi
	call	pthread_mutex_unlock@PLT
	leaq	88(%rbp), %rdi
	call	pthread_cond_signal@PLT
	jmp	.L1095
.L954:
	cmpb	$0, 176(%rbp)
	jne	.L956
	movq	144(%rbp), %rax
	testq	%rax, %rax
	je	.L956
	movb	$1, 176(%rbp)
	leaq	88(%rax), %rdx
	leaq	40(%rsp), %rcx
	movl	$3, %esi
	movq	%rdx, 44(%rsp)
	movl	88(%rax), %edx
	movl	$-2147483639, 40(%rsp)
	movl	96(%rax), %edi
	call	epoll_ctl@PLT
.L956:
	movq	%r12, %rdi
	call	pthread_mutex_unlock@PLT
	jmp	.L1095
	.p2align 4,,10
	.p2align 3
.L904:
	leaq	48(%rbp), %r12
	movq	%r12, %rdi
	call	pthread_mutex_lock@PLT
	movq	200(%rbp), %rax
	testq	%rax, %rax
	je	.L911
	movq	8(%rsp), %rsi
	movq	%rsi, (%rax)
.L912:
	movq	136(%rbp), %rax
	movq	%r14, 200(%rbp)
	orq	$1, %rax
	movq	%rax, 136(%rbp)
	cmpq	$1, %rax
	je	.L913
	movq	%r12, %rdi
	call	pthread_mutex_unlock@PLT
	leaq	88(%rbp), %rdi
	call	pthread_cond_signal@PLT
	jmp	.L1094
.L913:
	cmpb	$0, 176(%rbp)
	jne	.L915
	movq	144(%rbp), %rax
	testq	%rax, %rax
	je	.L915
	movb	$1, 176(%rbp)
	leaq	88(%rax), %rdx
	leaq	40(%rsp), %rcx
	movl	$3, %esi
	movq	%rdx, 44(%rsp)
	movl	88(%rax), %edx
	movl	$-2147483639, 40(%rsp)
	movl	96(%rax), %edi
	call	epoll_ctl@PLT
.L915:
	movq	%r12, %rdi
	call	pthread_mutex_unlock@PLT
	jmp	.L1094
	.p2align 4,,10
	.p2align 3
.L984:
	movq	%rbp, %r14
	jmp	.L896
	.p2align 4,,10
	.p2align 3
.L1104:
	movq	16(%rsp), %rax
	movl	$0, 40(%rsp)
	leaq	40(%rsp), %rcx
	movl	%r12d, %edx
	movq	$0, 44(%rsp)
	movl	$2, %esi
	movl	96(%rax), %edi
	call	epoll_ctl@PLT
	movq	144(%rbx), %rdi
	jmp	.L889
	.p2align 4,,10
	.p2align 3
.L986:
	movq	%rbp, %r14
	jmp	.L937
	.p2align 4,,10
	.p2align 3
.L1100:
	movq	16(%rsp), %rax
	movl	$0, 40(%rsp)
	leaq	40(%rsp), %rcx
	movl	%r12d, %edx
	movq	$0, 44(%rsp)
	movl	$2, %esi
	movl	96(%rax), %edi
	call	epoll_ctl@PLT
	movq	112(%rbx), %rdi
	jmp	.L930
	.p2align 4,,10
	.p2align 3
.L1116:
	movq	24(%rbp), %rax
	movq	16(%rsp), %rsi
	movq	%rax, 160(%rsi)
	jmp	.L900
	.p2align 4,,10
	.p2align 3
.L1114:
	movq	24(%rbp), %rax
	movq	16(%rsp), %rsi
	movq	%rax, 160(%rsi)
	jmp	.L941
.L1109:
	movq	%r15, %rdi
	call	__cxa_guard_acquire@PLT
	testl	%eax, %eax
	je	.L968
	movq	_ZZN4asio15system_categoryEvE8instance@GOTPCREL(%rip), %rsi
	movq	_ZN4asio6detail15system_categoryD1Ev@GOTPCREL(%rip), %rdi
	leaq	__dso_handle(%rip), %rdx
	call	__cxa_atexit@PLT
	movq	%r15, %rdi
	call	__cxa_guard_release@PLT
	jmp	.L968
.L1112:
	movq	%r15, %rdi
	call	__cxa_guard_acquire@PLT
	testl	%eax, %eax
	je	.L924
	movq	_ZZN4asio15system_categoryEvE8instance@GOTPCREL(%rip), %rsi
	movq	_ZN4asio6detail15system_categoryD1Ev@GOTPCREL(%rip), %rdi
	leaq	__dso_handle(%rip), %rdx
	call	__cxa_atexit@PLT
	movq	%r15, %rdi
	call	__cxa_guard_release@PLT
	jmp	.L924
.L952:
	movq	8(%rsp), %rax
	movq	%rax, 192(%rbp)
	jmp	.L953
.L911:
	movq	8(%rsp), %rax
	movq	%rax, 192(%rbp)
	jmp	.L912
.L949:
	movq	8(%rsp), %rcx
	movq	%rcx, 8(%rax)
	jmp	.L950
.L908:
	movq	8(%rsp), %rcx
	movq	%rcx, 8(%rax)
	jmp	.L909
.L1096:
	call	__stack_chk_fail@PLT
	.cfi_endproc
.LFE11144:
	.section	.gcc_except_table
.LLSDA11144:
	.byte	0xff
	.byte	0xff
	.byte	0x1
	.uleb128 .LLSDACSE11144-.LLSDACSB11144
.LLSDACSB11144:
.LLSDACSE11144:
	.section	.text._ZN8asiodnp315MasterTCPServerD2Ev,"axG",@progbits,_ZN8asiodnp315MasterTCPServerD5Ev,comdat
	.size	_ZN8asiodnp315MasterTCPServerD2Ev, .-_ZN8asiodnp315MasterTCPServerD2Ev
	.weak	_ZN8asiodnp315MasterTCPServerD1Ev
	.set	_ZN8asiodnp315MasterTCPServerD1Ev,_ZN8asiodnp315MasterTCPServerD2Ev
	.section	.text._ZN8asiodnp315MasterTCPServerD0Ev,"axG",@progbits,_ZN8asiodnp315MasterTCPServerD5Ev,comdat
	.align 2
	.p2align 4
	.weak	_ZN8asiodnp315MasterTCPServerD0Ev
	.type	_ZN8asiodnp315MasterTCPServerD0Ev, @function
_ZN8asiodnp315MasterTCPServerD0Ev:
.LFB11146:
	.cfi_startproc
	.cfi_personality 0x9b,DW.ref.__gxx_personality_v0
	.cfi_lsda 0x1b,.LLSDA11146
	endbr64
	pushq	%r15
	.cfi_def_cfa_offset 16
	.cfi_offset 15, -16
	pushq	%r14
	.cfi_def_cfa_offset 24
	.cfi_offset 14, -24
	pushq	%r13
	.cfi_def_cfa_offset 32
	.cfi_offset 13, -32
	pushq	%r12
	.cfi_def_cfa_offset 40
	.cfi_offset 12, -40
	pushq	%rbp
	.cfi_def_cfa_offset 48
	.cfi_offset 6, -48
	movq	%rdi, %rbp
	pushq	%rbx
	.cfi_def_cfa_offset 56
	.cfi_offset 3, -56
	subq	$72, %rsp
	.cfi_def_cfa_offset 128
	movq	%fs:40, %rax
	movq	%rax, 56(%rsp)
	movq	_ZTVN8asiodnp315MasterTCPServerE@GOTPCREL(%rip), %rax
	addq	$16, %rax
	movq	%rax, (%rdi)
	movq	232(%rdi), %rdi
	testq	%rdi, %rdi
	je	.L1118
	call	_ZNSt16_Sp_counted_baseILN9__gnu_cxx12_Lock_policyE2EE10_M_releaseEv@PLT
.L1118:
	movq	216(%rbp), %rdi
	testq	%rdi, %rdi
	je	.L1119
	call	_ZNSt16_Sp_counted_baseILN9__gnu_cxx12_Lock_policyE2EE10_M_releaseEv@PLT
.L1119:
	movq	_ZTVN7asiopal9TCPServerE@GOTPCREL(%rip), %rax
	movl	136(%rbp), %r13d
	addq	$16, %rax
	movq	%rax, 0(%rbp)
	cmpl	$-1, %r13d
	jne	.L1330
.L1120:
	movl	104(%rbp), %r13d
	cmpl	$-1, %r13d
	jne	.L1331
.L1161:
	movq	64(%rbp), %rdi
	testq	%rdi, %rdi
	je	.L1205
	call	_ZNSt16_Sp_counted_baseILN9__gnu_cxx12_Lock_policyE2EE10_M_releaseEv@PLT
.L1205:
	movq	48(%rbp), %rdi
	testq	%rdi, %rdi
	je	.L1206
	call	_ZNSt16_Sp_counted_baseILN9__gnu_cxx12_Lock_policyE2EE10_M_releaseEv@PLT
.L1206:
	movq	32(%rbp), %rdi
	testq	%rdi, %rdi
	je	.L1207
	call	_ZNSt16_Sp_counted_baseILN9__gnu_cxx12_Lock_policyE2EE10_M_releaseEv@PLT
.L1207:
	movq	16(%rbp), %rdi
	testq	%rdi, %rdi
	je	.L1209
	movq	__libc_single_threaded@GOTPCREL(%rip), %rax
	cmpb	$0, (%rax)
	je	.L1210
	movl	12(%rdi), %eax
	leal	-1(%rax), %edx
	movl	%edx, 12(%rdi)
.L1211:
	cmpl	$1, %eax
	je	.L1332
.L1209:
	movq	56(%rsp), %rax
	subq	%fs:40, %rax
	jne	.L1333
	addq	$72, %rsp
	.cfi_remember_state
	.cfi_def_cfa_offset 56
	movq	%rbp, %rdi
	movl	$240, %esi
	popq	%rbx
	.cfi_def_cfa_offset 48
	popq	%rbp
	.cfi_def_cfa_offset 40
	popq	%r12
	.cfi_def_cfa_offset 32
	popq	%r13
	.cfi_def_cfa_offset 24
	popq	%r14
	.cfi_def_cfa_offset 16
	popq	%r15
	.cfi_def_cfa_offset 8
	jmp	_ZdlPvm@PLT
	.p2align 4,,10
	.p2align 3
.L1331:
	.cfi_restore_state
	movq	112(%rbp), %r12
	testq	%r12, %r12
	je	.L1191
	movq	128(%rbp), %rax
	movzbl	108(%rbp), %ebx
	movq	40(%rax), %rax
	movq	%rax, 16(%rsp)
	leaq	40(%r12), %rax
	movq	%rax, %rdi
	movq	%rax, 24(%rsp)
	call	pthread_mutex_lock@PLT
	movq	112(%rbp), %rdi
	cmpb	$0, 144(%rdi)
	jne	.L1163
	andl	$64, %ebx
	jne	.L1334
.L1164:
	movq	$0, 8(%rsp)
	xorl	%r12d, %r12d
	movl	$0, (%rsp)
.L1165:
	movslq	(%rsp), %r13
	movq	%r13, %rax
	salq	$4, %rax
	movq	96(%rax,%rdi), %r14
	testq	%r14, %r14
	je	.L1220
	movq	_ZGVZN4asio15system_categoryEvE8instance@GOTPCREL(%rip), %r15
	movq	_ZZN4asio15system_categoryEvE8instance@GOTPCREL(%rip), %rbx
	movzbl	(%r15), %eax
	testb	%al, %al
	je	.L1335
	.p2align 4,,10
	.p2align 3
.L1167:
	movq	112(%rbp), %rdi
	movq	%r13, %rax
	movl	$125, 24(%r14)
	salq	$4, %rax
	movq	%rbx, 32(%r14)
	addq	%rdi, %rax
	movq	96(%rax), %rdx
	testq	%rdx, %rdx
	je	.L1169
	movq	(%rdx), %r11
	movq	%r11, 96(%rax)
	testq	%r11, %r11
	je	.L1336
	movq	$0, (%rdx)
	movq	$0, (%r14)
	testq	%r12, %r12
	je	.L1337
.L1214:
	movq	%r14, (%r12)
	testq	%r11, %r11
	je	.L1171
.L1172:
	movzbl	(%r15), %eax
	movq	%r14, %r12
	movq	%r11, %r14
	testb	%al, %al
	jne	.L1167
.L1335:
	movq	%r15, %rdi
	call	__cxa_guard_acquire@PLT
	testl	%eax, %eax
	je	.L1167
	movq	_ZN4asio6detail15system_categoryD1Ev@GOTPCREL(%rip), %rdi
	leaq	__dso_handle(%rip), %rdx
	movq	%rbx, %rsi
	call	__cxa_atexit@PLT
	movq	%r15, %rdi
	call	__cxa_guard_release@PLT
	jmp	.L1167
	.p2align 4,,10
	.p2align 3
.L1330:
	movq	144(%rbp), %r12
	testq	%r12, %r12
	je	.L1150
	movq	160(%rbp), %rax
	movzbl	140(%rbp), %ebx
	movq	40(%rax), %rax
	movq	%rax, 16(%rsp)
	leaq	40(%r12), %rax
	movq	%rax, %rdi
	movq	%rax, 24(%rsp)
	call	pthread_mutex_lock@PLT
	movq	144(%rbp), %rdi
	cmpb	$0, 144(%rdi)
	jne	.L1122
	andl	$64, %ebx
	jne	.L1338
.L1123:
	movq	$0, 8(%rsp)
	xorl	%r13d, %r13d
	movl	$0, (%rsp)
.L1124:
	movslq	(%rsp), %r12
	movq	%r12, %rax
	salq	$4, %rax
	movq	96(%rax,%rdi), %r14
	testq	%r14, %r14
	je	.L1218
	movq	_ZGVZN4asio15system_categoryEvE8instance@GOTPCREL(%rip), %r15
	movq	_ZZN4asio15system_categoryEvE8instance@GOTPCREL(%rip), %rbx
	movzbl	(%r15), %eax
	testb	%al, %al
	je	.L1339
	.p2align 4,,10
	.p2align 3
.L1126:
	movq	144(%rbp), %rdi
	movq	%r12, %rax
	movl	$125, 24(%r14)
	salq	$4, %rax
	movq	%rbx, 32(%r14)
	addq	%rdi, %rax
	movq	96(%rax), %rdx
	testq	%rdx, %rdx
	je	.L1128
	movq	(%rdx), %r11
	movq	%r11, 96(%rax)
	testq	%r11, %r11
	je	.L1340
	movq	$0, (%rdx)
	movq	$0, (%r14)
	testq	%r13, %r13
	je	.L1341
.L1215:
	movq	%r14, 0(%r13)
	testq	%r11, %r11
	je	.L1130
.L1131:
	movzbl	(%r15), %eax
	movq	%r14, %r13
	movq	%r11, %r14
	testb	%al, %al
	jne	.L1126
.L1339:
	movq	%r15, %rdi
	call	__cxa_guard_acquire@PLT
	testl	%eax, %eax
	je	.L1126
	movq	_ZN4asio6detail15system_categoryD1Ev@GOTPCREL(%rip), %rdi
	leaq	__dso_handle(%rip), %rdx
	movq	%rbx, %rsi
	call	__cxa_atexit@PLT
	movq	%r15, %rdi
	call	__cxa_guard_release@PLT
	jmp	.L1126
	.p2align 4,,10
	.p2align 3
.L1163:
	movq	24(%rsp), %rdi
	call	pthread_mutex_unlock@PLT
.L1329:
	movl	104(%rbp), %r13d
	cmpl	$-1, %r13d
	je	.L1161
.L1191:
	call	__errno_location@PLT
	movzbl	108(%rbp), %r12d
	movq	%rax, %rbx
	testb	$8, %r12b
	jne	.L1326
	movq	_ZGVZN4asio15system_categoryEvE8instance@GOTPCREL(%rip), %r15
.L1193:
	movl	$0, (%rbx)
	movl	%r13d, %edi
	call	close@PLT
	movl	%eax, %r12d
	movzbl	(%r15), %eax
	testb	%al, %al
	je	.L1342
.L1198:
	movl	(%rbx), %r14d
	testl	%r12d, %r12d
	je	.L1161
	movzbl	(%r15), %eax
	testb	%al, %al
	je	.L1343
.L1202:
	cmpl	$11, %r14d
	je	.L1204
	movzbl	(%r15), %eax
	testb	%al, %al
	jne	.L1161
	movq	%r15, %rdi
	call	__cxa_guard_acquire@PLT
	testl	%eax, %eax
	je	.L1161
	movq	_ZZN4asio15system_categoryEvE8instance@GOTPCREL(%rip), %rsi
	movq	_ZN4asio6detail15system_categoryD1Ev@GOTPCREL(%rip), %rdi
	leaq	__dso_handle(%rip), %rdx
	call	__cxa_atexit@PLT
	movq	%r15, %rdi
	call	__cxa_guard_release@PLT
	jmp	.L1161
	.p2align 4,,10
	.p2align 3
.L1122:
	movq	24(%rsp), %rdi
	call	pthread_mutex_unlock@PLT
.L1328:
	movl	136(%rbp), %r13d
	cmpl	$-1, %r13d
	je	.L1120
.L1150:
	call	__errno_location@PLT
	movzbl	140(%rbp), %r12d
	movq	%rax, (%rsp)
	testb	$8, %r12b
	jne	.L1344
.L1152:
	movq	(%rsp), %rax
	movl	%r13d, %edi
	movl	$0, (%rax)
	call	close@PLT
	movq	_ZGVZN4asio15system_categoryEvE8instance@GOTPCREL(%rip), %r15
	movl	%eax, %r12d
	movzbl	(%r15), %eax
	testb	%al, %al
	je	.L1345
.L1154:
	movq	(%rsp), %rax
	movl	(%rax), %r14d
	testl	%r12d, %r12d
	je	.L1120
	movzbl	(%r15), %eax
	testb	%al, %al
	je	.L1346
.L1158:
	cmpl	$11, %r14d
	je	.L1160
	movzbl	(%r15), %eax
	testb	%al, %al
	jne	.L1120
	movq	%r15, %rdi
	call	__cxa_guard_acquire@PLT
	testl	%eax, %eax
	je	.L1120
	movq	_ZZN4asio15system_categoryEvE8instance@GOTPCREL(%rip), %rsi
	movq	_ZN4asio6detail15system_categoryD1Ev@GOTPCREL(%rip), %rdi
	leaq	__dso_handle(%rip), %rdx
	call	__cxa_atexit@PLT
	movq	%r15, %rdi
	call	__cxa_guard_release@PLT
	jmp	.L1120
	.p2align 4,,10
	.p2align 3
.L1332:
	movq	(%rdi), %rax
	call	*24(%rax)
	jmp	.L1209
	.p2align 4,,10
	.p2align 3
.L1210:
	movl	$-1, %eax
	lock xaddl	%eax, 12(%rdi)
	jmp	.L1211
	.p2align 4,,10
	.p2align 3
.L1169:
	movq	$0, (%r14)
	testq	%r12, %r12
	je	.L1221
	movq	%r14, (%r12)
.L1171:
	addl	$1, (%rsp)
	movl	(%rsp), %eax
	cmpl	$3, %eax
	je	.L1173
.L1347:
	movq	%r14, %r12
	jmp	.L1165
	.p2align 4,,10
	.p2align 3
.L1128:
	movq	$0, (%r14)
	testq	%r13, %r13
	je	.L1222
	movq	%r14, 0(%r13)
.L1130:
	addl	$1, (%rsp)
	movl	(%rsp), %eax
	cmpl	$3, %eax
	je	.L1132
.L1349:
	movq	%r14, %r13
	jmp	.L1124
	.p2align 4,,10
	.p2align 3
.L1336:
	movq	$0, 104(%rax)
	movq	$0, (%rdx)
	movq	$0, (%r14)
	testq	%r12, %r12
	jne	.L1214
	.p2align 4,,10
	.p2align 3
.L1221:
	addl	$1, (%rsp)
	movl	(%rsp), %eax
	movq	%r14, 8(%rsp)
	cmpl	$3, %eax
	jne	.L1347
.L1173:
	movl	$-1, 88(%rdi)
	movb	$1, 144(%rdi)
	movq	24(%rsp), %rdi
	call	pthread_mutex_unlock@PLT
	movq	16(%rsp), %r15
	movq	112(%rbp), %rbx
	leaq	120(%r15), %r12
	movq	%r12, %rdi
	call	pthread_mutex_lock@PLT
	cmpq	160(%r15), %rbx
	je	.L1348
.L1175:
	movq	32(%rbx), %rax
	testq	%rax, %rax
	je	.L1176
	movq	24(%rbx), %rdx
	movq	%rdx, 24(%rax)
.L1176:
	movq	24(%rbx), %rax
	testq	%rax, %rax
	je	.L1177
	movq	32(%rbx), %rdx
	movq	%rdx, 32(%rax)
.L1177:
	movq	16(%rsp), %r15
	movq	%r12, %rdi
	movq	168(%r15), %rax
	movq	$0, 32(%rbx)
	movq	%rax, 24(%rbx)
	movq	%rbx, 168(%r15)
	call	pthread_mutex_unlock@PLT
	cmpq	$0, 8(%rsp)
	movq	$0, 112(%rbp)
	je	.L1329
	movq	40(%r15), %rbx
	cmpb	$0, 40(%rbx)
	je	.L1179
	data16	leaq	_ZN4asio6detail15keyword_tss_ptrINS0_10call_stackINS0_15task_io_serviceENS0_27task_io_service_thread_infoEE7contextEE6value_E@tlsgd(%rip), %rdi
	.value	0x6666
	rex64
	call	__tls_get_addr@PLT
	movq	(%rax), %rax
	testq	%rax, %rax
	jne	.L1182
	jmp	.L1179
	.p2align 4,,10
	.p2align 3
.L1180:
	movq	16(%rax), %rax
	testq	%rax, %rax
	je	.L1179
.L1182:
	cmpq	(%rax), %rbx
	jne	.L1180
	movq	8(%rax), %rax
	testq	%rax, %rax
	je	.L1179
	movq	16(%rax), %rdx
	movq	8(%rsp), %rcx
	testq	%rdx, %rdx
	je	.L1183
	movq	%rcx, (%rdx)
.L1184:
	movq	%r14, 16(%rax)
	jmp	.L1329
	.p2align 4,,10
	.p2align 3
.L1340:
	movq	$0, 104(%rax)
	movq	$0, (%rdx)
	movq	$0, (%r14)
	testq	%r13, %r13
	jne	.L1215
	.p2align 4,,10
	.p2align 3
.L1222:
	addl	$1, (%rsp)
	movl	(%rsp), %eax
	movq	%r14, 8(%rsp)
	cmpl	$3, %eax
	jne	.L1349
.L1132:
	movl	$-1, 88(%rdi)
	movb	$1, 144(%rdi)
	movq	24(%rsp), %rdi
	call	pthread_mutex_unlock@PLT
	movq	16(%rsp), %r15
	movq	144(%rbp), %rbx
	leaq	120(%r15), %r12
	movq	%r12, %rdi
	call	pthread_mutex_lock@PLT
	cmpq	160(%r15), %rbx
	je	.L1350
.L1134:
	movq	32(%rbx), %rax
	testq	%rax, %rax
	je	.L1135
	movq	24(%rbx), %rdx
	movq	%rdx, 24(%rax)
.L1135:
	movq	24(%rbx), %rax
	testq	%rax, %rax
	je	.L1136
	movq	32(%rbx), %rdx
	movq	%rdx, 32(%rax)
.L1136:
	movq	16(%rsp), %r15
	movq	%r12, %rdi
	movq	168(%r15), %rax
	movq	$0, 32(%rbx)
	movq	%rax, 24(%rbx)
	movq	%rbx, 168(%r15)
	call	pthread_mutex_unlock@PLT
	cmpq	$0, 8(%rsp)
	movq	$0, 144(%rbp)
	je	.L1328
	movq	40(%r15), %rbx
	cmpb	$0, 40(%rbx)
	je	.L1138
	data16	leaq	_ZN4asio6detail15keyword_tss_ptrINS0_10call_stackINS0_15task_io_serviceENS0_27task_io_service_thread_infoEE7contextEE6value_E@tlsgd(%rip), %rdi
	.value	0x6666
	rex64
	call	__tls_get_addr@PLT
	movq	(%rax), %rax
	testq	%rax, %rax
	jne	.L1141
	jmp	.L1138
	.p2align 4,,10
	.p2align 3
.L1139:
	movq	16(%rax), %rax
	testq	%rax, %rax
	je	.L1138
.L1141:
	cmpq	(%rax), %rbx
	jne	.L1139
	movq	8(%rax), %rax
	testq	%rax, %rax
	je	.L1138
	movq	16(%rax), %rdx
	movq	8(%rsp), %rcx
	testq	%rdx, %rdx
	je	.L1142
	movq	%rcx, (%rdx)
.L1143:
	movq	%r14, 16(%rax)
	jmp	.L1328
	.p2align 4,,10
	.p2align 3
.L1337:
	movq	%r14, 8(%rsp)
	jmp	.L1172
	.p2align 4,,10
	.p2align 3
.L1341:
	movq	%r14, 8(%rsp)
	jmp	.L1131
	.p2align 4,,10
	.p2align 3
.L1326:
	orl	$8, %r12d
	leaq	40(%rsp), %rcx
	movl	$8, %r8d
	movl	%r13d, %edi
	movb	%r12b, 108(%rbp)
	movl	$13, %edx
	movl	$1, %esi
	movl	$0, (%rax)
	movq	$0, 40(%rsp)
	call	setsockopt@PLT
	movq	_ZGVZN4asio15system_categoryEvE8instance@GOTPCREL(%rip), %r15
	movzbl	(%r15), %eax
	testb	%al, %al
	jne	.L1193
	movq	%r15, %rdi
	call	__cxa_guard_acquire@PLT
	testl	%eax, %eax
	je	.L1193
	movq	_ZZN4asio15system_categoryEvE8instance@GOTPCREL(%rip), %rsi
	movq	_ZN4asio6detail15system_categoryD1Ev@GOTPCREL(%rip), %rdi
	leaq	__dso_handle(%rip), %rdx
	call	__cxa_atexit@PLT
	movq	%r15, %rdi
	call	__cxa_guard_release@PLT
	jmp	.L1193
	.p2align 4,,10
	.p2align 3
.L1342:
	movq	%r15, %rdi
	call	__cxa_guard_acquire@PLT
	testl	%eax, %eax
	je	.L1198
	movq	_ZZN4asio15system_categoryEvE8instance@GOTPCREL(%rip), %rsi
	movq	_ZN4asio6detail15system_categoryD1Ev@GOTPCREL(%rip), %rdi
	leaq	__dso_handle(%rip), %rdx
	call	__cxa_atexit@PLT
	movq	%r15, %rdi
	call	__cxa_guard_release@PLT
	jmp	.L1198
	.p2align 4,,10
	.p2align 3
.L1345:
	movq	%r15, %rdi
	call	__cxa_guard_acquire@PLT
	testl	%eax, %eax
	je	.L1154
	movq	_ZZN4asio15system_categoryEvE8instance@GOTPCREL(%rip), %rsi
	movq	_ZN4asio6detail15system_categoryD1Ev@GOTPCREL(%rip), %rdi
	leaq	__dso_handle(%rip), %rdx
	call	__cxa_atexit@PLT
	movq	%r15, %rdi
	call	__cxa_guard_release@PLT
	jmp	.L1154
	.p2align 4,,10
	.p2align 3
.L1344:
	orl	$8, %r12d
	leaq	40(%rsp), %rcx
	movl	$8, %r8d
	movl	%r13d, %edi
	movb	%r12b, 140(%rbp)
	movl	$13, %edx
	movl	$1, %esi
	movl	$0, (%rax)
	movq	$0, 40(%rsp)
	call	setsockopt@PLT
	call	_ZN4asio15system_categoryEv@PLT
	jmp	.L1152
.L1204:
	leaq	40(%rsp), %rdx
	movl	$21537, %esi
	movl	%r13d, %edi
	xorl	%eax, %eax
	movl	$0, 40(%rsp)
	call	ioctl@PLT
	andb	$-4, 108(%rbp)
	movl	%r13d, %edi
	movl	$0, (%rbx)
	call	close@PLT
	call	_ZN4asio15system_categoryEv@PLT
	jmp	.L1161
.L1160:
	leaq	40(%rsp), %rdx
	movl	$21537, %esi
	movl	%r13d, %edi
	xorl	%eax, %eax
	movl	$0, 40(%rsp)
	call	ioctl@PLT
	movq	(%rsp), %rax
	andb	$-4, 140(%rbp)
	movl	%r13d, %edi
	movl	$0, (%rax)
	call	close@PLT
	call	_ZN4asio15system_categoryEv@PLT
	jmp	.L1120
	.p2align 4,,10
	.p2align 3
.L1179:
	leaq	48(%rbx), %r12
	movq	%r12, %rdi
	call	pthread_mutex_lock@PLT
	movq	200(%rbx), %rax
	testq	%rax, %rax
	je	.L1186
	movq	8(%rsp), %rcx
	movq	%rcx, (%rax)
.L1187:
	movq	136(%rbx), %rax
	movq	%r14, 200(%rbx)
	orq	$1, %rax
	movq	%rax, 136(%rbx)
	cmpq	$1, %rax
	je	.L1188
	movq	%r12, %rdi
	call	pthread_mutex_unlock@PLT
	leaq	88(%rbx), %rdi
	call	pthread_cond_signal@PLT
	jmp	.L1329
.L1188:
	cmpb	$0, 176(%rbx)
	jne	.L1190
	movq	144(%rbx), %rax
	testq	%rax, %rax
	je	.L1190
	movb	$1, 176(%rbx)
	leaq	88(%rax), %rdx
	leaq	40(%rsp), %rcx
	movl	$3, %esi
	movq	%rdx, 44(%rsp)
	movl	88(%rax), %edx
	movl	$-2147483639, 40(%rsp)
	movl	96(%rax), %edi
	call	epoll_ctl@PLT
.L1190:
	movq	%r12, %rdi
	call	pthread_mutex_unlock@PLT
	jmp	.L1329
	.p2align 4,,10
	.p2align 3
.L1138:
	leaq	48(%rbx), %r12
	movq	%r12, %rdi
	call	pthread_mutex_lock@PLT
	movq	200(%rbx), %rax
	testq	%rax, %rax
	je	.L1145
	movq	8(%rsp), %rcx
	movq	%rcx, (%rax)
.L1146:
	movq	136(%rbx), %rax
	movq	%r14, 200(%rbx)
	orq	$1, %rax
	movq	%rax, 136(%rbx)
	cmpq	$1, %rax
	je	.L1147
	movq	%r12, %rdi
	call	pthread_mutex_unlock@PLT
	leaq	88(%rbx), %rdi
	call	pthread_cond_signal@PLT
	jmp	.L1328
.L1147:
	cmpb	$0, 176(%rbx)
	jne	.L1149
	movq	144(%rbx), %rax
	testq	%rax, %rax
	je	.L1149
	movb	$1, 176(%rbx)
	leaq	88(%rax), %rdx
	leaq	40(%rsp), %rcx
	movl	$3, %esi
	movq	%rdx, 44(%rsp)
	movl	88(%rax), %edx
	movl	$-2147483639, 40(%rsp)
	movl	96(%rax), %edi
	call	epoll_ctl@PLT
.L1149:
	movq	%r12, %rdi
	call	pthread_mutex_unlock@PLT
	jmp	.L1328
	.p2align 4,,10
	.p2align 3
.L1218:
	movq	%r13, %r14
	jmp	.L1130
	.p2align 4,,10
	.p2align 3
.L1338:
	movq	16(%rsp), %rax
	movl	$0, 40(%rsp)
	leaq	40(%rsp), %rcx
	movl	%r13d, %edx
	movq	$0, 44(%rsp)
	movl	$2, %esi
	movl	96(%rax), %edi
	call	epoll_ctl@PLT
	movq	144(%rbp), %rdi
	jmp	.L1123
	.p2align 4,,10
	.p2align 3
.L1220:
	movq	%r12, %r14
	jmp	.L1171
	.p2align 4,,10
	.p2align 3
.L1334:
	movq	16(%rsp), %rax
	movl	$0, 40(%rsp)
	leaq	40(%rsp), %rcx
	movl	%r13d, %edx
	movq	$0, 44(%rsp)
	movl	$2, %esi
	movl	96(%rax), %edi
	call	epoll_ctl@PLT
	movq	112(%rbp), %rdi
	jmp	.L1164
	.p2align 4,,10
	.p2align 3
.L1350:
	movq	24(%rbx), %rax
	movq	16(%rsp), %rcx
	movq	%rax, 160(%rcx)
	jmp	.L1134
	.p2align 4,,10
	.p2align 3
.L1348:
	movq	24(%rbx), %rax
	movq	16(%rsp), %rcx
	movq	%rax, 160(%rcx)
	jmp	.L1175
.L1343:
	movq	%r15, %rdi
	call	__cxa_guard_acquire@PLT
	testl	%eax, %eax
	je	.L1202
	movq	_ZZN4asio15system_categoryEvE8instance@GOTPCREL(%rip), %rsi
	movq	_ZN4asio6detail15system_categoryD1Ev@GOTPCREL(%rip), %rdi
	leaq	__dso_handle(%rip), %rdx
	call	__cxa_atexit@PLT
	movq	%r15, %rdi
	call	__cxa_guard_release@PLT
	jmp	.L1202
.L1346:
	movq	%r15, %rdi
	call	__cxa_guard_acquire@PLT
	testl	%eax, %eax
	je	.L1158
	movq	_ZZN4asio15system_categoryEvE8instance@GOTPCREL(%rip), %rsi
	movq	_ZN4asio6detail15system_categoryD1Ev@GOTPCREL(%rip), %rdi
	leaq	__dso_handle(%rip), %rdx
	call	__cxa_atexit@PLT
	movq	%r15, %rdi
	call	__cxa_guard_release@PLT
	jmp	.L1158
.L1186:
	movq	8(%rsp), %rax
	movq	%rax, 192(%rbx)
	jmp	.L1187
.L1145:
	movq	8(%rsp), %rax
	movq	%rax, 192(%rbx)
	jmp	.L1146
.L1183:
	movq	%rcx, 8(%rax)
	jmp	.L1184
.L1142:
	movq	%rcx, 8(%rax)
	jmp	.L1143
.L1333:
	call	__stack_chk_fail@PLT
	.cfi_endproc
.LFE11146:
	.section	.gcc_except_table
.LLSDA11146:
	.byte	0xff
	.byte	0xff
	.byte	0x1
	.uleb128 .LLSDACSE11146-.LLSDACSB11146
.LLSDACSB11146:
.LLSDACSE11146:
	.section	.text._ZN8asiodnp315MasterTCPServerD0Ev,"axG",@progbits,_ZN8asiodnp315MasterTCPServerD5Ev,comdat
	.size	_ZN8asiodnp315MasterTCPServerD0Ev, .-_ZN8asiodnp315MasterTCPServerD0Ev
	.section	.text._ZNSt8_Rb_treeISt10shared_ptrIN7asiopal9IResourceEES3_St9_IdentityIS3_ESt4lessIS3_ESaIS3_EE16_M_insert_uniqueIS3_EESt4pairISt17_Rb_tree_iteratorIS3_EbEOT_,"axG",@progbits,_ZNSt8_Rb_treeISt10shared_ptrIN7asiopal9IResourceEES3_St9_IdentityIS3_ESt4lessIS3_ESaIS3_EE16_M_insert_uniqueIS3_EESt4pairISt17_Rb_tree_iteratorIS3_EbEOT_,comdat
	.align 2
	.p2align 4
	.weak	_ZNSt8_Rb_treeISt10shared_ptrIN7asiopal9IResourceEES3_St9_IdentityIS3_ESt4lessIS3_ESaIS3_EE16_M_insert_uniqueIS3_EESt4pairISt17_Rb_tree_iteratorIS3_EbEOT_
	.type	_ZNSt8_Rb_treeISt10shared_ptrIN7asiopal9IResourceEES3_St9_IdentityIS3_ESt4lessIS3_ESaIS3_EE16_M_insert_uniqueIS3_EESt4pairISt17_Rb_tree_iteratorIS3_EbEOT_, @function
_ZNSt8_Rb_treeISt10shared_ptrIN7asiopal9IResourceEES3_St9_IdentityIS3_ESt4lessIS3_ESaIS3_EE16_M_insert_uniqueIS3_EESt4pairISt17_Rb_tree_iteratorIS3_EbEOT_:
.LFB10077:
	.cfi_startproc
	endbr64
	pushq	%r15
	.cfi_def_cfa_offset 16
	.cfi_offset 15, -16
	pushq	%r14
	.cfi_def_cfa_offset 24
	.cfi_offset 14, -24
	leaq	8(%rdi), %r14
	pushq	%r13
	.cfi_def_cfa_offset 32
	.cfi_offset 13, -32
	movq	%rsi, %r13
	pushq	%r12
	.cfi_def_cfa_offset 40
	.cfi_offset 12, -40
	pushq	%rbp
	.cfi_def_cfa_offset 48
	.cfi_offset 6, -48
	movq	%rdi, %rbp
	pushq	%rbx
	.cfi_def_cfa_offset 56
	.cfi_offset 3, -56
	subq	$8, %rsp
	.cfi_def_cfa_offset 64
	movq	16(%rdi), %r12
	testq	%r12, %r12
	je	.L1352
	movq	(%rsi), %rbx
	jmp	.L1354
	.p2align 4,,10
	.p2align 3
.L1363:
	movq	%rax, %r12
.L1354:
	movq	32(%r12), %rdx
	movq	24(%r12), %rax
	cmpq	%rdx, %rbx
	cmovb	16(%r12), %rax
	setb	%cl
	testq	%rax, %rax
	jne	.L1363
	testb	%cl, %cl
	jne	.L1369
	cmpq	%rdx, %rbx
	jbe	.L1360
.L1359:
	movl	$1, %r15d
	cmpq	%r12, %r14
	jne	.L1370
.L1357:
	movl	$48, %edi
	call	_Znwm@PLT
	pxor	%xmm0, %xmm0
	movq	%r12, %rdx
	movq	%r14, %rcx
	movdqu	0(%r13), %xmm1
	movq	%rax, %rsi
	movl	%r15d, %edi
	movq	%rax, %rbx
	movups	%xmm0, 0(%r13)
	movups	%xmm1, 32(%rax)
	call	_ZSt29_Rb_tree_insert_and_rebalancebPSt18_Rb_tree_node_baseS0_RS_@PLT
	addq	$1, 40(%rbp)
	addq	$8, %rsp
	.cfi_remember_state
	.cfi_def_cfa_offset 56
	movq	%rbx, %rax
	movl	$1, %edx
	popq	%rbx
	.cfi_def_cfa_offset 48
	popq	%rbp
	.cfi_def_cfa_offset 40
	popq	%r12
	.cfi_def_cfa_offset 32
	popq	%r13
	.cfi_def_cfa_offset 24
	popq	%r14
	.cfi_def_cfa_offset 16
	popq	%r15
	.cfi_def_cfa_offset 8
	ret
	.p2align 4,,10
	.p2align 3
.L1369:
	.cfi_restore_state
	cmpq	%r12, 24(%rbp)
	je	.L1359
.L1361:
	movq	%r12, %rdi
	call	_ZSt18_Rb_tree_decrementPSt18_Rb_tree_node_base@PLT
	cmpq	32(%rax), %rbx
	ja	.L1359
	movq	%rax, %r12
.L1360:
	addq	$8, %rsp
	.cfi_remember_state
	.cfi_def_cfa_offset 56
	movq	%r12, %rax
	xorl	%edx, %edx
	popq	%rbx
	.cfi_def_cfa_offset 48
	popq	%rbp
	.cfi_def_cfa_offset 40
	popq	%r12
	.cfi_def_cfa_offset 32
	popq	%r13
	.cfi_def_cfa_offset 24
	popq	%r14
	.cfi_def_cfa_offset 16
	popq	%r15
	.cfi_def_cfa_offset 8
	ret
	.p2align 4,,10
	.p2align 3
.L1370:
	.cfi_restore_state
	xorl	%r15d, %r15d
	cmpq	32(%r12), %rbx
	setb	%r15b
	jmp	.L1357
	.p2align 4,,10
	.p2align 3
.L1352:
	movq	%r14, %r12
	cmpq	24(%rdi), %r14
	je	.L1365
	movq	(%rsi), %rbx
	jmp	.L1361
.L1365:
	movl	$1, %r15d
	jmp	.L1357
	.cfi_endproc
.LFE10077:
	.size	_ZNSt8_Rb_treeISt10shared_ptrIN7asiopal9IResourceEES3_St9_IdentityIS3_ESt4lessIS3_ESaIS3_EE16_M_insert_uniqueIS3_EESt4pairISt17_Rb_tree_iteratorIS3_EbEOT_, .-_ZNSt8_Rb_treeISt10shared_ptrIN7asiopal9IResourceEES3_St9_IdentityIS3_ESt4lessIS3_ESaIS3_EE16_M_insert_uniqueIS3_EESt4pairISt17_Rb_tree_iteratorIS3_EbEOT_
	.section	.rodata.str1.1
.LC30:
	.string	"remote_endpoint"
.LC31:
	.string	"Accepted connection from: %s"
	.section	.rodata.str1.8,"aMS",@progbits,1
	.align 8
.LC32:
	.string	"/home/saptarshi/Desktop/OpenPLC61850/utils/dnp3_src/cpp/libs/src/asiodnp3/MasterTCPServer.cpp(67)"
	.section	.rodata.str1.1
.LC34:
	.string	"close"
.LC35:
	.string	"Rejected connection from: %s"
	.section	.rodata.str1.8
	.align 8
.LC36:
	.string	"/home/saptarshi/Desktop/OpenPLC61850/utils/dnp3_src/cpp/libs/src/asiodnp3/MasterTCPServer.cpp(90)"
	.section	.text.unlikely
	.align 2
.LCOLDB37:
	.text
.LHOTB37:
	.align 2
	.p2align 4
	.globl	_ZN8asiodnp315MasterTCPServer16AcceptConnectionEmRKSt10shared_ptrIN7asiopal8ExecutorEEN4asio19basic_stream_socketINS7_2ip3tcpENS7_21stream_socket_serviceISA_EEEE
	.type	_ZN8asiodnp315MasterTCPServer16AcceptConnectionEmRKSt10shared_ptrIN7asiopal8ExecutorEEN4asio19basic_stream_socketINS7_2ip3tcpENS7_21stream_socket_serviceISA_EEEE, @function
_ZN8asiodnp315MasterTCPServer16AcceptConnectionEmRKSt10shared_ptrIN7asiopal8ExecutorEEN4asio19basic_stream_socketINS7_2ip3tcpENS7_21stream_socket_serviceISA_EEEE:
.LFB8275:
	.cfi_startproc
	.cfi_personality 0x9b,DW.ref.__gxx_personality_v0
	.cfi_lsda 0x1b,.LLSDA8275
	endbr64
	pushq	%r15
	.cfi_def_cfa_offset 16
	.cfi_offset 15, -16
	pushq	%r14
	.cfi_def_cfa_offset 24
	.cfi_offset 14, -24
	pushq	%r13
	.cfi_def_cfa_offset 32
	.cfi_offset 13, -32
	pushq	%r12
	.cfi_def_cfa_offset 40
	.cfi_offset 12, -40
	pushq	%rbp
	.cfi_def_cfa_offset 48
	.cfi_offset 6, -48
	pushq	%rbx
	.cfi_def_cfa_offset 56
	.cfi_offset 3, -56
	movq	%rcx, %rbx
	subq	$888, %rsp
	.cfi_def_cfa_offset 944
	movq	%rdi, 40(%rsp)
	leaq	448(%rsp), %r14
	leaq	336(%rsp), %r15
	movq	%rsi, 64(%rsp)
	movq	%r14, %rdi
	movq	%rdx, 144(%rsp)
	movq	%fs:40, %rax
	movq	%rax, 872(%rsp)
	movq	_ZTVNSt7__cxx1119basic_ostringstreamIcSt11char_traitsIcESaIcEEE@GOTPCREL(%rip), %rax
	movq	%r15, 72(%rsp)
	movq	%r14, 112(%rsp)
	leaq	24(%rax), %rdx
	movq	_ZTVSt15basic_streambufIcSt11char_traitsIcEE@GOTPCREL(%rip), %rax
	movq	%rdx, %xmm1
	movq	%rdx, 120(%rsp)
	addq	$16, %rax
	movq	%rax, %xmm3
	punpcklqdq	%xmm3, %xmm1
	movaps	%xmm1, (%rsp)
	call	_ZNSt8ios_baseC2Ev@PLT
	pxor	%xmm0, %xmm0
	xorl	%r11d, %r11d
	xorl	%esi, %esi
	movq	_ZTVSt9basic_iosIcSt11char_traitsIcEE@GOTPCREL(%rip), %rax
	movups	%xmm0, 680(%rsp)
	movw	%r11w, 672(%rsp)
	addq	$16, %rax
	movups	%xmm0, 696(%rsp)
	movq	%rax, 448(%rsp)
	movq	_ZTTNSt7__cxx1119basic_ostringstreamIcSt11char_traitsIcESaIcEEE@GOTPCREL(%rip), %rax
	movq	$0, 664(%rsp)
	movq	8(%rax), %rcx
	movq	16(%rax), %rax
	addq	-24(%rcx), %r15
	movq	%rcx, 336(%rsp)
	movq	%r15, %rdi
	movq	%rcx, 96(%rsp)
	movq	%rax, 104(%rsp)
	movq	%rax, (%r15)
.LEHB32:
	call	_ZNSt9basic_iosIcSt11char_traitsIcEE4initEPSt15basic_streambufIcS1_E@PLT
.LEHE32:
	movq	_ZTVNSt7__cxx1119basic_ostringstreamIcSt11char_traitsIcESaIcEEE@GOTPCREL(%rip), %rax
	movdqa	(%rsp), %xmm1
	pxor	%xmm0, %xmm0
	movaps	%xmm0, 352(%rsp)
	addq	$64, %rax
	movaps	%xmm1, 336(%rsp)
	movq	%rax, 448(%rsp)
	leaq	400(%rsp), %rax
	movq	%rax, %rdi
	movq	%rax, 128(%rsp)
	movaps	%xmm0, 368(%rsp)
	movaps	%xmm0, 384(%rsp)
	call	_ZNSt6localeC1Ev@PLT
	movq	_ZTVNSt7__cxx1115basic_stringbufIcSt11char_traitsIcESaIcEEE@GOTPCREL(%rip), %rax
	movq	%r14, %rdi
	movl	$16, 408(%rsp)
	movq	$0, 424(%rsp)
	addq	$16, %rax
	movb	$0, 432(%rsp)
	movq	%rax, 344(%rsp)
	leaq	432(%rsp), %rax
	movq	%rax, 136(%rsp)
	movq	%rax, 416(%rsp)
	leaq	344(%rsp), %rax
	movq	%rax, %rsi
	movq	%rax, 168(%rsp)
.LEHB33:
	call	_ZNSt9basic_iosIcSt11char_traitsIcEE4initEPSt15basic_streambufIcS1_E@PLT
.LEHE33:
	movl	$0, 208(%rsp)
	call	_ZNSt3_V215system_categoryEv@PLT
	movl	(%rbx), %r12d
	pxor	%xmm0, %xmm0
	movl	$2, %r10d
	movaps	%xmm0, 304(%rsp)
	movq	%rax, (%rsp)
	movq	%rax, 216(%rsp)
	movq	$0, 320(%rsp)
	movl	$0, 328(%rsp)
	movw	%r10w, 304(%rsp)
	cmpl	$-1, %r12d
	je	.L1776
	call	__errno_location@PLT
	leaq	240(%rsp), %r15
	movl	%r12d, %edi
	movl	$28, 240(%rsp)
	movl	$0, (%rax)
	movq	%rax, %rbp
	movq	%r15, %rdx
	leaq	304(%rsp), %rax
	movq	%rax, %rsi
	movq	%rax, 48(%rsp)
	call	getpeername@PLT
	movl	240(%rsp), %r13d
	movl	%eax, %r12d
	movq	_ZGVZN4asio15system_categoryEvE8instance@GOTPCREL(%rip), %rax
	movzbl	(%rax), %eax
	testb	%al, %al
	je	.L1377
.L1771:
	movq	_ZZN4asio15system_categoryEvE8instance@GOTPCREL(%rip), %rax
	movq	%rax, 16(%rsp)
	movq	%rax, %rdx
.L1378:
	movl	0(%rbp), %eax
	movq	%rdx, 216(%rsp)
	movl	%eax, 208(%rsp)
	testl	%r12d, %r12d
	je	.L1777
	pxor	%xmm0, %xmm0
	movl	$2, %r9d
	movq	$0, 288(%rsp)
	movaps	%xmm0, 272(%rsp)
	movl	$0, 296(%rsp)
	movw	%r9w, 272(%rsp)
	testl	%eax, %eax
	jne	.L1376
.L1383:
	leaq	272(%rsp), %rax
	movq	72(%rsp), %rdi
	movq	%rax, %rsi
	movq	%rax, 160(%rsp)
.LEHB34:
	call	_ZN4asio2iplsIcSt11char_traitsIcENS0_3tcpEEERSt13basic_ostreamIT_T0_ES9_RKNS0_14basic_endpointIT1_EE@PLT
.LEHE34:
	movq	40(%rsp), %rax
	movl	(%rbx), %edi
	pxor	%xmm0, %xmm0
	movl	$2, %r8d
	movq	208(%rax), %r13
	movq	0(%r13), %rax
	movq	16(%rax), %rax
	movaps	%xmm0, 304(%rsp)
	movl	$0, 208(%rsp)
	movq	%rax, 80(%rsp)
	movq	(%rsp), %rax
	movq	$0, 320(%rsp)
	movq	%rax, 216(%rsp)
	movl	$0, 328(%rsp)
	movw	%r8w, 304(%rsp)
	cmpl	$-1, %edi
	je	.L1778
	movl	$0, 0(%rbp)
	movq	48(%rsp), %rsi
	movq	%r15, %rdx
	movl	$28, 240(%rsp)
	call	getpeername@PLT
	movl	240(%rsp), %r14d
	movl	%eax, %r12d
	movq	_ZGVZN4asio15system_categoryEvE8instance@GOTPCREL(%rip), %rax
	movzbl	(%rax), %eax
	testb	%al, %al
	je	.L1779
.L1387:
	movl	0(%rbp), %eax
	movq	16(%rsp), %rcx
	movl	%eax, 208(%rsp)
	movq	%rcx, 216(%rsp)
	testl	%r12d, %r12d
	jne	.L1389
	movl	$0, 208(%rsp)
	movq	(%rsp), %rax
	movq	%rax, 216(%rsp)
	cmpl	$128, %r14d
	ja	.L1780
	movl	328(%rsp), %edx
	movl	308(%rsp), %eax
	cmpw	$2, 304(%rsp)
	movdqu	312(%rsp), %xmm0
	movl	%edx, 56(%rsp)
	je	.L1392
	movq	.LC24(%rip), %rax
	movl	$0, 0(%rbp)
	leaq	752(%rsp), %r14
	leaq	280(%rsp), %rsi
	movl	56(%rsp), %r12d
	movl	$63, %ecx
	movq	%r14, %rdx
	movl	$10, %edi
	movq	%rax, 272(%rsp)
	movq	(%rsp), %rax
	movq	%r12, 296(%rsp)
	movl	$0, 240(%rsp)
	movq	%rax, 248(%rsp)
	movups	%xmm0, 280(%rsp)
	call	inet_ntop@PLT
	movq	%rax, 152(%rsp)
	movq	_ZGVZN4asio15system_categoryEvE8instance@GOTPCREL(%rip), %rax
	movzbl	(%rax), %eax
	testb	%al, %al
	je	.L1781
.L1397:
	cmpq	$0, 152(%rsp)
	movl	0(%rbp), %eax
	movl	%eax, 176(%rsp)
	movl	%eax, 240(%rsp)
	movq	16(%rsp), %rax
	movq	%rax, 248(%rsp)
	je	.L1782
	testq	%r12, %r12
	jne	.L1574
.L1406:
	movq	152(%rsp), %rdi
	leaq	320(%rsp), %rax
	movq	%rax, 56(%rsp)
	movq	%rax, 304(%rsp)
	call	strlen@PLT
	movq	%rax, 208(%rsp)
	movq	%rax, %r12
	cmpq	$15, %rax
	ja	.L1783
	cmpq	$1, %rax
	jne	.L1408
	movq	152(%rsp), %rcx
	movzbl	(%rcx), %edx
	movb	%dl, 320(%rsp)
	movq	56(%rsp), %rdx
.L1409:
	movl	176(%rsp), %ecx
	movq	%rax, 312(%rsp)
	movb	$0, (%rdx,%rax)
	testl	%ecx, %ecx
	je	.L1411
	jmp	.L1401
	.p2align 4,,10
	.p2align 3
.L1389:
	testl	%eax, %eax
	jne	.L1385
.L1392:
	movl	$0, 0(%rbp)
	leaq	752(%rsp), %r14
	pxor	%xmm0, %xmm0
	leaq	276(%rsp), %rsi
	movl	%eax, 276(%rsp)
	movq	(%rsp), %rax
	movl	$16, %ecx
	movq	%r14, %rdx
	movl	$2, %edi
	movl	$0, 272(%rsp)
	movq	$0, 296(%rsp)
	movl	$0, 240(%rsp)
	movq	%rax, 248(%rsp)
	movups	%xmm0, 280(%rsp)
	call	inet_ntop@PLT
	movq	%rax, %r12
	movq	_ZGVZN4asio15system_categoryEvE8instance@GOTPCREL(%rip), %rax
	movzbl	(%rax), %eax
	testb	%al, %al
	je	.L1784
.L1395:
	movl	0(%rbp), %eax
	movl	%eax, 152(%rsp)
	movl	%eax, 240(%rsp)
	movq	16(%rsp), %rax
	movq	%rax, 248(%rsp)
	testq	%r12, %r12
	je	.L1785
	leaq	320(%rsp), %rax
	movq	%r12, %rdi
	movq	%rax, 56(%rsp)
	movq	%rax, 304(%rsp)
	call	strlen@PLT
	movq	%rax, 176(%rsp)
	movq	%rax, 208(%rsp)
	cmpq	$15, %rax
	ja	.L1786
	cmpq	$1, %rax
	jne	.L1423
	movzbl	(%r12), %edx
	movb	%dl, 320(%rsp)
	movq	56(%rsp), %rdx
.L1424:
	movq	%rax, 312(%rsp)
	movb	$0, (%rdx,%rax)
	movl	152(%rsp), %eax
	testl	%eax, %eax
	jne	.L1421
.L1411:
	movq	48(%rsp), %rdx
	movq	64(%rsp), %rsi
	movq	%r13, %rdi
	movq	80(%rsp), %rax
.LEHB35:
	call	*%rax
.LEHE35:
	movq	304(%rsp), %rdi
	movl	%eax, %r12d
	cmpq	56(%rsp), %rdi
	je	.L1428
	movq	320(%rsp), %rax
	leaq	1(%rax), %rsi
	call	_ZdlPvm@PLT
.L1428:
	testb	%r12b, %r12b
	je	.L1429
	movq	40(%rsp), %rax
	movq	%r15, %rsi
	movl	$8, 240(%rsp)
	leaq	24(%rax), %rbp
	movq	%rbp, %rdi
.LEHB36:
	call	_ZNK7openpal6Logger9IsEnabledERKNS_10LogFiltersE@PLT
.LEHE36:
	testb	%al, %al
	je	.L1430
	movq	384(%rsp), %rax
	leaq	288(%rsp), %r12
	movq	$0, 280(%rsp)
	movq	%r12, 272(%rsp)
	movb	$0, 288(%rsp)
	testq	%rax, %rax
	je	.L1431
	movq	368(%rsp), %r8
	testq	%r8, %r8
	je	.L1600
	cmpq	%r8, %rax
	ja	.L1600
.L1432:
	movq	376(%rsp), %rcx
	movq	160(%rsp), %rdi
	xorl	%edx, %edx
	xorl	%esi, %esi
	subq	%rcx, %r8
.LEHB37:
	call	_ZNSt7__cxx1112basic_stringIcSt11char_traitsIcESaIcEE10_M_replaceEmmPKcm@PLT
.LEHE37:
.L1434:
	movq	%r14, %rdi
	movl	$120, %ecx
	movl	$1, %edx
	xorl	%eax, %eax
	movq	272(%rsp), %r9
	leaq	.LC31(%rip), %r8
	movl	$120, %esi
	call	__snprintf_chk@PLT
	movq	272(%rsp), %rdi
	cmpq	%r12, %rdi
	je	.L1436
	movq	288(%rsp), %rax
	leaq	1(%rax), %rsi
	call	_ZdlPvm@PLT
.L1436:
	movq	%r14, %rcx
	leaq	.LC32(%rip), %rdx
	movq	%r15, %rsi
	movq	%rbp, %rdi
	movl	$8, 240(%rsp)
.LEHB38:
	call	_ZN7openpal6Logger3LogERKNS_10LogFiltersEPKcS5_@PLT
.LEHE38:
.L1430:
	movq	24(%rbx), %rax
	movl	$72, %edi
	movq	%rax, 232(%rsp)
	movl	(%rbx), %eax
	movl	$-1, (%rbx)
	movl	%eax, 208(%rsp)
	movzbl	4(%rbx), %eax
	movb	$0, 4(%rbx)
	movb	%al, 212(%rsp)
	movq	8(%rbx), %rax
	movq	$0, 8(%rbx)
	movq	%rax, 216(%rsp)
	movl	16(%rbx), %eax
	movl	$2, 16(%rbx)
	movl	%eax, 224(%rsp)
	movq	144(%rsp), %rax
	movq	(%rax), %r12
	addq	$24, %r12
.LEHB39:
	call	_Znwm@PLT
.LEHE39:
	movq	.LC33(%rip), %r14
	movq	%rax, %rbp
	movq	%r12, %rsi
	leaq	16(%rbp), %rbx
	movq	%r14, 8(%rax)
	movq	_ZTVSt23_Sp_counted_ptr_inplaceIN7asiopal8ExecutorESaIS1_ELN9__gnu_cxx12_Lock_policyE2EE@GOTPCREL(%rip), %rax
	movq	%rbx, %rdi
	addq	$16, %rax
	movq	%rax, 0(%rbp)
.LEHB40:
	call	_ZN7asiopal8ExecutorC1ERKSt10shared_ptrINS_2IOEE@PLT
.LEHE40:
	movq	32(%rbp), %rdi
	testq	%rdi, %rdi
	je	.L1440
	movl	8(%rdi), %eax
	testl	%eax, %eax
	jne	.L1443
.L1440:
	movq	__libc_single_threaded@GOTPCREL(%rip), %rax
	movq	%rbx, 24(%rbp)
	cmpb	$0, (%rax)
	je	.L1787
	addl	$1, 12(%rbp)
	testq	%rdi, %rdi
	je	.L1445
.L1444:
	movl	12(%rdi), %eax
	leal	-1(%rax), %edx
	movl	%edx, 12(%rdi)
.L1448:
	cmpl	$1, %eax
	jne	.L1445
	movq	(%rdi), %rax
	call	*24(%rax)
	.p2align 4,,10
	.p2align 3
.L1445:
	movq	%rbp, 32(%rbp)
.L1443:
	movl	$112, %edi
.LEHB41:
	call	_Znwm@PLT
.LEHE41:
	movq	%rax, %r12
	movq	%r14, 8(%rax)
	movq	%rbx, %xmm0
	movq	_ZTVSt23_Sp_counted_ptr_inplaceIN7asiopal13SocketChannelESaIS1_ELN9__gnu_cxx12_Lock_policyE2EE@GOTPCREL(%rip), %rax
	movq	%rbp, %xmm5
	leaq	16(%r12), %r13
	addq	$16, %rax
	punpcklqdq	%xmm5, %xmm0
	movq	%rax, (%r12)
	movq	__libc_single_threaded@GOTPCREL(%rip), %rax
	movaps	%xmm0, 192(%rsp)
	cmpb	$0, (%rax)
	je	.L1449
	addl	$1, 8(%rbp)
.L1450:
	movq	232(%rsp), %rax
	leaq	192(%rsp), %rbx
	movq	%r15, %rdx
	movq	%r13, %rdi
	movq	%rbx, %rsi
	movq	%rax, 264(%rsp)
	movl	208(%rsp), %eax
	movl	$-1, 208(%rsp)
	movl	%eax, 240(%rsp)
	movzbl	212(%rsp), %eax
	movb	$0, 212(%rsp)
	movb	%al, 244(%rsp)
	movq	216(%rsp), %rax
	movq	$0, 216(%rsp)
	movq	%rax, 248(%rsp)
	movl	224(%rsp), %eax
	movl	$2, 224(%rsp)
	movl	%eax, 256(%rsp)
.LEHB42:
	call	_ZN7asiopal13SocketChannelC1ESt10shared_ptrINS_8ExecutorEEN4asio19basic_stream_socketINS4_2ip3tcpENS4_21stream_socket_serviceIS7_EEEE@PLT
.LEHE42:
	movq	264(%rsp), %rax
	movq	%r12, %xmm6
	movq	%r13, %xmm2
	movq	%r15, %rsi
	punpcklqdq	%xmm6, %xmm2
	leaq	40(%rax), %rdi
	movaps	%xmm2, (%rsp)
	call	_ZN4asio6detail28reactive_socket_service_base7destroyERNS1_24base_implementation_typeE@PLT
	movq	200(%rsp), %rdi
	testq	%rdi, %rdi
	je	.L1451
	call	_ZNSt16_Sp_counted_baseILN9__gnu_cxx12_Lock_policyE2EE10_M_releaseEv@PLT
.L1451:
	movq	32(%r12), %rdi
	testq	%rdi, %rdi
	je	.L1455
	movl	8(%rdi), %eax
	testl	%eax, %eax
	jne	.L1456
.L1455:
	movq	__libc_single_threaded@GOTPCREL(%rip), %rax
	movq	%r13, 24(%r12)
	cmpb	$0, (%rax)
	je	.L1788
	addl	$1, 12(%r12)
	testq	%rdi, %rdi
	je	.L1458
.L1457:
	movl	12(%rdi), %eax
	leal	-1(%rax), %edx
	movl	%edx, 12(%rdi)
.L1461:
	cmpl	$1, %eax
	jne	.L1458
	movq	(%rdi), %rax
	call	*24(%rax)
	.p2align 4,,10
	.p2align 3
.L1458:
	movq	%r12, 32(%r12)
.L1456:
	movdqa	(%rsp), %xmm7
	movq	%rbp, %rdi
	movaps	%xmm7, 192(%rsp)
	call	_ZNSt16_Sp_counted_baseILN9__gnu_cxx12_Lock_policyE2EE10_M_releaseEv@PLT
	movq	232(%rsp), %rax
	leaq	208(%rsp), %rsi
	movq	%rsi, 16(%rsp)
	leaq	40(%rax), %rdi
	call	_ZN4asio6detail28reactive_socket_service_base7destroyERNS1_24base_implementation_typeE@PLT
	movq	40(%rsp), %rax
	movq	224(%rax), %rax
	leaq	8(%rax), %r12
	movq	%rax, (%rsp)
	movq	%r12, %rdi
	call	pthread_mutex_lock@PLT
	testl	%eax, %eax
	jne	.L1789
	movq	(%rsp), %rax
	cmpb	$0, 48(%rax)
	je	.L1462
	movq	%r12, %rdi
	call	pthread_mutex_unlock@PLT
	movq	192(%rsp), %rbx
	cmpb	$0, 56(%rbx)
	jne	.L1506
	movq	(%rbx), %rax
	movb	$1, 56(%rbx)
	movq	%rbx, %rdi
.LEHB43:
	call	*32(%rax)
.LEHE43:
	movq	16(%rbx), %rbp
	testq	%rbp, %rbp
	je	.L1510
	movl	8(%rbp), %eax
	leaq	8(%rbp), %rdx
.L1512:
	testl	%eax, %eax
	je	.L1510
	leal	1(%rax), %ecx
	lock cmpxchgl	%ecx, (%rdx)
	jne	.L1512
	movq	__libc_single_threaded@GOTPCREL(%rip), %rax
	movq	8(%rbx), %r12
	movq	24(%rbx), %rbx
	cmpb	$0, (%rax)
	je	.L1790
	addl	$1, 8(%rbp)
.L1513:
	data16	leaq	_ZN4asio6detail15keyword_tss_ptrINS0_10call_stackINS0_15task_io_serviceENS0_27task_io_service_thread_infoEE7contextEE6value_E@tlsgd(%rip), %rdi
	.value	0x6666
	rex64
	call	__tls_get_addr@PLT
	movq	40(%rbx), %r13
	movq	(%rax), %rax
	testq	%rax, %rax
	je	.L1514
	movq	8(%rax), %rax
	testq	%rax, %rax
	je	.L1514
	movq	(%rax), %r14
	testq	%r14, %r14
	je	.L1514
	movq	$0, (%rax)
	movzbl	(%r14), %eax
	cmpb	$39, %al
	jbe	.L1515
	movb	%al, 40(%r14)
.L1516:
	movq	%rbp, %xmm6
	movq	_ZN4asio6detail18completion_handlerIZN7asiopal13IAsyncChannel8ShutdownEvEUlvE_E11do_completeEPNS0_15task_io_serviceEPNS0_25task_io_service_operationERKSt10error_codem@GOTPCREL(%rip), %rax
	movq	%r12, %xmm0
	movq	$0, (%r14)
	punpcklqdq	%xmm6, %xmm0
	movl	$0, 16(%r14)
	movq	%r14, %xmm5
	movq	%rax, 8(%r14)
	punpcklqdq	%xmm5, %xmm5
	movups	%xmm0, 24(%r14)
	movq	48(%rbx), %rax
	movaps	%xmm5, (%rsp)
	leaq	24(%rax), %rdi
	call	pthread_mutex_lock@PLT
	movq	48(%rbx), %rdi
	cmpb	$0, 64(%rdi)
	je	.L1517
	movq	$0, (%r14)
	movq	80(%rdi), %rax
	testq	%rax, %rax
	je	.L1518
	movq	%r14, (%rax)
	movq	%r14, 80(%rdi)
.L1519:
	addq	$24, %rdi
	call	pthread_mutex_unlock@PLT
.L1520:
	movq	%rbp, %rdi
	call	_ZNSt16_Sp_counted_baseILN9__gnu_cxx12_Lock_policyE2EE10_M_releaseEv@PLT
	.p2align 4,,10
	.p2align 3
.L1506:
	movq	200(%rsp), %rdi
	testq	%rdi, %rdi
	je	.L1535
	call	_ZNSt16_Sp_counted_baseILN9__gnu_cxx12_Lock_policyE2EE10_M_releaseEv@PLT
	jmp	.L1535
	.p2align 4,,10
	.p2align 3
.L1777:
	movl	$0, 208(%rsp)
	movq	(%rsp), %rax
	movq	%rax, 216(%rsp)
	cmpl	$128, %r13d
	ja	.L1791
	movq	320(%rsp), %rax
	movdqa	304(%rsp), %xmm6
	movq	%rax, 288(%rsp)
	movl	328(%rsp), %eax
	movaps	%xmm6, 272(%rsp)
	movl	%eax, 296(%rsp)
	jmp	.L1383
	.p2align 4,,10
	.p2align 3
.L1784:
	movq	_ZGVZN4asio15system_categoryEvE8instance@GOTPCREL(%rip), %rdi
	call	__cxa_guard_acquire@PLT
	testl	%eax, %eax
	je	.L1395
	movq	16(%rsp), %rsi
	movq	_ZN4asio6detail15system_categoryD1Ev@GOTPCREL(%rip), %rdi
	leaq	__dso_handle(%rip), %rdx
	call	__cxa_atexit@PLT
	movq	_ZGVZN4asio15system_categoryEvE8instance@GOTPCREL(%rip), %rdi
	call	__cxa_guard_release@PLT
	jmp	.L1395
	.p2align 4,,10
	.p2align 3
.L1377:
	movq	_ZGVZN4asio15system_categoryEvE8instance@GOTPCREL(%rip), %rdi
	call	__cxa_guard_acquire@PLT
	testl	%eax, %eax
	je	.L1771
	movq	_ZZN4asio15system_categoryEvE8instance@GOTPCREL(%rip), %rax
	movq	_ZN4asio6detail15system_categoryD1Ev@GOTPCREL(%rip), %rdi
	leaq	__dso_handle(%rip), %rdx
	movq	%rax, %rsi
	movq	%rax, 16(%rsp)
	call	__cxa_atexit@PLT
	movq	_ZGVZN4asio15system_categoryEvE8instance@GOTPCREL(%rip), %rdi
	call	__cxa_guard_release@PLT
	movq	16(%rsp), %rdx
	jmp	.L1378
	.p2align 4,,10
	.p2align 3
.L1779:
	movq	_ZGVZN4asio15system_categoryEvE8instance@GOTPCREL(%rip), %rdi
	call	__cxa_guard_acquire@PLT
	testl	%eax, %eax
	je	.L1387
	movq	16(%rsp), %rsi
	movq	_ZN4asio6detail15system_categoryD1Ev@GOTPCREL(%rip), %rdi
	leaq	__dso_handle(%rip), %rdx
	call	__cxa_atexit@PLT
	movq	_ZGVZN4asio15system_categoryEvE8instance@GOTPCREL(%rip), %rdi
	call	__cxa_guard_release@PLT
	jmp	.L1387
	.p2align 4,,10
	.p2align 3
.L1785:
	movl	152(%rsp), %edx
	testl	%edx, %edx
	je	.L1792
.L1417:
	leaq	320(%rsp), %rax
	movb	$0, 320(%rsp)
	movq	%rax, 56(%rsp)
	movq	%rax, 304(%rsp)
	movq	$0, 312(%rsp)
.L1421:
	movq	%r15, %rdi
.LEHB44:
	call	_ZN4asio6detail14do_throw_errorERKSt10error_code@PLT
.LEHE44:
	.p2align 4,,10
	.p2align 3
.L1423:
	cmpq	$0, 176(%rsp)
	jne	.L1793
	movq	56(%rsp), %rdx
	jmp	.L1424
	.p2align 4,,10
	.p2align 3
.L1574:
	movzbl	280(%rsp), %eax
	movb	$0, 736(%rsp)
	movq	$37, 720(%rsp)
	movq	$0, 728(%rsp)
	cmpb	$-2, %al
	je	.L1794
	cmpb	$-1, %al
	jne	.L1772
	movzbl	281(%rsp), %eax
	leaq	721(%rsp), %r9
	andl	$15, %eax
	cmpb	$2, %al
	je	.L1403
.L1405:
	movq	%r12, %r8
	leaq	.LC25(%rip), %rcx
	movq	%r9, %rdi
	xorl	%eax, %eax
	movl	$16, %edx
	movl	$1, %esi
	call	__sprintf_chk@PLT
.L1404:
	leaq	720(%rsp), %rsi
	movl	$63, %edx
	movq	%r14, %rdi
	call	__strcat_chk@PLT
	jmp	.L1406
	.p2align 4,,10
	.p2align 3
.L1429:
	movq	(%rsp), %rax
	movl	(%rbx), %esi
	movl	$0, 240(%rsp)
	movq	%rax, 248(%rsp)
	movq	24(%rbx), %rax
	cmpl	$-1, %esi
	je	.L1538
	movzbl	4(%rbx), %ecx
	movq	40(%rax), %rdi
	leaq	8(%rbx), %rdx
	shrb	$6, %cl
	xorl	$1, %ecx
	andl	$1, %ecx
	call	_ZN4asio6detail13epoll_reactor21deregister_descriptorEiRPNS1_16descriptor_stateEb@PLT
	movl	(%rbx), %r12d
	cmpl	$-1, %r12d
	je	.L1538
	movl	$0, 0(%rbp)
	movl	%r12d, %edi
.LEHB45:
	call	close@PLT
	movl	%eax, %r13d
	movq	_ZGVZN4asio15system_categoryEvE8instance@GOTPCREL(%rip), %rax
	movzbl	(%rax), %eax
	testb	%al, %al
	je	.L1795
.L1540:
	movl	0(%rbp), %eax
	movl	%eax, 240(%rsp)
	movq	16(%rsp), %rax
	movq	%rax, 248(%rsp)
	testl	%r13d, %r13d
	jne	.L1796
.L1538:
	movl	$-1, (%rbx)
	movb	$0, 4(%rbx)
.L1537:
	movq	40(%rsp), %rbp
	movq	%r15, %rsi
	movl	$8, 240(%rsp)
	addq	$24, %rbp
	movq	%rbp, %rdi
	call	_ZNK7openpal6Logger9IsEnabledERKNS_10LogFiltersE@PLT
	testb	%al, %al
	jne	.L1797
.L1535:
	movq	_ZTVNSt7__cxx1119basic_ostringstreamIcSt11char_traitsIcESaIcEEE@GOTPCREL(%rip), %rax
	movq	120(%rsp), %xmm0
	movq	416(%rsp), %rdi
	addq	$64, %rax
	movq	%rax, 448(%rsp)
	movq	_ZTVNSt7__cxx1115basic_stringbufIcSt11char_traitsIcESaIcEEE@GOTPCREL(%rip), %rax
	addq	$16, %rax
	movq	%rax, %xmm4
	punpcklqdq	%xmm4, %xmm0
	movaps	%xmm0, 336(%rsp)
	cmpq	136(%rsp), %rdi
	je	.L1556
	movq	432(%rsp), %rax
	leaq	1(%rax), %rsi
	call	_ZdlPvm@PLT
.L1556:
	movq	_ZTVSt15basic_streambufIcSt11char_traitsIcEE@GOTPCREL(%rip), %rax
	movq	128(%rsp), %rdi
	addq	$16, %rax
	movq	%rax, 344(%rsp)
	call	_ZNSt6localeD1Ev@PLT
	movq	96(%rsp), %rax
	movq	104(%rsp), %rbx
	movq	112(%rsp), %rdi
	movq	%rax, 336(%rsp)
	movq	-24(%rax), %rax
	movq	%rbx, 336(%rsp,%rax)
	movq	_ZTVSt9basic_iosIcSt11char_traitsIcEE@GOTPCREL(%rip), %rax
	addq	$16, %rax
	movq	%rax, 448(%rsp)
	call	_ZNSt8ios_baseD2Ev@PLT
	movq	872(%rsp), %rax
	subq	%fs:40, %rax
	jne	.L1798
	addq	$888, %rsp
	.cfi_remember_state
	.cfi_def_cfa_offset 56
	popq	%rbx
	.cfi_def_cfa_offset 48
	popq	%rbp
	.cfi_def_cfa_offset 40
	popq	%r12
	.cfi_def_cfa_offset 32
	popq	%r13
	.cfi_def_cfa_offset 24
	popq	%r14
	.cfi_def_cfa_offset 16
	popq	%r15
	.cfi_def_cfa_offset 8
	ret
	.p2align 4,,10
	.p2align 3
.L1797:
	.cfi_restore_state
	movq	168(%rsp), %rsi
	movq	48(%rsp), %rdi
	call	_ZNKSt7__cxx1115basic_stringbufIcSt11char_traitsIcESaIcEE3strEv@PLT
	movq	%r14, %rdi
	movl	$120, %ecx
	movl	$1, %edx
	xorl	%eax, %eax
	movq	304(%rsp), %r9
	leaq	.LC35(%rip), %r8
	movl	$120, %esi
	call	__snprintf_chk@PLT
	movq	304(%rsp), %rdi
	cmpq	56(%rsp), %rdi
	je	.L1555
	movq	320(%rsp), %rax
	leaq	1(%rax), %rsi
	call	_ZdlPvm@PLT
.L1555:
	movq	%r14, %rcx
	leaq	.LC36(%rip), %rdx
	movq	%r15, %rsi
	movq	%rbp, %rdi
	movl	$8, 240(%rsp)
	call	_ZN7openpal6Logger3LogERKNS_10LogFiltersEPKcS5_@PLT
.LEHE45:
	jmp	.L1535
	.p2align 4,,10
	.p2align 3
.L1462:
	movq	40(%rsp), %rax
	movdqu	224(%rax), %xmm7
	leaq	208(%rax), %rdx
	movq	%rdx, 144(%rsp)
	movaps	%xmm7, 80(%rsp)
	movq	88(%rsp), %rax
	movaps	%xmm7, 208(%rsp)
	testq	%rax, %rax
	je	.L1465
	movq	__libc_single_threaded@GOTPCREL(%rip), %rdx
	cmpb	$0, (%rdx)
	je	.L1466
	addl	$1, 8(%rax)
.L1465:
	movq	64(%rsp), %rsi
	movq	48(%rsp), %rdi
.LEHB46:
	call	_ZN8asiodnp315MasterTCPServer17SessionIdToStringB5cxx11Em@PLT
.LEHE46:
	movq	40(%rsp), %rax
	movl	$56, %edi
	movq	40(%rax), %r13
.LEHB47:
	call	_Znwm@PLT
.LEHE47:
	movq	%rax, %rbp
	movq	%r14, 8(%rax)
	movq	_ZTVSt23_Sp_counted_ptr_inplaceIN7openpal6Logger8SettingsESaIS2_ELN9__gnu_cxx12_Lock_policyE2EE@GOTPCREL(%rip), %rax
	leaq	32(%rbp), %rdi
	addq	$16, %rax
	movq	%rax, 0(%rbp)
	movl	32(%r13), %eax
	movq	312(%rsp), %r13
	movq	%rdi, 16(%rbp)
	movl	%eax, 80(%rsp)
	leaq	16(%rbp), %rax
	movq	%rax, 48(%rsp)
	movq	304(%rsp), %rax
	movq	%rax, %rdx
	movq	%rax, 152(%rsp)
	addq	%r13, %rdx
	je	.L1467
	testq	%rax, %rax
	je	.L1799
.L1467:
	movq	%r13, 240(%rsp)
	cmpq	$15, %r13
	ja	.L1800
	cmpq	$1, %r13
	jne	.L1470
	movq	152(%rsp), %rax
	movzbl	(%rax), %eax
	movb	%al, 32(%rbp)
.L1471:
	movl	80(%rsp), %eax
	movq	%r13, 24(%rbp)
	movq	%rbp, %xmm7
	movb	$0, (%rdi,%r13)
	movq	48(%rsp), %xmm0
	movl	%eax, 48(%rbp)
	movq	40(%rsp), %rax
	punpcklqdq	%xmm7, %xmm0
	movdqu	24(%rax), %xmm5
	movaps	%xmm5, 240(%rsp)
	movq	248(%rsp), %rax
	testq	%rax, %rax
	je	.L1801
	movq	__libc_single_threaded@GOTPCREL(%rip), %rcx
	cmpb	$0, (%rcx)
	je	.L1476
	addl	$1, 8(%rax)
	movaps	%xmm0, 256(%rsp)
.L1477:
	addl	$1, 8(%rbp)
.L1479:
	movq	%rbp, %rdi
	call	_ZNSt16_Sp_counted_baseILN9__gnu_cxx12_Lock_policyE2EE10_M_releaseEv@PLT
	movl	$624, %edi
.LEHB48:
	call	_Znwm@PLT
.LEHE48:
	movq	%rax, %rbp
	movq	%r14, 8(%rax)
	movq	16(%rsp), %rcx
	movq	%rbx, %r9
	movq	_ZTVSt23_Sp_counted_ptr_inplaceIN8asiodnp311LinkSessionESaIS1_ELN9__gnu_cxx12_Lock_policyE2EE@GOTPCREL(%rip), %rax
	leaq	16(%rbp), %r13
	movq	64(%rsp), %rdx
	movq	%r15, %rsi
	movq	144(%rsp), %r8
	movq	%r13, %rdi
	addq	$16, %rax
	movq	%rax, 0(%rbp)
.LEHB49:
	call	_ZN8asiodnp311LinkSessionC1ERKN7openpal6LoggerEmRKSt10shared_ptrIN7asiopal16IResourceManagerEERKS5_INS_16IListenCallbacksEERKS5_INS6_13IAsyncChannelEE@PLT
.LEHE49:
	movq	48(%rbp), %rdi
	testq	%rdi, %rdi
	je	.L1485
	movl	8(%rdi), %eax
	testl	%eax, %eax
	jne	.L1486
.L1485:
	movq	__libc_single_threaded@GOTPCREL(%rip), %rax
	movq	%r13, 40(%rbp)
	cmpb	$0, (%rax)
	je	.L1802
	addl	$1, 12(%rbp)
	testq	%rdi, %rdi
	je	.L1488
.L1487:
	movl	12(%rdi), %eax
	leal	-1(%rax), %edx
	movl	%edx, 12(%rdi)
.L1491:
	cmpl	$1, %eax
	jne	.L1488
	movq	(%rdi), %rax
	call	*24(%rax)
	.p2align 4,,10
	.p2align 3
.L1488:
	movq	%rbp, 48(%rbp)
.L1486:
	movq	%r13, %rdi
.LEHB50:
	call	_ZN8asiodnp311LinkSession5StartEv@PLT
.LEHE50:
	movq	264(%rsp), %rdi
	testq	%rdi, %rdi
	je	.L1494
	call	_ZNSt16_Sp_counted_baseILN9__gnu_cxx12_Lock_policyE2EE10_M_releaseEv@PLT
.L1494:
	movq	248(%rsp), %rdi
	testq	%rdi, %rdi
	je	.L1495
	call	_ZNSt16_Sp_counted_baseILN9__gnu_cxx12_Lock_policyE2EE10_M_releaseEv@PLT
.L1495:
	movq	304(%rsp), %rdi
	cmpq	56(%rsp), %rdi
	je	.L1496
	movq	320(%rsp), %rax
	leaq	1(%rax), %rsi
	call	_ZdlPvm@PLT
.L1496:
	movq	216(%rsp), %rdi
	testq	%rdi, %rdi
	je	.L1497
	call	_ZNSt16_Sp_counted_baseILN9__gnu_cxx12_Lock_policyE2EE10_M_releaseEv@PLT
.L1497:
	leaq	56(%rbp), %rax
	movq	%rbp, %xmm7
	movq	%rax, %xmm0
	movq	__libc_single_threaded@GOTPCREL(%rip), %rax
	punpcklqdq	%xmm7, %xmm0
	cmpb	$0, (%rax)
	movaps	%xmm0, 240(%rsp)
	je	.L1803
	addl	$1, 8(%rbp)
.L1504:
	movq	(%rsp), %rdi
	movq	%r15, %rsi
	addq	$56, %rdi
.LEHB51:
	call	_ZNSt8_Rb_treeISt10shared_ptrIN7asiopal9IResourceEES3_St9_IdentityIS3_ESt4lessIS3_ESaIS3_EE16_M_insert_uniqueIS3_EESt4pairISt17_Rb_tree_iteratorIS3_EbEOT_@PLT
.LEHE51:
	movq	248(%rsp), %rdi
	testq	%rdi, %rdi
	je	.L1505
	call	_ZNSt16_Sp_counted_baseILN9__gnu_cxx12_Lock_policyE2EE10_M_releaseEv@PLT
.L1505:
	movq	%r12, %rdi
	call	pthread_mutex_unlock@PLT
	movq	%rbp, %rdi
	call	_ZNSt16_Sp_counted_baseILN9__gnu_cxx12_Lock_policyE2EE10_M_releaseEv@PLT
	jmp	.L1506
	.p2align 4,,10
	.p2align 3
.L1786:
	movq	48(%rsp), %rdi
	leaq	208(%rsp), %rsi
	xorl	%edx, %edx
.LEHB52:
	call	_ZNSt7__cxx1112basic_stringIcSt11char_traitsIcESaIcEE9_M_createERmm@PLT
	movq	%rax, 304(%rsp)
	movq	%rax, %rdi
	movq	208(%rsp), %rax
	movq	%rax, 320(%rsp)
.L1422:
	movq	176(%rsp), %rdx
	movq	%r12, %rsi
	call	memcpy@PLT
	movq	208(%rsp), %rax
	movq	304(%rsp), %rdx
	jmp	.L1424
	.p2align 4,,10
	.p2align 3
.L1781:
	movq	_ZGVZN4asio15system_categoryEvE8instance@GOTPCREL(%rip), %rdi
	call	__cxa_guard_acquire@PLT
	testl	%eax, %eax
	je	.L1397
	movq	16(%rsp), %rsi
	movq	_ZN4asio6detail15system_categoryD1Ev@GOTPCREL(%rip), %rdi
	leaq	__dso_handle(%rip), %rdx
	call	__cxa_atexit@PLT
	movq	_ZGVZN4asio15system_categoryEvE8instance@GOTPCREL(%rip), %rdi
	call	__cxa_guard_release@PLT
	jmp	.L1397
	.p2align 4,,10
	.p2align 3
.L1796:
	movq	_ZGVZN4asio15system_categoryEvE8instance@GOTPCREL(%rip), %rax
	movzbl	(%rax), %eax
	testb	%al, %al
	je	.L1804
.L1543:
	movq	16(%rsp), %rax
	cmpq	%rax, 248(%rsp)
	je	.L1805
.L1545:
	movq	_ZGVZN4asio15system_categoryEvE8instance@GOTPCREL(%rip), %rax
	movzbl	(%rax), %eax
	testb	%al, %al
	je	.L1806
.L1548:
	movl	240(%rsp), %eax
	movq	16(%rsp), %rdx
	cmpq	%rdx, 248(%rsp)
	je	.L1807
.L1550:
	movl	$-1, (%rbx)
	movb	$0, 4(%rbx)
	testl	%eax, %eax
	je	.L1537
	leaq	.LC34(%rip), %rsi
	movq	%r15, %rdi
	call	_ZN4asio6detail14do_throw_errorERKSt10error_codePKc@PLT
.LEHE52:
	.p2align 4,,10
	.p2align 3
.L1795:
	movq	_ZGVZN4asio15system_categoryEvE8instance@GOTPCREL(%rip), %rdi
	call	__cxa_guard_acquire@PLT
	testl	%eax, %eax
	je	.L1540
	movq	16(%rsp), %rsi
	movq	_ZN4asio6detail15system_categoryD1Ev@GOTPCREL(%rip), %rdi
	leaq	__dso_handle(%rip), %rdx
	call	__cxa_atexit@PLT
	movq	_ZGVZN4asio15system_categoryEvE8instance@GOTPCREL(%rip), %rdi
	call	__cxa_guard_release@PLT
	jmp	.L1540
	.p2align 4,,10
	.p2align 3
.L1782:
	movl	176(%rsp), %esi
	testl	%esi, %esi
	je	.L1808
.L1400:
	leaq	320(%rsp), %rax
	movb	$0, 320(%rsp)
	movq	%rax, 56(%rsp)
	movq	%rax, 304(%rsp)
	movq	$0, 312(%rsp)
.L1401:
	movq	%r15, %rdi
.LEHB53:
	call	_ZN4asio6detail14do_throw_errorERKSt10error_code@PLT
.LEHE53:
	.p2align 4,,10
	.p2align 3
.L1787:
	lock addl	$1, 12(%rbp)
	movq	32(%rbp), %rdi
	testq	%rdi, %rdi
	je	.L1445
	cmpb	$0, (%rax)
	jne	.L1444
	movl	$-1, %eax
	lock xaddl	%eax, 12(%rdi)
	jmp	.L1448
	.p2align 4,,10
	.p2align 3
.L1449:
	lock addl	$1, 8(%rbp)
	jmp	.L1450
	.p2align 4,,10
	.p2align 3
.L1600:
	movq	%rax, %r8
	jmp	.L1432
	.p2align 4,,10
	.p2align 3
.L1788:
	lock addl	$1, 12(%r12)
	movq	32(%r12), %rdi
	testq	%rdi, %rdi
	je	.L1458
	cmpb	$0, (%rax)
	jne	.L1457
	movl	$-1, %eax
	lock xaddl	%eax, 12(%rdi)
	jmp	.L1461
	.p2align 4,,10
	.p2align 3
.L1431:
	movq	160(%rsp), %rdi
	leaq	416(%rsp), %rsi
.LEHB54:
	call	_ZNSt7__cxx1112basic_stringIcSt11char_traitsIcESaIcEE9_M_assignERKS4_@PLT
.LEHE54:
	jmp	.L1434
	.p2align 4,,10
	.p2align 3
.L1792:
	movq	_ZGVZN4asio15system_categoryEvE8instance@GOTPCREL(%rip), %rax
	movzbl	(%rax), %eax
	testb	%al, %al
	je	.L1809
.L1419:
	movl	$22, 240(%rsp)
	movq	16(%rsp), %rax
	movq	%rax, 248(%rsp)
	jmp	.L1417
	.p2align 4,,10
	.p2align 3
.L1408:
	testq	%r12, %r12
	jne	.L1810
	movq	56(%rsp), %rdx
	jmp	.L1409
	.p2align 4,,10
	.p2align 3
.L1783:
	movq	48(%rsp), %rdi
	leaq	208(%rsp), %rsi
	xorl	%edx, %edx
.LEHB55:
	call	_ZNSt7__cxx1112basic_stringIcSt11char_traitsIcESaIcEE9_M_createERmm@PLT
.LEHE55:
	movq	%rax, 304(%rsp)
	movq	%rax, %rdi
	movq	208(%rsp), %rax
	movq	%rax, 320(%rsp)
.L1407:
	movq	152(%rsp), %rsi
	movq	%r12, %rdx
	call	memcpy@PLT
	movq	208(%rsp), %rax
	movq	304(%rsp), %rdx
	jmp	.L1409
	.p2align 4,,10
	.p2align 3
.L1470:
	testq	%r13, %r13
	je	.L1471
	.p2align 4,,10
	.p2align 3
.L1469:
	movq	152(%rsp), %rsi
	movq	%r13, %rdx
	call	memcpy@PLT
	movq	240(%rsp), %r13
	movq	16(%rbp), %rdi
	jmp	.L1471
	.p2align 4,,10
	.p2align 3
.L1794:
	movzbl	281(%rsp), %eax
	andl	$-64, %eax
	cmpb	$-128, %al
	je	.L1403
.L1772:
	leaq	721(%rsp), %r9
	jmp	.L1405
	.p2align 4,,10
	.p2align 3
.L1809:
	movq	_ZGVZN4asio15system_categoryEvE8instance@GOTPCREL(%rip), %rdi
	call	__cxa_guard_acquire@PLT
	testl	%eax, %eax
	je	.L1419
	movq	16(%rsp), %rsi
	movq	_ZN4asio6detail15system_categoryD1Ev@GOTPCREL(%rip), %rdi
	leaq	__dso_handle(%rip), %rdx
	call	__cxa_atexit@PLT
	movq	_ZGVZN4asio15system_categoryEvE8instance@GOTPCREL(%rip), %rdi
	call	__cxa_guard_release@PLT
	jmp	.L1419
	.p2align 4,,10
	.p2align 3
.L1403:
	leaq	721(%rsp), %r9
	movl	56(%rsp), %edi
	movq	%r9, %rsi
	movq	%r9, 184(%rsp)
	call	if_indextoname@PLT
	movq	184(%rsp), %r9
	testq	%rax, %rax
	jne	.L1404
	jmp	.L1405
	.p2align 4,,10
	.p2align 3
.L1800:
	movq	48(%rsp), %rdi
	xorl	%edx, %edx
	movq	%r15, %rsi
.LEHB56:
	call	_ZNSt7__cxx1112basic_stringIcSt11char_traitsIcESaIcEE9_M_createERmm@PLT
.LEHE56:
	movq	%rax, 16(%rbp)
	movq	%rax, %rdi
	movq	240(%rsp), %rax
	movq	%rax, 32(%rbp)
	jmp	.L1469
	.p2align 4,,10
	.p2align 3
.L1801:
	movq	__libc_single_threaded@GOTPCREL(%rip), %rax
	movzbl	(%rax), %eax
.L1478:
	movaps	%xmm0, 256(%rsp)
	testb	%al, %al
	jne	.L1477
	lock addl	$1, 8(%rbp)
	jmp	.L1479
	.p2align 4,,10
	.p2align 3
.L1804:
	movq	_ZGVZN4asio15system_categoryEvE8instance@GOTPCREL(%rip), %rdi
	call	__cxa_guard_acquire@PLT
	testl	%eax, %eax
	je	.L1543
	movq	16(%rsp), %rsi
	movq	_ZN4asio6detail15system_categoryD1Ev@GOTPCREL(%rip), %rdi
	leaq	__dso_handle(%rip), %rdx
	call	__cxa_atexit@PLT
	movq	_ZGVZN4asio15system_categoryEvE8instance@GOTPCREL(%rip), %rdi
	call	__cxa_guard_release@PLT
	jmp	.L1543
	.p2align 4,,10
	.p2align 3
.L1808:
	call	_ZN4asio15system_categoryEv@PLT
	movl	$22, 240(%rsp)
	movq	%rax, 248(%rsp)
	jmp	.L1400
	.p2align 4,,10
	.p2align 3
.L1805:
	cmpl	$11, 240(%rsp)
	jne	.L1545
.L1551:
	movl	%r12d, %edi
	leaq	208(%rsp), %rdx
	movl	$21537, %esi
	xorl	%eax, %eax
	movl	$0, 208(%rsp)
	call	ioctl@PLT
	andb	$-4, 4(%rbx)
	movl	%r12d, %edi
	movl	$0, 0(%rbp)
.LEHB57:
	call	close@PLT
.LEHE57:
	movl	%eax, %r12d
	movq	_ZGVZN4asio15system_categoryEvE8instance@GOTPCREL(%rip), %rax
	movzbl	(%rax), %eax
	testb	%al, %al
	je	.L1811
.L1553:
	movl	0(%rbp), %eax
	movq	16(%rsp), %rdx
	movl	%eax, 240(%rsp)
	movq	%rdx, 248(%rsp)
	testl	%r12d, %r12d
	jne	.L1550
	jmp	.L1538
	.p2align 4,,10
	.p2align 3
.L1806:
	movq	_ZGVZN4asio15system_categoryEvE8instance@GOTPCREL(%rip), %rdi
	call	__cxa_guard_acquire@PLT
	testl	%eax, %eax
	je	.L1548
	movq	16(%rsp), %rsi
	movq	_ZN4asio6detail15system_categoryD1Ev@GOTPCREL(%rip), %rdi
	leaq	__dso_handle(%rip), %rdx
	call	__cxa_atexit@PLT
	movq	_ZGVZN4asio15system_categoryEvE8instance@GOTPCREL(%rip), %rdi
	call	__cxa_guard_release@PLT
	jmp	.L1548
	.p2align 4,,10
	.p2align 3
.L1466:
	lock addl	$1, 8(%rax)
	jmp	.L1465
	.p2align 4,,10
	.p2align 3
.L1515:
	movq	%r14, %rdi
	call	_ZdlPv@PLT
.L1514:
	movl	$41, %edi
.LEHB58:
	call	_Znwm@PLT
.LEHE58:
	movb	$40, 40(%rax)
	movq	%rax, %r14
	jmp	.L1516
	.p2align 4,,10
	.p2align 3
.L1807:
	cmpl	$11, %eax
	jne	.L1550
	jmp	.L1551
	.p2align 4,,10
	.p2align 3
.L1476:
	lock addl	$1, 8(%rax)
	movq	__libc_single_threaded@GOTPCREL(%rip), %rax
	movzbl	(%rax), %eax
	jmp	.L1478
	.p2align 4,,10
	.p2align 3
.L1802:
	lock addl	$1, 12(%rbp)
	movq	48(%rbp), %rdi
	testq	%rdi, %rdi
	je	.L1488
	cmpb	$0, (%rax)
	jne	.L1487
	movl	$-1, %eax
	lock xaddl	%eax, 12(%rdi)
	jmp	.L1491
	.p2align 4,,10
	.p2align 3
.L1517:
	movb	$1, 64(%rdi)
	addq	$24, %rdi
	call	pthread_mutex_unlock@PLT
	movq	48(%rbx), %r12
	movq	$0, (%r14)
	movq	%r12, %xmm7
	cmpq	$0, 96(%r12)
	punpcklqdq	%xmm7, %xmm7
	movaps	%xmm7, 16(%rsp)
	je	.L1521
	movq	96(%r12), %rax
	movq	%r14, (%rax)
	movq	%r14, 96(%r12)
.L1522:
	movq	40(%r13), %rbx
	cmpb	$0, 40(%rbx)
	jne	.L1812
.L1523:
	lock addq	$1, 184(%rbx)
	leaq	48(%rbx), %r13
	movq	%r13, %rdi
	call	pthread_mutex_lock@PLT
	cmpq	$0, 200(%rbx)
	movq	$0, (%r12)
	je	.L1528
	movq	200(%rbx), %rax
	movq	%r12, (%rax)
	movq	%r12, 200(%rbx)
.L1529:
	movq	136(%rbx), %rax
	orq	$1, %rax
	movq	%rax, 136(%rbx)
	cmpq	$1, %rax
	je	.L1530
	movq	%r13, %rdi
	call	pthread_mutex_unlock@PLT
	leaq	88(%rbx), %rdi
	call	pthread_cond_signal@PLT
	jmp	.L1520
	.p2align 4,,10
	.p2align 3
.L1803:
	lock addl	$1, 8(%rbp)
	jmp	.L1504
.L1812:
	data16	leaq	_ZN4asio6detail15keyword_tss_ptrINS0_10call_stackINS0_15task_io_serviceENS0_27task_io_service_thread_infoEE7contextEE6value_E@tlsgd(%rip), %rdi
	.value	0x6666
	rex64
	call	__tls_get_addr@PLT
	movq	(%rax), %rax
	testq	%rax, %rax
	jne	.L1526
	jmp	.L1523
	.p2align 4,,10
	.p2align 3
.L1524:
	movq	16(%rax), %rax
	testq	%rax, %rax
	je	.L1523
.L1526:
	cmpq	(%rax), %rbx
	jne	.L1524
	movq	8(%rax), %rax
	testq	%rax, %rax
	je	.L1523
	addq	$1, 24(%rax)
	movq	$0, (%r12)
	movq	16(%rax), %rdx
	testq	%rdx, %rdx
	je	.L1527
	movq	%r12, (%rdx)
	movq	%r12, 16(%rax)
	jmp	.L1520
	.p2align 4,,10
	.p2align 3
.L1790:
	lock addl	$1, 8(%rbp)
	jmp	.L1513
.L1518:
	movdqa	(%rsp), %xmm6
	movups	%xmm6, 72(%rdi)
	jmp	.L1519
.L1811:
	movq	_ZGVZN4asio15system_categoryEvE8instance@GOTPCREL(%rip), %rdi
	call	__cxa_guard_acquire@PLT
	testl	%eax, %eax
	je	.L1553
	movq	16(%rsp), %rsi
	movq	_ZN4asio6detail15system_categoryD1Ev@GOTPCREL(%rip), %rdi
	leaq	__dso_handle(%rip), %rdx
	call	__cxa_atexit@PLT
	movq	_ZGVZN4asio15system_categoryEvE8instance@GOTPCREL(%rip), %rdi
	call	__cxa_guard_release@PLT
	jmp	.L1553
.L1530:
	cmpb	$0, 176(%rbx)
	jne	.L1532
	movq	144(%rbx), %rax
	testq	%rax, %rax
	je	.L1532
	movb	$1, 176(%rbx)
	leaq	88(%rax), %rdx
	movq	%r15, %rcx
	movl	$3, %esi
	movq	%rdx, 244(%rsp)
	movl	88(%rax), %edx
	movl	$-2147483639, 240(%rsp)
	movl	96(%rax), %edi
	call	epoll_ctl@PLT
.L1532:
	movq	%r13, %rdi
	call	pthread_mutex_unlock@PLT
	jmp	.L1520
.L1776:
	call	_ZN4asio15system_categoryEv@PLT
	movl	$9, 208(%rsp)
	movq	%rax, 216(%rsp)
.L1376:
	leaq	208(%rsp), %rdi
	leaq	.LC30(%rip), %rsi
.LEHB59:
	call	_ZN4asio6detail14do_throw_errorERKSt10error_codePKc@PLT
	.p2align 4,,10
	.p2align 3
.L1778:
	call	_ZN4asio15system_categoryEv@PLT
	movl	$9, 208(%rsp)
	movq	%rax, 216(%rsp)
.L1385:
	leaq	208(%rsp), %rdi
	leaq	.LC30(%rip), %rsi
	call	_ZN4asio6detail14do_throw_errorERKSt10error_codePKc@PLT
.LEHE59:
	.p2align 4,,10
	.p2align 3
.L1521:
	movdqa	(%rsp), %xmm6
	movups	%xmm6, 88(%r12)
	jmp	.L1522
.L1528:
	movdqa	16(%rsp), %xmm6
	movups	%xmm6, 192(%rbx)
	jmp	.L1529
.L1527:
	movdqa	16(%rsp), %xmm6
	movups	%xmm6, 8(%rax)
	jmp	.L1520
.L1798:
	call	__stack_chk_fail@PLT
.L1789:
	movl	%eax, %edi
.LEHB60:
	call	_ZSt20__throw_system_errori@PLT
.LEHE60:
.L1780:
	call	_ZN4asio15system_categoryEv@PLT
	movq	%r15, %rdi
	movl	$22, 240(%rsp)
	movq	%rax, 248(%rsp)
.LEHB61:
	call	_ZN4asio6detail14do_throw_errorERKSt10error_code@PLT
.L1791:
	call	_ZN4asio15system_categoryEv@PLT
	movq	%r15, %rdi
	movl	$22, 240(%rsp)
	movq	%rax, 248(%rsp)
	call	_ZN4asio6detail14do_throw_errorERKSt10error_code@PLT
.LEHE61:
.L1793:
	movq	56(%rsp), %rdi
	jmp	.L1422
.L1799:
	leaq	.LC4(%rip), %rdi
.LEHB62:
	call	_ZSt19__throw_logic_errorPKc@PLT
.LEHE62:
.L1810:
	movq	56(%rsp), %rdi
	jmp	.L1407
.L1580:
	endbr64
	movq	%rax, %rbp
	jmp	.L1414
.L1590:
	endbr64
	movq	%rax, %rbx
	jmp	.L1441
.L1598:
	endbr64
	movq	%rax, %rbx
	jmp	.L1483
.L1587:
	endbr64
	movq	%rax, %rbp
	jmp	.L1557
.L1595:
	endbr64
	movq	%rax, %rbx
	jmp	.L1484
.L1597:
	endbr64
	movq	%rax, %rbx
	jmp	.L1493
.L1749:
	endbr64
	jmp	.L1750
.L1582:
	endbr64
	movq	%rax, %rbx
	jmp	.L1442
.L1589:
	endbr64
	movq	%rax, %rbp
	jmp	.L1437
.L1581:
	endbr64
	movq	%rax, %rbp
	jmp	.L1557
.L1588:
	endbr64
	movq	%rax, %rbp
	jmp	.L1557
.L1585:
	endbr64
	movq	%rax, %rbp
	jmp	.L1374
.L1586:
	endbr64
	movq	%rax, %rbp
	jmp	.L1373
.L1596:
	endbr64
	movq	%rax, %rbx
	jmp	.L1474
.L1592:
	endbr64
	movq	%rax, %rbx
	jmp	.L1507
.L1594:
	endbr64
	movq	%rax, %rbx
	jmp	.L1475
.L1593:
	endbr64
	movq	%rax, %rbp
	jmp	.L1501
.L1591:
	endbr64
	movq	%rax, %rbx
	jmp	.L1452
.L1583:
	endbr64
	movq	%rax, %rbx
	jmp	.L1454
.L1599:
	endbr64
	movq	%rax, %rbx
	jmp	.L1533
	.section	.gcc_except_table
.LLSDA8275:
	.byte	0xff
	.byte	0xff
	.byte	0x1
	.uleb128 .LLSDACSE8275-.LLSDACSB8275
.LLSDACSB8275:
	.uleb128 .LEHB32-.LFB8275
	.uleb128 .LEHE32-.LEHB32
	.uleb128 .L1585-.LFB8275
	.uleb128 0
	.uleb128 .LEHB33-.LFB8275
	.uleb128 .LEHE33-.LEHB33
	.uleb128 .L1586-.LFB8275
	.uleb128 0
	.uleb128 .LEHB34-.LFB8275
	.uleb128 .LEHE34-.LEHB34
	.uleb128 .L1580-.LFB8275
	.uleb128 0
	.uleb128 .LEHB35-.LFB8275
	.uleb128 .LEHE35-.LEHB35
	.uleb128 .L1581-.LFB8275
	.uleb128 0
	.uleb128 .LEHB36-.LFB8275
	.uleb128 .LEHE36-.LEHB36
	.uleb128 .L1580-.LFB8275
	.uleb128 0
	.uleb128 .LEHB37-.LFB8275
	.uleb128 .LEHE37-.LEHB37
	.uleb128 .L1589-.LFB8275
	.uleb128 0
	.uleb128 .LEHB38-.LFB8275
	.uleb128 .LEHE38-.LEHB38
	.uleb128 .L1580-.LFB8275
	.uleb128 0
	.uleb128 .LEHB39-.LFB8275
	.uleb128 .LEHE39-.LEHB39
	.uleb128 .L1582-.LFB8275
	.uleb128 0
	.uleb128 .LEHB40-.LFB8275
	.uleb128 .LEHE40-.LEHB40
	.uleb128 .L1590-.LFB8275
	.uleb128 0
	.uleb128 .LEHB41-.LFB8275
	.uleb128 .LEHE41-.LEHB41
	.uleb128 .L1583-.LFB8275
	.uleb128 0
	.uleb128 .LEHB42-.LFB8275
	.uleb128 .LEHE42-.LEHB42
	.uleb128 .L1591-.LFB8275
	.uleb128 0
	.uleb128 .LEHB43-.LFB8275
	.uleb128 .LEHE43-.LEHB43
	.uleb128 .L1749-.LFB8275
	.uleb128 0
	.uleb128 .LEHB44-.LFB8275
	.uleb128 .LEHE44-.LEHB44
	.uleb128 .L1588-.LFB8275
	.uleb128 0
	.uleb128 .LEHB45-.LFB8275
	.uleb128 .LEHE45-.LEHB45
	.uleb128 .L1580-.LFB8275
	.uleb128 0
	.uleb128 .LEHB46-.LFB8275
	.uleb128 .LEHE46-.LEHB46
	.uleb128 .L1593-.LFB8275
	.uleb128 0
	.uleb128 .LEHB47-.LFB8275
	.uleb128 .LEHE47-.LEHB47
	.uleb128 .L1594-.LFB8275
	.uleb128 0
	.uleb128 .LEHB48-.LFB8275
	.uleb128 .LEHE48-.LEHB48
	.uleb128 .L1595-.LFB8275
	.uleb128 0
	.uleb128 .LEHB49-.LFB8275
	.uleb128 .LEHE49-.LEHB49
	.uleb128 .L1598-.LFB8275
	.uleb128 0
	.uleb128 .LEHB50-.LFB8275
	.uleb128 .LEHE50-.LEHB50
	.uleb128 .L1597-.LFB8275
	.uleb128 0
	.uleb128 .LEHB51-.LFB8275
	.uleb128 .LEHE51-.LEHB51
	.uleb128 .L1592-.LFB8275
	.uleb128 0
	.uleb128 .LEHB52-.LFB8275
	.uleb128 .LEHE52-.LEHB52
	.uleb128 .L1580-.LFB8275
	.uleb128 0
	.uleb128 .LEHB53-.LFB8275
	.uleb128 .LEHE53-.LEHB53
	.uleb128 .L1587-.LFB8275
	.uleb128 0
	.uleb128 .LEHB54-.LFB8275
	.uleb128 .LEHE54-.LEHB54
	.uleb128 .L1589-.LFB8275
	.uleb128 0
	.uleb128 .LEHB55-.LFB8275
	.uleb128 .LEHE55-.LEHB55
	.uleb128 .L1580-.LFB8275
	.uleb128 0
	.uleb128 .LEHB56-.LFB8275
	.uleb128 .LEHE56-.LEHB56
	.uleb128 .L1596-.LFB8275
	.uleb128 0
	.uleb128 .LEHB57-.LFB8275
	.uleb128 .LEHE57-.LEHB57
	.uleb128 .L1580-.LFB8275
	.uleb128 0
	.uleb128 .LEHB58-.LFB8275
	.uleb128 .LEHE58-.LEHB58
	.uleb128 .L1599-.LFB8275
	.uleb128 0
	.uleb128 .LEHB59-.LFB8275
	.uleb128 .LEHE59-.LEHB59
	.uleb128 .L1580-.LFB8275
	.uleb128 0
	.uleb128 .LEHB60-.LFB8275
	.uleb128 .LEHE60-.LEHB60
	.uleb128 .L1749-.LFB8275
	.uleb128 0
	.uleb128 .LEHB61-.LFB8275
	.uleb128 .LEHE61-.LEHB61
	.uleb128 .L1580-.LFB8275
	.uleb128 0
	.uleb128 .LEHB62-.LFB8275
	.uleb128 .LEHE62-.LEHB62
	.uleb128 .L1596-.LFB8275
	.uleb128 0
.LLSDACSE8275:
	.text
	.cfi_endproc
	.section	.text.unlikely
	.cfi_startproc
	.cfi_personality 0x9b,DW.ref.__gxx_personality_v0
	.cfi_lsda 0x1b,.LLSDAC8275
	.type	_ZN8asiodnp315MasterTCPServer16AcceptConnectionEmRKSt10shared_ptrIN7asiopal8ExecutorEEN4asio19basic_stream_socketINS7_2ip3tcpENS7_21stream_socket_serviceISA_EEEE.cold, @function
_ZN8asiodnp315MasterTCPServer16AcceptConnectionEmRKSt10shared_ptrIN7asiopal8ExecutorEEN4asio19basic_stream_socketINS7_2ip3tcpENS7_21stream_socket_serviceISA_EEEE.cold:
.LFSB8275:
.L1441:
	.cfi_def_cfa_offset 944
	.cfi_offset 3, -56
	.cfi_offset 6, -48
	.cfi_offset 12, -40
	.cfi_offset 13, -32
	.cfi_offset 14, -24
	.cfi_offset 15, -16
	movl	$72, %esi
	movq	%rbp, %rdi
	call	_ZdlPvm@PLT
.L1442:
	movq	232(%rsp), %rax
	leaq	208(%rsp), %rsi
	movq	%rbx, %rbp
	leaq	40(%rax), %rdi
	call	_ZN4asio6detail28reactive_socket_service_base7destroyERNS1_24base_implementation_typeE@PLT
.L1414:
	movq	72(%rsp), %rdi
	call	_ZNSt7__cxx1119basic_ostringstreamIcSt11char_traitsIcESaIcEED1Ev@PLT
	movq	%rbp, %rdi
.LEHB63:
	call	_Unwind_Resume@PLT
.LEHE63:
.L1557:
	movq	304(%rsp), %rdi
	cmpq	56(%rsp), %rdi
	je	.L1414
	movq	320(%rsp), %rax
	leaq	1(%rax), %rsi
	call	_ZdlPvm@PLT
	jmp	.L1414
.L1483:
	movl	$624, %esi
	movq	%rbp, %rdi
	call	_ZdlPvm@PLT
.L1484:
	movq	%r15, %rdi
	call	_ZN7openpal6LoggerD1Ev@PLT
.L1475:
	movq	304(%rsp), %rdi
	cmpq	56(%rsp), %rdi
	je	.L1500
	movq	320(%rsp), %rax
	leaq	1(%rax), %rsi
	call	_ZdlPvm@PLT
.L1500:
	movq	%rbx, %rbp
.L1501:
	movq	216(%rsp), %rdi
	testq	%rdi, %rdi
	jne	.L1813
.L1503:
	movq	%r12, %rdi
	call	pthread_mutex_unlock@PLT
.L1509:
	movq	200(%rsp), %rdi
	testq	%rdi, %rdi
	je	.L1414
	call	_ZNSt16_Sp_counted_baseILN9__gnu_cxx12_Lock_policyE2EE10_M_releaseEv@PLT
	jmp	.L1414
.L1510:
.LEHB64:
	call	_ZSt20__throw_bad_weak_ptrv@PLT
.LEHE64:
.L1493:
	movq	%rbp, %rdi
	call	_ZNSt16_Sp_counted_baseILN9__gnu_cxx12_Lock_policyE2EE10_M_releaseEv@PLT
	jmp	.L1484
.L1584:
	endbr64
.L1750:
	movq	%rax, %rbp
	jmp	.L1509
.L1437:
	movq	272(%rsp), %rdi
	cmpq	%r12, %rdi
	je	.L1414
	movq	288(%rsp), %rax
	leaq	1(%rax), %rsi
	call	_ZdlPvm@PLT
	jmp	.L1414
.L1813:
	call	_ZNSt16_Sp_counted_baseILN9__gnu_cxx12_Lock_policyE2EE10_M_releaseEv@PLT
	jmp	.L1503
.L1373:
	movq	168(%rsp), %rdi
	call	_ZNSt7__cxx1115basic_stringbufIcSt11char_traitsIcESaIcEED1Ev@PLT
	movq	96(%rsp), %rax
	movq	104(%rsp), %rbx
	movq	%rax, 336(%rsp)
	movq	-24(%rax), %rax
	movq	%rbx, 336(%rsp,%rax)
.L1374:
	movq	_ZTVSt9basic_iosIcSt11char_traitsIcEE@GOTPCREL(%rip), %rax
	movq	112(%rsp), %rdi
	addq	$16, %rax
	movq	%rax, 448(%rsp)
	call	_ZNSt8ios_baseD2Ev@PLT
	movq	%rbp, %rdi
.LEHB65:
	call	_Unwind_Resume@PLT
.LEHE65:
.L1474:
	movl	$56, %esi
	movq	%rbp, %rdi
	call	_ZdlPvm@PLT
	jmp	.L1475
.L1507:
	movq	248(%rsp), %rdi
	testq	%rdi, %rdi
	je	.L1508
	call	_ZNSt16_Sp_counted_baseILN9__gnu_cxx12_Lock_policyE2EE10_M_releaseEv@PLT
.L1508:
	movq	%rbp, %rdi
	movq	%rbx, %rbp
	call	_ZNSt16_Sp_counted_baseILN9__gnu_cxx12_Lock_policyE2EE10_M_releaseEv@PLT
	jmp	.L1503
.L1452:
	movq	264(%rsp), %rax
	movq	%r15, %rsi
	leaq	40(%rax), %rdi
	call	_ZN4asio6detail28reactive_socket_service_base7destroyERNS1_24base_implementation_typeE@PLT
	movq	200(%rsp), %rdi
	testq	%rdi, %rdi
	je	.L1453
	call	_ZNSt16_Sp_counted_baseILN9__gnu_cxx12_Lock_policyE2EE10_M_releaseEv@PLT
.L1453:
	movl	$112, %esi
	movq	%r12, %rdi
	call	_ZdlPvm@PLT
.L1454:
	movq	%rbp, %rdi
	call	_ZNSt16_Sp_counted_baseILN9__gnu_cxx12_Lock_policyE2EE10_M_releaseEv@PLT
	jmp	.L1442
.L1533:
	movq	%rbp, %rdi
	call	_ZNSt16_Sp_counted_baseILN9__gnu_cxx12_Lock_policyE2EE10_M_releaseEv@PLT
	movq	%rbp, %rdi
	movq	%rbx, %rbp
	call	_ZNSt16_Sp_counted_baseILN9__gnu_cxx12_Lock_policyE2EE10_M_releaseEv@PLT
	jmp	.L1509
	.cfi_endproc
.LFE8275:
	.section	.gcc_except_table
.LLSDAC8275:
	.byte	0xff
	.byte	0xff
	.byte	0x1
	.uleb128 .LLSDACSEC8275-.LLSDACSBC8275
.LLSDACSBC8275:
	.uleb128 .LEHB63-.LCOLDB37
	.uleb128 .LEHE63-.LEHB63
	.uleb128 0
	.uleb128 0
	.uleb128 .LEHB64-.LCOLDB37
	.uleb128 .LEHE64-.LEHB64
	.uleb128 .L1584-.LCOLDB37
	.uleb128 0
	.uleb128 .LEHB65-.LCOLDB37
	.uleb128 .LEHE65-.LEHB65
	.uleb128 0
	.uleb128 0
.LLSDACSEC8275:
	.section	.text.unlikely
	.text
	.size	_ZN8asiodnp315MasterTCPServer16AcceptConnectionEmRKSt10shared_ptrIN7asiopal8ExecutorEEN4asio19basic_stream_socketINS7_2ip3tcpENS7_21stream_socket_serviceISA_EEEE, .-_ZN8asiodnp315MasterTCPServer16AcceptConnectionEmRKSt10shared_ptrIN7asiopal8ExecutorEEN4asio19basic_stream_socketINS7_2ip3tcpENS7_21stream_socket_serviceISA_EEEE
	.section	.text.unlikely
	.size	_ZN8asiodnp315MasterTCPServer16AcceptConnectionEmRKSt10shared_ptrIN7asiopal8ExecutorEEN4asio19basic_stream_socketINS7_2ip3tcpENS7_21stream_socket_serviceISA_EEEE.cold, .-_ZN8asiodnp315MasterTCPServer16AcceptConnectionEmRKSt10shared_ptrIN7asiopal8ExecutorEEN4asio19basic_stream_socketINS7_2ip3tcpENS7_21stream_socket_serviceISA_EEEE.cold
.LCOLDE37:
	.text
.LHOTE37:
	.section	.text._ZN4asio6detail18completion_handlerIZN7asiopal13IAsyncChannel8ShutdownEvEUlvE_E3ptr5resetEv,"axG",@progbits,_ZN4asio6detail18completion_handlerIZN7asiopal13IAsyncChannel8ShutdownEvEUlvE_E3ptr5resetEv,comdat
	.align 2
	.p2align 4
	.weak	_ZN4asio6detail18completion_handlerIZN7asiopal13IAsyncChannel8ShutdownEvEUlvE_E3ptr5resetEv
	.type	_ZN4asio6detail18completion_handlerIZN7asiopal13IAsyncChannel8ShutdownEvEUlvE_E3ptr5resetEv, @function
_ZN4asio6detail18completion_handlerIZN7asiopal13IAsyncChannel8ShutdownEvEUlvE_E3ptr5resetEv:
.LFB10223:
	.cfi_startproc
	endbr64
	pushq	%r12
	.cfi_def_cfa_offset 16
	.cfi_offset 12, -16
	pushq	%rbp
	.cfi_def_cfa_offset 24
	.cfi_offset 6, -24
	pushq	%rbx
	.cfi_def_cfa_offset 32
	.cfi_offset 3, -32
	movq	16(%rdi), %rax
	movq	%rdi, %rbx
	testq	%rax, %rax
	je	.L1815
	movq	32(%rax), %rbp
	testq	%rbp, %rbp
	je	.L1817
	movq	__libc_single_threaded@GOTPCREL(%rip), %r12
	cmpb	$0, (%r12)
	je	.L1818
	movl	8(%rbp), %eax
	leal	-1(%rax), %edx
	movl	%edx, 8(%rbp)
.L1819:
	cmpl	$1, %eax
	je	.L1839
.L1817:
	movq	$0, 16(%rbx)
.L1815:
	movq	8(%rbx), %rbp
	testq	%rbp, %rbp
	je	.L1814
	data16	leaq	_ZN4asio6detail15keyword_tss_ptrINS0_10call_stackINS0_15task_io_serviceENS0_27task_io_service_thread_infoEE7contextEE6value_E@tlsgd(%rip), %rdi
	.value	0x6666
	rex64
	call	__tls_get_addr@PLT
	movq	(%rax), %rax
	testq	%rax, %rax
	je	.L1824
	movq	8(%rax), %rax
	testq	%rax, %rax
	je	.L1824
	cmpq	$0, (%rax)
	je	.L1840
.L1824:
	movq	%rbp, %rdi
	call	_ZdlPv@PLT
.L1825:
	movq	$0, 8(%rbx)
.L1814:
	popq	%rbx
	.cfi_remember_state
	.cfi_def_cfa_offset 24
	popq	%rbp
	.cfi_def_cfa_offset 16
	popq	%r12
	.cfi_def_cfa_offset 8
	ret
	.p2align 4,,10
	.p2align 3
.L1839:
	.cfi_restore_state
	movq	0(%rbp), %rax
	movq	%rbp, %rdi
	call	*16(%rax)
	cmpb	$0, (%r12)
	je	.L1821
	movl	12(%rbp), %eax
	leal	-1(%rax), %edx
	movl	%edx, 12(%rbp)
.L1822:
	cmpl	$1, %eax
	jne	.L1817
	movq	0(%rbp), %rax
	movq	%rbp, %rdi
	call	*24(%rax)
	jmp	.L1817
	.p2align 4,,10
	.p2align 3
.L1840:
	movzbl	40(%rbp), %edx
	movb	%dl, 0(%rbp)
	movq	%rbp, (%rax)
	jmp	.L1825
	.p2align 4,,10
	.p2align 3
.L1818:
	movl	$-1, %eax
	lock xaddl	%eax, 8(%rbp)
	jmp	.L1819
	.p2align 4,,10
	.p2align 3
.L1821:
	movl	$-1, %eax
	lock xaddl	%eax, 12(%rbp)
	jmp	.L1822
	.cfi_endproc
.LFE10223:
	.size	_ZN4asio6detail18completion_handlerIZN7asiopal13IAsyncChannel8ShutdownEvEUlvE_E3ptr5resetEv, .-_ZN4asio6detail18completion_handlerIZN7asiopal13IAsyncChannel8ShutdownEvEUlvE_E3ptr5resetEv
	.section	.text._ZN4asio6detail18completion_handlerIZN7asiopal13IAsyncChannel8ShutdownEvEUlvE_E11do_completeEPNS0_15task_io_serviceEPNS0_25task_io_service_operationERKSt10error_codem,"axG",@progbits,_ZN4asio6detail18completion_handlerIZN7asiopal13IAsyncChannel8ShutdownEvEUlvE_E11do_completeEPNS0_15task_io_serviceEPNS0_25task_io_service_operationERKSt10error_codem,comdat
	.p2align 4
	.weak	_ZN4asio6detail18completion_handlerIZN7asiopal13IAsyncChannel8ShutdownEvEUlvE_E11do_completeEPNS0_15task_io_serviceEPNS0_25task_io_service_operationERKSt10error_codem
	.type	_ZN4asio6detail18completion_handlerIZN7asiopal13IAsyncChannel8ShutdownEvEUlvE_E11do_completeEPNS0_15task_io_serviceEPNS0_25task_io_service_operationERKSt10error_codem, @function
_ZN4asio6detail18completion_handlerIZN7asiopal13IAsyncChannel8ShutdownEvEUlvE_E11do_completeEPNS0_15task_io_serviceEPNS0_25task_io_service_operationERKSt10error_codem:
.LFB10227:
	.cfi_startproc
	.cfi_personality 0x9b,DW.ref.__gxx_personality_v0
	.cfi_lsda 0x1b,.LLSDA10227
	endbr64
	pushq	%r12
	.cfi_def_cfa_offset 16
	.cfi_offset 12, -16
	movq	%rsi, %r12
	pushq	%rbp
	.cfi_def_cfa_offset 24
	.cfi_offset 6, -24
	pushq	%rbx
	.cfi_def_cfa_offset 32
	.cfi_offset 3, -32
	movq	%rdi, %rbx
	subq	$64, %rsp
	.cfi_def_cfa_offset 96
	movdqu	24(%rsi), %xmm1
	movq	32(%rsi), %rbp
	movq	%fs:40, %rax
	movq	%rax, 56(%rsp)
	xorl	%eax, %eax
	movq	%rsp, %rax
	movq	%rsi, 40(%rsp)
	movq	%rax, 32(%rsp)
	movq	$0, 48(%rsp)
	movaps	%xmm1, (%rsp)
	data16	leaq	_ZN4asio6detail15keyword_tss_ptrINS0_10call_stackINS0_15task_io_serviceENS0_27task_io_service_thread_infoEE7contextEE6value_E@tlsgd(%rip), %rdi
	.value	0x6666
	rex64
	call	__tls_get_addr@PLT
	movq	(%rax), %rax
	testq	%rax, %rax
	je	.L1842
	movq	8(%rax), %rax
	testq	%rax, %rax
	je	.L1842
	cmpq	$0, (%rax)
	je	.L1907
.L1842:
	movq	%r12, %rdi
	call	_ZdlPv@PLT
	movq	8(%rsp), %rbp
.L1843:
	movq	$0, 40(%rsp)
	testq	%rbx, %rbx
	je	.L1844
	movq	(%rsp), %xmm0
	movq	%rbp, %xmm2
	punpcklqdq	%xmm2, %xmm0
	movaps	%xmm0, 16(%rsp)
	testq	%rbp, %rbp
	je	.L1845
	movq	__libc_single_threaded@GOTPCREL(%rip), %rax
	cmpb	$0, (%rax)
	je	.L1846
	addl	$1, 8(%rbp)
.L1845:
	leaq	16(%rsp), %rdi
.LEHB66:
	call	_ZN7asiopal13IAsyncChannel16CheckForShutdownESt10shared_ptrIS0_E.isra.0
.LEHE66:
	movq	24(%rsp), %rbp
	testq	%rbp, %rbp
	je	.L1848
	movq	__libc_single_threaded@GOTPCREL(%rip), %rbx
	cmpb	$0, (%rbx)
	je	.L1849
	movl	8(%rbp), %eax
	leal	-1(%rax), %edx
	movl	%edx, 8(%rbp)
.L1850:
	cmpl	$1, %eax
	jne	.L1848
	movq	0(%rbp), %rax
	movq	%rbp, %rdi
	call	*16(%rax)
	cmpb	$0, (%rbx)
	je	.L1852
	movl	12(%rbp), %eax
	leal	-1(%rax), %edx
	movl	%edx, 12(%rbp)
.L1853:
	cmpl	$1, %eax
	je	.L1908
	.p2align 4,,10
	.p2align 3
.L1848:
	sfence
	movq	8(%rsp), %rbp
.L1844:
	testq	%rbp, %rbp
	je	.L1859
	movq	__libc_single_threaded@GOTPCREL(%rip), %rbx
	cmpb	$0, (%rbx)
	je	.L1860
	movl	8(%rbp), %eax
	leal	-1(%rax), %edx
	movl	%edx, 8(%rbp)
.L1861:
	cmpl	$1, %eax
	je	.L1909
.L1859:
	movq	48(%rsp), %rax
	testq	%rax, %rax
	je	.L1865
	movq	32(%rax), %rbp
	testq	%rbp, %rbp
	je	.L1867
	movq	__libc_single_threaded@GOTPCREL(%rip), %rbx
	cmpb	$0, (%rbx)
	je	.L1868
	movl	8(%rbp), %eax
	leal	-1(%rax), %edx
	movl	%edx, 8(%rbp)
.L1869:
	cmpl	$1, %eax
	je	.L1910
.L1867:
	movq	$0, 48(%rsp)
.L1865:
	movq	40(%rsp), %rbp
	testq	%rbp, %rbp
	je	.L1841
	data16	leaq	_ZN4asio6detail15keyword_tss_ptrINS0_10call_stackINS0_15task_io_serviceENS0_27task_io_service_thread_infoEE7contextEE6value_E@tlsgd(%rip), %rdi
	.value	0x6666
	rex64
	call	__tls_get_addr@PLT
	movq	(%rax), %rax
	testq	%rax, %rax
	je	.L1874
	movq	8(%rax), %rax
	testq	%rax, %rax
	je	.L1874
	cmpq	$0, (%rax)
	je	.L1911
.L1874:
	movq	56(%rsp), %rax
	subq	%fs:40, %rax
	jne	.L1906
	addq	$64, %rsp
	.cfi_remember_state
	.cfi_def_cfa_offset 32
	movq	%rbp, %rdi
	popq	%rbx
	.cfi_def_cfa_offset 24
	popq	%rbp
	.cfi_def_cfa_offset 16
	popq	%r12
	.cfi_def_cfa_offset 8
	jmp	_ZdlPv@PLT
	.p2align 4,,10
	.p2align 3
.L1911:
	.cfi_restore_state
	movzbl	40(%rbp), %edx
	movb	%dl, 0(%rbp)
	movq	%rbp, (%rax)
.L1841:
	movq	56(%rsp), %rax
	subq	%fs:40, %rax
	jne	.L1906
	addq	$64, %rsp
	.cfi_remember_state
	.cfi_def_cfa_offset 32
	popq	%rbx
	.cfi_def_cfa_offset 24
	popq	%rbp
	.cfi_def_cfa_offset 16
	popq	%r12
	.cfi_def_cfa_offset 8
	ret
	.p2align 4,,10
	.p2align 3
.L1909:
	.cfi_restore_state
	movq	0(%rbp), %rax
	movq	%rbp, %rdi
	call	*16(%rax)
	cmpb	$0, (%rbx)
	je	.L1863
	movl	12(%rbp), %eax
	leal	-1(%rax), %edx
	movl	%edx, 12(%rbp)
.L1864:
	cmpl	$1, %eax
	jne	.L1859
	movq	0(%rbp), %rax
	movq	%rbp, %rdi
	call	*24(%rax)
	jmp	.L1859
	.p2align 4,,10
	.p2align 3
.L1860:
	movl	$-1, %eax
	lock xaddl	%eax, 8(%rbp)
	jmp	.L1861
	.p2align 4,,10
	.p2align 3
.L1910:
	movq	0(%rbp), %rax
	movq	%rbp, %rdi
	call	*16(%rax)
	cmpb	$0, (%rbx)
	je	.L1871
	movl	12(%rbp), %eax
	leal	-1(%rax), %edx
	movl	%edx, 12(%rbp)
.L1872:
	cmpl	$1, %eax
	jne	.L1867
	movq	0(%rbp), %rax
	movq	%rbp, %rdi
	call	*24(%rax)
	jmp	.L1867
	.p2align 4,,10
	.p2align 3
.L1849:
	movl	$-1, %eax
	lock xaddl	%eax, 8(%rbp)
	jmp	.L1850
	.p2align 4,,10
	.p2align 3
.L1907:
	movzbl	40(%r12), %edx
	movb	%dl, (%r12)
	movq	%r12, (%rax)
	jmp	.L1843
	.p2align 4,,10
	.p2align 3
.L1846:
	lock addl	$1, 8(%rbp)
	jmp	.L1845
	.p2align 4,,10
	.p2align 3
.L1868:
	movl	$-1, %eax
	lock xaddl	%eax, 8(%rbp)
	jmp	.L1869
	.p2align 4,,10
	.p2align 3
.L1863:
	movl	$-1, %eax
	lock xaddl	%eax, 12(%rbp)
	jmp	.L1864
	.p2align 4,,10
	.p2align 3
.L1908:
	movq	0(%rbp), %rax
	movq	%rbp, %rdi
	call	*24(%rax)
	jmp	.L1848
	.p2align 4,,10
	.p2align 3
.L1871:
	movl	$-1, %eax
	lock xaddl	%eax, 12(%rbp)
	jmp	.L1872
	.p2align 4,,10
	.p2align 3
.L1852:
	movl	$-1, %eax
	lock xaddl	%eax, 12(%rbp)
	jmp	.L1853
.L1906:
	call	__stack_chk_fail@PLT
.L1877:
	endbr64
	movq	%rax, %rbp
.L1854:
	movq	24(%rsp), %rdi
	testq	%rdi, %rdi
	je	.L1855
	call	_ZNSt16_Sp_counted_baseILN9__gnu_cxx12_Lock_policyE2EE10_M_releaseEv@PLT
.L1855:
	sfence
	movq	8(%rsp), %rdi
	testq	%rdi, %rdi
	je	.L1857
	call	_ZNSt16_Sp_counted_baseILN9__gnu_cxx12_Lock_policyE2EE10_M_releaseEv@PLT
.L1857:
	leaq	32(%rsp), %rdi
	call	_ZN4asio6detail18completion_handlerIZN7asiopal13IAsyncChannel8ShutdownEvEUlvE_E3ptr5resetEv@PLT
	movq	%rbp, %rdi
.LEHB67:
	call	_Unwind_Resume@PLT
.LEHE67:
	.cfi_endproc
.LFE10227:
	.section	.gcc_except_table
.LLSDA10227:
	.byte	0xff
	.byte	0xff
	.byte	0x1
	.uleb128 .LLSDACSE10227-.LLSDACSB10227
.LLSDACSB10227:
	.uleb128 .LEHB66-.LFB10227
	.uleb128 .LEHE66-.LEHB66
	.uleb128 .L1877-.LFB10227
	.uleb128 0
	.uleb128 .LEHB67-.LFB10227
	.uleb128 .LEHE67-.LEHB67
	.uleb128 0
	.uleb128 0
.LLSDACSE10227:
	.section	.text._ZN4asio6detail18completion_handlerIZN7asiopal13IAsyncChannel8ShutdownEvEUlvE_E11do_completeEPNS0_15task_io_serviceEPNS0_25task_io_service_operationERKSt10error_codem,"axG",@progbits,_ZN4asio6detail18completion_handlerIZN7asiopal13IAsyncChannel8ShutdownEvEUlvE_E11do_completeEPNS0_15task_io_serviceEPNS0_25task_io_service_operationERKSt10error_codem,comdat
	.size	_ZN4asio6detail18completion_handlerIZN7asiopal13IAsyncChannel8ShutdownEvEUlvE_E11do_completeEPNS0_15task_io_serviceEPNS0_25task_io_service_operationERKSt10error_codem, .-_ZN4asio6detail18completion_handlerIZN7asiopal13IAsyncChannel8ShutdownEvEUlvE_E11do_completeEPNS0_15task_io_serviceEPNS0_25task_io_service_operationERKSt10error_codem
	.section	.text._ZN4asio6detail18completion_handlerIZN7asiopal13IAsyncChannel16CheckForShutdownESt10shared_ptrIS3_EEUlvE_E3ptr5resetEv,"axG",@progbits,_ZN4asio6detail18completion_handlerIZN7asiopal13IAsyncChannel16CheckForShutdownESt10shared_ptrIS3_EEUlvE_E3ptr5resetEv,comdat
	.align 2
	.p2align 4
	.weak	_ZN4asio6detail18completion_handlerIZN7asiopal13IAsyncChannel16CheckForShutdownESt10shared_ptrIS3_EEUlvE_E3ptr5resetEv
	.type	_ZN4asio6detail18completion_handlerIZN7asiopal13IAsyncChannel16CheckForShutdownESt10shared_ptrIS3_EEUlvE_E3ptr5resetEv, @function
_ZN4asio6detail18completion_handlerIZN7asiopal13IAsyncChannel16CheckForShutdownESt10shared_ptrIS3_EEUlvE_E3ptr5resetEv:
.LFB10228:
	.cfi_startproc
	endbr64
	pushq	%r12
	.cfi_def_cfa_offset 16
	.cfi_offset 12, -16
	pushq	%rbp
	.cfi_def_cfa_offset 24
	.cfi_offset 6, -24
	pushq	%rbx
	.cfi_def_cfa_offset 32
	.cfi_offset 3, -32
	movq	16(%rdi), %rax
	movq	%rdi, %rbx
	testq	%rax, %rax
	je	.L1913
	movq	32(%rax), %rbp
	testq	%rbp, %rbp
	je	.L1915
	movq	__libc_single_threaded@GOTPCREL(%rip), %r12
	cmpb	$0, (%r12)
	je	.L1916
	movl	8(%rbp), %eax
	leal	-1(%rax), %edx
	movl	%edx, 8(%rbp)
.L1917:
	cmpl	$1, %eax
	je	.L1937
.L1915:
	movq	$0, 16(%rbx)
.L1913:
	movq	8(%rbx), %rbp
	testq	%rbp, %rbp
	je	.L1912
	data16	leaq	_ZN4asio6detail15keyword_tss_ptrINS0_10call_stackINS0_15task_io_serviceENS0_27task_io_service_thread_infoEE7contextEE6value_E@tlsgd(%rip), %rdi
	.value	0x6666
	rex64
	call	__tls_get_addr@PLT
	movq	(%rax), %rax
	testq	%rax, %rax
	je	.L1922
	movq	8(%rax), %rax
	testq	%rax, %rax
	je	.L1922
	cmpq	$0, (%rax)
	je	.L1938
.L1922:
	movq	%rbp, %rdi
	call	_ZdlPv@PLT
.L1923:
	movq	$0, 8(%rbx)
.L1912:
	popq	%rbx
	.cfi_remember_state
	.cfi_def_cfa_offset 24
	popq	%rbp
	.cfi_def_cfa_offset 16
	popq	%r12
	.cfi_def_cfa_offset 8
	ret
	.p2align 4,,10
	.p2align 3
.L1937:
	.cfi_restore_state
	movq	0(%rbp), %rax
	movq	%rbp, %rdi
	call	*16(%rax)
	cmpb	$0, (%r12)
	je	.L1919
	movl	12(%rbp), %eax
	leal	-1(%rax), %edx
	movl	%edx, 12(%rbp)
.L1920:
	cmpl	$1, %eax
	jne	.L1915
	movq	0(%rbp), %rax
	movq	%rbp, %rdi
	call	*24(%rax)
	jmp	.L1915
	.p2align 4,,10
	.p2align 3
.L1938:
	movzbl	40(%rbp), %edx
	movb	%dl, 0(%rbp)
	movq	%rbp, (%rax)
	jmp	.L1923
	.p2align 4,,10
	.p2align 3
.L1916:
	movl	$-1, %eax
	lock xaddl	%eax, 8(%rbp)
	jmp	.L1917
	.p2align 4,,10
	.p2align 3
.L1919:
	movl	$-1, %eax
	lock xaddl	%eax, 12(%rbp)
	jmp	.L1920
	.cfi_endproc
.LFE10228:
	.size	_ZN4asio6detail18completion_handlerIZN7asiopal13IAsyncChannel16CheckForShutdownESt10shared_ptrIS3_EEUlvE_E3ptr5resetEv, .-_ZN4asio6detail18completion_handlerIZN7asiopal13IAsyncChannel16CheckForShutdownESt10shared_ptrIS3_EEUlvE_E3ptr5resetEv
	.section	.text._ZN4asio6detail18completion_handlerIZN7asiopal13IAsyncChannel16CheckForShutdownESt10shared_ptrIS3_EEUlvE_E11do_completeEPNS0_15task_io_serviceEPNS0_25task_io_service_operationERKSt10error_codem,"axG",@progbits,_ZN4asio6detail18completion_handlerIZN7asiopal13IAsyncChannel16CheckForShutdownESt10shared_ptrIS3_EEUlvE_E11do_completeEPNS0_15task_io_serviceEPNS0_25task_io_service_operationERKSt10error_codem,comdat
	.p2align 4
	.weak	_ZN4asio6detail18completion_handlerIZN7asiopal13IAsyncChannel16CheckForShutdownESt10shared_ptrIS3_EEUlvE_E11do_completeEPNS0_15task_io_serviceEPNS0_25task_io_service_operationERKSt10error_codem
	.type	_ZN4asio6detail18completion_handlerIZN7asiopal13IAsyncChannel16CheckForShutdownESt10shared_ptrIS3_EEUlvE_E11do_completeEPNS0_15task_io_serviceEPNS0_25task_io_service_operationERKSt10error_codem, @function
_ZN4asio6detail18completion_handlerIZN7asiopal13IAsyncChannel16CheckForShutdownESt10shared_ptrIS3_EEUlvE_E11do_completeEPNS0_15task_io_serviceEPNS0_25task_io_service_operationERKSt10error_codem:
.LFB10232:
	.cfi_startproc
	.cfi_personality 0x9b,DW.ref.__gxx_personality_v0
	.cfi_lsda 0x1b,.LLSDA10232
	endbr64
	pushq	%r12
	.cfi_def_cfa_offset 16
	.cfi_offset 12, -16
	movq	%rsi, %r12
	pushq	%rbp
	.cfi_def_cfa_offset 24
	.cfi_offset 6, -24
	pushq	%rbx
	.cfi_def_cfa_offset 32
	.cfi_offset 3, -32
	movq	%rdi, %rbx
	subq	$64, %rsp
	.cfi_def_cfa_offset 96
	movdqu	24(%rsi), %xmm1
	movq	32(%rsi), %rbp
	movq	%fs:40, %rax
	movq	%rax, 56(%rsp)
	xorl	%eax, %eax
	movq	%rsp, %rax
	movq	%rsi, 40(%rsp)
	movq	%rax, 32(%rsp)
	movq	$0, 48(%rsp)
	movaps	%xmm1, (%rsp)
	data16	leaq	_ZN4asio6detail15keyword_tss_ptrINS0_10call_stackINS0_15task_io_serviceENS0_27task_io_service_thread_infoEE7contextEE6value_E@tlsgd(%rip), %rdi
	.value	0x6666
	rex64
	call	__tls_get_addr@PLT
	movq	(%rax), %rax
	testq	%rax, %rax
	je	.L1940
	movq	8(%rax), %rax
	testq	%rax, %rax
	je	.L1940
	cmpq	$0, (%rax)
	je	.L2005
.L1940:
	movq	%r12, %rdi
	call	_ZdlPv@PLT
	movq	8(%rsp), %rbp
.L1941:
	movq	$0, 40(%rsp)
	testq	%rbx, %rbx
	je	.L1942
	movq	(%rsp), %xmm0
	movq	%rbp, %xmm2
	punpcklqdq	%xmm2, %xmm0
	movaps	%xmm0, 16(%rsp)
	testq	%rbp, %rbp
	je	.L1943
	movq	__libc_single_threaded@GOTPCREL(%rip), %rax
	cmpb	$0, (%rax)
	je	.L1944
	addl	$1, 8(%rbp)
.L1943:
	leaq	16(%rsp), %rdi
.LEHB68:
	call	_ZN7asiopal13IAsyncChannel16CheckForShutdownESt10shared_ptrIS0_E.isra.0
.LEHE68:
	movq	24(%rsp), %rbp
	testq	%rbp, %rbp
	je	.L1946
	movq	__libc_single_threaded@GOTPCREL(%rip), %rbx
	cmpb	$0, (%rbx)
	je	.L1947
	movl	8(%rbp), %eax
	leal	-1(%rax), %edx
	movl	%edx, 8(%rbp)
.L1948:
	cmpl	$1, %eax
	jne	.L1946
	movq	0(%rbp), %rax
	movq	%rbp, %rdi
	call	*16(%rax)
	cmpb	$0, (%rbx)
	je	.L1950
	movl	12(%rbp), %eax
	leal	-1(%rax), %edx
	movl	%edx, 12(%rbp)
.L1951:
	cmpl	$1, %eax
	je	.L2006
	.p2align 4,,10
	.p2align 3
.L1946:
	sfence
	movq	8(%rsp), %rbp
.L1942:
	testq	%rbp, %rbp
	je	.L1957
	movq	__libc_single_threaded@GOTPCREL(%rip), %rbx
	cmpb	$0, (%rbx)
	je	.L1958
	movl	8(%rbp), %eax
	leal	-1(%rax), %edx
	movl	%edx, 8(%rbp)
.L1959:
	cmpl	$1, %eax
	je	.L2007
.L1957:
	movq	48(%rsp), %rax
	testq	%rax, %rax
	je	.L1963
	movq	32(%rax), %rbp
	testq	%rbp, %rbp
	je	.L1965
	movq	__libc_single_threaded@GOTPCREL(%rip), %rbx
	cmpb	$0, (%rbx)
	je	.L1966
	movl	8(%rbp), %eax
	leal	-1(%rax), %edx
	movl	%edx, 8(%rbp)
.L1967:
	cmpl	$1, %eax
	je	.L2008
.L1965:
	movq	$0, 48(%rsp)
.L1963:
	movq	40(%rsp), %rbp
	testq	%rbp, %rbp
	je	.L1939
	data16	leaq	_ZN4asio6detail15keyword_tss_ptrINS0_10call_stackINS0_15task_io_serviceENS0_27task_io_service_thread_infoEE7contextEE6value_E@tlsgd(%rip), %rdi
	.value	0x6666
	rex64
	call	__tls_get_addr@PLT
	movq	(%rax), %rax
	testq	%rax, %rax
	je	.L1972
	movq	8(%rax), %rax
	testq	%rax, %rax
	je	.L1972
	cmpq	$0, (%rax)
	je	.L2009
.L1972:
	movq	56(%rsp), %rax
	subq	%fs:40, %rax
	jne	.L2004
	addq	$64, %rsp
	.cfi_remember_state
	.cfi_def_cfa_offset 32
	movq	%rbp, %rdi
	popq	%rbx
	.cfi_def_cfa_offset 24
	popq	%rbp
	.cfi_def_cfa_offset 16
	popq	%r12
	.cfi_def_cfa_offset 8
	jmp	_ZdlPv@PLT
	.p2align 4,,10
	.p2align 3
.L2009:
	.cfi_restore_state
	movzbl	40(%rbp), %edx
	movb	%dl, 0(%rbp)
	movq	%rbp, (%rax)
.L1939:
	movq	56(%rsp), %rax
	subq	%fs:40, %rax
	jne	.L2004
	addq	$64, %rsp
	.cfi_remember_state
	.cfi_def_cfa_offset 32
	popq	%rbx
	.cfi_def_cfa_offset 24
	popq	%rbp
	.cfi_def_cfa_offset 16
	popq	%r12
	.cfi_def_cfa_offset 8
	ret
	.p2align 4,,10
	.p2align 3
.L2007:
	.cfi_restore_state
	movq	0(%rbp), %rax
	movq	%rbp, %rdi
	call	*16(%rax)
	cmpb	$0, (%rbx)
	je	.L1961
	movl	12(%rbp), %eax
	leal	-1(%rax), %edx
	movl	%edx, 12(%rbp)
.L1962:
	cmpl	$1, %eax
	jne	.L1957
	movq	0(%rbp), %rax
	movq	%rbp, %rdi
	call	*24(%rax)
	jmp	.L1957
	.p2align 4,,10
	.p2align 3
.L1958:
	movl	$-1, %eax
	lock xaddl	%eax, 8(%rbp)
	jmp	.L1959
	.p2align 4,,10
	.p2align 3
.L2008:
	movq	0(%rbp), %rax
	movq	%rbp, %rdi
	call	*16(%rax)
	cmpb	$0, (%rbx)
	je	.L1969
	movl	12(%rbp), %eax
	leal	-1(%rax), %edx
	movl	%edx, 12(%rbp)
.L1970:
	cmpl	$1, %eax
	jne	.L1965
	movq	0(%rbp), %rax
	movq	%rbp, %rdi
	call	*24(%rax)
	jmp	.L1965
	.p2align 4,,10
	.p2align 3
.L1947:
	movl	$-1, %eax
	lock xaddl	%eax, 8(%rbp)
	jmp	.L1948
	.p2align 4,,10
	.p2align 3
.L2005:
	movzbl	40(%r12), %edx
	movb	%dl, (%r12)
	movq	%r12, (%rax)
	jmp	.L1941
	.p2align 4,,10
	.p2align 3
.L1944:
	lock addl	$1, 8(%rbp)
	jmp	.L1943
	.p2align 4,,10
	.p2align 3
.L1966:
	movl	$-1, %eax
	lock xaddl	%eax, 8(%rbp)
	jmp	.L1967
	.p2align 4,,10
	.p2align 3
.L1961:
	movl	$-1, %eax
	lock xaddl	%eax, 12(%rbp)
	jmp	.L1962
	.p2align 4,,10
	.p2align 3
.L2006:
	movq	0(%rbp), %rax
	movq	%rbp, %rdi
	call	*24(%rax)
	jmp	.L1946
	.p2align 4,,10
	.p2align 3
.L1969:
	movl	$-1, %eax
	lock xaddl	%eax, 12(%rbp)
	jmp	.L1970
	.p2align 4,,10
	.p2align 3
.L1950:
	movl	$-1, %eax
	lock xaddl	%eax, 12(%rbp)
	jmp	.L1951
.L2004:
	call	__stack_chk_fail@PLT
.L1975:
	endbr64
	movq	%rax, %rbp
.L1952:
	movq	24(%rsp), %rdi
	testq	%rdi, %rdi
	je	.L1953
	call	_ZNSt16_Sp_counted_baseILN9__gnu_cxx12_Lock_policyE2EE10_M_releaseEv@PLT
.L1953:
	sfence
	movq	8(%rsp), %rdi
	testq	%rdi, %rdi
	je	.L1955
	call	_ZNSt16_Sp_counted_baseILN9__gnu_cxx12_Lock_policyE2EE10_M_releaseEv@PLT
.L1955:
	leaq	32(%rsp), %rdi
	call	_ZN4asio6detail18completion_handlerIZN7asiopal13IAsyncChannel16CheckForShutdownESt10shared_ptrIS3_EEUlvE_E3ptr5resetEv@PLT
	movq	%rbp, %rdi
.LEHB69:
	call	_Unwind_Resume@PLT
.LEHE69:
	.cfi_endproc
.LFE10232:
	.section	.gcc_except_table
.LLSDA10232:
	.byte	0xff
	.byte	0xff
	.byte	0x1
	.uleb128 .LLSDACSE10232-.LLSDACSB10232
.LLSDACSB10232:
	.uleb128 .LEHB68-.LFB10232
	.uleb128 .LEHE68-.LEHB68
	.uleb128 .L1975-.LFB10232
	.uleb128 0
	.uleb128 .LEHB69-.LFB10232
	.uleb128 .LEHE69-.LEHB69
	.uleb128 0
	.uleb128 0
.LLSDACSE10232:
	.section	.text._ZN4asio6detail18completion_handlerIZN7asiopal13IAsyncChannel16CheckForShutdownESt10shared_ptrIS3_EEUlvE_E11do_completeEPNS0_15task_io_serviceEPNS0_25task_io_service_operationERKSt10error_codem,"axG",@progbits,_ZN4asio6detail18completion_handlerIZN7asiopal13IAsyncChannel16CheckForShutdownESt10shared_ptrIS3_EEUlvE_E11do_completeEPNS0_15task_io_serviceEPNS0_25task_io_service_operationERKSt10error_codem,comdat
	.size	_ZN4asio6detail18completion_handlerIZN7asiopal13IAsyncChannel16CheckForShutdownESt10shared_ptrIS3_EEUlvE_E11do_completeEPNS0_15task_io_serviceEPNS0_25task_io_service_operationERKSt10error_codem, .-_ZN4asio6detail18completion_handlerIZN7asiopal13IAsyncChannel16CheckForShutdownESt10shared_ptrIS3_EEUlvE_E11do_completeEPNS0_15task_io_serviceEPNS0_25task_io_service_operationERKSt10error_codem
	.section	.text.startup,"ax",@progbits
	.p2align 4
	.type	_GLOBAL__sub_I_MasterTCPServer.cpp, @function
_GLOBAL__sub_I_MasterTCPServer.cpp:
.LFB11411:
	.cfi_startproc
	endbr64
	pushq	%rbp
	.cfi_def_cfa_offset 16
	.cfi_offset 6, -16
	call	_ZN4asio15system_categoryEv@PLT
	movq	_ZGVZN4asio5error18get_netdb_categoryEvE8instance@GOTPCREL(%rip), %rbp
	movzbl	0(%rbp), %eax
	testb	%al, %al
	je	.L2035
.L2012:
	movq	_ZGVZN4asio5error21get_addrinfo_categoryEvE8instance@GOTPCREL(%rip), %rbp
	movzbl	0(%rbp), %eax
	testb	%al, %al
	je	.L2036
.L2015:
	movq	_ZGVZN4asio5error17get_misc_categoryEvE8instance@GOTPCREL(%rip), %rbp
	movzbl	0(%rbp), %eax
	testb	%al, %al
	je	.L2037
.L2018:
	movl	$5000, %edi
	call	_ZN7openpal12TimeDuration12MillisecondsEl@PLT
	movq	_ZGVN4asio6detail10call_stackINS0_15task_io_serviceENS0_27task_io_service_thread_infoEE4top_E@GOTPCREL(%rip), %rax
	cmpb	$0, (%rax)
	je	.L2038
.L2020:
	movq	_ZGVN4asio6detail12service_baseINS0_13epoll_reactorEE2idE@GOTPCREL(%rip), %rax
	cmpb	$0, (%rax)
	je	.L2039
.L2021:
	movq	_ZGVN4asio6detail12service_baseINS0_15task_io_serviceEE2idE@GOTPCREL(%rip), %rax
	cmpb	$0, (%rax)
	je	.L2040
.L2022:
	movq	_ZGVN4asio6detail10call_stackINS0_14strand_service11strand_implEhE4top_E@GOTPCREL(%rip), %rax
	cmpb	$0, (%rax)
	je	.L2041
.L2023:
	movq	_ZGVN4asio6detail12service_baseINS0_14strand_serviceEE2idE@GOTPCREL(%rip), %rax
	cmpb	$0, (%rax)
	je	.L2042
	popq	%rbp
	.cfi_remember_state
	.cfi_def_cfa_offset 8
	ret
.L2035:
	.cfi_restore_state
	movq	%rbp, %rdi
	call	__cxa_guard_acquire@PLT
	testl	%eax, %eax
	je	.L2012
	movq	_ZZN4asio5error18get_netdb_categoryEvE8instance@GOTPCREL(%rip), %rsi
	movq	_ZN4asio5error6detail14netdb_categoryD1Ev@GOTPCREL(%rip), %rdi
	leaq	__dso_handle(%rip), %rdx
	call	__cxa_atexit@PLT
	movq	%rbp, %rdi
	call	__cxa_guard_release@PLT
	jmp	.L2012
.L2042:
	movb	$1, (%rax)
	leaq	__dso_handle(%rip), %rdx
	movq	_ZN4asio6detail12service_baseINS0_14strand_serviceEE2idE@GOTPCREL(%rip), %rsi
	movq	_ZN4asio6detail10service_idINS0_14strand_serviceEED1Ev@GOTPCREL(%rip), %rdi
	popq	%rbp
	.cfi_remember_state
	.cfi_def_cfa_offset 8
	jmp	__cxa_atexit@PLT
.L2041:
	.cfi_restore_state
	movb	$1, (%rax)
	movq	_ZN4asio6detail10call_stackINS0_14strand_service11strand_implEhE4top_E@GOTPCREL(%rip), %rsi
	leaq	__dso_handle(%rip), %rdx
	movq	_ZN4asio6detail7tss_ptrINS0_10call_stackINS0_14strand_service11strand_implEhE7contextEED1Ev@GOTPCREL(%rip), %rdi
	call	__cxa_atexit@PLT
	jmp	.L2023
.L2040:
	movb	$1, (%rax)
	movq	_ZN4asio6detail12service_baseINS0_15task_io_serviceEE2idE@GOTPCREL(%rip), %rsi
	leaq	__dso_handle(%rip), %rdx
	movq	_ZN4asio6detail10service_idINS0_15task_io_serviceEED1Ev@GOTPCREL(%rip), %rdi
	call	__cxa_atexit@PLT
	jmp	.L2022
.L2039:
	movb	$1, (%rax)
	movq	_ZN4asio6detail12service_baseINS0_13epoll_reactorEE2idE@GOTPCREL(%rip), %rsi
	leaq	__dso_handle(%rip), %rdx
	movq	_ZN4asio6detail10service_idINS0_13epoll_reactorEED1Ev@GOTPCREL(%rip), %rdi
	call	__cxa_atexit@PLT
	jmp	.L2021
.L2038:
	movb	$1, (%rax)
	movq	_ZN4asio6detail10call_stackINS0_15task_io_serviceENS0_27task_io_service_thread_infoEE4top_E@GOTPCREL(%rip), %rsi
	leaq	__dso_handle(%rip), %rdx
	movq	_ZN4asio6detail7tss_ptrINS0_10call_stackINS0_15task_io_serviceENS0_27task_io_service_thread_infoEE7contextEED1Ev@GOTPCREL(%rip), %rdi
	call	__cxa_atexit@PLT
	jmp	.L2020
.L2037:
	movq	%rbp, %rdi
	call	__cxa_guard_acquire@PLT
	testl	%eax, %eax
	je	.L2018
	movq	_ZZN4asio5error17get_misc_categoryEvE8instance@GOTPCREL(%rip), %rsi
	movq	_ZN4asio5error6detail13misc_categoryD1Ev@GOTPCREL(%rip), %rdi
	leaq	__dso_handle(%rip), %rdx
	call	__cxa_atexit@PLT
	movq	%rbp, %rdi
	call	__cxa_guard_release@PLT
	jmp	.L2018
.L2036:
	movq	%rbp, %rdi
	call	__cxa_guard_acquire@PLT
	testl	%eax, %eax
	je	.L2015
	movq	_ZZN4asio5error21get_addrinfo_categoryEvE8instance@GOTPCREL(%rip), %rsi
	movq	_ZN4asio5error6detail17addrinfo_categoryD1Ev@GOTPCREL(%rip), %rdi
	leaq	__dso_handle(%rip), %rdx
	call	__cxa_atexit@PLT
	movq	%rbp, %rdi
	call	__cxa_guard_release@PLT
	jmp	.L2015
	.cfi_endproc
.LFE11411:
	.size	_GLOBAL__sub_I_MasterTCPServer.cpp, .-_GLOBAL__sub_I_MasterTCPServer.cpp
	.section	.init_array,"aw"
	.align 8
	.quad	_GLOBAL__sub_I_MasterTCPServer.cpp
	.weak	_ZTSSt11_Mutex_baseILN9__gnu_cxx12_Lock_policyE2EE
	.section	.rodata._ZTSSt11_Mutex_baseILN9__gnu_cxx12_Lock_policyE2EE,"aG",@progbits,_ZTSSt11_Mutex_baseILN9__gnu_cxx12_Lock_policyE2EE,comdat
	.align 32
	.type	_ZTSSt11_Mutex_baseILN9__gnu_cxx12_Lock_policyE2EE, @object
	.size	_ZTSSt11_Mutex_baseILN9__gnu_cxx12_Lock_policyE2EE, 47
_ZTSSt11_Mutex_baseILN9__gnu_cxx12_Lock_policyE2EE:
	.string	"St11_Mutex_baseILN9__gnu_cxx12_Lock_policyE2EE"
	.weak	_ZTISt11_Mutex_baseILN9__gnu_cxx12_Lock_policyE2EE
	.section	.data.rel.ro._ZTISt11_Mutex_baseILN9__gnu_cxx12_Lock_policyE2EE,"awG",@progbits,_ZTISt11_Mutex_baseILN9__gnu_cxx12_Lock_policyE2EE,comdat
	.align 8
	.type	_ZTISt11_Mutex_baseILN9__gnu_cxx12_Lock_policyE2EE, @object
	.size	_ZTISt11_Mutex_baseILN9__gnu_cxx12_Lock_policyE2EE, 16
_ZTISt11_Mutex_baseILN9__gnu_cxx12_Lock_policyE2EE:
	.quad	_ZTVN10__cxxabiv117__class_type_infoE+16
	.quad	_ZTSSt11_Mutex_baseILN9__gnu_cxx12_Lock_policyE2EE
	.weak	_ZTSN7openpal10UncopyableE
	.section	.rodata._ZTSN7openpal10UncopyableE,"aG",@progbits,_ZTSN7openpal10UncopyableE,comdat
	.align 16
	.type	_ZTSN7openpal10UncopyableE, @object
	.size	_ZTSN7openpal10UncopyableE, 23
_ZTSN7openpal10UncopyableE:
	.string	"N7openpal10UncopyableE"
	.weak	_ZTIN7openpal10UncopyableE
	.section	.data.rel.ro._ZTIN7openpal10UncopyableE,"awG",@progbits,_ZTIN7openpal10UncopyableE,comdat
	.align 8
	.type	_ZTIN7openpal10UncopyableE, @object
	.size	_ZTIN7openpal10UncopyableE, 16
_ZTIN7openpal10UncopyableE:
	.quad	_ZTVN10__cxxabiv117__class_type_infoE+16
	.quad	_ZTSN7openpal10UncopyableE
	.weak	_ZTSSt23enable_shared_from_thisIN7asiopal13IAsyncChannelEE
	.section	.rodata._ZTSSt23enable_shared_from_thisIN7asiopal13IAsyncChannelEE,"aG",@progbits,_ZTSSt23enable_shared_from_thisIN7asiopal13IAsyncChannelEE,comdat
	.align 32
	.type	_ZTSSt23enable_shared_from_thisIN7asiopal13IAsyncChannelEE, @object
	.size	_ZTSSt23enable_shared_from_thisIN7asiopal13IAsyncChannelEE, 55
_ZTSSt23enable_shared_from_thisIN7asiopal13IAsyncChannelEE:
	.string	"St23enable_shared_from_thisIN7asiopal13IAsyncChannelEE"
	.weak	_ZTISt23enable_shared_from_thisIN7asiopal13IAsyncChannelEE
	.section	.data.rel.ro._ZTISt23enable_shared_from_thisIN7asiopal13IAsyncChannelEE,"awG",@progbits,_ZTISt23enable_shared_from_thisIN7asiopal13IAsyncChannelEE,comdat
	.align 8
