	.file	"PrintingSOEHandler.cpp"
	.text
	.section	.text._ZNKSt5ctypeIcE8do_widenEc,"axG",@progbits,_ZNKSt5ctypeIcE8do_widenEc,comdat
	.align 2
	.p2align 4
	.weak	_ZNKSt5ctypeIcE8do_widenEc
	.type	_ZNKSt5ctypeIcE8do_widenEc, @function
_ZNKSt5ctypeIcE8do_widenEc:
.LFB1534:
	.cfi_startproc
	endbr64
	movl	%esi, %eax
	ret
	.cfi_endproc
.LFE1534:
	.size	_ZNKSt5ctypeIcE8do_widenEc, .-_ZNKSt5ctypeIcE8do_widenEc
	.section	.text._ZN8asiodnp318PrintingSOEHandler5StartEv,"axG",@progbits,_ZN8asiodnp318PrintingSOEHandler5StartEv,comdat
	.align 2
	.p2align 4
	.weak	_ZN8asiodnp318PrintingSOEHandler5StartEv
	.type	_ZN8asiodnp318PrintingSOEHandler5StartEv, @function
_ZN8asiodnp318PrintingSOEHandler5StartEv:
.LFB2753:
	.cfi_startproc
	endbr64
	ret
	.cfi_endproc
.LFE2753:
	.size	_ZN8asiodnp318PrintingSOEHandler5StartEv, .-_ZN8asiodnp318PrintingSOEHandler5StartEv
	.section	.text._ZN8asiodnp318PrintingSOEHandler3EndEv,"axG",@progbits,_ZN8asiodnp318PrintingSOEHandler3EndEv,comdat
	.align 2
	.p2align 4
	.weak	_ZN8asiodnp318PrintingSOEHandler3EndEv
	.type	_ZN8asiodnp318PrintingSOEHandler3EndEv, @function
_ZN8asiodnp318PrintingSOEHandler3EndEv:
.LFB2754:
	.cfi_startproc
	endbr64
	ret
	.cfi_endproc
.LFE2754:
	.size	_ZN8asiodnp318PrintingSOEHandler3EndEv, .-_ZN8asiodnp318PrintingSOEHandler3EndEv
	.text
	.align 2
	.p2align 4
	.globl	_ZN8asiodnp318PrintingSOEHandler7ProcessERKN8opendnp310HeaderInfoERKNS1_11ICollectionINS1_7IndexedINS1_6BinaryEEEEE
	.type	_ZN8asiodnp318PrintingSOEHandler7ProcessERKN8opendnp310HeaderInfoERKNS1_11ICollectionINS1_7IndexedINS1_6BinaryEEEEE, @function
_ZN8asiodnp318PrintingSOEHandler7ProcessERKN8opendnp310HeaderInfoERKNS1_11ICollectionINS1_7IndexedINS1_6BinaryEEEEE:
.LFB2761:
	.cfi_startproc
	endbr64
	subq	$40, %rsp
	.cfi_def_cfa_offset 48
	movq	%rdx, %rdi
	movq	%fs:40, %rax
	movq	%rax, 24(%rsp)
	movq	_ZTVN8opendnp314FunctorVisitorINS_7IndexedINS_6BinaryEEEZN8asiodnp318PrintingSOEHandler8PrintAllIS2_EEvRKNS_10HeaderInfoERKNS_11ICollectionINS1_IT_EEEEEUlRKS3_E_EE@GOTPCREL(%rip), %rax
	movq	%rsi, 8(%rsp)
	movq	%rsp, %rsi
	addq	$16, %rax
	movq	%rax, (%rsp)
	movq	(%rdx), %rax
	call	*8(%rax)
	movq	24(%rsp), %rax
	subq	%fs:40, %rax
	jne	.L8
	addq	$40, %rsp
	.cfi_remember_state
	.cfi_def_cfa_offset 8
	ret
.L8:
	.cfi_restore_state
	call	__stack_chk_fail@PLT
	.cfi_endproc
.LFE2761:
	.size	_ZN8asiodnp318PrintingSOEHandler7ProcessERKN8opendnp310HeaderInfoERKNS1_11ICollectionINS1_7IndexedINS1_6BinaryEEEEE, .-_ZN8asiodnp318PrintingSOEHandler7ProcessERKN8opendnp310HeaderInfoERKNS1_11ICollectionINS1_7IndexedINS1_6BinaryEEEEE
	.align 2
	.p2align 4
	.globl	_ZN8asiodnp318PrintingSOEHandler7ProcessERKN8opendnp310HeaderInfoERKNS1_11ICollectionINS1_7IndexedINS1_15DoubleBitBinaryEEEEE
	.type	_ZN8asiodnp318PrintingSOEHandler7ProcessERKN8opendnp310HeaderInfoERKNS1_11ICollectionINS1_7IndexedINS1_15DoubleBitBinaryEEEEE, @function
_ZN8asiodnp318PrintingSOEHandler7ProcessERKN8opendnp310HeaderInfoERKNS1_11ICollectionINS1_7IndexedINS1_15DoubleBitBinaryEEEEE:
.LFB2762:
	.cfi_startproc
	endbr64
	subq	$40, %rsp
	.cfi_def_cfa_offset 48
	movq	%rdx, %rdi
	movq	%fs:40, %rax
	movq	%rax, 24(%rsp)
	movq	_ZTVN8opendnp314FunctorVisitorINS_7IndexedINS_15DoubleBitBinaryEEEZN8asiodnp318PrintingSOEHandler8PrintAllIS2_EEvRKNS_10HeaderInfoERKNS_11ICollectionINS1_IT_EEEEEUlRKS3_E_EE@GOTPCREL(%rip), %rax
	movq	%rsi, 8(%rsp)
	movq	%rsp, %rsi
	addq	$16, %rax
	movq	%rax, (%rsp)
	movq	(%rdx), %rax
	call	*8(%rax)
	movq	24(%rsp), %rax
	subq	%fs:40, %rax
	jne	.L12
	addq	$40, %rsp
	.cfi_remember_state
	.cfi_def_cfa_offset 8
	ret
.L12:
	.cfi_restore_state
	call	__stack_chk_fail@PLT
	.cfi_endproc
.LFE2762:
	.size	_ZN8asiodnp318PrintingSOEHandler7ProcessERKN8opendnp310HeaderInfoERKNS1_11ICollectionINS1_7IndexedINS1_15DoubleBitBinaryEEEEE, .-_ZN8asiodnp318PrintingSOEHandler7ProcessERKN8opendnp310HeaderInfoERKNS1_11ICollectionINS1_7IndexedINS1_15DoubleBitBinaryEEEEE
	.align 2
	.p2align 4
	.globl	_ZN8asiodnp318PrintingSOEHandler7ProcessERKN8opendnp310HeaderInfoERKNS1_11ICollectionINS1_7IndexedINS1_6AnalogEEEEE
	.type	_ZN8asiodnp318PrintingSOEHandler7ProcessERKN8opendnp310HeaderInfoERKNS1_11ICollectionINS1_7IndexedINS1_6AnalogEEEEE, @function
_ZN8asiodnp318PrintingSOEHandler7ProcessERKN8opendnp310HeaderInfoERKNS1_11ICollectionINS1_7IndexedINS1_6AnalogEEEEE:
.LFB2763:
	.cfi_startproc
	endbr64
	subq	$40, %rsp
	.cfi_def_cfa_offset 48
	movq	%rdx, %rdi
	movq	%fs:40, %rax
	movq	%rax, 24(%rsp)
	movq	_ZTVN8opendnp314FunctorVisitorINS_7IndexedINS_6AnalogEEEZN8asiodnp318PrintingSOEHandler8PrintAllIS2_EEvRKNS_10HeaderInfoERKNS_11ICollectionINS1_IT_EEEEEUlRKS3_E_EE@GOTPCREL(%rip), %rax
	movq	%rsi, 8(%rsp)
	movq	%rsp, %rsi
	addq	$16, %rax
	movq	%rax, (%rsp)
	movq	(%rdx), %rax
	call	*8(%rax)
	movq	24(%rsp), %rax
	subq	%fs:40, %rax
	jne	.L16
	addq	$40, %rsp
	.cfi_remember_state
	.cfi_def_cfa_offset 8
	ret
.L16:
	.cfi_restore_state
	call	__stack_chk_fail@PLT
	.cfi_endproc
.LFE2763:
	.size	_ZN8asiodnp318PrintingSOEHandler7ProcessERKN8opendnp310HeaderInfoERKNS1_11ICollectionINS1_7IndexedINS1_6AnalogEEEEE, .-_ZN8asiodnp318PrintingSOEHandler7ProcessERKN8opendnp310HeaderInfoERKNS1_11ICollectionINS1_7IndexedINS1_6AnalogEEEEE
	.align 2
	.p2align 4
	.globl	_ZN8asiodnp318PrintingSOEHandler7ProcessERKN8opendnp310HeaderInfoERKNS1_11ICollectionINS1_7IndexedINS1_7CounterEEEEE
	.type	_ZN8asiodnp318PrintingSOEHandler7ProcessERKN8opendnp310HeaderInfoERKNS1_11ICollectionINS1_7IndexedINS1_7CounterEEEEE, @function
_ZN8asiodnp318PrintingSOEHandler7ProcessERKN8opendnp310HeaderInfoERKNS1_11ICollectionINS1_7IndexedINS1_7CounterEEEEE:
.LFB2764:
	.cfi_startproc
	endbr64
	subq	$40, %rsp
	.cfi_def_cfa_offset 48
	movq	%rdx, %rdi
	movq	%fs:40, %rax
	movq	%rax, 24(%rsp)
	movq	_ZTVN8opendnp314FunctorVisitorINS_7IndexedINS_7CounterEEEZN8asiodnp318PrintingSOEHandler8PrintAllIS2_EEvRKNS_10HeaderInfoERKNS_11ICollectionINS1_IT_EEEEEUlRKS3_E_EE@GOTPCREL(%rip), %rax
	movq	%rsi, 8(%rsp)
	movq	%rsp, %rsi
	addq	$16, %rax
	movq	%rax, (%rsp)
	movq	(%rdx), %rax
	call	*8(%rax)
	movq	24(%rsp), %rax
	subq	%fs:40, %rax
	jne	.L20
	addq	$40, %rsp
	.cfi_remember_state
	.cfi_def_cfa_offset 8
	ret
.L20:
	.cfi_restore_state
	call	__stack_chk_fail@PLT
	.cfi_endproc
.LFE2764:
	.size	_ZN8asiodnp318PrintingSOEHandler7ProcessERKN8opendnp310HeaderInfoERKNS1_11ICollectionINS1_7IndexedINS1_7CounterEEEEE, .-_ZN8asiodnp318PrintingSOEHandler7ProcessERKN8opendnp310HeaderInfoERKNS1_11ICollectionINS1_7IndexedINS1_7CounterEEEEE
	.align 2
	.p2align 4
	.globl	_ZN8asiodnp318PrintingSOEHandler7ProcessERKN8opendnp310HeaderInfoERKNS1_11ICollectionINS1_7IndexedINS1_13FrozenCounterEEEEE
	.type	_ZN8asiodnp318PrintingSOEHandler7ProcessERKN8opendnp310HeaderInfoERKNS1_11ICollectionINS1_7IndexedINS1_13FrozenCounterEEEEE, @function
_ZN8asiodnp318PrintingSOEHandler7ProcessERKN8opendnp310HeaderInfoERKNS1_11ICollectionINS1_7IndexedINS1_13FrozenCounterEEEEE:
.LFB2765:
	.cfi_startproc
	endbr64
	subq	$40, %rsp
	.cfi_def_cfa_offset 48
	movq	%rdx, %rdi
	movq	%fs:40, %rax
	movq	%rax, 24(%rsp)
	movq	_ZTVN8opendnp314FunctorVisitorINS_7IndexedINS_13FrozenCounterEEEZN8asiodnp318PrintingSOEHandler8PrintAllIS2_EEvRKNS_10HeaderInfoERKNS_11ICollectionINS1_IT_EEEEEUlRKS3_E_EE@GOTPCREL(%rip), %rax
	movq	%rsi, 8(%rsp)
	movq	%rsp, %rsi
	addq	$16, %rax
	movq	%rax, (%rsp)
	movq	(%rdx), %rax
	call	*8(%rax)
	movq	24(%rsp), %rax
	subq	%fs:40, %rax
	jne	.L24
	addq	$40, %rsp
	.cfi_remember_state
	.cfi_def_cfa_offset 8
	ret
.L24:
	.cfi_restore_state
	call	__stack_chk_fail@PLT
	.cfi_endproc
.LFE2765:
	.size	_ZN8asiodnp318PrintingSOEHandler7ProcessERKN8opendnp310HeaderInfoERKNS1_11ICollectionINS1_7IndexedINS1_13FrozenCounterEEEEE, .-_ZN8asiodnp318PrintingSOEHandler7ProcessERKN8opendnp310HeaderInfoERKNS1_11ICollectionINS1_7IndexedINS1_13FrozenCounterEEEEE
	.align 2
	.p2align 4
	.globl	_ZN8asiodnp318PrintingSOEHandler7ProcessERKN8opendnp310HeaderInfoERKNS1_11ICollectionINS1_7IndexedINS1_18BinaryOutputStatusEEEEE
	.type	_ZN8asiodnp318PrintingSOEHandler7ProcessERKN8opendnp310HeaderInfoERKNS1_11ICollectionINS1_7IndexedINS1_18BinaryOutputStatusEEEEE, @function
_ZN8asiodnp318PrintingSOEHandler7ProcessERKN8opendnp310HeaderInfoERKNS1_11ICollectionINS1_7IndexedINS1_18BinaryOutputStatusEEEEE:
.LFB2766:
	.cfi_startproc
	endbr64
	subq	$40, %rsp
	.cfi_def_cfa_offset 48
	movq	%rdx, %rdi
	movq	%fs:40, %rax
	movq	%rax, 24(%rsp)
	movq	_ZTVN8opendnp314FunctorVisitorINS_7IndexedINS_18BinaryOutputStatusEEEZN8asiodnp318PrintingSOEHandler8PrintAllIS2_EEvRKNS_10HeaderInfoERKNS_11ICollectionINS1_IT_EEEEEUlRKS3_E_EE@GOTPCREL(%rip), %rax
	movq	%rsi, 8(%rsp)
	movq	%rsp, %rsi
	addq	$16, %rax
	movq	%rax, (%rsp)
	movq	(%rdx), %rax
	call	*8(%rax)
	movq	24(%rsp), %rax
	subq	%fs:40, %rax
	jne	.L28
	addq	$40, %rsp
	.cfi_remember_state
	.cfi_def_cfa_offset 8
	ret
.L28:
	.cfi_restore_state
	call	__stack_chk_fail@PLT
	.cfi_endproc
.LFE2766:
	.size	_ZN8asiodnp318PrintingSOEHandler7ProcessERKN8opendnp310HeaderInfoERKNS1_11ICollectionINS1_7IndexedINS1_18BinaryOutputStatusEEEEE, .-_ZN8asiodnp318PrintingSOEHandler7ProcessERKN8opendnp310HeaderInfoERKNS1_11ICollectionINS1_7IndexedINS1_18BinaryOutputStatusEEEEE
	.align 2
	.p2align 4
	.globl	_ZN8asiodnp318PrintingSOEHandler7ProcessERKN8opendnp310HeaderInfoERKNS1_11ICollectionINS1_7IndexedINS1_18AnalogOutputStatusEEEEE
	.type	_ZN8asiodnp318PrintingSOEHandler7ProcessERKN8opendnp310HeaderInfoERKNS1_11ICollectionINS1_7IndexedINS1_18AnalogOutputStatusEEEEE, @function
_ZN8asiodnp318PrintingSOEHandler7ProcessERKN8opendnp310HeaderInfoERKNS1_11ICollectionINS1_7IndexedINS1_18AnalogOutputStatusEEEEE:
.LFB2767:
	.cfi_startproc
	endbr64
	subq	$40, %rsp
	.cfi_def_cfa_offset 48
	movq	%rdx, %rdi
	movq	%fs:40, %rax
	movq	%rax, 24(%rsp)
	movq	_ZTVN8opendnp314FunctorVisitorINS_7IndexedINS_18AnalogOutputStatusEEEZN8asiodnp318PrintingSOEHandler8PrintAllIS2_EEvRKNS_10HeaderInfoERKNS_11ICollectionINS1_IT_EEEEEUlRKS3_E_EE@GOTPCREL(%rip), %rax
	movq	%rsi, 8(%rsp)
	movq	%rsp, %rsi
	addq	$16, %rax
	movq	%rax, (%rsp)
	movq	(%rdx), %rax
	call	*8(%rax)
	movq	24(%rsp), %rax
	subq	%fs:40, %rax
	jne	.L32
	addq	$40, %rsp
	.cfi_remember_state
	.cfi_def_cfa_offset 8
	ret
.L32:
	.cfi_restore_state
	call	__stack_chk_fail@PLT
	.cfi_endproc
.LFE2767:
	.size	_ZN8asiodnp318PrintingSOEHandler7ProcessERKN8opendnp310HeaderInfoERKNS1_11ICollectionINS1_7IndexedINS1_18AnalogOutputStatusEEEEE, .-_ZN8asiodnp318PrintingSOEHandler7ProcessERKN8opendnp310HeaderInfoERKNS1_11ICollectionINS1_7IndexedINS1_18AnalogOutputStatusEEEEE
	.align 2
	.p2align 4
	.globl	_ZN8asiodnp318PrintingSOEHandler7ProcessERKN8opendnp310HeaderInfoERKNS1_11ICollectionINS1_7IndexedINS1_11OctetStringEEEEE
	.type	_ZN8asiodnp318PrintingSOEHandler7ProcessERKN8opendnp310HeaderInfoERKNS1_11ICollectionINS1_7IndexedINS1_11OctetStringEEEEE, @function
_ZN8asiodnp318PrintingSOEHandler7ProcessERKN8opendnp310HeaderInfoERKNS1_11ICollectionINS1_7IndexedINS1_11OctetStringEEEEE:
.LFB2768:
	.cfi_startproc
	endbr64
	subq	$40, %rsp
	.cfi_def_cfa_offset 48
	movq	%rdx, %rdi
	movq	%fs:40, %rax
	movq	%rax, 24(%rsp)
	leaq	16+_ZTVN8opendnp314FunctorVisitorINS_7IndexedINS_11OctetStringEEEZN8asiodnp318PrintingSOEHandler7ProcessERKNS_10HeaderInfoERKNS_11ICollectionIS3_EEEUlRKS3_E_EE(%rip), %rax
	movq	%rsp, %rsi
	movq	%rax, (%rsp)
	movq	(%rdx), %rax
	call	*8(%rax)
	movq	24(%rsp), %rax
	subq	%fs:40, %rax
	jne	.L36
	addq	$40, %rsp
	.cfi_remember_state
	.cfi_def_cfa_offset 8
	ret
.L36:
	.cfi_restore_state
	call	__stack_chk_fail@PLT
	.cfi_endproc
.LFE2768:
	.size	_ZN8asiodnp318PrintingSOEHandler7ProcessERKN8opendnp310HeaderInfoERKNS1_11ICollectionINS1_7IndexedINS1_11OctetStringEEEEE, .-_ZN8asiodnp318PrintingSOEHandler7ProcessERKN8opendnp310HeaderInfoERKNS1_11ICollectionINS1_7IndexedINS1_11OctetStringEEEEE
	.align 2
	.p2align 4
	.globl	_ZN8asiodnp318PrintingSOEHandler7ProcessERKN8opendnp310HeaderInfoERKNS1_11ICollectionINS1_7IndexedINS1_15TimeAndIntervalEEEEE
	.type	_ZN8asiodnp318PrintingSOEHandler7ProcessERKN8opendnp310HeaderInfoERKNS1_11ICollectionINS1_7IndexedINS1_15TimeAndIntervalEEEEE, @function
_ZN8asiodnp318PrintingSOEHandler7ProcessERKN8opendnp310HeaderInfoERKNS1_11ICollectionINS1_7IndexedINS1_15TimeAndIntervalEEEEE:
.LFB2772:
	.cfi_startproc
	endbr64
	subq	$40, %rsp
	.cfi_def_cfa_offset 48
	movq	%rdx, %rdi
	movq	%fs:40, %rax
	movq	%rax, 24(%rsp)
	leaq	16+_ZTVN8opendnp314FunctorVisitorINS_7IndexedINS_15TimeAndIntervalEEEZN8asiodnp318PrintingSOEHandler7ProcessERKNS_10HeaderInfoERKNS_11ICollectionIS3_EEEUlRKS3_E_EE(%rip), %rax
	movq	%rsp, %rsi
	movq	%rax, (%rsp)
	movq	(%rdx), %rax
	call	*8(%rax)
	movq	24(%rsp), %rax
	subq	%fs:40, %rax
	jne	.L40
	addq	$40, %rsp
	.cfi_remember_state
	.cfi_def_cfa_offset 8
	ret
.L40:
	.cfi_restore_state
	call	__stack_chk_fail@PLT
	.cfi_endproc
.LFE2772:
	.size	_ZN8asiodnp318PrintingSOEHandler7ProcessERKN8opendnp310HeaderInfoERKNS1_11ICollectionINS1_7IndexedINS1_15TimeAndIntervalEEEEE, .-_ZN8asiodnp318PrintingSOEHandler7ProcessERKN8opendnp310HeaderInfoERKNS1_11ICollectionINS1_7IndexedINS1_15TimeAndIntervalEEEEE
	.align 2
	.p2align 4
	.globl	_ZN8asiodnp318PrintingSOEHandler7ProcessERKN8opendnp310HeaderInfoERKNS1_11ICollectionINS1_7IndexedINS1_18BinaryCommandEventEEEEE
	.type	_ZN8asiodnp318PrintingSOEHandler7ProcessERKN8opendnp310HeaderInfoERKNS1_11ICollectionINS1_7IndexedINS1_18BinaryCommandEventEEEEE, @function
_ZN8asiodnp318PrintingSOEHandler7ProcessERKN8opendnp310HeaderInfoERKNS1_11ICollectionINS1_7IndexedINS1_18BinaryCommandEventEEEEE:
.LFB2776:
	.cfi_startproc
	endbr64
	subq	$40, %rsp
	.cfi_def_cfa_offset 48
	movq	%rdx, %rdi
	movq	%fs:40, %rax
	movq	%rax, 24(%rsp)
	leaq	16+_ZTVN8opendnp314FunctorVisitorINS_7IndexedINS_18BinaryCommandEventEEEZN8asiodnp318PrintingSOEHandler7ProcessERKNS_10HeaderInfoERKNS_11ICollectionIS3_EEEUlRKS3_E_EE(%rip), %rax
	movq	%rsp, %rsi
	movq	%rax, (%rsp)
	movq	(%rdx), %rax
	call	*8(%rax)
	movq	24(%rsp), %rax
	subq	%fs:40, %rax
	jne	.L44
	addq	$40, %rsp
	.cfi_remember_state
	.cfi_def_cfa_offset 8
	ret
.L44:
	.cfi_restore_state
	call	__stack_chk_fail@PLT
	.cfi_endproc
.LFE2776:
	.size	_ZN8asiodnp318PrintingSOEHandler7ProcessERKN8opendnp310HeaderInfoERKNS1_11ICollectionINS1_7IndexedINS1_18BinaryCommandEventEEEEE, .-_ZN8asiodnp318PrintingSOEHandler7ProcessERKN8opendnp310HeaderInfoERKNS1_11ICollectionINS1_7IndexedINS1_18BinaryCommandEventEEEEE
	.align 2
	.p2align 4
	.globl	_ZN8asiodnp318PrintingSOEHandler7ProcessERKN8opendnp310HeaderInfoERKNS1_11ICollectionINS1_7IndexedINS1_18AnalogCommandEventEEEEE
	.type	_ZN8asiodnp318PrintingSOEHandler7ProcessERKN8opendnp310HeaderInfoERKNS1_11ICollectionINS1_7IndexedINS1_18AnalogCommandEventEEEEE, @function
_ZN8asiodnp318PrintingSOEHandler7ProcessERKN8opendnp310HeaderInfoERKNS1_11ICollectionINS1_7IndexedINS1_18AnalogCommandEventEEEEE:
.LFB2780:
	.cfi_startproc
	endbr64
	subq	$40, %rsp
	.cfi_def_cfa_offset 48
	movq	%rdx, %rdi
	movq	%fs:40, %rax
	movq	%rax, 24(%rsp)
	leaq	16+_ZTVN8opendnp314FunctorVisitorINS_7IndexedINS_18AnalogCommandEventEEEZN8asiodnp318PrintingSOEHandler7ProcessERKNS_10HeaderInfoERKNS_11ICollectionIS3_EEEUlRKS3_E_EE(%rip), %rax
	movq	%rsp, %rsi
	movq	%rax, (%rsp)
	movq	(%rdx), %rax
	call	*8(%rax)
	movq	24(%rsp), %rax
	subq	%fs:40, %rax
	jne	.L48
	addq	$40, %rsp
	.cfi_remember_state
	.cfi_def_cfa_offset 8
	ret
.L48:
	.cfi_restore_state
	call	__stack_chk_fail@PLT
	.cfi_endproc
.LFE2780:
	.size	_ZN8asiodnp318PrintingSOEHandler7ProcessERKN8opendnp310HeaderInfoERKNS1_11ICollectionINS1_7IndexedINS1_18AnalogCommandEventEEEEE, .-_ZN8asiodnp318PrintingSOEHandler7ProcessERKN8opendnp310HeaderInfoERKNS1_11ICollectionINS1_7IndexedINS1_18AnalogCommandEventEEEEE
	.align 2
	.p2align 4
	.globl	_ZN8asiodnp318PrintingSOEHandler7ProcessERKN8opendnp310HeaderInfoERKNS1_11ICollectionINS1_7IndexedINS1_12SecurityStatEEEEE
	.type	_ZN8asiodnp318PrintingSOEHandler7ProcessERKN8opendnp310HeaderInfoERKNS1_11ICollectionINS1_7IndexedINS1_12SecurityStatEEEEE, @function
_ZN8asiodnp318PrintingSOEHandler7ProcessERKN8opendnp310HeaderInfoERKNS1_11ICollectionINS1_7IndexedINS1_12SecurityStatEEEEE:
.LFB2784:
	.cfi_startproc
	endbr64
	subq	$40, %rsp
	.cfi_def_cfa_offset 48
	movq	%rdx, %rdi
	movq	%fs:40, %rax
	movq	%rax, 24(%rsp)
	leaq	16+_ZTVN8opendnp314FunctorVisitorINS_7IndexedINS_12SecurityStatEEEZN8asiodnp318PrintingSOEHandler7ProcessERKNS_10HeaderInfoERKNS_11ICollectionIS3_EEEUlRKS3_E_EE(%rip), %rax
	movq	%rsp, %rsi
	movq	%rax, (%rsp)
	movq	(%rdx), %rax
	call	*8(%rax)
	movq	24(%rsp), %rax
	subq	%fs:40, %rax
	jne	.L52
	addq	$40, %rsp
	.cfi_remember_state
	.cfi_def_cfa_offset 8
	ret
.L52:
	.cfi_restore_state
	call	__stack_chk_fail@PLT
	.cfi_endproc
.LFE2784:
	.size	_ZN8asiodnp318PrintingSOEHandler7ProcessERKN8opendnp310HeaderInfoERKNS1_11ICollectionINS1_7IndexedINS1_12SecurityStatEEEEE, .-_ZN8asiodnp318PrintingSOEHandler7ProcessERKN8opendnp310HeaderInfoERKNS1_11ICollectionINS1_7IndexedINS1_12SecurityStatEEEEE
	.align 2
	.p2align 4
	.globl	_ZN8asiodnp318PrintingSOEHandler7ProcessERKN8opendnp310HeaderInfoERKNS1_11ICollectionIN7openpal10UInt48TypeEEE
	.type	_ZN8asiodnp318PrintingSOEHandler7ProcessERKN8opendnp310HeaderInfoERKNS1_11ICollectionIN7openpal10UInt48TypeEEE, @function
_ZN8asiodnp318PrintingSOEHandler7ProcessERKN8opendnp310HeaderInfoERKNS1_11ICollectionIN7openpal10UInt48TypeEEE:
.LFB2788:
	.cfi_startproc
	endbr64
	subq	$40, %rsp
	.cfi_def_cfa_offset 48
	movq	%rdx, %rdi
	movq	%fs:40, %rax
	movq	%rax, 24(%rsp)
	leaq	16+_ZTVN8opendnp314FunctorVisitorIN7openpal10UInt48TypeEZN8asiodnp318PrintingSOEHandler7ProcessERKNS_10HeaderInfoERKNS_11ICollectionIS2_EEEUlRKS2_E_EE(%rip), %rax
	movq	%rsp, %rsi
	movq	%rax, (%rsp)
	movq	(%rdx), %rax
	call	*8(%rax)
	movq	24(%rsp), %rax
	subq	%fs:40, %rax
	jne	.L56
	addq	$40, %rsp
	.cfi_remember_state
	.cfi_def_cfa_offset 8
	ret
.L56:
	.cfi_restore_state
	call	__stack_chk_fail@PLT
	.cfi_endproc
.LFE2788:
	.size	_ZN8asiodnp318PrintingSOEHandler7ProcessERKN8opendnp310HeaderInfoERKNS1_11ICollectionIN7openpal10UInt48TypeEEE, .-_ZN8asiodnp318PrintingSOEHandler7ProcessERKN8opendnp310HeaderInfoERKNS1_11ICollectionIN7openpal10UInt48TypeEEE
	.section	.text._ZN8asiodnp318PrintingSOEHandlerD2Ev,"axG",@progbits,_ZN8asiodnp318PrintingSOEHandlerD5Ev,comdat
	.align 2
	.p2align 4
	.weak	_ZN8asiodnp318PrintingSOEHandlerD2Ev
	.type	_ZN8asiodnp318PrintingSOEHandlerD2Ev, @function
_ZN8asiodnp318PrintingSOEHandlerD2Ev:
.LFB3631:
	.cfi_startproc
	endbr64
	ret
	.cfi_endproc
.LFE3631:
	.size	_ZN8asiodnp318PrintingSOEHandlerD2Ev, .-_ZN8asiodnp318PrintingSOEHandlerD2Ev
	.weak	_ZN8asiodnp318PrintingSOEHandlerD1Ev
	.set	_ZN8asiodnp318PrintingSOEHandlerD1Ev,_ZN8asiodnp318PrintingSOEHandlerD2Ev
	.section	.text._ZN8asiodnp318PrintingSOEHandlerD0Ev,"axG",@progbits,_ZN8asiodnp318PrintingSOEHandlerD5Ev,comdat
	.align 2
	.p2align 4
	.weak	_ZN8asiodnp318PrintingSOEHandlerD0Ev
	.type	_ZN8asiodnp318PrintingSOEHandlerD0Ev, @function
_ZN8asiodnp318PrintingSOEHandlerD0Ev:
.LFB3633:
	.cfi_startproc
	endbr64
	movl	$8, %esi
	jmp	_ZdlPvm@PLT
	.cfi_endproc
.LFE3633:
	.size	_ZN8asiodnp318PrintingSOEHandlerD0Ev, .-_ZN8asiodnp318PrintingSOEHandlerD0Ev
	.section	.rodata._ZN8opendnp314FunctorVisitorINS_7IndexedINS_15DoubleBitBinaryEEEZN8asiodnp318PrintingSOEHandler8PrintAllIS2_EEvRKNS_10HeaderInfoERKNS_11ICollectionINS1_IT_EEEEEUlRKS3_E_E7OnValueESH_.str1.1,"aMS",@progbits,1
.LC0:
	.string	"["
.LC1:
	.string	"] : "
	.section	.rodata._ZN8opendnp314FunctorVisitorINS_7IndexedINS_15DoubleBitBinaryEEEZN8asiodnp318PrintingSOEHandler8PrintAllIS2_EEvRKNS_10HeaderInfoERKNS_11ICollectionINS1_IT_EEEEEUlRKS3_E_E7OnValueESH_.str1.8,"aMS",@progbits,1
	.align 8
.LC2:
	.string	"basic_string::_M_construct null not valid"
	.section	.rodata._ZN8opendnp314FunctorVisitorINS_7IndexedINS_15DoubleBitBinaryEEEZN8asiodnp318PrintingSOEHandler8PrintAllIS2_EEvRKNS_10HeaderInfoERKNS_11ICollectionINS1_IT_EEEEEUlRKS3_E_E7OnValueESH_.str1.1
.LC3:
	.string	" : "
	.section	.text._ZN8opendnp314FunctorVisitorINS_7IndexedINS_15DoubleBitBinaryEEEZN8asiodnp318PrintingSOEHandler8PrintAllIS2_EEvRKNS_10HeaderInfoERKNS_11ICollectionINS1_IT_EEEEEUlRKS3_E_E7OnValueESH_,"axG",@progbits,_ZN8opendnp314FunctorVisitorINS_7IndexedINS_15DoubleBitBinaryEEEZN8asiodnp318PrintingSOEHandler8PrintAllIS2_EEvRKNS_10HeaderInfoERKNS_11ICollectionINS1_IT_EEEEEUlRKS3_E_E7OnValueESH_,comdat
	.align 2
	.p2align 4
	.weak	_ZN8opendnp314FunctorVisitorINS_7IndexedINS_15DoubleBitBinaryEEEZN8asiodnp318PrintingSOEHandler8PrintAllIS2_EEvRKNS_10HeaderInfoERKNS_11ICollectionINS1_IT_EEEEEUlRKS3_E_E7OnValueESH_
	.type	_ZN8opendnp314FunctorVisitorINS_7IndexedINS_15DoubleBitBinaryEEEZN8asiodnp318PrintingSOEHandler8PrintAllIS2_EEvRKNS_10HeaderInfoERKNS_11ICollectionINS1_IT_EEEEEUlRKS3_E_E7OnValueESH_, @function
_ZN8opendnp314FunctorVisitorINS_7IndexedINS_15DoubleBitBinaryEEEZN8asiodnp318PrintingSOEHandler8PrintAllIS2_EEvRKNS_10HeaderInfoERKNS_11ICollectionINS1_IT_EEEEEUlRKS3_E_E7OnValueESH_:
.LFB3663:
	.cfi_startproc
	.cfi_personality 0x9b,DW.ref.__gxx_personality_v0
	.cfi_lsda 0x1b,.LLSDA3663
	endbr64
	pushq	%r15
	.cfi_def_cfa_offset 16
	.cfi_offset 15, -16
	movl	$1, %edx
	pushq	%r14
	.cfi_def_cfa_offset 24
	.cfi_offset 14, -24
	pushq	%r13
	.cfi_def_cfa_offset 32
	.cfi_offset 13, -32
	pushq	%r12
	.cfi_def_cfa_offset 40
	.cfi_offset 12, -40
	pushq	%rbp
	.cfi_def_cfa_offset 48
	.cfi_offset 6, -48
	pushq	%rbx
	.cfi_def_cfa_offset 56
	.cfi_offset 3, -56
	movq	%rsi, %rbx
	subq	$72, %rsp
	.cfi_def_cfa_offset 128
	movq	_ZSt4cout@GOTPCREL(%rip), %r12
	movzwl	24(%rsi), %ebp
	leaq	.LC0(%rip), %rsi
	movq	%fs:40, %rax
	movq	%rax, 56(%rsp)
	xorl	%eax, %eax
	movq	%r12, %rdi
.LEHB0:
	call	_ZSt16__ostream_insertIcSt11char_traitsIcEERSt13basic_ostreamIT_T0_ES6_PKS3_l@PLT
	movzwl	%bp, %esi
	movq	%r12, %rdi
	leaq	32(%rsp), %r12
	call	_ZNSo9_M_insertImEERSoT_@PLT
	movl	$4, %edx
	leaq	.LC1(%rip), %rsi
	movq	%rax, %rdi
	movq	%rax, %rbp
	call	_ZSt16__ostream_insertIcSt11char_traitsIcEERSt13basic_ostreamIT_T0_ES6_PKS3_l@PLT
	movzbl	16(%rbx), %edi
	call	_ZN8opendnp317DoubleBitToStringENS_9DoubleBitE@PLT
.LEHE0:
	movq	%r12, 16(%rsp)
	testq	%rax, %rax
	je	.L60
	movq	%rax, %rdi
	movq	%rax, %r14
	call	strlen@PLT
	movq	%rax, 8(%rsp)
	movq	%rax, %r15
	cmpq	$15, %rax
	ja	.L78
	cmpq	$1, %rax
	jne	.L64
	movzbl	(%r14), %edx
	movb	%dl, 32(%rsp)
	movq	%r12, %rdx
.L65:
	movq	%rax, 24(%rsp)
	movq	%rbp, %rdi
	movb	$0, (%rdx,%rax)
	movq	24(%rsp), %rdx
	movq	16(%rsp), %rsi
.LEHB1:
	call	_ZSt16__ostream_insertIcSt11char_traitsIcEERSt13basic_ostreamIT_T0_ES6_PKS3_l@PLT
	leaq	.LC3(%rip), %r13
	movl	$3, %edx
	movq	%rax, %rdi
	movq	%rax, %rbp
	movq	%r13, %rsi
	call	_ZSt16__ostream_insertIcSt11char_traitsIcEERSt13basic_ostreamIT_T0_ES6_PKS3_l@PLT
	movzbl	(%rbx), %esi
	movq	%rbp, %rdi
	call	_ZNSolsEi@PLT
	movl	$3, %edx
	movq	%r13, %rsi
	movq	%rax, %rdi
	movq	%rax, %rbp
	call	_ZSt16__ostream_insertIcSt11char_traitsIcEERSt13basic_ostreamIT_T0_ES6_PKS3_l@PLT
	movq	8(%rbx), %rsi
	movq	%rbp, %rdi
	call	_ZNSo9_M_insertIlEERSoT_@PLT
	movq	%rax, %rbp
	movq	(%rax), %rax
	movq	-24(%rax), %rax
	movq	240(%rbp,%rax), %r13
	testq	%r13, %r13
	je	.L79
	cmpb	$0, 56(%r13)
	je	.L67
	movsbl	67(%r13), %esi
.L68:
	movq	%rbp, %rdi
	call	_ZNSo3putEc@PLT
	movq	%rax, %rdi
	call	_ZNSo5flushEv@PLT
	movq	16(%rsp), %rdi
	cmpq	%r12, %rdi
	je	.L59
	movq	32(%rsp), %rax
	leaq	1(%rax), %rsi
	call	_ZdlPvm@PLT
.L59:
	movq	56(%rsp), %rax
	subq	%fs:40, %rax
	jne	.L80
	addq	$72, %rsp
	.cfi_remember_state
	.cfi_def_cfa_offset 56
	popq	%rbx
	.cfi_def_cfa_offset 48
	popq	%rbp
	.cfi_def_cfa_offset 40
	popq	%r12
	.cfi_def_cfa_offset 32
	popq	%r13
	.cfi_def_cfa_offset 24
	popq	%r14
	.cfi_def_cfa_offset 16
	popq	%r15
	.cfi_def_cfa_offset 8
	ret
	.p2align 4,,10
	.p2align 3
.L64:
	.cfi_restore_state
	testq	%rax, %rax
	jne	.L81
	movq	%r12, %rdx
	jmp	.L65
	.p2align 4,,10
	.p2align 3
.L67:
	movq	%r13, %rdi
	call	_ZNKSt5ctypeIcE13_M_widen_initEv@PLT
	movq	0(%r13), %rax
	movl	$10, %esi
	movq	48(%rax), %rax
	cmpq	_ZNKSt5ctypeIcE8do_widenEc@GOTPCREL(%rip), %rax
	je	.L68
	movq	%r13, %rdi
	call	*%rax
.LEHE1:
	movsbl	%al, %esi
	jmp	.L68
	.p2align 4,,10
	.p2align 3
.L78:
	leaq	16(%rsp), %r13
	leaq	8(%rsp), %rsi
	xorl	%edx, %edx
	movq	%r13, %rdi
.LEHB2:
	call	_ZNSt7__cxx1112basic_stringIcSt11char_traitsIcESaIcEE9_M_createERmm@PLT
.LEHE2:
	movq	%rax, 16(%rsp)
	movq	%rax, %rdi
	movq	8(%rsp), %rax
	movq	%rax, 32(%rsp)
.L63:
	movq	%r15, %rdx
	movq	%r14, %rsi
	call	memcpy@PLT
	movq	8(%rsp), %rax
	movq	16(%rsp), %rdx
	jmp	.L65
.L80:
	call	__stack_chk_fail@PLT
.L79:
.LEHB3:
	call	_ZSt16__throw_bad_castv@PLT
.LEHE3:
.L60:
	leaq	.LC2(%rip), %rdi
.LEHB4:
	call	_ZSt19__throw_logic_errorPKc@PLT
.L81:
	movq	%r12, %rdi
	jmp	.L63
.L75:
	endbr64
	movq	%rax, %rbp
.L70:
	movq	16(%rsp), %rdi
	cmpq	%r12, %rdi
	je	.L71
	movq	32(%rsp), %rax
	leaq	1(%rax), %rsi
	call	_ZdlPvm@PLT
.L71:
	movq	%rbp, %rdi
	call	_Unwind_Resume@PLT
.LEHE4:
	.cfi_endproc
.LFE3663:
	.globl	__gxx_personality_v0
	.section	.gcc_except_table._ZN8opendnp314FunctorVisitorINS_7IndexedINS_15DoubleBitBinaryEEEZN8asiodnp318PrintingSOEHandler8PrintAllIS2_EEvRKNS_10HeaderInfoERKNS_11ICollectionINS1_IT_EEEEEUlRKS3_E_E7OnValueESH_,"aG",@progbits,_ZN8opendnp314FunctorVisitorINS_7IndexedINS_15DoubleBitBinaryEEEZN8asiodnp318PrintingSOEHandler8PrintAllIS2_EEvRKNS_10HeaderInfoERKNS_11ICollectionINS1_IT_EEEEEUlRKS3_E_E7OnValueESH_,comdat
.LLSDA3663:
	.byte	0xff
	.byte	0xff
	.byte	0x1
	.uleb128 .LLSDACSE3663-.LLSDACSB3663
.LLSDACSB3663:
	.uleb128 .LEHB0-.LFB3663
	.uleb128 .LEHE0-.LEHB0
	.uleb128 0
	.uleb128 0
	.uleb128 .LEHB1-.LFB3663
	.uleb128 .LEHE1-.LEHB1
	.uleb128 .L75-.LFB3663
	.uleb128 0
	.uleb128 .LEHB2-.LFB3663
	.uleb128 .LEHE2-.LEHB2
	.uleb128 0
	.uleb128 0
	.uleb128 .LEHB3-.LFB3663
	.uleb128 .LEHE3-.LEHB3
	.uleb128 .L75-.LFB3663
	.uleb128 0
	.uleb128 .LEHB4-.LFB3663
	.uleb128 .LEHE4-.LEHB4
	.uleb128 0
	.uleb128 0
.LLSDACSE3663:
	.section	.text._ZN8opendnp314FunctorVisitorINS_7IndexedINS_15DoubleBitBinaryEEEZN8asiodnp318PrintingSOEHandler8PrintAllIS2_EEvRKNS_10HeaderInfoERKNS_11ICollectionINS1_IT_EEEEEUlRKS3_E_E7OnValueESH_,"axG",@progbits,_ZN8opendnp314FunctorVisitorINS_7IndexedINS_15DoubleBitBinaryEEEZN8asiodnp318PrintingSOEHandler8PrintAllIS2_EEvRKNS_10HeaderInfoERKNS_11ICollectionINS1_IT_EEEEEUlRKS3_E_E7OnValueESH_,comdat
	.size	_ZN8opendnp314FunctorVisitorINS_7IndexedINS_15DoubleBitBinaryEEEZN8asiodnp318PrintingSOEHandler8PrintAllIS2_EEvRKNS_10HeaderInfoERKNS_11ICollectionINS1_IT_EEEEEUlRKS3_E_E7OnValueESH_, .-_ZN8opendnp314FunctorVisitorINS_7IndexedINS_15DoubleBitBinaryEEEZN8asiodnp318PrintingSOEHandler8PrintAllIS2_EEvRKNS_10HeaderInfoERKNS_11ICollectionINS1_IT_EEEEEUlRKS3_E_E7OnValueESH_
	.section	.rodata.str1.1,"aMS",@progbits,1
.LC4:
	.string	"DNPTime: "
	.text
	.align 2
	.p2align 4
	.type	_ZN8opendnp314FunctorVisitorIN7openpal10UInt48TypeEZN8asiodnp318PrintingSOEHandler7ProcessERKNS_10HeaderInfoERKNS_11ICollectionIS2_EEEUlRKS2_E_E7OnValueESD_, @function
_ZN8opendnp314FunctorVisitorIN7openpal10UInt48TypeEZN8asiodnp318PrintingSOEHandler7ProcessERKNS_10HeaderInfoERKNS_11ICollectionIS2_EEEUlRKS2_E_E7OnValueESD_:
.LFB3665:
	.cfi_startproc
	endbr64
	pushq	%r12
	.cfi_def_cfa_offset 16
	.cfi_offset 12, -16
	movl	$9, %edx
	pushq	%rbp
	.cfi_def_cfa_offset 24
	.cfi_offset 6, -24
	movq	%rsi, %rbp
	leaq	.LC4(%rip), %rsi
	subq	$8, %rsp
	.cfi_def_cfa_offset 32
	movq	_ZSt4cout@GOTPCREL(%rip), %r12
	movq	%r12, %rdi
	call	_ZSt16__ostream_insertIcSt11char_traitsIcEERSt13basic_ostreamIT_T0_ES6_PKS3_l@PLT
	movq	0(%rbp), %rsi
	movq	%r12, %rdi
	call	_ZNSo9_M_insertIlEERSoT_@PLT
	movq	%rax, %rbp
	movq	(%rax), %rax
	movq	-24(%rax), %rax
	movq	240(%rbp,%rax), %r12
	testq	%r12, %r12
	je	.L88
	cmpb	$0, 56(%r12)
	je	.L84
	movsbl	67(%r12), %esi
.L85:
	movq	%rbp, %rdi
	call	_ZNSo3putEc@PLT
	addq	$8, %rsp
	.cfi_remember_state
	.cfi_def_cfa_offset 24
	popq	%rbp
	.cfi_def_cfa_offset 16
	movq	%rax, %rdi
	popq	%r12
	.cfi_def_cfa_offset 8
	jmp	_ZNSo5flushEv@PLT
	.p2align 4,,10
	.p2align 3
.L84:
	.cfi_restore_state
	movq	%r12, %rdi
	call	_ZNKSt5ctypeIcE13_M_widen_initEv@PLT
	movq	(%r12), %rax
	movl	$10, %esi
	movq	48(%rax), %rax
	cmpq	_ZNKSt5ctypeIcE8do_widenEc@GOTPCREL(%rip), %rax
	je	.L85
	movq	%r12, %rdi
	call	*%rax
	movsbl	%al, %esi
	jmp	.L85
.L88:
	call	_ZSt16__throw_bad_castv@PLT
	.cfi_endproc
.LFE3665:
	.size	_ZN8opendnp314FunctorVisitorIN7openpal10UInt48TypeEZN8asiodnp318PrintingSOEHandler7ProcessERKNS_10HeaderInfoERKNS_11ICollectionIS2_EEEUlRKS2_E_E7OnValueESD_, .-_ZN8opendnp314FunctorVisitorIN7openpal10UInt48TypeEZN8asiodnp318PrintingSOEHandler7ProcessERKNS_10HeaderInfoERKNS_11ICollectionIS2_EEEUlRKS2_E_E7OnValueESD_
	.section	.rodata.str1.1
.LC5:
	.string	"OctetString "
.LC6:
	.string	" ["
.LC7:
	.string	"] : Size : "
	.text
	.align 2
	.p2align 4
	.type	_ZN8opendnp314FunctorVisitorINS_7IndexedINS_11OctetStringEEEZN8asiodnp318PrintingSOEHandler7ProcessERKNS_10HeaderInfoERKNS_11ICollectionIS3_EEEUlRKS3_E_E7OnValueESE_, @function
_ZN8opendnp314FunctorVisitorINS_7IndexedINS_11OctetStringEEEZN8asiodnp318PrintingSOEHandler7ProcessERKNS_10HeaderInfoERKNS_11ICollectionIS3_EEEUlRKS3_E_E7OnValueESE_:
.LFB3670:
	.cfi_startproc
	endbr64
	pushq	%r12
	.cfi_def_cfa_offset 16
	.cfi_offset 12, -16
	movl	$12, %edx
	movq	%rsi, %r12
	leaq	.LC5(%rip), %rsi
	pushq	%rbp
	.cfi_def_cfa_offset 24
	.cfi_offset 6, -24
	subq	$8, %rsp
	.cfi_def_cfa_offset 32
	movq	_ZSt4cout@GOTPCREL(%rip), %rbp
	movq	%rbp, %rdi
	call	_ZSt16__ostream_insertIcSt11char_traitsIcEERSt13basic_ostreamIT_T0_ES6_PKS3_l@PLT
	movl	$2, %edx
	movq	%rbp, %rdi
	leaq	.LC6(%rip), %rsi
	call	_ZSt16__ostream_insertIcSt11char_traitsIcEERSt13basic_ostreamIT_T0_ES6_PKS3_l@PLT
	movq	%rbp, %rdi
	movzwl	272(%r12), %esi
	call	_ZNSo9_M_insertImEERSoT_@PLT
	movl	$11, %edx
	leaq	.LC7(%rip), %rsi
	movq	%rax, %rdi
	movq	%rax, %rbp
	call	_ZSt16__ostream_insertIcSt11char_traitsIcEERSt13basic_ostreamIT_T0_ES6_PKS3_l@PLT
	movq	%r12, %rdi
	call	_ZNK8opendnp39OctetData8ToRSliceEv@PLT
	movq	%rbp, %rdi
	movl	%eax, %esi
	call	_ZNSo9_M_insertImEERSoT_@PLT
	movq	%rax, %rbp
	movq	(%rax), %rax
	movq	-24(%rax), %rax
	movq	240(%rbp,%rax), %r12
	testq	%r12, %r12
	je	.L95
	cmpb	$0, 56(%r12)
	je	.L91
	movsbl	67(%r12), %esi
.L92:
	movq	%rbp, %rdi
	call	_ZNSo3putEc@PLT
	addq	$8, %rsp
	.cfi_remember_state
	.cfi_def_cfa_offset 24
	popq	%rbp
	.cfi_def_cfa_offset 16
	movq	%rax, %rdi
	popq	%r12
	.cfi_def_cfa_offset 8
	jmp	_ZNSo5flushEv@PLT
	.p2align 4,,10
	.p2align 3
.L91:
	.cfi_restore_state
	movq	%r12, %rdi
	call	_ZNKSt5ctypeIcE13_M_widen_initEv@PLT
	movq	(%r12), %rax
	movl	$10, %esi
	movq	48(%rax), %rax
	cmpq	_ZNKSt5ctypeIcE8do_widenEc@GOTPCREL(%rip), %rax
	je	.L92
	movq	%r12, %rdi
	call	*%rax
	movsbl	%al, %esi
	jmp	.L92
.L95:
	call	_ZSt16__throw_bad_castv@PLT
	.cfi_endproc
.LFE3670:
	.size	_ZN8opendnp314FunctorVisitorINS_7IndexedINS_11OctetStringEEEZN8asiodnp318PrintingSOEHandler7ProcessERKNS_10HeaderInfoERKNS_11ICollectionIS3_EEEUlRKS3_E_E7OnValueESE_, .-_ZN8opendnp314FunctorVisitorINS_7IndexedINS_11OctetStringEEEZN8asiodnp318PrintingSOEHandler7ProcessERKNS_10HeaderInfoERKNS_11ICollectionIS3_EEEUlRKS3_E_E7OnValueESE_
	.section	.rodata.str1.1
.LC8:
	.string	"SecurityStat: "
	.text
	.align 2
	.p2align 4
	.type	_ZN8opendnp314FunctorVisitorINS_7IndexedINS_12SecurityStatEEEZN8asiodnp318PrintingSOEHandler7ProcessERKNS_10HeaderInfoERKNS_11ICollectionIS3_EEEUlRKS3_E_E7OnValueESE_, @function
_ZN8opendnp314FunctorVisitorINS_7IndexedINS_12SecurityStatEEEZN8asiodnp318PrintingSOEHandler7ProcessERKNS_10HeaderInfoERKNS_11ICollectionIS3_EEEUlRKS3_E_E7OnValueESE_:
.LFB3666:
	.cfi_startproc
	endbr64
	pushq	%r12
	.cfi_def_cfa_offset 16
	.cfi_offset 12, -16
	movl	$14, %edx
	leaq	.LC3(%rip), %r12
	pushq	%rbp
	.cfi_def_cfa_offset 24
	.cfi_offset 6, -24
	movq	_ZSt4cout@GOTPCREL(%rip), %rbp
	pushq	%rbx
	.cfi_def_cfa_offset 32
	.cfi_offset 3, -32
	movq	%rsi, %rbx
	leaq	.LC8(%rip), %rsi
	movq	%rbp, %rdi
	call	_ZSt16__ostream_insertIcSt11char_traitsIcEERSt13basic_ostreamIT_T0_ES6_PKS3_l@PLT
	movl	$1, %edx
	movq	%rbp, %rdi
	leaq	.LC0(%rip), %rsi
	call	_ZSt16__ostream_insertIcSt11char_traitsIcEERSt13basic_ostreamIT_T0_ES6_PKS3_l@PLT
	movzwl	24(%rbx), %esi
	movq	%rbp, %rdi
	call	_ZNSo9_M_insertImEERSoT_@PLT
	movl	$4, %edx
	leaq	.LC1(%rip), %rsi
	movq	%rax, %rdi
	movq	%rax, %rbp
	call	_ZSt16__ostream_insertIcSt11char_traitsIcEERSt13basic_ostreamIT_T0_ES6_PKS3_l@PLT
	movq	16(%rbx), %rsi
	movq	%rbp, %rdi
	call	_ZNSo9_M_insertIlEERSoT_@PLT
	movl	$3, %edx
	movq	%r12, %rsi
	movq	%rax, %rdi
	movq	%rax, %rbp
	call	_ZSt16__ostream_insertIcSt11char_traitsIcEERSt13basic_ostreamIT_T0_ES6_PKS3_l@PLT
	movl	8(%rbx), %esi
	movq	%rbp, %rdi
	call	_ZNSo9_M_insertImEERSoT_@PLT
	movl	$3, %edx
	movq	%r12, %rsi
	movq	%rax, %rdi
	movq	%rax, %rbp
	call	_ZSt16__ostream_insertIcSt11char_traitsIcEERSt13basic_ostreamIT_T0_ES6_PKS3_l@PLT
	movzbl	(%rbx), %esi
	movq	%rbp, %rdi
	call	_ZNSolsEi@PLT
	movq	%r12, %rsi
	movl	$3, %edx
	movq	%rax, %rdi
	movq	%rax, %rbp
	call	_ZSt16__ostream_insertIcSt11char_traitsIcEERSt13basic_ostreamIT_T0_ES6_PKS3_l@PLT
	movzwl	4(%rbx), %esi
	movq	%rbp, %rdi
	call	_ZNSo9_M_insertImEERSoT_@PLT
	movq	%rax, %rbp
	movq	(%rax), %rax
	movq	-24(%rax), %rax
	movq	240(%rbp,%rax), %r12
	testq	%r12, %r12
	je	.L102
	cmpb	$0, 56(%r12)
	je	.L98
	movsbl	67(%r12), %esi
.L99:
	movq	%rbp, %rdi
	call	_ZNSo3putEc@PLT
	popq	%rbx
	.cfi_remember_state
	.cfi_def_cfa_offset 24
	popq	%rbp
	.cfi_def_cfa_offset 16
	movq	%rax, %rdi
	popq	%r12
	.cfi_def_cfa_offset 8
	jmp	_ZNSo5flushEv@PLT
	.p2align 4,,10
	.p2align 3
.L98:
	.cfi_restore_state
	movq	%r12, %rdi
	call	_ZNKSt5ctypeIcE13_M_widen_initEv@PLT
	movq	(%r12), %rax
	movl	$10, %esi
	movq	48(%rax), %rax
	cmpq	_ZNKSt5ctypeIcE8do_widenEc@GOTPCREL(%rip), %rax
	je	.L99
	movq	%r12, %rdi
	call	*%rax
	movsbl	%al, %esi
	jmp	.L99
.L102:
	call	_ZSt16__throw_bad_castv@PLT
	.cfi_endproc
.LFE3666:
	.size	_ZN8opendnp314FunctorVisitorINS_7IndexedINS_12SecurityStatEEEZN8asiodnp318PrintingSOEHandler7ProcessERKNS_10HeaderInfoERKNS_11ICollectionIS3_EEEUlRKS3_E_E7OnValueESE_, .-_ZN8opendnp314FunctorVisitorINS_7IndexedINS_12SecurityStatEEEZN8asiodnp318PrintingSOEHandler7ProcessERKNS_10HeaderInfoERKNS_11ICollectionIS3_EEEUlRKS3_E_E7OnValueESE_
	.section	.rodata.str1.1
.LC9:
	.string	"BinaryCommandEvent: "
	.text
	.align 2
	.p2align 4
	.type	_ZN8opendnp314FunctorVisitorINS_7IndexedINS_18BinaryCommandEventEEEZN8asiodnp318PrintingSOEHandler7ProcessERKNS_10HeaderInfoERKNS_11ICollectionIS3_EEEUlRKS3_E_E7OnValueESE_, @function
_ZN8opendnp314FunctorVisitorINS_7IndexedINS_18BinaryCommandEventEEEZN8asiodnp318PrintingSOEHandler7ProcessERKNS_10HeaderInfoERKNS_11ICollectionIS3_EEEUlRKS3_E_E7OnValueESE_:
.LFB3668:
	.cfi_startproc
	endbr64
	pushq	%r12
	.cfi_def_cfa_offset 16
	.cfi_offset 12, -16
	movl	$20, %edx
	leaq	.LC3(%rip), %r12
	pushq	%rbp
	.cfi_def_cfa_offset 24
	.cfi_offset 6, -24
	movq	_ZSt4cout@GOTPCREL(%rip), %rbp
	pushq	%rbx
	.cfi_def_cfa_offset 32
	.cfi_offset 3, -32
	movq	%rsi, %rbx
	leaq	.LC9(%rip), %rsi
	movq	%rbp, %rdi
	call	_ZSt16__ostream_insertIcSt11char_traitsIcEERSt13basic_ostreamIT_T0_ES6_PKS3_l@PLT
	movl	$1, %edx
	movq	%rbp, %rdi
	leaq	.LC0(%rip), %rsi
	call	_ZSt16__ostream_insertIcSt11char_traitsIcEERSt13basic_ostreamIT_T0_ES6_PKS3_l@PLT
	movzwl	16(%rbx), %esi
	movq	%rbp, %rdi
	call	_ZNSo9_M_insertImEERSoT_@PLT
	movl	$4, %edx
	leaq	.LC1(%rip), %rsi
	movq	%rax, %rdi
	movq	%rax, %rbp
	call	_ZSt16__ostream_insertIcSt11char_traitsIcEERSt13basic_ostreamIT_T0_ES6_PKS3_l@PLT
	movq	8(%rbx), %rsi
	movq	%rbp, %rdi
	call	_ZNSo9_M_insertIlEERSoT_@PLT
	movl	$3, %edx
	movq	%r12, %rsi
	movq	%rax, %rdi
	movq	%rax, %rbp
	call	_ZSt16__ostream_insertIcSt11char_traitsIcEERSt13basic_ostreamIT_T0_ES6_PKS3_l@PLT
	movzbl	(%rbx), %esi
	movq	%rbp, %rdi
	call	_ZNSo9_M_insertIbEERSoT_@PLT
	movl	$3, %edx
	movq	%r12, %rsi
	movq	%rax, %rdi
	movq	%rax, %rbp
	call	_ZSt16__ostream_insertIcSt11char_traitsIcEERSt13basic_ostreamIT_T0_ES6_PKS3_l@PLT
	movzbl	1(%rbx), %edi
	call	_ZN8opendnp321CommandStatusToStringENS_13CommandStatusE@PLT
	testq	%rax, %rax
	je	.L111
	movq	%rax, %rdi
	movq	%rax, %r12
	call	strlen@PLT
	movq	%r12, %rsi
	movq	%rbp, %rdi
	movq	%rax, %rdx
	call	_ZSt16__ostream_insertIcSt11char_traitsIcEERSt13basic_ostreamIT_T0_ES6_PKS3_l@PLT
.L105:
	movq	0(%rbp), %rax
	movq	-24(%rax), %rax
	movq	240(%rbp,%rax), %r12
	testq	%r12, %r12
	je	.L112
	cmpb	$0, 56(%r12)
	je	.L107
	movsbl	67(%r12), %esi
.L108:
	movq	%rbp, %rdi
	call	_ZNSo3putEc@PLT
	popq	%rbx
	.cfi_remember_state
	.cfi_def_cfa_offset 24
	popq	%rbp
	.cfi_def_cfa_offset 16
	movq	%rax, %rdi
	popq	%r12
	.cfi_def_cfa_offset 8
	jmp	_ZNSo5flushEv@PLT
	.p2align 4,,10
	.p2align 3
.L107:
	.cfi_restore_state
	movq	%r12, %rdi
	call	_ZNKSt5ctypeIcE13_M_widen_initEv@PLT
	movq	(%r12), %rax
	movl	$10, %esi
	movq	48(%rax), %rax
	cmpq	_ZNKSt5ctypeIcE8do_widenEc@GOTPCREL(%rip), %rax
	je	.L108
	movq	%r12, %rdi
	call	*%rax
	movsbl	%al, %esi
	jmp	.L108
	.p2align 4,,10
	.p2align 3
.L111:
	movq	0(%rbp), %rax
	movq	-24(%rax), %rdi
	addq	%rbp, %rdi
	movl	32(%rdi), %esi
	orl	$1, %esi
	call	_ZNSt9basic_iosIcSt11char_traitsIcEE5clearESt12_Ios_Iostate@PLT
	jmp	.L105
.L112:
	call	_ZSt16__throw_bad_castv@PLT
	.cfi_endproc
.LFE3668:
	.size	_ZN8opendnp314FunctorVisitorINS_7IndexedINS_18BinaryCommandEventEEEZN8asiodnp318PrintingSOEHandler7ProcessERKNS_10HeaderInfoERKNS_11ICollectionIS3_EEEUlRKS3_E_E7OnValueESE_, .-_ZN8opendnp314FunctorVisitorINS_7IndexedINS_18BinaryCommandEventEEEZN8asiodnp318PrintingSOEHandler7ProcessERKNS_10HeaderInfoERKNS_11ICollectionIS3_EEEUlRKS3_E_E7OnValueESE_
	.section	.rodata.str1.1
.LC10:
	.string	"AnalogCommandEvent: "
	.text
	.align 2
	.p2align 4
	.type	_ZN8opendnp314FunctorVisitorINS_7IndexedINS_18AnalogCommandEventEEEZN8asiodnp318PrintingSOEHandler7ProcessERKNS_10HeaderInfoERKNS_11ICollectionIS3_EEEUlRKS3_E_E7OnValueESE_, @function
_ZN8opendnp314FunctorVisitorINS_7IndexedINS_18AnalogCommandEventEEEZN8asiodnp318PrintingSOEHandler7ProcessERKNS_10HeaderInfoERKNS_11ICollectionIS3_EEEUlRKS3_E_E7OnValueESE_:
.LFB3667:
	.cfi_startproc
	endbr64
	pushq	%r12
	.cfi_def_cfa_offset 16
	.cfi_offset 12, -16
	movl	$20, %edx
	leaq	.LC3(%rip), %r12
	pushq	%rbp
	.cfi_def_cfa_offset 24
	.cfi_offset 6, -24
	movq	_ZSt4cout@GOTPCREL(%rip), %rbp
	pushq	%rbx
	.cfi_def_cfa_offset 32
	.cfi_offset 3, -32
	movq	%rsi, %rbx
	leaq	.LC10(%rip), %rsi
	movq	%rbp, %rdi
	call	_ZSt16__ostream_insertIcSt11char_traitsIcEERSt13basic_ostreamIT_T0_ES6_PKS3_l@PLT
	movl	$1, %edx
	movq	%rbp, %rdi
	leaq	.LC0(%rip), %rsi
	call	_ZSt16__ostream_insertIcSt11char_traitsIcEERSt13basic_ostreamIT_T0_ES6_PKS3_l@PLT
	movzwl	24(%rbx), %esi
	movq	%rbp, %rdi
	call	_ZNSo9_M_insertImEERSoT_@PLT
	movl	$4, %edx
	leaq	.LC1(%rip), %rsi
	movq	%rax, %rdi
	movq	%rax, %rbp
	call	_ZSt16__ostream_insertIcSt11char_traitsIcEERSt13basic_ostreamIT_T0_ES6_PKS3_l@PLT
	movq	16(%rbx), %rsi
	movq	%rbp, %rdi
	call	_ZNSo9_M_insertIlEERSoT_@PLT
	movl	$3, %edx
	movq	%r12, %rsi
	movq	%rax, %rdi
	movq	%rax, %rbp
	call	_ZSt16__ostream_insertIcSt11char_traitsIcEERSt13basic_ostreamIT_T0_ES6_PKS3_l@PLT
	movsd	(%rbx), %xmm0
	movq	%rbp, %rdi
	call	_ZNSo9_M_insertIdEERSoT_@PLT
	movl	$3, %edx
	movq	%r12, %rsi
	movq	%rax, %rdi
	movq	%rax, %rbp
	call	_ZSt16__ostream_insertIcSt11char_traitsIcEERSt13basic_ostreamIT_T0_ES6_PKS3_l@PLT
	movzbl	8(%rbx), %edi
	call	_ZN8opendnp321CommandStatusToStringENS_13CommandStatusE@PLT
	testq	%rax, %rax
	je	.L121
	movq	%rax, %rdi
	movq	%rax, %r12
	call	strlen@PLT
	movq	%r12, %rsi
	movq	%rbp, %rdi
	movq	%rax, %rdx
	call	_ZSt16__ostream_insertIcSt11char_traitsIcEERSt13basic_ostreamIT_T0_ES6_PKS3_l@PLT
.L115:
	movq	0(%rbp), %rax
	movq	-24(%rax), %rax
	movq	240(%rbp,%rax), %r12
	testq	%r12, %r12
	je	.L122
	cmpb	$0, 56(%r12)
	je	.L117
	movsbl	67(%r12), %esi
.L118:
	movq	%rbp, %rdi
	call	_ZNSo3putEc@PLT
	popq	%rbx
	.cfi_remember_state
	.cfi_def_cfa_offset 24
	popq	%rbp
	.cfi_def_cfa_offset 16
	movq	%rax, %rdi
	popq	%r12
	.cfi_def_cfa_offset 8
	jmp	_ZNSo5flushEv@PLT
	.p2align 4,,10
	.p2align 3
.L117:
	.cfi_restore_state
	movq	%r12, %rdi
	call	_ZNKSt5ctypeIcE13_M_widen_initEv@PLT
	movq	(%r12), %rax
	movl	$10, %esi
	movq	48(%rax), %rax
	cmpq	_ZNKSt5ctypeIcE8do_widenEc@GOTPCREL(%rip), %rax
	je	.L118
	movq	%r12, %rdi
	call	*%rax
	movsbl	%al, %esi
	jmp	.L118
	.p2align 4,,10
	.p2align 3
.L121:
	movq	0(%rbp), %rax
	movq	-24(%rax), %rdi
	addq	%rbp, %rdi
	movl	32(%rdi), %esi
	orl	$1, %esi
	call	_ZNSt9basic_iosIcSt11char_traitsIcEE5clearESt12_Ios_Iostate@PLT
	jmp	.L115
.L122:
	call	_ZSt16__throw_bad_castv@PLT
	.cfi_endproc
.LFE3667:
	.size	_ZN8opendnp314FunctorVisitorINS_7IndexedINS_18AnalogCommandEventEEEZN8asiodnp318PrintingSOEHandler7ProcessERKNS_10HeaderInfoERKNS_11ICollectionIS3_EEEUlRKS3_E_E7OnValueESE_, .-_ZN8opendnp314FunctorVisitorINS_7IndexedINS_18AnalogCommandEventEEEZN8asiodnp318PrintingSOEHandler7ProcessERKNS_10HeaderInfoERKNS_11ICollectionIS3_EEEUlRKS3_E_E7OnValueESE_
	.section	.rodata.str1.1
.LC11:
	.string	"TimeAndInterval: "
	.text
	.align 2
	.p2align 4
	.type	_ZN8opendnp314FunctorVisitorINS_7IndexedINS_15TimeAndIntervalEEEZN8asiodnp318PrintingSOEHandler7ProcessERKNS_10HeaderInfoERKNS_11ICollectionIS3_EEEUlRKS3_E_E7OnValueESE_, @function
_ZN8opendnp314FunctorVisitorINS_7IndexedINS_15TimeAndIntervalEEEZN8asiodnp318PrintingSOEHandler7ProcessERKNS_10HeaderInfoERKNS_11ICollectionIS3_EEEUlRKS3_E_E7OnValueESE_:
.LFB3669:
	.cfi_startproc
	endbr64
	pushq	%r13
	.cfi_def_cfa_offset 16
	.cfi_offset 13, -16
	movl	$17, %edx
	leaq	.LC3(%rip), %r13
	pushq	%r12
	.cfi_def_cfa_offset 24
	.cfi_offset 12, -24
	movq	%rsi, %r12
	leaq	.LC11(%rip), %rsi
	pushq	%rbp
	.cfi_def_cfa_offset 32
	.cfi_offset 6, -32
	movq	_ZSt4cout@GOTPCREL(%rip), %rbp
	movq	%rbp, %rdi
	call	_ZSt16__ostream_insertIcSt11char_traitsIcEERSt13basic_ostreamIT_T0_ES6_PKS3_l@PLT
	movl	$1, %edx
	movq	%rbp, %rdi
	leaq	.LC0(%rip), %rsi
	call	_ZSt16__ostream_insertIcSt11char_traitsIcEERSt13basic_ostreamIT_T0_ES6_PKS3_l@PLT
	movzwl	16(%r12), %esi
	movq	%rbp, %rdi
	call	_ZNSo9_M_insertImEERSoT_@PLT
	movl	$4, %edx
	leaq	.LC1(%rip), %rsi
	movq	%rax, %rdi
	movq	%rax, %rbp
	call	_ZSt16__ostream_insertIcSt11char_traitsIcEERSt13basic_ostreamIT_T0_ES6_PKS3_l@PLT
	movq	(%r12), %rsi
	movq	%rbp, %rdi
	call	_ZNSo9_M_insertIlEERSoT_@PLT
	movl	$3, %edx
	movq	%r13, %rsi
	movq	%rax, %rdi
	movq	%rax, %rbp
	call	_ZSt16__ostream_insertIcSt11char_traitsIcEERSt13basic_ostreamIT_T0_ES6_PKS3_l@PLT
	movl	8(%r12), %esi
	movq	%rbp, %rdi
	call	_ZNSo9_M_insertImEERSoT_@PLT
	movl	$3, %edx
	movq	%r13, %rsi
	movq	%rax, %rdi
	movq	%rax, %rbp
	call	_ZSt16__ostream_insertIcSt11char_traitsIcEERSt13basic_ostreamIT_T0_ES6_PKS3_l@PLT
	movq	%r12, %rdi
	call	_ZNK8opendnp315TimeAndInterval12GetUnitsEnumEv@PLT
	movl	%eax, %edi
	call	_ZN8opendnp321IntervalUnitsToStringENS_13IntervalUnitsE@PLT
	testq	%rax, %rax
	je	.L131
	movq	%rax, %rdi
	movq	%rax, %r12
	call	strlen@PLT
	movq	%r12, %rsi
	movq	%rbp, %rdi
	movq	%rax, %rdx
	call	_ZSt16__ostream_insertIcSt11char_traitsIcEERSt13basic_ostreamIT_T0_ES6_PKS3_l@PLT
.L125:
	movq	0(%rbp), %rax
	movq	-24(%rax), %rax
	movq	240(%rbp,%rax), %r12
	testq	%r12, %r12
	je	.L132
	cmpb	$0, 56(%r12)
	je	.L127
	movsbl	67(%r12), %esi
.L128:
	movq	%rbp, %rdi
	call	_ZNSo3putEc@PLT
	popq	%rbp
	.cfi_remember_state
	.cfi_def_cfa_offset 24
	popq	%r12
	.cfi_def_cfa_offset 16
	movq	%rax, %rdi
	popq	%r13
	.cfi_def_cfa_offset 8
	jmp	_ZNSo5flushEv@PLT
	.p2align 4,,10
	.p2align 3
.L127:
	.cfi_restore_state
	movq	%r12, %rdi
	call	_ZNKSt5ctypeIcE13_M_widen_initEv@PLT
	movq	(%r12), %rax
	movl	$10, %esi
	movq	48(%rax), %rax
	cmpq	_ZNKSt5ctypeIcE8do_widenEc@GOTPCREL(%rip), %rax
	je	.L128
	movq	%r12, %rdi
	call	*%rax
	movsbl	%al, %esi
	jmp	.L128
	.p2align 4,,10
	.p2align 3
.L131:
	movq	0(%rbp), %rax
	movq	-24(%rax), %rdi
	addq	%rbp, %rdi
	movl	32(%rdi), %esi
	orl	$1, %esi
	call	_ZNSt9basic_iosIcSt11char_traitsIcEE5clearESt12_Ios_Iostate@PLT
	jmp	.L125
.L132:
	call	_ZSt16__throw_bad_castv@PLT
	.cfi_endproc
.LFE3669:
	.size	_ZN8opendnp314FunctorVisitorINS_7IndexedINS_15TimeAndIntervalEEEZN8asiodnp318PrintingSOEHandler7ProcessERKNS_10HeaderInfoERKNS_11ICollectionIS3_EEEUlRKS3_E_E7OnValueESE_, .-_ZN8opendnp314FunctorVisitorINS_7IndexedINS_15TimeAndIntervalEEEZN8asiodnp318PrintingSOEHandler7ProcessERKNS_10HeaderInfoERKNS_11ICollectionIS3_EEEUlRKS3_E_E7OnValueESE_
	.section	.text._ZNSt7__cxx1115basic_stringbufIcSt11char_traitsIcESaIcEED2Ev,"axG",@progbits,_ZNSt7__cxx1115basic_stringbufIcSt11char_traitsIcESaIcEED5Ev,comdat
	.align 2
	.p2align 4
	.weak	_ZNSt7__cxx1115basic_stringbufIcSt11char_traitsIcESaIcEED2Ev
	.type	_ZNSt7__cxx1115basic_stringbufIcSt11char_traitsIcESaIcEED2Ev, @function
_ZNSt7__cxx1115basic_stringbufIcSt11char_traitsIcESaIcEED2Ev:
.LFB3067:
	.cfi_startproc
	endbr64
	movq	_ZTVNSt7__cxx1115basic_stringbufIcSt11char_traitsIcESaIcEEE@GOTPCREL(%rip), %rax
	pushq	%rbx
	.cfi_def_cfa_offset 16
	.cfi_offset 3, -16
	movq	%rdi, %rbx
	addq	$16, %rax
	movq	%rax, (%rdi)
	movq	72(%rdi), %rdi
	leaq	88(%rbx), %rax
	cmpq	%rax, %rdi
	je	.L134
	movq	88(%rbx), %rax
	leaq	1(%rax), %rsi
	call	_ZdlPvm@PLT
.L134:
	movq	_ZTVSt15basic_streambufIcSt11char_traitsIcEE@GOTPCREL(%rip), %rax
	leaq	56(%rbx), %rdi
	addq	$16, %rax
	movq	%rax, (%rbx)
	popq	%rbx
	.cfi_def_cfa_offset 8
	jmp	_ZNSt6localeD1Ev@PLT
	.cfi_endproc
.LFE3067:
	.size	_ZNSt7__cxx1115basic_stringbufIcSt11char_traitsIcESaIcEED2Ev, .-_ZNSt7__cxx1115basic_stringbufIcSt11char_traitsIcESaIcEED2Ev
	.weak	_ZNSt7__cxx1115basic_stringbufIcSt11char_traitsIcESaIcEED1Ev
	.set	_ZNSt7__cxx1115basic_stringbufIcSt11char_traitsIcESaIcEED1Ev,_ZNSt7__cxx1115basic_stringbufIcSt11char_traitsIcESaIcEED2Ev
	.section	.text._ZNSt7__cxx1115basic_stringbufIcSt11char_traitsIcESaIcEED0Ev,"axG",@progbits,_ZNSt7__cxx1115basic_stringbufIcSt11char_traitsIcESaIcEED5Ev,comdat
	.align 2
	.p2align 4
	.weak	_ZNSt7__cxx1115basic_stringbufIcSt11char_traitsIcESaIcEED0Ev
	.type	_ZNSt7__cxx1115basic_stringbufIcSt11char_traitsIcESaIcEED0Ev, @function
_ZNSt7__cxx1115basic_stringbufIcSt11char_traitsIcESaIcEED0Ev:
.LFB3069:
	.cfi_startproc
	endbr64
	movq	_ZTVNSt7__cxx1115basic_stringbufIcSt11char_traitsIcESaIcEEE@GOTPCREL(%rip), %rax
	pushq	%rbp
	.cfi_def_cfa_offset 16
	.cfi_offset 6, -16
	movq	%rdi, %rbp
	addq	$16, %rax
	movq	%rax, (%rdi)
	movq	72(%rdi), %rdi
	leaq	88(%rbp), %rax
	cmpq	%rax, %rdi
	je	.L137
	movq	88(%rbp), %rax
	leaq	1(%rax), %rsi
	call	_ZdlPvm@PLT
.L137:
	movq	_ZTVSt15basic_streambufIcSt11char_traitsIcEE@GOTPCREL(%rip), %rax
	leaq	56(%rbp), %rdi
	addq	$16, %rax
	movq	%rax, 0(%rbp)
	call	_ZNSt6localeD1Ev@PLT
	movq	%rbp, %rdi
	movl	$104, %esi
	popq	%rbp
	.cfi_def_cfa_offset 8
	jmp	_ZdlPvm@PLT
	.cfi_endproc
.LFE3069:
	.size	_ZNSt7__cxx1115basic_stringbufIcSt11char_traitsIcESaIcEED0Ev, .-_ZNSt7__cxx1115basic_stringbufIcSt11char_traitsIcESaIcEED0Ev
	.section	.text._ZN8asiodnp318PrintingSOEHandler13ValueToStringIN8opendnp36BinaryEEENSt7__cxx1112basic_stringIcSt11char_traitsIcESaIcEEERKT_,"axG",@progbits,_ZN8asiodnp318PrintingSOEHandler13ValueToStringIN8opendnp36BinaryEEENSt7__cxx1112basic_stringIcSt11char_traitsIcESaIcEEERKT_,comdat
	.p2align 4
	.weak	_ZN8asiodnp318PrintingSOEHandler13ValueToStringIN8opendnp36BinaryEEENSt7__cxx1112basic_stringIcSt11char_traitsIcESaIcEEERKT_
	.type	_ZN8asiodnp318PrintingSOEHandler13ValueToStringIN8opendnp36BinaryEEENSt7__cxx1112basic_stringIcSt11char_traitsIcESaIcEEERKT_, @function
_ZN8asiodnp318PrintingSOEHandler13ValueToStringIN8opendnp36BinaryEEENSt7__cxx1112basic_stringIcSt11char_traitsIcESaIcEEERKT_:
.LFB3386:
	.cfi_startproc
	.cfi_personality 0x9b,DW.ref.__gxx_personality_v0
	.cfi_lsda 0x1b,.LLSDA3386
	endbr64
	pushq	%r15
	.cfi_def_cfa_offset 16
	.cfi_offset 15, -16
	pushq	%r14
	.cfi_def_cfa_offset 24
	.cfi_offset 14, -24
	pushq	%r13
	.cfi_def_cfa_offset 32
	.cfi_offset 13, -32
	pushq	%r12
	.cfi_def_cfa_offset 40
	.cfi_offset 12, -40
	movq	%rdi, %r12
	pushq	%rbp
	.cfi_def_cfa_offset 48
	.cfi_offset 6, -48
	pushq	%rbx
	.cfi_def_cfa_offset 56
	.cfi_offset 3, -56
	subq	$456, %rsp
	.cfi_def_cfa_offset 512
	movq	_ZTVNSt7__cxx1115basic_stringbufIcSt11char_traitsIcESaIcEEE@GOTPCREL(%rip), %r15
	movq	%rsi, 56(%rsp)
	leaq	176(%rsp), %rbp
	leaq	64(%rsp), %r14
	movq	%rbp, %rdi
	movq	%fs:40, %rax
	movq	%rax, 440(%rsp)
	movq	_ZTVNSt7__cxx1119basic_ostringstreamIcSt11char_traitsIcESaIcEEE@GOTPCREL(%rip), %rax
	movq	%r14, 48(%rsp)
	addq	$24, %rax
	movq	%rax, %xmm0
	leaq	16(%r15), %rax
	movq	%rax, %xmm3
	movq	_ZTVSt15basic_streambufIcSt11char_traitsIcEE@GOTPCREL(%rip), %rax
	movdqa	%xmm0, %xmm1
	movdqa	%xmm0, %xmm2
	punpcklqdq	%xmm3, %xmm1
	addq	$16, %rax
	movaps	%xmm1, 16(%rsp)
	movq	%rax, %xmm4
	punpcklqdq	%xmm4, %xmm2
	movaps	%xmm2, 32(%rsp)
	call	_ZNSt8ios_baseC2Ev@PLT
	movq	_ZTVSt9basic_iosIcSt11char_traitsIcEE@GOTPCREL(%rip), %rax
	pxor	%xmm0, %xmm0
	xorl	%esi, %esi
	movups	%xmm0, 408(%rsp)
	addq	$16, %rax
	movups	%xmm0, 424(%rsp)
	movq	%rax, 176(%rsp)
	xorl	%eax, %eax
	movw	%ax, 400(%rsp)
	movq	_ZTTNSt7__cxx1119basic_ostringstreamIcSt11char_traitsIcESaIcEEE@GOTPCREL(%rip), %rax
	movq	$0, 392(%rsp)
	movq	8(%rax), %rbx
	movq	16(%rax), %rax
	movq	-24(%rbx), %rdi
	movq	%rbx, 64(%rsp)
	movq	%rax, 8(%rsp)
	addq	%r14, %rdi
	movq	%rax, (%rdi)
.LEHB5:
	call	_ZNSt9basic_iosIcSt11char_traitsIcEE4initEPSt15basic_streambufIcS1_E@PLT
.LEHE5:
	movq	_ZTVNSt7__cxx1119basic_ostringstreamIcSt11char_traitsIcESaIcEEE@GOTPCREL(%rip), %rax
	movdqa	32(%rsp), %xmm2
	pxor	%xmm0, %xmm0
	leaq	128(%rsp), %r14
	movq	%r14, %rdi
	leaq	72(%rsp), %r13
	movaps	%xmm0, 80(%rsp)
	addq	$64, %rax
	movaps	%xmm2, 64(%rsp)
	movq	%rax, 176(%rsp)
	movaps	%xmm0, 96(%rsp)
	movaps	%xmm0, 112(%rsp)
	call	_ZNSt6localeC1Ev@PLT
	leaq	16(%r15), %rax
	movq	%r13, %rsi
	movq	%rbp, %rdi
	leaq	160(%rsp), %r15
	movq	%rax, 72(%rsp)
	movl	$16, 136(%rsp)
	movq	%r15, 144(%rsp)
	movq	$0, 152(%rsp)
	movb	$0, 160(%rsp)
.LEHB6:
	call	_ZNSt9basic_iosIcSt11char_traitsIcEE4initEPSt15basic_streambufIcS1_E@PLT
.LEHE6:
	movq	56(%rsp), %rax
	movq	48(%rsp), %rdi
	movzbl	16(%rax), %esi
.LEHB7:
	call	_ZNSo9_M_insertIbEERSoT_@PLT
.LEHE7:
	movq	112(%rsp), %rax
	leaq	16(%r12), %r13
	movq	$0, 8(%r12)
	movq	%r13, (%r12)
	movb	$0, 16(%r12)
	testq	%rax, %rax
	je	.L143
	movq	96(%rsp), %r8
	testq	%r8, %r8
	je	.L157
	cmpq	%r8, %rax
	ja	.L157
.L144:
	movq	104(%rsp), %rcx
	xorl	%edx, %edx
	xorl	%esi, %esi
	movq	%r12, %rdi
	subq	%rcx, %r8
.LEHB8:
	call	_ZNSt7__cxx1112basic_stringIcSt11char_traitsIcESaIcEE10_M_replaceEmmPKcm@PLT
.L148:
	movq	_ZTVNSt7__cxx1119basic_ostringstreamIcSt11char_traitsIcESaIcEEE@GOTPCREL(%rip), %rax
	movdqa	16(%rsp), %xmm5
	movq	144(%rsp), %rdi
	addq	$64, %rax
	movaps	%xmm5, 64(%rsp)
	movq	%rax, 176(%rsp)
	cmpq	%r15, %rdi
	je	.L147
	movq	160(%rsp), %rax
	leaq	1(%rax), %rsi
	call	_ZdlPvm@PLT
.L147:
	movq	_ZTVSt15basic_streambufIcSt11char_traitsIcEE@GOTPCREL(%rip), %rax
	movq	%r14, %rdi
	addq	$16, %rax
	movq	%rax, 72(%rsp)
	call	_ZNSt6localeD1Ev@PLT
	movq	-24(%rbx), %rax
	movq	8(%rsp), %rdx
	movq	%rbp, %rdi
	movq	%rbx, 64(%rsp)
	movq	%rdx, 64(%rsp,%rax)
	movq	_ZTVSt9basic_iosIcSt11char_traitsIcEE@GOTPCREL(%rip), %rax
	addq	$16, %rax
	movq	%rax, 176(%rsp)
	call	_ZNSt8ios_baseD2Ev@PLT
	movq	440(%rsp), %rax
	subq	%fs:40, %rax
	jne	.L164
	addq	$456, %rsp
	.cfi_remember_state
	.cfi_def_cfa_offset 56
	movq	%r12, %rax
	popq	%rbx
	.cfi_def_cfa_offset 48
	popq	%rbp
	.cfi_def_cfa_offset 40
	popq	%r12
	.cfi_def_cfa_offset 32
	popq	%r13
	.cfi_def_cfa_offset 24
	popq	%r14
	.cfi_def_cfa_offset 16
	popq	%r15
	.cfi_def_cfa_offset 8
	ret
	.p2align 4,,10
	.p2align 3
.L157:
	.cfi_restore_state
	movq	%rax, %r8
	jmp	.L144
	.p2align 4,,10
	.p2align 3
.L143:
	leaq	144(%rsp), %rsi
	movq	%r12, %rdi
	call	_ZNSt7__cxx1112basic_stringIcSt11char_traitsIcESaIcEE9_M_assignERKS4_@PLT
.LEHE8:
	jmp	.L148
.L164:
	call	__stack_chk_fail@PLT
.L153:
	endbr64
	movq	%rax, %rbp
	jmp	.L151
.L156:
	endbr64
	movq	%rax, %rbp
.L149:
	movq	(%r12), %rdi
	cmpq	%rdi, %r13
	je	.L151
	movq	16(%r12), %rsi
	addq	$1, %rsi
	call	_ZdlPvm@PLT
.L151:
	movq	48(%rsp), %rdi
	call	_ZNSt7__cxx1119basic_ostringstreamIcSt11char_traitsIcESaIcEED1Ev@PLT
	movq	%rbp, %rdi
.LEHB9:
	call	_Unwind_Resume@PLT
.L155:
	endbr64
	movq	%rax, %r12
	jmp	.L141
.L154:
	endbr64
	movq	%rax, %r12
	jmp	.L142
.L141:
	movq	%r13, %rdi
	call	_ZNSt7__cxx1115basic_stringbufIcSt11char_traitsIcESaIcEED1Ev@PLT
	movq	-24(%rbx), %rax
	movq	8(%rsp), %rdx
	movq	%rbx, 64(%rsp)
	movq	%rdx, 64(%rsp,%rax)
.L142:
	movq	_ZTVSt9basic_iosIcSt11char_traitsIcEE@GOTPCREL(%rip), %rax
	movq	%rbp, %rdi
	addq	$16, %rax
	movq	%rax, 176(%rsp)
	call	_ZNSt8ios_baseD2Ev@PLT
	movq	%r12, %rdi
	call	_Unwind_Resume@PLT
.LEHE9:
	.cfi_endproc
.LFE3386:
	.section	.gcc_except_table._ZN8asiodnp318PrintingSOEHandler13ValueToStringIN8opendnp36BinaryEEENSt7__cxx1112basic_stringIcSt11char_traitsIcESaIcEEERKT_,"aG",@progbits,_ZN8asiodnp318PrintingSOEHandler13ValueToStringIN8opendnp36BinaryEEENSt7__cxx1112basic_stringIcSt11char_traitsIcESaIcEEERKT_,comdat
.LLSDA3386:
	.byte	0xff
	.byte	0xff
	.byte	0x1
	.uleb128 .LLSDACSE3386-.LLSDACSB3386
.LLSDACSB3386:
	.uleb128 .LEHB5-.LFB3386
	.uleb128 .LEHE5-.LEHB5
	.uleb128 .L154-.LFB3386
	.uleb128 0
	.uleb128 .LEHB6-.LFB3386
	.uleb128 .LEHE6-.LEHB6
	.uleb128 .L155-.LFB3386
	.uleb128 0
	.uleb128 .LEHB7-.LFB3386
	.uleb128 .LEHE7-.LEHB7
	.uleb128 .L153-.LFB3386
	.uleb128 0
	.uleb128 .LEHB8-.LFB3386
	.uleb128 .LEHE8-.LEHB8
	.uleb128 .L156-.LFB3386
	.uleb128 0
	.uleb128 .LEHB9-.LFB3386
	.uleb128 .LEHE9-.LEHB9
	.uleb128 0
	.uleb128 0
.LLSDACSE3386:
	.section	.text._ZN8asiodnp318PrintingSOEHandler13ValueToStringIN8opendnp36BinaryEEENSt7__cxx1112basic_stringIcSt11char_traitsIcESaIcEEERKT_,"axG",@progbits,_ZN8asiodnp318PrintingSOEHandler13ValueToStringIN8opendnp36BinaryEEENSt7__cxx1112basic_stringIcSt11char_traitsIcESaIcEEERKT_,comdat
	.size	_ZN8asiodnp318PrintingSOEHandler13ValueToStringIN8opendnp36BinaryEEENSt7__cxx1112basic_stringIcSt11char_traitsIcESaIcEEERKT_, .-_ZN8asiodnp318PrintingSOEHandler13ValueToStringIN8opendnp36BinaryEEENSt7__cxx1112basic_stringIcSt11char_traitsIcESaIcEEERKT_
	.section	.text._ZN8opendnp314FunctorVisitorINS_7IndexedINS_6BinaryEEEZN8asiodnp318PrintingSOEHandler8PrintAllIS2_EEvRKNS_10HeaderInfoERKNS_11ICollectionINS1_IT_EEEEEUlRKS3_E_E7OnValueESH_,"axG",@progbits,_ZN8opendnp314FunctorVisitorINS_7IndexedINS_6BinaryEEEZN8asiodnp318PrintingSOEHandler8PrintAllIS2_EEvRKNS_10HeaderInfoERKNS_11ICollectionINS1_IT_EEEEEUlRKS3_E_E7OnValueESH_,comdat
	.align 2
	.p2align 4
	.weak	_ZN8opendnp314FunctorVisitorINS_7IndexedINS_6BinaryEEEZN8asiodnp318PrintingSOEHandler8PrintAllIS2_EEvRKNS_10HeaderInfoERKNS_11ICollectionINS1_IT_EEEEEUlRKS3_E_E7OnValueESH_
	.type	_ZN8opendnp314FunctorVisitorINS_7IndexedINS_6BinaryEEEZN8asiodnp318PrintingSOEHandler8PrintAllIS2_EEvRKNS_10HeaderInfoERKNS_11ICollectionINS1_IT_EEEEEUlRKS3_E_E7OnValueESH_, @function
_ZN8opendnp314FunctorVisitorINS_7IndexedINS_6BinaryEEEZN8asiodnp318PrintingSOEHandler8PrintAllIS2_EEvRKNS_10HeaderInfoERKNS_11ICollectionINS1_IT_EEEEEUlRKS3_E_E7OnValueESH_:
.LFB3664:
	.cfi_startproc
	.cfi_personality 0x9b,DW.ref.__gxx_personality_v0
	.cfi_lsda 0x1b,.LLSDA3664
	endbr64
	pushq	%r12
	.cfi_def_cfa_offset 16
	.cfi_offset 12, -16
	movl	$1, %edx
	pushq	%rbp
	.cfi_def_cfa_offset 24
	.cfi_offset 6, -24
	pushq	%rbx
	.cfi_def_cfa_offset 32
	.cfi_offset 3, -32
	movq	%rsi, %rbx
	subq	$48, %rsp
	.cfi_def_cfa_offset 80
	movq	_ZSt4cout@GOTPCREL(%rip), %r12
	movzwl	24(%rsi), %ebp
	leaq	.LC0(%rip), %rsi
	movq	%fs:40, %rax
	movq	%rax, 40(%rsp)
	xorl	%eax, %eax
	movq	%r12, %rdi
.LEHB10:
	call	_ZSt16__ostream_insertIcSt11char_traitsIcEERSt13basic_ostreamIT_T0_ES6_PKS3_l@PLT
	movzwl	%bp, %esi
	movq	%r12, %rdi
	call	_ZNSo9_M_insertImEERSoT_@PLT
	movl	$4, %edx
	leaq	.LC1(%rip), %rsi
	movq	%rax, %rdi
	movq	%rax, %rbp
	call	_ZSt16__ostream_insertIcSt11char_traitsIcEERSt13basic_ostreamIT_T0_ES6_PKS3_l@PLT
	movq	%rsp, %rdi
	movq	%rbx, %rsi
	call	_ZN8asiodnp318PrintingSOEHandler13ValueToStringIN8opendnp36BinaryEEENSt7__cxx1112basic_stringIcSt11char_traitsIcESaIcEEERKT_@PLT
.LEHE10:
	movq	8(%rsp), %rdx
	movq	(%rsp), %rsi
	movq	%rbp, %rdi
.LEHB11:
	call	_ZSt16__ostream_insertIcSt11char_traitsIcEERSt13basic_ostreamIT_T0_ES6_PKS3_l@PLT
	leaq	.LC3(%rip), %r12
	movl	$3, %edx
	movq	%rax, %rdi
	movq	%rax, %rbp
	movq	%r12, %rsi
	call	_ZSt16__ostream_insertIcSt11char_traitsIcEERSt13basic_ostreamIT_T0_ES6_PKS3_l@PLT
	movzbl	(%rbx), %esi
	movq	%rbp, %rdi
	call	_ZNSolsEi@PLT
	movl	$3, %edx
	movq	%r12, %rsi
	movq	%rax, %rdi
	movq	%rax, %rbp
	call	_ZSt16__ostream_insertIcSt11char_traitsIcEERSt13basic_ostreamIT_T0_ES6_PKS3_l@PLT
	movq	8(%rbx), %rsi
	movq	%rbp, %rdi
	call	_ZNSo9_M_insertIlEERSoT_@PLT
	movq	%rax, %rbp
	movq	(%rax), %rax
	movq	-24(%rax), %rax
	movq	240(%rbp,%rax), %r12
	testq	%r12, %r12
	je	.L176
	cmpb	$0, 56(%r12)
	je	.L167
	movsbl	67(%r12), %esi
.L168:
	movq	%rbp, %rdi
	call	_ZNSo3putEc@PLT
	movq	%rax, %rdi
	call	_ZNSo5flushEv@PLT
	movq	(%rsp), %rdi
	leaq	16(%rsp), %rax
	cmpq	%rax, %rdi
	je	.L165
	movq	16(%rsp), %rax
	leaq	1(%rax), %rsi
	call	_ZdlPvm@PLT
.L165:
	movq	40(%rsp), %rax
	subq	%fs:40, %rax
	jne	.L177
	addq	$48, %rsp
	.cfi_remember_state
	.cfi_def_cfa_offset 32
	popq	%rbx
	.cfi_def_cfa_offset 24
	popq	%rbp
	.cfi_def_cfa_offset 16
	popq	%r12
	.cfi_def_cfa_offset 8
	ret
	.p2align 4,,10
	.p2align 3
.L167:
	.cfi_restore_state
	movq	%r12, %rdi
	call	_ZNKSt5ctypeIcE13_M_widen_initEv@PLT
	movq	(%r12), %rax
	movl	$10, %esi
	movq	48(%rax), %rax
	cmpq	_ZNKSt5ctypeIcE8do_widenEc@GOTPCREL(%rip), %rax
	je	.L168
	movq	%r12, %rdi
	call	*%rax
	movsbl	%al, %esi
	jmp	.L168
.L177:
	call	__stack_chk_fail@PLT
.L176:
	call	_ZSt16__throw_bad_castv@PLT
.LEHE11:
.L174:
	endbr64
	movq	%rax, %rbp
.L170:
	movq	(%rsp), %rdi
	leaq	16(%rsp), %rax
	cmpq	%rax, %rdi
	je	.L171
	movq	16(%rsp), %rax
	leaq	1(%rax), %rsi
	call	_ZdlPvm@PLT
.L171:
	movq	%rbp, %rdi
.LEHB12:
	call	_Unwind_Resume@PLT
.LEHE12:
	.cfi_endproc
.LFE3664:
	.section	.gcc_except_table._ZN8opendnp314FunctorVisitorINS_7IndexedINS_6BinaryEEEZN8asiodnp318PrintingSOEHandler8PrintAllIS2_EEvRKNS_10HeaderInfoERKNS_11ICollectionINS1_IT_EEEEEUlRKS3_E_E7OnValueESH_,"aG",@progbits,_ZN8opendnp314FunctorVisitorINS_7IndexedINS_6BinaryEEEZN8asiodnp318PrintingSOEHandler8PrintAllIS2_EEvRKNS_10HeaderInfoERKNS_11ICollectionINS1_IT_EEEEEUlRKS3_E_E7OnValueESH_,comdat
.LLSDA3664:
	.byte	0xff
	.byte	0xff
	.byte	0x1
	.uleb128 .LLSDACSE3664-.LLSDACSB3664
.LLSDACSB3664:
	.uleb128 .LEHB10-.LFB3664
	.uleb128 .LEHE10-.LEHB10
	.uleb128 0
	.uleb128 0
	.uleb128 .LEHB11-.LFB3664
	.uleb128 .LEHE11-.LEHB11
	.uleb128 .L174-.LFB3664
	.uleb128 0
	.uleb128 .LEHB12-.LFB3664
	.uleb128 .LEHE12-.LEHB12
	.uleb128 0
	.uleb128 0
.LLSDACSE3664:
	.section	.text._ZN8opendnp314FunctorVisitorINS_7IndexedINS_6BinaryEEEZN8asiodnp318PrintingSOEHandler8PrintAllIS2_EEvRKNS_10HeaderInfoERKNS_11ICollectionINS1_IT_EEEEEUlRKS3_E_E7OnValueESH_,"axG",@progbits,_ZN8opendnp314FunctorVisitorINS_7IndexedINS_6BinaryEEEZN8asiodnp318PrintingSOEHandler8PrintAllIS2_EEvRKNS_10HeaderInfoERKNS_11ICollectionINS1_IT_EEEEEUlRKS3_E_E7OnValueESH_,comdat
	.size	_ZN8opendnp314FunctorVisitorINS_7IndexedINS_6BinaryEEEZN8asiodnp318PrintingSOEHandler8PrintAllIS2_EEvRKNS_10HeaderInfoERKNS_11ICollectionINS1_IT_EEEEEUlRKS3_E_E7OnValueESH_, .-_ZN8opendnp314FunctorVisitorINS_7IndexedINS_6BinaryEEEZN8asiodnp318PrintingSOEHandler8PrintAllIS2_EEvRKNS_10HeaderInfoERKNS_11ICollectionINS1_IT_EEEEEUlRKS3_E_E7OnValueESH_
	.section	.text._ZN8asiodnp318PrintingSOEHandler13ValueToStringIN8opendnp36AnalogEEENSt7__cxx1112basic_stringIcSt11char_traitsIcESaIcEEERKT_,"axG",@progbits,_ZN8asiodnp318PrintingSOEHandler13ValueToStringIN8opendnp36AnalogEEENSt7__cxx1112basic_stringIcSt11char_traitsIcESaIcEEERKT_,comdat
	.p2align 4
	.weak	_ZN8asiodnp318PrintingSOEHandler13ValueToStringIN8opendnp36AnalogEEENSt7__cxx1112basic_stringIcSt11char_traitsIcESaIcEEERKT_
	.type	_ZN8asiodnp318PrintingSOEHandler13ValueToStringIN8opendnp36AnalogEEENSt7__cxx1112basic_stringIcSt11char_traitsIcESaIcEEERKT_, @function
_ZN8asiodnp318PrintingSOEHandler13ValueToStringIN8opendnp36AnalogEEENSt7__cxx1112basic_stringIcSt11char_traitsIcESaIcEEERKT_:
.LFB3400:
	.cfi_startproc
	.cfi_personality 0x9b,DW.ref.__gxx_personality_v0
	.cfi_lsda 0x1b,.LLSDA3400
	endbr64
	pushq	%r15
	.cfi_def_cfa_offset 16
	.cfi_offset 15, -16
	pushq	%r14
	.cfi_def_cfa_offset 24
	.cfi_offset 14, -24
	pushq	%r13
	.cfi_def_cfa_offset 32
	.cfi_offset 13, -32
	pushq	%r12
	.cfi_def_cfa_offset 40
	.cfi_offset 12, -40
	movq	%rdi, %r12
	pushq	%rbp
	.cfi_def_cfa_offset 48
	.cfi_offset 6, -48
	pushq	%rbx
	.cfi_def_cfa_offset 56
	.cfi_offset 3, -56
	subq	$456, %rsp
	.cfi_def_cfa_offset 512
	movq	_ZTVNSt7__cxx1115basic_stringbufIcSt11char_traitsIcESaIcEEE@GOTPCREL(%rip), %r15
	movq	%rsi, 56(%rsp)
	leaq	176(%rsp), %rbp
	leaq	64(%rsp), %r14
	movq	%rbp, %rdi
	movq	%fs:40, %rax
	movq	%rax, 440(%rsp)
	movq	_ZTVNSt7__cxx1119basic_ostringstreamIcSt11char_traitsIcESaIcEEE@GOTPCREL(%rip), %rax
	movq	%r14, 48(%rsp)
	addq	$24, %rax
	movq	%rax, %xmm0
	leaq	16(%r15), %rax
	movq	%rax, %xmm3
	movq	_ZTVSt15basic_streambufIcSt11char_traitsIcEE@GOTPCREL(%rip), %rax
	movdqa	%xmm0, %xmm1
	movdqa	%xmm0, %xmm2
	punpcklqdq	%xmm3, %xmm1
	addq	$16, %rax
	movaps	%xmm1, 16(%rsp)
	movq	%rax, %xmm4
	punpcklqdq	%xmm4, %xmm2
	movaps	%xmm2, 32(%rsp)
	call	_ZNSt8ios_baseC2Ev@PLT
	movq	_ZTVSt9basic_iosIcSt11char_traitsIcEE@GOTPCREL(%rip), %rax
	pxor	%xmm0, %xmm0
	xorl	%esi, %esi
	movups	%xmm0, 408(%rsp)
	addq	$16, %rax
	movups	%xmm0, 424(%rsp)
	movq	%rax, 176(%rsp)
	xorl	%eax, %eax
	movw	%ax, 400(%rsp)
	movq	_ZTTNSt7__cxx1119basic_ostringstreamIcSt11char_traitsIcESaIcEEE@GOTPCREL(%rip), %rax
	movq	$0, 392(%rsp)
	movq	8(%rax), %rbx
	movq	16(%rax), %rax
	movq	-24(%rbx), %rdi
	movq	%rbx, 64(%rsp)
	movq	%rax, 8(%rsp)
	addq	%r14, %rdi
	movq	%rax, (%rdi)
.LEHB13:
	call	_ZNSt9basic_iosIcSt11char_traitsIcEE4initEPSt15basic_streambufIcS1_E@PLT
.LEHE13:
	movq	_ZTVNSt7__cxx1119basic_ostringstreamIcSt11char_traitsIcESaIcEEE@GOTPCREL(%rip), %rax
	movdqa	32(%rsp), %xmm2
	pxor	%xmm0, %xmm0
	leaq	128(%rsp), %r14
	movq	%r14, %rdi
	leaq	72(%rsp), %r13
	movaps	%xmm0, 80(%rsp)
	addq	$64, %rax
	movaps	%xmm2, 64(%rsp)
	movq	%rax, 176(%rsp)
	movaps	%xmm0, 96(%rsp)
	movaps	%xmm0, 112(%rsp)
	call	_ZNSt6localeC1Ev@PLT
	leaq	16(%r15), %rax
	movq	%r13, %rsi
	movq	%rbp, %rdi
	leaq	160(%rsp), %r15
	movq	%rax, 72(%rsp)
	movl	$16, 136(%rsp)
	movq	%r15, 144(%rsp)
	movq	$0, 152(%rsp)
	movb	$0, 160(%rsp)
.LEHB14:
	call	_ZNSt9basic_iosIcSt11char_traitsIcEE4initEPSt15basic_streambufIcS1_E@PLT
.LEHE14:
	movq	56(%rsp), %rax
	movq	48(%rsp), %rdi
	movsd	16(%rax), %xmm0
.LEHB15:
	call	_ZNSo9_M_insertIdEERSoT_@PLT
.LEHE15:
	movq	112(%rsp), %rax
	leaq	16(%r12), %r13
	movq	$0, 8(%r12)
	movq	%r13, (%r12)
	movb	$0, 16(%r12)
	testq	%rax, %rax
	je	.L182
	movq	96(%rsp), %r8
	testq	%r8, %r8
	je	.L196
	cmpq	%r8, %rax
	ja	.L196
.L183:
	movq	104(%rsp), %rcx
	xorl	%edx, %edx
	xorl	%esi, %esi
	movq	%r12, %rdi
	subq	%rcx, %r8
.LEHB16:
	call	_ZNSt7__cxx1112basic_stringIcSt11char_traitsIcESaIcEE10_M_replaceEmmPKcm@PLT
.L187:
	movq	_ZTVNSt7__cxx1119basic_ostringstreamIcSt11char_traitsIcESaIcEEE@GOTPCREL(%rip), %rax
	movdqa	16(%rsp), %xmm5
	movq	144(%rsp), %rdi
	addq	$64, %rax
	movaps	%xmm5, 64(%rsp)
	movq	%rax, 176(%rsp)
	cmpq	%r15, %rdi
	je	.L186
	movq	160(%rsp), %rax
	leaq	1(%rax), %rsi
	call	_ZdlPvm@PLT
.L186:
	movq	_ZTVSt15basic_streambufIcSt11char_traitsIcEE@GOTPCREL(%rip), %rax
	movq	%r14, %rdi
	addq	$16, %rax
	movq	%rax, 72(%rsp)
	call	_ZNSt6localeD1Ev@PLT
	movq	-24(%rbx), %rax
	movq	8(%rsp), %rdx
	movq	%rbp, %rdi
	movq	%rbx, 64(%rsp)
	movq	%rdx, 64(%rsp,%rax)
	movq	_ZTVSt9basic_iosIcSt11char_traitsIcEE@GOTPCREL(%rip), %rax
	addq	$16, %rax
	movq	%rax, 176(%rsp)
	call	_ZNSt8ios_baseD2Ev@PLT
	movq	440(%rsp), %rax
	subq	%fs:40, %rax
	jne	.L203
	addq	$456, %rsp
	.cfi_remember_state
	.cfi_def_cfa_offset 56
	movq	%r12, %rax
	popq	%rbx
	.cfi_def_cfa_offset 48
	popq	%rbp
	.cfi_def_cfa_offset 40
	popq	%r12
	.cfi_def_cfa_offset 32
	popq	%r13
	.cfi_def_cfa_offset 24
	popq	%r14
	.cfi_def_cfa_offset 16
	popq	%r15
	.cfi_def_cfa_offset 8
	ret
	.p2align 4,,10
	.p2align 3
.L196:
	.cfi_restore_state
	movq	%rax, %r8
	jmp	.L183
	.p2align 4,,10
	.p2align 3
.L182:
	leaq	144(%rsp), %rsi
	movq	%r12, %rdi
	call	_ZNSt7__cxx1112basic_stringIcSt11char_traitsIcESaIcEE9_M_assignERKS4_@PLT
.LEHE16:
	jmp	.L187
.L203:
	call	__stack_chk_fail@PLT
.L192:
	endbr64
	movq	%rax, %rbp
	jmp	.L190
.L195:
	endbr64
	movq	%rax, %rbp
.L188:
	movq	(%r12), %rdi
	cmpq	%rdi, %r13
	je	.L190
	movq	16(%r12), %rsi
	addq	$1, %rsi
	call	_ZdlPvm@PLT
.L190:
	movq	48(%rsp), %rdi
	call	_ZNSt7__cxx1119basic_ostringstreamIcSt11char_traitsIcESaIcEED1Ev@PLT
	movq	%rbp, %rdi
.LEHB17:
	call	_Unwind_Resume@PLT
.L194:
	endbr64
	movq	%rax, %r12
	jmp	.L180
.L193:
	endbr64
	movq	%rax, %r12
	jmp	.L181
.L180:
	movq	%r13, %rdi
	call	_ZNSt7__cxx1115basic_stringbufIcSt11char_traitsIcESaIcEED1Ev@PLT
	movq	-24(%rbx), %rax
	movq	8(%rsp), %rdx
	movq	%rbx, 64(%rsp)
	movq	%rdx, 64(%rsp,%rax)
.L181:
	movq	_ZTVSt9basic_iosIcSt11char_traitsIcEE@GOTPCREL(%rip), %rax
	movq	%rbp, %rdi
	addq	$16, %rax
	movq	%rax, 176(%rsp)
	call	_ZNSt8ios_baseD2Ev@PLT
	movq	%r12, %rdi
	call	_Unwind_Resume@PLT
.LEHE17:
	.cfi_endproc
.LFE3400:
	.section	.gcc_except_table._ZN8asiodnp318PrintingSOEHandler13ValueToStringIN8opendnp36AnalogEEENSt7__cxx1112basic_stringIcSt11char_traitsIcESaIcEEERKT_,"aG",@progbits,_ZN8asiodnp318PrintingSOEHandler13ValueToStringIN8opendnp36AnalogEEENSt7__cxx1112basic_stringIcSt11char_traitsIcESaIcEEERKT_,comdat
.LLSDA3400:
	.byte	0xff
	.byte	0xff
	.byte	0x1
	.uleb128 .LLSDACSE3400-.LLSDACSB3400
.LLSDACSB3400:
	.uleb128 .LEHB13-.LFB3400
	.uleb128 .LEHE13-.LEHB13
	.uleb128 .L193-.LFB3400
	.uleb128 0
	.uleb128 .LEHB14-.LFB3400
	.uleb128 .LEHE14-.LEHB14
	.uleb128 .L194-.LFB3400
	.uleb128 0
	.uleb128 .LEHB15-.LFB3400
	.uleb128 .LEHE15-.LEHB15
	.uleb128 .L192-.LFB3400
	.uleb128 0
	.uleb128 .LEHB16-.LFB3400
	.uleb128 .LEHE16-.LEHB16
	.uleb128 .L195-.LFB3400
	.uleb128 0
	.uleb128 .LEHB17-.LFB3400
	.uleb128 .LEHE17-.LEHB17
	.uleb128 0
	.uleb128 0
.LLSDACSE3400:
	.section	.text._ZN8asiodnp318PrintingSOEHandler13ValueToStringIN8opendnp36AnalogEEENSt7__cxx1112basic_stringIcSt11char_traitsIcESaIcEEERKT_,"axG",@progbits,_ZN8asiodnp318PrintingSOEHandler13ValueToStringIN8opendnp36AnalogEEENSt7__cxx1112basic_stringIcSt11char_traitsIcESaIcEEERKT_,comdat
	.size	_ZN8asiodnp318PrintingSOEHandler13ValueToStringIN8opendnp36AnalogEEENSt7__cxx1112basic_stringIcSt11char_traitsIcESaIcEEERKT_, .-_ZN8asiodnp318PrintingSOEHandler13ValueToStringIN8opendnp36AnalogEEENSt7__cxx1112basic_stringIcSt11char_traitsIcESaIcEEERKT_
	.section	.text._ZN8opendnp314FunctorVisitorINS_7IndexedINS_6AnalogEEEZN8asiodnp318PrintingSOEHandler8PrintAllIS2_EEvRKNS_10HeaderInfoERKNS_11ICollectionINS1_IT_EEEEEUlRKS3_E_E7OnValueESH_,"axG",@progbits,_ZN8opendnp314FunctorVisitorINS_7IndexedINS_6AnalogEEEZN8asiodnp318PrintingSOEHandler8PrintAllIS2_EEvRKNS_10HeaderInfoERKNS_11ICollectionINS1_IT_EEEEEUlRKS3_E_E7OnValueESH_,comdat
	.align 2
	.p2align 4
	.weak	_ZN8opendnp314FunctorVisitorINS_7IndexedINS_6AnalogEEEZN8asiodnp318PrintingSOEHandler8PrintAllIS2_EEvRKNS_10HeaderInfoERKNS_11ICollectionINS1_IT_EEEEEUlRKS3_E_E7OnValueESH_
	.type	_ZN8opendnp314FunctorVisitorINS_7IndexedINS_6AnalogEEEZN8asiodnp318PrintingSOEHandler8PrintAllIS2_EEvRKNS_10HeaderInfoERKNS_11ICollectionINS1_IT_EEEEEUlRKS3_E_E7OnValueESH_, @function
_ZN8opendnp314FunctorVisitorINS_7IndexedINS_6AnalogEEEZN8asiodnp318PrintingSOEHandler8PrintAllIS2_EEvRKNS_10HeaderInfoERKNS_11ICollectionINS1_IT_EEEEEUlRKS3_E_E7OnValueESH_:
.LFB3662:
	.cfi_startproc
	.cfi_personality 0x9b,DW.ref.__gxx_personality_v0
	.cfi_lsda 0x1b,.LLSDA3662
	endbr64
	pushq	%r12
	.cfi_def_cfa_offset 16
	.cfi_offset 12, -16
	movl	$1, %edx
	pushq	%rbp
	.cfi_def_cfa_offset 24
	.cfi_offset 6, -24
	pushq	%rbx
	.cfi_def_cfa_offset 32
	.cfi_offset 3, -32
	movq	%rsi, %rbx
	subq	$48, %rsp
	.cfi_def_cfa_offset 80
	movq	_ZSt4cout@GOTPCREL(%rip), %r12
	movzwl	24(%rsi), %ebp
	leaq	.LC0(%rip), %rsi
	movq	%fs:40, %rax
	movq	%rax, 40(%rsp)
	xorl	%eax, %eax
	movq	%r12, %rdi
.LEHB18:
	call	_ZSt16__ostream_insertIcSt11char_traitsIcEERSt13basic_ostreamIT_T0_ES6_PKS3_l@PLT
	movzwl	%bp, %esi
	movq	%r12, %rdi
	call	_ZNSo9_M_insertImEERSoT_@PLT
	movl	$4, %edx
	leaq	.LC1(%rip), %rsi
	movq	%rax, %rdi
	movq	%rax, %rbp
	call	_ZSt16__ostream_insertIcSt11char_traitsIcEERSt13basic_ostreamIT_T0_ES6_PKS3_l@PLT
	movq	%rsp, %rdi
	movq	%rbx, %rsi
	call	_ZN8asiodnp318PrintingSOEHandler13ValueToStringIN8opendnp36AnalogEEENSt7__cxx1112basic_stringIcSt11char_traitsIcESaIcEEERKT_@PLT
.LEHE18:
	movq	8(%rsp), %rdx
	movq	(%rsp), %rsi
	movq	%rbp, %rdi
.LEHB19:
	call	_ZSt16__ostream_insertIcSt11char_traitsIcEERSt13basic_ostreamIT_T0_ES6_PKS3_l@PLT
	leaq	.LC3(%rip), %r12
	movl	$3, %edx
	movq	%rax, %rdi
	movq	%rax, %rbp
	movq	%r12, %rsi
	call	_ZSt16__ostream_insertIcSt11char_traitsIcEERSt13basic_ostreamIT_T0_ES6_PKS3_l@PLT
	movzbl	(%rbx), %esi
	movq	%rbp, %rdi
	call	_ZNSolsEi@PLT
	movl	$3, %edx
	movq	%r12, %rsi
	movq	%rax, %rdi
	movq	%rax, %rbp
	call	_ZSt16__ostream_insertIcSt11char_traitsIcEERSt13basic_ostreamIT_T0_ES6_PKS3_l@PLT
	movq	8(%rbx), %rsi
	movq	%rbp, %rdi
	call	_ZNSo9_M_insertIlEERSoT_@PLT
	movq	%rax, %rbp
	movq	(%rax), %rax
	movq	-24(%rax), %rax
	movq	240(%rbp,%rax), %r12
	testq	%r12, %r12
	je	.L215
	cmpb	$0, 56(%r12)
	je	.L206
	movsbl	67(%r12), %esi
.L207:
	movq	%rbp, %rdi
	call	_ZNSo3putEc@PLT
	movq	%rax, %rdi
	call	_ZNSo5flushEv@PLT
	movq	(%rsp), %rdi
	leaq	16(%rsp), %rax
	cmpq	%rax, %rdi
	je	.L204
	movq	16(%rsp), %rax
	leaq	1(%rax), %rsi
	call	_ZdlPvm@PLT
.L204:
	movq	40(%rsp), %rax
	subq	%fs:40, %rax
	jne	.L216
	addq	$48, %rsp
	.cfi_remember_state
	.cfi_def_cfa_offset 32
	popq	%rbx
	.cfi_def_cfa_offset 24
	popq	%rbp
	.cfi_def_cfa_offset 16
	popq	%r12
	.cfi_def_cfa_offset 8
	ret
	.p2align 4,,10
	.p2align 3
.L206:
	.cfi_restore_state
	movq	%r12, %rdi
	call	_ZNKSt5ctypeIcE13_M_widen_initEv@PLT
	movq	(%r12), %rax
	movl	$10, %esi
	movq	48(%rax), %rax
	cmpq	_ZNKSt5ctypeIcE8do_widenEc@GOTPCREL(%rip), %rax
	je	.L207
	movq	%r12, %rdi
	call	*%rax
	movsbl	%al, %esi
	jmp	.L207
.L216:
	call	__stack_chk_fail@PLT
.L215:
	call	_ZSt16__throw_bad_castv@PLT
.LEHE19:
.L213:
	endbr64
	movq	%rax, %rbp
.L209:
	movq	(%rsp), %rdi
	leaq	16(%rsp), %rax
	cmpq	%rax, %rdi
	je	.L210
	movq	16(%rsp), %rax
	leaq	1(%rax), %rsi
	call	_ZdlPvm@PLT
.L210:
	movq	%rbp, %rdi
.LEHB20:
	call	_Unwind_Resume@PLT
.LEHE20:
	.cfi_endproc
.LFE3662:
	.section	.gcc_except_table._ZN8opendnp314FunctorVisitorINS_7IndexedINS_6AnalogEEEZN8asiodnp318PrintingSOEHandler8PrintAllIS2_EEvRKNS_10HeaderInfoERKNS_11ICollectionINS1_IT_EEEEEUlRKS3_E_E7OnValueESH_,"aG",@progbits,_ZN8opendnp314FunctorVisitorINS_7IndexedINS_6AnalogEEEZN8asiodnp318PrintingSOEHandler8PrintAllIS2_EEvRKNS_10HeaderInfoERKNS_11ICollectionINS1_IT_EEEEEUlRKS3_E_E7OnValueESH_,comdat
.LLSDA3662:
	.byte	0xff
	.byte	0xff
	.byte	0x1
	.uleb128 .LLSDACSE3662-.LLSDACSB3662
.LLSDACSB3662:
	.uleb128 .LEHB18-.LFB3662
	.uleb128 .LEHE18-.LEHB18
	.uleb128 0
	.uleb128 0
	.uleb128 .LEHB19-.LFB3662
	.uleb128 .LEHE19-.LEHB19
	.uleb128 .L213-.LFB3662
	.uleb128 0
	.uleb128 .LEHB20-.LFB3662
	.uleb128 .LEHE20-.LEHB20
	.uleb128 0
	.uleb128 0
.LLSDACSE3662:
	.section	.text._ZN8opendnp314FunctorVisitorINS_7IndexedINS_6AnalogEEEZN8asiodnp318PrintingSOEHandler8PrintAllIS2_EEvRKNS_10HeaderInfoERKNS_11ICollectionINS1_IT_EEEEEUlRKS3_E_E7OnValueESH_,"axG",@progbits,_ZN8opendnp314FunctorVisitorINS_7IndexedINS_6AnalogEEEZN8asiodnp318PrintingSOEHandler8PrintAllIS2_EEvRKNS_10HeaderInfoERKNS_11ICollectionINS1_IT_EEEEEUlRKS3_E_E7OnValueESH_,comdat
	.size	_ZN8opendnp314FunctorVisitorINS_7IndexedINS_6AnalogEEEZN8asiodnp318PrintingSOEHandler8PrintAllIS2_EEvRKNS_10HeaderInfoERKNS_11ICollectionINS1_IT_EEEEEUlRKS3_E_E7OnValueESH_, .-_ZN8opendnp314FunctorVisitorINS_7IndexedINS_6AnalogEEEZN8asiodnp318PrintingSOEHandler8PrintAllIS2_EEvRKNS_10HeaderInfoERKNS_11ICollectionINS1_IT_EEEEEUlRKS3_E_E7OnValueESH_
	.section	.text._ZN8asiodnp318PrintingSOEHandler13ValueToStringIN8opendnp37CounterEEENSt7__cxx1112basic_stringIcSt11char_traitsIcESaIcEEERKT_,"axG",@progbits,_ZN8asiodnp318PrintingSOEHandler13ValueToStringIN8opendnp37CounterEEENSt7__cxx1112basic_stringIcSt11char_traitsIcESaIcEEERKT_,comdat
	.p2align 4
	.weak	_ZN8asiodnp318PrintingSOEHandler13ValueToStringIN8opendnp37CounterEEENSt7__cxx1112basic_stringIcSt11char_traitsIcESaIcEEERKT_
	.type	_ZN8asiodnp318PrintingSOEHandler13ValueToStringIN8opendnp37CounterEEENSt7__cxx1112basic_stringIcSt11char_traitsIcESaIcEEERKT_, @function
_ZN8asiodnp318PrintingSOEHandler13ValueToStringIN8opendnp37CounterEEENSt7__cxx1112basic_stringIcSt11char_traitsIcESaIcEEERKT_:
.LFB3407:
	.cfi_startproc
	.cfi_personality 0x9b,DW.ref.__gxx_personality_v0
	.cfi_lsda 0x1b,.LLSDA3407
	endbr64
	pushq	%r15
	.cfi_def_cfa_offset 16
	.cfi_offset 15, -16
	pushq	%r14
	.cfi_def_cfa_offset 24
	.cfi_offset 14, -24
	pushq	%r13
	.cfi_def_cfa_offset 32
	.cfi_offset 13, -32
	pushq	%r12
	.cfi_def_cfa_offset 40
	.cfi_offset 12, -40
	movq	%rdi, %r12
	pushq	%rbp
	.cfi_def_cfa_offset 48
	.cfi_offset 6, -48
	pushq	%rbx
	.cfi_def_cfa_offset 56
	.cfi_offset 3, -56
	subq	$456, %rsp
	.cfi_def_cfa_offset 512
	movq	_ZTVNSt7__cxx1115basic_stringbufIcSt11char_traitsIcESaIcEEE@GOTPCREL(%rip), %r15
	movq	%rsi, 56(%rsp)
	leaq	176(%rsp), %rbp
	leaq	64(%rsp), %r14
	movq	%rbp, %rdi
	movq	%fs:40, %rax
	movq	%rax, 440(%rsp)
	movq	_ZTVNSt7__cxx1119basic_ostringstreamIcSt11char_traitsIcESaIcEEE@GOTPCREL(%rip), %rax
	movq	%r14, 48(%rsp)
	addq	$24, %rax
	movq	%rax, %xmm0
	leaq	16(%r15), %rax
	movq	%rax, %xmm3
	movq	_ZTVSt15basic_streambufIcSt11char_traitsIcEE@GOTPCREL(%rip), %rax
	movdqa	%xmm0, %xmm1
	movdqa	%xmm0, %xmm2
	punpcklqdq	%xmm3, %xmm1
	addq	$16, %rax
	movaps	%xmm1, 16(%rsp)
	movq	%rax, %xmm4
	punpcklqdq	%xmm4, %xmm2
	movaps	%xmm2, 32(%rsp)
	call	_ZNSt8ios_baseC2Ev@PLT
	movq	_ZTVSt9basic_iosIcSt11char_traitsIcEE@GOTPCREL(%rip), %rax
	pxor	%xmm0, %xmm0
	xorl	%esi, %esi
	movups	%xmm0, 408(%rsp)
	addq	$16, %rax
	movups	%xmm0, 424(%rsp)
	movq	%rax, 176(%rsp)
	xorl	%eax, %eax
	movw	%ax, 400(%rsp)
	movq	_ZTTNSt7__cxx1119basic_ostringstreamIcSt11char_traitsIcESaIcEEE@GOTPCREL(%rip), %rax
	movq	$0, 392(%rsp)
	movq	8(%rax), %rbx
	movq	16(%rax), %rax
	movq	-24(%rbx), %rdi
	movq	%rbx, 64(%rsp)
	movq	%rax, 8(%rsp)
	addq	%r14, %rdi
	movq	%rax, (%rdi)
.LEHB21:
	call	_ZNSt9basic_iosIcSt11char_traitsIcEE4initEPSt15basic_streambufIcS1_E@PLT
.LEHE21:
	movq	_ZTVNSt7__cxx1119basic_ostringstreamIcSt11char_traitsIcESaIcEEE@GOTPCREL(%rip), %rax
	movdqa	32(%rsp), %xmm2
	pxor	%xmm0, %xmm0
	leaq	128(%rsp), %r14
	movq	%r14, %rdi
	leaq	72(%rsp), %r13
	movaps	%xmm0, 80(%rsp)
	addq	$64, %rax
	movaps	%xmm2, 64(%rsp)
	movq	%rax, 176(%rsp)
	movaps	%xmm0, 96(%rsp)
	movaps	%xmm0, 112(%rsp)
	call	_ZNSt6localeC1Ev@PLT
	leaq	16(%r15), %rax
	movq	%r13, %rsi
	movq	%rbp, %rdi
	leaq	160(%rsp), %r15
	movq	%rax, 72(%rsp)
	movl	$16, 136(%rsp)
	movq	%r15, 144(%rsp)
	movq	$0, 152(%rsp)
	movb	$0, 160(%rsp)
.LEHB22:
	call	_ZNSt9basic_iosIcSt11char_traitsIcEE4initEPSt15basic_streambufIcS1_E@PLT
.LEHE22:
	movq	56(%rsp), %rax
	movq	48(%rsp), %rdi
	movl	16(%rax), %esi
.LEHB23:
	call	_ZNSo9_M_insertImEERSoT_@PLT
.LEHE23:
	movq	112(%rsp), %rax
	leaq	16(%r12), %r13
	movq	$0, 8(%r12)
	movq	%r13, (%r12)
	movb	$0, 16(%r12)
	testq	%rax, %rax
	je	.L221
	movq	96(%rsp), %r8
	testq	%r8, %r8
	je	.L235
	cmpq	%r8, %rax
	ja	.L235
.L222:
	movq	104(%rsp), %rcx
	xorl	%edx, %edx
	xorl	%esi, %esi
	movq	%r12, %rdi
	subq	%rcx, %r8
.LEHB24:
	call	_ZNSt7__cxx1112basic_stringIcSt11char_traitsIcESaIcEE10_M_replaceEmmPKcm@PLT
.L226:
	movq	_ZTVNSt7__cxx1119basic_ostringstreamIcSt11char_traitsIcESaIcEEE@GOTPCREL(%rip), %rax
	movdqa	16(%rsp), %xmm5
	movq	144(%rsp), %rdi
	addq	$64, %rax
	movaps	%xmm5, 64(%rsp)
	movq	%rax, 176(%rsp)
	cmpq	%r15, %rdi
	je	.L225
	movq	160(%rsp), %rax
	leaq	1(%rax), %rsi
	call	_ZdlPvm@PLT
.L225:
	movq	_ZTVSt15basic_streambufIcSt11char_traitsIcEE@GOTPCREL(%rip), %rax
	movq	%r14, %rdi
	addq	$16, %rax
	movq	%rax, 72(%rsp)
	call	_ZNSt6localeD1Ev@PLT
	movq	-24(%rbx), %rax
	movq	8(%rsp), %rdx
	movq	%rbp, %rdi
	movq	%rbx, 64(%rsp)
	movq	%rdx, 64(%rsp,%rax)
	movq	_ZTVSt9basic_iosIcSt11char_traitsIcEE@GOTPCREL(%rip), %rax
	addq	$16, %rax
	movq	%rax, 176(%rsp)
	call	_ZNSt8ios_baseD2Ev@PLT
	movq	440(%rsp), %rax
	subq	%fs:40, %rax
	jne	.L242
	addq	$456, %rsp
	.cfi_remember_state
	.cfi_def_cfa_offset 56
	movq	%r12, %rax
	popq	%rbx
	.cfi_def_cfa_offset 48
	popq	%rbp
	.cfi_def_cfa_offset 40
	popq	%r12
	.cfi_def_cfa_offset 32
	popq	%r13
	.cfi_def_cfa_offset 24
	popq	%r14
	.cfi_def_cfa_offset 16
	popq	%r15
	.cfi_def_cfa_offset 8
	ret
	.p2align 4,,10
	.p2align 3
.L235:
	.cfi_restore_state
	movq	%rax, %r8
	jmp	.L222
	.p2align 4,,10
	.p2align 3
.L221:
	leaq	144(%rsp), %rsi
	movq	%r12, %rdi
	call	_ZNSt7__cxx1112basic_stringIcSt11char_traitsIcESaIcEE9_M_assignERKS4_@PLT
.LEHE24:
	jmp	.L226
.L242:
	call	__stack_chk_fail@PLT
.L231:
	endbr64
	movq	%rax, %rbp
	jmp	.L229
.L234:
	endbr64
	movq	%rax, %rbp
.L227:
	movq	(%r12), %rdi
	cmpq	%rdi, %r13
	je	.L229
	movq	16(%r12), %rsi
	addq	$1, %rsi
	call	_ZdlPvm@PLT
.L229:
	movq	48(%rsp), %rdi
	call	_ZNSt7__cxx1119basic_ostringstreamIcSt11char_traitsIcESaIcEED1Ev@PLT
	movq	%rbp, %rdi
.LEHB25:
	call	_Unwind_Resume@PLT
.L233:
	endbr64
	movq	%rax, %r12
	jmp	.L219
.L232:
	endbr64
	movq	%rax, %r12
	jmp	.L220
.L219:
	movq	%r13, %rdi
	call	_ZNSt7__cxx1115basic_stringbufIcSt11char_traitsIcESaIcEED1Ev@PLT
	movq	-24(%rbx), %rax
	movq	8(%rsp), %rdx
	movq	%rbx, 64(%rsp)
	movq	%rdx, 64(%rsp,%rax)
.L220:
	movq	_ZTVSt9basic_iosIcSt11char_traitsIcEE@GOTPCREL(%rip), %rax
	movq	%rbp, %rdi
	addq	$16, %rax
	movq	%rax, 176(%rsp)
	call	_ZNSt8ios_baseD2Ev@PLT
	movq	%r12, %rdi
	call	_Unwind_Resume@PLT
.LEHE25:
	.cfi_endproc
.LFE3407:
	.section	.gcc_except_table._ZN8asiodnp318PrintingSOEHandler13ValueToStringIN8opendnp37CounterEEENSt7__cxx1112basic_stringIcSt11char_traitsIcESaIcEEERKT_,"aG",@progbits,_ZN8asiodnp318PrintingSOEHandler13ValueToStringIN8opendnp37CounterEEENSt7__cxx1112basic_stringIcSt11char_traitsIcESaIcEEERKT_,comdat
.LLSDA3407:
	.byte	0xff
	.byte	0xff
	.byte	0x1
	.uleb128 .LLSDACSE3407-.LLSDACSB3407
.LLSDACSB3407:
	.uleb128 .LEHB21-.LFB3407
	.uleb128 .LEHE21-.LEHB21
	.uleb128 .L232-.LFB3407
	.uleb128 0
	.uleb128 .LEHB22-.LFB3407
	.uleb128 .LEHE22-.LEHB22
	.uleb128 .L233-.LFB3407
	.uleb128 0
	.uleb128 .LEHB23-.LFB3407
	.uleb128 .LEHE23-.LEHB23
	.uleb128 .L231-.LFB3407
	.uleb128 0
	.uleb128 .LEHB24-.LFB3407
	.uleb128 .LEHE24-.LEHB24
	.uleb128 .L234-.LFB3407
	.uleb128 0
	.uleb128 .LEHB25-.LFB3407
	.uleb128 .LEHE25-.LEHB25
	.uleb128 0
	.uleb128 0
.LLSDACSE3407:
	.section	.text._ZN8asiodnp318PrintingSOEHandler13ValueToStringIN8opendnp37CounterEEENSt7__cxx1112basic_stringIcSt11char_traitsIcESaIcEEERKT_,"axG",@progbits,_ZN8asiodnp318PrintingSOEHandler13ValueToStringIN8opendnp37CounterEEENSt7__cxx1112basic_stringIcSt11char_traitsIcESaIcEEERKT_,comdat
	.size	_ZN8asiodnp318PrintingSOEHandler13ValueToStringIN8opendnp37CounterEEENSt7__cxx1112basic_stringIcSt11char_traitsIcESaIcEEERKT_, .-_ZN8asiodnp318PrintingSOEHandler13ValueToStringIN8opendnp37CounterEEENSt7__cxx1112basic_stringIcSt11char_traitsIcESaIcEEERKT_
	.section	.text._ZN8opendnp314FunctorVisitorINS_7IndexedINS_7CounterEEEZN8asiodnp318PrintingSOEHandler8PrintAllIS2_EEvRKNS_10HeaderInfoERKNS_11ICollectionINS1_IT_EEEEEUlRKS3_E_E7OnValueESH_,"axG",@progbits,_ZN8opendnp314FunctorVisitorINS_7IndexedINS_7CounterEEEZN8asiodnp318PrintingSOEHandler8PrintAllIS2_EEvRKNS_10HeaderInfoERKNS_11ICollectionINS1_IT_EEEEEUlRKS3_E_E7OnValueESH_,comdat
	.align 2
	.p2align 4
	.weak	_ZN8opendnp314FunctorVisitorINS_7IndexedINS_7CounterEEEZN8asiodnp318PrintingSOEHandler8PrintAllIS2_EEvRKNS_10HeaderInfoERKNS_11ICollectionINS1_IT_EEEEEUlRKS3_E_E7OnValueESH_
	.type	_ZN8opendnp314FunctorVisitorINS_7IndexedINS_7CounterEEEZN8asiodnp318PrintingSOEHandler8PrintAllIS2_EEvRKNS_10HeaderInfoERKNS_11ICollectionINS1_IT_EEEEEUlRKS3_E_E7OnValueESH_, @function
_ZN8opendnp314FunctorVisitorINS_7IndexedINS_7CounterEEEZN8asiodnp318PrintingSOEHandler8PrintAllIS2_EEvRKNS_10HeaderInfoERKNS_11ICollectionINS1_IT_EEEEEUlRKS3_E_E7OnValueESH_:
.LFB3661:
	.cfi_startproc
	.cfi_personality 0x9b,DW.ref.__gxx_personality_v0
	.cfi_lsda 0x1b,.LLSDA3661
	endbr64
	pushq	%r12
	.cfi_def_cfa_offset 16
	.cfi_offset 12, -16
	movl	$1, %edx
	pushq	%rbp
	.cfi_def_cfa_offset 24
	.cfi_offset 6, -24
	pushq	%rbx
	.cfi_def_cfa_offset 32
	.cfi_offset 3, -32
	movq	%rsi, %rbx
	subq	$48, %rsp
	.cfi_def_cfa_offset 80
	movq	_ZSt4cout@GOTPCREL(%rip), %r12
	movzwl	24(%rsi), %ebp
	leaq	.LC0(%rip), %rsi
	movq	%fs:40, %rax
	movq	%rax, 40(%rsp)
	xorl	%eax, %eax
	movq	%r12, %rdi
.LEHB26:
	call	_ZSt16__ostream_insertIcSt11char_traitsIcEERSt13basic_ostreamIT_T0_ES6_PKS3_l@PLT
	movzwl	%bp, %esi
	movq	%r12, %rdi
	call	_ZNSo9_M_insertImEERSoT_@PLT
	movl	$4, %edx
	leaq	.LC1(%rip), %rsi
	movq	%rax, %rdi
	movq	%rax, %rbp
	call	_ZSt16__ostream_insertIcSt11char_traitsIcEERSt13basic_ostreamIT_T0_ES6_PKS3_l@PLT
	movq	%rsp, %rdi
	movq	%rbx, %rsi
	call	_ZN8asiodnp318PrintingSOEHandler13ValueToStringIN8opendnp37CounterEEENSt7__cxx1112basic_stringIcSt11char_traitsIcESaIcEEERKT_@PLT
.LEHE26:
	movq	8(%rsp), %rdx
	movq	(%rsp), %rsi
	movq	%rbp, %rdi
.LEHB27:
	call	_ZSt16__ostream_insertIcSt11char_traitsIcEERSt13basic_ostreamIT_T0_ES6_PKS3_l@PLT
	leaq	.LC3(%rip), %r12
	movl	$3, %edx
	movq	%rax, %rdi
	movq	%rax, %rbp
	movq	%r12, %rsi
	call	_ZSt16__ostream_insertIcSt11char_traitsIcEERSt13basic_ostreamIT_T0_ES6_PKS3_l@PLT
	movzbl	(%rbx), %esi
	movq	%rbp, %rdi
	call	_ZNSolsEi@PLT
	movl	$3, %edx
	movq	%r12, %rsi
	movq	%rax, %rdi
	movq	%rax, %rbp
	call	_ZSt16__ostream_insertIcSt11char_traitsIcEERSt13basic_ostreamIT_T0_ES6_PKS3_l@PLT
	movq	8(%rbx), %rsi
	movq	%rbp, %rdi
	call	_ZNSo9_M_insertIlEERSoT_@PLT
	movq	%rax, %rbp
	movq	(%rax), %rax
	movq	-24(%rax), %rax
	movq	240(%rbp,%rax), %r12
	testq	%r12, %r12
	je	.L254
	cmpb	$0, 56(%r12)
	je	.L245
	movsbl	67(%r12), %esi
.L246:
	movq	%rbp, %rdi
	call	_ZNSo3putEc@PLT
	movq	%rax, %rdi
	call	_ZNSo5flushEv@PLT
	movq	(%rsp), %rdi
	leaq	16(%rsp), %rax
	cmpq	%rax, %rdi
	je	.L243
	movq	16(%rsp), %rax
	leaq	1(%rax), %rsi
	call	_ZdlPvm@PLT
.L243:
	movq	40(%rsp), %rax
	subq	%fs:40, %rax
	jne	.L255
	addq	$48, %rsp
	.cfi_remember_state
	.cfi_def_cfa_offset 32
	popq	%rbx
	.cfi_def_cfa_offset 24
	popq	%rbp
	.cfi_def_cfa_offset 16
	popq	%r12
	.cfi_def_cfa_offset 8
	ret
	.p2align 4,,10
	.p2align 3
.L245:
	.cfi_restore_state
	movq	%r12, %rdi
	call	_ZNKSt5ctypeIcE13_M_widen_initEv@PLT
	movq	(%r12), %rax
	movl	$10, %esi
	movq	48(%rax), %rax
	cmpq	_ZNKSt5ctypeIcE8do_widenEc@GOTPCREL(%rip), %rax
	je	.L246
	movq	%r12, %rdi
	call	*%rax
	movsbl	%al, %esi
	jmp	.L246
.L255:
	call	__stack_chk_fail@PLT
.L254:
	call	_ZSt16__throw_bad_castv@PLT
.LEHE27:
.L252:
	endbr64
	movq	%rax, %rbp
.L248:
	movq	(%rsp), %rdi
	leaq	16(%rsp), %rax
	cmpq	%rax, %rdi
	je	.L249
	movq	16(%rsp), %rax
	leaq	1(%rax), %rsi
	call	_ZdlPvm@PLT
.L249:
	movq	%rbp, %rdi
.LEHB28:
	call	_Unwind_Resume@PLT
.LEHE28:
	.cfi_endproc
.LFE3661:
	.section	.gcc_except_table._ZN8opendnp314FunctorVisitorINS_7IndexedINS_7CounterEEEZN8asiodnp318PrintingSOEHandler8PrintAllIS2_EEvRKNS_10HeaderInfoERKNS_11ICollectionINS1_IT_EEEEEUlRKS3_E_E7OnValueESH_,"aG",@progbits,_ZN8opendnp314FunctorVisitorINS_7IndexedINS_7CounterEEEZN8asiodnp318PrintingSOEHandler8PrintAllIS2_EEvRKNS_10HeaderInfoERKNS_11ICollectionINS1_IT_EEEEEUlRKS3_E_E7OnValueESH_,comdat
.LLSDA3661:
	.byte	0xff
	.byte	0xff
	.byte	0x1
	.uleb128 .LLSDACSE3661-.LLSDACSB3661
.LLSDACSB3661:
	.uleb128 .LEHB26-.LFB3661
	.uleb128 .LEHE26-.LEHB26
	.uleb128 0
	.uleb128 0
	.uleb128 .LEHB27-.LFB3661
	.uleb128 .LEHE27-.LEHB27
	.uleb128 .L252-.LFB3661
	.uleb128 0
	.uleb128 .LEHB28-.LFB3661
	.uleb128 .LEHE28-.LEHB28
	.uleb128 0
	.uleb128 0
.LLSDACSE3661:
	.section	.text._ZN8opendnp314FunctorVisitorINS_7IndexedINS_7CounterEEEZN8asiodnp318PrintingSOEHandler8PrintAllIS2_EEvRKNS_10HeaderInfoERKNS_11ICollectionINS1_IT_EEEEEUlRKS3_E_E7OnValueESH_,"axG",@progbits,_ZN8opendnp314FunctorVisitorINS_7IndexedINS_7CounterEEEZN8asiodnp318PrintingSOEHandler8PrintAllIS2_EEvRKNS_10HeaderInfoERKNS_11ICollectionINS1_IT_EEEEEUlRKS3_E_E7OnValueESH_,comdat
	.size	_ZN8opendnp314FunctorVisitorINS_7IndexedINS_7CounterEEEZN8asiodnp318PrintingSOEHandler8PrintAllIS2_EEvRKNS_10HeaderInfoERKNS_11ICollectionINS1_IT_EEEEEUlRKS3_E_E7OnValueESH_, .-_ZN8opendnp314FunctorVisitorINS_7IndexedINS_7CounterEEEZN8asiodnp318PrintingSOEHandler8PrintAllIS2_EEvRKNS_10HeaderInfoERKNS_11ICollectionINS1_IT_EEEEEUlRKS3_E_E7OnValueESH_
	.section	.text._ZN8asiodnp318PrintingSOEHandler13ValueToStringIN8opendnp313FrozenCounterEEENSt7__cxx1112basic_stringIcSt11char_traitsIcESaIcEEERKT_,"axG",@progbits,_ZN8asiodnp318PrintingSOEHandler13ValueToStringIN8opendnp313FrozenCounterEEENSt7__cxx1112basic_stringIcSt11char_traitsIcESaIcEEERKT_,comdat
	.p2align 4
	.weak	_ZN8asiodnp318PrintingSOEHandler13ValueToStringIN8opendnp313FrozenCounterEEENSt7__cxx1112basic_stringIcSt11char_traitsIcESaIcEEERKT_
	.type	_ZN8asiodnp318PrintingSOEHandler13ValueToStringIN8opendnp313FrozenCounterEEENSt7__cxx1112basic_stringIcSt11char_traitsIcESaIcEEERKT_, @function
_ZN8asiodnp318PrintingSOEHandler13ValueToStringIN8opendnp313FrozenCounterEEENSt7__cxx1112basic_stringIcSt11char_traitsIcESaIcEEERKT_:
.LFB3414:
	.cfi_startproc
	.cfi_personality 0x9b,DW.ref.__gxx_personality_v0
	.cfi_lsda 0x1b,.LLSDA3414
	endbr64
	pushq	%r15
	.cfi_def_cfa_offset 16
	.cfi_offset 15, -16
	pushq	%r14
	.cfi_def_cfa_offset 24
	.cfi_offset 14, -24
	pushq	%r13
	.cfi_def_cfa_offset 32
	.cfi_offset 13, -32
	pushq	%r12
	.cfi_def_cfa_offset 40
	.cfi_offset 12, -40
	movq	%rdi, %r12
	pushq	%rbp
	.cfi_def_cfa_offset 48
	.cfi_offset 6, -48
	pushq	%rbx
	.cfi_def_cfa_offset 56
	.cfi_offset 3, -56
	subq	$456, %rsp
	.cfi_def_cfa_offset 512
	movq	_ZTVNSt7__cxx1115basic_stringbufIcSt11char_traitsIcESaIcEEE@GOTPCREL(%rip), %r15
	movq	%rsi, 56(%rsp)
	leaq	176(%rsp), %rbp
	leaq	64(%rsp), %r14
	movq	%rbp, %rdi
	movq	%fs:40, %rax
	movq	%rax, 440(%rsp)
	movq	_ZTVNSt7__cxx1119basic_ostringstreamIcSt11char_traitsIcESaIcEEE@GOTPCREL(%rip), %rax
	movq	%r14, 48(%rsp)
	addq	$24, %rax
	movq	%rax, %xmm0
	leaq	16(%r15), %rax
	movq	%rax, %xmm3
	movq	_ZTVSt15basic_streambufIcSt11char_traitsIcEE@GOTPCREL(%rip), %rax
	movdqa	%xmm0, %xmm1
	movdqa	%xmm0, %xmm2
	punpcklqdq	%xmm3, %xmm1
	addq	$16, %rax
	movaps	%xmm1, 16(%rsp)
	movq	%rax, %xmm4
	punpcklqdq	%xmm4, %xmm2
	movaps	%xmm2, 32(%rsp)
	call	_ZNSt8ios_baseC2Ev@PLT
	movq	_ZTVSt9basic_iosIcSt11char_traitsIcEE@GOTPCREL(%rip), %rax
	pxor	%xmm0, %xmm0
	xorl	%esi, %esi
	movups	%xmm0, 408(%rsp)
	addq	$16, %rax
	movups	%xmm0, 424(%rsp)
	movq	%rax, 176(%rsp)
	xorl	%eax, %eax
	movw	%ax, 400(%rsp)
	movq	_ZTTNSt7__cxx1119basic_ostringstreamIcSt11char_traitsIcESaIcEEE@GOTPCREL(%rip), %rax
	movq	$0, 392(%rsp)
	movq	8(%rax), %rbx
	movq	16(%rax), %rax
	movq	-24(%rbx), %rdi
	movq	%rbx, 64(%rsp)
	movq	%rax, 8(%rsp)
	addq	%r14, %rdi
	movq	%rax, (%rdi)
.LEHB29:
	call	_ZNSt9basic_iosIcSt11char_traitsIcEE4initEPSt15basic_streambufIcS1_E@PLT
.LEHE29:
	movq	_ZTVNSt7__cxx1119basic_ostringstreamIcSt11char_traitsIcESaIcEEE@GOTPCREL(%rip), %rax
	movdqa	32(%rsp), %xmm2
	pxor	%xmm0, %xmm0
	leaq	128(%rsp), %r14
	movq	%r14, %rdi
	leaq	72(%rsp), %r13
	movaps	%xmm0, 80(%rsp)
	addq	$64, %rax
	movaps	%xmm2, 64(%rsp)
	movq	%rax, 176(%rsp)
	movaps	%xmm0, 96(%rsp)
	movaps	%xmm0, 112(%rsp)
	call	_ZNSt6localeC1Ev@PLT
	leaq	16(%r15), %rax
	movq	%r13, %rsi
	movq	%rbp, %rdi
	leaq	160(%rsp), %r15
	movq	%rax, 72(%rsp)
	movl	$16, 136(%rsp)
	movq	%r15, 144(%rsp)
	movq	$0, 152(%rsp)
	movb	$0, 160(%rsp)
.LEHB30:
	call	_ZNSt9basic_iosIcSt11char_traitsIcEE4initEPSt15basic_streambufIcS1_E@PLT
.LEHE30:
	movq	56(%rsp), %rax
	movq	48(%rsp), %rdi
	movl	16(%rax), %esi
.LEHB31:
	call	_ZNSo9_M_insertImEERSoT_@PLT
.LEHE31:
	movq	112(%rsp), %rax
	leaq	16(%r12), %r13
	movq	$0, 8(%r12)
	movq	%r13, (%r12)
	movb	$0, 16(%r12)
	testq	%rax, %rax
	je	.L260
	movq	96(%rsp), %r8
	testq	%r8, %r8
	je	.L274
	cmpq	%r8, %rax
	ja	.L274
.L261:
	movq	104(%rsp), %rcx
	xorl	%edx, %edx
	xorl	%esi, %esi
	movq	%r12, %rdi
	subq	%rcx, %r8
.LEHB32:
	call	_ZNSt7__cxx1112basic_stringIcSt11char_traitsIcESaIcEE10_M_replaceEmmPKcm@PLT
.L265:
	movq	_ZTVNSt7__cxx1119basic_ostringstreamIcSt11char_traitsIcESaIcEEE@GOTPCREL(%rip), %rax
	movdqa	16(%rsp), %xmm5
	movq	144(%rsp), %rdi
	addq	$64, %rax
	movaps	%xmm5, 64(%rsp)
	movq	%rax, 176(%rsp)
	cmpq	%r15, %rdi
	je	.L264
	movq	160(%rsp), %rax
	leaq	1(%rax), %rsi
	call	_ZdlPvm@PLT
.L264:
	movq	_ZTVSt15basic_streambufIcSt11char_traitsIcEE@GOTPCREL(%rip), %rax
	movq	%r14, %rdi
	addq	$16, %rax
	movq	%rax, 72(%rsp)
	call	_ZNSt6localeD1Ev@PLT
	movq	-24(%rbx), %rax
	movq	8(%rsp), %rdx
	movq	%rbp, %rdi
	movq	%rbx, 64(%rsp)
	movq	%rdx, 64(%rsp,%rax)
	movq	_ZTVSt9basic_iosIcSt11char_traitsIcEE@GOTPCREL(%rip), %rax
	addq	$16, %rax
	movq	%rax, 176(%rsp)
	call	_ZNSt8ios_baseD2Ev@PLT
	movq	440(%rsp), %rax
	subq	%fs:40, %rax
	jne	.L281
	addq	$456, %rsp
	.cfi_remember_state
	.cfi_def_cfa_offset 56
	movq	%r12, %rax
	popq	%rbx
	.cfi_def_cfa_offset 48
	popq	%rbp
	.cfi_def_cfa_offset 40
	popq	%r12
	.cfi_def_cfa_offset 32
	popq	%r13
	.cfi_def_cfa_offset 24
	popq	%r14
	.cfi_def_cfa_offset 16
	popq	%r15
	.cfi_def_cfa_offset 8
	ret
	.p2align 4,,10
	.p2align 3
.L274:
	.cfi_restore_state
	movq	%rax, %r8
	jmp	.L261
	.p2align 4,,10
	.p2align 3
.L260:
	leaq	144(%rsp), %rsi
	movq	%r12, %rdi
	call	_ZNSt7__cxx1112basic_stringIcSt11char_traitsIcESaIcEE9_M_assignERKS4_@PLT
.LEHE32:
	jmp	.L265
.L281:
	call	__stack_chk_fail@PLT
.L270:
	endbr64
	movq	%rax, %rbp
	jmp	.L268
.L273:
	endbr64
	movq	%rax, %rbp
.L266:
	movq	(%r12), %rdi
	cmpq	%rdi, %r13
	je	.L268
	movq	16(%r12), %rsi
	addq	$1, %rsi
	call	_ZdlPvm@PLT
.L268:
	movq	48(%rsp), %rdi
	call	_ZNSt7__cxx1119basic_ostringstreamIcSt11char_traitsIcESaIcEED1Ev@PLT
	movq	%rbp, %rdi
.LEHB33:
	call	_Unwind_Resume@PLT
.L272:
	endbr64
	movq	%rax, %r12
	jmp	.L258
.L271:
	endbr64
	movq	%rax, %r12
	jmp	.L259
.L258:
	movq	%r13, %rdi
	call	_ZNSt7__cxx1115basic_stringbufIcSt11char_traitsIcESaIcEED1Ev@PLT
	movq	-24(%rbx), %rax
	movq	8(%rsp), %rdx
	movq	%rbx, 64(%rsp)
	movq	%rdx, 64(%rsp,%rax)
.L259:
	movq	_ZTVSt9basic_iosIcSt11char_traitsIcEE@GOTPCREL(%rip), %rax
	movq	%rbp, %rdi
	addq	$16, %rax
	movq	%rax, 176(%rsp)
	call	_ZNSt8ios_baseD2Ev@PLT
	movq	%r12, %rdi
	call	_Unwind_Resume@PLT
.LEHE33:
	.cfi_endproc
.LFE3414:
	.section	.gcc_except_table._ZN8asiodnp318PrintingSOEHandler13ValueToStringIN8opendnp313FrozenCounterEEENSt7__cxx1112basic_stringIcSt11char_traitsIcESaIcEEERKT_,"aG",@progbits,_ZN8asiodnp318PrintingSOEHandler13ValueToStringIN8opendnp313FrozenCounterEEENSt7__cxx1112basic_stringIcSt11char_traitsIcESaIcEEERKT_,comdat
.LLSDA3414:
	.byte	0xff
	.byte	0xff
	.byte	0x1
	.uleb128 .LLSDACSE3414-.LLSDACSB3414
.LLSDACSB3414:
	.uleb128 .LEHB29-.LFB3414
	.uleb128 .LEHE29-.LEHB29
	.uleb128 .L271-.LFB3414
	.uleb128 0
	.uleb128 .LEHB30-.LFB3414
	.uleb128 .LEHE30-.LEHB30
	.uleb128 .L272-.LFB3414
	.uleb128 0
	.uleb128 .LEHB31-.LFB3414
	.uleb128 .LEHE31-.LEHB31
	.uleb128 .L270-.LFB3414
	.uleb128 0
	.uleb128 .LEHB32-.LFB3414
	.uleb128 .LEHE32-.LEHB32
	.uleb128 .L273-.LFB3414
	.uleb128 0
	.uleb128 .LEHB33-.LFB3414
	.uleb128 .LEHE33-.LEHB33
	.uleb128 0
	.uleb128 0
.LLSDACSE3414:
	.section	.text._ZN8asiodnp318PrintingSOEHandler13ValueToStringIN8opendnp313FrozenCounterEEENSt7__cxx1112basic_stringIcSt11char_traitsIcESaIcEEERKT_,"axG",@progbits,_ZN8asiodnp318PrintingSOEHandler13ValueToStringIN8opendnp313FrozenCounterEEENSt7__cxx1112basic_stringIcSt11char_traitsIcESaIcEEERKT_,comdat
	.size	_ZN8asiodnp318PrintingSOEHandler13ValueToStringIN8opendnp313FrozenCounterEEENSt7__cxx1112basic_stringIcSt11char_traitsIcESaIcEEERKT_, .-_ZN8asiodnp318PrintingSOEHandler13ValueToStringIN8opendnp313FrozenCounterEEENSt7__cxx1112basic_stringIcSt11char_traitsIcESaIcEEERKT_
	.section	.text._ZN8opendnp314FunctorVisitorINS_7IndexedINS_13FrozenCounterEEEZN8asiodnp318PrintingSOEHandler8PrintAllIS2_EEvRKNS_10HeaderInfoERKNS_11ICollectionINS1_IT_EEEEEUlRKS3_E_E7OnValueESH_,"axG",@progbits,_ZN8opendnp314FunctorVisitorINS_7IndexedINS_13FrozenCounterEEEZN8asiodnp318PrintingSOEHandler8PrintAllIS2_EEvRKNS_10HeaderInfoERKNS_11ICollectionINS1_IT_EEEEEUlRKS3_E_E7OnValueESH_,comdat
	.align 2
	.p2align 4
	.weak	_ZN8opendnp314FunctorVisitorINS_7IndexedINS_13FrozenCounterEEEZN8asiodnp318PrintingSOEHandler8PrintAllIS2_EEvRKNS_10HeaderInfoERKNS_11ICollectionINS1_IT_EEEEEUlRKS3_E_E7OnValueESH_
	.type	_ZN8opendnp314FunctorVisitorINS_7IndexedINS_13FrozenCounterEEEZN8asiodnp318PrintingSOEHandler8PrintAllIS2_EEvRKNS_10HeaderInfoERKNS_11ICollectionINS1_IT_EEEEEUlRKS3_E_E7OnValueESH_, @function
_ZN8opendnp314FunctorVisitorINS_7IndexedINS_13FrozenCounterEEEZN8asiodnp318PrintingSOEHandler8PrintAllIS2_EEvRKNS_10HeaderInfoERKNS_11ICollectionINS1_IT_EEEEEUlRKS3_E_E7OnValueESH_:
.LFB3660:
	.cfi_startproc
	.cfi_personality 0x9b,DW.ref.__gxx_personality_v0
	.cfi_lsda 0x1b,.LLSDA3660
	endbr64
	pushq	%r12
	.cfi_def_cfa_offset 16
	.cfi_offset 12, -16
	movl	$1, %edx
	pushq	%rbp
	.cfi_def_cfa_offset 24
	.cfi_offset 6, -24
	pushq	%rbx
	.cfi_def_cfa_offset 32
	.cfi_offset 3, -32
	movq	%rsi, %rbx
	subq	$48, %rsp
	.cfi_def_cfa_offset 80
	movq	_ZSt4cout@GOTPCREL(%rip), %r12
	movzwl	24(%rsi), %ebp
	leaq	.LC0(%rip), %rsi
	movq	%fs:40, %rax
	movq	%rax, 40(%rsp)
	xorl	%eax, %eax
	movq	%r12, %rdi
.LEHB34:
	call	_ZSt16__ostream_insertIcSt11char_traitsIcEERSt13basic_ostreamIT_T0_ES6_PKS3_l@PLT
	movzwl	%bp, %esi
	movq	%r12, %rdi
	call	_ZNSo9_M_insertImEERSoT_@PLT
	movl	$4, %edx
	leaq	.LC1(%rip), %rsi
	movq	%rax, %rdi
	movq	%rax, %rbp
	call	_ZSt16__ostream_insertIcSt11char_traitsIcEERSt13basic_ostreamIT_T0_ES6_PKS3_l@PLT
	movq	%rsp, %rdi
	movq	%rbx, %rsi
	call	_ZN8asiodnp318PrintingSOEHandler13ValueToStringIN8opendnp313FrozenCounterEEENSt7__cxx1112basic_stringIcSt11char_traitsIcESaIcEEERKT_@PLT
.LEHE34:
	movq	8(%rsp), %rdx
	movq	(%rsp), %rsi
	movq	%rbp, %rdi
.LEHB35:
	call	_ZSt16__ostream_insertIcSt11char_traitsIcEERSt13basic_ostreamIT_T0_ES6_PKS3_l@PLT
	leaq	.LC3(%rip), %r12
	movl	$3, %edx
	movq	%rax, %rdi
	movq	%rax, %rbp
	movq	%r12, %rsi
	call	_ZSt16__ostream_insertIcSt11char_traitsIcEERSt13basic_ostreamIT_T0_ES6_PKS3_l@PLT
	movzbl	(%rbx), %esi
	movq	%rbp, %rdi
	call	_ZNSolsEi@PLT
	movl	$3, %edx
	movq	%r12, %rsi
	movq	%rax, %rdi
	movq	%rax, %rbp
	call	_ZSt16__ostream_insertIcSt11char_traitsIcEERSt13basic_ostreamIT_T0_ES6_PKS3_l@PLT
	movq	8(%rbx), %rsi
	movq	%rbp, %rdi
	call	_ZNSo9_M_insertIlEERSoT_@PLT
	movq	%rax, %rbp
	movq	(%rax), %rax
	movq	-24(%rax), %rax
	movq	240(%rbp,%rax), %r12
	testq	%r12, %r12
	je	.L293
	cmpb	$0, 56(%r12)
	je	.L284
	movsbl	67(%r12), %esi
.L285:
	movq	%rbp, %rdi
	call	_ZNSo3putEc@PLT
	movq	%rax, %rdi
	call	_ZNSo5flushEv@PLT
	movq	(%rsp), %rdi
	leaq	16(%rsp), %rax
	cmpq	%rax, %rdi
	je	.L282
	movq	16(%rsp), %rax
	leaq	1(%rax), %rsi
	call	_ZdlPvm@PLT
.L282:
	movq	40(%rsp), %rax
	subq	%fs:40, %rax
	jne	.L294
	addq	$48, %rsp
	.cfi_remember_state
	.cfi_def_cfa_offset 32
	popq	%rbx
	.cfi_def_cfa_offset 24
	popq	%rbp
	.cfi_def_cfa_offset 16
	popq	%r12
	.cfi_def_cfa_offset 8
	ret
	.p2align 4,,10
	.p2align 3
.L284:
	.cfi_restore_state
	movq	%r12, %rdi
	call	_ZNKSt5ctypeIcE13_M_widen_initEv@PLT
	movq	(%r12), %rax
	movl	$10, %esi
	movq	48(%rax), %rax
	cmpq	_ZNKSt5ctypeIcE8do_widenEc@GOTPCREL(%rip), %rax
	je	.L285
	movq	%r12, %rdi
	call	*%rax
	movsbl	%al, %esi
	jmp	.L285
.L294:
	call	__stack_chk_fail@PLT
.L293:
	call	_ZSt16__throw_bad_castv@PLT
.LEHE35:
.L291:
	endbr64
	movq	%rax, %rbp
.L287:
	movq	(%rsp), %rdi
	leaq	16(%rsp), %rax
	cmpq	%rax, %rdi
	je	.L288
	movq	16(%rsp), %rax
	leaq	1(%rax), %rsi
	call	_ZdlPvm@PLT
.L288:
	movq	%rbp, %rdi
.LEHB36:
	call	_Unwind_Resume@PLT
.LEHE36:
	.cfi_endproc
.LFE3660:
	.section	.gcc_except_table._ZN8opendnp314FunctorVisitorINS_7IndexedINS_13FrozenCounterEEEZN8asiodnp318PrintingSOEHandler8PrintAllIS2_EEvRKNS_10HeaderInfoERKNS_11ICollectionINS1_IT_EEEEEUlRKS3_E_E7OnValueESH_,"aG",@progbits,_ZN8opendnp314FunctorVisitorINS_7IndexedINS_13FrozenCounterEEEZN8asiodnp318PrintingSOEHandler8PrintAllIS2_EEvRKNS_10HeaderInfoERKNS_11ICollectionINS1_IT_EEEEEUlRKS3_E_E7OnValueESH_,comdat
.LLSDA3660:
	.byte	0xff
	.byte	0xff
	.byte	0x1
	.uleb128 .LLSDACSE3660-.LLSDACSB3660
.LLSDACSB3660:
	.uleb128 .LEHB34-.LFB3660
	.uleb128 .LEHE34-.LEHB34
	.uleb128 0
	.uleb128 0
	.uleb128 .LEHB35-.LFB3660
	.uleb128 .LEHE35-.LEHB35
	.uleb128 .L291-.LFB3660
	.uleb128 0
	.uleb128 .LEHB36-.LFB3660
	.uleb128 .LEHE36-.LEHB36
	.uleb128 0
	.uleb128 0
.LLSDACSE3660:
	.section	.text._ZN8opendnp314FunctorVisitorINS_7IndexedINS_13FrozenCounterEEEZN8asiodnp318PrintingSOEHandler8PrintAllIS2_EEvRKNS_10HeaderInfoERKNS_11ICollectionINS1_IT_EEEEEUlRKS3_E_E7OnValueESH_,"axG",@progbits,_ZN8opendnp314FunctorVisitorINS_7IndexedINS_13FrozenCounterEEEZN8asiodnp318PrintingSOEHandler8PrintAllIS2_EEvRKNS_10HeaderInfoERKNS_11ICollectionINS1_IT_EEEEEUlRKS3_E_E7OnValueESH_,comdat
	.size	_ZN8opendnp314FunctorVisitorINS_7IndexedINS_13FrozenCounterEEEZN8asiodnp318PrintingSOEHandler8PrintAllIS2_EEvRKNS_10HeaderInfoERKNS_11ICollectionINS1_IT_EEEEEUlRKS3_E_E7OnValueESH_, .-_ZN8opendnp314FunctorVisitorINS_7IndexedINS_13FrozenCounterEEEZN8asiodnp318PrintingSOEHandler8PrintAllIS2_EEvRKNS_10HeaderInfoERKNS_11ICollectionINS1_IT_EEEEEUlRKS3_E_E7OnValueESH_
	.section	.text._ZN8asiodnp318PrintingSOEHandler13ValueToStringIN8opendnp318BinaryOutputStatusEEENSt7__cxx1112basic_stringIcSt11char_traitsIcESaIcEEERKT_,"axG",@progbits,_ZN8asiodnp318PrintingSOEHandler13ValueToStringIN8opendnp318BinaryOutputStatusEEENSt7__cxx1112basic_stringIcSt11char_traitsIcESaIcEEERKT_,comdat
	.p2align 4
	.weak	_ZN8asiodnp318PrintingSOEHandler13ValueToStringIN8opendnp318BinaryOutputStatusEEENSt7__cxx1112basic_stringIcSt11char_traitsIcESaIcEEERKT_
	.type	_ZN8asiodnp318PrintingSOEHandler13ValueToStringIN8opendnp318BinaryOutputStatusEEENSt7__cxx1112basic_stringIcSt11char_traitsIcESaIcEEERKT_, @function
_ZN8asiodnp318PrintingSOEHandler13ValueToStringIN8opendnp318BinaryOutputStatusEEENSt7__cxx1112basic_stringIcSt11char_traitsIcESaIcEEERKT_:
.LFB3421:
	.cfi_startproc
	.cfi_personality 0x9b,DW.ref.__gxx_personality_v0
	.cfi_lsda 0x1b,.LLSDA3421
	endbr64
	pushq	%r15
	.cfi_def_cfa_offset 16
	.cfi_offset 15, -16
	pushq	%r14
	.cfi_def_cfa_offset 24
	.cfi_offset 14, -24
	pushq	%r13
	.cfi_def_cfa_offset 32
	.cfi_offset 13, -32
	pushq	%r12
	.cfi_def_cfa_offset 40
	.cfi_offset 12, -40
	movq	%rdi, %r12
	pushq	%rbp
	.cfi_def_cfa_offset 48
	.cfi_offset 6, -48
	pushq	%rbx
	.cfi_def_cfa_offset 56
	.cfi_offset 3, -56
	subq	$456, %rsp
	.cfi_def_cfa_offset 512
	movq	_ZTVNSt7__cxx1115basic_stringbufIcSt11char_traitsIcESaIcEEE@GOTPCREL(%rip), %r15
	movq	%rsi, 56(%rsp)
	leaq	176(%rsp), %rbp
	leaq	64(%rsp), %r14
	movq	%rbp, %rdi
	movq	%fs:40, %rax
	movq	%rax, 440(%rsp)
	movq	_ZTVNSt7__cxx1119basic_ostringstreamIcSt11char_traitsIcESaIcEEE@GOTPCREL(%rip), %rax
	movq	%r14, 48(%rsp)
	addq	$24, %rax
	movq	%rax, %xmm0
	leaq	16(%r15), %rax
	movq	%rax, %xmm3
	movq	_ZTVSt15basic_streambufIcSt11char_traitsIcEE@GOTPCREL(%rip), %rax
	movdqa	%xmm0, %xmm1
	movdqa	%xmm0, %xmm2
	punpcklqdq	%xmm3, %xmm1
	addq	$16, %rax
	movaps	%xmm1, 16(%rsp)
	movq	%rax, %xmm4
	punpcklqdq	%xmm4, %xmm2
	movaps	%xmm2, 32(%rsp)
	call	_ZNSt8ios_baseC2Ev@PLT
	movq	_ZTVSt9basic_iosIcSt11char_traitsIcEE@GOTPCREL(%rip), %rax
	pxor	%xmm0, %xmm0
	xorl	%esi, %esi
	movups	%xmm0, 408(%rsp)
	addq	$16, %rax
	movups	%xmm0, 424(%rsp)
	movq	%rax, 176(%rsp)
	xorl	%eax, %eax
	movw	%ax, 400(%rsp)
	movq	_ZTTNSt7__cxx1119basic_ostringstreamIcSt11char_traitsIcESaIcEEE@GOTPCREL(%rip), %rax
	movq	$0, 392(%rsp)
	movq	8(%rax), %rbx
	movq	16(%rax), %rax
	movq	-24(%rbx), %rdi
	movq	%rbx, 64(%rsp)
	movq	%rax, 8(%rsp)
	addq	%r14, %rdi
	movq	%rax, (%rdi)
.LEHB37:
	call	_ZNSt9basic_iosIcSt11char_traitsIcEE4initEPSt15basic_streambufIcS1_E@PLT
.LEHE37:
	movq	_ZTVNSt7__cxx1119basic_ostringstreamIcSt11char_traitsIcESaIcEEE@GOTPCREL(%rip), %rax
	movdqa	32(%rsp), %xmm2
	pxor	%xmm0, %xmm0
	leaq	128(%rsp), %r14
	movq	%r14, %rdi
	leaq	72(%rsp), %r13
	movaps	%xmm0, 80(%rsp)
	addq	$64, %rax
	movaps	%xmm2, 64(%rsp)
	movq	%rax, 176(%rsp)
	movaps	%xmm0, 96(%rsp)
	movaps	%xmm0, 112(%rsp)
	call	_ZNSt6localeC1Ev@PLT
	leaq	16(%r15), %rax
	movq	%r13, %rsi
	movq	%rbp, %rdi
	leaq	160(%rsp), %r15
	movq	%rax, 72(%rsp)
	movl	$16, 136(%rsp)
	movq	%r15, 144(%rsp)
	movq	$0, 152(%rsp)
	movb	$0, 160(%rsp)
.LEHB38:
	call	_ZNSt9basic_iosIcSt11char_traitsIcEE4initEPSt15basic_streambufIcS1_E@PLT
.LEHE38:
	movq	56(%rsp), %rax
	movq	48(%rsp), %rdi
	movzbl	16(%rax), %esi
.LEHB39:
	call	_ZNSo9_M_insertIbEERSoT_@PLT
.LEHE39:
	movq	112(%rsp), %rax
	leaq	16(%r12), %r13
	movq	$0, 8(%r12)
	movq	%r13, (%r12)
	movb	$0, 16(%r12)
	testq	%rax, %rax
	je	.L299
	movq	96(%rsp), %r8
	testq	%r8, %r8
	je	.L313
	cmpq	%r8, %rax
	ja	.L313
.L300:
	movq	104(%rsp), %rcx
	xorl	%edx, %edx
	xorl	%esi, %esi
	movq	%r12, %rdi
	subq	%rcx, %r8
.LEHB40:
	call	_ZNSt7__cxx1112basic_stringIcSt11char_traitsIcESaIcEE10_M_replaceEmmPKcm@PLT
.L304:
	movq	_ZTVNSt7__cxx1119basic_ostringstreamIcSt11char_traitsIcESaIcEEE@GOTPCREL(%rip), %rax
	movdqa	16(%rsp), %xmm5
	movq	144(%rsp), %rdi
	addq	$64, %rax
	movaps	%xmm5, 64(%rsp)
	movq	%rax, 176(%rsp)
	cmpq	%r15, %rdi
	je	.L303
	movq	160(%rsp), %rax
	leaq	1(%rax), %rsi
	call	_ZdlPvm@PLT
.L303:
	movq	_ZTVSt15basic_streambufIcSt11char_traitsIcEE@GOTPCREL(%rip), %rax
	movq	%r14, %rdi
	addq	$16, %rax
	movq	%rax, 72(%rsp)
	call	_ZNSt6localeD1Ev@PLT
	movq	-24(%rbx), %rax
	movq	8(%rsp), %rdx
	movq	%rbp, %rdi
	movq	%rbx, 64(%rsp)
	movq	%rdx, 64(%rsp,%rax)
	movq	_ZTVSt9basic_iosIcSt11char_traitsIcEE@GOTPCREL(%rip), %rax
	addq	$16, %rax
	movq	%rax, 176(%rsp)
	call	_ZNSt8ios_baseD2Ev@PLT
	movq	440(%rsp), %rax
	subq	%fs:40, %rax
	jne	.L320
	addq	$456, %rsp
	.cfi_remember_state
	.cfi_def_cfa_offset 56
	movq	%r12, %rax
	popq	%rbx
	.cfi_def_cfa_offset 48
	popq	%rbp
	.cfi_def_cfa_offset 40
	popq	%r12
	.cfi_def_cfa_offset 32
	popq	%r13
	.cfi_def_cfa_offset 24
	popq	%r14
	.cfi_def_cfa_offset 16
	popq	%r15
	.cfi_def_cfa_offset 8
	ret
	.p2align 4,,10
	.p2align 3
.L313:
	.cfi_restore_state
	movq	%rax, %r8
	jmp	.L300
	.p2align 4,,10
	.p2align 3
.L299:
	leaq	144(%rsp), %rsi
	movq	%r12, %rdi
	call	_ZNSt7__cxx1112basic_stringIcSt11char_traitsIcESaIcEE9_M_assignERKS4_@PLT
.LEHE40:
	jmp	.L304
.L320:
	call	__stack_chk_fail@PLT
.L309:
	endbr64
	movq	%rax, %rbp
	jmp	.L307
.L312:
	endbr64
	movq	%rax, %rbp
.L305:
	movq	(%r12), %rdi
	cmpq	%rdi, %r13
	je	.L307
	movq	16(%r12), %rsi
	addq	$1, %rsi
	call	_ZdlPvm@PLT
.L307:
	movq	48(%rsp), %rdi
	call	_ZNSt7__cxx1119basic_ostringstreamIcSt11char_traitsIcESaIcEED1Ev@PLT
	movq	%rbp, %rdi
.LEHB41:
	call	_Unwind_Resume@PLT
.L311:
	endbr64
	movq	%rax, %r12
	jmp	.L297
.L310:
	endbr64
	movq	%rax, %r12
	jmp	.L298
.L297:
	movq	%r13, %rdi
	call	_ZNSt7__cxx1115basic_stringbufIcSt11char_traitsIcESaIcEED1Ev@PLT
	movq	-24(%rbx), %rax
	movq	8(%rsp), %rdx
	movq	%rbx, 64(%rsp)
	movq	%rdx, 64(%rsp,%rax)
.L298:
	movq	_ZTVSt9basic_iosIcSt11char_traitsIcEE@GOTPCREL(%rip), %rax
	movq	%rbp, %rdi
	addq	$16, %rax
	movq	%rax, 176(%rsp)
	call	_ZNSt8ios_baseD2Ev@PLT
	movq	%r12, %rdi
	call	_Unwind_Resume@PLT
.LEHE41:
	.cfi_endproc
.LFE3421:
	.section	.gcc_except_table._ZN8asiodnp318PrintingSOEHandler13ValueToStringIN8opendnp318BinaryOutputStatusEEENSt7__cxx1112basic_stringIcSt11char_traitsIcESaIcEEERKT_,"aG",@progbits,_ZN8asiodnp318PrintingSOEHandler13ValueToStringIN8opendnp318BinaryOutputStatusEEENSt7__cxx1112basic_stringIcSt11char_traitsIcESaIcEEERKT_,comdat
.LLSDA3421:
	.byte	0xff
	.byte	0xff
	.byte	0x1
	.uleb128 .LLSDACSE3421-.LLSDACSB3421
.LLSDACSB3421:
	.uleb128 .LEHB37-.LFB3421
	.uleb128 .LEHE37-.LEHB37
	.uleb128 .L310-.LFB3421
	.uleb128 0
	.uleb128 .LEHB38-.LFB3421
	.uleb128 .LEHE38-.LEHB38
	.uleb128 .L311-.LFB3421
	.uleb128 0
	.uleb128 .LEHB39-.LFB3421
	.uleb128 .LEHE39-.LEHB39
	.uleb128 .L309-.LFB3421
	.uleb128 0
	.uleb128 .LEHB40-.LFB3421
	.uleb128 .LEHE40-.LEHB40
	.uleb128 .L312-.LFB3421
	.uleb128 0
	.uleb128 .LEHB41-.LFB3421
	.uleb128 .LEHE41-.LEHB41
	.uleb128 0
	.uleb128 0
.LLSDACSE3421:
	.section	.text._ZN8asiodnp318PrintingSOEHandler13ValueToStringIN8opendnp318BinaryOutputStatusEEENSt7__cxx1112basic_stringIcSt11char_traitsIcESaIcEEERKT_,"axG",@progbits,_ZN8asiodnp318PrintingSOEHandler13ValueToStringIN8opendnp318BinaryOutputStatusEEENSt7__cxx1112basic_stringIcSt11char_traitsIcESaIcEEERKT_,comdat
	.size	_ZN8asiodnp318PrintingSOEHandler13ValueToStringIN8opendnp318BinaryOutputStatusEEENSt7__cxx1112basic_stringIcSt11char_traitsIcESaIcEEERKT_, .-_ZN8asiodnp318PrintingSOEHandler13ValueToStringIN8opendnp318BinaryOutputStatusEEENSt7__cxx1112basic_stringIcSt11char_traitsIcESaIcEEERKT_
	.section	.text._ZN8opendnp314FunctorVisitorINS_7IndexedINS_18BinaryOutputStatusEEEZN8asiodnp318PrintingSOEHandler8PrintAllIS2_EEvRKNS_10HeaderInfoERKNS_11ICollectionINS1_IT_EEEEEUlRKS3_E_E7OnValueESH_,"axG",@progbits,_ZN8opendnp314FunctorVisitorINS_7IndexedINS_18BinaryOutputStatusEEEZN8asiodnp318PrintingSOEHandler8PrintAllIS2_EEvRKNS_10HeaderInfoERKNS_11ICollectionINS1_IT_EEEEEUlRKS3_E_E7OnValueESH_,comdat
	.align 2
	.p2align 4
	.weak	_ZN8opendnp314FunctorVisitorINS_7IndexedINS_18BinaryOutputStatusEEEZN8asiodnp318PrintingSOEHandler8PrintAllIS2_EEvRKNS_10HeaderInfoERKNS_11ICollectionINS1_IT_EEEEEUlRKS3_E_E7OnValueESH_
	.type	_ZN8opendnp314FunctorVisitorINS_7IndexedINS_18BinaryOutputStatusEEEZN8asiodnp318PrintingSOEHandler8PrintAllIS2_EEvRKNS_10HeaderInfoERKNS_11ICollectionINS1_IT_EEEEEUlRKS3_E_E7OnValueESH_, @function
_ZN8opendnp314FunctorVisitorINS_7IndexedINS_18BinaryOutputStatusEEEZN8asiodnp318PrintingSOEHandler8PrintAllIS2_EEvRKNS_10HeaderInfoERKNS_11ICollectionINS1_IT_EEEEEUlRKS3_E_E7OnValueESH_:
.LFB3659:
	.cfi_startproc
	.cfi_personality 0x9b,DW.ref.__gxx_personality_v0
	.cfi_lsda 0x1b,.LLSDA3659
	endbr64
	pushq	%r12
	.cfi_def_cfa_offset 16
	.cfi_offset 12, -16
	movl	$1, %edx
	pushq	%rbp
	.cfi_def_cfa_offset 24
	.cfi_offset 6, -24
	pushq	%rbx
	.cfi_def_cfa_offset 32
	.cfi_offset 3, -32
	movq	%rsi, %rbx
	subq	$48, %rsp
	.cfi_def_cfa_offset 80
	movq	_ZSt4cout@GOTPCREL(%rip), %r12
	movzwl	24(%rsi), %ebp
	leaq	.LC0(%rip), %rsi
	movq	%fs:40, %rax
	movq	%rax, 40(%rsp)
	xorl	%eax, %eax
	movq	%r12, %rdi
.LEHB42:
	call	_ZSt16__ostream_insertIcSt11char_traitsIcEERSt13basic_ostreamIT_T0_ES6_PKS3_l@PLT
	movzwl	%bp, %esi
	movq	%r12, %rdi
	call	_ZNSo9_M_insertImEERSoT_@PLT
	movl	$4, %edx
	leaq	.LC1(%rip), %rsi
	movq	%rax, %rdi
	movq	%rax, %rbp
	call	_ZSt16__ostream_insertIcSt11char_traitsIcEERSt13basic_ostreamIT_T0_ES6_PKS3_l@PLT
	movq	%rsp, %rdi
	movq	%rbx, %rsi
	call	_ZN8asiodnp318PrintingSOEHandler13ValueToStringIN8opendnp318BinaryOutputStatusEEENSt7__cxx1112basic_stringIcSt11char_traitsIcESaIcEEERKT_@PLT
.LEHE42:
	movq	8(%rsp), %rdx
	movq	(%rsp), %rsi
	movq	%rbp, %rdi
.LEHB43:
	call	_ZSt16__ostream_insertIcSt11char_traitsIcEERSt13basic_ostreamIT_T0_ES6_PKS3_l@PLT
	leaq	.LC3(%rip), %r12
	movl	$3, %edx
	movq	%rax, %rdi
	movq	%rax, %rbp
	movq	%r12, %rsi
	call	_ZSt16__ostream_insertIcSt11char_traitsIcEERSt13basic_ostreamIT_T0_ES6_PKS3_l@PLT
	movzbl	(%rbx), %esi
	movq	%rbp, %rdi
	call	_ZNSolsEi@PLT
	movl	$3, %edx
	movq	%r12, %rsi
	movq	%rax, %rdi
	movq	%rax, %rbp
	call	_ZSt16__ostream_insertIcSt11char_traitsIcEERSt13basic_ostreamIT_T0_ES6_PKS3_l@PLT
	movq	8(%rbx), %rsi
	movq	%rbp, %rdi
	call	_ZNSo9_M_insertIlEERSoT_@PLT
	movq	%rax, %rbp
	movq	(%rax), %rax
	movq	-24(%rax), %rax
	movq	240(%rbp,%rax), %r12
	testq	%r12, %r12
	je	.L332
	cmpb	$0, 56(%r12)
	je	.L323
	movsbl	67(%r12), %esi
.L324:
	movq	%rbp, %rdi
	call	_ZNSo3putEc@PLT
	movq	%rax, %rdi
	call	_ZNSo5flushEv@PLT
	movq	(%rsp), %rdi
	leaq	16(%rsp), %rax
	cmpq	%rax, %rdi
	je	.L321
	movq	16(%rsp), %rax
	leaq	1(%rax), %rsi
	call	_ZdlPvm@PLT
.L321:
	movq	40(%rsp), %rax
	subq	%fs:40, %rax
	jne	.L333
	addq	$48, %rsp
	.cfi_remember_state
	.cfi_def_cfa_offset 32
	popq	%rbx
	.cfi_def_cfa_offset 24
	popq	%rbp
	.cfi_def_cfa_offset 16
	popq	%r12
	.cfi_def_cfa_offset 8
	ret
	.p2align 4,,10
	.p2align 3
.L323:
	.cfi_restore_state
	movq	%r12, %rdi
	call	_ZNKSt5ctypeIcE13_M_widen_initEv@PLT
	movq	(%r12), %rax
	movl	$10, %esi
	movq	48(%rax), %rax
	cmpq	_ZNKSt5ctypeIcE8do_widenEc@GOTPCREL(%rip), %rax
	je	.L324
	movq	%r12, %rdi
	call	*%rax
	movsbl	%al, %esi
	jmp	.L324
.L333:
	call	__stack_chk_fail@PLT
.L332:
	call	_ZSt16__throw_bad_castv@PLT
.LEHE43:
.L330:
	endbr64
	movq	%rax, %rbp
.L326:
	movq	(%rsp), %rdi
	leaq	16(%rsp), %rax
	cmpq	%rax, %rdi
	je	.L327
	movq	16(%rsp), %rax
	leaq	1(%rax), %rsi
	call	_ZdlPvm@PLT
.L327:
	movq	%rbp, %rdi
.LEHB44:
	call	_Unwind_Resume@PLT
.LEHE44:
	.cfi_endproc
.LFE3659:
	.section	.gcc_except_table._ZN8opendnp314FunctorVisitorINS_7IndexedINS_18BinaryOutputStatusEEEZN8asiodnp318PrintingSOEHandler8PrintAllIS2_EEvRKNS_10HeaderInfoERKNS_11ICollectionINS1_IT_EEEEEUlRKS3_E_E7OnValueESH_,"aG",@progbits,_ZN8opendnp314FunctorVisitorINS_7IndexedINS_18BinaryOutputStatusEEEZN8asiodnp318PrintingSOEHandler8PrintAllIS2_EEvRKNS_10HeaderInfoERKNS_11ICollectionINS1_IT_EEEEEUlRKS3_E_E7OnValueESH_,comdat
.LLSDA3659:
	.byte	0xff
	.byte	0xff
	.byte	0x1
	.uleb128 .LLSDACSE3659-.LLSDACSB3659
.LLSDACSB3659:
	.uleb128 .LEHB42-.LFB3659
	.uleb128 .LEHE42-.LEHB42
	.uleb128 0
	.uleb128 0
	.uleb128 .LEHB43-.LFB3659
	.uleb128 .LEHE43-.LEHB43
	.uleb128 .L330-.LFB3659
	.uleb128 0
	.uleb128 .LEHB44-.LFB3659
	.uleb128 .LEHE44-.LEHB44
	.uleb128 0
	.uleb128 0
.LLSDACSE3659:
	.section	.text._ZN8opendnp314FunctorVisitorINS_7IndexedINS_18BinaryOutputStatusEEEZN8asiodnp318PrintingSOEHandler8PrintAllIS2_EEvRKNS_10HeaderInfoERKNS_11ICollectionINS1_IT_EEEEEUlRKS3_E_E7OnValueESH_,"axG",@progbits,_ZN8opendnp314FunctorVisitorINS_7IndexedINS_18BinaryOutputStatusEEEZN8asiodnp318PrintingSOEHandler8PrintAllIS2_EEvRKNS_10HeaderInfoERKNS_11ICollectionINS1_IT_EEEEEUlRKS3_E_E7OnValueESH_,comdat
	.size	_ZN8opendnp314FunctorVisitorINS_7IndexedINS_18BinaryOutputStatusEEEZN8asiodnp318PrintingSOEHandler8PrintAllIS2_EEvRKNS_10HeaderInfoERKNS_11ICollectionINS1_IT_EEEEEUlRKS3_E_E7OnValueESH_, .-_ZN8opendnp314FunctorVisitorINS_7IndexedINS_18BinaryOutputStatusEEEZN8asiodnp318PrintingSOEHandler8PrintAllIS2_EEvRKNS_10HeaderInfoERKNS_11ICollectionINS1_IT_EEEEEUlRKS3_E_E7OnValueESH_
	.section	.text._ZN8asiodnp318PrintingSOEHandler13ValueToStringIN8opendnp318AnalogOutputStatusEEENSt7__cxx1112basic_stringIcSt11char_traitsIcESaIcEEERKT_,"axG",@progbits,_ZN8asiodnp318PrintingSOEHandler13ValueToStringIN8opendnp318AnalogOutputStatusEEENSt7__cxx1112basic_stringIcSt11char_traitsIcESaIcEEERKT_,comdat
	.p2align 4
	.weak	_ZN8asiodnp318PrintingSOEHandler13ValueToStringIN8opendnp318AnalogOutputStatusEEENSt7__cxx1112basic_stringIcSt11char_traitsIcESaIcEEERKT_
	.type	_ZN8asiodnp318PrintingSOEHandler13ValueToStringIN8opendnp318AnalogOutputStatusEEENSt7__cxx1112basic_stringIcSt11char_traitsIcESaIcEEERKT_, @function
_ZN8asiodnp318PrintingSOEHandler13ValueToStringIN8opendnp318AnalogOutputStatusEEENSt7__cxx1112basic_stringIcSt11char_traitsIcESaIcEEERKT_:
.LFB3428:
	.cfi_startproc
	.cfi_personality 0x9b,DW.ref.__gxx_personality_v0
	.cfi_lsda 0x1b,.LLSDA3428
	endbr64
	pushq	%r15
	.cfi_def_cfa_offset 16
	.cfi_offset 15, -16
	pushq	%r14
	.cfi_def_cfa_offset 24
	.cfi_offset 14, -24
	pushq	%r13
	.cfi_def_cfa_offset 32
	.cfi_offset 13, -32
	pushq	%r12
	.cfi_def_cfa_offset 40
	.cfi_offset 12, -40
	movq	%rdi, %r12
	pushq	%rbp
	.cfi_def_cfa_offset 48
	.cfi_offset 6, -48
	pushq	%rbx
	.cfi_def_cfa_offset 56
	.cfi_offset 3, -56
	subq	$456, %rsp
	.cfi_def_cfa_offset 512
	movq	_ZTVNSt7__cxx1115basic_stringbufIcSt11char_traitsIcESaIcEEE@GOTPCREL(%rip), %r15
	movq	%rsi, 56(%rsp)
	leaq	176(%rsp), %rbp
	leaq	64(%rsp), %r14
	movq	%rbp, %rdi
	movq	%fs:40, %rax
	movq	%rax, 440(%rsp)
	movq	_ZTVNSt7__cxx1119basic_ostringstreamIcSt11char_traitsIcESaIcEEE@GOTPCREL(%rip), %rax
	movq	%r14, 48(%rsp)
	addq	$24, %rax
	movq	%rax, %xmm0
	leaq	16(%r15), %rax
	movq	%rax, %xmm3
	movq	_ZTVSt15basic_streambufIcSt11char_traitsIcEE@GOTPCREL(%rip), %rax
	movdqa	%xmm0, %xmm1
	movdqa	%xmm0, %xmm2
	punpcklqdq	%xmm3, %xmm1
	addq	$16, %rax
	movaps	%xmm1, 16(%rsp)
	movq	%rax, %xmm4
	punpcklqdq	%xmm4, %xmm2
	movaps	%xmm2, 32(%rsp)
	call	_ZNSt8ios_baseC2Ev@PLT
	movq	_ZTVSt9basic_iosIcSt11char_traitsIcEE@GOTPCREL(%rip), %rax
	pxor	%xmm0, %xmm0
	xorl	%esi, %esi
	movups	%xmm0, 408(%rsp)
	addq	$16, %rax
	movups	%xmm0, 424(%rsp)
	movq	%rax, 176(%rsp)
	xorl	%eax, %eax
	movw	%ax, 400(%rsp)
	movq	_ZTTNSt7__cxx1119basic_ostringstreamIcSt11char_traitsIcESaIcEEE@GOTPCREL(%rip), %rax
	movq	$0, 392(%rsp)
	movq	8(%rax), %rbx
	movq	16(%rax), %rax
	movq	-24(%rbx), %rdi
	movq	%rbx, 64(%rsp)
	movq	%rax, 8(%rsp)
	addq	%r14, %rdi
	movq	%rax, (%rdi)
.LEHB45:
	call	_ZNSt9basic_iosIcSt11char_traitsIcEE4initEPSt15basic_streambufIcS1_E@PLT
.LEHE45:
	movq	_ZTVNSt7__cxx1119basic_ostringstreamIcSt11char_traitsIcESaIcEEE@GOTPCREL(%rip), %rax
	movdqa	32(%rsp), %xmm2
	pxor	%xmm0, %xmm0
	leaq	128(%rsp), %r14
	movq	%r14, %rdi
	leaq	72(%rsp), %r13
	movaps	%xmm0, 80(%rsp)
	addq	$64, %rax
	movaps	%xmm2, 64(%rsp)
	movq	%rax, 176(%rsp)
	movaps	%xmm0, 96(%rsp)
	movaps	%xmm0, 112(%rsp)
	call	_ZNSt6localeC1Ev@PLT
	leaq	16(%r15), %rax
	movq	%r13, %rsi
	movq	%rbp, %rdi
	leaq	160(%rsp), %r15
	movq	%rax, 72(%rsp)
	movl	$16, 136(%rsp)
	movq	%r15, 144(%rsp)
	movq	$0, 152(%rsp)
	movb	$0, 160(%rsp)
.LEHB46:
	call	_ZNSt9basic_iosIcSt11char_traitsIcEE4initEPSt15basic_streambufIcS1_E@PLT
.LEHE46:
	movq	56(%rsp), %rax
	movq	48(%rsp), %rdi
	movsd	16(%rax), %xmm0
.LEHB47:
	call	_ZNSo9_M_insertIdEERSoT_@PLT
.LEHE47:
	movq	112(%rsp), %rax
	leaq	16(%r12), %r13
	movq	$0, 8(%r12)
	movq	%r13, (%r12)
	movb	$0, 16(%r12)
	testq	%rax, %rax
	je	.L338
	movq	96(%rsp), %r8
	testq	%r8, %r8
	je	.L352
	cmpq	%r8, %rax
	ja	.L352
.L339:
	movq	104(%rsp), %rcx
	xorl	%edx, %edx
	xorl	%esi, %esi
	movq	%r12, %rdi
	subq	%rcx, %r8
.LEHB48:
	call	_ZNSt7__cxx1112basic_stringIcSt11char_traitsIcESaIcEE10_M_replaceEmmPKcm@PLT
.L343:
	movq	_ZTVNSt7__cxx1119basic_ostringstreamIcSt11char_traitsIcESaIcEEE@GOTPCREL(%rip), %rax
	movdqa	16(%rsp), %xmm5
	movq	144(%rsp), %rdi
	addq	$64, %rax
	movaps	%xmm5, 64(%rsp)
	movq	%rax, 176(%rsp)
	cmpq	%r15, %rdi
	je	.L342
	movq	160(%rsp), %rax
	leaq	1(%rax), %rsi
	call	_ZdlPvm@PLT
.L342:
	movq	_ZTVSt15basic_streambufIcSt11char_traitsIcEE@GOTPCREL(%rip), %rax
	movq	%r14, %rdi
	addq	$16, %rax
	movq	%rax, 72(%rsp)
	call	_ZNSt6localeD1Ev@PLT
	movq	-24(%rbx), %rax
	movq	8(%rsp), %rdx
	movq	%rbp, %rdi
	movq	%rbx, 64(%rsp)
	movq	%rdx, 64(%rsp,%rax)
	movq	_ZTVSt9basic_iosIcSt11char_traitsIcEE@GOTPCREL(%rip), %rax
	addq	$16, %rax
	movq	%rax, 176(%rsp)
	call	_ZNSt8ios_baseD2Ev@PLT
	movq	440(%rsp), %rax
	subq	%fs:40, %rax
	jne	.L359
	addq	$456, %rsp
	.cfi_remember_state
	.cfi_def_cfa_offset 56
	movq	%r12, %rax
	popq	%rbx
	.cfi_def_cfa_offset 48
	popq	%rbp
	.cfi_def_cfa_offset 40
	popq	%r12
	.cfi_def_cfa_offset 32
	popq	%r13
	.cfi_def_cfa_offset 24
	popq	%r14
	.cfi_def_cfa_offset 16
	popq	%r15
	.cfi_def_cfa_offset 8
	ret
	.p2align 4,,10
	.p2align 3
.L352:
	.cfi_restore_state
	movq	%rax, %r8
	jmp	.L339
	.p2align 4,,10
	.p2align 3
.L338:
	leaq	144(%rsp), %rsi
	movq	%r12, %rdi
	call	_ZNSt7__cxx1112basic_stringIcSt11char_traitsIcESaIcEE9_M_assignERKS4_@PLT
.LEHE48:
	jmp	.L343
.L359:
	call	__stack_chk_fail@PLT
.L348:
	endbr64
	movq	%rax, %rbp
	jmp	.L346
.L351:
	endbr64
	movq	%rax, %rbp
.L344:
	movq	(%r12), %rdi
	cmpq	%rdi, %r13
	je	.L346
	movq	16(%r12), %rsi
	addq	$1, %rsi
	call	_ZdlPvm@PLT
.L346:
	movq	48(%rsp), %rdi
	call	_ZNSt7__cxx1119basic_ostringstreamIcSt11char_traitsIcESaIcEED1Ev@PLT
	movq	%rbp, %rdi
.LEHB49:
	call	_Unwind_Resume@PLT
.L350:
	endbr64
	movq	%rax, %r12
	jmp	.L336
.L349:
	endbr64
	movq	%rax, %r12
	jmp	.L337
.L336:
	movq	%r13, %rdi
	call	_ZNSt7__cxx1115basic_stringbufIcSt11char_traitsIcESaIcEED1Ev@PLT
	movq	-24(%rbx), %rax
	movq	8(%rsp), %rdx
	movq	%rbx, 64(%rsp)
	movq	%rdx, 64(%rsp,%rax)
.L337:
	movq	_ZTVSt9basic_iosIcSt11char_traitsIcEE@GOTPCREL(%rip), %rax
	movq	%rbp, %rdi
	addq	$16, %rax
	movq	%rax, 176(%rsp)
	call	_ZNSt8ios_baseD2Ev@PLT
	movq	%r12, %rdi
	call	_Unwind_Resume@PLT
.LEHE49:
	.cfi_endproc
.LFE3428:
	.section	.gcc_except_table._ZN8asiodnp318PrintingSOEHandler13ValueToStringIN8opendnp318AnalogOutputStatusEEENSt7__cxx1112basic_stringIcSt11char_traitsIcESaIcEEERKT_,"aG",@progbits,_ZN8asiodnp318PrintingSOEHandler13ValueToStringIN8opendnp318AnalogOutputStatusEEENSt7__cxx1112basic_stringIcSt11char_traitsIcESaIcEEERKT_,comdat
.LLSDA3428:
	.byte	0xff
	.byte	0xff
	.byte	0x1
	.uleb128 .LLSDACSE3428-.LLSDACSB3428
.LLSDACSB3428:
	.uleb128 .LEHB45-.LFB3428
	.uleb128 .LEHE45-.LEHB45
	.uleb128 .L349-.LFB3428
	.uleb128 0
	.uleb128 .LEHB46-.LFB3428
	.uleb128 .LEHE46-.LEHB46
	.uleb128 .L350-.LFB3428
	.uleb128 0
	.uleb128 .LEHB47-.LFB3428
	.uleb128 .LEHE47-.LEHB47
	.uleb128 .L348-.LFB3428
	.uleb128 0
	.uleb128 .LEHB48-.LFB3428
	.uleb128 .LEHE48-.LEHB48
	.uleb128 .L351-.LFB3428
	.uleb128 0
	.uleb128 .LEHB49-.LFB3428
	.uleb128 .LEHE49-.LEHB49
	.uleb128 0
	.uleb128 0
.LLSDACSE3428:
	.section	.text._ZN8asiodnp318PrintingSOEHandler13ValueToStringIN8opendnp318AnalogOutputStatusEEENSt7__cxx1112basic_stringIcSt11char_traitsIcESaIcEEERKT_,"axG",@progbits,_ZN8asiodnp318PrintingSOEHandler13ValueToStringIN8opendnp318AnalogOutputStatusEEENSt7__cxx1112basic_stringIcSt11char_traitsIcESaIcEEERKT_,comdat
	.size	_ZN8asiodnp318PrintingSOEHandler13ValueToStringIN8opendnp318AnalogOutputStatusEEENSt7__cxx1112basic_stringIcSt11char_traitsIcESaIcEEERKT_, .-_ZN8asiodnp318PrintingSOEHandler13ValueToStringIN8opendnp318AnalogOutputStatusEEENSt7__cxx1112basic_stringIcSt11char_traitsIcESaIcEEERKT_
	.section	.text._ZN8opendnp314FunctorVisitorINS_7IndexedINS_18AnalogOutputStatusEEEZN8asiodnp318PrintingSOEHandler8PrintAllIS2_EEvRKNS_10HeaderInfoERKNS_11ICollectionINS1_IT_EEEEEUlRKS3_E_E7OnValueESH_,"axG",@progbits,_ZN8opendnp314FunctorVisitorINS_7IndexedINS_18AnalogOutputStatusEEEZN8asiodnp318PrintingSOEHandler8PrintAllIS2_EEvRKNS_10HeaderInfoERKNS_11ICollectionINS1_IT_EEEEEUlRKS3_E_E7OnValueESH_,comdat
	.align 2
	.p2align 4
	.weak	_ZN8opendnp314FunctorVisitorINS_7IndexedINS_18AnalogOutputStatusEEEZN8asiodnp318PrintingSOEHandler8PrintAllIS2_EEvRKNS_10HeaderInfoERKNS_11ICollectionINS1_IT_EEEEEUlRKS3_E_E7OnValueESH_
	.type	_ZN8opendnp314FunctorVisitorINS_7IndexedINS_18AnalogOutputStatusEEEZN8asiodnp318PrintingSOEHandler8PrintAllIS2_EEvRKNS_10HeaderInfoERKNS_11ICollectionINS1_IT_EEEEEUlRKS3_E_E7OnValueESH_, @function
_ZN8opendnp314FunctorVisitorINS_7IndexedINS_18AnalogOutputStatusEEEZN8asiodnp318PrintingSOEHandler8PrintAllIS2_EEvRKNS_10HeaderInfoERKNS_11ICollectionINS1_IT_EEEEEUlRKS3_E_E7OnValueESH_:
.LFB3658:
	.cfi_startproc
	.cfi_personality 0x9b,DW.ref.__gxx_personality_v0
	.cfi_lsda 0x1b,.LLSDA3658
	endbr64
	pushq	%r12
	.cfi_def_cfa_offset 16
	.cfi_offset 12, -16
	movl	$1, %edx
	pushq	%rbp
	.cfi_def_cfa_offset 24
	.cfi_offset 6, -24
	pushq	%rbx
	.cfi_def_cfa_offset 32
	.cfi_offset 3, -32
	movq	%rsi, %rbx
	subq	$48, %rsp
	.cfi_def_cfa_offset 80
	movq	_ZSt4cout@GOTPCREL(%rip), %r12
	movzwl	24(%rsi), %ebp
	leaq	.LC0(%rip), %rsi
	movq	%fs:40, %rax
	movq	%rax, 40(%rsp)
	xorl	%eax, %eax
	movq	%r12, %rdi
.LEHB50:
	call	_ZSt16__ostream_insertIcSt11char_traitsIcEERSt13basic_ostreamIT_T0_ES6_PKS3_l@PLT
	movzwl	%bp, %esi
	movq	%r12, %rdi
	call	_ZNSo9_M_insertImEERSoT_@PLT
	movl	$4, %edx
	leaq	.LC1(%rip), %rsi
	movq	%rax, %rdi
	movq	%rax, %rbp
	call	_ZSt16__ostream_insertIcSt11char_traitsIcEERSt13basic_ostreamIT_T0_ES6_PKS3_l@PLT
	movq	%rsp, %rdi
	movq	%rbx, %rsi
	call	_ZN8asiodnp318PrintingSOEHandler13ValueToStringIN8opendnp318AnalogOutputStatusEEENSt7__cxx1112basic_stringIcSt11char_traitsIcESaIcEEERKT_@PLT
.LEHE50:
	movq	8(%rsp), %rdx
	movq	(%rsp), %rsi
	movq	%rbp, %rdi
.LEHB51:
	call	_ZSt16__ostream_insertIcSt11char_traitsIcEERSt13basic_ostreamIT_T0_ES6_PKS3_l@PLT
	leaq	.LC3(%rip), %r12
	movl	$3, %edx
	movq	%rax, %rdi
	movq	%rax, %rbp
	movq	%r12, %rsi
	call	_ZSt16__ostream_insertIcSt11char_traitsIcEERSt13basic_ostreamIT_T0_ES6_PKS3_l@PLT
	movzbl	(%rbx), %esi
	movq	%rbp, %rdi
	call	_ZNSolsEi@PLT
	movl	$3, %edx
	movq	%r12, %rsi
	movq	%rax, %rdi
	movq	%rax, %rbp
	call	_ZSt16__ostream_insertIcSt11char_traitsIcEERSt13basic_ostreamIT_T0_ES6_PKS3_l@PLT
	movq	8(%rbx), %rsi
	movq	%rbp, %rdi
	call	_ZNSo9_M_insertIlEERSoT_@PLT
	movq	%rax, %rbp
	movq	(%rax), %rax
	movq	-24(%rax), %rax
	movq	240(%rbp,%rax), %r12
	testq	%r12, %r12
	je	.L371
	cmpb	$0, 56(%r12)
	je	.L362
	movsbl	67(%r12), %esi
.L363:
	movq	%rbp, %rdi
	call	_ZNSo3putEc@PLT
	movq	%rax, %rdi
	call	_ZNSo5flushEv@PLT
	movq	(%rsp), %rdi
	leaq	16(%rsp), %rax
	cmpq	%rax, %rdi
	je	.L360
	movq	16(%rsp), %rax
	leaq	1(%rax), %rsi
	call	_ZdlPvm@PLT
.L360:
	movq	40(%rsp), %rax
	subq	%fs:40, %rax
	jne	.L372
	addq	$48, %rsp
	.cfi_remember_state
	.cfi_def_cfa_offset 32
	popq	%rbx
	.cfi_def_cfa_offset 24
	popq	%rbp
	.cfi_def_cfa_offset 16
	popq	%r12
	.cfi_def_cfa_offset 8
	ret
	.p2align 4,,10
	.p2align 3
.L362:
	.cfi_restore_state
	movq	%r12, %rdi
	call	_ZNKSt5ctypeIcE13_M_widen_initEv@PLT
	movq	(%r12), %rax
	movl	$10, %esi
	movq	48(%rax), %rax
	cmpq	_ZNKSt5ctypeIcE8do_widenEc@GOTPCREL(%rip), %rax
	je	.L363
	movq	%r12, %rdi
	call	*%rax
	movsbl	%al, %esi
	jmp	.L363
.L372:
	call	__stack_chk_fail@PLT
.L371:
	call	_ZSt16__throw_bad_castv@PLT
.LEHE51:
.L369:
	endbr64
	movq	%rax, %rbp
.L365:
	movq	(%rsp), %rdi
	leaq	16(%rsp), %rax
	cmpq	%rax, %rdi
	je	.L366
	movq	16(%rsp), %rax
	leaq	1(%rax), %rsi
	call	_ZdlPvm@PLT
.L366:
	movq	%rbp, %rdi
.LEHB52:
	call	_Unwind_Resume@PLT
.LEHE52:
	.cfi_endproc
.LFE3658:
	.section	.gcc_except_table._ZN8opendnp314FunctorVisitorINS_7IndexedINS_18AnalogOutputStatusEEEZN8asiodnp318PrintingSOEHandler8PrintAllIS2_EEvRKNS_10HeaderInfoERKNS_11ICollectionINS1_IT_EEEEEUlRKS3_E_E7OnValueESH_,"aG",@progbits,_ZN8opendnp314FunctorVisitorINS_7IndexedINS_18AnalogOutputStatusEEEZN8asiodnp318PrintingSOEHandler8PrintAllIS2_EEvRKNS_10HeaderInfoERKNS_11ICollectionINS1_IT_EEEEEUlRKS3_E_E7OnValueESH_,comdat
.LLSDA3658:
	.byte	0xff
	.byte	0xff
	.byte	0x1
	.uleb128 .LLSDACSE3658-.LLSDACSB3658
.LLSDACSB3658:
	.uleb128 .LEHB50-.LFB3658
	.uleb128 .LEHE50-.LEHB50
	.uleb128 0
	.uleb128 0
	.uleb128 .LEHB51-.LFB3658
	.uleb128 .LEHE51-.LEHB51
	.uleb128 .L369-.LFB3658
	.uleb128 0
	.uleb128 .LEHB52-.LFB3658
	.uleb128 .LEHE52-.LEHB52
	.uleb128 0
	.uleb128 0
.LLSDACSE3658:
	.section	.text._ZN8opendnp314FunctorVisitorINS_7IndexedINS_18AnalogOutputStatusEEEZN8asiodnp318PrintingSOEHandler8PrintAllIS2_EEvRKNS_10HeaderInfoERKNS_11ICollectionINS1_IT_EEEEEUlRKS3_E_E7OnValueESH_,"axG",@progbits,_ZN8opendnp314FunctorVisitorINS_7IndexedINS_18AnalogOutputStatusEEEZN8asiodnp318PrintingSOEHandler8PrintAllIS2_EEvRKNS_10HeaderInfoERKNS_11ICollectionINS1_IT_EEEEEUlRKS3_E_E7OnValueESH_,comdat
	.size	_ZN8opendnp314FunctorVisitorINS_7IndexedINS_18AnalogOutputStatusEEEZN8asiodnp318PrintingSOEHandler8PrintAllIS2_EEvRKNS_10HeaderInfoERKNS_11ICollectionINS1_IT_EEEEEUlRKS3_E_E7OnValueESH_, .-_ZN8opendnp314FunctorVisitorINS_7IndexedINS_18AnalogOutputStatusEEEZN8asiodnp318PrintingSOEHandler8PrintAllIS2_EEvRKNS_10HeaderInfoERKNS_11ICollectionINS1_IT_EEEEEUlRKS3_E_E7OnValueESH_
	.section	.text.startup,"ax",@progbits
	.p2align 4
	.type	_GLOBAL__sub_I_PrintingSOEHandler.cpp, @function
_GLOBAL__sub_I_PrintingSOEHandler.cpp:
.LFB3675:
	.cfi_startproc
	endbr64
	pushq	%rbp
	.cfi_def_cfa_offset 16
	.cfi_offset 6, -16
	leaq	_ZStL8__ioinit(%rip), %rbp
	movq	%rbp, %rdi
	call	_ZNSt8ios_base4InitC1Ev@PLT
	movq	_ZNSt8ios_base4InitD1Ev@GOTPCREL(%rip), %rdi
	movq	%rbp, %rsi
	popq	%rbp
	.cfi_def_cfa_offset 8
	leaq	__dso_handle(%rip), %rdx
	jmp	__cxa_atexit@PLT
	.cfi_endproc
.LFE3675:
	.size	_GLOBAL__sub_I_PrintingSOEHandler.cpp, .-_GLOBAL__sub_I_PrintingSOEHandler.cpp
	.section	.init_array,"aw"
	.align 8
	.quad	_GLOBAL__sub_I_PrintingSOEHandler.cpp
	.weak	_ZTSN8opendnp313ITransactableE
	.section	.rodata._ZTSN8opendnp313ITransactableE,"aG",@progbits,_ZTSN8opendnp313ITransactableE,comdat
	.align 16
	.type	_ZTSN8opendnp313ITransactableE, @object
	.size	_ZTSN8opendnp313ITransactableE, 27
_ZTSN8opendnp313ITransactableE:
	.string	"N8opendnp313ITransactableE"
	.weak	_ZTIN8opendnp313ITransactableE
	.section	.data.rel.ro._ZTIN8opendnp313ITransactableE,"awG",@progbits,_ZTIN8opendnp313ITransactableE,comdat
	.align 8
	.type	_ZTIN8opendnp313ITransactableE, @object
	.size	_ZTIN8opendnp313ITransactableE, 16
_ZTIN8opendnp313ITransactableE:
	.quad	_ZTVN10__cxxabiv117__class_type_infoE+16
	.quad	_ZTSN8opendnp313ITransactableE
	.weak	_ZTSN8opendnp311ISOEHandlerE
	.section	.rodata._ZTSN8opendnp311ISOEHandlerE,"aG",@progbits,_ZTSN8opendnp311ISOEHandlerE,comdat
	.align 16
	.type	_ZTSN8opendnp311ISOEHandlerE, @object
	.size	_ZTSN8opendnp311ISOEHandlerE, 25
_ZTSN8opendnp311ISOEHandlerE:
	.string	"N8opendnp311ISOEHandlerE"
	.weak	_ZTIN8opendnp311ISOEHandlerE
	.section	.data.rel.ro._ZTIN8opendnp311ISOEHandlerE,"awG",@progbits,_ZTIN8opendnp311ISOEHandlerE,comdat
	.align 8
	.type	_ZTIN8opendnp311ISOEHandlerE, @object
	.size	_ZTIN8opendnp311ISOEHandlerE, 24
_ZTIN8opendnp311ISOEHandlerE:
	.quad	_ZTVN10__cxxabiv120__si_class_type_infoE+16
	.quad	_ZTSN8opendnp311ISOEHandlerE
	.quad	_ZTIN8opendnp313ITransactableE
	.weak	_ZTSN8asiodnp318PrintingSOEHandlerE
	.section	.rodata._ZTSN8asiodnp318PrintingSOEHandlerE,"aG",@progbits,_ZTSN8asiodnp318PrintingSOEHandlerE,comdat
	.align 32
	.type	_ZTSN8asiodnp318PrintingSOEHandlerE, @object
	.size	_ZTSN8asiodnp318PrintingSOEHandlerE, 32
_ZTSN8asiodnp318PrintingSOEHandlerE:
	.string	"N8asiodnp318PrintingSOEHandlerE"
	.weak	_ZTIN8asiodnp318PrintingSOEHandlerE
	.section	.data.rel.ro._ZTIN8asiodnp318PrintingSOEHandlerE,"awG",@progbits,_ZTIN8asiodnp318PrintingSOEHandlerE,comdat
	.align 8
	.type	_ZTIN8asiodnp318PrintingSOEHandlerE, @object
	.size	_ZTIN8asiodnp318PrintingSOEHandlerE, 24
_ZTIN8asiodnp318PrintingSOEHandlerE:
	.quad	_ZTVN10__cxxabiv120__si_class_type_infoE+16
	.quad	_ZTSN8asiodnp318PrintingSOEHandlerE
	.quad	_ZTIN8opendnp311ISOEHandlerE
	.weak	_ZTSN8opendnp38IVisitorINS_7IndexedINS_11OctetStringEEEEE
	.section	.rodata._ZTSN8opendnp38IVisitorINS_7IndexedINS_11OctetStringEEEEE,"aG",@progbits,_ZTSN8opendnp38IVisitorINS_7IndexedINS_11OctetStringEEEEE,comdat
	.align 32
	.type	_ZTSN8opendnp38IVisitorINS_7IndexedINS_11OctetStringEEEEE, @object
	.size	_ZTSN8opendnp38IVisitorINS_7IndexedINS_11OctetStringEEEEE, 54
_ZTSN8opendnp38IVisitorINS_7IndexedINS_11OctetStringEEEEE:
	.string	"N8opendnp38IVisitorINS_7IndexedINS_11OctetStringEEEEE"
	.weak	_ZTIN8opendnp38IVisitorINS_7IndexedINS_11OctetStringEEEEE
	.section	.data.rel.ro._ZTIN8opendnp38IVisitorINS_7IndexedINS_11OctetStringEEEEE,"awG",@progbits,_ZTIN8opendnp38IVisitorINS_7IndexedINS_11OctetStringEEEEE,comdat
	.align 8
	.type	_ZTIN8opendnp38IVisitorINS_7IndexedINS_11OctetStringEEEEE, @object
	.size	_ZTIN8opendnp38IVisitorINS_7IndexedINS_11OctetStringEEEEE, 16
_ZTIN8opendnp38IVisitorINS_7IndexedINS_11OctetStringEEEEE:
	.quad	_ZTVN10__cxxabiv117__class_type_infoE+16
	.quad	_ZTSN8opendnp38IVisitorINS_7IndexedINS_11OctetStringEEEEE
	.section	.data.rel.ro,"aw"
	.align 8
	.type	_ZTIN8opendnp314FunctorVisitorINS_7IndexedINS_11OctetStringEEEZN8asiodnp318PrintingSOEHandler7ProcessERKNS_10HeaderInfoERKNS_11ICollectionIS3_EEEUlRKS3_E_EE, @object
	.size	_ZTIN8opendnp314FunctorVisitorINS_7IndexedINS_11OctetStringEEEZN8asiodnp318PrintingSOEHandler7ProcessERKNS_10HeaderInfoERKNS_11ICollectionIS3_EEEUlRKS3_E_EE, 24
_ZTIN8opendnp314FunctorVisitorINS_7IndexedINS_11OctetStringEEEZN8asiodnp318PrintingSOEHandler7ProcessERKNS_10HeaderInfoERKNS_11ICollectionIS3_EEEUlRKS3_E_EE:
	.quad	_ZTVN10__cxxabiv120__si_class_type_infoE+16
	.quad	_ZTSN8opendnp314FunctorVisitorINS_7IndexedINS_11OctetStringEEEZN8asiodnp318PrintingSOEHandler7ProcessERKNS_10HeaderInfoERKNS_11ICollectionIS3_EEEUlRKS3_E_EE
	.quad	_ZTIN8opendnp38IVisitorINS_7IndexedINS_11OctetStringEEEEE
	.section	.rodata
	.align 32
	.type	_ZTSN8opendnp314FunctorVisitorINS_7IndexedINS_11OctetStringEEEZN8asiodnp318PrintingSOEHandler7ProcessERKNS_10HeaderInfoERKNS_11ICollectionIS3_EEEUlRKS3_E_EE, @object
	.size	_ZTSN8opendnp314FunctorVisitorINS_7IndexedINS_11OctetStringEEEZN8asiodnp318PrintingSOEHandler7ProcessERKNS_10HeaderInfoERKNS_11ICollectionIS3_EEEUlRKS3_E_EE, 154
_ZTSN8opendnp314FunctorVisitorINS_7IndexedINS_11OctetStringEEEZN8asiodnp318PrintingSOEHandler7ProcessERKNS_10HeaderInfoERKNS_11ICollectionIS3_EEEUlRKS3_E_EE:
	.string	"*N8opendnp314FunctorVisitorINS_7IndexedINS_11OctetStringEEEZN8asiodnp318PrintingSOEHandler7ProcessERKNS_10HeaderInfoERKNS_11ICollectionIS3_EEEUlRKS3_E_EE"
	.weak	_ZTSN8opendnp38IVisitorINS_7IndexedINS_15TimeAndIntervalEEEEE
	.section	.rodata._ZTSN8opendnp38IVisitorINS_7IndexedINS_15TimeAndIntervalEEEEE,"aG",@progbits,_ZTSN8opendnp38IVisitorINS_7IndexedINS_15TimeAndIntervalEEEEE,comdat
	.align 32
	.type	_ZTSN8opendnp38IVisitorINS_7IndexedINS_15TimeAndIntervalEEEEE, @object
	.size	_ZTSN8opendnp38IVisitorINS_7IndexedINS_15TimeAndIntervalEEEEE, 58
_ZTSN8opendnp38IVisitorINS_7IndexedINS_15TimeAndIntervalEEEEE:
	.string	"N8opendnp38IVisitorINS_7IndexedINS_15TimeAndIntervalEEEEE"
	.weak	_ZTIN8opendnp38IVisitorINS_7IndexedINS_15TimeAndIntervalEEEEE
	.section	.data.rel.ro._ZTIN8opendnp38IVisitorINS_7IndexedINS_15TimeAndIntervalEEEEE,"awG",@progbits,_ZTIN8opendnp38IVisitorINS_7IndexedINS_15TimeAndIntervalEEEEE,comdat
	.align 8
	.type	_ZTIN8opendnp38IVisitorINS_7IndexedINS_15TimeAndIntervalEEEEE, @object
	.size	_ZTIN8opendnp38IVisitorINS_7IndexedINS_15TimeAndIntervalEEEEE, 16
_ZTIN8opendnp38IVisitorINS_7IndexedINS_15TimeAndIntervalEEEEE:
	.quad	_ZTVN10__cxxabiv117__class_type_infoE+16
	.quad	_ZTSN8opendnp38IVisitorINS_7IndexedINS_15TimeAndIntervalEEEEE
	.section	.data.rel.ro
	.align 8
	.type	_ZTIN8opendnp314FunctorVisitorINS_7IndexedINS_15TimeAndIntervalEEEZN8asiodnp318PrintingSOEHandler7ProcessERKNS_10HeaderInfoERKNS_11ICollectionIS3_EEEUlRKS3_E_EE, @object
	.size	_ZTIN8opendnp314FunctorVisitorINS_7IndexedINS_15TimeAndIntervalEEEZN8asiodnp318PrintingSOEHandler7ProcessERKNS_10HeaderInfoERKNS_11ICollectionIS3_EEEUlRKS3_E_EE, 24
_ZTIN8opendnp314FunctorVisitorINS_7IndexedINS_15TimeAndIntervalEEEZN8asiodnp318PrintingSOEHandler7ProcessERKNS_10HeaderInfoERKNS_11ICollectionIS3_EEEUlRKS3_E_EE:
	.quad	_ZTVN10__cxxabiv120__si_class_type_infoE+16
	.quad	_ZTSN8opendnp314FunctorVisitorINS_7IndexedINS_15TimeAndIntervalEEEZN8asiodnp318PrintingSOEHandler7ProcessERKNS_10HeaderInfoERKNS_11ICollectionIS3_EEEUlRKS3_E_EE
	.quad	_ZTIN8opendnp38IVisitorINS_7IndexedINS_15TimeAndIntervalEEEEE
	.section	.rodata
	.align 32
	.type	_ZTSN8opendnp314FunctorVisitorINS_7IndexedINS_15TimeAndIntervalEEEZN8asiodnp318PrintingSOEHandler7ProcessERKNS_10HeaderInfoERKNS_11ICollectionIS3_EEEUlRKS3_E_EE, @object
	.size	_ZTSN8opendnp314FunctorVisitorINS_7IndexedINS_15TimeAndIntervalEEEZN8asiodnp318PrintingSOEHandler7ProcessERKNS_10HeaderInfoERKNS_11ICollectionIS3_EEEUlRKS3_E_EE, 158
_ZTSN8opendnp314FunctorVisitorINS_7IndexedINS_15TimeAndIntervalEEEZN8asiodnp318PrintingSOEHandler7ProcessERKNS_10HeaderInfoERKNS_11ICollectionIS3_EEEUlRKS3_E_EE:
	.string	"*N8opendnp314FunctorVisitorINS_7IndexedINS_15TimeAndIntervalEEEZN8asiodnp318PrintingSOEHandler7ProcessERKNS_10HeaderInfoERKNS_11ICollectionIS3_EEEUlRKS3_E_EE"
	.weak	_ZTSN8opendnp38IVisitorINS_7IndexedINS_18BinaryCommandEventEEEEE
	.section	.rodata._ZTSN8opendnp38IVisitorINS_7IndexedINS_18BinaryCommandEventEEEEE,"aG",@progbits,_ZTSN8opendnp38IVisitorINS_7IndexedINS_18BinaryCommandEventEEEEE,comdat
	.align 32
	.type	_ZTSN8opendnp38IVisitorINS_7IndexedINS_18BinaryCommandEventEEEEE, @object
	.size	_ZTSN8opendnp38IVisitorINS_7IndexedINS_18BinaryCommandEventEEEEE, 61
_ZTSN8opendnp38IVisitorINS_7IndexedINS_18BinaryCommandEventEEEEE:
	.string	"N8opendnp38IVisitorINS_7IndexedINS_18BinaryCommandEventEEEEE"
	.weak	_ZTIN8opendnp38IVisitorINS_7IndexedINS_18BinaryCommandEventEEEEE
	.section	.data.rel.ro._ZTIN8opendnp38IVisitorINS_7IndexedINS_18BinaryCommandEventEEEEE,"awG",@progbits,_ZTIN8opendnp38IVisitorINS_7IndexedINS_18BinaryCommandEventEEEEE,comdat
	.align 8
	.type	_ZTIN8opendnp38IVisitorINS_7IndexedINS_18BinaryCommandEventEEEEE, @object
	.size	_ZTIN8opendnp38IVisitorINS_7IndexedINS_18BinaryCommandEventEEEEE, 16
_ZTIN8opendnp38IVisitorINS_7IndexedINS_18BinaryCommandEventEEEEE:
	.quad	_ZTVN10__cxxabiv117__class_type_infoE+16
	.quad	_ZTSN8opendnp38IVisitorINS_7IndexedINS_18BinaryCommandEventEEEEE
	.section	.data.rel.ro
	.align 8
	.type	_ZTIN8opendnp314FunctorVisitorINS_7IndexedINS_18BinaryCommandEventEEEZN8asiodnp318PrintingSOEHandler7ProcessERKNS_10HeaderInfoERKNS_11ICollectionIS3_EEEUlRKS3_E_EE, @object
	.size	_ZTIN8opendnp314FunctorVisitorINS_7IndexedINS_18BinaryCommandEventEEEZN8asiodnp318PrintingSOEHandler7ProcessERKNS_10HeaderInfoERKNS_11ICollectionIS3_EEEUlRKS3_E_EE, 24
_ZTIN8opendnp314FunctorVisitorINS_7IndexedINS_18BinaryCommandEventEEEZN8asiodnp318PrintingSOEHandler7ProcessERKNS_10HeaderInfoERKNS_11ICollectionIS3_EEEUlRKS3_E_EE:
	.quad	_ZTVN10__cxxabiv120__si_class_type_infoE+16
	.quad	_ZTSN8opendnp314FunctorVisitorINS_7IndexedINS_18BinaryCommandEventEEEZN8asiodnp318PrintingSOEHandler7ProcessERKNS_10HeaderInfoERKNS_11ICollectionIS3_EEEUlRKS3_E_EE
	.quad	_ZTIN8opendnp38IVisitorINS_7IndexedINS_18BinaryCommandEventEEEEE
	.section	.rodata
	.align 32
	.type	_ZTSN8opendnp314FunctorVisitorINS_7IndexedINS_18BinaryCommandEventEEEZN8asiodnp318PrintingSOEHandler7ProcessERKNS_10HeaderInfoERKNS_11ICollectionIS3_EEEUlRKS3_E_EE, @object
	.size	_ZTSN8opendnp314FunctorVisitorINS_7IndexedINS_18BinaryCommandEventEEEZN8asiodnp318PrintingSOEHandler7ProcessERKNS_10HeaderInfoERKNS_11ICollectionIS3_EEEUlRKS3_E_EE, 161
_ZTSN8opendnp314FunctorVisitorINS_7IndexedINS_18BinaryCommandEventEEEZN8asiodnp318PrintingSOEHandler7ProcessERKNS_10HeaderInfoERKNS_11ICollectionIS3_EEEUlRKS3_E_EE:
	.string	"*N8opendnp314FunctorVisitorINS_7IndexedINS_18BinaryCommandEventEEEZN8asiodnp318PrintingSOEHandler7ProcessERKNS_10HeaderInfoERKNS_11ICollectionIS3_EEEUlRKS3_E_EE"
	.weak	_ZTSN8opendnp38IVisitorINS_7IndexedINS_18AnalogCommandEventEEEEE
	.section	.rodata._ZTSN8opendnp38IVisitorINS_7IndexedINS_18AnalogCommandEventEEEEE,"aG",@progbits,_ZTSN8opendnp38IVisitorINS_7IndexedINS_18AnalogCommandEventEEEEE,comdat
	.align 32
	.type	_ZTSN8opendnp38IVisitorINS_7IndexedINS_18AnalogCommandEventEEEEE, @object
	.size	_ZTSN8opendnp38IVisitorINS_7IndexedINS_18AnalogCommandEventEEEEE, 61
_ZTSN8opendnp38IVisitorINS_7IndexedINS_18AnalogCommandEventEEEEE:
	.string	"N8opendnp38IVisitorINS_7IndexedINS_18AnalogCommandEventEEEEE"
	.weak	_ZTIN8opendnp38IVisitorINS_7IndexedINS_18AnalogCommandEventEEEEE
	.section	.data.rel.ro._ZTIN8opendnp38IVisitorINS_7IndexedINS_18AnalogCommandEventEEEEE,"awG",@progbits,_ZTIN8opendnp38IVisitorINS_7IndexedINS_18AnalogCommandEventEEEEE,comdat
	.align 8
	.type	_ZTIN8opendnp38IVisitorINS_7IndexedINS_18AnalogCommandEventEEEEE, @object
	.size	_ZTIN8opendnp38IVisitorINS_7IndexedINS_18AnalogCommandEventEEEEE, 16
_ZTIN8opendnp38IVisitorINS_7IndexedINS_18AnalogCommandEventEEEEE:
	.quad	_ZTVN10__cxxabiv117__class_type_infoE+16
	.quad	_ZTSN8opendnp38IVisitorINS_7IndexedINS_18AnalogCommandEventEEEEE
	.section	.data.rel.ro
	.align 8
	.type	_ZTIN8opendnp314FunctorVisitorINS_7IndexedINS_18AnalogCommandEventEEEZN8asiodnp318PrintingSOEHandler7ProcessERKNS_10HeaderInfoERKNS_11ICollectionIS3_EEEUlRKS3_E_EE, @object
	.size	_ZTIN8opendnp314FunctorVisitorINS_7IndexedINS_18AnalogCommandEventEEEZN8asiodnp318PrintingSOEHandler7ProcessERKNS_10HeaderInfoERKNS_11ICollectionIS3_EEEUlRKS3_E_EE, 24
_ZTIN8opendnp314FunctorVisitorINS_7IndexedINS_18AnalogCommandEventEEEZN8asiodnp318PrintingSOEHandler7ProcessERKNS_10HeaderInfoERKNS_11ICollectionIS3_EEEUlRKS3_E_EE:
	.quad	_ZTVN10__cxxabiv120__si_class_type_infoE+16
	.quad	_ZTSN8opendnp314FunctorVisitorINS_7IndexedINS_18AnalogCommandEventEEEZN8asiodnp318PrintingSOEHandler7ProcessERKNS_10HeaderInfoERKNS_11ICollectionIS3_EEEUlRKS3_E_EE
	.quad	_ZTIN8opendnp38IVisitorINS_7IndexedINS_18AnalogCommandEventEEEEE
	.section	.rodata
	.align 32
	.type	_ZTSN8opendnp314FunctorVisitorINS_7IndexedINS_18AnalogCommandEventEEEZN8asiodnp318PrintingSOEHandler7ProcessERKNS_10HeaderInfoERKNS_11ICollectionIS3_EEEUlRKS3_E_EE, @object
	.size	_ZTSN8opendnp314FunctorVisitorINS_7IndexedINS_18AnalogCommandEventEEEZN8asiodnp318PrintingSOEHandler7ProcessERKNS_10HeaderInfoERKNS_11ICollectionIS3_EEEUlRKS3_E_EE, 161
_ZTSN8opendnp314FunctorVisitorINS_7IndexedINS_18AnalogCommandEventEEEZN8asiodnp318PrintingSOEHandler7ProcessERKNS_10HeaderInfoERKNS_11ICollectionIS3_EEEUlRKS3_E_EE:
	.string	"*N8opendnp314FunctorVisitorINS_7IndexedINS_18AnalogCommandEventEEEZN8asiodnp318PrintingSOEHandler7ProcessERKNS_10HeaderInfoERKNS_11ICollectionIS3_EEEUlRKS3_E_EE"
	.weak	_ZTSN8opendnp38IVisitorINS_7IndexedINS_12SecurityStatEEEEE
	.section	.rodata._ZTSN8opendnp38IVisitorINS_7IndexedINS_12SecurityStatEEEEE,"aG",@progbits,_ZTSN8opendnp38IVisitorINS_7IndexedINS_12SecurityStatEEEEE,comdat
	.align 32
	.type	_ZTSN8opendnp38IVisitorINS_7IndexedINS_12SecurityStatEEEEE, @object
	.size	_ZTSN8opendnp38IVisitorINS_7IndexedINS_12SecurityStatEEEEE, 55
_ZTSN8opendnp38IVisitorINS_7IndexedINS_12SecurityStatEEEEE:
	.string	"N8opendnp38IVisitorINS_7IndexedINS_12SecurityStatEEEEE"
	.weak	_ZTIN8opendnp38IVisitorINS_7IndexedINS_12SecurityStatEEEEE
	.section	.data.rel.ro._ZTIN8opendnp38IVisitorINS_7IndexedINS_12SecurityStatEEEEE,"awG",@progbits,_ZTIN8opendnp38IVisitorINS_7IndexedINS_12SecurityStatEEEEE,comdat
	.align 8
	.type	_ZTIN8opendnp38IVisitorINS_7IndexedINS_12SecurityStatEEEEE, @object
	.size	_ZTIN8opendnp38IVisitorINS_7IndexedINS_12SecurityStatEEEEE, 16
_ZTIN8opendnp38IVisitorINS_7IndexedINS_12SecurityStatEEEEE:
	.quad	_ZTVN10__cxxabiv117__class_type_infoE+16
	.quad	_ZTSN8opendnp38IVisitorINS_7IndexedINS_12SecurityStatEEEEE
	.section	.data.rel.ro
	.align 8
	.type	_ZTIN8opendnp314FunctorVisitorINS_7IndexedINS_12SecurityStatEEEZN8asiodnp318PrintingSOEHandler7ProcessERKNS_10HeaderInfoERKNS_11ICollectionIS3_EEEUlRKS3_E_EE, @object
	.size	_ZTIN8opendnp314FunctorVisitorINS_7IndexedINS_12SecurityStatEEEZN8asiodnp318PrintingSOEHandler7ProcessERKNS_10HeaderInfoERKNS_11ICollectionIS3_EEEUlRKS3_E_EE, 24
_ZTIN8opendnp314FunctorVisitorINS_7IndexedINS_12SecurityStatEEEZN8asiodnp318PrintingSOEHandler7ProcessERKNS_10HeaderInfoERKNS_11ICollectionIS3_EEEUlRKS3_E_EE:
	.quad	_ZTVN10__cxxabiv120__si_class_type_infoE+16
	.quad	_ZTSN8opendnp314FunctorVisitorINS_7IndexedINS_12SecurityStatEEEZN8asiodnp318PrintingSOEHandler7ProcessERKNS_10HeaderInfoERKNS_11ICollectionIS3_EEEUlRKS3_E_EE
	.quad	_ZTIN8opendnp38IVisitorINS_7IndexedINS_12SecurityStatEEEEE
	.section	.rodata
	.align 32
	.type	_ZTSN8opendnp314FunctorVisitorINS_7IndexedINS_12SecurityStatEEEZN8asiodnp318PrintingSOEHandler7ProcessERKNS_10HeaderInfoERKNS_11ICollectionIS3_EEEUlRKS3_E_EE, @object
	.size	_ZTSN8opendnp314FunctorVisitorINS_7IndexedINS_12SecurityStatEEEZN8asiodnp318PrintingSOEHandler7ProcessERKNS_10HeaderInfoERKNS_11ICollectionIS3_EEEUlRKS3_E_EE, 155
_ZTSN8opendnp314FunctorVisitorINS_7IndexedINS_12SecurityStatEEEZN8asiodnp318PrintingSOEHandler7ProcessERKNS_10HeaderInfoERKNS_11ICollectionIS3_EEEUlRKS3_E_EE:
	.string	"*N8opendnp314FunctorVisitorINS_7IndexedINS_12SecurityStatEEEZN8asiodnp318PrintingSOEHandler7ProcessERKNS_10HeaderInfoERKNS_11ICollectionIS3_EEEUlRKS3_E_EE"
	.weak	_ZTSN8opendnp38IVisitorIN7openpal10UInt48TypeEEE
	.section	.rodata._ZTSN8opendnp38IVisitorIN7openpal10UInt48TypeEEE,"aG",@progbits,_ZTSN8opendnp38IVisitorIN7openpal10UInt48TypeEEE,comdat
	.align 32
	.type	_ZTSN8opendnp38IVisitorIN7openpal10UInt48TypeEEE, @object
	.size	_ZTSN8opendnp38IVisitorIN7openpal10UInt48TypeEEE, 45
_ZTSN8opendnp38IVisitorIN7openpal10UInt48TypeEEE:
	.string	"N8opendnp38IVisitorIN7openpal10UInt48TypeEEE"
	.weak	_ZTIN8opendnp38IVisitorIN7openpal10UInt48TypeEEE
	.section	.data.rel.ro._ZTIN8opendnp38IVisitorIN7openpal10UInt48TypeEEE,"awG",@progbits,_ZTIN8opendnp38IVisitorIN7openpal10UInt48TypeEEE,comdat
	.align 8
	.type	_ZTIN8opendnp38IVisitorIN7openpal10UInt48TypeEEE, @object
	.size	_ZTIN8opendnp38IVisitorIN7openpal10UInt48TypeEEE, 16
_ZTIN8opendnp38IVisitorIN7openpal10UInt48TypeEEE:
	.quad	_ZTVN10__cxxabiv117__class_type_infoE+16
	.quad	_ZTSN8opendnp38IVisitorIN7openpal10UInt48TypeEEE
	.section	.data.rel.ro
	.align 8
	.type	_ZTIN8opendnp314FunctorVisitorIN7openpal10UInt48TypeEZN8asiodnp318PrintingSOEHandler7ProcessERKNS_10HeaderInfoERKNS_11ICollectionIS2_EEEUlRKS2_E_EE, @object
	.size	_ZTIN8opendnp314FunctorVisitorIN7openpal10UInt48TypeEZN8asiodnp318PrintingSOEHandler7ProcessERKNS_10HeaderInfoERKNS_11ICollectionIS2_EEEUlRKS2_E_EE, 24
_ZTIN8opendnp314FunctorVisitorIN7openpal10UInt48TypeEZN8asiodnp318PrintingSOEHandler7ProcessERKNS_10HeaderInfoERKNS_11ICollectionIS2_EEEUlRKS2_E_EE:
	.quad	_ZTVN10__cxxabiv120__si_class_type_infoE+16
	.quad	_ZTSN8opendnp314FunctorVisitorIN7openpal10UInt48TypeEZN8asiodnp318PrintingSOEHandler7ProcessERKNS_10HeaderInfoERKNS_11ICollectionIS2_EEEUlRKS2_E_EE
	.quad	_ZTIN8opendnp38IVisitorIN7openpal10UInt48TypeEEE
	.section	.rodata
	.align 32
	.type	_ZTSN8opendnp314FunctorVisitorIN7openpal10UInt48TypeEZN8asiodnp318PrintingSOEHandler7ProcessERKNS_10HeaderInfoERKNS_11ICollectionIS2_EEEUlRKS2_E_EE, @object
	.size	_ZTSN8opendnp314FunctorVisitorIN7openpal10UInt48TypeEZN8asiodnp318PrintingSOEHandler7ProcessERKNS_10HeaderInfoERKNS_11ICollectionIS2_EEEUlRKS2_E_EE, 145
_ZTSN8opendnp314FunctorVisitorIN7openpal10UInt48TypeEZN8asiodnp318PrintingSOEHandler7ProcessERKNS_10HeaderInfoERKNS_11ICollectionIS2_EEEUlRKS2_E_EE:
	.string	"*N8opendnp314FunctorVisitorIN7openpal10UInt48TypeEZN8asiodnp318PrintingSOEHandler7ProcessERKNS_10HeaderInfoERKNS_11ICollectionIS2_EEEUlRKS2_E_EE"
	.weak	_ZTSN8opendnp38IVisitorINS_7IndexedINS_6BinaryEEEEE
	.section	.rodata._ZTSN8opendnp38IVisitorINS_7IndexedINS_6BinaryEEEEE,"aG",@progbits,_ZTSN8opendnp38IVisitorINS_7IndexedINS_6BinaryEEEEE,comdat
	.align 32
	.type	_ZTSN8opendnp38IVisitorINS_7IndexedINS_6BinaryEEEEE, @object
	.size	_ZTSN8opendnp38IVisitorINS_7IndexedINS_6BinaryEEEEE, 48
_ZTSN8opendnp38IVisitorINS_7IndexedINS_6BinaryEEEEE:
	.string	"N8opendnp38IVisitorINS_7IndexedINS_6BinaryEEEEE"
	.weak	_ZTIN8opendnp38IVisitorINS_7IndexedINS_6BinaryEEEEE
	.section	.data.rel.ro._ZTIN8opendnp38IVisitorINS_7IndexedINS_6BinaryEEEEE,"awG",@progbits,_ZTIN8opendnp38IVisitorINS_7IndexedINS_6BinaryEEEEE,comdat
	.align 8
	.type	_ZTIN8opendnp38IVisitorINS_7IndexedINS_6BinaryEEEEE, @object
	.size	_ZTIN8opendnp38IVisitorINS_7IndexedINS_6BinaryEEEEE, 16
_ZTIN8opendnp38IVisitorINS_7IndexedINS_6BinaryEEEEE:
	.quad	_ZTVN10__cxxabiv117__class_type_infoE+16
	.quad	_ZTSN8opendnp38IVisitorINS_7IndexedINS_6BinaryEEEEE
	.weak	_ZTSN8opendnp314FunctorVisitorINS_7IndexedINS_6BinaryEEEZN8asiodnp318PrintingSOEHandler8PrintAllIS2_EEvRKNS_10HeaderInfoERKNS_11ICollectionINS1_IT_EEEEEUlRKS3_E_EE
	.section	.rodata._ZTSN8opendnp314FunctorVisitorINS_7IndexedINS_6BinaryEEEZN8asiodnp318PrintingSOEHandler8PrintAllIS2_EEvRKNS_10HeaderInfoERKNS_11ICollectionINS1_IT_EEEEEUlRKS3_E_EE,"aG",@progbits,_ZTSN8opendnp314FunctorVisitorINS_7IndexedINS_6BinaryEEEZN8asiodnp318PrintingSOEHandler8PrintAllIS2_EEvRKNS_10HeaderInfoERKNS_11ICollectionINS1_IT_EEEEEUlRKS3_E_EE,comdat
	.align 32
	.type	_ZTSN8opendnp314FunctorVisitorINS_7IndexedINS_6BinaryEEEZN8asiodnp318PrintingSOEHandler8PrintAllIS2_EEvRKNS_10HeaderInfoERKNS_11ICollectionINS1_IT_EEEEEUlRKS3_E_EE, @object
	.size	_ZTSN8opendnp314FunctorVisitorINS_7IndexedINS_6BinaryEEEZN8asiodnp318PrintingSOEHandler8PrintAllIS2_EEvRKNS_10HeaderInfoERKNS_11ICollectionINS1_IT_EEEEEUlRKS3_E_EE, 160
_ZTSN8opendnp314FunctorVisitorINS_7IndexedINS_6BinaryEEEZN8asiodnp318PrintingSOEHandler8PrintAllIS2_EEvRKNS_10HeaderInfoERKNS_11ICollectionINS1_IT_EEEEEUlRKS3_E_EE:
	.string	"N8opendnp314FunctorVisitorINS_7IndexedINS_6BinaryEEEZN8asiodnp318PrintingSOEHandler8PrintAllIS2_EEvRKNS_10HeaderInfoERKNS_11ICollectionINS1_IT_EEEEEUlRKS3_E_EE"
	.weak	_ZTIN8opendnp314FunctorVisitorINS_7IndexedINS_6BinaryEEEZN8asiodnp318PrintingSOEHandler8PrintAllIS2_EEvRKNS_10HeaderInfoERKNS_11ICollectionINS1_IT_EEEEEUlRKS3_E_EE
	.section	.data.rel.ro._ZTIN8opendnp314FunctorVisitorINS_7IndexedINS_6BinaryEEEZN8asiodnp318PrintingSOEHandler8PrintAllIS2_EEvRKNS_10HeaderInfoERKNS_11ICollectionINS1_IT_EEEEEUlRKS3_E_EE,"awG",@progbits,_ZTIN8opendnp314FunctorVisitorINS_7IndexedINS_6BinaryEEEZN8asiodnp318PrintingSOEHandler8PrintAllIS2_EEvRKNS_10HeaderInfoERKNS_11ICollectionINS1_IT_EEEEEUlRKS3_E_EE,comdat
	.align 8
	.type	_ZTIN8opendnp314FunctorVisitorINS_7IndexedINS_6BinaryEEEZN8asiodnp318PrintingSOEHandler8PrintAllIS2_EEvRKNS_10HeaderInfoERKNS_11ICollectionINS1_IT_EEEEEUlRKS3_E_EE, @object
	.size	_ZTIN8opendnp314FunctorVisitorINS_7IndexedINS_6BinaryEEEZN8asiodnp318PrintingSOEHandler8PrintAllIS2_EEvRKNS_10HeaderInfoERKNS_11ICollectionINS1_IT_EEEEEUlRKS3_E_EE, 24
_ZTIN8opendnp314FunctorVisitorINS_7IndexedINS_6BinaryEEEZN8asiodnp318PrintingSOEHandler8PrintAllIS2_EEvRKNS_10HeaderInfoERKNS_11ICollectionINS1_IT_EEEEEUlRKS3_E_EE:
	.quad	_ZTVN10__cxxabiv120__si_class_type_infoE+16
	.quad	_ZTSN8opendnp314FunctorVisitorINS_7IndexedINS_6BinaryEEEZN8asiodnp318PrintingSOEHandler8PrintAllIS2_EEvRKNS_10HeaderInfoERKNS_11ICollectionINS1_IT_EEEEEUlRKS3_E_EE
	.quad	_ZTIN8opendnp38IVisitorINS_7IndexedINS_6BinaryEEEEE
	.weak	_ZTSN8opendnp38IVisitorINS_7IndexedINS_15DoubleBitBinaryEEEEE
	.section	.rodata._ZTSN8opendnp38IVisitorINS_7IndexedINS_15DoubleBitBinaryEEEEE,"aG",@progbits,_ZTSN8opendnp38IVisitorINS_7IndexedINS_15DoubleBitBinaryEEEEE,comdat
	.align 32
	.type	_ZTSN8opendnp38IVisitorINS_7IndexedINS_15DoubleBitBinaryEEEEE, @object
	.size	_ZTSN8opendnp38IVisitorINS_7IndexedINS_15DoubleBitBinaryEEEEE, 58
_ZTSN8opendnp38IVisitorINS_7IndexedINS_15DoubleBitBinaryEEEEE:
	.string	"N8opendnp38IVisitorINS_7IndexedINS_15DoubleBitBinaryEEEEE"
	.weak	_ZTIN8opendnp38IVisitorINS_7IndexedINS_15DoubleBitBinaryEEEEE
	.section	.data.rel.ro._ZTIN8opendnp38IVisitorINS_7IndexedINS_15DoubleBitBinaryEEEEE,"awG",@progbits,_ZTIN8opendnp38IVisitorINS_7IndexedINS_15DoubleBitBinaryEEEEE,comdat
	.align 8
	.type	_ZTIN8opendnp38IVisitorINS_7IndexedINS_15DoubleBitBinaryEEEEE, @object
	.size	_ZTIN8opendnp38IVisitorINS_7IndexedINS_15DoubleBitBinaryEEEEE, 16
_ZTIN8opendnp38IVisitorINS_7IndexedINS_15DoubleBitBinaryEEEEE:
	.quad	_ZTVN10__cxxabiv117__class_type_infoE+16
	.quad	_ZTSN8opendnp38IVisitorINS_7IndexedINS_15DoubleBitBinaryEEEEE
	.weak	_ZTSN8opendnp314FunctorVisitorINS_7IndexedINS_15DoubleBitBinaryEEEZN8asiodnp318PrintingSOEHandler8PrintAllIS2_EEvRKNS_10HeaderInfoERKNS_11ICollectionINS1_IT_EEEEEUlRKS3_E_EE
	.section	.rodata._ZTSN8opendnp314FunctorVisitorINS_7IndexedINS_15DoubleBitBinaryEEEZN8asiodnp318PrintingSOEHandler8PrintAllIS2_EEvRKNS_10HeaderInfoERKNS_11ICollectionINS1_IT_EEEEEUlRKS3_E_EE,"aG",@progbits,_ZTSN8opendnp314FunctorVisitorINS_7IndexedINS_15DoubleBitBinaryEEEZN8asiodnp318PrintingSOEHandler8PrintAllIS2_EEvRKNS_10HeaderInfoERKNS_11ICollectionINS1_IT_EEEEEUlRKS3_E_EE,comdat
	.align 32
	.type	_ZTSN8opendnp314FunctorVisitorINS_7IndexedINS_15DoubleBitBinaryEEEZN8asiodnp318PrintingSOEHandler8PrintAllIS2_EEvRKNS_10HeaderInfoERKNS_11ICollectionINS1_IT_EEEEEUlRKS3_E_EE, @object
	.size	_ZTSN8opendnp314FunctorVisitorINS_7IndexedINS_15DoubleBitBinaryEEEZN8asiodnp318PrintingSOEHandler8PrintAllIS2_EEvRKNS_10HeaderInfoERKNS_11ICollectionINS1_IT_EEEEEUlRKS3_E_EE, 170
_ZTSN8opendnp314FunctorVisitorINS_7IndexedINS_15DoubleBitBinaryEEEZN8asiodnp318PrintingSOEHandler8PrintAllIS2_EEvRKNS_10HeaderInfoERKNS_11ICollectionINS1_IT_EEEEEUlRKS3_E_EE:
	.string	"N8opendnp314FunctorVisitorINS_7IndexedINS_15DoubleBitBinaryEEEZN8asiodnp318PrintingSOEHandler8PrintAllIS2_EEvRKNS_10HeaderInfoERKNS_11ICollectionINS1_IT_EEEEEUlRKS3_E_EE"
	.weak	_ZTIN8opendnp314FunctorVisitorINS_7IndexedINS_15DoubleBitBinaryEEEZN8asiodnp318PrintingSOEHandler8PrintAllIS2_EEvRKNS_10HeaderInfoERKNS_11ICollectionINS1_IT_EEEEEUlRKS3_E_EE
	.section	.data.rel.ro._ZTIN8opendnp314FunctorVisitorINS_7IndexedINS_15DoubleBitBinaryEEEZN8asiodnp318PrintingSOEHandler8PrintAllIS2_EEvRKNS_10HeaderInfoERKNS_11ICollectionINS1_IT_EEEEEUlRKS3_E_EE,"awG",@progbits,_ZTIN8opendnp314FunctorVisitorINS_7IndexedINS_15DoubleBitBinaryEEEZN8asiodnp318PrintingSOEHandler8PrintAllIS2_EEvRKNS_10HeaderInfoERKNS_11ICollectionINS1_IT_EEEEEUlRKS3_E_EE,comdat
	.align 8
	.type	_ZTIN8opendnp314FunctorVisitorINS_7IndexedINS_15DoubleBitBinaryEEEZN8asiodnp318PrintingSOEHandler8PrintAllIS2_EEvRKNS_10HeaderInfoERKNS_11ICollectionINS1_IT_EEEEEUlRKS3_E_EE, @object
	.size	_ZTIN8opendnp314FunctorVisitorINS_7IndexedINS_15DoubleBitBinaryEEEZN8asiodnp318PrintingSOEHandler8PrintAllIS2_EEvRKNS_10HeaderInfoERKNS_11ICollectionINS1_IT_EEEEEUlRKS3_E_EE, 24
_ZTIN8opendnp314FunctorVisitorINS_7IndexedINS_15DoubleBitBinaryEEEZN8asiodnp318PrintingSOEHandler8PrintAllIS2_EEvRKNS_10HeaderInfoERKNS_11ICollectionINS1_IT_EEEEEUlRKS3_E_EE:
	.quad	_ZTVN10__cxxabiv120__si_class_type_infoE+16
	.quad	_ZTSN8opendnp314FunctorVisitorINS_7IndexedINS_15DoubleBitBinaryEEEZN8asiodnp318PrintingSOEHandler8PrintAllIS2_EEvRKNS_10HeaderInfoERKNS_11ICollectionINS1_IT_EEEEEUlRKS3_E_EE
	.quad	_ZTIN8opendnp38IVisitorINS_7IndexedINS_15DoubleBitBinaryEEEEE
	.weak	_ZTSN8opendnp38IVisitorINS_7IndexedINS_6AnalogEEEEE
	.section	.rodata._ZTSN8opendnp38IVisitorINS_7IndexedINS_6AnalogEEEEE,"aG",@progbits,_ZTSN8opendnp38IVisitorINS_7IndexedINS_6AnalogEEEEE,comdat
	.align 32
	.type	_ZTSN8opendnp38IVisitorINS_7IndexedINS_6AnalogEEEEE, @object
	.size	_ZTSN8opendnp38IVisitorINS_7IndexedINS_6AnalogEEEEE, 48
_ZTSN8opendnp38IVisitorINS_7IndexedINS_6AnalogEEEEE:
	.string	"N8opendnp38IVisitorINS_7IndexedINS_6AnalogEEEEE"
	.weak	_ZTIN8opendnp38IVisitorINS_7IndexedINS_6AnalogEEEEE
	.section	.data.rel.ro._ZTIN8opendnp38IVisitorINS_7IndexedINS_6AnalogEEEEE,"awG",@progbits,_ZTIN8opendnp38IVisitorINS_7IndexedINS_6AnalogEEEEE,comdat
	.align 8
	.type	_ZTIN8opendnp38IVisitorINS_7IndexedINS_6AnalogEEEEE, @object
	.size	_ZTIN8opendnp38IVisitorINS_7IndexedINS_6AnalogEEEEE, 16
_ZTIN8opendnp38IVisitorINS_7IndexedINS_6AnalogEEEEE:
	.quad	_ZTVN10__cxxabiv117__class_type_infoE+16
	.quad	_ZTSN8opendnp38IVisitorINS_7IndexedINS_6AnalogEEEEE
	.weak	_ZTSN8opendnp314FunctorVisitorINS_7IndexedINS_6AnalogEEEZN8asiodnp318PrintingSOEHandler8PrintAllIS2_EEvRKNS_10HeaderInfoERKNS_11ICollectionINS1_IT_EEEEEUlRKS3_E_EE
	.section	.rodata._ZTSN8opendnp314FunctorVisitorINS_7IndexedINS_6AnalogEEEZN8asiodnp318PrintingSOEHandler8PrintAllIS2_EEvRKNS_10HeaderInfoERKNS_11ICollectionINS1_IT_EEEEEUlRKS3_E_EE,"aG",@progbits,_ZTSN8opendnp314FunctorVisitorINS_7IndexedINS_6AnalogEEEZN8asiodnp318PrintingSOEHandler8PrintAllIS2_EEvRKNS_10HeaderInfoERKNS_11ICollectionINS1_IT_EEEEEUlRKS3_E_EE,comdat
	.align 32
	.type	_ZTSN8opendnp314FunctorVisitorINS_7IndexedINS_6AnalogEEEZN8asiodnp318PrintingSOEHandler8PrintAllIS2_EEvRKNS_10HeaderInfoERKNS_11ICollectionINS1_IT_EEEEEUlRKS3_E_EE, @object
	.size	_ZTSN8opendnp314FunctorVisitorINS_7IndexedINS_6AnalogEEEZN8asiodnp318PrintingSOEHandler8PrintAllIS2_EEvRKNS_10HeaderInfoERKNS_11ICollectionINS1_IT_EEEEEUlRKS3_E_EE, 160
_ZTSN8opendnp314FunctorVisitorINS_7IndexedINS_6AnalogEEEZN8asiodnp318PrintingSOEHandler8PrintAllIS2_EEvRKNS_10HeaderInfoERKNS_11ICollectionINS1_IT_EEEEEUlRKS3_E_EE:
	.string	"N8opendnp314FunctorVisitorINS_7IndexedINS_6AnalogEEEZN8asiodnp318PrintingSOEHandler8PrintAllIS2_EEvRKNS_10HeaderInfoERKNS_11ICollectionINS1_IT_EEEEEUlRKS3_E_EE"
	.weak	_ZTIN8opendnp314FunctorVisitorINS_7IndexedINS_6AnalogEEEZN8asiodnp318PrintingSOEHandler8PrintAllIS2_EEvRKNS_10HeaderInfoERKNS_11ICollectionINS1_IT_EEEEEUlRKS3_E_EE
	.section	.data.rel.ro._ZTIN8opendnp314FunctorVisitorINS_7IndexedINS_6AnalogEEEZN8asiodnp318PrintingSOEHandler8PrintAllIS2_EEvRKNS_10HeaderInfoERKNS_11ICollectionINS1_IT_EEEEEUlRKS3_E_EE,"awG",@progbits,_ZTIN8opendnp314FunctorVisitorINS_7IndexedINS_6AnalogEEEZN8asiodnp318PrintingSOEHandler8PrintAllIS2_EEvRKNS_10HeaderInfoERKNS_11ICollectionINS1_IT_EEEEEUlRKS3_E_EE,comdat
	.align 8
	.type	_ZTIN8opendnp314FunctorVisitorINS_7IndexedINS_6AnalogEEEZN8asiodnp318PrintingSOEHandler8PrintAllIS2_EEvRKNS_10HeaderInfoERKNS_11ICollectionINS1_IT_EEEEEUlRKS3_E_EE, @object
	.size	_ZTIN8opendnp314FunctorVisitorINS_7IndexedINS_6AnalogEEEZN8asiodnp318PrintingSOEHandler8PrintAllIS2_EEvRKNS_10HeaderInfoERKNS_11ICollectionINS1_IT_EEEEEUlRKS3_E_EE, 24
_ZTIN8opendnp314FunctorVisitorINS_7IndexedINS_6AnalogEEEZN8asiodnp318PrintingSOEHandler8PrintAllIS2_EEvRKNS_10HeaderInfoERKNS_11ICollectionINS1_IT_EEEEEUlRKS3_E_EE:
	.quad	_ZTVN10__cxxabiv120__si_class_type_infoE+16
	.quad	_ZTSN8opendnp314FunctorVisitorINS_7IndexedINS_6AnalogEEEZN8asiodnp318PrintingSOEHandler8PrintAllIS2_EEvRKNS_10HeaderInfoERKNS_11ICollectionINS1_IT_EEEEEUlRKS3_E_EE
	.quad	_ZTIN8opendnp38IVisitorINS_7IndexedINS_6AnalogEEEEE
	.weak	_ZTSN8opendnp38IVisitorINS_7IndexedINS_7CounterEEEEE
	.section	.rodata._ZTSN8opendnp38IVisitorINS_7IndexedINS_7CounterEEEEE,"aG",@progbits,_ZTSN8opendnp38IVisitorINS_7IndexedINS_7CounterEEEEE,comdat
	.align 32
	.type	_ZTSN8opendnp38IVisitorINS_7IndexedINS_7CounterEEEEE, @object
	.size	_ZTSN8opendnp38IVisitorINS_7IndexedINS_7CounterEEEEE, 49
_ZTSN8opendnp38IVisitorINS_7IndexedINS_7CounterEEEEE:
	.string	"N8opendnp38IVisitorINS_7IndexedINS_7CounterEEEEE"
	.weak	_ZTIN8opendnp38IVisitorINS_7IndexedINS_7CounterEEEEE
	.section	.data.rel.ro._ZTIN8opendnp38IVisitorINS_7IndexedINS_7CounterEEEEE,"awG",@progbits,_ZTIN8opendnp38IVisitorINS_7IndexedINS_7CounterEEEEE,comdat
	.align 8
	.type	_ZTIN8opendnp38IVisitorINS_7IndexedINS_7CounterEEEEE, @object
	.size	_ZTIN8opendnp38IVisitorINS_7IndexedINS_7CounterEEEEE, 16
_ZTIN8opendnp38IVisitorINS_7IndexedINS_7CounterEEEEE:
	.quad	_ZTVN10__cxxabiv117__class_type_infoE+16
	.quad	_ZTSN8opendnp38IVisitorINS_7IndexedINS_7CounterEEEEE
	.weak	_ZTSN8opendnp314FunctorVisitorINS_7IndexedINS_7CounterEEEZN8asiodnp318PrintingSOEHandler8PrintAllIS2_EEvRKNS_10HeaderInfoERKNS_11ICollectionINS1_IT_EEEEEUlRKS3_E_EE
	.section	.rodata._ZTSN8opendnp314FunctorVisitorINS_7IndexedINS_7CounterEEEZN8asiodnp318PrintingSOEHandler8PrintAllIS2_EEvRKNS_10HeaderInfoERKNS_11ICollectionINS1_IT_EEEEEUlRKS3_E_EE,"aG",@progbits,_ZTSN8opendnp314FunctorVisitorINS_7IndexedINS_7CounterEEEZN8asiodnp318PrintingSOEHandler8PrintAllIS2_EEvRKNS_10HeaderInfoERKNS_11ICollectionINS1_IT_EEEEEUlRKS3_E_EE,comdat
	.align 32
	.type	_ZTSN8opendnp314FunctorVisitorINS_7IndexedINS_7CounterEEEZN8asiodnp318PrintingSOEHandler8PrintAllIS2_EEvRKNS_10HeaderInfoERKNS_11ICollectionINS1_IT_EEEEEUlRKS3_E_EE, @object
	.size	_ZTSN8opendnp314FunctorVisitorINS_7IndexedINS_7CounterEEEZN8asiodnp318PrintingSOEHandler8PrintAllIS2_EEvRKNS_10HeaderInfoERKNS_11ICollectionINS1_IT_EEEEEUlRKS3_E_EE, 161
_ZTSN8opendnp314FunctorVisitorINS_7IndexedINS_7CounterEEEZN8asiodnp318PrintingSOEHandler8PrintAllIS2_EEvRKNS_10HeaderInfoERKNS_11ICollectionINS1_IT_EEEEEUlRKS3_E_EE:
	.string	"N8opendnp314FunctorVisitorINS_7IndexedINS_7CounterEEEZN8asiodnp318PrintingSOEHandler8PrintAllIS2_EEvRKNS_10HeaderInfoERKNS_11ICollectionINS1_IT_EEEEEUlRKS3_E_EE"
	.weak	_ZTIN8opendnp314FunctorVisitorINS_7IndexedINS_7CounterEEEZN8asiodnp318PrintingSOEHandler8PrintAllIS2_EEvRKNS_10HeaderInfoERKNS_11ICollectionINS1_IT_EEEEEUlRKS3_E_EE
	.section	.data.rel.ro._ZTIN8opendnp314FunctorVisitorINS_7IndexedINS_7CounterEEEZN8asiodnp318PrintingSOEHandler8PrintAllIS2_EEvRKNS_10HeaderInfoERKNS_11ICollectionINS1_IT_EEEEEUlRKS3_E_EE,"awG",@progbits,_ZTIN8opendnp314FunctorVisitorINS_7IndexedINS_7CounterEEEZN8asiodnp318PrintingSOEHandler8PrintAllIS2_EEvRKNS_10HeaderInfoERKNS_11ICollectionINS1_IT_EEEEEUlRKS3_E_EE,comdat
	.align 8
	.type	_ZTIN8opendnp314FunctorVisitorINS_7IndexedINS_7CounterEEEZN8asiodnp318PrintingSOEHandler8PrintAllIS2_EEvRKNS_10HeaderInfoERKNS_11ICollectionINS1_IT_EEEEEUlRKS3_E_EE, @object
	.size	_ZTIN8opendnp314FunctorVisitorINS_7IndexedINS_7CounterEEEZN8asiodnp318PrintingSOEHandler8PrintAllIS2_EEvRKNS_10HeaderInfoERKNS_11ICollectionINS1_IT_EEEEEUlRKS3_E_EE, 24
_ZTIN8opendnp314FunctorVisitorINS_7IndexedINS_7CounterEEEZN8asiodnp318PrintingSOEHandler8PrintAllIS2_EEvRKNS_10HeaderInfoERKNS_11ICollectionINS1_IT_EEEEEUlRKS3_E_EE:
	.quad	_ZTVN10__cxxabiv120__si_class_type_infoE+16
	.quad	_ZTSN8opendnp314FunctorVisitorINS_7IndexedINS_7CounterEEEZN8asiodnp318PrintingSOEHandler8PrintAllIS2_EEvRKNS_10HeaderInfoERKNS_11ICollectionINS1_IT_EEEEEUlRKS3_E_EE
	.quad	_ZTIN8opendnp38IVisitorINS_7IndexedINS_7CounterEEEEE
	.weak	_ZTSN8opendnp38IVisitorINS_7IndexedINS_13FrozenCounterEEEEE
	.section	.rodata._ZTSN8opendnp38IVisitorINS_7IndexedINS_13FrozenCounterEEEEE,"aG",@progbits,_ZTSN8opendnp38IVisitorINS_7IndexedINS_13FrozenCounterEEEEE,comdat
	.align 32
	.type	_ZTSN8opendnp38IVisitorINS_7IndexedINS_13FrozenCounterEEEEE, @object
	.size	_ZTSN8opendnp38IVisitorINS_7IndexedINS_13FrozenCounterEEEEE, 56
_ZTSN8opendnp38IVisitorINS_7IndexedINS_13FrozenCounterEEEEE:
	.string	"N8opendnp38IVisitorINS_7IndexedINS_13FrozenCounterEEEEE"
	.weak	_ZTIN8opendnp38IVisitorINS_7IndexedINS_13FrozenCounterEEEEE
	.section	.data.rel.ro._ZTIN8opendnp38IVisitorINS_7IndexedINS_13FrozenCounterEEEEE,"awG",@progbits,_ZTIN8opendnp38IVisitorINS_7IndexedINS_13FrozenCounterEEEEE,comdat
	.align 8
	.type	_ZTIN8opendnp38IVisitorINS_7IndexedINS_13FrozenCounterEEEEE, @object
	.size	_ZTIN8opendnp38IVisitorINS_7IndexedINS_13FrozenCounterEEEEE, 16
_ZTIN8opendnp38IVisitorINS_7IndexedINS_13FrozenCounterEEEEE:
	.quad	_ZTVN10__cxxabiv117__class_type_infoE+16
	.quad	_ZTSN8opendnp38IVisitorINS_7IndexedINS_13FrozenCounterEEEEE
	.weak	_ZTSN8opendnp314FunctorVisitorINS_7IndexedINS_13FrozenCounterEEEZN8asiodnp318PrintingSOEHandler8PrintAllIS2_EEvRKNS_10HeaderInfoERKNS_11ICollectionINS1_IT_EEEEEUlRKS3_E_EE
	.section	.rodata._ZTSN8opendnp314FunctorVisitorINS_7IndexedINS_13FrozenCounterEEEZN8asiodnp318PrintingSOEHandler8PrintAllIS2_EEvRKNS_10HeaderInfoERKNS_11ICollectionINS1_IT_EEEEEUlRKS3_E_EE,"aG",@progbits,_ZTSN8opendnp314FunctorVisitorINS_7IndexedINS_13FrozenCounterEEEZN8asiodnp318PrintingSOEHandler8PrintAllIS2_EEvRKNS_10HeaderInfoERKNS_11ICollectionINS1_IT_EEEEEUlRKS3_E_EE,comdat
	.align 32
	.type	_ZTSN8opendnp314FunctorVisitorINS_7IndexedINS_13FrozenCounterEEEZN8asiodnp318PrintingSOEHandler8PrintAllIS2_EEvRKNS_10HeaderInfoERKNS_11ICollectionINS1_IT_EEEEEUlRKS3_E_EE, @object
	.size	_ZTSN8opendnp314FunctorVisitorINS_7IndexedINS_13FrozenCounterEEEZN8asiodnp318PrintingSOEHandler8PrintAllIS2_EEvRKNS_10HeaderInfoERKNS_11ICollectionINS1_IT_EEEEEUlRKS3_E_EE, 168
_ZTSN8opendnp314FunctorVisitorINS_7IndexedINS_13FrozenCounterEEEZN8asiodnp318PrintingSOEHandler8PrintAllIS2_EEvRKNS_10HeaderInfoERKNS_11ICollectionINS1_IT_EEEEEUlRKS3_E_EE:
	.string	"N8opendnp314FunctorVisitorINS_7IndexedINS_13FrozenCounterEEEZN8asiodnp318PrintingSOEHandler8PrintAllIS2_EEvRKNS_10HeaderInfoERKNS_11ICollectionINS1_IT_EEEEEUlRKS3_E_EE"
	.weak	_ZTIN8opendnp314FunctorVisitorINS_7IndexedINS_13FrozenCounterEEEZN8asiodnp318PrintingSOEHandler8PrintAllIS2_EEvRKNS_10HeaderInfoERKNS_11ICollectionINS1_IT_EEEEEUlRKS3_E_EE
	.section	.data.rel.ro._ZTIN8opendnp314FunctorVisitorINS_7IndexedINS_13FrozenCounterEEEZN8asiodnp318PrintingSOEHandler8PrintAllIS2_EEvRKNS_10HeaderInfoERKNS_11ICollectionINS1_IT_EEEEEUlRKS3_E_EE,"awG",@progbits,_ZTIN8opendnp314FunctorVisitorINS_7IndexedINS_13FrozenCounterEEEZN8asiodnp318PrintingSOEHandler8PrintAllIS2_EEvRKNS_10HeaderInfoERKNS_11ICollectionINS1_IT_EEEEEUlRKS3_E_EE,comdat
	.align 8
	.type	_ZTIN8opendnp314FunctorVisitorINS_7IndexedINS_13FrozenCounterEEEZN8asiodnp318PrintingSOEHandler8PrintAllIS2_EEvRKNS_10HeaderInfoERKNS_11ICollectionINS1_IT_EEEEEUlRKS3_E_EE, @object
	.size	_ZTIN8opendnp314FunctorVisitorINS_7IndexedINS_13FrozenCounterEEEZN8asiodnp318PrintingSOEHandler8PrintAllIS2_EEvRKNS_10HeaderInfoERKNS_11ICollectionINS1_IT_EEEEEUlRKS3_E_EE, 24
_ZTIN8opendnp314FunctorVisitorINS_7IndexedINS_13FrozenCounterEEEZN8asiodnp318PrintingSOEHandler8PrintAllIS2_EEvRKNS_10HeaderInfoERKNS_11ICollectionINS1_IT_EEEEEUlRKS3_E_EE:
	.quad	_ZTVN10__cxxabiv120__si_class_type_infoE+16
	.quad	_ZTSN8opendnp314FunctorVisitorINS_7IndexedINS_13FrozenCounterEEEZN8asiodnp318PrintingSOEHandler8PrintAllIS2_EEvRKNS_10HeaderInfoERKNS_11ICollectionINS1_IT_EEEEEUlRKS3_E_EE
	.quad	_ZTIN8opendnp38IVisitorINS_7IndexedINS_13FrozenCounterEEEEE
	.weak	_ZTSN8opendnp38IVisitorINS_7IndexedINS_18BinaryOutputStatusEEEEE
	.section	.rodata._ZTSN8opendnp38IVisitorINS_7IndexedINS_18BinaryOutputStatusEEEEE,"aG",@progbits,_ZTSN8opendnp38IVisitorINS_7IndexedINS_18BinaryOutputStatusEEEEE,comdat
	.align 32
	.type	_ZTSN8opendnp38IVisitorINS_7IndexedINS_18BinaryOutputStatusEEEEE, @object
	.size	_ZTSN8opendnp38IVisitorINS_7IndexedINS_18BinaryOutputStatusEEEEE, 61
_ZTSN8opendnp38IVisitorINS_7IndexedINS_18BinaryOutputStatusEEEEE:
	.string	"N8opendnp38IVisitorINS_7IndexedINS_18BinaryOutputStatusEEEEE"
	.weak	_ZTIN8opendnp38IVisitorINS_7IndexedINS_18BinaryOutputStatusEEEEE
	.section	.data.rel.ro._ZTIN8opendnp38IVisitorINS_7IndexedINS_18BinaryOutputStatusEEEEE,"awG",@progbits,_ZTIN8opendnp38IVisitorINS_7IndexedINS_18BinaryOutputStatusEEEEE,comdat
	.align 8
	.type	_ZTIN8opendnp38IVisitorINS_7IndexedINS_18BinaryOutputStatusEEEEE, @object
	.size	_ZTIN8opendnp38IVisitorINS_7IndexedINS_18BinaryOutputStatusEEEEE, 16
_ZTIN8opendnp38IVisitorINS_7IndexedINS_18BinaryOutputStatusEEEEE:
	.quad	_ZTVN10__cxxabiv117__class_type_infoE+16
	.quad	_ZTSN8opendnp38IVisitorINS_7IndexedINS_18BinaryOutputStatusEEEEE
	.weak	_ZTSN8opendnp314FunctorVisitorINS_7IndexedINS_18BinaryOutputStatusEEEZN8asiodnp318PrintingSOEHandler8PrintAllIS2_EEvRKNS_10HeaderInfoERKNS_11ICollectionINS1_IT_EEEEEUlRKS3_E_EE
	.section	.rodata._ZTSN8opendnp314FunctorVisitorINS_7IndexedINS_18BinaryOutputStatusEEEZN8asiodnp318PrintingSOEHandler8PrintAllIS2_EEvRKNS_10HeaderInfoERKNS_11ICollectionINS1_IT_EEEEEUlRKS3_E_EE,"aG",@progbits,_ZTSN8opendnp314FunctorVisitorINS_7IndexedINS_18BinaryOutputStatusEEEZN8asiodnp318PrintingSOEHandler8PrintAllIS2_EEvRKNS_10HeaderInfoERKNS_11ICollectionINS1_IT_EEEEEUlRKS3_E_EE,comdat
	.align 32
	.type	_ZTSN8opendnp314FunctorVisitorINS_7IndexedINS_18BinaryOutputStatusEEEZN8asiodnp318PrintingSOEHandler8PrintAllIS2_EEvRKNS_10HeaderInfoERKNS_11ICollectionINS1_IT_EEEEEUlRKS3_E_EE, @object
	.size	_ZTSN8opendnp314FunctorVisitorINS_7IndexedINS_18BinaryOutputStatusEEEZN8asiodnp318PrintingSOEHandler8PrintAllIS2_EEvRKNS_10HeaderInfoERKNS_11ICollectionINS1_IT_EEEEEUlRKS3_E_EE, 173
_ZTSN8opendnp314FunctorVisitorINS_7IndexedINS_18BinaryOutputStatusEEEZN8asiodnp318PrintingSOEHandler8PrintAllIS2_EEvRKNS_10HeaderInfoERKNS_11ICollectionINS1_IT_EEEEEUlRKS3_E_EE:
	.string	"N8opendnp314FunctorVisitorINS_7IndexedINS_18BinaryOutputStatusEEEZN8asiodnp318PrintingSOEHandler8PrintAllIS2_EEvRKNS_10HeaderInfoERKNS_11ICollectionINS1_IT_EEEEEUlRKS3_E_EE"
	.weak	_ZTIN8opendnp314FunctorVisitorINS_7IndexedINS_18BinaryOutputStatusEEEZN8asiodnp318PrintingSOEHandler8PrintAllIS2_EEvRKNS_10HeaderInfoERKNS_11ICollectionINS1_IT_EEEEEUlRKS3_E_EE
	.section	.data.rel.ro._ZTIN8opendnp314FunctorVisitorINS_7IndexedINS_18BinaryOutputStatusEEEZN8asiodnp318PrintingSOEHandler8PrintAllIS2_EEvRKNS_10HeaderInfoERKNS_11ICollectionINS1_IT_EEEEEUlRKS3_E_EE,"awG",@progbits,_ZTIN8opendnp314FunctorVisitorINS_7IndexedINS_18BinaryOutputStatusEEEZN8asiodnp318PrintingSOEHandler8PrintAllIS2_EEvRKNS_10HeaderInfoERKNS_11ICollectionINS1_IT_EEEEEUlRKS3_E_EE,comdat
	.align 8
	.type	_ZTIN8opendnp314FunctorVisitorINS_7IndexedINS_18BinaryOutputStatusEEEZN8asiodnp318PrintingSOEHandler8PrintAllIS2_EEvRKNS_10HeaderInfoERKNS_11ICollectionINS1_IT_EEEEEUlRKS3_E_EE, @object
	.size	_ZTIN8opendnp314FunctorVisitorINS_7IndexedINS_18BinaryOutputStatusEEEZN8asiodnp318PrintingSOEHandler8PrintAllIS2_EEvRKNS_10HeaderInfoERKNS_11ICollectionINS1_IT_EEEEEUlRKS3_E_EE, 24
_ZTIN8opendnp314FunctorVisitorINS_7IndexedINS_18BinaryOutputStatusEEEZN8asiodnp318PrintingSOEHandler8PrintAllIS2_EEvRKNS_10HeaderInfoERKNS_11ICollectionINS1_IT_EEEEEUlRKS3_E_EE:
	.quad	_ZTVN10__cxxabiv120__si_class_type_infoE+16
	.quad	_ZTSN8opendnp314FunctorVisitorINS_7IndexedINS_18BinaryOutputStatusEEEZN8asiodnp318PrintingSOEHandler8PrintAllIS2_EEvRKNS_10HeaderInfoERKNS_11ICollectionINS1_IT_EEEEEUlRKS3_E_EE
	.quad	_ZTIN8opendnp38IVisitorINS_7IndexedINS_18BinaryOutputStatusEEEEE
	.weak	_ZTSN8opendnp38IVisitorINS_7IndexedINS_18AnalogOutputStatusEEEEE
	.section	.rodata._ZTSN8opendnp38IVisitorINS_7IndexedINS_18AnalogOutputStatusEEEEE,"aG",@progbits,_ZTSN8opendnp38IVisitorINS_7IndexedINS_18AnalogOutputStatusEEEEE,comdat
	.align 32
	.type	_ZTSN8opendnp38IVisitorINS_7IndexedINS_18AnalogOutputStatusEEEEE, @object
	.size	_ZTSN8opendnp38IVisitorINS_7IndexedINS_18AnalogOutputStatusEEEEE, 61
_ZTSN8opendnp38IVisitorINS_7IndexedINS_18AnalogOutputStatusEEEEE:
	.string	"N8opendnp38IVisitorINS_7IndexedINS_18AnalogOutputStatusEEEEE"
	.weak	_ZTIN8opendnp38IVisitorINS_7IndexedINS_18AnalogOutputStatusEEEEE
	.section	.data.rel.ro._ZTIN8opendnp38IVisitorINS_7IndexedINS_18AnalogOutputStatusEEEEE,"awG",@progbits,_ZTIN8opendnp38IVisitorINS_7IndexedINS_18AnalogOutputStatusEEEEE,comdat
	.align 8
	.type	_ZTIN8opendnp38IVisitorINS_7IndexedINS_18AnalogOutputStatusEEEEE, @object
	.size	_ZTIN8opendnp38IVisitorINS_7IndexedINS_18AnalogOutputStatusEEEEE, 16
_ZTIN8opendnp38IVisitorINS_7IndexedINS_18AnalogOutputStatusEEEEE:
	.quad	_ZTVN10__cxxabiv117__class_type_infoE+16
	.quad	_ZTSN8opendnp38IVisitorINS_7IndexedINS_18AnalogOutputStatusEEEEE
	.weak	_ZTSN8opendnp314FunctorVisitorINS_7IndexedINS_18AnalogOutputStatusEEEZN8asiodnp318PrintingSOEHandler8PrintAllIS2_EEvRKNS_10HeaderInfoERKNS_11ICollectionINS1_IT_EEEEEUlRKS3_E_EE
	.section	.rodata._ZTSN8opendnp314FunctorVisitorINS_7IndexedINS_18AnalogOutputStatusEEEZN8asiodnp318PrintingSOEHandler8PrintAllIS2_EEvRKNS_10HeaderInfoERKNS_11ICollectionINS1_IT_EEEEEUlRKS3_E_EE,"aG",@progbits,_ZTSN8opendnp314FunctorVisitorINS_7IndexedINS_18AnalogOutputStatusEEEZN8asiodnp318PrintingSOEHandler8PrintAllIS2_EEvRKNS_10HeaderInfoERKNS_11ICollectionINS1_IT_EEEEEUlRKS3_E_EE,comdat
	.align 32
	.type	_ZTSN8opendnp314FunctorVisitorINS_7IndexedINS_18AnalogOutputStatusEEEZN8asiodnp318PrintingSOEHandler8PrintAllIS2_EEvRKNS_10HeaderInfoERKNS_11ICollectionINS1_IT_EEEEEUlRKS3_E_EE, @object
	.size	_ZTSN8opendnp314FunctorVisitorINS_7IndexedINS_18AnalogOutputStatusEEEZN8asiodnp318PrintingSOEHandler8PrintAllIS2_EEvRKNS_10HeaderInfoERKNS_11ICollectionINS1_IT_EEEEEUlRKS3_E_EE, 173
_ZTSN8opendnp314FunctorVisitorINS_7IndexedINS_18AnalogOutputStatusEEEZN8asiodnp318PrintingSOEHandler8PrintAllIS2_EEvRKNS_10HeaderInfoERKNS_11ICollectionINS1_IT_EEEEEUlRKS3_E_EE:
	.string	"N8opendnp314FunctorVisitorINS_7IndexedINS_18AnalogOutputStatusEEEZN8asiodnp318PrintingSOEHandler8PrintAllIS2_EEvRKNS_10HeaderInfoERKNS_11ICollectionINS1_IT_EEEEEUlRKS3_E_EE"
	.weak	_ZTIN8opendnp314FunctorVisitorINS_7IndexedINS_18AnalogOutputStatusEEEZN8asiodnp318PrintingSOEHandler8PrintAllIS2_EEvRKNS_10HeaderInfoERKNS_11ICollectionINS1_IT_EEEEEUlRKS3_E_EE
	.section	.data.rel.ro._ZTIN8opendnp314FunctorVisitorINS_7IndexedINS_18AnalogOutputStatusEEEZN8asiodnp318PrintingSOEHandler8PrintAllIS2_EEvRKNS_10HeaderInfoERKNS_11ICollectionINS1_IT_EEEEEUlRKS3_E_EE,"awG",@progbits,_ZTIN8opendnp314FunctorVisitorINS_7IndexedINS_18AnalogOutputStatusEEEZN8asiodnp318PrintingSOEHandler8PrintAllIS2_EEvRKNS_10HeaderInfoERKNS_11ICollectionINS1_IT_EEEEEUlRKS3_E_EE,comdat
	.align 8
	.type	_ZTIN8opendnp314FunctorVisitorINS_7IndexedINS_18AnalogOutputStatusEEEZN8asiodnp318PrintingSOEHandler8PrintAllIS2_EEvRKNS_10HeaderInfoERKNS_11ICollectionINS1_IT_EEEEEUlRKS3_E_EE, @object
	.size	_ZTIN8opendnp314FunctorVisitorINS_7IndexedINS_18AnalogOutputStatusEEEZN8asiodnp318PrintingSOEHandler8PrintAllIS2_EEvRKNS_10HeaderInfoERKNS_11ICollectionINS1_IT_EEEEEUlRKS3_E_EE, 24
_ZTIN8opendnp314FunctorVisitorINS_7IndexedINS_18AnalogOutputStatusEEEZN8asiodnp318PrintingSOEHandler8PrintAllIS2_EEvRKNS_10HeaderInfoERKNS_11ICollectionINS1_IT_EEEEEUlRKS3_E_EE:
	.quad	_ZTVN10__cxxabiv120__si_class_type_infoE+16
	.quad	_ZTSN8opendnp314FunctorVisitorINS_7IndexedINS_18AnalogOutputStatusEEEZN8asiodnp318PrintingSOEHandler8PrintAllIS2_EEvRKNS_10HeaderInfoERKNS_11ICollectionINS1_IT_EEEEEUlRKS3_E_EE
	.quad	_ZTIN8opendnp38IVisitorINS_7IndexedINS_18AnalogOutputStatusEEEEE
	.weak	_ZTVN8asiodnp318PrintingSOEHandlerE
	.section	.data.rel.ro._ZTVN8asiodnp318PrintingSOEHandlerE,"awG",@progbits,_ZTVN8asiodnp318PrintingSOEHandlerE,comdat
	.align 8
	.type	_ZTVN8asiodnp318PrintingSOEHandlerE, @object
	.size	_ZTVN8asiodnp318PrintingSOEHandlerE, 152
_ZTVN8asiodnp318PrintingSOEHandlerE:
	.quad	0
	.quad	_ZTIN8asiodnp318PrintingSOEHandlerE
	.quad	_ZN8asiodnp318PrintingSOEHandlerD1Ev
	.quad	_ZN8asiodnp318PrintingSOEHandlerD0Ev
	.quad	_ZN8asiodnp318PrintingSOEHandler5StartEv
	.quad	_ZN8asiodnp318PrintingSOEHandler3EndEv
	.quad	_ZN8asiodnp318PrintingSOEHandler7ProcessERKN8opendnp310HeaderInfoERKNS1_11ICollectionINS1_7IndexedINS1_6BinaryEEEEE
	.quad	_ZN8asiodnp318PrintingSOEHandler7ProcessERKN8opendnp310HeaderInfoERKNS1_11ICollectionINS1_7IndexedINS1_15DoubleBitBinaryEEEEE
	.quad	_ZN8asiodnp318PrintingSOEHandler7ProcessERKN8opendnp310HeaderInfoERKNS1_11ICollectionINS1_7IndexedINS1_6AnalogEEEEE
	.quad	_ZN8asiodnp318PrintingSOEHandler7ProcessERKN8opendnp310HeaderInfoERKNS1_11ICollectionINS1_7IndexedINS1_7CounterEEEEE
	.quad	_ZN8asiodnp318PrintingSOEHandler7ProcessERKN8opendnp310HeaderInfoERKNS1_11ICollectionINS1_7IndexedINS1_13FrozenCounterEEEEE
	.quad	_ZN8asiodnp318PrintingSOEHandler7ProcessERKN8opendnp310HeaderInfoERKNS1_11ICollectionINS1_7IndexedINS1_18BinaryOutputStatusEEEEE
	.quad	_ZN8asiodnp318PrintingSOEHandler7ProcessERKN8opendnp310HeaderInfoERKNS1_11ICollectionINS1_7IndexedINS1_18AnalogOutputStatusEEEEE
	.quad	_ZN8asiodnp318PrintingSOEHandler7ProcessERKN8opendnp310HeaderInfoERKNS1_11ICollectionINS1_7IndexedINS1_11OctetStringEEEEE
	.quad	_ZN8asiodnp318PrintingSOEHandler7ProcessERKN8opendnp310HeaderInfoERKNS1_11ICollectionINS1_7IndexedINS1_15TimeAndIntervalEEEEE
	.quad	_ZN8asiodnp318PrintingSOEHandler7ProcessERKN8opendnp310HeaderInfoERKNS1_11ICollectionINS1_7IndexedINS1_18BinaryCommandEventEEEEE
	.quad	_ZN8asiodnp318PrintingSOEHandler7ProcessERKN8opendnp310HeaderInfoERKNS1_11ICollectionINS1_7IndexedINS1_18AnalogCommandEventEEEEE
	.quad	_ZN8asiodnp318PrintingSOEHandler7ProcessERKN8opendnp310HeaderInfoERKNS1_11ICollectionINS1_7IndexedINS1_12SecurityStatEEEEE
	.quad	_ZN8asiodnp318PrintingSOEHandler7ProcessERKN8opendnp310HeaderInfoERKNS1_11ICollectionIN7openpal10UInt48TypeEEE
	.section	.data.rel.ro.local,"aw"
	.align 8
	.type	_ZTVN8opendnp314FunctorVisitorINS_7IndexedINS_11OctetStringEEEZN8asiodnp318PrintingSOEHandler7ProcessERKNS_10HeaderInfoERKNS_11ICollectionIS3_EEEUlRKS3_E_EE, @object
	.size	_ZTVN8opendnp314FunctorVisitorINS_7IndexedINS_11OctetStringEEEZN8asiodnp318PrintingSOEHandler7ProcessERKNS_10HeaderInfoERKNS_11ICollectionIS3_EEEUlRKS3_E_EE, 24
_ZTVN8opendnp314FunctorVisitorINS_7IndexedINS_11OctetStringEEEZN8asiodnp318PrintingSOEHandler7ProcessERKNS_10HeaderInfoERKNS_11ICollectionIS3_EEEUlRKS3_E_EE:
	.quad	0
	.quad	_ZTIN8opendnp314FunctorVisitorINS_7IndexedINS_11OctetStringEEEZN8asiodnp318PrintingSOEHandler7ProcessERKNS_10HeaderInfoERKNS_11ICollectionIS3_EEEUlRKS3_E_EE
	.quad	_ZN8opendnp314FunctorVisitorINS_7IndexedINS_11OctetStringEEEZN8asiodnp318PrintingSOEHandler7ProcessERKNS_10HeaderInfoERKNS_11ICollectionIS3_EEEUlRKS3_E_E7OnValueESE_
	.align 8
	.type	_ZTVN8opendnp314FunctorVisitorINS_7IndexedINS_15TimeAndIntervalEEEZN8asiodnp318PrintingSOEHandler7ProcessERKNS_10HeaderInfoERKNS_11ICollectionIS3_EEEUlRKS3_E_EE, @object
	.size	_ZTVN8opendnp314FunctorVisitorINS_7IndexedINS_15TimeAndIntervalEEEZN8asiodnp318PrintingSOEHandler7ProcessERKNS_10HeaderInfoERKNS_11ICollectionIS3_EEEUlRKS3_E_EE, 24
_ZTVN8opendnp314FunctorVisitorINS_7IndexedINS_15TimeAndIntervalEEEZN8asiodnp318PrintingSOEHandler7ProcessERKNS_10HeaderInfoERKNS_11ICollectionIS3_EEEUlRKS3_E_EE:
	.quad	0
	.quad	_ZTIN8opendnp314FunctorVisitorINS_7IndexedINS_15TimeAndIntervalEEEZN8asiodnp318PrintingSOEHandler7ProcessERKNS_10HeaderInfoERKNS_11ICollectionIS3_EEEUlRKS3_E_EE
	.quad	_ZN8opendnp314FunctorVisitorINS_7IndexedINS_15TimeAndIntervalEEEZN8asiodnp318PrintingSOEHandler7ProcessERKNS_10HeaderInfoERKNS_11ICollectionIS3_EEEUlRKS3_E_E7OnValueESE_
	.align 8
	.type	_ZTVN8opendnp314FunctorVisitorINS_7IndexedINS_18BinaryCommandEventEEEZN8asiodnp318PrintingSOEHandler7ProcessERKNS_10HeaderInfoERKNS_11ICollectionIS3_EEEUlRKS3_E_EE, @object
	.size	_ZTVN8opendnp314FunctorVisitorINS_7IndexedINS_18BinaryCommandEventEEEZN8asiodnp318PrintingSOEHandler7ProcessERKNS_10HeaderInfoERKNS_11ICollectionIS3_EEEUlRKS3_E_EE, 24
_ZTVN8opendnp314FunctorVisitorINS_7IndexedINS_18BinaryCommandEventEEEZN8asiodnp318PrintingSOEHandler7ProcessERKNS_10HeaderInfoERKNS_11ICollectionIS3_EEEUlRKS3_E_EE:
	.quad	0
	.quad	_ZTIN8opendnp314FunctorVisitorINS_7IndexedINS_18BinaryCommandEventEEEZN8asiodnp318PrintingSOEHandler7ProcessERKNS_10HeaderInfoERKNS_11ICollectionIS3_EEEUlRKS3_E_EE
	.quad	_ZN8opendnp314FunctorVisitorINS_7IndexedINS_18BinaryCommandEventEEEZN8asiodnp318PrintingSOEHandler7ProcessERKNS_10HeaderInfoERKNS_11ICollectionIS3_EEEUlRKS3_E_E7OnValueESE_
	.align 8
	.type	_ZTVN8opendnp314FunctorVisitorINS_7IndexedINS_18AnalogCommandEventEEEZN8asiodnp318PrintingSOEHandler7ProcessERKNS_10HeaderInfoERKNS_11ICollectionIS3_EEEUlRKS3_E_EE, @object
	.size	_ZTVN8opendnp314FunctorVisitorINS_7IndexedINS_18AnalogCommandEventEEEZN8asiodnp318PrintingSOEHandler7ProcessERKNS_10HeaderInfoERKNS_11ICollectionIS3_EEEUlRKS3_E_EE, 24
_ZTVN8opendnp314FunctorVisitorINS_7IndexedINS_18AnalogCommandEventEEEZN8asiodnp318PrintingSOEHandler7ProcessERKNS_10HeaderInfoERKNS_11ICollectionIS3_EEEUlRKS3_E_EE:
	.quad	0
	.quad	_ZTIN8opendnp314FunctorVisitorINS_7IndexedINS_18AnalogCommandEventEEEZN8asiodnp318PrintingSOEHandler7ProcessERKNS_10HeaderInfoERKNS_11ICollectionIS3_EEEUlRKS3_E_EE
	.quad	_ZN8opendnp314FunctorVisitorINS_7IndexedINS_18AnalogCommandEventEEEZN8asiodnp318PrintingSOEHandler7ProcessERKNS_10HeaderInfoERKNS_11ICollectionIS3_EEEUlRKS3_E_E7OnValueESE_
	.align 8
	.type	_ZTVN8opendnp314FunctorVisitorINS_7IndexedINS_12SecurityStatEEEZN8asiodnp318PrintingSOEHandler7ProcessERKNS_10HeaderInfoERKNS_11ICollectionIS3_EEEUlRKS3_E_EE, @object
	.size	_ZTVN8opendnp314FunctorVisitorINS_7IndexedINS_12SecurityStatEEEZN8asiodnp318PrintingSOEHandler7ProcessERKNS_10HeaderInfoERKNS_11ICollectionIS3_EEEUlRKS3_E_EE, 24
_ZTVN8opendnp314FunctorVisitorINS_7IndexedINS_12SecurityStatEEEZN8asiodnp318PrintingSOEHandler7ProcessERKNS_10HeaderInfoERKNS_11ICollectionIS3_EEEUlRKS3_E_EE:
	.quad	0
	.quad	_ZTIN8opendnp314FunctorVisitorINS_7IndexedINS_12SecurityStatEEEZN8asiodnp318PrintingSOEHandler7ProcessERKNS_10HeaderInfoERKNS_11ICollectionIS3_EEEUlRKS3_E_EE
	.quad	_ZN8opendnp314FunctorVisitorINS_7IndexedINS_12SecurityStatEEEZN8asiodnp318PrintingSOEHandler7ProcessERKNS_10HeaderInfoERKNS_11ICollectionIS3_EEEUlRKS3_E_E7OnValueESE_
	.align 8
	.type	_ZTVN8opendnp314FunctorVisitorIN7openpal10UInt48TypeEZN8asiodnp318PrintingSOEHandler7ProcessERKNS_10HeaderInfoERKNS_11ICollectionIS2_EEEUlRKS2_E_EE, @object
	.size	_ZTVN8opendnp314FunctorVisitorIN7openpal10UInt48TypeEZN8asiodnp318PrintingSOEHandler7ProcessERKNS_10HeaderInfoERKNS_11ICollectionIS2_EEEUlRKS2_E_EE, 24
_ZTVN8opendnp314FunctorVisitorIN7openpal10UInt48TypeEZN8asiodnp318PrintingSOEHandler7ProcessERKNS_10HeaderInfoERKNS_11ICollectionIS2_EEEUlRKS2_E_EE:
	.quad	0
	.quad	_ZTIN8opendnp314FunctorVisitorIN7openpal10UInt48TypeEZN8asiodnp318PrintingSOEHandler7ProcessERKNS_10HeaderInfoERKNS_11ICollectionIS2_EEEUlRKS2_E_EE
	.quad	_ZN8opendnp314FunctorVisitorIN7openpal10UInt48TypeEZN8asiodnp318PrintingSOEHandler7ProcessERKNS_10HeaderInfoERKNS_11ICollectionIS2_EEEUlRKS2_E_E7OnValueESD_
	.weak	_ZTVN8opendnp314FunctorVisitorINS_7IndexedINS_6BinaryEEEZN8asiodnp318PrintingSOEHandler8PrintAllIS2_EEvRKNS_10HeaderInfoERKNS_11ICollectionINS1_IT_EEEEEUlRKS3_E_EE
	.section	.data.rel.ro._ZTVN8opendnp314FunctorVisitorINS_7IndexedINS_6BinaryEEEZN8asiodnp318PrintingSOEHandler8PrintAllIS2_EEvRKNS_10HeaderInfoERKNS_11ICollectionINS1_IT_EEEEEUlRKS3_E_EE,"awG",@progbits,_ZTVN8opendnp314FunctorVisitorINS_7IndexedINS_6BinaryEEEZN8asiodnp318PrintingSOEHandler8PrintAllIS2_EEvRKNS_10HeaderInfoERKNS_11ICollectionINS1_IT_EEEEEUlRKS3_E_EE,comdat
	.align 8
	.type	_ZTVN8opendnp314FunctorVisitorINS_7IndexedINS_6BinaryEEEZN8asiodnp318PrintingSOEHandler8PrintAllIS2_EEvRKNS_10HeaderInfoERKNS_11ICollectionINS1_IT_EEEEEUlRKS3_E_EE, @object
	.size	_ZTVN8opendnp314FunctorVisitorINS_7IndexedINS_6BinaryEEEZN8asiodnp318PrintingSOEHandler8PrintAllIS2_EEvRKNS_10HeaderInfoERKNS_11ICollectionINS1_IT_EEEEEUlRKS3_E_EE, 24
_ZTVN8opendnp314FunctorVisitorINS_7IndexedINS_6BinaryEEEZN8asiodnp318PrintingSOEHandler8PrintAllIS2_EEvRKNS_10HeaderInfoERKNS_11ICollectionINS1_IT_EEEEEUlRKS3_E_EE:
	.quad	0
	.quad	_ZTIN8opendnp314FunctorVisitorINS_7IndexedINS_6BinaryEEEZN8asiodnp318PrintingSOEHandler8PrintAllIS2_EEvRKNS_10HeaderInfoERKNS_11ICollectionINS1_IT_EEEEEUlRKS3_E_EE
	.quad	_ZN8opendnp314FunctorVisitorINS_7IndexedINS_6BinaryEEEZN8asiodnp318PrintingSOEHandler8PrintAllIS2_EEvRKNS_10HeaderInfoERKNS_11ICollectionINS1_IT_EEEEEUlRKS3_E_E7OnValueESH_
	.weak	_ZTVN8opendnp314FunctorVisitorINS_7IndexedINS_15DoubleBitBinaryEEEZN8asiodnp318PrintingSOEHandler8PrintAllIS2_EEvRKNS_10HeaderInfoERKNS_11ICollectionINS1_IT_EEEEEUlRKS3_E_EE
	.section	.data.rel.ro._ZTVN8opendnp314FunctorVisitorINS_7IndexedINS_15DoubleBitBinaryEEEZN8asiodnp318PrintingSOEHandler8PrintAllIS2_EEvRKNS_10HeaderInfoERKNS_11ICollectionINS1_IT_EEEEEUlRKS3_E_EE,"awG",@progbits,_ZTVN8opendnp314FunctorVisitorINS_7IndexedINS_15DoubleBitBinaryEEEZN8asiodnp318PrintingSOEHandler8PrintAllIS2_EEvRKNS_10HeaderInfoERKNS_11ICollectionINS1_IT_EEEEEUlRKS3_E_EE,comdat
	.align 8
	.type	_ZTVN8opendnp314FunctorVisitorINS_7IndexedINS_15DoubleBitBinaryEEEZN8asiodnp318PrintingSOEHandler8PrintAllIS2_EEvRKNS_10HeaderInfoERKNS_11ICollectionINS1_IT_EEEEEUlRKS3_E_EE, @object
	.size	_ZTVN8opendnp314FunctorVisitorINS_7IndexedINS_15DoubleBitBinaryEEEZN8asiodnp318PrintingSOEHandler8PrintAllIS2_EEvRKNS_10HeaderInfoERKNS_11ICollectionINS1_IT_EEEEEUlRKS3_E_EE, 24
_ZTVN8opendnp314FunctorVisitorINS_7IndexedINS_15DoubleBitBinaryEEEZN8asiodnp318PrintingSOEHandler8PrintAllIS2_EEvRKNS_10HeaderInfoERKNS_11ICollectionINS1_IT_EEEEEUlRKS3_E_EE:
	.quad	0
	.quad	_ZTIN8opendnp314FunctorVisitorINS_7IndexedINS_15DoubleBitBinaryEEEZN8asiodnp318PrintingSOEHandler8PrintAllIS2_EEvRKNS_10HeaderInfoERKNS_11ICollectionINS1_IT_EEEEEUlRKS3_E_EE
	.quad	_ZN8opendnp314FunctorVisitorINS_7IndexedINS_15DoubleBitBinaryEEEZN8asiodnp318PrintingSOEHandler8PrintAllIS2_EEvRKNS_10HeaderInfoERKNS_11ICollectionINS1_IT_EEEEEUlRKS3_E_E7OnValueESH_
	.weak	_ZTVN8opendnp314FunctorVisitorINS_7IndexedINS_6AnalogEEEZN8asiodnp318PrintingSOEHandler8PrintAllIS2_EEvRKNS_10HeaderInfoERKNS_11ICollectionINS1_IT_EEEEEUlRKS3_E_EE
	.section	.data.rel.ro._ZTVN8opendnp314FunctorVisitorINS_7IndexedINS_6AnalogEEEZN8asiodnp318PrintingSOEHandler8PrintAllIS2_EEvRKNS_10HeaderInfoERKNS_11ICollectionINS1_IT_EEEEEUlRKS3_E_EE,"awG",@progbits,_ZTVN8opendnp314FunctorVisitorINS_7IndexedINS_6AnalogEEEZN8asiodnp318PrintingSOEHandler8PrintAllIS2_EEvRKNS_10HeaderInfoERKNS_11ICollectionINS1_IT_EEEEEUlRKS3_E_EE,comdat
	.align 8
	.type	_ZTVN8opendnp314FunctorVisitorINS_7IndexedINS_6AnalogEEEZN8asiodnp318PrintingSOEHandler8PrintAllIS2_EEvRKNS_10HeaderInfoERKNS_11ICollectionINS1_IT_EEEEEUlRKS3_E_EE, @object
	.size	_ZTVN8opendnp314FunctorVisitorINS_7IndexedINS_6AnalogEEEZN8asiodnp318PrintingSOEHandler8PrintAllIS2_EEvRKNS_10HeaderInfoERKNS_11ICollectionINS1_IT_EEEEEUlRKS3_E_EE, 24
_ZTVN8opendnp314FunctorVisitorINS_7IndexedINS_6AnalogEEEZN8asiodnp318PrintingSOEHandler8PrintAllIS2_EEvRKNS_10HeaderInfoERKNS_11ICollectionINS1_IT_EEEEEUlRKS3_E_EE:
	.quad	0
	.quad	_ZTIN8opendnp314FunctorVisitorINS_7IndexedINS_6AnalogEEEZN8asiodnp318PrintingSOEHandler8PrintAllIS2_EEvRKNS_10HeaderInfoERKNS_11ICollectionINS1_IT_EEEEEUlRKS3_E_EE
	.quad	_ZN8opendnp314FunctorVisitorINS_7IndexedINS_6AnalogEEEZN8asiodnp318PrintingSOEHandler8PrintAllIS2_EEvRKNS_10HeaderInfoERKNS_11ICollectionINS1_IT_EEEEEUlRKS3_E_E7OnValueESH_
	.weak	_ZTVN8opendnp314FunctorVisitorINS_7IndexedINS_7CounterEEEZN8asiodnp318PrintingSOEHandler8PrintAllIS2_EEvRKNS_10HeaderInfoERKNS_11ICollectionINS1_IT_EEEEEUlRKS3_E_EE
	.section	.data.rel.ro._ZTVN8opendnp314FunctorVisitorINS_7IndexedINS_7CounterEEEZN8asiodnp318PrintingSOEHandler8PrintAllIS2_EEvRKNS_10HeaderInfoERKNS_11ICollectionINS1_IT_EEEEEUlRKS3_E_EE,"awG",@progbits,_ZTVN8opendnp314FunctorVisitorINS_7IndexedINS_7CounterEEEZN8asiodnp318PrintingSOEHandler8PrintAllIS2_EEvRKNS_10HeaderInfoERKNS_11ICollectionINS1_IT_EEEEEUlRKS3_E_EE,comdat
	.align 8
	.type	_ZTVN8opendnp314FunctorVisitorINS_7IndexedINS_7CounterEEEZN8asiodnp318PrintingSOEHandler8PrintAllIS2_EEvRKNS_10HeaderInfoERKNS_11ICollectionINS1_IT_EEEEEUlRKS3_E_EE, @object
	.size	_ZTVN8opendnp314FunctorVisitorINS_7IndexedINS_7CounterEEEZN8asiodnp318PrintingSOEHandler8PrintAllIS2_EEvRKNS_10HeaderInfoERKNS_11ICollectionINS1_IT_EEEEEUlRKS3_E_EE, 24
_ZTVN8opendnp314FunctorVisitorINS_7IndexedINS_7CounterEEEZN8asiodnp318PrintingSOEHandler8PrintAllIS2_EEvRKNS_10HeaderInfoERKNS_11ICollectionINS1_IT_EEEEEUlRKS3_E_EE:
	.quad	0
	.quad	_ZTIN8opendnp314FunctorVisitorINS_7IndexedINS_7CounterEEEZN8asiodnp318PrintingSOEHandler8PrintAllIS2_EEvRKNS_10HeaderInfoERKNS_11ICollectionINS1_IT_EEEEEUlRKS3_E_EE
	.quad	_ZN8opendnp314FunctorVisitorINS_7IndexedINS_7CounterEEEZN8asiodnp318PrintingSOEHandler8PrintAllIS2_EEvRKNS_10HeaderInfoERKNS_11ICollectionINS1_IT_EEEEEUlRKS3_E_E7OnValueESH_
	.weak	_ZTVN8opendnp314FunctorVisitorINS_7IndexedINS_13FrozenCounterEEEZN8asiodnp318PrintingSOEHandler8PrintAllIS2_EEvRKNS_10HeaderInfoERKNS_11ICollectionINS1_IT_EEEEEUlRKS3_E_EE
	.section	.data.rel.ro._ZTVN8opendnp314FunctorVisitorINS_7IndexedINS_13FrozenCounterEEEZN8asiodnp318PrintingSOEHandler8PrintAllIS2_EEvRKNS_10HeaderInfoERKNS_11ICollectionINS1_IT_EEEEEUlRKS3_E_EE,"awG",@progbits,_ZTVN8opendnp314FunctorVisitorINS_7IndexedINS_13FrozenCounterEEEZN8asiodnp318PrintingSOEHandler8PrintAllIS2_EEvRKNS_10HeaderInfoERKNS_11ICollectionINS1_IT_EEEEEUlRKS3_E_EE,comdat
	.align 8
	.type	_ZTVN8opendnp314FunctorVisitorINS_7IndexedINS_13FrozenCounterEEEZN8asiodnp318PrintingSOEHandler8PrintAllIS2_EEvRKNS_10HeaderInfoERKNS_11ICollectionINS1_IT_EEEEEUlRKS3_E_EE, @object
	.size	_ZTVN8opendnp314FunctorVisitorINS_7IndexedINS_13FrozenCounterEEEZN8asiodnp318PrintingSOEHandler8PrintAllIS2_EEvRKNS_10HeaderInfoERKNS_11ICollectionINS1_IT_EEEEEUlRKS3_E_EE, 24
_ZTVN8opendnp314FunctorVisitorINS_7IndexedINS_13FrozenCounterEEEZN8asiodnp318PrintingSOEHandler8PrintAllIS2_EEvRKNS_10HeaderInfoERKNS_11ICollectionINS1_IT_EEEEEUlRKS3_E_EE:
	.quad	0
	.quad	_ZTIN8opendnp314FunctorVisitorINS_7IndexedINS_13FrozenCounterEEEZN8asiodnp318PrintingSOEHandler8PrintAllIS2_EEvRKNS_10HeaderInfoERKNS_11ICollectionINS1_IT_EEEEEUlRKS3_E_EE
	.quad	_ZN8opendnp314FunctorVisitorINS_7IndexedINS_13FrozenCounterEEEZN8asiodnp318PrintingSOEHandler8PrintAllIS2_EEvRKNS_10HeaderInfoERKNS_11ICollectionINS1_IT_EEEEEUlRKS3_E_E7OnValueESH_
	.weak	_ZTVN8opendnp314FunctorVisitorINS_7IndexedINS_18BinaryOutputStatusEEEZN8asiodnp318PrintingSOEHandler8PrintAllIS2_EEvRKNS_10HeaderInfoERKNS_11ICollectionINS1_IT_EEEEEUlRKS3_E_EE
	.section	.data.rel.ro._ZTVN8opendnp314FunctorVisitorINS_7IndexedINS_18BinaryOutputStatusEEEZN8asiodnp318PrintingSOEHandler8PrintAllIS2_EEvRKNS_10HeaderInfoERKNS_11ICollectionINS1_IT_EEEEEUlRKS3_E_EE,"awG",@progbits,_ZTVN8opendnp314FunctorVisitorINS_7IndexedINS_18BinaryOutputStatusEEEZN8asiodnp318PrintingSOEHandler8PrintAllIS2_EEvRKNS_10HeaderInfoERKNS_11ICollectionINS1_IT_EEEEEUlRKS3_E_EE,comdat
	.align 8
	.type	_ZTVN8opendnp314FunctorVisitorINS_7IndexedINS_18BinaryOutputStatusEEEZN8asiodnp318PrintingSOEHandler8PrintAllIS2_EEvRKNS_10HeaderInfoERKNS_11ICollectionINS1_IT_EEEEEUlRKS3_E_EE, @object
	.size	_ZTVN8opendnp314FunctorVisitorINS_7IndexedINS_18BinaryOutputStatusEEEZN8asiodnp318PrintingSOEHandler8PrintAllIS2_EEvRKNS_10HeaderInfoERKNS_11ICollectionINS1_IT_EEEEEUlRKS3_E_EE, 24
_ZTVN8opendnp314FunctorVisitorINS_7IndexedINS_18BinaryOutputStatusEEEZN8asiodnp318PrintingSOEHandler8PrintAllIS2_EEvRKNS_10HeaderInfoERKNS_11ICollectionINS1_IT_EEEEEUlRKS3_E_EE:
	.quad	0
	.quad	_ZTIN8opendnp314FunctorVisitorINS_7IndexedINS_18BinaryOutputStatusEEEZN8asiodnp318PrintingSOEHandler8PrintAllIS2_EEvRKNS_10HeaderInfoERKNS_11ICollectionINS1_IT_EEEEEUlRKS3_E_EE
	.quad	_ZN8opendnp314FunctorVisitorINS_7IndexedINS_18BinaryOutputStatusEEEZN8asiodnp318PrintingSOEHandler8PrintAllIS2_EEvRKNS_10HeaderInfoERKNS_11ICollectionINS1_IT_EEEEEUlRKS3_E_E7OnValueESH_
	.weak	_ZTVN8opendnp314FunctorVisitorINS_7IndexedINS_18AnalogOutputStatusEEEZN8asiodnp318PrintingSOEHandler8PrintAllIS2_EEvRKNS_10HeaderInfoERKNS_11ICollectionINS1_IT_EEEEEUlRKS3_E_EE
	.section	.data.rel.ro._ZTVN8opendnp314FunctorVisitorINS_7IndexedINS_18AnalogOutputStatusEEEZN8asiodnp318PrintingSOEHandler8PrintAllIS2_EEvRKNS_10HeaderInfoERKNS_11ICollectionINS1_IT_EEEEEUlRKS3_E_EE,"awG",@progbits,_ZTVN8opendnp314FunctorVisitorINS_7IndexedINS_18AnalogOutputStatusEEEZN8asiodnp318PrintingSOEHandler8PrintAllIS2_EEvRKNS_10HeaderInfoERKNS_11ICollectionINS1_IT_EEEEEUlRKS3_E_EE,comdat
	.align 8
	.type	_ZTVN8opendnp314FunctorVisitorINS_7IndexedINS_18AnalogOutputStatusEEEZN8asiodnp318PrintingSOEHandler8PrintAllIS2_EEvRKNS_10HeaderInfoERKNS_11ICollectionINS1_IT_EEEEEUlRKS3_E_EE, @object
	.size	_ZTVN8opendnp314FunctorVisitorINS_7IndexedINS_18AnalogOutputStatusEEEZN8asiodnp318PrintingSOEHandler8PrintAllIS2_EEvRKNS_10HeaderInfoERKNS_11ICollectionINS1_IT_EEEEEUlRKS3_E_EE, 24
_ZTVN8opendnp314FunctorVisitorINS_7IndexedINS_18AnalogOutputStatusEEEZN8asiodnp318PrintingSOEHandler8PrintAllIS2_EEvRKNS_10HeaderInfoERKNS_11ICollectionINS1_IT_EEEEEUlRKS3_E_EE:
	.quad	0
	.quad	_ZTIN8opendnp314FunctorVisitorINS_7IndexedINS_18AnalogOutputStatusEEEZN8asiodnp318PrintingSOEHandler8PrintAllIS2_EEvRKNS_10HeaderInfoERKNS_11ICollectionINS1_IT_EEEEEUlRKS3_E_EE
	.quad	_ZN8opendnp314FunctorVisitorINS_7IndexedINS_18AnalogOutputStatusEEEZN8asiodnp318PrintingSOEHandler8PrintAllIS2_EEvRKNS_10HeaderInfoERKNS_11ICollectionINS1_IT_EEEEEUlRKS3_E_E7OnValueESH_
	.local	_ZStL8__ioinit
	.comm	_ZStL8__ioinit,1,1
	.hidden	DW.ref.__gxx_personality_v0
	.weak	DW.ref.__gxx_personality_v0
	.section	.data.rel.local.DW.ref.__gxx_personality_v0,"awG",@progbits,DW.ref.__gxx_personality_v0,comdat
	.align 8
	.type	DW.ref.__gxx_personality_v0, @object
	.size	DW.ref.__gxx_personality_v0, 8
DW.ref.__gxx_personality_v0:
	.quad	__gxx_personality_v0
	.hidden	__dso_handle
	.ident	"GCC: (Ubuntu 11.4.0-1ubuntu1~22.04) 11.4.0"
	.section	.note.GNU-stack,"",@progbits
	.section	.note.gnu.property,"a"
	.align 8
	.long	1f - 0f
	.long	4f - 1f
	.long	5
0:
	.string	"GNU"
1:
	.align 8
	.long	0xc0000002
	.long	3f - 2f
2:
	.long	0x3
3:
	.align 8
4:
