	.file	"SerialIOHandler.cpp"
	.text
	.section	.rodata._ZNK4asio6detail15system_category4nameEv.str1.1,"aMS",@progbits,1
.LC0:
	.string	"asio.system"
	.section	.text._ZNK4asio6detail15system_category4nameEv,"axG",@progbits,_ZNK4asio6detail15system_category4nameEv,comdat
	.align 2
	.p2align 4
	.weak	_ZNK4asio6detail15system_category4nameEv
	.type	_ZNK4asio6detail15system_category4nameEv, @function
_ZNK4asio6detail15system_category4nameEv:
.LFB2994:
	.cfi_startproc
	endbr64
	leaq	.LC0(%rip), %rax
	ret
	.cfi_endproc
.LFE2994:
	.size	_ZNK4asio6detail15system_category4nameEv, .-_ZNK4asio6detail15system_category4nameEv
	.section	.rodata._ZNK4asio5error6detail14netdb_category4nameEv.str1.1,"aMS",@progbits,1
.LC1:
	.string	"asio.netdb"
	.section	.text._ZNK4asio5error6detail14netdb_category4nameEv,"axG",@progbits,_ZNK4asio5error6detail14netdb_category4nameEv,comdat
	.align 2
	.p2align 4
	.weak	_ZNK4asio5error6detail14netdb_category4nameEv
	.type	_ZNK4asio5error6detail14netdb_category4nameEv, @function
_ZNK4asio5error6detail14netdb_category4nameEv:
.LFB3034:
	.cfi_startproc
	endbr64
	leaq	.LC1(%rip), %rax
	ret
	.cfi_endproc
.LFE3034:
	.size	_ZNK4asio5error6detail14netdb_category4nameEv, .-_ZNK4asio5error6detail14netdb_category4nameEv
	.section	.rodata._ZNK4asio5error6detail17addrinfo_category4nameEv.str1.1,"aMS",@progbits,1
.LC2:
	.string	"asio.addrinfo"
	.section	.text._ZNK4asio5error6detail17addrinfo_category4nameEv,"axG",@progbits,_ZNK4asio5error6detail17addrinfo_category4nameEv,comdat
	.align 2
	.p2align 4
	.weak	_ZNK4asio5error6detail17addrinfo_category4nameEv
	.type	_ZNK4asio5error6detail17addrinfo_category4nameEv, @function
_ZNK4asio5error6detail17addrinfo_category4nameEv:
.LFB3040:
	.cfi_startproc
	endbr64
	leaq	.LC2(%rip), %rax
	ret
	.cfi_endproc
.LFE3040:
	.size	_ZNK4asio5error6detail17addrinfo_category4nameEv, .-_ZNK4asio5error6detail17addrinfo_category4nameEv
	.section	.rodata._ZNK4asio5error6detail13misc_category4nameEv.str1.1,"aMS",@progbits,1
.LC3:
	.string	"asio.misc"
	.section	.text._ZNK4asio5error6detail13misc_category4nameEv,"axG",@progbits,_ZNK4asio5error6detail13misc_category4nameEv,comdat
	.align 2
	.p2align 4
	.weak	_ZNK4asio5error6detail13misc_category4nameEv
	.type	_ZNK4asio5error6detail13misc_category4nameEv, @function
_ZNK4asio5error6detail13misc_category4nameEv:
.LFB3046:
	.cfi_startproc
	endbr64
	leaq	.LC3(%rip), %rax
	ret
	.cfi_endproc
.LFE3046:
	.size	_ZNK4asio5error6detail13misc_category4nameEv, .-_ZNK4asio5error6detail13misc_category4nameEv
	.section	.text._ZN4asio6detail7tss_ptrINS0_10call_stackINS0_15task_io_serviceENS0_27task_io_service_thread_infoEE7contextEED2Ev,"axG",@progbits,_ZN4asio6detail7tss_ptrINS0_10call_stackINS0_15task_io_serviceENS0_27task_io_service_thread_infoEE7contextEED5Ev,comdat
	.align 2
	.p2align 4
	.weak	_ZN4asio6detail7tss_ptrINS0_10call_stackINS0_15task_io_serviceENS0_27task_io_service_thread_infoEE7contextEED2Ev
	.type	_ZN4asio6detail7tss_ptrINS0_10call_stackINS0_15task_io_serviceENS0_27task_io_service_thread_infoEE7contextEED2Ev, @function
_ZN4asio6detail7tss_ptrINS0_10call_stackINS0_15task_io_serviceENS0_27task_io_service_thread_infoEE7contextEED2Ev:
.LFB10295:
	.cfi_startproc
	endbr64
	ret
	.cfi_endproc
.LFE10295:
	.size	_ZN4asio6detail7tss_ptrINS0_10call_stackINS0_15task_io_serviceENS0_27task_io_service_thread_infoEE7contextEED2Ev, .-_ZN4asio6detail7tss_ptrINS0_10call_stackINS0_15task_io_serviceENS0_27task_io_service_thread_infoEE7contextEED2Ev
	.weak	_ZN4asio6detail7tss_ptrINS0_10call_stackINS0_15task_io_serviceENS0_27task_io_service_thread_infoEE7contextEED1Ev
	.set	_ZN4asio6detail7tss_ptrINS0_10call_stackINS0_15task_io_serviceENS0_27task_io_service_thread_infoEE7contextEED1Ev,_ZN4asio6detail7tss_ptrINS0_10call_stackINS0_15task_io_serviceENS0_27task_io_service_thread_infoEE7contextEED2Ev
	.section	.text._ZN4asio6detail10service_idINS0_13epoll_reactorEED2Ev,"axG",@progbits,_ZN4asio6detail10service_idINS0_13epoll_reactorEED5Ev,comdat
	.align 2
	.p2align 4
	.weak	_ZN4asio6detail10service_idINS0_13epoll_reactorEED2Ev
	.type	_ZN4asio6detail10service_idINS0_13epoll_reactorEED2Ev, @function
_ZN4asio6detail10service_idINS0_13epoll_reactorEED2Ev:
.LFB10298:
	.cfi_startproc
	endbr64
	ret
	.cfi_endproc
.LFE10298:
	.size	_ZN4asio6detail10service_idINS0_13epoll_reactorEED2Ev, .-_ZN4asio6detail10service_idINS0_13epoll_reactorEED2Ev
	.weak	_ZN4asio6detail10service_idINS0_13epoll_reactorEED1Ev
	.set	_ZN4asio6detail10service_idINS0_13epoll_reactorEED1Ev,_ZN4asio6detail10service_idINS0_13epoll_reactorEED2Ev
	.section	.text._ZN4asio6detail10service_idINS0_15task_io_serviceEED2Ev,"axG",@progbits,_ZN4asio6detail10service_idINS0_15task_io_serviceEED5Ev,comdat
	.align 2
	.p2align 4
	.weak	_ZN4asio6detail10service_idINS0_15task_io_serviceEED2Ev
	.type	_ZN4asio6detail10service_idINS0_15task_io_serviceEED2Ev, @function
_ZN4asio6detail10service_idINS0_15task_io_serviceEED2Ev:
.LFB10301:
	.cfi_startproc
	endbr64
	ret
	.cfi_endproc
.LFE10301:
	.size	_ZN4asio6detail10service_idINS0_15task_io_serviceEED2Ev, .-_ZN4asio6detail10service_idINS0_15task_io_serviceEED2Ev
	.weak	_ZN4asio6detail10service_idINS0_15task_io_serviceEED1Ev
	.set	_ZN4asio6detail10service_idINS0_15task_io_serviceEED1Ev,_ZN4asio6detail10service_idINS0_15task_io_serviceEED2Ev
	.section	.text._ZN4asio6detail7tss_ptrINS0_10call_stackINS0_14strand_service11strand_implEhE7contextEED2Ev,"axG",@progbits,_ZN4asio6detail7tss_ptrINS0_10call_stackINS0_14strand_service11strand_implEhE7contextEED5Ev,comdat
	.align 2
	.p2align 4
	.weak	_ZN4asio6detail7tss_ptrINS0_10call_stackINS0_14strand_service11strand_implEhE7contextEED2Ev
	.type	_ZN4asio6detail7tss_ptrINS0_10call_stackINS0_14strand_service11strand_implEhE7contextEED2Ev, @function
_ZN4asio6detail7tss_ptrINS0_10call_stackINS0_14strand_service11strand_implEhE7contextEED2Ev:
.LFB10304:
	.cfi_startproc
	endbr64
	ret
	.cfi_endproc
.LFE10304:
	.size	_ZN4asio6detail7tss_ptrINS0_10call_stackINS0_14strand_service11strand_implEhE7contextEED2Ev, .-_ZN4asio6detail7tss_ptrINS0_10call_stackINS0_14strand_service11strand_implEhE7contextEED2Ev
	.weak	_ZN4asio6detail7tss_ptrINS0_10call_stackINS0_14strand_service11strand_implEhE7contextEED1Ev
	.set	_ZN4asio6detail7tss_ptrINS0_10call_stackINS0_14strand_service11strand_implEhE7contextEED1Ev,_ZN4asio6detail7tss_ptrINS0_10call_stackINS0_14strand_service11strand_implEhE7contextEED2Ev
	.section	.text._ZN4asio6detail10service_idINS0_14strand_serviceEED2Ev,"axG",@progbits,_ZN4asio6detail10service_idINS0_14strand_serviceEED5Ev,comdat
	.align 2
	.p2align 4
	.weak	_ZN4asio6detail10service_idINS0_14strand_serviceEED2Ev
	.type	_ZN4asio6detail10service_idINS0_14strand_serviceEED2Ev, @function
_ZN4asio6detail10service_idINS0_14strand_serviceEED2Ev:
.LFB10307:
	.cfi_startproc
	endbr64
	ret
	.cfi_endproc
.LFE10307:
	.size	_ZN4asio6detail10service_idINS0_14strand_serviceEED2Ev, .-_ZN4asio6detail10service_idINS0_14strand_serviceEED2Ev
	.weak	_ZN4asio6detail10service_idINS0_14strand_serviceEED1Ev
	.set	_ZN4asio6detail10service_idINS0_14strand_serviceEED1Ev,_ZN4asio6detail10service_idINS0_14strand_serviceEED2Ev
	.section	.text._ZNSt23_Sp_counted_ptr_inplaceIN7asiopal13SerialChannelESaIS1_ELN9__gnu_cxx12_Lock_policyE2EED2Ev,"axG",@progbits,_ZNSt23_Sp_counted_ptr_inplaceIN7asiopal13SerialChannelESaIS1_ELN9__gnu_cxx12_Lock_policyE2EED5Ev,comdat
	.align 2
	.p2align 4
	.weak	_ZNSt23_Sp_counted_ptr_inplaceIN7asiopal13SerialChannelESaIS1_ELN9__gnu_cxx12_Lock_policyE2EED2Ev
	.type	_ZNSt23_Sp_counted_ptr_inplaceIN7asiopal13SerialChannelESaIS1_ELN9__gnu_cxx12_Lock_policyE2EED2Ev, @function
_ZNSt23_Sp_counted_ptr_inplaceIN7asiopal13SerialChannelESaIS1_ELN9__gnu_cxx12_Lock_policyE2EED2Ev:
.LFB10317:
	.cfi_startproc
	endbr64
	ret
	.cfi_endproc
.LFE10317:
	.size	_ZNSt23_Sp_counted_ptr_inplaceIN7asiopal13SerialChannelESaIS1_ELN9__gnu_cxx12_Lock_policyE2EED2Ev, .-_ZNSt23_Sp_counted_ptr_inplaceIN7asiopal13SerialChannelESaIS1_ELN9__gnu_cxx12_Lock_policyE2EED2Ev
	.weak	_ZNSt23_Sp_counted_ptr_inplaceIN7asiopal13SerialChannelESaIS1_ELN9__gnu_cxx12_Lock_policyE2EED1Ev
	.set	_ZNSt23_Sp_counted_ptr_inplaceIN7asiopal13SerialChannelESaIS1_ELN9__gnu_cxx12_Lock_policyE2EED1Ev,_ZNSt23_Sp_counted_ptr_inplaceIN7asiopal13SerialChannelESaIS1_ELN9__gnu_cxx12_Lock_policyE2EED2Ev
	.section	.text._ZNSt23_Sp_counted_ptr_inplaceIN7asiopal13SerialChannelESaIS1_ELN9__gnu_cxx12_Lock_policyE2EED0Ev,"axG",@progbits,_ZNSt23_Sp_counted_ptr_inplaceIN7asiopal13SerialChannelESaIS1_ELN9__gnu_cxx12_Lock_policyE2EED5Ev,comdat
	.align 2
	.p2align 4
	.weak	_ZNSt23_Sp_counted_ptr_inplaceIN7asiopal13SerialChannelESaIS1_ELN9__gnu_cxx12_Lock_policyE2EED0Ev
	.type	_ZNSt23_Sp_counted_ptr_inplaceIN7asiopal13SerialChannelESaIS1_ELN9__gnu_cxx12_Lock_policyE2EED0Ev, @function
_ZNSt23_Sp_counted_ptr_inplaceIN7asiopal13SerialChannelESaIS1_ELN9__gnu_cxx12_Lock_policyE2EED0Ev:
.LFB10319:
	.cfi_startproc
	endbr64
	movl	$104, %esi
	jmp	_ZdlPvm@PLT
	.cfi_endproc
.LFE10319:
	.size	_ZNSt23_Sp_counted_ptr_inplaceIN7asiopal13SerialChannelESaIS1_ELN9__gnu_cxx12_Lock_policyE2EED0Ev, .-_ZNSt23_Sp_counted_ptr_inplaceIN7asiopal13SerialChannelESaIS1_ELN9__gnu_cxx12_Lock_policyE2EED0Ev
	.section	.text._ZNSt23_Sp_counted_ptr_inplaceIN7asiopal13SerialChannelESaIS1_ELN9__gnu_cxx12_Lock_policyE2EE10_M_destroyEv,"axG",@progbits,_ZNSt23_Sp_counted_ptr_inplaceIN7asiopal13SerialChannelESaIS1_ELN9__gnu_cxx12_Lock_policyE2EE10_M_destroyEv,comdat
	.align 2
	.p2align 4
	.weak	_ZNSt23_Sp_counted_ptr_inplaceIN7asiopal13SerialChannelESaIS1_ELN9__gnu_cxx12_Lock_policyE2EE10_M_destroyEv
	.type	_ZNSt23_Sp_counted_ptr_inplaceIN7asiopal13SerialChannelESaIS1_ELN9__gnu_cxx12_Lock_policyE2EE10_M_destroyEv, @function
_ZNSt23_Sp_counted_ptr_inplaceIN7asiopal13SerialChannelESaIS1_ELN9__gnu_cxx12_Lock_policyE2EE10_M_destroyEv:
.LFB10321:
	.cfi_startproc
	endbr64
	movl	$104, %esi
	jmp	_ZdlPvm@PLT
	.cfi_endproc
.LFE10321:
	.size	_ZNSt23_Sp_counted_ptr_inplaceIN7asiopal13SerialChannelESaIS1_ELN9__gnu_cxx12_Lock_policyE2EE10_M_destroyEv, .-_ZNSt23_Sp_counted_ptr_inplaceIN7asiopal13SerialChannelESaIS1_ELN9__gnu_cxx12_Lock_policyE2EE10_M_destroyEv
	.section	.text._ZN4asio6detail15system_categoryD2Ev,"axG",@progbits,_ZN4asio6detail15system_categoryD5Ev,comdat
	.align 2
	.p2align 4
	.weak	_ZN4asio6detail15system_categoryD2Ev
	.type	_ZN4asio6detail15system_categoryD2Ev, @function
_ZN4asio6detail15system_categoryD2Ev:
.LFB10274:
	.cfi_startproc
	endbr64
	movq	_ZTVN4asio6detail15system_categoryE@GOTPCREL(%rip), %rax
	addq	$16, %rax
	movq	%rax, (%rdi)
	jmp	_ZNSt3_V214error_categoryD2Ev@PLT
	.cfi_endproc
.LFE10274:
	.size	_ZN4asio6detail15system_categoryD2Ev, .-_ZN4asio6detail15system_categoryD2Ev
	.weak	_ZN4asio6detail15system_categoryD1Ev
	.set	_ZN4asio6detail15system_categoryD1Ev,_ZN4asio6detail15system_categoryD2Ev
	.section	.text._ZN4asio6detail15system_categoryD0Ev,"axG",@progbits,_ZN4asio6detail15system_categoryD5Ev,comdat
	.align 2
	.p2align 4
	.weak	_ZN4asio6detail15system_categoryD0Ev
	.type	_ZN4asio6detail15system_categoryD0Ev, @function
_ZN4asio6detail15system_categoryD0Ev:
.LFB10276:
	.cfi_startproc
	endbr64
	movq	_ZTVN4asio6detail15system_categoryE@GOTPCREL(%rip), %rax
	pushq	%rbp
	.cfi_def_cfa_offset 16
	.cfi_offset 6, -16
	movq	%rdi, %rbp
	addq	$16, %rax
	movq	%rax, (%rdi)
	call	_ZNSt3_V214error_categoryD2Ev@PLT
	movq	%rbp, %rdi
	movl	$8, %esi
	popq	%rbp
	.cfi_def_cfa_offset 8
	jmp	_ZdlPvm@PLT
	.cfi_endproc
.LFE10276:
	.size	_ZN4asio6detail15system_categoryD0Ev, .-_ZN4asio6detail15system_categoryD0Ev
	.section	.text._ZN4asio5error6detail14netdb_categoryD2Ev,"axG",@progbits,_ZN4asio5error6detail14netdb_categoryD5Ev,comdat
	.align 2
	.p2align 4
	.weak	_ZN4asio5error6detail14netdb_categoryD2Ev
	.type	_ZN4asio5error6detail14netdb_categoryD2Ev, @function
_ZN4asio5error6detail14netdb_categoryD2Ev:
.LFB10262:
	.cfi_startproc
	endbr64
	movq	_ZTVN4asio5error6detail14netdb_categoryE@GOTPCREL(%rip), %rax
	addq	$16, %rax
	movq	%rax, (%rdi)
	jmp	_ZNSt3_V214error_categoryD2Ev@PLT
	.cfi_endproc
.LFE10262:
	.size	_ZN4asio5error6detail14netdb_categoryD2Ev, .-_ZN4asio5error6detail14netdb_categoryD2Ev
	.weak	_ZN4asio5error6detail14netdb_categoryD1Ev
	.set	_ZN4asio5error6detail14netdb_categoryD1Ev,_ZN4asio5error6detail14netdb_categoryD2Ev
	.section	.text._ZN4asio5error6detail14netdb_categoryD0Ev,"axG",@progbits,_ZN4asio5error6detail14netdb_categoryD5Ev,comdat
	.align 2
	.p2align 4
	.weak	_ZN4asio5error6detail14netdb_categoryD0Ev
	.type	_ZN4asio5error6detail14netdb_categoryD0Ev, @function
_ZN4asio5error6detail14netdb_categoryD0Ev:
.LFB10264:
	.cfi_startproc
	endbr64
	movq	_ZTVN4asio5error6detail14netdb_categoryE@GOTPCREL(%rip), %rax
	pushq	%rbp
	.cfi_def_cfa_offset 16
	.cfi_offset 6, -16
	movq	%rdi, %rbp
	addq	$16, %rax
	movq	%rax, (%rdi)
	call	_ZNSt3_V214error_categoryD2Ev@PLT
	movq	%rbp, %rdi
	movl	$8, %esi
	popq	%rbp
	.cfi_def_cfa_offset 8
	jmp	_ZdlPvm@PLT
	.cfi_endproc
.LFE10264:
	.size	_ZN4asio5error6detail14netdb_categoryD0Ev, .-_ZN4asio5error6detail14netdb_categoryD0Ev
	.section	.text._ZN4asio5error6detail17addrinfo_categoryD2Ev,"axG",@progbits,_ZN4asio5error6detail17addrinfo_categoryD5Ev,comdat
	.align 2
	.p2align 4
	.weak	_ZN4asio5error6detail17addrinfo_categoryD2Ev
	.type	_ZN4asio5error6detail17addrinfo_categoryD2Ev, @function
_ZN4asio5error6detail17addrinfo_categoryD2Ev:
.LFB10258:
	.cfi_startproc
	endbr64
	movq	_ZTVN4asio5error6detail17addrinfo_categoryE@GOTPCREL(%rip), %rax
	addq	$16, %rax
	movq	%rax, (%rdi)
	jmp	_ZNSt3_V214error_categoryD2Ev@PLT
	.cfi_endproc
.LFE10258:
	.size	_ZN4asio5error6detail17addrinfo_categoryD2Ev, .-_ZN4asio5error6detail17addrinfo_categoryD2Ev
	.weak	_ZN4asio5error6detail17addrinfo_categoryD1Ev
	.set	_ZN4asio5error6detail17addrinfo_categoryD1Ev,_ZN4asio5error6detail17addrinfo_categoryD2Ev
	.section	.text._ZN4asio5error6detail17addrinfo_categoryD0Ev,"axG",@progbits,_ZN4asio5error6detail17addrinfo_categoryD5Ev,comdat
	.align 2
	.p2align 4
	.weak	_ZN4asio5error6detail17addrinfo_categoryD0Ev
	.type	_ZN4asio5error6detail17addrinfo_categoryD0Ev, @function
_ZN4asio5error6detail17addrinfo_categoryD0Ev:
.LFB10260:
	.cfi_startproc
	endbr64
	movq	_ZTVN4asio5error6detail17addrinfo_categoryE@GOTPCREL(%rip), %rax
	pushq	%rbp
	.cfi_def_cfa_offset 16
	.cfi_offset 6, -16
	movq	%rdi, %rbp
	addq	$16, %rax
	movq	%rax, (%rdi)
	call	_ZNSt3_V214error_categoryD2Ev@PLT
	movq	%rbp, %rdi
	movl	$8, %esi
	popq	%rbp
	.cfi_def_cfa_offset 8
	jmp	_ZdlPvm@PLT
	.cfi_endproc
.LFE10260:
	.size	_ZN4asio5error6detail17addrinfo_categoryD0Ev, .-_ZN4asio5error6detail17addrinfo_categoryD0Ev
	.section	.text._ZN4asio5error6detail13misc_categoryD2Ev,"axG",@progbits,_ZN4asio5error6detail13misc_categoryD5Ev,comdat
	.align 2
	.p2align 4
	.weak	_ZN4asio5error6detail13misc_categoryD2Ev
	.type	_ZN4asio5error6detail13misc_categoryD2Ev, @function
_ZN4asio5error6detail13misc_categoryD2Ev:
.LFB10254:
	.cfi_startproc
	endbr64
	movq	_ZTVN4asio5error6detail13misc_categoryE@GOTPCREL(%rip), %rax
	addq	$16, %rax
	movq	%rax, (%rdi)
	jmp	_ZNSt3_V214error_categoryD2Ev@PLT
	.cfi_endproc
.LFE10254:
	.size	_ZN4asio5error6detail13misc_categoryD2Ev, .-_ZN4asio5error6detail13misc_categoryD2Ev
	.weak	_ZN4asio5error6detail13misc_categoryD1Ev
	.set	_ZN4asio5error6detail13misc_categoryD1Ev,_ZN4asio5error6detail13misc_categoryD2Ev
	.section	.text._ZN4asio5error6detail13misc_categoryD0Ev,"axG",@progbits,_ZN4asio5error6detail13misc_categoryD5Ev,comdat
	.align 2
	.p2align 4
	.weak	_ZN4asio5error6detail13misc_categoryD0Ev
	.type	_ZN4asio5error6detail13misc_categoryD0Ev, @function
_ZN4asio5error6detail13misc_categoryD0Ev:
.LFB10256:
	.cfi_startproc
	endbr64
	movq	_ZTVN4asio5error6detail13misc_categoryE@GOTPCREL(%rip), %rax
	pushq	%rbp
	.cfi_def_cfa_offset 16
	.cfi_offset 6, -16
	movq	%rdi, %rbp
	addq	$16, %rax
	movq	%rax, (%rdi)
	call	_ZNSt3_V214error_categoryD2Ev@PLT
	movq	%rbp, %rdi
	movl	$8, %esi
	popq	%rbp
	.cfi_def_cfa_offset 8
	jmp	_ZdlPvm@PLT
	.cfi_endproc
.LFE10256:
	.size	_ZN4asio5error6detail13misc_categoryD0Ev, .-_ZN4asio5error6detail13misc_categoryD0Ev
	.section	.text._ZNSt23_Sp_counted_ptr_inplaceIN7asiopal13SerialChannelESaIS1_ELN9__gnu_cxx12_Lock_policyE2EE14_M_get_deleterERKSt9type_info,"axG",@progbits,_ZNSt23_Sp_counted_ptr_inplaceIN7asiopal13SerialChannelESaIS1_ELN9__gnu_cxx12_Lock_policyE2EE14_M_get_deleterERKSt9type_info,comdat
	.align 2
	.p2align 4
	.weak	_ZNSt23_Sp_counted_ptr_inplaceIN7asiopal13SerialChannelESaIS1_ELN9__gnu_cxx12_Lock_policyE2EE14_M_get_deleterERKSt9type_info
	.type	_ZNSt23_Sp_counted_ptr_inplaceIN7asiopal13SerialChannelESaIS1_ELN9__gnu_cxx12_Lock_policyE2EE14_M_get_deleterERKSt9type_info, @function
_ZNSt23_Sp_counted_ptr_inplaceIN7asiopal13SerialChannelESaIS1_ELN9__gnu_cxx12_Lock_policyE2EE14_M_get_deleterERKSt9type_info:
.LFB10322:
	.cfi_startproc
	endbr64
	cmpq	_ZZNSt19_Sp_make_shared_tag5_S_tiEvE5__tag@GOTPCREL(%rip), %rsi
	pushq	%r12
	.cfi_def_cfa_offset 16
	.cfi_offset 12, -16
	leaq	16(%rdi), %r12
	je	.L26
	movq	8(%rsi), %rdi
	movq	_ZTSSt19_Sp_make_shared_tag@GOTPCREL(%rip), %rsi
	cmpq	%rsi, %rdi
	je	.L26
	cmpb	$42, (%rdi)
	je	.L28
	call	strcmp@PLT
	testl	%eax, %eax
	movl	$0, %eax
	cmovne	%rax, %r12
.L26:
	movq	%r12, %rax
	popq	%r12
	.cfi_remember_state
	.cfi_def_cfa_offset 8
	ret
	.p2align 4,,10
	.p2align 3
.L28:
	.cfi_restore_state
	xorl	%r12d, %r12d
	movq	%r12, %rax
	popq	%r12
	.cfi_def_cfa_offset 8
	ret
	.cfi_endproc
.LFE10322:
	.size	_ZNSt23_Sp_counted_ptr_inplaceIN7asiopal13SerialChannelESaIS1_ELN9__gnu_cxx12_Lock_policyE2EE14_M_get_deleterERKSt9type_info, .-_ZNSt23_Sp_counted_ptr_inplaceIN7asiopal13SerialChannelESaIS1_ELN9__gnu_cxx12_Lock_policyE2EE14_M_get_deleterERKSt9type_info
	.text
	.align 2
	.p2align 4
	.globl	_ZN8asiodnp315SerialIOHandler20SuspendChannelAcceptEv
	.type	_ZN8asiodnp315SerialIOHandler20SuspendChannelAcceptEv, @function
_ZN8asiodnp315SerialIOHandler20SuspendChannelAcceptEv:
.LFB7734:
	.cfi_startproc
	endbr64
	addq	$896, %rdi
	jmp	_ZN7openpal8TimerRef6CancelEv@PLT
	.cfi_endproc
.LFE7734:
	.size	_ZN8asiodnp315SerialIOHandler20SuspendChannelAcceptEv, .-_ZN8asiodnp315SerialIOHandler20SuspendChannelAcceptEv
	.globl	_ZN8asiodnp315SerialIOHandler10ResetStateEv
	.set	_ZN8asiodnp315SerialIOHandler10ResetStateEv,_ZN8asiodnp315SerialIOHandler20SuspendChannelAcceptEv
	.align 2
	.p2align 4
	.globl	_ZN8asiodnp315SerialIOHandler12ShutdownImplEv
	.type	_ZN8asiodnp315SerialIOHandler12ShutdownImplEv, @function
_ZN8asiodnp315SerialIOHandler12ShutdownImplEv:
.LFB7732:
	.cfi_startproc
	endbr64
	jmp	_ZN8asiodnp315SerialIOHandler10ResetStateEv@PLT
	.cfi_endproc
.LFE7732:
	.size	_ZN8asiodnp315SerialIOHandler12ShutdownImplEv, .-_ZN8asiodnp315SerialIOHandler12ShutdownImplEv
	.p2align 4
	.type	_ZNSt17_Function_handlerIFvvEZN7openpal8TimerRef5StartIZN8asiodnp315SerialIOHandler7TryOpenERKNS1_12TimeDurationEEUlvE_EEbS8_RKT_EUlvE_E10_M_managerERSt9_Any_dataRKSF_St18_Manager_operation, @function
_ZNSt17_Function_handlerIFvvEZN7openpal8TimerRef5StartIZN8asiodnp315SerialIOHandler7TryOpenERKNS1_12TimeDurationEEUlvE_EEbS8_RKT_EUlvE_E10_M_managerERSt9_Any_dataRKSF_St18_Manager_operation:
.LFB9391:
	.cfi_startproc
	endbr64
	pushq	%rbp
	.cfi_def_cfa_offset 16
	.cfi_offset 6, -16
	pushq	%rbx
	.cfi_def_cfa_offset 24
	.cfi_offset 3, -24
	movq	%rdi, %rbx
	subq	$8, %rsp
	.cfi_def_cfa_offset 32
	testl	%edx, %edx
	je	.L34
	cmpl	$1, %edx
	je	.L35
	cmpl	$2, %edx
	je	.L38
	cmpl	$3, %edx
	jne	.L37
	movq	(%rdi), %rdi
	testq	%rdi, %rdi
	je	.L37
	movl	$24, %esi
	call	_ZdlPvm@PLT
.L37:
	addq	$8, %rsp
	.cfi_remember_state
	.cfi_def_cfa_offset 24
	xorl	%eax, %eax
	popq	%rbx
	.cfi_def_cfa_offset 16
	popq	%rbp
	.cfi_def_cfa_offset 8
	ret
	.p2align 4,,10
	.p2align 3
.L34:
	.cfi_restore_state
	leaq	_ZTIZN7openpal8TimerRef5StartIZN8asiodnp315SerialIOHandler7TryOpenERKNS_12TimeDurationEEUlvE_EEbS6_RKT_EUlvE_(%rip), %rax
	movq	%rax, (%rdi)
	addq	$8, %rsp
	.cfi_remember_state
	.cfi_def_cfa_offset 24
	xorl	%eax, %eax
	popq	%rbx
	.cfi_def_cfa_offset 16
	popq	%rbp
	.cfi_def_cfa_offset 8
	ret
	.p2align 4,,10
	.p2align 3
.L35:
	.cfi_restore_state
	movq	(%rsi), %rax
	movq	%rax, (%rdi)
	addq	$8, %rsp
	.cfi_remember_state
	.cfi_def_cfa_offset 24
	xorl	%eax, %eax
	popq	%rbx
	.cfi_def_cfa_offset 16
	popq	%rbp
	.cfi_def_cfa_offset 8
	ret
	.p2align 4,,10
	.p2align 3
.L38:
	.cfi_restore_state
	movq	(%rsi), %rbp
	movl	$24, %edi
	call	_Znwm@PLT
	movdqu	0(%rbp), %xmm0
	movups	%xmm0, (%rax)
	movq	16(%rbp), %rdx
	movq	%rdx, 16(%rax)
	movq	%rax, (%rbx)
	jmp	.L37
	.cfi_endproc
.LFE9391:
	.size	_ZNSt17_Function_handlerIFvvEZN7openpal8TimerRef5StartIZN8asiodnp315SerialIOHandler7TryOpenERKNS1_12TimeDurationEEUlvE_EEbS8_RKT_EUlvE_E10_M_managerERSt9_Any_dataRKSF_St18_Manager_operation, .-_ZNSt17_Function_handlerIFvvEZN7openpal8TimerRef5StartIZN8asiodnp315SerialIOHandler7TryOpenERKNS1_12TimeDurationEEUlvE_EEbS8_RKT_EUlvE_E10_M_managerERSt9_Any_dataRKSF_St18_Manager_operation
	.section	.text._ZNSt8_Rb_treeIPN8opendnp317IScheduleCallbackES2_St9_IdentityIS2_ESt4lessIS2_ESaIS2_EE8_M_eraseEPSt13_Rb_tree_nodeIS2_E.isra.0,"axG",@progbits,_ZN8asiodnp39IOHandlerD5Ev,comdat
	.align 2
	.p2align 4
	.type	_ZNSt8_Rb_treeIPN8opendnp317IScheduleCallbackES2_St9_IdentityIS2_ESt4lessIS2_ESaIS2_EE8_M_eraseEPSt13_Rb_tree_nodeIS2_E.isra.0, @function
_ZNSt8_Rb_treeIPN8opendnp317IScheduleCallbackES2_St9_IdentityIS2_ESt4lessIS2_ESaIS2_EE8_M_eraseEPSt13_Rb_tree_nodeIS2_E.isra.0:
.LFB10436:
	.cfi_startproc
	pushq	%r15
	.cfi_def_cfa_offset 16
	.cfi_offset 15, -16
	pushq	%r14
	.cfi_def_cfa_offset 24
	.cfi_offset 14, -24
	pushq	%r13
	.cfi_def_cfa_offset 32
	.cfi_offset 13, -32
	pushq	%r12
	.cfi_def_cfa_offset 40
	.cfi_offset 12, -40
	pushq	%rbp
	.cfi_def_cfa_offset 48
	.cfi_offset 6, -48
	pushq	%rbx
	.cfi_def_cfa_offset 56
	.cfi_offset 3, -56
	subq	$40, %rsp
	.cfi_def_cfa_offset 96
	movq	%rdi, 16(%rsp)
	testq	%rdi, %rdi
	je	.L45
.L63:
	movq	16(%rsp), %rax
	movq	24(%rax), %r14
	testq	%r14, %r14
	je	.L47
.L62:
	movq	24(%r14), %r15
	testq	%r15, %r15
	je	.L48
.L61:
	movq	24(%r15), %rax
	movq	%rax, 8(%rsp)
	testq	%rax, %rax
	je	.L49
.L60:
	movq	8(%rsp), %rax
	movq	24(%rax), %rbp
	testq	%rbp, %rbp
	je	.L50
.L59:
	movq	24(%rbp), %r13
	testq	%r13, %r13
	je	.L51
.L58:
	movq	24(%r13), %r12
	testq	%r12, %r12
	je	.L52
.L57:
	movq	24(%r12), %r9
	testq	%r9, %r9
	je	.L53
.L56:
	movq	24(%r9), %rbx
	testq	%rbx, %rbx
	je	.L54
.L55:
	movq	24(%rbx), %rdi
	movq	%r9, 24(%rsp)
	call	_ZNSt8_Rb_treeIPN8opendnp317IScheduleCallbackES2_St9_IdentityIS2_ESt4lessIS2_ESaIS2_EE8_M_eraseEPSt13_Rb_tree_nodeIS2_E.isra.0
	movq	%rbx, %rdi
	movq	16(%rbx), %rbx
	movl	$40, %esi
	call	_ZdlPvm@PLT
	movq	24(%rsp), %r9
	testq	%rbx, %rbx
	jne	.L55
.L54:
	movq	16(%r9), %rbx
	movl	$40, %esi
	movq	%r9, %rdi
	call	_ZdlPvm@PLT
	testq	%rbx, %rbx
	je	.L53
	movq	%rbx, %r9
	jmp	.L56
.L51:
	movq	16(%rbp), %r12
	movl	$40, %esi
	movq	%rbp, %rdi
	call	_ZdlPvm@PLT
	testq	%r12, %r12
	je	.L50
	movq	%r12, %rbp
	jmp	.L59
	.p2align 4,,10
	.p2align 3
.L52:
	movq	16(%r13), %r12
	movl	$40, %esi
	movq	%r13, %rdi
	call	_ZdlPvm@PLT
	testq	%r12, %r12
	je	.L51
	movq	%r12, %r13
	jmp	.L58
.L50:
	movq	8(%rsp), %rdi
	movl	$40, %esi
	movq	16(%rdi), %rbp
	call	_ZdlPvm@PLT
	testq	%rbp, %rbp
	je	.L49
	movq	%rbp, 8(%rsp)
	jmp	.L60
	.p2align 4,,10
	.p2align 3
.L53:
	movq	16(%r12), %rax
	movl	$40, %esi
	movq	%r12, %rdi
	movq	%rax, 24(%rsp)
	call	_ZdlPvm@PLT
	movq	24(%rsp), %rax
	testq	%rax, %rax
	je	.L52
	movq	%rax, %r12
	jmp	.L57
.L49:
	movq	16(%r15), %rbx
	movl	$40, %esi
	movq	%r15, %rdi
	call	_ZdlPvm@PLT
	testq	%rbx, %rbx
	je	.L48
	movq	%rbx, %r15
	jmp	.L61
.L48:
	movq	16(%r14), %rbx
	movl	$40, %esi
	movq	%r14, %rdi
	call	_ZdlPvm@PLT
	testq	%rbx, %rbx
	je	.L47
	movq	%rbx, %r14
	jmp	.L62
.L47:
	movq	16(%rsp), %rdi
	movl	$40, %esi
	movq	16(%rdi), %rbx
	call	_ZdlPvm@PLT
	testq	%rbx, %rbx
	je	.L45
	movq	%rbx, 16(%rsp)
	jmp	.L63
.L45:
	addq	$40, %rsp
	.cfi_def_cfa_offset 56
	popq	%rbx
	.cfi_def_cfa_offset 48
	popq	%rbp
	.cfi_def_cfa_offset 40
	popq	%r12
	.cfi_def_cfa_offset 32
	popq	%r13
	.cfi_def_cfa_offset 24
	popq	%r14
	.cfi_def_cfa_offset 16
	popq	%r15
	.cfi_def_cfa_offset 8
	ret
	.cfi_endproc
.LFE10436:
	.size	_ZNSt8_Rb_treeIPN8opendnp317IScheduleCallbackES2_St9_IdentityIS2_ESt4lessIS2_ESaIS2_EE8_M_eraseEPSt13_Rb_tree_nodeIS2_E.isra.0, .-_ZNSt8_Rb_treeIPN8opendnp317IScheduleCallbackES2_St9_IdentityIS2_ESt4lessIS2_ESaIS2_EE8_M_eraseEPSt13_Rb_tree_nodeIS2_E.isra.0
	.section	.rodata._ZNK4asio6detail15system_category7messageB5cxx11Ei.str1.8,"aMS",@progbits,1
	.align 8
.LC4:
	.string	"basic_string::_M_construct null not valid"
	.section	.text._ZNK4asio6detail15system_category7messageB5cxx11Ei,"axG",@progbits,_ZNK4asio6detail15system_category7messageB5cxx11Ei,comdat
	.align 2
	.p2align 4
	.weak	_ZNK4asio6detail15system_category7messageB5cxx11Ei
	.type	_ZNK4asio6detail15system_category7messageB5cxx11Ei, @function
_ZNK4asio6detail15system_category7messageB5cxx11Ei:
.LFB2995:
	.cfi_startproc
	endbr64
	pushq	%r14
	.cfi_def_cfa_offset 16
	.cfi_offset 14, -16
	pushq	%r13
	.cfi_def_cfa_offset 24
	.cfi_offset 13, -24
	pushq	%r12
	.cfi_def_cfa_offset 32
	.cfi_offset 12, -32
	movq	%rdi, %r12
	pushq	%rbp
	.cfi_def_cfa_offset 40
	.cfi_offset 6, -40
	leaq	16(%rdi), %rbp
	subq	$296, %rsp
	.cfi_def_cfa_offset 336
	movq	%fs:40, %rax
	movq	%rax, 280(%rsp)
	xorl	%eax, %eax
	cmpl	$125, %edx
	je	.L116
	pxor	%xmm0, %xmm0
	movl	%edx, %edi
	leaq	16(%rsp), %rsi
	movl	$256, %edx
	movaps	%xmm0, 16(%rsp)
	movaps	%xmm0, 32(%rsp)
	movaps	%xmm0, 48(%rsp)
	movaps	%xmm0, 64(%rsp)
	movaps	%xmm0, 80(%rsp)
	movaps	%xmm0, 96(%rsp)
	movaps	%xmm0, 112(%rsp)
	movaps	%xmm0, 128(%rsp)
	movaps	%xmm0, 144(%rsp)
	movaps	%xmm0, 160(%rsp)
	movaps	%xmm0, 176(%rsp)
	movaps	%xmm0, 192(%rsp)
	movaps	%xmm0, 208(%rsp)
	movaps	%xmm0, 224(%rsp)
	movaps	%xmm0, 240(%rsp)
	movaps	%xmm0, 256(%rsp)
	call	strerror_r@PLT
	movq	%rbp, (%r12)
	movq	%rax, %r13
	testq	%rax, %rax
	je	.L104
	movq	%rax, %rdi
	call	strlen@PLT
	movq	%rax, 8(%rsp)
	movq	%rax, %r14
	cmpq	$15, %rax
	ja	.L117
	cmpq	$1, %rax
	jne	.L108
	movzbl	0(%r13), %edx
	movb	%dl, 16(%r12)
.L109:
	movq	%rax, 8(%r12)
	movb	$0, 0(%rbp,%rax)
.L101:
	movq	280(%rsp), %rax
	subq	%fs:40, %rax
	jne	.L118
	addq	$296, %rsp
	.cfi_remember_state
	.cfi_def_cfa_offset 40
	movq	%r12, %rax
	popq	%rbp
	.cfi_def_cfa_offset 32
	popq	%r12
	.cfi_def_cfa_offset 24
	popq	%r13
	.cfi_def_cfa_offset 16
	popq	%r14
	.cfi_def_cfa_offset 8
	ret
	.p2align 4,,10
	.p2align 3
.L117:
	.cfi_restore_state
	leaq	8(%rsp), %rsi
	xorl	%edx, %edx
	movq	%r12, %rdi
	call	_ZNSt7__cxx1112basic_stringIcSt11char_traitsIcESaIcEE9_M_createERmm@PLT
	movq	%rax, (%r12)
	movq	%rax, %rbp
	movq	8(%rsp), %rax
	movq	%rax, 16(%r12)
.L107:
	movq	%rbp, %rdi
	movq	%r14, %rdx
	movq	%r13, %rsi
	call	memcpy@PLT
	movq	8(%rsp), %rax
	movq	(%r12), %rbp
	jmp	.L109
	.p2align 4,,10
	.p2align 3
.L116:
	movq	%rbp, (%rdi)
	xorl	%edx, %edx
	leaq	8(%rsp), %rsi
	movq	$18, 8(%rsp)
	call	_ZNSt7__cxx1112basic_stringIcSt11char_traitsIcESaIcEE9_M_createERmm@PLT
	movq	8(%rsp), %rdx
	movdqa	.LC5(%rip), %xmm0
	movq	%rax, (%r12)
	movq	%rdx, 16(%r12)
	movl	$11876, %edx
	movw	%dx, 16(%rax)
	movups	%xmm0, (%rax)
	movq	8(%rsp), %rax
	movq	(%r12), %rdx
	movq	%rax, 8(%r12)
	movb	$0, (%rdx,%rax)
	jmp	.L101
	.p2align 4,,10
	.p2align 3
.L108:
	testq	%rax, %rax
	je	.L109
	jmp	.L107
.L104:
	leaq	.LC4(%rip), %rdi
	call	_ZSt19__throw_logic_errorPKc@PLT
.L118:
	call	__stack_chk_fail@PLT
	.cfi_endproc
.LFE2995:
	.size	_ZNK4asio6detail15system_category7messageB5cxx11Ei, .-_ZNK4asio6detail15system_category7messageB5cxx11Ei
	.section	.text._ZNK4asio5error6detail17addrinfo_category7messageB5cxx11Ei,"axG",@progbits,_ZNK4asio5error6detail17addrinfo_category7messageB5cxx11Ei,comdat
	.align 2
	.p2align 4
	.weak	_ZNK4asio5error6detail17addrinfo_category7messageB5cxx11Ei
	.type	_ZNK4asio5error6detail17addrinfo_category7messageB5cxx11Ei, @function
_ZNK4asio5error6detail17addrinfo_category7messageB5cxx11Ei:
.LFB3041:
	.cfi_startproc
	endbr64
	pushq	%r12
	.cfi_def_cfa_offset 16
	.cfi_offset 12, -16
	movq	%rdi, %r12
	subq	$16, %rsp
	.cfi_def_cfa_offset 32
	movq	%fs:40, %rax
	movq	%rax, 8(%rsp)
	xorl	%eax, %eax
	leaq	16(%rdi), %rax
	movq	%rax, (%rdi)
	cmpl	$-8, %edx
	je	.L125
	cmpl	$-7, %edx
	je	.L126
	xorl	%edx, %edx
	movq	%rsp, %rsi
	movq	$19, (%rsp)
	call	_ZNSt7__cxx1112basic_stringIcSt11char_traitsIcESaIcEE9_M_createERmm@PLT
	movq	(%rsp), %rdx
	movdqa	.LC8(%rip), %xmm0
	movq	%rax, (%r12)
	movq	%rdx, 16(%r12)
	movl	$28530, %edx
	movw	%dx, 16(%rax)
	movb	$114, 18(%rax)
	movups	%xmm0, (%rax)
	movq	(%rsp), %rax
	movq	(%r12), %rdx
	movq	%rax, 8(%r12)
	movb	$0, (%rdx,%rax)
.L119:
	movq	8(%rsp), %rax
	subq	%fs:40, %rax
	jne	.L127
	addq	$16, %rsp
	.cfi_remember_state
	.cfi_def_cfa_offset 16
	movq	%r12, %rax
	popq	%r12
	.cfi_def_cfa_offset 8
	ret
	.p2align 4,,10
	.p2align 3
.L126:
	.cfi_restore_state
	xorl	%edx, %edx
	movq	%rsp, %rsi
	movq	$25, (%rsp)
	call	_ZNSt7__cxx1112basic_stringIcSt11char_traitsIcESaIcEE9_M_createERmm@PLT
	movq	(%rsp), %rdx
	movdqa	.LC7(%rip), %xmm0
	movabsq	$7310593918082512243, %rcx
	movq	%rax, (%r12)
	movq	%rdx, 16(%r12)
	movq	%rcx, 16(%rax)
	movb	$100, 24(%rax)
	movups	%xmm0, (%rax)
	movq	(%rsp), %rax
	movq	(%r12), %rdx
	movq	%rax, 8(%r12)
	movb	$0, (%rdx,%rax)
	jmp	.L119
	.p2align 4,,10
	.p2align 3
.L125:
	xorl	%edx, %edx
	movq	%rsp, %rsi
	movq	$17, (%rsp)
	call	_ZNSt7__cxx1112basic_stringIcSt11char_traitsIcESaIcEE9_M_createERmm@PLT
	movq	(%rsp), %rdx
	movdqa	.LC6(%rip), %xmm0
	movq	%rax, (%r12)
	movq	%rdx, 16(%r12)
	movb	$100, 16(%rax)
	movups	%xmm0, (%rax)
	movq	(%rsp), %rax
	movq	(%r12), %rdx
	movq	%rax, 8(%r12)
	movb	$0, (%rdx,%rax)
	jmp	.L119
.L127:
	call	__stack_chk_fail@PLT
	.cfi_endproc
.LFE3041:
	.size	_ZNK4asio5error6detail17addrinfo_category7messageB5cxx11Ei, .-_ZNK4asio5error6detail17addrinfo_category7messageB5cxx11Ei
	.section	.text._ZNK4asio5error6detail14netdb_category7messageB5cxx11Ei,"axG",@progbits,_ZNK4asio5error6detail14netdb_category7messageB5cxx11Ei,comdat
	.align 2
	.p2align 4
	.weak	_ZNK4asio5error6detail14netdb_category7messageB5cxx11Ei
	.type	_ZNK4asio5error6detail14netdb_category7messageB5cxx11Ei, @function
_ZNK4asio5error6detail14netdb_category7messageB5cxx11Ei:
.LFB3035:
	.cfi_startproc
	endbr64
	pushq	%r12
	.cfi_def_cfa_offset 16
	.cfi_offset 12, -16
	movq	%rdi, %r12
	subq	$16, %rsp
	.cfi_def_cfa_offset 32
	movq	%fs:40, %rax
	movq	%rax, 8(%rsp)
	xorl	%eax, %eax
	leaq	16(%rdi), %rax
	movq	%rax, (%rdi)
	cmpl	$1, %edx
	je	.L136
	cmpl	$2, %edx
	je	.L137
	cmpl	$4, %edx
	je	.L138
	cmpl	$3, %edx
	je	.L139
	xorl	%edx, %edx
	movq	%rsp, %rsi
	movq	$16, (%rsp)
	call	_ZNSt7__cxx1112basic_stringIcSt11char_traitsIcESaIcEE9_M_createERmm@PLT
	movq	(%rsp), %rdx
	movdqa	.LC18(%rip), %xmm0
	movq	%rax, (%r12)
	movq	%rdx, 16(%r12)
	movups	%xmm0, (%rax)
	movq	(%rsp), %rax
	movq	(%r12), %rdx
	movq	%rax, 8(%r12)
	movb	$0, (%rdx,%rax)
.L128:
	movq	8(%rsp), %rax
	subq	%fs:40, %rax
	jne	.L140
	addq	$16, %rsp
	.cfi_remember_state
	.cfi_def_cfa_offset 16
	movq	%r12, %rax
	popq	%r12
	.cfi_def_cfa_offset 8
	ret
	.p2align 4,,10
	.p2align 3
.L136:
	.cfi_restore_state
	movq	%rsp, %rsi
	xorl	%edx, %edx
	movq	$30, (%rsp)
	call	_ZNSt7__cxx1112basic_stringIcSt11char_traitsIcESaIcEE9_M_createERmm@PLT
	movq	(%rsp), %rdx
	movl	$10597, %esi
	movdqa	.LC9(%rip), %xmm0
	movabsq	$8388361603773658465, %rcx
	movq	%rax, (%r12)
	movq	%rdx, 16(%r12)
	movq	%rcx, 16(%rax)
	movl	$1986622561, 24(%rax)
	movw	%si, 28(%rax)
	movups	%xmm0, (%rax)
	movq	(%rsp), %rax
	movq	(%r12), %rdx
	movq	%rax, 8(%r12)
	movb	$0, (%rdx,%rax)
	jmp	.L128
	.p2align 4,,10
	.p2align 3
.L139:
	xorl	%edx, %edx
	movq	%rsp, %rsi
	movq	$55, (%rsp)
	call	_ZNSt7__cxx1112basic_stringIcSt11char_traitsIcESaIcEE9_M_createERmm@PLT
	movq	(%rsp), %rdx
	movdqa	.LC15(%rip), %xmm0
	movq	%rax, (%r12)
	movq	%rdx, 16(%r12)
	movl	$30059, %edx
	movups	%xmm0, (%rax)
	movdqa	.LC16(%rip), %xmm0
	movl	$1869573152, 48(%rax)
	movups	%xmm0, 16(%rax)
	movdqa	.LC17(%rip), %xmm0
	movw	%dx, 52(%rax)
	movb	$112, 54(%rax)
	movups	%xmm0, 32(%rax)
	movq	(%rsp), %rax
	movq	(%r12), %rdx
	movq	%rax, 8(%r12)
	movb	$0, (%rdx,%rax)
	jmp	.L128
	.p2align 4,,10
	.p2align 3
.L137:
	xorl	%edx, %edx
	movq	%rsp, %rsi
	movq	$51, (%rsp)
	call	_ZNSt7__cxx1112basic_stringIcSt11char_traitsIcESaIcEE9_M_createERmm@PLT
	movq	(%rsp), %rdx
	movl	$25972, %ecx
	movdqa	.LC9(%rip), %xmm0
	movq	%rax, (%r12)
	movq	%rdx, 16(%r12)
	movups	%xmm0, (%rax)
	movdqa	.LC10(%rip), %xmm0
	movw	%cx, 48(%rax)
	movups	%xmm0, 16(%rax)
	movdqa	.LC11(%rip), %xmm0
	movb	$114, 50(%rax)
	movups	%xmm0, 32(%rax)
	movq	(%rsp), %rax
	movq	(%r12), %rdx
	movq	%rax, 8(%r12)
	movb	$0, (%rdx,%rax)
	jmp	.L128
	.p2align 4,,10
	.p2align 3
.L138:
	xorl	%edx, %edx
	movq	%rsp, %rsi
	movq	$56, (%rsp)
	call	_ZNSt7__cxx1112basic_stringIcSt11char_traitsIcESaIcEE9_M_createERmm@PLT
	movq	(%rsp), %rdx
	movdqa	.LC12(%rip), %xmm0
	movabsq	$7022344801645520244, %rcx
	movq	%rax, (%r12)
	movq	%rdx, 16(%r12)
	movups	%xmm0, (%rax)
	movdqa	.LC13(%rip), %xmm0
	movq	%rcx, 48(%rax)
	movups	%xmm0, 16(%rax)
	movdqa	.LC14(%rip), %xmm0
	movups	%xmm0, 32(%rax)
	movq	(%rsp), %rax
	movq	(%r12), %rdx
	movq	%rax, 8(%r12)
	movb	$0, (%rdx,%rax)
	jmp	.L128
.L140:
	call	__stack_chk_fail@PLT
	.cfi_endproc
.LFE3035:
	.size	_ZNK4asio5error6detail14netdb_category7messageB5cxx11Ei, .-_ZNK4asio5error6detail14netdb_category7messageB5cxx11Ei
	.section	.text._ZNK4asio5error6detail13misc_category7messageB5cxx11Ei,"axG",@progbits,_ZNK4asio5error6detail13misc_category7messageB5cxx11Ei,comdat
	.align 2
	.p2align 4
	.weak	_ZNK4asio5error6detail13misc_category7messageB5cxx11Ei
	.type	_ZNK4asio5error6detail13misc_category7messageB5cxx11Ei, @function
_ZNK4asio5error6detail13misc_category7messageB5cxx11Ei:
.LFB3047:
	.cfi_startproc
	endbr64
	pushq	%r12
	.cfi_def_cfa_offset 16
	.cfi_offset 12, -16
	movq	%rdi, %r12
	subq	$16, %rsp
	.cfi_def_cfa_offset 32
	movq	%fs:40, %rax
	movq	%rax, 8(%rsp)
	xorl	%eax, %eax
	leaq	16(%rdi), %rax
	movq	%rax, (%rdi)
	cmpl	$1, %edx
	je	.L149
	cmpl	$2, %edx
	je	.L150
	cmpl	$3, %edx
	je	.L151
	cmpl	$4, %edx
	je	.L152
	movabsq	$8316298233121436513, %rcx
	movl	$28530, %edx
	movq	%rcx, 16(%rdi)
	movl	$1919230051, 8(%rax)
	movw	%dx, 12(%rax)
	movb	$114, 14(%rax)
	movq	$15, 8(%rdi)
	movb	$0, 31(%rdi)
.L141:
	movq	8(%rsp), %rax
	subq	%fs:40, %rax
	jne	.L153
	addq	$16, %rsp
	.cfi_remember_state
	.cfi_def_cfa_offset 16
	movq	%r12, %rax
	popq	%r12
	.cfi_def_cfa_offset 8
	ret
	.p2align 4,,10
	.p2align 3
.L149:
	.cfi_restore_state
	movabsq	$2340011850872286273, %rcx
	movq	%rcx, 16(%rdi)
	movl	$1852141679, 8(%rax)
	movq	$12, 8(%rdi)
	movb	$0, 28(%rdi)
	jmp	.L141
	.p2align 4,,10
	.p2align 3
.L152:
	movq	%rsp, %rsi
	xorl	%edx, %edx
	movq	$57, (%rsp)
	call	_ZNSt7__cxx1112basic_stringIcSt11char_traitsIcESaIcEE9_M_createERmm@PLT
	movq	(%rsp), %rdx
	movdqa	.LC20(%rip), %xmm0
	movabsq	$7310291504967217959, %rsi
	movq	%rax, (%r12)
	movq	%rdx, 16(%r12)
	movups	%xmm0, (%rax)
	movdqa	.LC21(%rip), %xmm0
	movq	%rsi, 48(%rax)
	movups	%xmm0, 16(%rax)
	movdqa	.LC22(%rip), %xmm0
	movb	$116, 56(%rax)
	movups	%xmm0, 32(%rax)
	movq	(%rsp), %rax
	movq	(%r12), %rdx
	movq	%rax, 8(%r12)
	movb	$0, (%rdx,%rax)
	jmp	.L141
	.p2align 4,,10
	.p2align 3
.L150:
	movabsq	$7358994418594246213, %rcx
	movq	%rcx, 16(%rdi)
	movl	$27753, %ecx
	movw	%cx, 8(%rax)
	movb	$101, 10(%rax)
	movq	$11, 8(%rdi)
	movb	$0, 27(%rdi)
	jmp	.L141
	.p2align 4,,10
	.p2align 3
.L151:
	xorl	%edx, %edx
	movq	%rsp, %rsi
	movq	$17, (%rsp)
	call	_ZNSt7__cxx1112basic_stringIcSt11char_traitsIcESaIcEE9_M_createERmm@PLT
	movq	(%rsp), %rdx
	movdqa	.LC19(%rip), %xmm0
	movq	%rax, (%r12)
	movq	%rdx, 16(%r12)
	movb	$100, 16(%rax)
	movups	%xmm0, (%rax)
	movq	(%rsp), %rax
	movq	(%r12), %rdx
	movq	%rax, 8(%r12)
	movb	$0, (%rdx,%rax)
	jmp	.L141
.L153:
	call	__stack_chk_fail@PLT
	.cfi_endproc
.LFE3047:
	.size	_ZNK4asio5error6detail13misc_category7messageB5cxx11Ei, .-_ZNK4asio5error6detail13misc_category7messageB5cxx11Ei
	.section	.text._ZNSt23_Sp_counted_ptr_inplaceIN7asiopal13SerialChannelESaIS1_ELN9__gnu_cxx12_Lock_policyE2EE10_M_disposeEv,"axG",@progbits,_ZNSt23_Sp_counted_ptr_inplaceIN7asiopal13SerialChannelESaIS1_ELN9__gnu_cxx12_Lock_policyE2EE10_M_disposeEv,comdat
	.align 2
	.p2align 4
	.weak	_ZNSt23_Sp_counted_ptr_inplaceIN7asiopal13SerialChannelESaIS1_ELN9__gnu_cxx12_Lock_policyE2EE10_M_disposeEv
	.type	_ZNSt23_Sp_counted_ptr_inplaceIN7asiopal13SerialChannelESaIS1_ELN9__gnu_cxx12_Lock_policyE2EE10_M_disposeEv, @function
_ZNSt23_Sp_counted_ptr_inplaceIN7asiopal13SerialChannelESaIS1_ELN9__gnu_cxx12_Lock_policyE2EE10_M_disposeEv:
.LFB10320:
	.cfi_startproc
	.cfi_personality 0x9b,DW.ref.__gxx_personality_v0
	.cfi_lsda 0x1b,.LLSDA10320
	endbr64
	pushq	%r15
	.cfi_def_cfa_offset 16
	.cfi_offset 15, -16
	movq	%rdi, %r15
	pushq	%r14
	.cfi_def_cfa_offset 24
	.cfi_offset 14, -24
	pushq	%r13
	.cfi_def_cfa_offset 32
	.cfi_offset 13, -32
	pushq	%r12
	.cfi_def_cfa_offset 40
	.cfi_offset 12, -40
	pushq	%rbp
	.cfi_def_cfa_offset 48
	.cfi_offset 6, -48
	pushq	%rbx
	.cfi_def_cfa_offset 56
	.cfi_offset 3, -56
	subq	$72, %rsp
	.cfi_def_cfa_offset 128
	movl	80(%rdi), %r12d
	movq	%fs:40, %rax
	movq	%rax, 56(%rsp)
	movq	_ZTVN7asiopal13SerialChannelE@GOTPCREL(%rip), %rax
	addq	$16, %rax
	movq	%rax, 16(%rdi)
	cmpl	$-1, %r12d
	jne	.L273
.L186:
	movq	_ZTVN7asiopal13IAsyncChannelE@GOTPCREL(%rip), %rax
	movq	64(%r15), %rbp
	addq	$16, %rax
	movq	%rax, 16(%r15)
	testq	%rbp, %rbp
	je	.L198
	movq	__libc_single_threaded@GOTPCREL(%rip), %rbx
	cmpb	$0, (%rbx)
	je	.L199
	movl	8(%rbp), %eax
	leal	-1(%rax), %edx
	movl	%edx, 8(%rbp)
.L200:
	cmpl	$1, %eax
	je	.L274
.L198:
	movq	48(%r15), %rbp
	testq	%rbp, %rbp
	je	.L205
	movq	__libc_single_threaded@GOTPCREL(%rip), %rbx
	cmpb	$0, (%rbx)
	je	.L206
	movl	8(%rbp), %eax
	leal	-1(%rax), %edx
	movl	%edx, 8(%rbp)
.L207:
	cmpl	$1, %eax
	je	.L275
.L205:
	movq	32(%r15), %rdi
	testq	%rdi, %rdi
	je	.L154
	movq	__libc_single_threaded@GOTPCREL(%rip), %rax
	cmpb	$0, (%rax)
	je	.L213
	movl	12(%rdi), %eax
	leal	-1(%rax), %edx
	movl	%edx, 12(%rdi)
.L214:
	cmpl	$1, %eax
	je	.L276
.L154:
	movq	56(%rsp), %rax
	subq	%fs:40, %rax
	jne	.L268
	addq	$72, %rsp
	.cfi_remember_state
	.cfi_def_cfa_offset 56
	popq	%rbx
	.cfi_def_cfa_offset 48
	popq	%rbp
	.cfi_def_cfa_offset 40
	popq	%r12
	.cfi_def_cfa_offset 32
	popq	%r13
	.cfi_def_cfa_offset 24
	popq	%r14
	.cfi_def_cfa_offset 16
	popq	%r15
	.cfi_def_cfa_offset 8
	ret
	.p2align 4,,10
	.p2align 3
.L273:
	.cfi_restore_state
	movq	88(%rdi), %rbp
	testq	%rbp, %rbp
	je	.L185
	movq	96(%rdi), %rax
	movzbl	84(%rdi), %ebx
	movq	40(%rax), %rax
	movq	%rax, 16(%rsp)
	leaq	40(%rbp), %rax
	movq	%rax, %rdi
	movq	%rax, 24(%rsp)
	call	pthread_mutex_lock@PLT
	movq	88(%r15), %rdi
	cmpb	$0, 144(%rdi)
	jne	.L157
	andl	$4, %ebx
	jne	.L277
.L158:
	movq	$0, 8(%rsp)
	xorl	%ebp, %ebp
	movl	$0, 4(%rsp)
.L159:
	movslq	4(%rsp), %r12
	movq	%r12, %rax
	salq	$4, %rax
	movq	96(%rax,%rdi), %rbx
	testq	%rbx, %rbx
	je	.L220
	movq	_ZGVZN4asio15system_categoryEvE8instance@GOTPCREL(%rip), %r14
	movq	_ZZN4asio15system_categoryEvE8instance@GOTPCREL(%rip), %r13
	movzbl	(%r14), %eax
	testb	%al, %al
	je	.L278
	.p2align 4,,10
	.p2align 3
.L161:
	movq	88(%r15), %rdi
	movq	%r12, %rax
	movl	$125, 24(%rbx)
	salq	$4, %rax
	movq	%r13, 32(%rbx)
	addq	%rdi, %rax
	movq	96(%rax), %rdx
	testq	%rdx, %rdx
	je	.L163
	movq	(%rdx), %r11
	movq	%r11, 96(%rax)
	testq	%r11, %r11
	je	.L279
	movq	$0, (%rdx)
	movq	$0, (%rbx)
	testq	%rbp, %rbp
	je	.L280
.L217:
	movq	%rbx, 0(%rbp)
	testq	%r11, %r11
	je	.L165
.L166:
	movzbl	(%r14), %eax
	movq	%rbx, %rbp
	movq	%r11, %rbx
	testb	%al, %al
	jne	.L161
.L278:
	movq	%r14, %rdi
	call	__cxa_guard_acquire@PLT
	testl	%eax, %eax
	je	.L161
	movq	_ZN4asio6detail15system_categoryD1Ev@GOTPCREL(%rip), %rdi
	leaq	__dso_handle(%rip), %rdx
	movq	%r13, %rsi
	call	__cxa_atexit@PLT
	movq	%r14, %rdi
	call	__cxa_guard_release@PLT
	jmp	.L161
	.p2align 4,,10
	.p2align 3
.L157:
	movq	24(%rsp), %rdi
	call	pthread_mutex_unlock@PLT
.L266:
	movl	80(%r15), %r12d
	cmpl	$-1, %r12d
	je	.L186
.L185:
	call	__errno_location@PLT
	movl	%r12d, %edi
	movl	$0, (%rax)
	movq	%rax, %rbx
	call	close@PLT
	movq	_ZGVZN4asio15system_categoryEvE8instance@GOTPCREL(%rip), %r14
	movl	%eax, %ebp
	movzbl	(%r14), %eax
	testb	%al, %al
	je	.L281
.L188:
	movl	(%rbx), %r13d
	testl	%ebp, %ebp
	je	.L186
	movzbl	(%r14), %eax
	testb	%al, %al
	je	.L282
.L191:
	cmpl	$11, %r13d
	je	.L193
.L272:
	movzbl	(%r14), %eax
	testb	%al, %al
	jne	.L186
	movq	%r14, %rdi
	call	__cxa_guard_acquire@PLT
	testl	%eax, %eax
	je	.L186
	movq	_ZZN4asio15system_categoryEvE8instance@GOTPCREL(%rip), %rsi
	movq	_ZN4asio6detail15system_categoryD1Ev@GOTPCREL(%rip), %rdi
	leaq	__dso_handle(%rip), %rdx
	call	__cxa_atexit@PLT
	movq	%r14, %rdi
	call	__cxa_guard_release@PLT
	jmp	.L186
	.p2align 4,,10
	.p2align 3
.L274:
	movq	0(%rbp), %rax
	movq	%rbp, %rdi
	call	*16(%rax)
	cmpb	$0, (%rbx)
	je	.L202
	movl	12(%rbp), %eax
	leal	-1(%rax), %edx
	movl	%edx, 12(%rbp)
.L203:
	cmpl	$1, %eax
	jne	.L198
	movq	0(%rbp), %rax
	movq	%rbp, %rdi
	call	*24(%rax)
	jmp	.L198
	.p2align 4,,10
	.p2align 3
.L275:
	movq	0(%rbp), %rax
	movq	%rbp, %rdi
	call	*16(%rax)
	cmpb	$0, (%rbx)
	je	.L209
	movl	12(%rbp), %eax
	leal	-1(%rax), %edx
	movl	%edx, 12(%rbp)
.L210:
	cmpl	$1, %eax
	jne	.L205
	movq	0(%rbp), %rax
	movq	%rbp, %rdi
	call	*24(%rax)
	jmp	.L205
	.p2align 4,,10
	.p2align 3
.L276:
	movq	56(%rsp), %rax
	subq	%fs:40, %rax
	jne	.L268
	movq	(%rdi), %rax
	movq	24(%rax), %rax
	addq	$72, %rsp
	.cfi_remember_state
	.cfi_def_cfa_offset 56
	popq	%rbx
	.cfi_def_cfa_offset 48
	popq	%rbp
	.cfi_def_cfa_offset 40
	popq	%r12
	.cfi_def_cfa_offset 32
	popq	%r13
	.cfi_def_cfa_offset 24
	popq	%r14
	.cfi_def_cfa_offset 16
	popq	%r15
	.cfi_def_cfa_offset 8
	jmp	*%rax
	.p2align 4,,10
	.p2align 3
.L213:
	.cfi_restore_state
	movl	$-1, %eax
	lock xaddl	%eax, 12(%rdi)
	jmp	.L214
	.p2align 4,,10
	.p2align 3
.L199:
	movl	$-1, %eax
	lock xaddl	%eax, 8(%rbp)
	jmp	.L200
	.p2align 4,,10
	.p2align 3
.L206:
	movl	$-1, %eax
	lock xaddl	%eax, 8(%rbp)
	jmp	.L207
	.p2align 4,,10
	.p2align 3
.L163:
	movq	$0, (%rbx)
	testq	%rbp, %rbp
	je	.L221
	movq	%rbx, 0(%rbp)
.L165:
	addl	$1, 4(%rsp)
	movl	4(%rsp), %eax
	cmpl	$3, %eax
	je	.L167
.L283:
	movq	%rbx, %rbp
	jmp	.L159
	.p2align 4,,10
	.p2align 3
.L279:
	movq	$0, 104(%rax)
	movq	$0, (%rdx)
	movq	$0, (%rbx)
	testq	%rbp, %rbp
	jne	.L217
	.p2align 4,,10
	.p2align 3
.L221:
	addl	$1, 4(%rsp)
	movl	4(%rsp), %eax
	movq	%rbx, 8(%rsp)
	cmpl	$3, %eax
	jne	.L283
.L167:
	movl	$-1, 88(%rdi)
	movb	$1, 144(%rdi)
	movq	24(%rsp), %rdi
	call	pthread_mutex_unlock@PLT
	movq	16(%rsp), %r14
	movq	88(%r15), %rbp
	leaq	120(%r14), %r12
	movq	%r12, %rdi
	call	pthread_mutex_lock@PLT
	cmpq	160(%r14), %rbp
	je	.L284
.L169:
	movq	32(%rbp), %rax
	testq	%rax, %rax
	je	.L170
	movq	24(%rbp), %rdx
	movq	%rdx, 24(%rax)
.L170:
	movq	24(%rbp), %rax
	testq	%rax, %rax
	je	.L171
	movq	32(%rbp), %rdx
	movq	%rdx, 32(%rax)
.L171:
	movq	16(%rsp), %r14
	movq	%r12, %rdi
	movq	168(%r14), %rax
	movq	$0, 32(%rbp)
	movq	%rax, 24(%rbp)
	movq	%rbp, 168(%r14)
	call	pthread_mutex_unlock@PLT
	cmpq	$0, 8(%rsp)
	movq	$0, 88(%r15)
	je	.L266
	movq	40(%r14), %rbp
	cmpb	$0, 40(%rbp)
	je	.L173
	data16	leaq	_ZN4asio6detail15keyword_tss_ptrINS0_10call_stackINS0_15task_io_serviceENS0_27task_io_service_thread_infoEE7contextEE6value_E@tlsgd(%rip), %rdi
	.value	0x6666
	rex64
	call	__tls_get_addr@PLT
	movq	(%rax), %rax
	testq	%rax, %rax
	jne	.L176
	jmp	.L173
	.p2align 4,,10
	.p2align 3
.L174:
	movq	16(%rax), %rax
	testq	%rax, %rax
	je	.L173
.L176:
	cmpq	(%rax), %rbp
	jne	.L174
	movq	8(%rax), %rax
	testq	%rax, %rax
	je	.L173
	movq	16(%rax), %rdx
	movq	8(%rsp), %rcx
	testq	%rdx, %rdx
	je	.L177
	movq	%rcx, (%rdx)
.L178:
	movq	%rbx, 16(%rax)
	jmp	.L266
	.p2align 4,,10
	.p2align 3
.L280:
	movq	%rbx, 8(%rsp)
	jmp	.L166
	.p2align 4,,10
	.p2align 3
.L281:
	movq	%r14, %rdi
	call	__cxa_guard_acquire@PLT
	testl	%eax, %eax
	je	.L188
	movq	_ZZN4asio15system_categoryEvE8instance@GOTPCREL(%rip), %rsi
	movq	_ZN4asio6detail15system_categoryD1Ev@GOTPCREL(%rip), %rdi
	leaq	__dso_handle(%rip), %rdx
	call	__cxa_atexit@PLT
	movq	%r14, %rdi
	call	__cxa_guard_release@PLT
	jmp	.L188
	.p2align 4,,10
	.p2align 3
.L173:
	leaq	48(%rbp), %r12
	movq	%r12, %rdi
	call	pthread_mutex_lock@PLT
	movq	200(%rbp), %rax
	testq	%rax, %rax
	je	.L180
	movq	8(%rsp), %rcx
	movq	%rcx, (%rax)
.L181:
	movq	136(%rbp), %rax
	movq	%rbx, 200(%rbp)
	orq	$1, %rax
	movq	%rax, 136(%rbp)
	cmpq	$1, %rax
	je	.L182
	movq	%r12, %rdi
	call	pthread_mutex_unlock@PLT
	leaq	88(%rbp), %rdi
	call	pthread_cond_signal@PLT
	jmp	.L266
.L182:
	cmpb	$0, 176(%rbp)
	jne	.L184
	movq	144(%rbp), %rax
	testq	%rax, %rax
	je	.L184
	movb	$1, 176(%rbp)
	leaq	88(%rax), %rdx
	leaq	44(%rsp), %rcx
	movl	$3, %esi
	movq	%rdx, 48(%rsp)
	movl	88(%rax), %edx
	movl	$-2147483639, 44(%rsp)
	movl	96(%rax), %edi
	call	epoll_ctl@PLT
.L184:
	movq	%r12, %rdi
	call	pthread_mutex_unlock@PLT
	jmp	.L266
	.p2align 4,,10
	.p2align 3
.L202:
	movl	$-1, %eax
	lock xaddl	%eax, 12(%rbp)
	jmp	.L203
	.p2align 4,,10
	.p2align 3
.L209:
	movl	$-1, %eax
	lock xaddl	%eax, 12(%rbp)
	jmp	.L210
	.p2align 4,,10
	.p2align 3
.L220:
	movq	%rbp, %rbx
	jmp	.L165
	.p2align 4,,10
	.p2align 3
.L277:
	movq	16(%rsp), %rax
	movl	$0, 44(%rsp)
	leaq	44(%rsp), %rcx
	movl	%r12d, %edx
	movq	$0, 48(%rsp)
	movl	$2, %esi
	movl	96(%rax), %edi
	call	epoll_ctl@PLT
	movq	88(%r15), %rdi
	jmp	.L158
	.p2align 4,,10
	.p2align 3
.L282:
	movq	%r14, %rdi
	call	__cxa_guard_acquire@PLT
	testl	%eax, %eax
	je	.L191
	movq	_ZZN4asio15system_categoryEvE8instance@GOTPCREL(%rip), %rsi
	movq	_ZN4asio6detail15system_categoryD1Ev@GOTPCREL(%rip), %rdi
	leaq	__dso_handle(%rip), %rdx
	call	__cxa_atexit@PLT
	movq	%r14, %rdi
	call	__cxa_guard_release@PLT
	jmp	.L191
	.p2align 4,,10
	.p2align 3
.L284:
	movq	24(%rbp), %rax
	movq	16(%rsp), %rcx
	movq	%rax, 160(%rcx)
	jmp	.L169
	.p2align 4,,10
	.p2align 3
.L193:
	movl	%r12d, %edi
	leaq	44(%rsp), %rdx
	movl	$21537, %esi
	xorl	%eax, %eax
	movl	$0, 44(%rsp)
	call	ioctl@PLT
	andb	$-4, 84(%r15)
	movl	%r12d, %edi
	movl	$0, (%rbx)
	call	close@PLT
	jmp	.L272
.L180:
	movq	8(%rsp), %rax
	movq	%rax, 192(%rbp)
	jmp	.L181
.L177:
	movq	%rcx, 8(%rax)
	jmp	.L178
.L268:
	call	__stack_chk_fail@PLT
	.cfi_endproc
.LFE10320:
	.globl	__gxx_personality_v0
	.section	.gcc_except_table._ZNSt23_Sp_counted_ptr_inplaceIN7asiopal13SerialChannelESaIS1_ELN9__gnu_cxx12_Lock_policyE2EE10_M_disposeEv,"aG",@progbits,_ZNSt23_Sp_counted_ptr_inplaceIN7asiopal13SerialChannelESaIS1_ELN9__gnu_cxx12_Lock_policyE2EE10_M_disposeEv,comdat
.LLSDA10320:
	.byte	0xff
	.byte	0xff
	.byte	0x1
	.uleb128 .LLSDACSE10320-.LLSDACSB10320
.LLSDACSB10320:
.LLSDACSE10320:
	.section	.text._ZNSt23_Sp_counted_ptr_inplaceIN7asiopal13SerialChannelESaIS1_ELN9__gnu_cxx12_Lock_policyE2EE10_M_disposeEv,"axG",@progbits,_ZNSt23_Sp_counted_ptr_inplaceIN7asiopal13SerialChannelESaIS1_ELN9__gnu_cxx12_Lock_policyE2EE10_M_disposeEv,comdat
	.size	_ZNSt23_Sp_counted_ptr_inplaceIN7asiopal13SerialChannelESaIS1_ELN9__gnu_cxx12_Lock_policyE2EE10_M_disposeEv, .-_ZNSt23_Sp_counted_ptr_inplaceIN7asiopal13SerialChannelESaIS1_ELN9__gnu_cxx12_Lock_policyE2EE10_M_disposeEv
	.section	.text._ZN8asiodnp39IOHandlerD2Ev,"axG",@progbits,_ZN8asiodnp39IOHandlerD5Ev,comdat
	.align 2
	.p2align 4
	.weak	_ZN8asiodnp39IOHandlerD2Ev
	.type	_ZN8asiodnp39IOHandlerD2Ev, @function
_ZN8asiodnp39IOHandlerD2Ev:
.LFB7652:
	.cfi_startproc
	endbr64
	pushq	%r15
	.cfi_def_cfa_offset 16
	.cfi_offset 15, -16
	pushq	%r14
	.cfi_def_cfa_offset 24
	.cfi_offset 14, -24
	pushq	%r13
	.cfi_def_cfa_offset 32
	.cfi_offset 13, -32
	pushq	%r12
	.cfi_def_cfa_offset 40
	.cfi_offset 12, -40
	movq	%rdi, %r12
	pushq	%rbp
	.cfi_def_cfa_offset 48
	.cfi_offset 6, -48
	pushq	%rbx
	.cfi_def_cfa_offset 56
	.cfi_offset 3, -56
	subq	$56, %rsp
	.cfi_def_cfa_offset 112
	movq	_ZTVN8asiodnp39IOHandlerE@GOTPCREL(%rip), %rax
	leaq	104(%rax), %rdx
	addq	$16, %rax
	movq	%rax, %xmm0
	movq	_ZTVN8opendnp317MultidropTaskLockE@GOTPCREL(%rip), %rax
	movq	%rdx, %xmm1
	punpcklqdq	%xmm1, %xmm0
	addq	$16, %rax
	movups	%xmm0, (%rdi)
	movq	%rax, 648(%rdi)
	movq	712(%rdi), %rdi
	testq	%rdi, %rdi
	je	.L286
	movq	784(%r12), %rax
	movq	752(%r12), %rbx
	leaq	8(%rax), %rbp
	cmpq	%rbx, %rbp
	jbe	.L287
	.p2align 4,,10
	.p2align 3
.L288:
	movq	(%rbx), %rdi
	movl	$512, %esi
	addq	$8, %rbx
	call	_ZdlPvm@PLT
	cmpq	%rbx, %rbp
	ja	.L288
	movq	712(%r12), %rdi
.L287:
	movq	720(%r12), %rax
	leaq	0(,%rax,8), %rsi
	call	_ZdlPvm@PLT
.L286:
	movq	680(%r12), %rbx
	testq	%rbx, %rbx
	je	.L292
.L289:
	movq	24(%rbx), %rdi
	call	_ZNSt8_Rb_treeIPN8opendnp317IScheduleCallbackES2_St9_IdentityIS2_ESt4lessIS2_ESaIS2_EE8_M_eraseEPSt13_Rb_tree_nodeIS2_E.isra.0
	movq	%rbx, %rdi
	movq	16(%rbx), %rbx
	movl	$40, %esi
	call	_ZdlPvm@PLT
	testq	%rbx, %rbx
	jne	.L289
.L292:
	movq	640(%r12), %rbp
	testq	%rbp, %rbp
	je	.L293
	movq	__libc_single_threaded@GOTPCREL(%rip), %r15
	cmpb	$0, (%r15)
	je	.L294
	movl	8(%rbp), %eax
	leal	-1(%rax), %edx
	movl	%edx, 8(%rbp)
.L295:
	cmpl	$1, %eax
	je	.L413
.L293:
	movq	240(%r12), %rbp
	testq	%rbp, %rbp
	je	.L299
	movq	__libc_single_threaded@GOTPCREL(%rip), %r15
	cmpb	$0, (%r15)
	je	.L300
	movl	8(%rbp), %eax
	leal	-1(%rax), %edx
	movl	%edx, 8(%rbp)
.L301:
	cmpl	$1, %eax
	je	.L414
.L299:
	movq	224(%r12), %rbp
	testq	%rbp, %rbp
	je	.L306
	movq	__libc_single_threaded@GOTPCREL(%rip), %r15
	cmpb	$0, (%r15)
	je	.L307
	movl	8(%rbp), %eax
	leal	-1(%rax), %edx
	movl	%edx, 8(%rbp)
.L308:
	cmpl	$1, %eax
	je	.L415
.L306:
	movq	184(%r12), %rax
	movq	168(%r12), %rsi
	movq	152(%r12), %rbx
	movq	%rax, 16(%rsp)
	movq	192(%r12), %rax
	movq	%rsi, 32(%rsp)
	movq	176(%r12), %rsi
	movq	%rax, (%rsp)
	movq	208(%r12), %rax
	leaq	8(%rsi), %rbp
	movq	%rsi, 40(%rsp)
	movq	%rax, 24(%rsp)
	cmpq	%rbp, %rax
	jbe	.L323
	.p2align 4,,10
	.p2align 3
.L312:
	movq	0(%rbp), %r13
	leaq	512(%r13), %r14
	jmp	.L322
	.p2align 4,,10
	.p2align 3
.L316:
	addq	$32, %r13
	cmpq	%r13, %r14
	je	.L416
.L322:
	movq	24(%r13), %rdi
	testq	%rdi, %rdi
	je	.L316
	movq	__libc_single_threaded@GOTPCREL(%rip), %r15
	cmpb	$0, (%r15)
	je	.L317
	movl	8(%rdi), %edx
	leal	-1(%rdx), %r8d
	movl	%r8d, 8(%rdi)
.L318:
	cmpl	$1, %edx
	jne	.L316
	movq	(%rdi), %rdx
	movq	%rdi, 8(%rsp)
	call	*16(%rdx)
	cmpb	$0, (%r15)
	movq	8(%rsp), %rdi
	je	.L320
	movl	12(%rdi), %edx
	leal	-1(%rdx), %ecx
	movl	%ecx, 12(%rdi)
.L321:
	cmpl	$1, %edx
	jne	.L316
	movq	(%rdi), %rdx
	addq	$32, %r13
	call	*24(%rdx)
	cmpq	%r13, %r14
	jne	.L322
	.p2align 4,,10
	.p2align 3
.L416:
	addq	$8, %rbp
	cmpq	%rbp, 24(%rsp)
	ja	.L312
.L323:
	movq	40(%rsp), %rcx
	cmpq	%rcx, 24(%rsp)
	je	.L412
	cmpq	32(%rsp), %rbx
	jne	.L327
	jmp	.L337
	.p2align 4,,10
	.p2align 3
.L331:
	addq	$32, %rbx
	cmpq	%rbx, 32(%rsp)
	je	.L337
.L327:
	movq	24(%rbx), %rbp
	testq	%rbp, %rbp
	je	.L331
	movq	__libc_single_threaded@GOTPCREL(%rip), %r15
	cmpb	$0, (%r15)
	je	.L332
	movl	8(%rbp), %eax
	leal	-1(%rax), %edx
	movl	%edx, 8(%rbp)
.L333:
	cmpl	$1, %eax
	jne	.L331
	movq	0(%rbp), %rax
	movq	%rbp, %rdi
	call	*16(%rax)
	cmpb	$0, (%r15)
	je	.L335
	movl	12(%rbp), %eax
	leal	-1(%rax), %edx
	movl	%edx, 12(%rbp)
.L336:
	cmpl	$1, %eax
	jne	.L331
	movq	0(%rbp), %rax
	movq	%rbp, %rdi
	addq	$32, %rbx
	call	*24(%rax)
	cmpq	%rbx, 32(%rsp)
	jne	.L327
.L337:
	movq	(%rsp), %rcx
	cmpq	%rcx, 16(%rsp)
	jne	.L328
	jmp	.L329
	.p2align 4,,10
	.p2align 3
.L339:
	addq	$32, (%rsp)
	movq	(%rsp), %rax
	cmpq	%rax, 16(%rsp)
	je	.L329
.L328:
	movq	(%rsp), %rax
	movq	24(%rax), %rbp
	testq	%rbp, %rbp
	je	.L339
	movq	__libc_single_threaded@GOTPCREL(%rip), %r15
	cmpb	$0, (%r15)
	je	.L340
	movl	8(%rbp), %eax
	leal	-1(%rax), %edx
	movl	%edx, 8(%rbp)
.L341:
	cmpl	$1, %eax
	jne	.L339
	movq	0(%rbp), %rax
	movq	%rbp, %rdi
	call	*16(%rax)
	cmpb	$0, (%r15)
	je	.L343
	movl	12(%rbp), %eax
	leal	-1(%rax), %edx
	movl	%edx, 12(%rbp)
.L344:
	cmpl	$1, %eax
	jne	.L339
	movq	0(%rbp), %rax
	movq	%rbp, %rdi
	call	*24(%rax)
	addq	$32, (%rsp)
	movq	(%rsp), %rax
	cmpq	%rax, 16(%rsp)
	jne	.L328
	.p2align 4,,10
	.p2align 3
.L329:
	movq	136(%r12), %rdi
	testq	%rdi, %rdi
	je	.L326
	movq	208(%r12), %rax
	movq	176(%r12), %rbx
	leaq	8(%rax), %rbp
	cmpq	%rbx, %rbp
	jbe	.L352
	.p2align 4,,10
	.p2align 3
.L353:
	movq	(%rbx), %rdi
	movl	$512, %esi
	addq	$8, %rbx
	call	_ZdlPvm@PLT
	cmpq	%rbx, %rbp
	ja	.L353
	movq	136(%r12), %rdi
.L352:
	movq	144(%r12), %rax
	leaq	0(,%rax,8), %rsi
	call	_ZdlPvm@PLT
.L326:
	movq	120(%r12), %rbx
	movq	112(%r12), %rbp
	cmpq	%rbp, %rbx
	jne	.L362
	jmp	.L354
	.p2align 4,,10
	.p2align 3
.L356:
	addq	$24, %rbp
	cmpq	%rbp, %rbx
	je	.L417
.L362:
	movq	16(%rbp), %r13
	testq	%r13, %r13
	je	.L356
	movq	__libc_single_threaded@GOTPCREL(%rip), %r15
	cmpb	$0, (%r15)
	je	.L357
	movl	8(%r13), %eax
	leal	-1(%rax), %edx
	movl	%edx, 8(%r13)
.L358:
	cmpl	$1, %eax
	jne	.L356
	movq	0(%r13), %rax
	movq	%r13, %rdi
	call	*16(%rax)
	cmpb	$0, (%r15)
	je	.L360
	movl	12(%r13), %eax
	leal	-1(%rax), %edx
	movl	%edx, 12(%r13)
.L361:
	cmpl	$1, %eax
	jne	.L356
	movq	0(%r13), %rax
	addq	$24, %rbp
	movq	%r13, %rdi
	call	*24(%rax)
	cmpq	%rbp, %rbx
	jne	.L362
	.p2align 4,,10
	.p2align 3
.L417:
	movq	112(%r12), %rbp
.L354:
	testq	%rbp, %rbp
	je	.L363
	movq	128(%r12), %rsi
	movq	%rbp, %rdi
	subq	%rbp, %rsi
	call	_ZdlPvm@PLT
.L363:
	movq	72(%r12), %rbp
	testq	%rbp, %rbp
	je	.L365
	movq	__libc_single_threaded@GOTPCREL(%rip), %r15
	cmpb	$0, (%r15)
	je	.L366
	movl	8(%rbp), %eax
	leal	-1(%rax), %edx
	movl	%edx, 8(%rbp)
.L367:
	cmpl	$1, %eax
	je	.L418
.L365:
	movq	56(%r12), %rbp
	testq	%rbp, %rbp
	je	.L372
	movq	__libc_single_threaded@GOTPCREL(%rip), %r15
	cmpb	$0, (%r15)
	je	.L373
	movl	8(%rbp), %eax
	leal	-1(%rax), %edx
	movl	%edx, 8(%rbp)
.L374:
	cmpl	$1, %eax
	je	.L419
.L372:
	movq	40(%r12), %rbp
	testq	%rbp, %rbp
	je	.L379
	movq	__libc_single_threaded@GOTPCREL(%rip), %r15
	cmpb	$0, (%r15)
	je	.L380
	movl	8(%rbp), %eax
	leal	-1(%rax), %edx
	movl	%edx, 8(%rbp)
.L381:
	cmpl	$1, %eax
	je	.L420
.L379:
	movq	24(%r12), %rdi
	testq	%rdi, %rdi
	je	.L285
	movq	__libc_single_threaded@GOTPCREL(%rip), %rax
	cmpb	$0, (%rax)
	je	.L387
	movl	12(%rdi), %eax
	leal	-1(%rax), %edx
	movl	%edx, 12(%rdi)
.L388:
	cmpl	$1, %eax
	je	.L421
.L285:
	addq	$56, %rsp
	.cfi_remember_state
	.cfi_def_cfa_offset 56
	popq	%rbx
	.cfi_def_cfa_offset 48
	popq	%rbp
	.cfi_def_cfa_offset 40
	popq	%r12
	.cfi_def_cfa_offset 32
	popq	%r13
	.cfi_def_cfa_offset 24
	popq	%r14
	.cfi_def_cfa_offset 16
	popq	%r15
	.cfi_def_cfa_offset 8
	ret
	.p2align 4,,10
	.p2align 3
.L317:
	.cfi_restore_state
	movl	$-1, %edx
	lock xaddl	%edx, 8(%rdi)
	jmp	.L318
.L423:
	movq	0(%rbp), %rax
	movq	%rbp, %rdi
	call	*16(%rax)
	cmpb	$0, (%r15)
	je	.L350
	movl	12(%rbp), %eax
	leal	-1(%rax), %edx
	movl	%edx, 12(%rbp)
.L351:
	cmpl	$1, %eax
	je	.L422
	.p2align 4,,10
	.p2align 3
.L346:
	addq	$32, %rbx
.L412:
	cmpq	%rbx, 16(%rsp)
	je	.L329
	movq	24(%rbx), %rbp
	testq	%rbp, %rbp
	je	.L346
	movq	__libc_single_threaded@GOTPCREL(%rip), %r15
	cmpb	$0, (%r15)
	je	.L347
	movl	8(%rbp), %eax
	leal	-1(%rax), %edx
	movl	%edx, 8(%rbp)
.L348:
	cmpl	$1, %eax
	jne	.L346
	jmp	.L423
	.p2align 4,,10
	.p2align 3
.L320:
	movl	$-1, %edx
	lock xaddl	%edx, 12(%rdi)
	jmp	.L321
	.p2align 4,,10
	.p2align 3
.L357:
	movl	$-1, %eax
	lock xaddl	%eax, 8(%r13)
	jmp	.L358
	.p2align 4,,10
	.p2align 3
.L332:
	movl	$-1, %eax
	lock xaddl	%eax, 8(%rbp)
	jmp	.L333
	.p2align 4,,10
	.p2align 3
.L340:
	movl	$-1, %eax
	lock xaddl	%eax, 8(%rbp)
	jmp	.L341
.L360:
	movl	$-1, %eax
	lock xaddl	%eax, 12(%r13)
	jmp	.L361
.L347:
	movl	$-1, %eax
	lock xaddl	%eax, 8(%rbp)
	jmp	.L348
.L335:
	movl	$-1, %eax
	lock xaddl	%eax, 12(%rbp)
	jmp	.L336
.L343:
	movl	$-1, %eax
	lock xaddl	%eax, 12(%rbp)
	jmp	.L344
.L418:
	movq	0(%rbp), %rax
	movq	%rbp, %rdi
	call	*16(%rax)
	cmpb	$0, (%r15)
	je	.L369
	movl	12(%rbp), %eax
	leal	-1(%rax), %edx
	movl	%edx, 12(%rbp)
.L370:
	cmpl	$1, %eax
	jne	.L365
	movq	0(%rbp), %rax
	movq	%rbp, %rdi
	call	*24(%rax)
	jmp	.L365
.L419:
	movq	0(%rbp), %rax
	movq	%rbp, %rdi
	call	*16(%rax)
	cmpb	$0, (%r15)
	je	.L376
	movl	12(%rbp), %eax
	leal	-1(%rax), %edx
	movl	%edx, 12(%rbp)
.L377:
	cmpl	$1, %eax
	jne	.L372
	movq	0(%rbp), %rax
	movq	%rbp, %rdi
	call	*24(%rax)
	jmp	.L372
.L420:
	movq	0(%rbp), %rax
	movq	%rbp, %rdi
	call	*16(%rax)
	cmpb	$0, (%r15)
	je	.L383
	movl	12(%rbp), %eax
	leal	-1(%rax), %edx
	movl	%edx, 12(%rbp)
.L384:
	cmpl	$1, %eax
	jne	.L379
	movq	0(%rbp), %rax
	movq	%rbp, %rdi
	call	*24(%rax)
	jmp	.L379
.L421:
	movq	(%rdi), %rax
	movq	24(%rax), %rax
	addq	$56, %rsp
	.cfi_remember_state
	.cfi_def_cfa_offset 56
	popq	%rbx
	.cfi_def_cfa_offset 48
	popq	%rbp
	.cfi_def_cfa_offset 40
	popq	%r12
	.cfi_def_cfa_offset 32
	popq	%r13
	.cfi_def_cfa_offset 24
	popq	%r14
	.cfi_def_cfa_offset 16
	popq	%r15
	.cfi_def_cfa_offset 8
	jmp	*%rax
.L413:
	.cfi_restore_state
	movq	0(%rbp), %rax
	movq	%rbp, %rdi
	call	*16(%rax)
	cmpb	$0, (%r15)
	je	.L296
	movl	12(%rbp), %eax
	leal	-1(%rax), %edx
	movl	%edx, 12(%rbp)
.L297:
	cmpl	$1, %eax
	jne	.L293
	movq	0(%rbp), %rax
	movq	%rbp, %rdi
	call	*24(%rax)
	jmp	.L293
.L414:
	movq	0(%rbp), %rax
	movq	%rbp, %rdi
	call	*16(%rax)
	cmpb	$0, (%r15)
	je	.L303
	movl	12(%rbp), %eax
	leal	-1(%rax), %edx
	movl	%edx, 12(%rbp)
.L304:
	cmpl	$1, %eax
	jne	.L299
	movq	0(%rbp), %rax
	movq	%rbp, %rdi
	call	*24(%rax)
	jmp	.L299
.L415:
	movq	0(%rbp), %rax
	movq	%rbp, %rdi
	call	*16(%rax)
	cmpb	$0, (%r15)
	je	.L310
	movl	12(%rbp), %eax
	leal	-1(%rax), %edx
	movl	%edx, 12(%rbp)
.L311:
	cmpl	$1, %eax
	jne	.L306
	movq	0(%rbp), %rax
	movq	%rbp, %rdi
	call	*24(%rax)
	jmp	.L306
.L294:
	movl	$-1, %eax
	lock xaddl	%eax, 8(%rbp)
	jmp	.L295
.L366:
	movl	$-1, %eax
	lock xaddl	%eax, 8(%rbp)
	jmp	.L367
.L373:
	movl	$-1, %eax
	lock xaddl	%eax, 8(%rbp)
	jmp	.L374
.L387:
	movl	$-1, %eax
	lock xaddl	%eax, 12(%rdi)
	jmp	.L388
.L380:
	movl	$-1, %eax
	lock xaddl	%eax, 8(%rbp)
	jmp	.L381
.L300:
	movl	$-1, %eax
	lock xaddl	%eax, 8(%rbp)
	jmp	.L301
.L307:
	movl	$-1, %eax
	lock xaddl	%eax, 8(%rbp)
	jmp	.L308
.L422:
	movq	0(%rbp), %rax
	movq	%rbp, %rdi
	call	*24(%rax)
	jmp	.L346
.L350:
	movl	$-1, %eax
	lock xaddl	%eax, 12(%rbp)
	jmp	.L351
.L369:
	movl	$-1, %eax
	lock xaddl	%eax, 12(%rbp)
	jmp	.L370
.L296:
	movl	$-1, %eax
	lock xaddl	%eax, 12(%rbp)
	jmp	.L297
.L303:
	movl	$-1, %eax
	lock xaddl	%eax, 12(%rbp)
	jmp	.L304
.L310:
	movl	$-1, %eax
	lock xaddl	%eax, 12(%rbp)
	jmp	.L311
.L376:
	movl	$-1, %eax
	lock xaddl	%eax, 12(%rbp)
	jmp	.L377
.L383:
	movl	$-1, %eax
	lock xaddl	%eax, 12(%rbp)
	jmp	.L384
	.cfi_endproc
.LFE7652:
	.size	_ZN8asiodnp39IOHandlerD2Ev, .-_ZN8asiodnp39IOHandlerD2Ev
	.set	.LTHUNK0,_ZN8asiodnp39IOHandlerD2Ev
	.p2align 4
	.weak	_ZThn8_N8asiodnp39IOHandlerD1Ev
	.type	_ZThn8_N8asiodnp39IOHandlerD1Ev, @function
_ZThn8_N8asiodnp39IOHandlerD1Ev:
.LFB10443:
	.cfi_startproc
	endbr64
	subq	$8, %rdi
	jmp	.LTHUNK0
	.cfi_endproc
.LFE10443:
	.size	_ZThn8_N8asiodnp39IOHandlerD1Ev, .-_ZThn8_N8asiodnp39IOHandlerD1Ev
	.weak	_ZN8asiodnp39IOHandlerD1Ev
	.set	_ZN8asiodnp39IOHandlerD1Ev,_ZN8asiodnp39IOHandlerD2Ev
	.section	.text._ZN8asiodnp315SerialIOHandlerD2Ev,"axG",@progbits,_ZN8asiodnp315SerialIOHandlerD5Ev,comdat
	.align 2
	.p2align 4
	.weak	_ZN8asiodnp315SerialIOHandlerD2Ev
	.type	_ZN8asiodnp315SerialIOHandlerD2Ev, @function
_ZN8asiodnp315SerialIOHandlerD2Ev:
.LFB10222:
	.cfi_startproc
	endbr64
	movq	_ZTVN8asiodnp315SerialIOHandlerE@GOTPCREL(%rip), %rax
	pushq	%r12
	.cfi_def_cfa_offset 16
	.cfi_offset 12, -16
	pushq	%rbp
	.cfi_def_cfa_offset 24
	.cfi_offset 6, -24
	movq	%rdi, %rbp
	addq	$896, %rdi
	leaq	104(%rax), %rdx
	addq	$16, %rax
	pushq	%rbx
	.cfi_def_cfa_offset 32
	.cfi_offset 3, -32
	movq	%rax, %xmm0
	movq	%rdx, %xmm1
	punpcklqdq	%xmm1, %xmm0
	movups	%xmm0, -896(%rdi)
	call	_ZN7openpal8TimerRefD1Ev@PLT
	movq	840(%rbp), %rdi
	leaq	856(%rbp), %rax
	cmpq	%rax, %rdi
	je	.L425
	movq	856(%rbp), %rax
	leaq	1(%rax), %rsi
	call	_ZdlPvm@PLT
.L425:
	movq	808(%rbp), %r12
	testq	%r12, %r12
	je	.L427
	movq	__libc_single_threaded@GOTPCREL(%rip), %rbx
	cmpb	$0, (%rbx)
	je	.L428
	movl	8(%r12), %eax
	leal	-1(%rax), %edx
	movl	%edx, 8(%r12)
.L429:
	cmpl	$1, %eax
	je	.L434
.L427:
	popq	%rbx
	.cfi_remember_state
	.cfi_def_cfa_offset 24
	movq	%rbp, %rdi
	popq	%rbp
	.cfi_def_cfa_offset 16
	popq	%r12
	.cfi_def_cfa_offset 8
	jmp	_ZN8asiodnp39IOHandlerD2Ev@PLT
	.p2align 4,,10
	.p2align 3
.L434:
	.cfi_restore_state
	movq	(%r12), %rax
	movq	%r12, %rdi
	call	*16(%rax)
	cmpb	$0, (%rbx)
	je	.L431
	movl	12(%r12), %eax
	leal	-1(%rax), %edx
	movl	%edx, 12(%r12)
.L432:
	cmpl	$1, %eax
	jne	.L427
	movq	(%r12), %rax
	movq	%r12, %rdi
	call	*24(%rax)
	jmp	.L427
	.p2align 4,,10
	.p2align 3
.L428:
	movl	$-1, %eax
	lock xaddl	%eax, 8(%r12)
	jmp	.L429
	.p2align 4,,10
	.p2align 3
.L431:
	movl	$-1, %eax
	lock xaddl	%eax, 12(%r12)
	jmp	.L432
	.cfi_endproc
.LFE10222:
	.size	_ZN8asiodnp315SerialIOHandlerD2Ev, .-_ZN8asiodnp315SerialIOHandlerD2Ev
	.weak	_ZN8asiodnp315SerialIOHandlerD1Ev
	.set	_ZN8asiodnp315SerialIOHandlerD1Ev,_ZN8asiodnp315SerialIOHandlerD2Ev
	.section	.text._ZN8asiodnp315SerialIOHandlerD0Ev,"axG",@progbits,_ZN8asiodnp315SerialIOHandlerD5Ev,comdat
	.align 2
	.p2align 4
	.weak	_ZN8asiodnp315SerialIOHandlerD0Ev
	.type	_ZN8asiodnp315SerialIOHandlerD0Ev, @function
_ZN8asiodnp315SerialIOHandlerD0Ev:
.LFB10224:
	.cfi_startproc
	endbr64
	movq	_ZTVN8asiodnp315SerialIOHandlerE@GOTPCREL(%rip), %rax
	pushq	%r12
	.cfi_def_cfa_offset 16
	.cfi_offset 12, -16
	pushq	%rbp
	.cfi_def_cfa_offset 24
	.cfi_offset 6, -24
	movq	%rdi, %rbp
	addq	$896, %rdi
	leaq	104(%rax), %rdx
	addq	$16, %rax
	pushq	%rbx
	.cfi_def_cfa_offset 32
	.cfi_offset 3, -32
	movq	%rax, %xmm0
	movq	%rdx, %xmm1
	punpcklqdq	%xmm1, %xmm0
	movups	%xmm0, -896(%rdi)
	call	_ZN7openpal8TimerRefD1Ev@PLT
	movq	840(%rbp), %rdi
	leaq	856(%rbp), %rax
	cmpq	%rax, %rdi
	je	.L436
	movq	856(%rbp), %rax
	leaq	1(%rax), %rsi
	call	_ZdlPvm@PLT
.L436:
	movq	808(%rbp), %r12
	testq	%r12, %r12
	je	.L438
	movq	__libc_single_threaded@GOTPCREL(%rip), %rbx
	cmpb	$0, (%rbx)
	je	.L439
	movl	8(%r12), %eax
	leal	-1(%rax), %edx
	movl	%edx, 8(%r12)
.L440:
	cmpl	$1, %eax
	je	.L445
.L438:
	movq	%rbp, %rdi
	call	_ZN8asiodnp39IOHandlerD2Ev@PLT
	popq	%rbx
	.cfi_remember_state
	.cfi_def_cfa_offset 24
	movq	%rbp, %rdi
	movl	$912, %esi
	popq	%rbp
	.cfi_def_cfa_offset 16
	popq	%r12
	.cfi_def_cfa_offset 8
	jmp	_ZdlPvm@PLT
	.p2align 4,,10
	.p2align 3
.L445:
	.cfi_restore_state
	movq	(%r12), %rax
	movq	%r12, %rdi
	call	*16(%rax)
	cmpb	$0, (%rbx)
	je	.L442
	movl	12(%r12), %eax
	leal	-1(%rax), %edx
	movl	%edx, 12(%r12)
.L443:
	cmpl	$1, %eax
	jne	.L438
	movq	(%r12), %rax
	movq	%r12, %rdi
	call	*24(%rax)
	jmp	.L438
	.p2align 4,,10
	.p2align 3
.L439:
	movl	$-1, %eax
	lock xaddl	%eax, 8(%r12)
	jmp	.L440
	.p2align 4,,10
	.p2align 3
.L442:
	movl	$-1, %eax
	lock xaddl	%eax, 12(%r12)
	jmp	.L443
	.cfi_endproc
.LFE10224:
	.size	_ZN8asiodnp315SerialIOHandlerD0Ev, .-_ZN8asiodnp315SerialIOHandlerD0Ev
	.section	.text._ZN8asiodnp315SerialIOHandlerD2Ev,"axG",@progbits,_ZN8asiodnp315SerialIOHandlerD5Ev,comdat
	.p2align 4
	.weak	_ZThn8_N8asiodnp315SerialIOHandlerD1Ev
	.type	_ZThn8_N8asiodnp315SerialIOHandlerD1Ev, @function
_ZThn8_N8asiodnp315SerialIOHandlerD1Ev:
.LFB10434:
	.cfi_startproc
	endbr64
	movq	_ZTVN8asiodnp315SerialIOHandlerE@GOTPCREL(%rip), %rax
	pushq	%r12
	.cfi_def_cfa_offset 16
	.cfi_offset 12, -16
	leaq	-8(%rdi), %r12
	pushq	%rbp
	.cfi_def_cfa_offset 24
	.cfi_offset 6, -24
	leaq	104(%rax), %rdx
	addq	$16, %rax
	pushq	%rbx
	.cfi_def_cfa_offset 32
	.cfi_offset 3, -32
	movq	%rdi, %rbx
	movq	%rax, %xmm0
	movq	%rdx, %xmm1
	addq	$888, %rdi
	punpcklqdq	%xmm1, %xmm0
	movups	%xmm0, -896(%rdi)
	call	_ZN7openpal8TimerRefD1Ev@PLT
	movq	832(%rbx), %rdi
	leaq	848(%rbx), %rax
	cmpq	%rax, %rdi
	je	.L447
	movq	848(%rbx), %rax
	leaq	1(%rax), %rsi
	call	_ZdlPvm@PLT
.L447:
	movq	800(%rbx), %rbp
	testq	%rbp, %rbp
	je	.L449
	movq	__libc_single_threaded@GOTPCREL(%rip), %rbx
	cmpb	$0, (%rbx)
	je	.L450
	movl	8(%rbp), %eax
	leal	-1(%rax), %edx
	movl	%edx, 8(%rbp)
.L451:
	cmpl	$1, %eax
	je	.L456
.L449:
	popq	%rbx
	.cfi_remember_state
	.cfi_def_cfa_offset 24
	movq	%r12, %rdi
	popq	%rbp
	.cfi_def_cfa_offset 16
	popq	%r12
	.cfi_def_cfa_offset 8
	jmp	_ZN8asiodnp39IOHandlerD2Ev@PLT
	.p2align 4,,10
	.p2align 3
.L456:
	.cfi_restore_state
	movq	0(%rbp), %rax
	movq	%rbp, %rdi
	call	*16(%rax)
	cmpb	$0, (%rbx)
	je	.L453
	movl	12(%rbp), %eax
	leal	-1(%rax), %edx
	movl	%edx, 12(%rbp)
.L454:
	cmpl	$1, %eax
	jne	.L449
	movq	0(%rbp), %rax
	movq	%rbp, %rdi
	call	*24(%rax)
	jmp	.L449
	.p2align 4,,10
	.p2align 3
.L450:
	movl	$-1, %eax
	lock xaddl	%eax, 8(%rbp)
	jmp	.L451
	.p2align 4,,10
	.p2align 3
.L453:
	movl	$-1, %eax
	lock xaddl	%eax, 12(%rbp)
	jmp	.L454
	.cfi_endproc
.LFE10434:
	.size	_ZThn8_N8asiodnp315SerialIOHandlerD1Ev, .-_ZThn8_N8asiodnp315SerialIOHandlerD1Ev
	.section	.text._ZN8asiodnp315SerialIOHandlerD0Ev,"axG",@progbits,_ZN8asiodnp315SerialIOHandlerD5Ev,comdat
	.p2align 4
	.weak	_ZThn8_N8asiodnp315SerialIOHandlerD0Ev
	.type	_ZThn8_N8asiodnp315SerialIOHandlerD0Ev, @function
_ZThn8_N8asiodnp315SerialIOHandlerD0Ev:
.LFB10432:
	.cfi_startproc
	endbr64
	movq	_ZTVN8asiodnp315SerialIOHandlerE@GOTPCREL(%rip), %rax
	pushq	%r12
	.cfi_def_cfa_offset 16
	.cfi_offset 12, -16
	leaq	-8(%rdi), %r12
	pushq	%rbp
	.cfi_def_cfa_offset 24
	.cfi_offset 6, -24
	leaq	104(%rax), %rdx
	addq	$16, %rax
	pushq	%rbx
	.cfi_def_cfa_offset 32
	.cfi_offset 3, -32
	movq	%rdi, %rbx
	movq	%rax, %xmm0
	movq	%rdx, %xmm1
	addq	$888, %rdi
	punpcklqdq	%xmm1, %xmm0
	movups	%xmm0, -896(%rdi)
	call	_ZN7openpal8TimerRefD1Ev@PLT
	movq	832(%rbx), %rdi
	leaq	848(%rbx), %rax
	cmpq	%rax, %rdi
	je	.L458
	movq	848(%rbx), %rax
	leaq	1(%rax), %rsi
	call	_ZdlPvm@PLT
.L458:
	movq	800(%rbx), %rbp
	testq	%rbp, %rbp
	je	.L460
	movq	__libc_single_threaded@GOTPCREL(%rip), %rbx
	cmpb	$0, (%rbx)
	je	.L461
	movl	8(%rbp), %eax
	leal	-1(%rax), %edx
	movl	%edx, 8(%rbp)
.L462:
	cmpl	$1, %eax
	je	.L467
.L460:
	movq	%r12, %rdi
	call	_ZN8asiodnp39IOHandlerD2Ev@PLT
	popq	%rbx
	.cfi_remember_state
	.cfi_def_cfa_offset 24
	movq	%r12, %rdi
	popq	%rbp
	.cfi_def_cfa_offset 16
	movl	$912, %esi
	popq	%r12
	.cfi_def_cfa_offset 8
	jmp	_ZdlPvm@PLT
	.p2align 4,,10
	.p2align 3
.L467:
	.cfi_restore_state
	movq	0(%rbp), %rax
	movq	%rbp, %rdi
	call	*16(%rax)
	cmpb	$0, (%rbx)
	je	.L464
	movl	12(%rbp), %eax
	leal	-1(%rax), %edx
	movl	%edx, 12(%rbp)
.L465:
	cmpl	$1, %eax
	jne	.L460
	movq	0(%rbp), %rax
	movq	%rbp, %rdi
	call	*24(%rax)
	jmp	.L460
	.p2align 4,,10
	.p2align 3
.L461:
	movl	$-1, %eax
	lock xaddl	%eax, 8(%rbp)
	jmp	.L462
	.p2align 4,,10
	.p2align 3
.L464:
	movl	$-1, %eax
	lock xaddl	%eax, 12(%rbp)
	jmp	.L465
	.cfi_endproc
.LFE10432:
	.size	_ZThn8_N8asiodnp315SerialIOHandlerD0Ev, .-_ZThn8_N8asiodnp315SerialIOHandlerD0Ev
	.section	.text._ZN8asiodnp39IOHandlerD0Ev,"axG",@progbits,_ZN8asiodnp39IOHandlerD5Ev,comdat
	.align 2
	.p2align 4
	.weak	_ZN8asiodnp39IOHandlerD0Ev
	.type	_ZN8asiodnp39IOHandlerD0Ev, @function
_ZN8asiodnp39IOHandlerD0Ev:
.LFB7654:
	.cfi_startproc
	endbr64
	pushq	%rbp
	.cfi_def_cfa_offset 16
	.cfi_offset 6, -16
	movq	%rdi, %rbp
	call	_ZN8asiodnp39IOHandlerD1Ev@PLT
	movq	%rbp, %rdi
	movl	$800, %esi
	popq	%rbp
	.cfi_def_cfa_offset 8
	jmp	_ZdlPvm@PLT
	.cfi_endproc
.LFE7654:
	.size	_ZN8asiodnp39IOHandlerD0Ev, .-_ZN8asiodnp39IOHandlerD0Ev
	.p2align 4
	.weak	_ZThn8_N8asiodnp39IOHandlerD0Ev
	.type	_ZThn8_N8asiodnp39IOHandlerD0Ev, @function
_ZThn8_N8asiodnp39IOHandlerD0Ev:
.LFB10433:
	.cfi_startproc
	endbr64
	pushq	%rbp
	.cfi_def_cfa_offset 16
	.cfi_offset 6, -16
	leaq	-8(%rdi), %rbp
	movq	%rbp, %rdi
	call	_ZN8asiodnp39IOHandlerD1Ev@PLT
	movq	%rbp, %rdi
	movl	$800, %esi
	popq	%rbp
	.cfi_def_cfa_offset 8
	jmp	_ZdlPvm@PLT
	.cfi_endproc
.LFE10433:
	.size	_ZThn8_N8asiodnp39IOHandlerD0Ev, .-_ZThn8_N8asiodnp39IOHandlerD0Ev
	.section	.text._ZNSt16_Sp_counted_baseILN9__gnu_cxx12_Lock_policyE2EE10_M_releaseEv,"axG",@progbits,_ZNSt16_Sp_counted_baseILN9__gnu_cxx12_Lock_policyE2EE10_M_releaseEv,comdat
	.align 2
	.p2align 4
	.weak	_ZNSt16_Sp_counted_baseILN9__gnu_cxx12_Lock_policyE2EE10_M_releaseEv
	.type	_ZNSt16_Sp_counted_baseILN9__gnu_cxx12_Lock_policyE2EE10_M_releaseEv, @function
_ZNSt16_Sp_counted_baseILN9__gnu_cxx12_Lock_policyE2EE10_M_releaseEv:
.LFB8724:
	.cfi_startproc
	endbr64
	pushq	%rbp
	.cfi_def_cfa_offset 16
	.cfi_offset 6, -16
	movq	%rdi, %rbp
	pushq	%rbx
	.cfi_def_cfa_offset 24
	.cfi_offset 3, -24
	subq	$8, %rsp
	.cfi_def_cfa_offset 32
	movq	__libc_single_threaded@GOTPCREL(%rip), %rbx
	cmpb	$0, (%rbx)
	je	.L473
	movl	8(%rdi), %eax
	leal	-1(%rax), %edx
	movl	%edx, 8(%rdi)
.L474:
	cmpl	$1, %eax
	je	.L481
.L472:
	addq	$8, %rsp
	.cfi_remember_state
	.cfi_def_cfa_offset 24
	popq	%rbx
	.cfi_def_cfa_offset 16
	popq	%rbp
	.cfi_def_cfa_offset 8
	ret
	.p2align 4,,10
	.p2align 3
.L481:
	.cfi_restore_state
	movq	0(%rbp), %rax
	movq	%rbp, %rdi
	call	*16(%rax)
	cmpb	$0, (%rbx)
	je	.L477
	movl	12(%rbp), %eax
	leal	-1(%rax), %edx
	movl	%edx, 12(%rbp)
.L478:
	cmpl	$1, %eax
	jne	.L472
	movq	0(%rbp), %rax
	movq	%rbp, %rdi
	movq	24(%rax), %rax
	addq	$8, %rsp
	.cfi_remember_state
	.cfi_def_cfa_offset 24
	popq	%rbx
	.cfi_def_cfa_offset 16
	popq	%rbp
	.cfi_def_cfa_offset 8
	jmp	*%rax
	.p2align 4,,10
	.p2align 3
.L473:
	.cfi_restore_state
	movl	$-1, %eax
	lock xaddl	%eax, 8(%rdi)
	jmp	.L474
	.p2align 4,,10
	.p2align 3
.L477:
	movl	$-1, %eax
	lock xaddl	%eax, 12(%rbp)
	jmp	.L478
	.cfi_endproc
.LFE8724:
	.size	_ZNSt16_Sp_counted_baseILN9__gnu_cxx12_Lock_policyE2EE10_M_releaseEv, .-_ZNSt16_Sp_counted_baseILN9__gnu_cxx12_Lock_policyE2EE10_M_releaseEv
	.section	.text.unlikely,"ax",@progbits
	.align 2
.LCOLDB23:
	.text
.LHOTB23:
	.align 2
	.p2align 4
	.globl	_ZN8asiodnp315SerialIOHandlerC2ERKN7openpal6LoggerERKSt10shared_ptrINS_16IChannelListenerEERKS5_IN7asiopal8ExecutorEERKNSA_12ChannelRetryERKNSA_14SerialSettingsE
	.type	_ZN8asiodnp315SerialIOHandlerC2ERKN7openpal6LoggerERKSt10shared_ptrINS_16IChannelListenerEERKS5_IN7asiopal8ExecutorEERKNSA_12ChannelRetryERKNSA_14SerialSettingsE, @function
_ZN8asiodnp315SerialIOHandlerC2ERKN7openpal6LoggerERKSt10shared_ptrINS_16IChannelListenerEERKS5_IN7asiopal8ExecutorEERKNSA_12ChannelRetryERKNSA_14SerialSettingsE:
.LFB7730:
	.cfi_startproc
	.cfi_personality 0x9b,DW.ref.__gxx_personality_v0
	.cfi_lsda 0x1b,.LLSDA7730
	endbr64
	pushq	%r15
	.cfi_def_cfa_offset 16
	.cfi_offset 15, -16
	pushq	%r14
	.cfi_def_cfa_offset 24
	.cfi_offset 14, -24
	pushq	%r13
	.cfi_def_cfa_offset 32
	.cfi_offset 13, -32
	movq	%rcx, %r13
	pushq	%r12
	.cfi_def_cfa_offset 40
	.cfi_offset 12, -40
	movq	%r8, %r12
	pushq	%rbp
	.cfi_def_cfa_offset 48
	.cfi_offset 6, -48
	movq	%rdi, %rbp
	pushq	%rbx
	.cfi_def_cfa_offset 56
	.cfi_offset 3, -56
	movq	%r9, %rbx
	subq	$40, %rsp
	.cfi_def_cfa_offset 96
	movq	%fs:40, %rax
	movq	%rax, 24(%rsp)
	movq	_ZTVN8asiodnp315SerialIOHandlerE@GOTPCREL(%rip), %rax
	leaq	104(%rax), %rcx
	addq	$16, %rax
	movq	%rax, %xmm0
	movq	%rcx, %xmm1
	punpcklqdq	%xmm1, %xmm0
	movaps	%xmm0, (%rsp)
.LEHB0:
	call	_ZN8asiodnp39IOHandlerC2ERKN7openpal6LoggerERKSt10shared_ptrINS_16IChannelListenerEE@PLT
.LEHE0:
	movdqa	(%rsp), %xmm0
	movups	%xmm0, 0(%rbp)
	movdqu	0(%r13), %xmm2
	movq	8(%r13), %rax
	movups	%xmm2, 800(%rbp)
	testq	%rax, %rax
	je	.L483
	movq	__libc_single_threaded@GOTPCREL(%rip), %rdx
	cmpb	$0, (%rdx)
	je	.L484
	addl	$1, 8(%rax)
.L483:
	movq	16(%r12), %rax
	movdqu	(%r12), %xmm3
	leaq	856(%rbp), %r15
	movq	%r15, 840(%rbp)
	movq	(%rbx), %r14
	movq	%rax, 832(%rbp)
	movups	%xmm3, 816(%rbp)
	movq	8(%rbx), %r12
	movq	%r14, %rax
	addq	%r12, %rax
	je	.L485
	testq	%r14, %r14
	je	.L512
.L485:
	movq	%r12, 16(%rsp)
	cmpq	$15, %r12
	ja	.L513
	cmpq	$1, %r12
	jne	.L488
	movzbl	(%r14), %eax
	movb	%al, 856(%rbp)
	movq	%r15, %rax
.L489:
	movq	%r12, 848(%rbp)
	leaq	896(%rbp), %rdi
	movb	$0, (%rax,%r12)
	movq	32(%rbx), %rax
	movq	%rax, 872(%rbp)
	movzwl	40(%rbx), %eax
	movw	%ax, 880(%rbp)
	movzbl	42(%rbx), %eax
	movq	0(%r13), %rsi
	movb	%al, 882(%rbp)
	movq	48(%rbx), %rax
	movq	%rax, 888(%rbp)
.LEHB1:
	call	_ZN7openpal8TimerRefC1ERNS_9IExecutorE@PLT
.LEHE1:
	movq	24(%rsp), %rax
	subq	%fs:40, %rax
	jne	.L514
	addq	$40, %rsp
	.cfi_remember_state
	.cfi_def_cfa_offset 56
	popq	%rbx
	.cfi_def_cfa_offset 48
	popq	%rbp
	.cfi_def_cfa_offset 40
	popq	%r12
	.cfi_def_cfa_offset 32
	popq	%r13
	.cfi_def_cfa_offset 24
	popq	%r14
	.cfi_def_cfa_offset 16
	popq	%r15
	.cfi_def_cfa_offset 8
	ret
	.p2align 4,,10
	.p2align 3
.L488:
	.cfi_restore_state
	testq	%r12, %r12
	jne	.L515
	movq	%r15, %rax
	jmp	.L489
	.p2align 4,,10
	.p2align 3
.L484:
	lock addl	$1, 8(%rax)
	jmp	.L483
	.p2align 4,,10
	.p2align 3
.L513:
	leaq	16(%rsp), %rsi
	leaq	840(%rbp), %rdi
	xorl	%edx, %edx
.LEHB2:
	call	_ZNSt7__cxx1112basic_stringIcSt11char_traitsIcESaIcEE9_M_createERmm@PLT
	movq	%rax, 840(%rbp)
	movq	%rax, %rdi
	movq	16(%rsp), %rax
	movq	%rax, 856(%rbp)
.L487:
	movq	%r12, %rdx
	movq	%r14, %rsi
	call	memcpy@PLT
	movq	16(%rsp), %r12
	movq	840(%rbp), %rax
	jmp	.L489
.L512:
	leaq	.LC4(%rip), %rdi
	call	_ZSt19__throw_logic_errorPKc@PLT
.LEHE2:
.L514:
	call	__stack_chk_fail@PLT
.L515:
	movq	%r15, %rdi
	jmp	.L487
.L496:
	endbr64
	movq	%rax, %r12
	jmp	.L492
.L497:
	endbr64
	movq	%rax, %r12
	jmp	.L490
	.section	.gcc_except_table,"a",@progbits
.LLSDA7730:
	.byte	0xff
	.byte	0xff
	.byte	0x1
	.uleb128 .LLSDACSE7730-.LLSDACSB7730
.LLSDACSB7730:
	.uleb128 .LEHB0-.LFB7730
	.uleb128 .LEHE0-.LEHB0
	.uleb128 0
	.uleb128 0
	.uleb128 .LEHB1-.LFB7730
	.uleb128 .LEHE1-.LEHB1
	.uleb128 .L497-.LFB7730
	.uleb128 0
	.uleb128 .LEHB2-.LFB7730
	.uleb128 .LEHE2-.LEHB2
	.uleb128 .L496-.LFB7730
	.uleb128 0
.LLSDACSE7730:
	.text
	.cfi_endproc
	.section	.text.unlikely
	.cfi_startproc
	.cfi_personality 0x9b,DW.ref.__gxx_personality_v0
	.cfi_lsda 0x1b,.LLSDAC7730
	.type	_ZN8asiodnp315SerialIOHandlerC2ERKN7openpal6LoggerERKSt10shared_ptrINS_16IChannelListenerEERKS5_IN7asiopal8ExecutorEERKNSA_12ChannelRetryERKNSA_14SerialSettingsE.cold, @function
_ZN8asiodnp315SerialIOHandlerC2ERKN7openpal6LoggerERKSt10shared_ptrINS_16IChannelListenerEERKS5_IN7asiopal8ExecutorEERKNSA_12ChannelRetryERKNSA_14SerialSettingsE.cold:
.LFSB7730:
.L490:
	.cfi_def_cfa_offset 96
	.cfi_offset 3, -56
	.cfi_offset 6, -48
	.cfi_offset 12, -40
	.cfi_offset 13, -32
	.cfi_offset 14, -24
	.cfi_offset 15, -16
	movq	840(%rbp), %rdi
	cmpq	%r15, %rdi
	je	.L492
	movq	856(%rbp), %rax
	leaq	1(%rax), %rsi
	call	_ZdlPvm@PLT
.L492:
	movq	808(%rbp), %rdi
	testq	%rdi, %rdi
	je	.L493
	call	_ZNSt16_Sp_counted_baseILN9__gnu_cxx12_Lock_policyE2EE10_M_releaseEv@PLT
.L493:
	movq	%rbp, %rdi
	call	_ZN8asiodnp39IOHandlerD2Ev@PLT
	movq	%r12, %rdi
.LEHB3:
	call	_Unwind_Resume@PLT
.LEHE3:
	.cfi_endproc
.LFE7730:
	.section	.gcc_except_table
.LLSDAC7730:
	.byte	0xff
	.byte	0xff
	.byte	0x1
	.uleb128 .LLSDACSEC7730-.LLSDACSBC7730
.LLSDACSBC7730:
	.uleb128 .LEHB3-.LCOLDB23
	.uleb128 .LEHE3-.LEHB3
	.uleb128 0
	.uleb128 0
.LLSDACSEC7730:
	.section	.text.unlikely
	.text
	.size	_ZN8asiodnp315SerialIOHandlerC2ERKN7openpal6LoggerERKSt10shared_ptrINS_16IChannelListenerEERKS5_IN7asiopal8ExecutorEERKNSA_12ChannelRetryERKNSA_14SerialSettingsE, .-_ZN8asiodnp315SerialIOHandlerC2ERKN7openpal6LoggerERKSt10shared_ptrINS_16IChannelListenerEERKS5_IN7asiopal8ExecutorEERKNSA_12ChannelRetryERKNSA_14SerialSettingsE
	.section	.text.unlikely
	.size	_ZN8asiodnp315SerialIOHandlerC2ERKN7openpal6LoggerERKSt10shared_ptrINS_16IChannelListenerEERKS5_IN7asiopal8ExecutorEERKNSA_12ChannelRetryERKNSA_14SerialSettingsE.cold, .-_ZN8asiodnp315SerialIOHandlerC2ERKN7openpal6LoggerERKSt10shared_ptrINS_16IChannelListenerEERKS5_IN7asiopal8ExecutorEERKNSA_12ChannelRetryERKNSA_14SerialSettingsE.cold
.LCOLDE23:
	.text
.LHOTE23:
	.globl	_ZN8asiodnp315SerialIOHandlerC1ERKN7openpal6LoggerERKSt10shared_ptrINS_16IChannelListenerEERKS5_IN7asiopal8ExecutorEERKNSA_12ChannelRetryERKNSA_14SerialSettingsE
	.set	_ZN8asiodnp315SerialIOHandlerC1ERKN7openpal6LoggerERKSt10shared_ptrINS_16IChannelListenerEERKS5_IN7asiopal8ExecutorEERKNSA_12ChannelRetryERKNSA_14SerialSettingsE,_ZN8asiodnp315SerialIOHandlerC2ERKN7openpal6LoggerERKSt10shared_ptrINS_16IChannelListenerEERKS5_IN7asiopal8ExecutorEERKNSA_12ChannelRetryERKNSA_14SerialSettingsE
	.section	.rodata.str1.1,"aMS",@progbits,1
.LC25:
	.string	"Error Connecting: %s"
	.section	.rodata.str1.8,"aMS",@progbits,1
	.align 8
.LC26:
	.string	"/home/saptarshi/Desktop/OpenPLC61850/utils/dnp3_src/cpp/libs/src/asiodnp3/SerialIOHandler.cpp(73)"
	.section	.text.unlikely
	.align 2
.LCOLDB27:
	.text
.LHOTB27:
	.align 2
	.p2align 4
	.globl	_ZN8asiodnp315SerialIOHandler7TryOpenERKN7openpal12TimeDurationE
	.type	_ZN8asiodnp315SerialIOHandler7TryOpenERKN7openpal12TimeDurationE, @function
_ZN8asiodnp315SerialIOHandler7TryOpenERKN7openpal12TimeDurationE:
.LFB7736:
	.cfi_startproc
	.cfi_personality 0x9b,DW.ref.__gxx_personality_v0
	.cfi_lsda 0x1b,.LLSDA7736
	endbr64
	pushq	%r15
	.cfi_def_cfa_offset 16
	.cfi_offset 15, -16
	pushq	%r14
	.cfi_def_cfa_offset 24
	.cfi_offset 14, -24
	movq	%rsi, %r14
	pushq	%r13
	.cfi_def_cfa_offset 32
	.cfi_offset 13, -32
	pushq	%r12
	.cfi_def_cfa_offset 40
	.cfi_offset 12, -40
	movq	%rdi, %r12
	movl	$104, %edi
	pushq	%rbp
	.cfi_def_cfa_offset 48
	.cfi_offset 6, -48
	pushq	%rbx
	.cfi_def_cfa_offset 56
	.cfi_offset 3, -56
	subq	$232, %rsp
	.cfi_def_cfa_offset 288
	movq	%fs:40, %rax
	movq	%rax, 216(%rsp)
	xorl	%eax, %eax
.LEHB4:
	call	_Znwm@PLT
.LEHE4:
	movdqu	800(%r12), %xmm3
	movq	%rax, %rbp
	addq	$8, %rax
	movq	%rax, 16(%rsp)
	movq	.LC24(%rip), %rax
	leaq	16(%rbp), %r13
	movq	%rbp, %xmm2
	movq	%r13, %xmm1
	movaps	%xmm3, 48(%rsp)
	movq	%rax, 8(%rbp)
	movq	_ZTVSt23_Sp_counted_ptr_inplaceIN7asiopal13SerialChannelESaIS1_ELN9__gnu_cxx12_Lock_policyE2EE@GOTPCREL(%rip), %rax
	punpcklqdq	%xmm2, %xmm1
	movaps	%xmm1, (%rsp)
	addq	$16, %rax
	movq	%rax, 0(%rbp)
	movq	808(%r12), %rax
	testq	%rax, %rax
	je	.L517
	movq	__libc_single_threaded@GOTPCREL(%rip), %rbx
	cmpb	$0, (%rbx)
	je	.L518
	addl	$1, 8(%rax)
.L517:
	leaq	48(%rsp), %r15
	movq	%r13, %rdi
	movq	%r15, %rsi
.LEHB5:
	call	_ZN7asiopal13SerialChannelC1ESt10shared_ptrINS_8ExecutorEE@PLT
.LEHE5:
	movq	56(%rsp), %rdi
	testq	%rdi, %rdi
	je	.L524
	movq	__libc_single_threaded@GOTPCREL(%rip), %rbx
	cmpb	$0, (%rbx)
	je	.L520
	movl	8(%rdi), %eax
	leal	-1(%rax), %edx
	movl	%edx, 8(%rdi)
.L521:
	cmpl	$1, %eax
	je	.L608
.L524:
	movq	32(%rbp), %rdi
	testq	%rdi, %rdi
	je	.L527
	movl	8(%rdi), %eax
	testl	%eax, %eax
	je	.L527
.L528:
	movl	$0, 32(%rsp)
	call	_ZNSt3_V215system_categoryEv@PLT
	leaq	32(%rsp), %rdx
	leaq	840(%r12), %rsi
	movq	%r13, %rdi
	movq	%rax, 40(%rsp)
.LEHB6:
	call	_ZN7asiopal13SerialChannel4OpenERKNS_14SerialSettingsERSt10error_code@PLT
	movl	32(%rsp), %eax
	testl	%eax, %eax
	je	.L534
	leaq	32(%r12), %r13
	movq	%r15, %rsi
	movl	$4, 48(%rsp)
	movq	%r13, %rdi
	call	_ZNK7openpal6Logger9IsEnabledERKNS_10LogFiltersE@PLT
	testb	%al, %al
	je	.L535
	movq	40(%rsp), %rsi
	movl	32(%rsp), %edx
	leaq	64(%rsp), %rdi
	movq	(%rsi), %rax
	call	*32(%rax)
	movq	64(%rsp), %r9
	leaq	96(%rsp), %rbx
	movl	$120, %ecx
	xorl	%eax, %eax
	movq	%rbx, %rdi
	movl	$1, %edx
	movl	$120, %esi
	leaq	.LC25(%rip), %r8
	call	__snprintf_chk@PLT
	movq	64(%rsp), %rdi
	leaq	80(%rsp), %rax
	cmpq	%rax, %rdi
	je	.L536
	movq	80(%rsp), %rax
	leaq	1(%rax), %rsi
	call	_ZdlPvm@PLT
.L536:
	movq	%rbx, %rcx
	leaq	.LC26(%rip), %rdx
	movq	%r15, %rsi
	movq	%r13, %rdi
	movl	$4, 48(%rsp)
	call	_ZN7openpal6Logger3LogERKNS_10LogFiltersEPKcS5_@PLT
.LEHE6:
.L535:
	addl	$1, 84(%r12)
	pxor	%xmm0, %xmm0
	movq	(%r14), %rbx
	movl	$24, %edi
	leaq	896(%r12), %r13
	movaps	%xmm0, 64(%rsp)
	movq	$0, 80(%rsp)
	movq	$0, 88(%rsp)
.LEHB7:
	call	_Znwm@PLT
.LEHE7:
	movq	%r12, %xmm4
	movq	%r13, %xmm0
	movq	%r14, %rsi
	movq	%r13, %rdi
	punpcklqdq	%xmm4, %xmm0
	movq	%rbx, 16(%rax)
	leaq	_ZNSt17_Function_handlerIFvvEZN7openpal8TimerRef5StartIZN8asiodnp315SerialIOHandler7TryOpenERKNS1_12TimeDurationEEUlvE_EEbS8_RKT_EUlvE_E10_M_managerERSt9_Any_dataRKSF_St18_Manager_operation(%rip), %rcx
	leaq	64(%rsp), %r12
	movups	%xmm0, (%rax)
	movq	%rcx, %xmm0
	movq	%r12, %rdx
	movq	%rax, 64(%rsp)
	leaq	_ZNSt17_Function_handlerIFvvEZN7openpal8TimerRef5StartIZN8asiodnp315SerialIOHandler7TryOpenERKNS1_12TimeDurationEEUlvE_EEbS8_RKT_EUlvE_E9_M_invokeERKSt9_Any_data(%rip), %rax
	movq	%rax, %xmm5
	punpcklqdq	%xmm5, %xmm0
	movaps	%xmm0, 80(%rsp)
.LEHB8:
	call	_ZN7openpal8TimerRef11StartActionERKNS_12TimeDurationERKSt8functionIFvvEE@PLT
.LEHE8:
	movq	80(%rsp), %rax
	testq	%rax, %rax
	je	.L607
	movl	$3, %edx
	movq	%r12, %rsi
	movq	%r12, %rdi
	call	*%rax
.L607:
	movq	__libc_single_threaded@GOTPCREL(%rip), %rbx
.L542:
	cmpb	$0, (%rbx)
	je	.L609
	movl	8(%rbp), %eax
	leal	-1(%rax), %edx
	movl	%edx, 8(%rbp)
.L554:
	cmpl	$1, %eax
	je	.L610
.L516:
	movq	216(%rsp), %rax
	subq	%fs:40, %rax
	jne	.L611
	addq	$232, %rsp
	.cfi_remember_state
	.cfi_def_cfa_offset 56
	popq	%rbx
	.cfi_def_cfa_offset 48
	popq	%rbp
	.cfi_def_cfa_offset 40
	popq	%r12
	.cfi_def_cfa_offset 32
	popq	%r13
	.cfi_def_cfa_offset 24
	popq	%r14
	.cfi_def_cfa_offset 16
	popq	%r15
	.cfi_def_cfa_offset 8
	ret
	.p2align 4,,10
	.p2align 3
.L518:
	.cfi_restore_state
	lock addl	$1, 8(%rax)
	jmp	.L517
	.p2align 4,,10
	.p2align 3
.L527:
	movq	__libc_single_threaded@GOTPCREL(%rip), %rbx
	movq	%r13, 24(%rbp)
	cmpb	$0, (%rbx)
	je	.L612
	addl	$1, 12(%rbp)
	testq	%rdi, %rdi
	je	.L530
.L529:
	movl	12(%rdi), %eax
	leal	-1(%rax), %edx
	movl	%edx, 12(%rdi)
.L533:
	cmpl	$1, %eax
	jne	.L530
	movq	(%rdi), %rax
	call	*24(%rax)
	.p2align 4,,10
	.p2align 3
.L530:
	movq	%rbp, 32(%rbp)
	jmp	.L528
	.p2align 4,,10
	.p2align 3
.L534:
	movq	__libc_single_threaded@GOTPCREL(%rip), %rbx
	movdqa	(%rsp), %xmm6
	cmpb	$0, (%rbx)
	movaps	%xmm6, 48(%rsp)
	je	.L545
	addl	$1, 8(%rbp)
.L546:
	movq	%r15, %rsi
	movq	%r12, %rdi
.LEHB9:
	call	_ZN8asiodnp39IOHandler12OnNewChannelERKSt10shared_ptrIN7asiopal13IAsyncChannelEE@PLT
.LEHE9:
	movq	56(%rsp), %r12
	movzbl	(%rbx), %eax
	testq	%r12, %r12
	je	.L542
	testb	%al, %al
	je	.L549
	movl	8(%r12), %eax
	leal	-1(%rax), %edx
	movl	%edx, 8(%r12)
.L550:
	cmpl	$1, %eax
	jne	.L542
	movq	(%r12), %rax
	movq	%r12, %rdi
	call	*16(%rax)
	cmpb	$0, (%rbx)
	je	.L552
	movl	12(%r12), %eax
	leal	-1(%rax), %edx
	movl	%edx, 12(%r12)
.L553:
	cmpl	$1, %eax
	jne	.L542
	movq	(%r12), %rax
	movq	%r12, %rdi
	call	*24(%rax)
	jmp	.L542
	.p2align 4,,10
	.p2align 3
.L549:
	movl	$-1, %eax
	lock xaddl	%eax, 8(%r12)
	jmp	.L550
	.p2align 4,,10
	.p2align 3
.L612:
	lock addl	$1, 12(%rbp)
	movq	32(%rbp), %rdi
	testq	%rdi, %rdi
	je	.L530
	cmpb	$0, (%rbx)
	jne	.L529
	movl	$-1, %eax
	lock xaddl	%eax, 12(%rdi)
	jmp	.L533
	.p2align 4,,10
	.p2align 3
.L610:
	movq	0(%rbp), %rax
	movq	%rbp, %rdi
	call	*16(%rax)
	cmpb	$0, (%rbx)
	je	.L557
	movl	12(%rbp), %eax
	leal	-1(%rax), %edx
	movl	%edx, 12(%rbp)
.L558:
	cmpl	$1, %eax
	jne	.L516
	movq	0(%rbp), %rax
	movq	%rbp, %rdi
	call	*24(%rax)
	jmp	.L516
	.p2align 4,,10
	.p2align 3
.L608:
	movq	(%rdi), %rax
	movq	%rdi, 24(%rsp)
	call	*16(%rax)
	cmpb	$0, (%rbx)
	movq	24(%rsp), %rdi
	je	.L522
	movl	12(%rdi), %eax
	leal	-1(%rax), %edx
	movl	%edx, 12(%rdi)
.L523:
	cmpl	$1, %eax
	jne	.L524
	movq	(%rdi), %rax
	call	*24(%rax)
	jmp	.L524
	.p2align 4,,10
	.p2align 3
.L609:
	movq	16(%rsp), %rcx
	movl	$-1, %eax
	lock xaddl	%eax, (%rcx)
	jmp	.L554
	.p2align 4,,10
	.p2align 3
.L520:
	movl	$-1, %eax
	lock xaddl	%eax, 8(%rdi)
	jmp	.L521
	.p2align 4,,10
	.p2align 3
.L545:
	lock addl	$1, 8(%rbp)
	jmp	.L546
	.p2align 4,,10
	.p2align 3
.L557:
	movl	$-1, %eax
	lock xaddl	%eax, 12(%rbp)
	jmp	.L558
	.p2align 4,,10
	.p2align 3
.L522:
	movl	$-1, %eax
	lock xaddl	%eax, 12(%rdi)
	jmp	.L523
	.p2align 4,,10
	.p2align 3
.L552:
	movl	$-1, %eax
	lock xaddl	%eax, 12(%r12)
	jmp	.L553
.L611:
	call	__stack_chk_fail@PLT
.L570:
	endbr64
	movq	%rax, %r12
	jmp	.L525
.L572:
	endbr64
	movq	%rax, %r12
	jmp	.L538
.L568:
	endbr64
	movq	%rax, %r12
	jmp	.L540
.L571:
	endbr64
	movq	%rax, %rbx
	jmp	.L543
.L569:
	endbr64
	movq	%rax, %r12
	jmp	.L560
	.section	.gcc_except_table
.LLSDA7736:
	.byte	0xff
	.byte	0xff
	.byte	0x1
	.uleb128 .LLSDACSE7736-.LLSDACSB7736
.LLSDACSB7736:
	.uleb128 .LEHB4-.LFB7736
	.uleb128 .LEHE4-.LEHB4
	.uleb128 0
	.uleb128 0
	.uleb128 .LEHB5-.LFB7736
	.uleb128 .LEHE5-.LEHB5
	.uleb128 .L570-.LFB7736
	.uleb128 0
	.uleb128 .LEHB6-.LFB7736
	.uleb128 .LEHE6-.LEHB6
	.uleb128 .L568-.LFB7736
	.uleb128 0
	.uleb128 .LEHB7-.LFB7736
	.uleb128 .LEHE7-.LEHB7
	.uleb128 .L572-.LFB7736
	.uleb128 0
	.uleb128 .LEHB8-.LFB7736
	.uleb128 .LEHE8-.LEHB8
	.uleb128 .L571-.LFB7736
	.uleb128 0
	.uleb128 .LEHB9-.LFB7736
	.uleb128 .LEHE9-.LEHB9
	.uleb128 .L569-.LFB7736
	.uleb128 0
.LLSDACSE7736:
	.text
	.cfi_endproc
	.section	.text.unlikely
	.cfi_startproc
	.cfi_personality 0x9b,DW.ref.__gxx_personality_v0
	.cfi_lsda 0x1b,.LLSDAC7736
	.type	_ZN8asiodnp315SerialIOHandler7TryOpenERKN7openpal12TimeDurationE.cold, @function
_ZN8asiodnp315SerialIOHandler7TryOpenERKN7openpal12TimeDurationE.cold:
.LFSB7736:
.L525:
	.cfi_def_cfa_offset 288
	.cfi_offset 3, -56
	.cfi_offset 6, -48
	.cfi_offset 12, -40
	.cfi_offset 13, -32
	.cfi_offset 14, -24
	.cfi_offset 15, -16
	movq	56(%rsp), %rdi
	testq	%rdi, %rdi
	je	.L526
	call	_ZNSt16_Sp_counted_baseILN9__gnu_cxx12_Lock_policyE2EE10_M_releaseEv@PLT
.L526:
	movq	%rbp, %rdi
	movl	$104, %esi
	call	_ZdlPvm@PLT
	movq	%r12, %rdi
.LEHB10:
	call	_Unwind_Resume@PLT
.LEHE10:
.L538:
	movq	80(%rsp), %rax
	testq	%rax, %rax
	je	.L540
	leaq	64(%rsp), %rdi
	movl	$3, %edx
	movq	%rdi, %rsi
	call	*%rax
.L540:
	movq	%rbp, %rdi
	call	_ZNSt16_Sp_counted_baseILN9__gnu_cxx12_Lock_policyE2EE10_M_releaseEv@PLT
	movq	%r12, %rdi
.LEHB11:
	call	_Unwind_Resume@PLT
.LEHE11:
.L543:
	movq	80(%rsp), %rax
	testq	%rax, %rax
	je	.L544
	movl	$3, %edx
	movq	%r12, %rsi
	movq	%r12, %rdi
	call	*%rax
.L544:
	movq	%rbx, %r12
	jmp	.L540
.L560:
	movq	56(%rsp), %rdi
	testq	%rdi, %rdi
	je	.L540
	call	_ZNSt16_Sp_counted_baseILN9__gnu_cxx12_Lock_policyE2EE10_M_releaseEv@PLT
	jmp	.L540
	.cfi_endproc
.LFE7736:
	.section	.gcc_except_table
.LLSDAC7736:
	.byte	0xff
	.byte	0xff
	.byte	0x1
	.uleb128 .LLSDACSEC7736-.LLSDACSBC7736
.LLSDACSBC7736:
	.uleb128 .LEHB10-.LCOLDB27
	.uleb128 .LEHE10-.LEHB10
	.uleb128 0
	.uleb128 0
	.uleb128 .LEHB11-.LCOLDB27
	.uleb128 .LEHE11-.LEHB11
	.uleb128 0
	.uleb128 0
.LLSDACSEC7736:
	.section	.text.unlikely
	.text
	.size	_ZN8asiodnp315SerialIOHandler7TryOpenERKN7openpal12TimeDurationE, .-_ZN8asiodnp315SerialIOHandler7TryOpenERKN7openpal12TimeDurationE
	.section	.text.unlikely
	.size	_ZN8asiodnp315SerialIOHandler7TryOpenERKN7openpal12TimeDurationE.cold, .-_ZN8asiodnp315SerialIOHandler7TryOpenERKN7openpal12TimeDurationE.cold
.LCOLDE27:
	.text
.LHOTE27:
	.align 2
	.p2align 4
	.globl	_ZN8asiodnp315SerialIOHandler18BeginChannelAcceptEv
	.type	_ZN8asiodnp315SerialIOHandler18BeginChannelAcceptEv, @function
_ZN8asiodnp315SerialIOHandler18BeginChannelAcceptEv:
.LFB7733:
	.cfi_startproc
	endbr64
	leaq	816(%rdi), %rsi
	jmp	_ZN8asiodnp315SerialIOHandler7TryOpenERKN7openpal12TimeDurationE@PLT
	.cfi_endproc
.LFE7733:
	.size	_ZN8asiodnp315SerialIOHandler18BeginChannelAcceptEv, .-_ZN8asiodnp315SerialIOHandler18BeginChannelAcceptEv
	.align 2
	.p2align 4
	.globl	_ZN8asiodnp315SerialIOHandler17OnChannelShutdownEv
	.type	_ZN8asiodnp315SerialIOHandler17OnChannelShutdownEv, @function
_ZN8asiodnp315SerialIOHandler17OnChannelShutdownEv:
.LFB7735:
	.cfi_startproc
	endbr64
	jmp	_ZN8asiodnp315SerialIOHandler18BeginChannelAcceptEv@PLT
	.cfi_endproc
.LFE7735:
	.size	_ZN8asiodnp315SerialIOHandler17OnChannelShutdownEv, .-_ZN8asiodnp315SerialIOHandler17OnChannelShutdownEv
	.p2align 4
	.type	_ZNSt17_Function_handlerIFvvEZN7openpal8TimerRef5StartIZN8asiodnp315SerialIOHandler7TryOpenERKNS1_12TimeDurationEEUlvE_EEbS8_RKT_EUlvE_E9_M_invokeERKSt9_Any_data, @function
_ZNSt17_Function_handlerIFvvEZN7openpal8TimerRef5StartIZN8asiodnp315SerialIOHandler7TryOpenERKNS1_12TimeDurationEEUlvE_EEbS8_RKT_EUlvE_E9_M_invokeERKSt9_Any_data:
.LFB9390:
	.cfi_startproc
	endbr64
	pushq	%rbp
	.cfi_def_cfa_offset 16
	.cfi_offset 6, -16
	subq	$16, %rsp
	.cfi_def_cfa_offset 32
	movq	(%rdi), %rsi
	movq	%fs:40, %rax
	movq	%rax, 8(%rsp)
	xorl	%eax, %eax
	movq	8(%rsi), %rbp
	movq	(%rsi), %rax
	addq	$16, %rsi
	movq	832(%rbp), %rdi
	movq	$0, 8(%rax)
	leaq	824(%rbp), %rdx
	movq	(%rdi), %rax
	call	*16(%rax)
	movq	%rsp, %rsi
	movq	%rbp, %rdi
	movq	%rax, (%rsp)
	call	_ZN8asiodnp315SerialIOHandler7TryOpenERKN7openpal12TimeDurationE@PLT
	movq	8(%rsp), %rax
	subq	%fs:40, %rax
	jne	.L618
	addq	$16, %rsp
	.cfi_remember_state
	.cfi_def_cfa_offset 16
	popq	%rbp
	.cfi_def_cfa_offset 8
	ret
.L618:
	.cfi_restore_state
	call	__stack_chk_fail@PLT
	.cfi_endproc
.LFE9390:
	.size	_ZNSt17_Function_handlerIFvvEZN7openpal8TimerRef5StartIZN8asiodnp315SerialIOHandler7TryOpenERKNS1_12TimeDurationEEUlvE_EEbS8_RKT_EUlvE_E9_M_invokeERKSt9_Any_data, .-_ZNSt17_Function_handlerIFvvEZN7openpal8TimerRef5StartIZN8asiodnp315SerialIOHandler7TryOpenERKNS1_12TimeDurationEEUlvE_EEbS8_RKT_EUlvE_E9_M_invokeERKSt9_Any_data
	.section	.text.startup,"ax",@progbits
	.p2align 4
	.type	_GLOBAL__sub_I_SerialIOHandler.cpp, @function
_GLOBAL__sub_I_SerialIOHandler.cpp:
.LFB10423:
	.cfi_startproc
	endbr64
	pushq	%rbp
	.cfi_def_cfa_offset 16
	.cfi_offset 6, -16
	movq	_ZGVZN4asio15system_categoryEvE8instance@GOTPCREL(%rip), %rbp
	movzbl	0(%rbp), %eax
	testb	%al, %al
	je	.L650
.L621:
	movq	_ZGVZN4asio5error18get_netdb_categoryEvE8instance@GOTPCREL(%rip), %rbp
	movzbl	0(%rbp), %eax
	testb	%al, %al
	je	.L651
.L624:
	movq	_ZGVZN4asio5error21get_addrinfo_categoryEvE8instance@GOTPCREL(%rip), %rbp
	movzbl	0(%rbp), %eax
	testb	%al, %al
	je	.L652
.L627:
	movq	_ZGVZN4asio5error17get_misc_categoryEvE8instance@GOTPCREL(%rip), %rbp
	movzbl	0(%rbp), %eax
	testb	%al, %al
	je	.L653
.L630:
	movq	_ZGVN4asio6detail10call_stackINS0_15task_io_serviceENS0_27task_io_service_thread_infoEE4top_E@GOTPCREL(%rip), %rax
	cmpb	$0, (%rax)
	je	.L654
.L632:
	movq	_ZGVN4asio6detail12service_baseINS0_13epoll_reactorEE2idE@GOTPCREL(%rip), %rax
	cmpb	$0, (%rax)
	je	.L655
.L633:
	movq	_ZGVN4asio6detail12service_baseINS0_15task_io_serviceEE2idE@GOTPCREL(%rip), %rax
	cmpb	$0, (%rax)
	je	.L656
.L634:
	movq	_ZGVN4asio6detail10call_stackINS0_14strand_service11strand_implEhE4top_E@GOTPCREL(%rip), %rax
	cmpb	$0, (%rax)
	je	.L657
.L635:
	movq	_ZGVN4asio6detail12service_baseINS0_14strand_serviceEE2idE@GOTPCREL(%rip), %rax
	cmpb	$0, (%rax)
	je	.L658
	popq	%rbp
	.cfi_remember_state
	.cfi_def_cfa_offset 8
	ret
.L650:
	.cfi_restore_state
	movq	%rbp, %rdi
	call	__cxa_guard_acquire@PLT
	testl	%eax, %eax
	je	.L621
	movq	_ZZN4asio15system_categoryEvE8instance@GOTPCREL(%rip), %rsi
	movq	_ZN4asio6detail15system_categoryD1Ev@GOTPCREL(%rip), %rdi
	leaq	__dso_handle(%rip), %rdx
	call	__cxa_atexit@PLT
	movq	%rbp, %rdi
	call	__cxa_guard_release@PLT
	jmp	.L621
.L658:
	movb	$1, (%rax)
	leaq	__dso_handle(%rip), %rdx
	movq	_ZN4asio6detail12service_baseINS0_14strand_serviceEE2idE@GOTPCREL(%rip), %rsi
	movq	_ZN4asio6detail10service_idINS0_14strand_serviceEED1Ev@GOTPCREL(%rip), %rdi
	popq	%rbp
	.cfi_remember_state
	.cfi_def_cfa_offset 8
	jmp	__cxa_atexit@PLT
.L657:
	.cfi_restore_state
	movb	$1, (%rax)
	movq	_ZN4asio6detail10call_stackINS0_14strand_service11strand_implEhE4top_E@GOTPCREL(%rip), %rsi
	leaq	__dso_handle(%rip), %rdx
	movq	_ZN4asio6detail7tss_ptrINS0_10call_stackINS0_14strand_service11strand_implEhE7contextEED1Ev@GOTPCREL(%rip), %rdi
	call	__cxa_atexit@PLT
	jmp	.L635
.L656:
	movb	$1, (%rax)
	movq	_ZN4asio6detail12service_baseINS0_15task_io_serviceEE2idE@GOTPCREL(%rip), %rsi
	leaq	__dso_handle(%rip), %rdx
	movq	_ZN4asio6detail10service_idINS0_15task_io_serviceEED1Ev@GOTPCREL(%rip), %rdi
	call	__cxa_atexit@PLT
	jmp	.L634
.L655:
	movb	$1, (%rax)
	movq	_ZN4asio6detail12service_baseINS0_13epoll_reactorEE2idE@GOTPCREL(%rip), %rsi
	leaq	__dso_handle(%rip), %rdx
	movq	_ZN4asio6detail10service_idINS0_13epoll_reactorEED1Ev@GOTPCREL(%rip), %rdi
	call	__cxa_atexit@PLT
	jmp	.L633
.L654:
	movb	$1, (%rax)
	movq	_ZN4asio6detail10call_stackINS0_15task_io_serviceENS0_27task_io_service_thread_infoEE4top_E@GOTPCREL(%rip), %rsi
	leaq	__dso_handle(%rip), %rdx
	movq	_ZN4asio6detail7tss_ptrINS0_10call_stackINS0_15task_io_serviceENS0_27task_io_service_thread_infoEE7contextEED1Ev@GOTPCREL(%rip), %rdi
	call	__cxa_atexit@PLT
	jmp	.L632
.L653:
	movq	%rbp, %rdi
	call	__cxa_guard_acquire@PLT
	testl	%eax, %eax
	je	.L630
	movq	_ZZN4asio5error17get_misc_categoryEvE8instance@GOTPCREL(%rip), %rsi
	movq	_ZN4asio5error6detail13misc_categoryD1Ev@GOTPCREL(%rip), %rdi
	leaq	__dso_handle(%rip), %rdx
	call	__cxa_atexit@PLT
	movq	%rbp, %rdi
	call	__cxa_guard_release@PLT
	jmp	.L630
.L652:
	movq	%rbp, %rdi
	call	__cxa_guard_acquire@PLT
	testl	%eax, %eax
	je	.L627
	movq	_ZZN4asio5error21get_addrinfo_categoryEvE8instance@GOTPCREL(%rip), %rsi
	movq	_ZN4asio5error6detail17addrinfo_categoryD1Ev@GOTPCREL(%rip), %rdi
	leaq	__dso_handle(%rip), %rdx
	call	__cxa_atexit@PLT
	movq	%rbp, %rdi
	call	__cxa_guard_release@PLT
	jmp	.L627
.L651:
	movq	%rbp, %rdi
	call	__cxa_guard_acquire@PLT
	testl	%eax, %eax
	je	.L624
	movq	_ZZN4asio5error18get_netdb_categoryEvE8instance@GOTPCREL(%rip), %rsi
	movq	_ZN4asio5error6detail14netdb_categoryD1Ev@GOTPCREL(%rip), %rdi
	leaq	__dso_handle(%rip), %rdx
	call	__cxa_atexit@PLT
	movq	%rbp, %rdi
	call	__cxa_guard_release@PLT
	jmp	.L624
	.cfi_endproc
.LFE10423:
	.size	_GLOBAL__sub_I_SerialIOHandler.cpp, .-_GLOBAL__sub_I_SerialIOHandler.cpp
	.section	.init_array,"aw"
	.align 8
	.quad	_GLOBAL__sub_I_SerialIOHandler.cpp
	.weak	_ZTSSt11_Mutex_baseILN9__gnu_cxx12_Lock_policyE2EE
	.section	.rodata._ZTSSt11_Mutex_baseILN9__gnu_cxx12_Lock_policyE2EE,"aG",@progbits,_ZTSSt11_Mutex_baseILN9__gnu_cxx12_Lock_policyE2EE,comdat
	.align 32
	.type	_ZTSSt11_Mutex_baseILN9__gnu_cxx12_Lock_policyE2EE, @object
	.size	_ZTSSt11_Mutex_baseILN9__gnu_cxx12_Lock_policyE2EE, 47
_ZTSSt11_Mutex_baseILN9__gnu_cxx12_Lock_policyE2EE:
	.string	"St11_Mutex_baseILN9__gnu_cxx12_Lock_policyE2EE"
	.weak	_ZTISt11_Mutex_baseILN9__gnu_cxx12_Lock_policyE2EE
	.section	.data.rel.ro._ZTISt11_Mutex_baseILN9__gnu_cxx12_Lock_policyE2EE,"awG",@progbits,_ZTISt11_Mutex_baseILN9__gnu_cxx12_Lock_policyE2EE,comdat
	.align 8
	.type	_ZTISt11_Mutex_baseILN9__gnu_cxx12_Lock_policyE2EE, @object
	.size	_ZTISt11_Mutex_baseILN9__gnu_cxx12_Lock_policyE2EE, 16
_ZTISt11_Mutex_baseILN9__gnu_cxx12_Lock_policyE2EE:
	.quad	_ZTVN10__cxxabiv117__class_type_infoE+16
	.quad	_ZTSSt11_Mutex_baseILN9__gnu_cxx12_Lock_policyE2EE
	.weak	_ZTSN7openpal10UncopyableE
	.section	.rodata._ZTSN7openpal10UncopyableE,"aG",@progbits,_ZTSN7openpal10UncopyableE,comdat
	.align 16
	.type	_ZTSN7openpal10UncopyableE, @object
	.size	_ZTSN7openpal10UncopyableE, 23
_ZTSN7openpal10UncopyableE:
	.string	"N7openpal10UncopyableE"
	.weak	_ZTIN7openpal10UncopyableE
	.section	.data.rel.ro._ZTIN7openpal10UncopyableE,"awG",@progbits,_ZTIN7openpal10UncopyableE,comdat
	.align 8
	.type	_ZTIN7openpal10UncopyableE, @object
	.size	_ZTIN7openpal10UncopyableE, 16
_ZTIN7openpal10UncopyableE:
	.quad	_ZTVN10__cxxabiv117__class_type_infoE+16
	.quad	_ZTSN7openpal10UncopyableE
	.weak	_ZTSSt23enable_shared_from_thisIN7asiopal13IAsyncChannelEE
	.section	.rodata._ZTSSt23enable_shared_from_thisIN7asiopal13IAsyncChannelEE,"aG",@progbits,_ZTSSt23enable_shared_from_thisIN7asiopal13IAsyncChannelEE,comdat
	.align 32
	.type	_ZTSSt23enable_shared_from_thisIN7asiopal13IAsyncChannelEE, @object
	.size	_ZTSSt23enable_shared_from_thisIN7asiopal13IAsyncChannelEE, 55
_ZTSSt23enable_shared_from_thisIN7asiopal13IAsyncChannelEE:
	.string	"St23enable_shared_from_thisIN7asiopal13IAsyncChannelEE"
	.weak	_ZTISt23enable_shared_from_thisIN7asiopal13IAsyncChannelEE
	.section	.data.rel.ro._ZTISt23enable_shared_from_thisIN7asiopal13IAsyncChannelEE,"awG",@progbits,_ZTISt23enable_shared_from_thisIN7asiopal13IAsyncChannelEE,comdat
	.align 8
	.type	_ZTISt23enable_shared_from_thisIN7asiopal13IAsyncChannelEE, @object
	.size	_ZTISt23enable_shared_from_thisIN7asiopal13IAsyncChannelEE, 16
_ZTISt23enable_shared_from_thisIN7asiopal13IAsyncChannelEE:
	.quad	_ZTVN10__cxxabiv117__class_type_infoE+16
	.quad	_ZTSSt23enable_shared_from_thisIN7asiopal13IAsyncChannelEE
	.weak	_ZTSSt19_Sp_make_shared_tag
	.section	.rodata._ZTSSt19_Sp_make_shared_tag,"aG",@progbits,_ZTSSt19_Sp_make_shared_tag,comdat
	.align 16
	.type	_ZTSSt19_Sp_make_shared_tag, @object
	.size	_ZTSSt19_Sp_make_shared_tag, 24
_ZTSSt19_Sp_make_shared_tag:
	.string	"St19_Sp_make_shared_tag"
	.weak	_ZGVN4asio6detail12service_baseINS0_14strand_serviceEE2idE
	.section	.bss._ZGVN4asio6detail12service_baseINS0_14strand_serviceEE2idE,"awG",@nobits,_ZGVN4asio6detail12service_baseINS0_14strand_serviceEE2idE,comdat
	.align 8
	.type	_ZGVN4asio6detail12service_baseINS0_14strand_serviceEE2idE, @gnu_unique_object
	.size	_ZGVN4asio6detail12service_baseINS0_14strand_serviceEE2idE, 8
_ZGVN4asio6detail12service_baseINS0_14strand_serviceEE2idE:
	.zero	8
	.weak	_ZGVN4asio6detail10call_stackINS0_14strand_service11strand_implEhE4top_E
	.section	.bss._ZGVN4asio6detail10call_stackINS0_14strand_service11strand_implEhE4top_E,"awG",@nobits,_ZGVN4asio6detail10call_stackINS0_14strand_service11strand_implEhE4top_E,comdat
	.align 8
	.type	_ZGVN4asio6detail10call_stackINS0_14strand_service11strand_implEhE4top_E, @gnu_unique_object
	.size	_ZGVN4asio6detail10call_stackINS0_14strand_service11strand_implEhE4top_E, 8
_ZGVN4asio6detail10call_stackINS0_14strand_service11strand_implEhE4top_E:
	.zero	8
	.weak	_ZGVN4asio6detail12service_baseINS0_15task_io_serviceEE2idE
	.section	.bss._ZGVN4asio6detail12service_baseINS0_15task_io_serviceEE2idE,"awG",@nobits,_ZGVN4asio6detail12service_baseINS0_15task_io_serviceEE2idE,comdat
	.align 8
	.type	_ZGVN4asio6detail12service_baseINS0_15task_io_serviceEE2idE, @gnu_unique_object
	.size	_ZGVN4asio6detail12service_baseINS0_15task_io_serviceEE2idE, 8
_ZGVN4asio6detail12service_baseINS0_15task_io_serviceEE2idE:
	.zero	8
	.weak	_ZGVN4asio6detail12service_baseINS0_13epoll_reactorEE2idE
	.section	.bss._ZGVN4asio6detail12service_baseINS0_13epoll_reactorEE2idE,"awG",@nobits,_ZGVN4asio6detail12service_baseINS0_13epoll_reactorEE2idE,comdat
	.align 8
	.type	_ZGVN4asio6detail12service_baseINS0_13epoll_reactorEE2idE, @gnu_unique_object
	.size	_ZGVN4asio6detail12service_baseINS0_13epoll_reactorEE2idE, 8
_ZGVN4asio6detail12service_baseINS0_13epoll_reactorEE2idE:
	.zero	8
	.weak	_ZGVN4asio6detail10call_stackINS0_15task_io_serviceENS0_27task_io_service_thread_infoEE4top_E
	.section	.bss._ZGVN4asio6detail10call_stackINS0_15task_io_serviceENS0_27task_io_service_thread_infoEE4top_E,"awG",@nobits,_ZGVN4asio6detail10call_stackINS0_15task_io_serviceENS0_27task_io_service_thread_infoEE4top_E,comdat
	.align 8
	.type	_ZGVN4asio6detail10call_stackINS0_15task_io_serviceENS0_27task_io_service_thread_infoEE4top_E, @gnu_unique_object
	.size	_ZGVN4asio6detail10call_stackINS0_15task_io_serviceENS0_27task_io_service_thread_infoEE4top_E, 8
_ZGVN4asio6detail10call_stackINS0_15task_io_serviceENS0_27task_io_service_thread_infoEE4top_E:
	.zero	8
	.weak	_ZN4asio6detail12service_baseINS0_14strand_serviceEE2idE
	.section	.bss._ZN4asio6detail12service_baseINS0_14strand_serviceEE2idE,"awG",@nobits,_ZN4asio6detail12service_baseINS0_14strand_serviceEE2idE,comdat
	.type	_ZN4asio6detail12service_baseINS0_14strand_serviceEE2idE, @gnu_unique_object
	.size	_ZN4asio6detail12service_baseINS0_14strand_serviceEE2idE, 1
_ZN4asio6detail12service_baseINS0_14strand_serviceEE2idE:
	.zero	1
	.weak	_ZN4asio6detail10call_stackINS0_14strand_service11strand_implEhE4top_E
	.section	.bss._ZN4asio6detail10call_stackINS0_14strand_service11strand_implEhE4top_E,"awG",@nobits,_ZN4asio6detail10call_stackINS0_14strand_service11strand_implEhE4top_E,comdat
	.type	_ZN4asio6detail10call_stackINS0_14strand_service11strand_implEhE4top_E, @gnu_unique_object
	.size	_ZN4asio6detail10call_stackINS0_14strand_service11strand_implEhE4top_E, 1
_ZN4asio6detail10call_stackINS0_14strand_service11strand_implEhE4top_E:
	.zero	1
	.weak	_ZN4asio6detail12service_baseINS0_15task_io_serviceEE2idE
	.section	.bss._ZN4asio6detail12service_baseINS0_15task_io_serviceEE2idE,"awG",@nobits,_ZN4asio6detail12service_baseINS0_15task_io_serviceEE2idE,comdat
	.type	_ZN4asio6detail12service_baseINS0_15task_io_serviceEE2idE, @gnu_unique_object
	.size	_ZN4asio6detail12service_baseINS0_15task_io_serviceEE2idE, 1
_ZN4asio6detail12service_baseINS0_15task_io_serviceEE2idE:
	.zero	1
	.weak	_ZN4asio6detail12service_baseINS0_13epoll_reactorEE2idE
	.section	.bss._ZN4asio6detail12service_baseINS0_13epoll_reactorEE2idE,"awG",@nobits,_ZN4asio6detail12service_baseINS0_13epoll_reactorEE2idE,comdat
	.type	_ZN4asio6detail12service_baseINS0_13epoll_reactorEE2idE, @gnu_unique_object
	.size	_ZN4asio6detail12service_baseINS0_13epoll_reactorEE2idE, 1
_ZN4asio6detail12service_baseINS0_13epoll_reactorEE2idE:
	.zero	1
	.weak	_ZN4asio6detail10call_stackINS0_15task_io_serviceENS0_27task_io_service_thread_infoEE4top_E
	.section	.bss._ZN4asio6detail10call_stackINS0_15task_io_serviceENS0_27task_io_service_thread_infoEE4top_E,"awG",@nobits,_ZN4asio6detail10call_stackINS0_15task_io_serviceENS0_27task_io_service_thread_infoEE4top_E,comdat
	.type	_ZN4asio6detail10call_stackINS0_15task_io_serviceENS0_27task_io_service_thread_infoEE4top_E, @gnu_unique_object
	.size	_ZN4asio6detail10call_stackINS0_15task_io_serviceENS0_27task_io_service_thread_infoEE4top_E, 1
_ZN4asio6detail10call_stackINS0_15task_io_serviceENS0_27task_io_service_thread_infoEE4top_E:
	.zero	1
	.weak	_ZTSSt16_Sp_counted_baseILN9__gnu_cxx12_Lock_policyE2EE
	.section	.rodata._ZTSSt16_Sp_counted_baseILN9__gnu_cxx12_Lock_policyE2EE,"aG",@progbits,_ZTSSt16_Sp_counted_baseILN9__gnu_cxx12_Lock_policyE2EE,comdat
	.align 32
	.type	_ZTSSt16_Sp_counted_baseILN9__gnu_cxx12_Lock_policyE2EE, @object
	.size	_ZTSSt16_Sp_counted_baseILN9__gnu_cxx12_Lock_policyE2EE, 52
_ZTSSt16_Sp_counted_baseILN9__gnu_cxx12_Lock_policyE2EE:
	.string	"St16_Sp_counted_baseILN9__gnu_cxx12_Lock_policyE2EE"
	.weak	_ZTISt16_Sp_counted_baseILN9__gnu_cxx12_Lock_policyE2EE
	.section	.data.rel.ro._ZTISt16_Sp_counted_baseILN9__gnu_cxx12_Lock_policyE2EE,"awG",@progbits,_ZTISt16_Sp_counted_baseILN9__gnu_cxx12_Lock_policyE2EE,comdat
	.align 8
	.type	_ZTISt16_Sp_counted_baseILN9__gnu_cxx12_Lock_policyE2EE, @object
	.size	_ZTISt16_Sp_counted_baseILN9__gnu_cxx12_Lock_policyE2EE, 24
_ZTISt16_Sp_counted_baseILN9__gnu_cxx12_Lock_policyE2EE:
	.quad	_ZTVN10__cxxabiv120__si_class_type_infoE+16
	.quad	_ZTSSt16_Sp_counted_baseILN9__gnu_cxx12_Lock_policyE2EE
	.quad	_ZTISt11_Mutex_baseILN9__gnu_cxx12_Lock_policyE2EE
	.weak	_ZTSN4asio6detail15system_categoryE
	.section	.rodata._ZTSN4asio6detail15system_categoryE,"aG",@progbits,_ZTSN4asio6detail15system_categoryE,comdat
	.align 32
	.type	_ZTSN4asio6detail15system_categoryE, @object
	.size	_ZTSN4asio6detail15system_categoryE, 32
_ZTSN4asio6detail15system_categoryE:
	.string	"N4asio6detail15system_categoryE"
	.weak	_ZTIN4asio6detail15system_categoryE
	.section	.data.rel.ro._ZTIN4asio6detail15system_categoryE,"awG",@progbits,_ZTIN4asio6detail15system_categoryE,comdat
	.align 8
	.type	_ZTIN4asio6detail15system_categoryE, @object
	.size	_ZTIN4asio6detail15system_categoryE, 24
_ZTIN4asio6detail15system_categoryE:
	.quad	_ZTVN10__cxxabiv120__si_class_type_infoE+16
	.quad	_ZTSN4asio6detail15system_categoryE
	.quad	_ZTINSt3_V214error_categoryE
	.weak	_ZTSN4asio5error6detail14netdb_categoryE
	.section	.rodata._ZTSN4asio5error6detail14netdb_categoryE,"aG",@progbits,_ZTSN4asio5error6detail14netdb_categoryE,comdat
	.align 32
	.type	_ZTSN4asio5error6detail14netdb_categoryE, @object
	.size	_ZTSN4asio5error6detail14netdb_categoryE, 37
_ZTSN4asio5error6detail14netdb_categoryE:
	.string	"N4asio5error6detail14netdb_categoryE"
	.weak	_ZTIN4asio5error6detail14netdb_categoryE
	.section	.data.rel.ro._ZTIN4asio5error6detail14netdb_categoryE,"awG",@progbits,_ZTIN4asio5error6detail14netdb_categoryE,comdat
	.align 8
	.type	_ZTIN4asio5error6detail14netdb_categoryE, @object
	.size	_ZTIN4asio5error6detail14netdb_categoryE, 24
_ZTIN4asio5error6detail14netdb_categoryE:
	.quad	_ZTVN10__cxxabiv120__si_class_type_infoE+16
	.quad	_ZTSN4asio5error6detail14netdb_categoryE
	.quad	_ZTINSt3_V214error_categoryE
	.weak	_ZTSN4asio5error6detail17addrinfo_categoryE
	.section	.rodata._ZTSN4asio5error6detail17addrinfo_categoryE,"aG",@progbits,_ZTSN4asio5error6detail17addrinfo_categoryE,comdat
	.align 32
	.type	_ZTSN4asio5error6detail17addrinfo_categoryE, @object
	.size	_ZTSN4asio5error6detail17addrinfo_categoryE, 40
_ZTSN4asio5error6detail17addrinfo_categoryE:
	.string	"N4asio5error6detail17addrinfo_categoryE"
	.weak	_ZTIN4asio5error6detail17addrinfo_categoryE
	.section	.data.rel.ro._ZTIN4asio5error6detail17addrinfo_categoryE,"awG",@progbits,_ZTIN4asio5error6detail17addrinfo_categoryE,comdat
	.align 8
	.type	_ZTIN4asio5error6detail17addrinfo_categoryE, @object
	.size	_ZTIN4asio5error6detail17addrinfo_categoryE, 24
_ZTIN4asio5error6detail17addrinfo_categoryE:
	.quad	_ZTVN10__cxxabiv120__si_class_type_infoE+16
	.quad	_ZTSN4asio5error6detail17addrinfo_categoryE
	.quad	_ZTINSt3_V214error_categoryE
	.weak	_ZTSN4asio5error6detail13misc_categoryE
	.section	.rodata._ZTSN4asio5error6detail13misc_categoryE,"aG",@progbits,_ZTSN4asio5error6detail13misc_categoryE,comdat
	.align 32
	.type	_ZTSN4asio5error6detail13misc_categoryE, @object
	.size	_ZTSN4asio5error6detail13misc_categoryE, 36
_ZTSN4asio5error6detail13misc_categoryE:
	.string	"N4asio5error6detail13misc_categoryE"
	.weak	_ZTIN4asio5error6detail13misc_categoryE
	.section	.data.rel.ro._ZTIN4asio5error6detail13misc_categoryE,"awG",@progbits,_ZTIN4asio5error6detail13misc_categoryE,comdat
	.align 8
	.type	_ZTIN4asio5error6detail13misc_categoryE, @object
	.size	_ZTIN4asio5error6detail13misc_categoryE, 24
_ZTIN4asio5error6detail13misc_categoryE:
	.quad	_ZTVN10__cxxabiv120__si_class_type_infoE+16
	.quad	_ZTSN4asio5error6detail13misc_categoryE
	.quad	_ZTINSt3_V214error_categoryE
	.weak	_ZTSN7asiopal13IAsyncChannelE
	.section	.rodata._ZTSN7asiopal13IAsyncChannelE,"aG",@progbits,_ZTSN7asiopal13IAsyncChannelE,comdat
	.align 16
	.type	_ZTSN7asiopal13IAsyncChannelE, @object
	.size	_ZTSN7asiopal13IAsyncChannelE, 26
_ZTSN7asiopal13IAsyncChannelE:
	.string	"N7asiopal13IAsyncChannelE"
	.weak	_ZTIN7asiopal13IAsyncChannelE
	.section	.data.rel.ro._ZTIN7asiopal13IAsyncChannelE,"awG",@progbits,_ZTIN7asiopal13IAsyncChannelE,comdat
	.align 8
	.type	_ZTIN7asiopal13IAsyncChannelE, @object
	.size	_ZTIN7asiopal13IAsyncChannelE, 56
_ZTIN7asiopal13IAsyncChannelE:
	.quad	_ZTVN10__cxxabiv121__vmi_class_type_infoE+16
	.quad	_ZTSN7asiopal13IAsyncChannelE
	.long	0
	.long	2
	.quad	_ZTISt23enable_shared_from_thisIN7asiopal13IAsyncChannelEE
	.quad	2050
	.quad	_ZTIN7openpal10UncopyableE
	.quad	0
	.weak	_ZTSN8asiodnp315SerialIOHandlerE
	.section	.rodata._ZTSN8asiodnp315SerialIOHandlerE,"aG",@progbits,_ZTSN8asiodnp315SerialIOHandlerE,comdat
	.align 16
	.type	_ZTSN8asiodnp315SerialIOHandlerE, @object
	.size	_ZTSN8asiodnp315SerialIOHandlerE, 29
_ZTSN8asiodnp315SerialIOHandlerE:
	.string	"N8asiodnp315SerialIOHandlerE"
	.weak	_ZTIN8asiodnp315SerialIOHandlerE
	.section	.data.rel.ro._ZTIN8asiodnp315SerialIOHandlerE,"awG",@progbits,_ZTIN8asiodnp315SerialIOHandlerE,comdat
	.align 8
	.type	_ZTIN8asiodnp315SerialIOHandlerE, @object
	.size	_ZTIN8asiodnp315SerialIOHandlerE, 24
_ZTIN8asiodnp315SerialIOHandlerE:
	.quad	_ZTVN10__cxxabiv120__si_class_type_infoE+16
	.quad	_ZTSN8asiodnp315SerialIOHandlerE
	.quad	_ZTIN8asiodnp39IOHandlerE
	.section	.data.rel.ro,"aw"
	.align 8
	.type	_ZTIZN7openpal8TimerRef5StartIZN8asiodnp315SerialIOHandler7TryOpenERKNS_12TimeDurationEEUlvE_EEbS6_RKT_EUlvE_, @object
	.size	_ZTIZN7openpal8TimerRef5StartIZN8asiodnp315SerialIOHandler7TryOpenERKNS_12TimeDurationEEUlvE_EEbS6_RKT_EUlvE_, 16
_ZTIZN7openpal8TimerRef5StartIZN8asiodnp315SerialIOHandler7TryOpenERKNS_12TimeDurationEEUlvE_EEbS6_RKT_EUlvE_:
	.quad	_ZTVN10__cxxabiv117__class_type_infoE+16
	.quad	_ZTSZN7openpal8TimerRef5StartIZN8asiodnp315SerialIOHandler7TryOpenERKNS_12TimeDurationEEUlvE_EEbS6_RKT_EUlvE_
	.section	.rodata
	.align 32
	.type	_ZTSZN7openpal8TimerRef5StartIZN8asiodnp315SerialIOHandler7TryOpenERKNS_12TimeDurationEEUlvE_EEbS6_RKT_EUlvE_, @object
	.size	_ZTSZN7openpal8TimerRef5StartIZN8asiodnp315SerialIOHandler7TryOpenERKNS_12TimeDurationEEUlvE_EEbS6_RKT_EUlvE_, 107
_ZTSZN7openpal8TimerRef5StartIZN8asiodnp315SerialIOHandler7TryOpenERKNS_12TimeDurationEEUlvE_EEbS6_RKT_EUlvE_:
	.string	"*ZN7openpal8TimerRef5StartIZN8asiodnp315SerialIOHandler7TryOpenERKNS_12TimeDurationEEUlvE_EEbS6_RKT_EUlvE_"
	.weak	_ZTSSt23_Sp_counted_ptr_inplaceIN7asiopal13SerialChannelESaIS1_ELN9__gnu_cxx12_Lock_policyE2EE
	.section	.rodata._ZTSSt23_Sp_counted_ptr_inplaceIN7asiopal13SerialChannelESaIS1_ELN9__gnu_cxx12_Lock_policyE2EE,"aG",@progbits,_ZTSSt23_Sp_counted_ptr_inplaceIN7asiopal13SerialChannelESaIS1_ELN9__gnu_cxx12_Lock_policyE2EE,comdat
	.align 32
	.type	_ZTSSt23_Sp_counted_ptr_inplaceIN7asiopal13SerialChannelESaIS1_ELN9__gnu_cxx12_Lock_policyE2EE, @object
	.size	_ZTSSt23_Sp_counted_ptr_inplaceIN7asiopal13SerialChannelESaIS1_ELN9__gnu_cxx12_Lock_policyE2EE, 91
_ZTSSt23_Sp_counted_ptr_inplaceIN7asiopal13SerialChannelESaIS1_ELN9__gnu_cxx12_Lock_policyE2EE:
	.string	"St23_Sp_counted_ptr_inplaceIN7asiopal13SerialChannelESaIS1_ELN9__gnu_cxx12_Lock_policyE2EE"
	.weak	_ZTISt23_Sp_counted_ptr_inplaceIN7asiopal13SerialChannelESaIS1_ELN9__gnu_cxx12_Lock_policyE2EE
	.section	.data.rel.ro._ZTISt23_Sp_counted_ptr_inplaceIN7asiopal13SerialChannelESaIS1_ELN9__gnu_cxx12_Lock_policyE2EE,"awG",@progbits,_ZTISt23_Sp_counted_ptr_inplaceIN7asiopal13SerialChannelESaIS1_ELN9__gnu_cxx12_Lock_policyE2EE,comdat
	.align 8
	.type	_ZTISt23_Sp_counted_ptr_inplaceIN7asiopal13SerialChannelESaIS1_ELN9__gnu_cxx12_Lock_policyE2EE, @object
	.size	_ZTISt23_Sp_counted_ptr_inplaceIN7asiopal13SerialChannelESaIS1_ELN9__gnu_cxx12_Lock_policyE2EE, 24
_ZTISt23_Sp_counted_ptr_inplaceIN7asiopal13SerialChannelESaIS1_ELN9__gnu_cxx12_Lock_policyE2EE:
	.quad	_ZTVN10__cxxabiv120__si_class_type_infoE+16
	.quad	_ZTSSt23_Sp_counted_ptr_inplaceIN7asiopal13SerialChannelESaIS1_ELN9__gnu_cxx12_Lock_policyE2EE
	.quad	_ZTISt16_Sp_counted_baseILN9__gnu_cxx12_Lock_policyE2EE
	.weak	_ZTVN4asio6detail15system_categoryE
	.section	.data.rel.ro._ZTVN4asio6detail15system_categoryE,"awG",@progbits,_ZTVN4asio6detail15system_categoryE,comdat
	.align 8
	.type	_ZTVN4asio6detail15system_categoryE, @object
	.size	_ZTVN4asio6detail15system_categoryE, 80
_ZTVN4asio6detail15system_categoryE:
	.quad	0
	.quad	_ZTIN4asio6detail15system_categoryE
	.quad	_ZN4asio6detail15system_categoryD1Ev
	.quad	_ZN4asio6detail15system_categoryD0Ev
	.quad	_ZNK4asio6detail15system_category4nameEv
	.quad	_ZNKSt3_V214error_category10_M_messageB5cxx11Ei
	.quad	_ZNK4asio6detail15system_category7messageB5cxx11Ei
	.quad	_ZNKSt3_V214error_category23default_error_conditionEi
	.quad	_ZNKSt3_V214error_category10equivalentEiRKSt15error_condition
	.quad	_ZNKSt3_V214error_category10equivalentERKSt10error_codei
	.weak	_ZTVN4asio5error6detail14netdb_categoryE
	.section	.data.rel.ro._ZTVN4asio5error6detail14netdb_categoryE,"awG",@progbits,_ZTVN4asio5error6detail14netdb_categoryE,comdat
	.align 8
	.type	_ZTVN4asio5error6detail14netdb_categoryE, @object
	.size	_ZTVN4asio5error6detail14netdb_categoryE, 80
_ZTVN4asio5error6detail14netdb_categoryE:
	.quad	0
	.quad	_ZTIN4asio5error6detail14netdb_categoryE
	.quad	_ZN4asio5error6detail14netdb_categoryD1Ev
	.quad	_ZN4asio5error6detail14netdb_categoryD0Ev
	.quad	_ZNK4asio5error6detail14netdb_category4nameEv
	.quad	_ZNKSt3_V214error_category10_M_messageB5cxx11Ei
	.quad	_ZNK4asio5error6detail14netdb_category7messageB5cxx11Ei
	.quad	_ZNKSt3_V214error_category23default_error_conditionEi
	.quad	_ZNKSt3_V214error_category10equivalentEiRKSt15error_condition
	.quad	_ZNKSt3_V214error_category10equivalentERKSt10error_codei
	.weak	_ZTVN4asio5error6detail17addrinfo_categoryE
	.section	.data.rel.ro._ZTVN4asio5error6detail17addrinfo_categoryE,"awG",@progbits,_ZTVN4asio5error6detail17addrinfo_categoryE,comdat
	.align 8
	.type	_ZTVN4asio5error6detail17addrinfo_categoryE, @object
	.size	_ZTVN4asio5error6detail17addrinfo_categoryE, 80
_ZTVN4asio5error6detail17addrinfo_categoryE:
	.quad	0
	.quad	_ZTIN4asio5error6detail17addrinfo_categoryE
	.quad	_ZN4asio5error6detail17addrinfo_categoryD1Ev
	.quad	_ZN4asio5error6detail17addrinfo_categoryD0Ev
	.quad	_ZNK4asio5error6detail17addrinfo_category4nameEv
	.quad	_ZNKSt3_V214error_category10_M_messageB5cxx11Ei
	.quad	_ZNK4asio5error6detail17addrinfo_category7messageB5cxx11Ei
	.quad	_ZNKSt3_V214error_category23default_error_conditionEi
	.quad	_ZNKSt3_V214error_category10equivalentEiRKSt15error_condition
	.quad	_ZNKSt3_V214error_category10equivalentERKSt10error_codei
	.weak	_ZTVN4asio5error6detail13misc_categoryE
	.section	.data.rel.ro._ZTVN4asio5error6detail13misc_categoryE,"awG",@progbits,_ZTVN4asio5error6detail13misc_categoryE,comdat
	.align 8
	.type	_ZTVN4asio5error6detail13misc_categoryE, @object
	.size	_ZTVN4asio5error6detail13misc_categoryE, 80
_ZTVN4asio5error6detail13misc_categoryE:
	.quad	0
	.quad	_ZTIN4asio5error6detail13misc_categoryE
	.quad	_ZN4asio5error6detail13misc_categoryD1Ev
	.quad	_ZN4asio5error6detail13misc_categoryD0Ev
	.quad	_ZNK4asio5error6detail13misc_category4nameEv
	.quad	_ZNKSt3_V214error_category10_M_messageB5cxx11Ei
	.quad	_ZNK4asio5error6detail13misc_category7messageB5cxx11Ei
	.quad	_ZNKSt3_V214error_category23default_error_conditionEi
	.quad	_ZNKSt3_V214error_category10equivalentEiRKSt15error_condition
	.quad	_ZNKSt3_V214error_category10equivalentERKSt10error_codei
	.weak	_ZTVN7asiopal13IAsyncChannelE
	.section	.data.rel.ro._ZTVN7asiopal13IAsyncChannelE,"awG",@progbits,_ZTVN7asiopal13IAsyncChannelE,comdat
	.align 8
	.type	_ZTVN7asiopal13IAsyncChannelE, @object
	.size	_ZTVN7asiopal13IAsyncChannelE, 56
_ZTVN7asiopal13IAsyncChannelE:
	.quad	0
	.quad	_ZTIN7asiopal13IAsyncChannelE
	.quad	0
	.quad	0
	.quad	__cxa_pure_virtual
	.quad	__cxa_pure_virtual
	.quad	__cxa_pure_virtual
	.weak	_ZTVN8asiodnp315SerialIOHandlerE
	.section	.data.rel.ro._ZTVN8asiodnp315SerialIOHandlerE,"awG",@progbits,_ZTVN8asiodnp315SerialIOHandlerE,comdat
	.align 8
	.type	_ZTVN8asiodnp315SerialIOHandlerE, @object
	.size	_ZTVN8asiodnp315SerialIOHandlerE, 136
_ZTVN8asiodnp315SerialIOHandlerE:
	.quad	0
	.quad	_ZTIN8asiodnp315SerialIOHandlerE
	.quad	_ZN8asiodnp315SerialIOHandlerD1Ev
	.quad	_ZN8asiodnp315SerialIOHandlerD0Ev
	.quad	_ZN8asiodnp39IOHandler7OnFrameERKN8opendnp316LinkHeaderFieldsERKN7openpal6RSliceE
	.quad	_ZN8asiodnp39IOHandler14OnReadCompleteERKSt10error_codem
	.quad	_ZN8asiodnp39IOHandler15OnWriteCompleteERKSt10error_codem
	.quad	_ZN8asiodnp315SerialIOHandler18BeginChannelAcceptEv
	.quad	_ZN8asiodnp315SerialIOHandler20SuspendChannelAcceptEv
	.quad	_ZN8asiodnp315SerialIOHandler12ShutdownImplEv
	.quad	_ZN8asiodnp315SerialIOHandler17OnChannelShutdownEv
	.quad	-8
	.quad	_ZTIN8asiodnp315SerialIOHandlerE
	.quad	_ZThn8_N8asiodnp315SerialIOHandlerD1Ev
	.quad	_ZThn8_N8asiodnp315SerialIOHandlerD0Ev
	.quad	_ZThn8_N8asiodnp39IOHandler14OnReadCompleteERKSt10error_codem
	.quad	_ZThn8_N8asiodnp39IOHandler15OnWriteCompleteERKSt10error_codem
	.weak	_ZTVSt23_Sp_counted_ptr_inplaceIN7asiopal13SerialChannelESaIS1_ELN9__gnu_cxx12_Lock_policyE2EE
	.section	.data.rel.ro._ZTVSt23_Sp_counted_ptr_inplaceIN7asiopal13SerialChannelESaIS1_ELN9__gnu_cxx12_Lock_policyE2EE,"awG",@progbits,_ZTVSt23_Sp_counted_ptr_inplaceIN7asiopal13SerialChannelESaIS1_ELN9__gnu_cxx12_Lock_policyE2EE,comdat
	.align 8
	.type	_ZTVSt23_Sp_counted_ptr_inplaceIN7asiopal13SerialChannelESaIS1_ELN9__gnu_cxx12_Lock_policyE2EE, @object
	.size	_ZTVSt23_Sp_counted_ptr_inplaceIN7asiopal13SerialChannelESaIS1_ELN9__gnu_cxx12_Lock_policyE2EE, 56
_ZTVSt23_Sp_counted_ptr_inplaceIN7asiopal13SerialChannelESaIS1_ELN9__gnu_cxx12_Lock_policyE2EE:
	.quad	0
	.quad	_ZTISt23_Sp_counted_ptr_inplaceIN7asiopal13SerialChannelESaIS1_ELN9__gnu_cxx12_Lock_policyE2EE
	.quad	_ZNSt23_Sp_counted_ptr_inplaceIN7asiopal13SerialChannelESaIS1_ELN9__gnu_cxx12_Lock_policyE2EED1Ev
	.quad	_ZNSt23_Sp_counted_ptr_inplaceIN7asiopal13SerialChannelESaIS1_ELN9__gnu_cxx12_Lock_policyE2EED0Ev
	.quad	_ZNSt23_Sp_counted_ptr_inplaceIN7asiopal13SerialChannelESaIS1_ELN9__gnu_cxx12_Lock_policyE2EE10_M_disposeEv
	.quad	_ZNSt23_Sp_counted_ptr_inplaceIN7asiopal13SerialChannelESaIS1_ELN9__gnu_cxx12_Lock_policyE2EE10_M_destroyEv
	.quad	_ZNSt23_Sp_counted_ptr_inplaceIN7asiopal13SerialChannelESaIS1_ELN9__gnu_cxx12_Lock_policyE2EE14_M_get_deleterERKSt9type_info
	.weak	_ZGVZN4asio5error17get_misc_categoryEvE8instance
	.section	.bss._ZGVZN4asio5error17get_misc_categoryEvE8instance,"awG",@nobits,_ZGVZN4asio5error17get_misc_categoryEvE8instance,comdat
	.align 8
	.type	_ZGVZN4asio5error17get_misc_categoryEvE8instance, @gnu_unique_object
	.size	_ZGVZN4asio5error17get_misc_categoryEvE8instance, 8
_ZGVZN4asio5error17get_misc_categoryEvE8instance:
	.zero	8
	.weak	_ZZN4asio5error17get_misc_categoryEvE8instance
	.section	.data.rel._ZZN4asio5error17get_misc_categoryEvE8instance,"awG",@progbits,_ZZN4asio5error17get_misc_categoryEvE8instance,comdat
	.align 8
	.type	_ZZN4asio5error17get_misc_categoryEvE8instance, @gnu_unique_object
	.size	_ZZN4asio5error17get_misc_categoryEvE8instance, 8
_ZZN4asio5error17get_misc_categoryEvE8instance:
	.quad	_ZTVN4asio5error6detail13misc_categoryE+16
	.weak	_ZGVZN4asio5error21get_addrinfo_categoryEvE8instance
	.section	.bss._ZGVZN4asio5error21get_addrinfo_categoryEvE8instance,"awG",@nobits,_ZGVZN4asio5error21get_addrinfo_categoryEvE8instance,comdat
	.align 8
	.type	_ZGVZN4asio5error21get_addrinfo_categoryEvE8instance, @gnu_unique_object
	.size	_ZGVZN4asio5error21get_addrinfo_categoryEvE8instance, 8
_ZGVZN4asio5error21get_addrinfo_categoryEvE8instance:
	.zero	8
	.weak	_ZZN4asio5error21get_addrinfo_categoryEvE8instance
	.section	.data.rel._ZZN4asio5error21get_addrinfo_categoryEvE8instance,"awG",@progbits,_ZZN4asio5error21get_addrinfo_categoryEvE8instance,comdat
	.align 8
	.type	_ZZN4asio5error21get_addrinfo_categoryEvE8instance, @gnu_unique_object
	.size	_ZZN4asio5error21get_addrinfo_categoryEvE8instance, 8
_ZZN4asio5error21get_addrinfo_categoryEvE8instance:
	.quad	_ZTVN4asio5error6detail17addrinfo_categoryE+16
	.weak	_ZGVZN4asio5error18get_netdb_categoryEvE8instance
	.section	.bss._ZGVZN4asio5error18get_netdb_categoryEvE8instance,"awG",@nobits,_ZGVZN4asio5error18get_netdb_categoryEvE8instance,comdat
	.align 8
	.type	_ZGVZN4asio5error18get_netdb_categoryEvE8instance, @gnu_unique_object
	.size	_ZGVZN4asio5error18get_netdb_categoryEvE8instance, 8
_ZGVZN4asio5error18get_netdb_categoryEvE8instance:
	.zero	8
	.weak	_ZZN4asio5error18get_netdb_categoryEvE8instance
	.section	.data.rel._ZZN4asio5error18get_netdb_categoryEvE8instance,"awG",@progbits,_ZZN4asio5error18get_netdb_categoryEvE8instance,comdat
	.align 8
	.type	_ZZN4asio5error18get_netdb_categoryEvE8instance, @gnu_unique_object
	.size	_ZZN4asio5error18get_netdb_categoryEvE8instance, 8
_ZZN4asio5error18get_netdb_categoryEvE8instance:
	.quad	_ZTVN4asio5error6detail14netdb_categoryE+16
	.weak	_ZGVZN4asio15system_categoryEvE8instance
	.section	.bss._ZGVZN4asio15system_categoryEvE8instance,"awG",@nobits,_ZGVZN4asio15system_categoryEvE8instance,comdat
	.align 8
	.type	_ZGVZN4asio15system_categoryEvE8instance, @gnu_unique_object
	.size	_ZGVZN4asio15system_categoryEvE8instance, 8
_ZGVZN4asio15system_categoryEvE8instance:
	.zero	8
	.weak	_ZZN4asio15system_categoryEvE8instance
	.section	.data.rel._ZZN4asio15system_categoryEvE8instance,"awG",@progbits,_ZZN4asio15system_categoryEvE8instance,comdat
	.align 8
	.type	_ZZN4asio15system_categoryEvE8instance, @gnu_unique_object
	.size	_ZZN4asio15system_categoryEvE8instance, 8
_ZZN4asio15system_categoryEvE8instance:
	.quad	_ZTVN4asio6detail15system_categoryE+16
	.weak	_ZN4asio6detail15keyword_tss_ptrINS0_10call_stackINS0_15task_io_serviceENS0_27task_io_service_thread_infoEE7contextEE6value_E
	.section	.tbss._ZN4asio6detail15keyword_tss_ptrINS0_10call_stackINS0_15task_io_serviceENS0_27task_io_service_thread_infoEE7contextEE6value_E,"awTG",@nobits,_ZN4asio6detail15keyword_tss_ptrINS0_10call_stackINS0_15task_io_serviceENS0_27task_io_service_thread_infoEE7contextEE6value_E,comdat
	.align 8
	.type	_ZN4asio6detail15keyword_tss_ptrINS0_10call_stackINS0_15task_io_serviceENS0_27task_io_service_thread_infoEE7contextEE6value_E, @gnu_unique_object
	.size	_ZN4asio6detail15keyword_tss_ptrINS0_10call_stackINS0_15task_io_serviceENS0_27task_io_service_thread_infoEE7contextEE6value_E, 8
_ZN4asio6detail15keyword_tss_ptrINS0_10call_stackINS0_15task_io_serviceENS0_27task_io_service_thread_infoEE7contextEE6value_E:
	.zero	8
	.weak	_ZZNSt19_Sp_make_shared_tag5_S_tiEvE5__tag
	.section	.rodata._ZZNSt19_Sp_make_shared_tag5_S_tiEvE5__tag,"aG",@progbits,_ZZNSt19_Sp_make_shared_tag5_S_tiEvE5__tag,comdat
	.align 8
	.type	_ZZNSt19_Sp_make_shared_tag5_S_tiEvE5__tag, @gnu_unique_object
	.size	_ZZNSt19_Sp_make_shared_tag5_S_tiEvE5__tag, 16
_ZZNSt19_Sp_make_shared_tag5_S_tiEvE5__tag:
	.zero	16
	.section	.rodata.cst16,"aM",@progbits,16
	.align 16
.LC5:
	.quad	8028075772644520015
	.quad	7310593917846626414
	.align 16
.LC6:
	.quad	2334381286471394643
	.quad	7959390400869068654
	.align 16
.LC7:
	.quad	8367816086596579155
	.quad	2338616625292734585
	.align 16
.LC8:
	.quad	7234013753529430881
	.quad	8243030355803531634
	.align 16
.LC9:
	.quad	8390045716486254408
	.quad	2891421386351273504
	.align 16
.LC10:
	.quad	7526769937477431150
	.quad	8532478930943832687
	.align 16
.LC11:
	.quad	2340027324477221221
	.quad	7020021577750243169
	.align 16
.LC12:
	.quad	8243123821706831956
	.quad	7809653110584451193
	.align 16
.LC13:
	.quad	2338623170819155049
	.quad	2338324160631043177
	.align 16
.LC14:
	.quad	7311138144931573614
	.quad	7019250824563089696
	.align 16
.LC15:
	.quad	7309955097514876993
	.quad	7809911847770287971
	.align 16
.LC16:
	.quad	2338053693894893669
	.quad	7234314212361855855
	.align 16
.LC17:
	.quad	2334956330985808928
	.quad	7310293695322153316
	.align 16
.LC18:
	.quad	8387231026764149601
	.quad	8245935278387126884
	.align 16
.LC19:
	.quad	2338615488418245701
	.quad	7959390400869068654
	.align 16
.LC20:
	.quad	7166182912791242836
	.quad	7214892426067994994
	.align 16
.LC21:
	.quad	2338616625293649263
	.quad	8031165433303558502
	.align 16
.LC22:
	.quad	7810775711721485344
	.quad	7812726531955123045
	.section	.rodata.cst8,"aM",@progbits,8
	.align 8
.LC24:
	.long	1
	.long	1
	.weak	__cxa_pure_virtual
	.hidden	DW.ref.__gxx_personality_v0
	.weak	DW.ref.__gxx_personality_v0
	.section	.data.rel.local.DW.ref.__gxx_personality_v0,"awG",@progbits,DW.ref.__gxx_personality_v0,comdat
	.align 8
	.type	DW.ref.__gxx_personality_v0, @object
	.size	DW.ref.__gxx_personality_v0, 8
DW.ref.__gxx_personality_v0:
	.quad	__gxx_personality_v0
	.hidden	__dso_handle
	.ident	"GCC: (Ubuntu 11.4.0-1ubuntu1~22.04) 11.4.0"
	.section	.note.GNU-stack,"",@progbits
	.section	.note.gnu.property,"a"
	.align 8
	.long	1f - 0f
	.long	4f - 1f
	.long	5
0:
	.string	"GNU"
1:
	.align 8
	.long	0xc0000002
	.long	3f - 2f
2:
	.long	0x3
3:
	.align 8
4:
