	.file	"TCPClientIOHandler.cpp"
	.text
	.section	.rodata._ZNK4asio6detail15system_category4nameEv.str1.1,"aMS",@progbits,1
.LC0:
	.string	"asio.system"
	.section	.text._ZNK4asio6detail15system_category4nameEv,"axG",@progbits,_ZNK4asio6detail15system_category4nameEv,comdat
	.align 2
	.p2align 4
	.weak	_ZNK4asio6detail15system_category4nameEv
	.type	_ZNK4asio6detail15system_category4nameEv, @function
_ZNK4asio6detail15system_category4nameEv:
.LFB2994:
	.cfi_startproc
	endbr64
	leaq	.LC0(%rip), %rax
	ret
	.cfi_endproc
.LFE2994:
	.size	_ZNK4asio6detail15system_category4nameEv, .-_ZNK4asio6detail15system_category4nameEv
	.section	.rodata._ZNK4asio5error6detail14netdb_category4nameEv.str1.1,"aMS",@progbits,1
.LC1:
	.string	"asio.netdb"
	.section	.text._ZNK4asio5error6detail14netdb_category4nameEv,"axG",@progbits,_ZNK4asio5error6detail14netdb_category4nameEv,comdat
	.align 2
	.p2align 4
	.weak	_ZNK4asio5error6detail14netdb_category4nameEv
	.type	_ZNK4asio5error6detail14netdb_category4nameEv, @function
_ZNK4asio5error6detail14netdb_category4nameEv:
.LFB3034:
	.cfi_startproc
	endbr64
	leaq	.LC1(%rip), %rax
	ret
	.cfi_endproc
.LFE3034:
	.size	_ZNK4asio5error6detail14netdb_category4nameEv, .-_ZNK4asio5error6detail14netdb_category4nameEv
	.section	.rodata._ZNK4asio5error6detail17addrinfo_category4nameEv.str1.1,"aMS",@progbits,1
.LC2:
	.string	"asio.addrinfo"
	.section	.text._ZNK4asio5error6detail17addrinfo_category4nameEv,"axG",@progbits,_ZNK4asio5error6detail17addrinfo_category4nameEv,comdat
	.align 2
	.p2align 4
	.weak	_ZNK4asio5error6detail17addrinfo_category4nameEv
	.type	_ZNK4asio5error6detail17addrinfo_category4nameEv, @function
_ZNK4asio5error6detail17addrinfo_category4nameEv:
.LFB3040:
	.cfi_startproc
	endbr64
	leaq	.LC2(%rip), %rax
	ret
	.cfi_endproc
.LFE3040:
	.size	_ZNK4asio5error6detail17addrinfo_category4nameEv, .-_ZNK4asio5error6detail17addrinfo_category4nameEv
	.section	.rodata._ZNK4asio5error6detail13misc_category4nameEv.str1.1,"aMS",@progbits,1
.LC3:
	.string	"asio.misc"
	.section	.text._ZNK4asio5error6detail13misc_category4nameEv,"axG",@progbits,_ZNK4asio5error6detail13misc_category4nameEv,comdat
	.align 2
	.p2align 4
	.weak	_ZNK4asio5error6detail13misc_category4nameEv
	.type	_ZNK4asio5error6detail13misc_category4nameEv, @function
_ZNK4asio5error6detail13misc_category4nameEv:
.LFB3046:
	.cfi_startproc
	endbr64
	leaq	.LC3(%rip), %rax
	ret
	.cfi_endproc
.LFE3046:
	.size	_ZNK4asio5error6detail13misc_category4nameEv, .-_ZNK4asio5error6detail13misc_category4nameEv
	.section	.text._ZN4asio6detail7tss_ptrINS0_10call_stackINS0_15task_io_serviceENS0_27task_io_service_thread_infoEE7contextEED2Ev,"axG",@progbits,_ZN4asio6detail7tss_ptrINS0_10call_stackINS0_15task_io_serviceENS0_27task_io_service_thread_infoEE7contextEED5Ev,comdat
	.align 2
	.p2align 4
	.weak	_ZN4asio6detail7tss_ptrINS0_10call_stackINS0_15task_io_serviceENS0_27task_io_service_thread_infoEE7contextEED2Ev
	.type	_ZN4asio6detail7tss_ptrINS0_10call_stackINS0_15task_io_serviceENS0_27task_io_service_thread_infoEE7contextEED2Ev, @function
_ZN4asio6detail7tss_ptrINS0_10call_stackINS0_15task_io_serviceENS0_27task_io_service_thread_infoEE7contextEED2Ev:
.LFB10512:
	.cfi_startproc
	endbr64
	ret
	.cfi_endproc
.LFE10512:
	.size	_ZN4asio6detail7tss_ptrINS0_10call_stackINS0_15task_io_serviceENS0_27task_io_service_thread_infoEE7contextEED2Ev, .-_ZN4asio6detail7tss_ptrINS0_10call_stackINS0_15task_io_serviceENS0_27task_io_service_thread_infoEE7contextEED2Ev
	.weak	_ZN4asio6detail7tss_ptrINS0_10call_stackINS0_15task_io_serviceENS0_27task_io_service_thread_infoEE7contextEED1Ev
	.set	_ZN4asio6detail7tss_ptrINS0_10call_stackINS0_15task_io_serviceENS0_27task_io_service_thread_infoEE7contextEED1Ev,_ZN4asio6detail7tss_ptrINS0_10call_stackINS0_15task_io_serviceENS0_27task_io_service_thread_infoEE7contextEED2Ev
	.section	.text._ZN4asio6detail10service_idINS0_13epoll_reactorEED2Ev,"axG",@progbits,_ZN4asio6detail10service_idINS0_13epoll_reactorEED5Ev,comdat
	.align 2
	.p2align 4
	.weak	_ZN4asio6detail10service_idINS0_13epoll_reactorEED2Ev
	.type	_ZN4asio6detail10service_idINS0_13epoll_reactorEED2Ev, @function
_ZN4asio6detail10service_idINS0_13epoll_reactorEED2Ev:
.LFB10515:
	.cfi_startproc
	endbr64
	ret
	.cfi_endproc
.LFE10515:
	.size	_ZN4asio6detail10service_idINS0_13epoll_reactorEED2Ev, .-_ZN4asio6detail10service_idINS0_13epoll_reactorEED2Ev
	.weak	_ZN4asio6detail10service_idINS0_13epoll_reactorEED1Ev
	.set	_ZN4asio6detail10service_idINS0_13epoll_reactorEED1Ev,_ZN4asio6detail10service_idINS0_13epoll_reactorEED2Ev
	.section	.text._ZN4asio6detail10service_idINS0_15task_io_serviceEED2Ev,"axG",@progbits,_ZN4asio6detail10service_idINS0_15task_io_serviceEED5Ev,comdat
	.align 2
	.p2align 4
	.weak	_ZN4asio6detail10service_idINS0_15task_io_serviceEED2Ev
	.type	_ZN4asio6detail10service_idINS0_15task_io_serviceEED2Ev, @function
_ZN4asio6detail10service_idINS0_15task_io_serviceEED2Ev:
.LFB10518:
	.cfi_startproc
	endbr64
	ret
	.cfi_endproc
.LFE10518:
	.size	_ZN4asio6detail10service_idINS0_15task_io_serviceEED2Ev, .-_ZN4asio6detail10service_idINS0_15task_io_serviceEED2Ev
	.weak	_ZN4asio6detail10service_idINS0_15task_io_serviceEED1Ev
	.set	_ZN4asio6detail10service_idINS0_15task_io_serviceEED1Ev,_ZN4asio6detail10service_idINS0_15task_io_serviceEED2Ev
	.section	.text._ZN4asio6detail7tss_ptrINS0_10call_stackINS0_14strand_service11strand_implEhE7contextEED2Ev,"axG",@progbits,_ZN4asio6detail7tss_ptrINS0_10call_stackINS0_14strand_service11strand_implEhE7contextEED5Ev,comdat
	.align 2
	.p2align 4
	.weak	_ZN4asio6detail7tss_ptrINS0_10call_stackINS0_14strand_service11strand_implEhE7contextEED2Ev
	.type	_ZN4asio6detail7tss_ptrINS0_10call_stackINS0_14strand_service11strand_implEhE7contextEED2Ev, @function
_ZN4asio6detail7tss_ptrINS0_10call_stackINS0_14strand_service11strand_implEhE7contextEED2Ev:
.LFB10521:
	.cfi_startproc
	endbr64
	ret
	.cfi_endproc
.LFE10521:
	.size	_ZN4asio6detail7tss_ptrINS0_10call_stackINS0_14strand_service11strand_implEhE7contextEED2Ev, .-_ZN4asio6detail7tss_ptrINS0_10call_stackINS0_14strand_service11strand_implEhE7contextEED2Ev
	.weak	_ZN4asio6detail7tss_ptrINS0_10call_stackINS0_14strand_service11strand_implEhE7contextEED1Ev
	.set	_ZN4asio6detail7tss_ptrINS0_10call_stackINS0_14strand_service11strand_implEhE7contextEED1Ev,_ZN4asio6detail7tss_ptrINS0_10call_stackINS0_14strand_service11strand_implEhE7contextEED2Ev
	.section	.text._ZN4asio6detail10service_idINS0_14strand_serviceEED2Ev,"axG",@progbits,_ZN4asio6detail10service_idINS0_14strand_serviceEED5Ev,comdat
	.align 2
	.p2align 4
	.weak	_ZN4asio6detail10service_idINS0_14strand_serviceEED2Ev
	.type	_ZN4asio6detail10service_idINS0_14strand_serviceEED2Ev, @function
_ZN4asio6detail10service_idINS0_14strand_serviceEED2Ev:
.LFB10524:
	.cfi_startproc
	endbr64
	ret
	.cfi_endproc
.LFE10524:
	.size	_ZN4asio6detail10service_idINS0_14strand_serviceEED2Ev, .-_ZN4asio6detail10service_idINS0_14strand_serviceEED2Ev
	.weak	_ZN4asio6detail10service_idINS0_14strand_serviceEED1Ev
	.set	_ZN4asio6detail10service_idINS0_14strand_serviceEED1Ev,_ZN4asio6detail10service_idINS0_14strand_serviceEED2Ev
	.section	.text._ZNSt23_Sp_counted_ptr_inplaceIN7asiopal13SocketChannelESaIS1_ELN9__gnu_cxx12_Lock_policyE2EED2Ev,"axG",@progbits,_ZNSt23_Sp_counted_ptr_inplaceIN7asiopal13SocketChannelESaIS1_ELN9__gnu_cxx12_Lock_policyE2EED5Ev,comdat
	.align 2
	.p2align 4
	.weak	_ZNSt23_Sp_counted_ptr_inplaceIN7asiopal13SocketChannelESaIS1_ELN9__gnu_cxx12_Lock_policyE2EED2Ev
	.type	_ZNSt23_Sp_counted_ptr_inplaceIN7asiopal13SocketChannelESaIS1_ELN9__gnu_cxx12_Lock_policyE2EED2Ev, @function
_ZNSt23_Sp_counted_ptr_inplaceIN7asiopal13SocketChannelESaIS1_ELN9__gnu_cxx12_Lock_policyE2EED2Ev:
.LFB10527:
	.cfi_startproc
	endbr64
	ret
	.cfi_endproc
.LFE10527:
	.size	_ZNSt23_Sp_counted_ptr_inplaceIN7asiopal13SocketChannelESaIS1_ELN9__gnu_cxx12_Lock_policyE2EED2Ev, .-_ZNSt23_Sp_counted_ptr_inplaceIN7asiopal13SocketChannelESaIS1_ELN9__gnu_cxx12_Lock_policyE2EED2Ev
	.weak	_ZNSt23_Sp_counted_ptr_inplaceIN7asiopal13SocketChannelESaIS1_ELN9__gnu_cxx12_Lock_policyE2EED1Ev
	.set	_ZNSt23_Sp_counted_ptr_inplaceIN7asiopal13SocketChannelESaIS1_ELN9__gnu_cxx12_Lock_policyE2EED1Ev,_ZNSt23_Sp_counted_ptr_inplaceIN7asiopal13SocketChannelESaIS1_ELN9__gnu_cxx12_Lock_policyE2EED2Ev
	.section	.text._ZNSt23_Sp_counted_ptr_inplaceIN7asiopal9TCPClientESaIS1_ELN9__gnu_cxx12_Lock_policyE2EED2Ev,"axG",@progbits,_ZNSt23_Sp_counted_ptr_inplaceIN7asiopal9TCPClientESaIS1_ELN9__gnu_cxx12_Lock_policyE2EED5Ev,comdat
	.align 2
	.p2align 4
	.weak	_ZNSt23_Sp_counted_ptr_inplaceIN7asiopal9TCPClientESaIS1_ELN9__gnu_cxx12_Lock_policyE2EED2Ev
	.type	_ZNSt23_Sp_counted_ptr_inplaceIN7asiopal9TCPClientESaIS1_ELN9__gnu_cxx12_Lock_policyE2EED2Ev, @function
_ZNSt23_Sp_counted_ptr_inplaceIN7asiopal9TCPClientESaIS1_ELN9__gnu_cxx12_Lock_policyE2EED2Ev:
.LFB10541:
	.cfi_startproc
	endbr64
	ret
	.cfi_endproc
.LFE10541:
	.size	_ZNSt23_Sp_counted_ptr_inplaceIN7asiopal9TCPClientESaIS1_ELN9__gnu_cxx12_Lock_policyE2EED2Ev, .-_ZNSt23_Sp_counted_ptr_inplaceIN7asiopal9TCPClientESaIS1_ELN9__gnu_cxx12_Lock_policyE2EED2Ev
	.weak	_ZNSt23_Sp_counted_ptr_inplaceIN7asiopal9TCPClientESaIS1_ELN9__gnu_cxx12_Lock_policyE2EED1Ev
	.set	_ZNSt23_Sp_counted_ptr_inplaceIN7asiopal9TCPClientESaIS1_ELN9__gnu_cxx12_Lock_policyE2EED1Ev,_ZNSt23_Sp_counted_ptr_inplaceIN7asiopal9TCPClientESaIS1_ELN9__gnu_cxx12_Lock_policyE2EED2Ev
	.section	.text._ZNSt23_Sp_counted_ptr_inplaceIN7asiopal9TCPClientESaIS1_ELN9__gnu_cxx12_Lock_policyE2EED0Ev,"axG",@progbits,_ZNSt23_Sp_counted_ptr_inplaceIN7asiopal9TCPClientESaIS1_ELN9__gnu_cxx12_Lock_policyE2EED5Ev,comdat
	.align 2
	.p2align 4
	.weak	_ZNSt23_Sp_counted_ptr_inplaceIN7asiopal9TCPClientESaIS1_ELN9__gnu_cxx12_Lock_policyE2EED0Ev
	.type	_ZNSt23_Sp_counted_ptr_inplaceIN7asiopal9TCPClientESaIS1_ELN9__gnu_cxx12_Lock_policyE2EED0Ev, @function
_ZNSt23_Sp_counted_ptr_inplaceIN7asiopal9TCPClientESaIS1_ELN9__gnu_cxx12_Lock_policyE2EED0Ev:
.LFB10543:
	.cfi_startproc
	endbr64
	movl	$264, %esi
	jmp	_ZdlPvm@PLT
	.cfi_endproc
.LFE10543:
	.size	_ZNSt23_Sp_counted_ptr_inplaceIN7asiopal9TCPClientESaIS1_ELN9__gnu_cxx12_Lock_policyE2EED0Ev, .-_ZNSt23_Sp_counted_ptr_inplaceIN7asiopal9TCPClientESaIS1_ELN9__gnu_cxx12_Lock_policyE2EED0Ev
	.section	.text._ZNSt23_Sp_counted_ptr_inplaceIN7asiopal13SocketChannelESaIS1_ELN9__gnu_cxx12_Lock_policyE2EED0Ev,"axG",@progbits,_ZNSt23_Sp_counted_ptr_inplaceIN7asiopal13SocketChannelESaIS1_ELN9__gnu_cxx12_Lock_policyE2EED5Ev,comdat
	.align 2
	.p2align 4
	.weak	_ZNSt23_Sp_counted_ptr_inplaceIN7asiopal13SocketChannelESaIS1_ELN9__gnu_cxx12_Lock_policyE2EED0Ev
	.type	_ZNSt23_Sp_counted_ptr_inplaceIN7asiopal13SocketChannelESaIS1_ELN9__gnu_cxx12_Lock_policyE2EED0Ev, @function
_ZNSt23_Sp_counted_ptr_inplaceIN7asiopal13SocketChannelESaIS1_ELN9__gnu_cxx12_Lock_policyE2EED0Ev:
.LFB10529:
	.cfi_startproc
	endbr64
	movl	$112, %esi
	jmp	_ZdlPvm@PLT
	.cfi_endproc
.LFE10529:
	.size	_ZNSt23_Sp_counted_ptr_inplaceIN7asiopal13SocketChannelESaIS1_ELN9__gnu_cxx12_Lock_policyE2EED0Ev, .-_ZNSt23_Sp_counted_ptr_inplaceIN7asiopal13SocketChannelESaIS1_ELN9__gnu_cxx12_Lock_policyE2EED0Ev
	.section	.text._ZNSt23_Sp_counted_ptr_inplaceIN7asiopal13SocketChannelESaIS1_ELN9__gnu_cxx12_Lock_policyE2EE10_M_destroyEv,"axG",@progbits,_ZNSt23_Sp_counted_ptr_inplaceIN7asiopal13SocketChannelESaIS1_ELN9__gnu_cxx12_Lock_policyE2EE10_M_destroyEv,comdat
	.align 2
	.p2align 4
	.weak	_ZNSt23_Sp_counted_ptr_inplaceIN7asiopal13SocketChannelESaIS1_ELN9__gnu_cxx12_Lock_policyE2EE10_M_destroyEv
	.type	_ZNSt23_Sp_counted_ptr_inplaceIN7asiopal13SocketChannelESaIS1_ELN9__gnu_cxx12_Lock_policyE2EE10_M_destroyEv, @function
_ZNSt23_Sp_counted_ptr_inplaceIN7asiopal13SocketChannelESaIS1_ELN9__gnu_cxx12_Lock_policyE2EE10_M_destroyEv:
.LFB10531:
	.cfi_startproc
	endbr64
	movl	$112, %esi
	jmp	_ZdlPvm@PLT
	.cfi_endproc
.LFE10531:
	.size	_ZNSt23_Sp_counted_ptr_inplaceIN7asiopal13SocketChannelESaIS1_ELN9__gnu_cxx12_Lock_policyE2EE10_M_destroyEv, .-_ZNSt23_Sp_counted_ptr_inplaceIN7asiopal13SocketChannelESaIS1_ELN9__gnu_cxx12_Lock_policyE2EE10_M_destroyEv
	.section	.text._ZNSt23_Sp_counted_ptr_inplaceIN7asiopal9TCPClientESaIS1_ELN9__gnu_cxx12_Lock_policyE2EE10_M_destroyEv,"axG",@progbits,_ZNSt23_Sp_counted_ptr_inplaceIN7asiopal9TCPClientESaIS1_ELN9__gnu_cxx12_Lock_policyE2EE10_M_destroyEv,comdat
	.align 2
	.p2align 4
	.weak	_ZNSt23_Sp_counted_ptr_inplaceIN7asiopal9TCPClientESaIS1_ELN9__gnu_cxx12_Lock_policyE2EE10_M_destroyEv
	.type	_ZNSt23_Sp_counted_ptr_inplaceIN7asiopal9TCPClientESaIS1_ELN9__gnu_cxx12_Lock_policyE2EE10_M_destroyEv, @function
_ZNSt23_Sp_counted_ptr_inplaceIN7asiopal9TCPClientESaIS1_ELN9__gnu_cxx12_Lock_policyE2EE10_M_destroyEv:
.LFB10545:
	.cfi_startproc
	endbr64
	movl	$264, %esi
	jmp	_ZdlPvm@PLT
	.cfi_endproc
.LFE10545:
	.size	_ZNSt23_Sp_counted_ptr_inplaceIN7asiopal9TCPClientESaIS1_ELN9__gnu_cxx12_Lock_policyE2EE10_M_destroyEv, .-_ZNSt23_Sp_counted_ptr_inplaceIN7asiopal9TCPClientESaIS1_ELN9__gnu_cxx12_Lock_policyE2EE10_M_destroyEv
	.section	.text._ZN4asio6detail15system_categoryD2Ev,"axG",@progbits,_ZN4asio6detail15system_categoryD5Ev,comdat
	.align 2
	.p2align 4
	.weak	_ZN4asio6detail15system_categoryD2Ev
	.type	_ZN4asio6detail15system_categoryD2Ev, @function
_ZN4asio6detail15system_categoryD2Ev:
.LFB10491:
	.cfi_startproc
	endbr64
	movq	_ZTVN4asio6detail15system_categoryE@GOTPCREL(%rip), %rax
	addq	$16, %rax
	movq	%rax, (%rdi)
	jmp	_ZNSt3_V214error_categoryD2Ev@PLT
	.cfi_endproc
.LFE10491:
	.size	_ZN4asio6detail15system_categoryD2Ev, .-_ZN4asio6detail15system_categoryD2Ev
	.weak	_ZN4asio6detail15system_categoryD1Ev
	.set	_ZN4asio6detail15system_categoryD1Ev,_ZN4asio6detail15system_categoryD2Ev
	.section	.text._ZN4asio6detail15system_categoryD0Ev,"axG",@progbits,_ZN4asio6detail15system_categoryD5Ev,comdat
	.align 2
	.p2align 4
	.weak	_ZN4asio6detail15system_categoryD0Ev
	.type	_ZN4asio6detail15system_categoryD0Ev, @function
_ZN4asio6detail15system_categoryD0Ev:
.LFB10493:
	.cfi_startproc
	endbr64
	movq	_ZTVN4asio6detail15system_categoryE@GOTPCREL(%rip), %rax
	pushq	%rbp
	.cfi_def_cfa_offset 16
	.cfi_offset 6, -16
	movq	%rdi, %rbp
	addq	$16, %rax
	movq	%rax, (%rdi)
	call	_ZNSt3_V214error_categoryD2Ev@PLT
	movq	%rbp, %rdi
	movl	$8, %esi
	popq	%rbp
	.cfi_def_cfa_offset 8
	jmp	_ZdlPvm@PLT
	.cfi_endproc
.LFE10493:
	.size	_ZN4asio6detail15system_categoryD0Ev, .-_ZN4asio6detail15system_categoryD0Ev
	.section	.text._ZN4asio5error6detail14netdb_categoryD2Ev,"axG",@progbits,_ZN4asio5error6detail14netdb_categoryD5Ev,comdat
	.align 2
	.p2align 4
	.weak	_ZN4asio5error6detail14netdb_categoryD2Ev
	.type	_ZN4asio5error6detail14netdb_categoryD2Ev, @function
_ZN4asio5error6detail14netdb_categoryD2Ev:
.LFB10479:
	.cfi_startproc
	endbr64
	movq	_ZTVN4asio5error6detail14netdb_categoryE@GOTPCREL(%rip), %rax
	addq	$16, %rax
	movq	%rax, (%rdi)
	jmp	_ZNSt3_V214error_categoryD2Ev@PLT
	.cfi_endproc
.LFE10479:
	.size	_ZN4asio5error6detail14netdb_categoryD2Ev, .-_ZN4asio5error6detail14netdb_categoryD2Ev
	.weak	_ZN4asio5error6detail14netdb_categoryD1Ev
	.set	_ZN4asio5error6detail14netdb_categoryD1Ev,_ZN4asio5error6detail14netdb_categoryD2Ev
	.section	.text._ZN4asio5error6detail14netdb_categoryD0Ev,"axG",@progbits,_ZN4asio5error6detail14netdb_categoryD5Ev,comdat
	.align 2
	.p2align 4
	.weak	_ZN4asio5error6detail14netdb_categoryD0Ev
	.type	_ZN4asio5error6detail14netdb_categoryD0Ev, @function
_ZN4asio5error6detail14netdb_categoryD0Ev:
.LFB10481:
	.cfi_startproc
	endbr64
	movq	_ZTVN4asio5error6detail14netdb_categoryE@GOTPCREL(%rip), %rax
	pushq	%rbp
	.cfi_def_cfa_offset 16
	.cfi_offset 6, -16
	movq	%rdi, %rbp
	addq	$16, %rax
	movq	%rax, (%rdi)
	call	_ZNSt3_V214error_categoryD2Ev@PLT
	movq	%rbp, %rdi
	movl	$8, %esi
	popq	%rbp
	.cfi_def_cfa_offset 8
	jmp	_ZdlPvm@PLT
	.cfi_endproc
.LFE10481:
	.size	_ZN4asio5error6detail14netdb_categoryD0Ev, .-_ZN4asio5error6detail14netdb_categoryD0Ev
	.section	.text._ZN4asio5error6detail17addrinfo_categoryD2Ev,"axG",@progbits,_ZN4asio5error6detail17addrinfo_categoryD5Ev,comdat
	.align 2
	.p2align 4
	.weak	_ZN4asio5error6detail17addrinfo_categoryD2Ev
	.type	_ZN4asio5error6detail17addrinfo_categoryD2Ev, @function
_ZN4asio5error6detail17addrinfo_categoryD2Ev:
.LFB10475:
	.cfi_startproc
	endbr64
	movq	_ZTVN4asio5error6detail17addrinfo_categoryE@GOTPCREL(%rip), %rax
	addq	$16, %rax
	movq	%rax, (%rdi)
	jmp	_ZNSt3_V214error_categoryD2Ev@PLT
	.cfi_endproc
.LFE10475:
	.size	_ZN4asio5error6detail17addrinfo_categoryD2Ev, .-_ZN4asio5error6detail17addrinfo_categoryD2Ev
	.weak	_ZN4asio5error6detail17addrinfo_categoryD1Ev
	.set	_ZN4asio5error6detail17addrinfo_categoryD1Ev,_ZN4asio5error6detail17addrinfo_categoryD2Ev
	.section	.text._ZN4asio5error6detail17addrinfo_categoryD0Ev,"axG",@progbits,_ZN4asio5error6detail17addrinfo_categoryD5Ev,comdat
	.align 2
	.p2align 4
	.weak	_ZN4asio5error6detail17addrinfo_categoryD0Ev
	.type	_ZN4asio5error6detail17addrinfo_categoryD0Ev, @function
_ZN4asio5error6detail17addrinfo_categoryD0Ev:
.LFB10477:
	.cfi_startproc
	endbr64
	movq	_ZTVN4asio5error6detail17addrinfo_categoryE@GOTPCREL(%rip), %rax
	pushq	%rbp
	.cfi_def_cfa_offset 16
	.cfi_offset 6, -16
	movq	%rdi, %rbp
	addq	$16, %rax
	movq	%rax, (%rdi)
	call	_ZNSt3_V214error_categoryD2Ev@PLT
	movq	%rbp, %rdi
	movl	$8, %esi
	popq	%rbp
	.cfi_def_cfa_offset 8
	jmp	_ZdlPvm@PLT
	.cfi_endproc
.LFE10477:
	.size	_ZN4asio5error6detail17addrinfo_categoryD0Ev, .-_ZN4asio5error6detail17addrinfo_categoryD0Ev
	.section	.text._ZN4asio5error6detail13misc_categoryD2Ev,"axG",@progbits,_ZN4asio5error6detail13misc_categoryD5Ev,comdat
	.align 2
	.p2align 4
	.weak	_ZN4asio5error6detail13misc_categoryD2Ev
	.type	_ZN4asio5error6detail13misc_categoryD2Ev, @function
_ZN4asio5error6detail13misc_categoryD2Ev:
.LFB10471:
	.cfi_startproc
	endbr64
	movq	_ZTVN4asio5error6detail13misc_categoryE@GOTPCREL(%rip), %rax
	addq	$16, %rax
	movq	%rax, (%rdi)
	jmp	_ZNSt3_V214error_categoryD2Ev@PLT
	.cfi_endproc
.LFE10471:
	.size	_ZN4asio5error6detail13misc_categoryD2Ev, .-_ZN4asio5error6detail13misc_categoryD2Ev
	.weak	_ZN4asio5error6detail13misc_categoryD1Ev
	.set	_ZN4asio5error6detail13misc_categoryD1Ev,_ZN4asio5error6detail13misc_categoryD2Ev
	.section	.text._ZN4asio5error6detail13misc_categoryD0Ev,"axG",@progbits,_ZN4asio5error6detail13misc_categoryD5Ev,comdat
	.align 2
	.p2align 4
	.weak	_ZN4asio5error6detail13misc_categoryD0Ev
	.type	_ZN4asio5error6detail13misc_categoryD0Ev, @function
_ZN4asio5error6detail13misc_categoryD0Ev:
.LFB10473:
	.cfi_startproc
	endbr64
	movq	_ZTVN4asio5error6detail13misc_categoryE@GOTPCREL(%rip), %rax
	pushq	%rbp
	.cfi_def_cfa_offset 16
	.cfi_offset 6, -16
	movq	%rdi, %rbp
	addq	$16, %rax
	movq	%rax, (%rdi)
	call	_ZNSt3_V214error_categoryD2Ev@PLT
	movq	%rbp, %rdi
	movl	$8, %esi
	popq	%rbp
	.cfi_def_cfa_offset 8
	jmp	_ZdlPvm@PLT
	.cfi_endproc
.LFE10473:
	.size	_ZN4asio5error6detail13misc_categoryD0Ev, .-_ZN4asio5error6detail13misc_categoryD0Ev
	.section	.text._ZNSt23_Sp_counted_ptr_inplaceIN7asiopal13SocketChannelESaIS1_ELN9__gnu_cxx12_Lock_policyE2EE14_M_get_deleterERKSt9type_info,"axG",@progbits,_ZNSt23_Sp_counted_ptr_inplaceIN7asiopal13SocketChannelESaIS1_ELN9__gnu_cxx12_Lock_policyE2EE14_M_get_deleterERKSt9type_info,comdat
	.align 2
	.p2align 4
	.weak	_ZNSt23_Sp_counted_ptr_inplaceIN7asiopal13SocketChannelESaIS1_ELN9__gnu_cxx12_Lock_policyE2EE14_M_get_deleterERKSt9type_info
	.type	_ZNSt23_Sp_counted_ptr_inplaceIN7asiopal13SocketChannelESaIS1_ELN9__gnu_cxx12_Lock_policyE2EE14_M_get_deleterERKSt9type_info, @function
_ZNSt23_Sp_counted_ptr_inplaceIN7asiopal13SocketChannelESaIS1_ELN9__gnu_cxx12_Lock_policyE2EE14_M_get_deleterERKSt9type_info:
.LFB10532:
	.cfi_startproc
	endbr64
	cmpq	_ZZNSt19_Sp_make_shared_tag5_S_tiEvE5__tag@GOTPCREL(%rip), %rsi
	pushq	%r12
	.cfi_def_cfa_offset 16
	.cfi_offset 12, -16
	leaq	16(%rdi), %r12
	je	.L29
	movq	8(%rsi), %rdi
	movq	_ZTSSt19_Sp_make_shared_tag@GOTPCREL(%rip), %rsi
	cmpq	%rsi, %rdi
	je	.L29
	cmpb	$42, (%rdi)
	je	.L31
	call	strcmp@PLT
	testl	%eax, %eax
	movl	$0, %eax
	cmovne	%rax, %r12
.L29:
	movq	%r12, %rax
	popq	%r12
	.cfi_remember_state
	.cfi_def_cfa_offset 8
	ret
	.p2align 4,,10
	.p2align 3
.L31:
	.cfi_restore_state
	xorl	%r12d, %r12d
	movq	%r12, %rax
	popq	%r12
	.cfi_def_cfa_offset 8
	ret
	.cfi_endproc
.LFE10532:
	.size	_ZNSt23_Sp_counted_ptr_inplaceIN7asiopal13SocketChannelESaIS1_ELN9__gnu_cxx12_Lock_policyE2EE14_M_get_deleterERKSt9type_info, .-_ZNSt23_Sp_counted_ptr_inplaceIN7asiopal13SocketChannelESaIS1_ELN9__gnu_cxx12_Lock_policyE2EE14_M_get_deleterERKSt9type_info
	.section	.text._ZNSt23_Sp_counted_ptr_inplaceIN7asiopal9TCPClientESaIS1_ELN9__gnu_cxx12_Lock_policyE2EE14_M_get_deleterERKSt9type_info,"axG",@progbits,_ZNSt23_Sp_counted_ptr_inplaceIN7asiopal9TCPClientESaIS1_ELN9__gnu_cxx12_Lock_policyE2EE14_M_get_deleterERKSt9type_info,comdat
	.align 2
	.p2align 4
	.weak	_ZNSt23_Sp_counted_ptr_inplaceIN7asiopal9TCPClientESaIS1_ELN9__gnu_cxx12_Lock_policyE2EE14_M_get_deleterERKSt9type_info
	.type	_ZNSt23_Sp_counted_ptr_inplaceIN7asiopal9TCPClientESaIS1_ELN9__gnu_cxx12_Lock_policyE2EE14_M_get_deleterERKSt9type_info, @function
_ZNSt23_Sp_counted_ptr_inplaceIN7asiopal9TCPClientESaIS1_ELN9__gnu_cxx12_Lock_policyE2EE14_M_get_deleterERKSt9type_info:
.LFB10546:
	.cfi_startproc
	endbr64
	cmpq	_ZZNSt19_Sp_make_shared_tag5_S_tiEvE5__tag@GOTPCREL(%rip), %rsi
	pushq	%r12
	.cfi_def_cfa_offset 16
	.cfi_offset 12, -16
	leaq	16(%rdi), %r12
	je	.L34
	movq	8(%rsi), %rdi
	movq	_ZTSSt19_Sp_make_shared_tag@GOTPCREL(%rip), %rsi
	cmpq	%rsi, %rdi
	je	.L34
	cmpb	$42, (%rdi)
	je	.L36
	call	strcmp@PLT
	testl	%eax, %eax
	movl	$0, %eax
	cmovne	%rax, %r12
.L34:
	movq	%r12, %rax
	popq	%r12
	.cfi_remember_state
	.cfi_def_cfa_offset 8
	ret
	.p2align 4,,10
	.p2align 3
.L36:
	.cfi_restore_state
	xorl	%r12d, %r12d
	movq	%r12, %rax
	popq	%r12
	.cfi_def_cfa_offset 8
	ret
	.cfi_endproc
.LFE10546:
	.size	_ZNSt23_Sp_counted_ptr_inplaceIN7asiopal9TCPClientESaIS1_ELN9__gnu_cxx12_Lock_policyE2EE14_M_get_deleterERKSt9type_info, .-_ZNSt23_Sp_counted_ptr_inplaceIN7asiopal9TCPClientESaIS1_ELN9__gnu_cxx12_Lock_policyE2EE14_M_get_deleterERKSt9type_info
	.section	.text._ZNSt8_Rb_treeIPN8opendnp317IScheduleCallbackES2_St9_IdentityIS2_ESt4lessIS2_ESaIS2_EE8_M_eraseEPSt13_Rb_tree_nodeIS2_E.isra.0,"axG",@progbits,_ZN8asiodnp39IOHandlerD5Ev,comdat
	.align 2
	.p2align 4
	.type	_ZNSt8_Rb_treeIPN8opendnp317IScheduleCallbackES2_St9_IdentityIS2_ESt4lessIS2_ESaIS2_EE8_M_eraseEPSt13_Rb_tree_nodeIS2_E.isra.0, @function
_ZNSt8_Rb_treeIPN8opendnp317IScheduleCallbackES2_St9_IdentityIS2_ESt4lessIS2_ESaIS2_EE8_M_eraseEPSt13_Rb_tree_nodeIS2_E.isra.0:
.LFB10680:
	.cfi_startproc
	pushq	%r15
	.cfi_def_cfa_offset 16
	.cfi_offset 15, -16
	pushq	%r14
	.cfi_def_cfa_offset 24
	.cfi_offset 14, -24
	pushq	%r13
	.cfi_def_cfa_offset 32
	.cfi_offset 13, -32
	pushq	%r12
	.cfi_def_cfa_offset 40
	.cfi_offset 12, -40
	pushq	%rbp
	.cfi_def_cfa_offset 48
	.cfi_offset 6, -48
	pushq	%rbx
	.cfi_def_cfa_offset 56
	.cfi_offset 3, -56
	subq	$40, %rsp
	.cfi_def_cfa_offset 96
	movq	%rdi, 16(%rsp)
	testq	%rdi, %rdi
	je	.L39
.L57:
	movq	16(%rsp), %rax
	movq	24(%rax), %r14
	testq	%r14, %r14
	je	.L41
.L56:
	movq	24(%r14), %r15
	testq	%r15, %r15
	je	.L42
.L55:
	movq	24(%r15), %rax
	movq	%rax, 8(%rsp)
	testq	%rax, %rax
	je	.L43
.L54:
	movq	8(%rsp), %rax
	movq	24(%rax), %rbp
	testq	%rbp, %rbp
	je	.L44
.L53:
	movq	24(%rbp), %r13
	testq	%r13, %r13
	je	.L45
.L52:
	movq	24(%r13), %r12
	testq	%r12, %r12
	je	.L46
.L51:
	movq	24(%r12), %r9
	testq	%r9, %r9
	je	.L47
.L50:
	movq	24(%r9), %rbx
	testq	%rbx, %rbx
	je	.L48
.L49:
	movq	24(%rbx), %rdi
	movq	%r9, 24(%rsp)
	call	_ZNSt8_Rb_treeIPN8opendnp317IScheduleCallbackES2_St9_IdentityIS2_ESt4lessIS2_ESaIS2_EE8_M_eraseEPSt13_Rb_tree_nodeIS2_E.isra.0
	movq	%rbx, %rdi
	movq	16(%rbx), %rbx
	movl	$40, %esi
	call	_ZdlPvm@PLT
	movq	24(%rsp), %r9
	testq	%rbx, %rbx
	jne	.L49
.L48:
	movq	16(%r9), %rbx
	movl	$40, %esi
	movq	%r9, %rdi
	call	_ZdlPvm@PLT
	testq	%rbx, %rbx
	je	.L47
	movq	%rbx, %r9
	jmp	.L50
.L45:
	movq	16(%rbp), %r12
	movl	$40, %esi
	movq	%rbp, %rdi
	call	_ZdlPvm@PLT
	testq	%r12, %r12
	je	.L44
	movq	%r12, %rbp
	jmp	.L53
	.p2align 4,,10
	.p2align 3
.L46:
	movq	16(%r13), %r12
	movl	$40, %esi
	movq	%r13, %rdi
	call	_ZdlPvm@PLT
	testq	%r12, %r12
	je	.L45
	movq	%r12, %r13
	jmp	.L52
.L44:
	movq	8(%rsp), %rdi
	movl	$40, %esi
	movq	16(%rdi), %rbp
	call	_ZdlPvm@PLT
	testq	%rbp, %rbp
	je	.L43
	movq	%rbp, 8(%rsp)
	jmp	.L54
	.p2align 4,,10
	.p2align 3
.L47:
	movq	16(%r12), %rax
	movl	$40, %esi
	movq	%r12, %rdi
	movq	%rax, 24(%rsp)
	call	_ZdlPvm@PLT
	movq	24(%rsp), %rax
	testq	%rax, %rax
	je	.L46
	movq	%rax, %r12
	jmp	.L51
.L43:
	movq	16(%r15), %rbx
	movl	$40, %esi
	movq	%r15, %rdi
	call	_ZdlPvm@PLT
	testq	%rbx, %rbx
	je	.L42
	movq	%rbx, %r15
	jmp	.L55
.L42:
	movq	16(%r14), %rbx
	movl	$40, %esi
	movq	%r14, %rdi
	call	_ZdlPvm@PLT
	testq	%rbx, %rbx
	je	.L41
	movq	%rbx, %r14
	jmp	.L56
.L41:
	movq	16(%rsp), %rdi
	movl	$40, %esi
	movq	16(%rdi), %rbx
	call	_ZdlPvm@PLT
	testq	%rbx, %rbx
	je	.L39
	movq	%rbx, 16(%rsp)
	jmp	.L57
.L39:
	addq	$40, %rsp
	.cfi_def_cfa_offset 56
	popq	%rbx
	.cfi_def_cfa_offset 48
	popq	%rbp
	.cfi_def_cfa_offset 40
	popq	%r12
	.cfi_def_cfa_offset 32
	popq	%r13
	.cfi_def_cfa_offset 24
	popq	%r14
	.cfi_def_cfa_offset 16
	popq	%r15
	.cfi_def_cfa_offset 8
	ret
	.cfi_endproc
.LFE10680:
	.size	_ZNSt8_Rb_treeIPN8opendnp317IScheduleCallbackES2_St9_IdentityIS2_ESt4lessIS2_ESaIS2_EE8_M_eraseEPSt13_Rb_tree_nodeIS2_E.isra.0, .-_ZNSt8_Rb_treeIPN8opendnp317IScheduleCallbackES2_St9_IdentityIS2_ESt4lessIS2_ESaIS2_EE8_M_eraseEPSt13_Rb_tree_nodeIS2_E.isra.0
	.section	.rodata._ZNK4asio6detail15system_category7messageB5cxx11Ei.str1.8,"aMS",@progbits,1
	.align 8
.LC4:
	.string	"basic_string::_M_construct null not valid"
	.section	.text._ZNK4asio6detail15system_category7messageB5cxx11Ei,"axG",@progbits,_ZNK4asio6detail15system_category7messageB5cxx11Ei,comdat
	.align 2
	.p2align 4
	.weak	_ZNK4asio6detail15system_category7messageB5cxx11Ei
	.type	_ZNK4asio6detail15system_category7messageB5cxx11Ei, @function
_ZNK4asio6detail15system_category7messageB5cxx11Ei:
.LFB2995:
	.cfi_startproc
	endbr64
	pushq	%r14
	.cfi_def_cfa_offset 16
	.cfi_offset 14, -16
	pushq	%r13
	.cfi_def_cfa_offset 24
	.cfi_offset 13, -24
	pushq	%r12
	.cfi_def_cfa_offset 32
	.cfi_offset 12, -32
	movq	%rdi, %r12
	pushq	%rbp
	.cfi_def_cfa_offset 40
	.cfi_offset 6, -40
	leaq	16(%rdi), %rbp
	subq	$296, %rsp
	.cfi_def_cfa_offset 336
	movq	%fs:40, %rax
	movq	%rax, 280(%rsp)
	xorl	%eax, %eax
	cmpl	$125, %edx
	je	.L110
	pxor	%xmm0, %xmm0
	movl	%edx, %edi
	leaq	16(%rsp), %rsi
	movl	$256, %edx
	movaps	%xmm0, 16(%rsp)
	movaps	%xmm0, 32(%rsp)
	movaps	%xmm0, 48(%rsp)
	movaps	%xmm0, 64(%rsp)
	movaps	%xmm0, 80(%rsp)
	movaps	%xmm0, 96(%rsp)
	movaps	%xmm0, 112(%rsp)
	movaps	%xmm0, 128(%rsp)
	movaps	%xmm0, 144(%rsp)
	movaps	%xmm0, 160(%rsp)
	movaps	%xmm0, 176(%rsp)
	movaps	%xmm0, 192(%rsp)
	movaps	%xmm0, 208(%rsp)
	movaps	%xmm0, 224(%rsp)
	movaps	%xmm0, 240(%rsp)
	movaps	%xmm0, 256(%rsp)
	call	strerror_r@PLT
	movq	%rbp, (%r12)
	movq	%rax, %r13
	testq	%rax, %rax
	je	.L98
	movq	%rax, %rdi
	call	strlen@PLT
	movq	%rax, 8(%rsp)
	movq	%rax, %r14
	cmpq	$15, %rax
	ja	.L111
	cmpq	$1, %rax
	jne	.L102
	movzbl	0(%r13), %edx
	movb	%dl, 16(%r12)
.L103:
	movq	%rax, 8(%r12)
	movb	$0, 0(%rbp,%rax)
.L95:
	movq	280(%rsp), %rax
	subq	%fs:40, %rax
	jne	.L112
	addq	$296, %rsp
	.cfi_remember_state
	.cfi_def_cfa_offset 40
	movq	%r12, %rax
	popq	%rbp
	.cfi_def_cfa_offset 32
	popq	%r12
	.cfi_def_cfa_offset 24
	popq	%r13
	.cfi_def_cfa_offset 16
	popq	%r14
	.cfi_def_cfa_offset 8
	ret
	.p2align 4,,10
	.p2align 3
.L111:
	.cfi_restore_state
	leaq	8(%rsp), %rsi
	xorl	%edx, %edx
	movq	%r12, %rdi
	call	_ZNSt7__cxx1112basic_stringIcSt11char_traitsIcESaIcEE9_M_createERmm@PLT
	movq	%rax, (%r12)
	movq	%rax, %rbp
	movq	8(%rsp), %rax
	movq	%rax, 16(%r12)
.L101:
	movq	%rbp, %rdi
	movq	%r14, %rdx
	movq	%r13, %rsi
	call	memcpy@PLT
	movq	8(%rsp), %rax
	movq	(%r12), %rbp
	jmp	.L103
	.p2align 4,,10
	.p2align 3
.L110:
	movq	%rbp, (%rdi)
	xorl	%edx, %edx
	leaq	8(%rsp), %rsi
	movq	$18, 8(%rsp)
	call	_ZNSt7__cxx1112basic_stringIcSt11char_traitsIcESaIcEE9_M_createERmm@PLT
	movq	8(%rsp), %rdx
	movdqa	.LC5(%rip), %xmm0
	movq	%rax, (%r12)
	movq	%rdx, 16(%r12)
	movl	$11876, %edx
	movw	%dx, 16(%rax)
	movups	%xmm0, (%rax)
	movq	8(%rsp), %rax
	movq	(%r12), %rdx
	movq	%rax, 8(%r12)
	movb	$0, (%rdx,%rax)
	jmp	.L95
	.p2align 4,,10
	.p2align 3
.L102:
	testq	%rax, %rax
	je	.L103
	jmp	.L101
.L98:
	leaq	.LC4(%rip), %rdi
	call	_ZSt19__throw_logic_errorPKc@PLT
.L112:
	call	__stack_chk_fail@PLT
	.cfi_endproc
.LFE2995:
	.size	_ZNK4asio6detail15system_category7messageB5cxx11Ei, .-_ZNK4asio6detail15system_category7messageB5cxx11Ei
	.section	.text._ZNK4asio5error6detail17addrinfo_category7messageB5cxx11Ei,"axG",@progbits,_ZNK4asio5error6detail17addrinfo_category7messageB5cxx11Ei,comdat
	.align 2
	.p2align 4
	.weak	_ZNK4asio5error6detail17addrinfo_category7messageB5cxx11Ei
	.type	_ZNK4asio5error6detail17addrinfo_category7messageB5cxx11Ei, @function
_ZNK4asio5error6detail17addrinfo_category7messageB5cxx11Ei:
.LFB3041:
	.cfi_startproc
	endbr64
	pushq	%r12
	.cfi_def_cfa_offset 16
	.cfi_offset 12, -16
	movq	%rdi, %r12
	subq	$16, %rsp
	.cfi_def_cfa_offset 32
	movq	%fs:40, %rax
	movq	%rax, 8(%rsp)
	xorl	%eax, %eax
	leaq	16(%rdi), %rax
	movq	%rax, (%rdi)
	cmpl	$-8, %edx
	je	.L119
	cmpl	$-7, %edx
	je	.L120
	xorl	%edx, %edx
	movq	%rsp, %rsi
	movq	$19, (%rsp)
	call	_ZNSt7__cxx1112basic_stringIcSt11char_traitsIcESaIcEE9_M_createERmm@PLT
	movq	(%rsp), %rdx
	movdqa	.LC8(%rip), %xmm0
	movq	%rax, (%r12)
	movq	%rdx, 16(%r12)
	movl	$28530, %edx
	movw	%dx, 16(%rax)
	movb	$114, 18(%rax)
	movups	%xmm0, (%rax)
	movq	(%rsp), %rax
	movq	(%r12), %rdx
	movq	%rax, 8(%r12)
	movb	$0, (%rdx,%rax)
.L113:
	movq	8(%rsp), %rax
	subq	%fs:40, %rax
	jne	.L121
	addq	$16, %rsp
	.cfi_remember_state
	.cfi_def_cfa_offset 16
	movq	%r12, %rax
	popq	%r12
	.cfi_def_cfa_offset 8
	ret
	.p2align 4,,10
	.p2align 3
.L120:
	.cfi_restore_state
	xorl	%edx, %edx
	movq	%rsp, %rsi
	movq	$25, (%rsp)
	call	_ZNSt7__cxx1112basic_stringIcSt11char_traitsIcESaIcEE9_M_createERmm@PLT
	movq	(%rsp), %rdx
	movdqa	.LC7(%rip), %xmm0
	movabsq	$7310593918082512243, %rcx
	movq	%rax, (%r12)
	movq	%rdx, 16(%r12)
	movq	%rcx, 16(%rax)
	movb	$100, 24(%rax)
	movups	%xmm0, (%rax)
	movq	(%rsp), %rax
	movq	(%r12), %rdx
	movq	%rax, 8(%r12)
	movb	$0, (%rdx,%rax)
	jmp	.L113
	.p2align 4,,10
	.p2align 3
.L119:
	xorl	%edx, %edx
	movq	%rsp, %rsi
	movq	$17, (%rsp)
	call	_ZNSt7__cxx1112basic_stringIcSt11char_traitsIcESaIcEE9_M_createERmm@PLT
	movq	(%rsp), %rdx
	movdqa	.LC6(%rip), %xmm0
	movq	%rax, (%r12)
	movq	%rdx, 16(%r12)
	movb	$100, 16(%rax)
	movups	%xmm0, (%rax)
	movq	(%rsp), %rax
	movq	(%r12), %rdx
	movq	%rax, 8(%r12)
	movb	$0, (%rdx,%rax)
	jmp	.L113
.L121:
	call	__stack_chk_fail@PLT
	.cfi_endproc
.LFE3041:
	.size	_ZNK4asio5error6detail17addrinfo_category7messageB5cxx11Ei, .-_ZNK4asio5error6detail17addrinfo_category7messageB5cxx11Ei
	.section	.text._ZNK4asio5error6detail13misc_category7messageB5cxx11Ei,"axG",@progbits,_ZNK4asio5error6detail13misc_category7messageB5cxx11Ei,comdat
	.align 2
	.p2align 4
	.weak	_ZNK4asio5error6detail13misc_category7messageB5cxx11Ei
	.type	_ZNK4asio5error6detail13misc_category7messageB5cxx11Ei, @function
_ZNK4asio5error6detail13misc_category7messageB5cxx11Ei:
.LFB3047:
	.cfi_startproc
	endbr64
	pushq	%r12
	.cfi_def_cfa_offset 16
	.cfi_offset 12, -16
	movq	%rdi, %r12
	subq	$16, %rsp
	.cfi_def_cfa_offset 32
	movq	%fs:40, %rax
	movq	%rax, 8(%rsp)
	xorl	%eax, %eax
	leaq	16(%rdi), %rax
	movq	%rax, (%rdi)
	cmpl	$1, %edx
	je	.L130
	cmpl	$2, %edx
	je	.L131
	cmpl	$3, %edx
	je	.L132
	cmpl	$4, %edx
	je	.L133
	movabsq	$8316298233121436513, %rcx
	movl	$28530, %edx
	movq	%rcx, 16(%rdi)
	movl	$1919230051, 8(%rax)
	movw	%dx, 12(%rax)
	movb	$114, 14(%rax)
	movq	$15, 8(%rdi)
	movb	$0, 31(%rdi)
.L122:
	movq	8(%rsp), %rax
	subq	%fs:40, %rax
	jne	.L134
	addq	$16, %rsp
	.cfi_remember_state
	.cfi_def_cfa_offset 16
	movq	%r12, %rax
	popq	%r12
	.cfi_def_cfa_offset 8
	ret
	.p2align 4,,10
	.p2align 3
.L130:
	.cfi_restore_state
	movabsq	$2340011850872286273, %rcx
	movq	%rcx, 16(%rdi)
	movl	$1852141679, 8(%rax)
	movq	$12, 8(%rdi)
	movb	$0, 28(%rdi)
	jmp	.L122
	.p2align 4,,10
	.p2align 3
.L133:
	movq	%rsp, %rsi
	xorl	%edx, %edx
	movq	$57, (%rsp)
	call	_ZNSt7__cxx1112basic_stringIcSt11char_traitsIcESaIcEE9_M_createERmm@PLT
	movq	(%rsp), %rdx
	movdqa	.LC10(%rip), %xmm0
	movabsq	$7310291504967217959, %rsi
	movq	%rax, (%r12)
	movq	%rdx, 16(%r12)
	movups	%xmm0, (%rax)
	movdqa	.LC11(%rip), %xmm0
	movq	%rsi, 48(%rax)
	movups	%xmm0, 16(%rax)
	movdqa	.LC12(%rip), %xmm0
	movb	$116, 56(%rax)
	movups	%xmm0, 32(%rax)
	movq	(%rsp), %rax
	movq	(%r12), %rdx
	movq	%rax, 8(%r12)
	movb	$0, (%rdx,%rax)
	jmp	.L122
	.p2align 4,,10
	.p2align 3
.L131:
	movabsq	$7358994418594246213, %rcx
	movq	%rcx, 16(%rdi)
	movl	$27753, %ecx
	movw	%cx, 8(%rax)
	movb	$101, 10(%rax)
	movq	$11, 8(%rdi)
	movb	$0, 27(%rdi)
	jmp	.L122
	.p2align 4,,10
	.p2align 3
.L132:
	xorl	%edx, %edx
	movq	%rsp, %rsi
	movq	$17, (%rsp)
	call	_ZNSt7__cxx1112basic_stringIcSt11char_traitsIcESaIcEE9_M_createERmm@PLT
	movq	(%rsp), %rdx
	movdqa	.LC9(%rip), %xmm0
	movq	%rax, (%r12)
	movq	%rdx, 16(%r12)
	movb	$100, 16(%rax)
	movups	%xmm0, (%rax)
	movq	(%rsp), %rax
	movq	(%r12), %rdx
	movq	%rax, 8(%r12)
	movb	$0, (%rdx,%rax)
	jmp	.L122
.L134:
	call	__stack_chk_fail@PLT
	.cfi_endproc
.LFE3047:
	.size	_ZNK4asio5error6detail13misc_category7messageB5cxx11Ei, .-_ZNK4asio5error6detail13misc_category7messageB5cxx11Ei
	.section	.text._ZNK4asio5error6detail14netdb_category7messageB5cxx11Ei,"axG",@progbits,_ZNK4asio5error6detail14netdb_category7messageB5cxx11Ei,comdat
	.align 2
	.p2align 4
	.weak	_ZNK4asio5error6detail14netdb_category7messageB5cxx11Ei
	.type	_ZNK4asio5error6detail14netdb_category7messageB5cxx11Ei, @function
_ZNK4asio5error6detail14netdb_category7messageB5cxx11Ei:
.LFB3035:
	.cfi_startproc
	endbr64
	pushq	%r12
	.cfi_def_cfa_offset 16
	.cfi_offset 12, -16
	movq	%rdi, %r12
	subq	$16, %rsp
	.cfi_def_cfa_offset 32
	movq	%fs:40, %rax
	movq	%rax, 8(%rsp)
	xorl	%eax, %eax
	leaq	16(%rdi), %rax
	movq	%rax, (%rdi)
	cmpl	$1, %edx
	je	.L143
	cmpl	$2, %edx
	je	.L144
	cmpl	$4, %edx
	je	.L145
	cmpl	$3, %edx
	je	.L146
	xorl	%edx, %edx
	movq	%rsp, %rsi
	movq	$16, (%rsp)
	call	_ZNSt7__cxx1112basic_stringIcSt11char_traitsIcESaIcEE9_M_createERmm@PLT
	movq	(%rsp), %rdx
	movdqa	.LC22(%rip), %xmm0
	movq	%rax, (%r12)
	movq	%rdx, 16(%r12)
	movups	%xmm0, (%rax)
	movq	(%rsp), %rax
	movq	(%r12), %rdx
	movq	%rax, 8(%r12)
	movb	$0, (%rdx,%rax)
.L135:
	movq	8(%rsp), %rax
	subq	%fs:40, %rax
	jne	.L147
	addq	$16, %rsp
	.cfi_remember_state
	.cfi_def_cfa_offset 16
	movq	%r12, %rax
	popq	%r12
	.cfi_def_cfa_offset 8
	ret
	.p2align 4,,10
	.p2align 3
.L143:
	.cfi_restore_state
	movq	%rsp, %rsi
	xorl	%edx, %edx
	movq	$30, (%rsp)
	call	_ZNSt7__cxx1112basic_stringIcSt11char_traitsIcESaIcEE9_M_createERmm@PLT
	movq	(%rsp), %rdx
	movl	$10597, %esi
	movdqa	.LC13(%rip), %xmm0
	movabsq	$8388361603773658465, %rcx
	movq	%rax, (%r12)
	movq	%rdx, 16(%r12)
	movq	%rcx, 16(%rax)
	movl	$1986622561, 24(%rax)
	movw	%si, 28(%rax)
	movups	%xmm0, (%rax)
	movq	(%rsp), %rax
	movq	(%r12), %rdx
	movq	%rax, 8(%r12)
	movb	$0, (%rdx,%rax)
	jmp	.L135
	.p2align 4,,10
	.p2align 3
.L146:
	xorl	%edx, %edx
	movq	%rsp, %rsi
	movq	$55, (%rsp)
	call	_ZNSt7__cxx1112basic_stringIcSt11char_traitsIcESaIcEE9_M_createERmm@PLT
	movq	(%rsp), %rdx
	movdqa	.LC19(%rip), %xmm0
	movq	%rax, (%r12)
	movq	%rdx, 16(%r12)
	movl	$30059, %edx
	movups	%xmm0, (%rax)
	movdqa	.LC20(%rip), %xmm0
	movl	$1869573152, 48(%rax)
	movups	%xmm0, 16(%rax)
	movdqa	.LC21(%rip), %xmm0
	movw	%dx, 52(%rax)
	movb	$112, 54(%rax)
	movups	%xmm0, 32(%rax)
	movq	(%rsp), %rax
	movq	(%r12), %rdx
	movq	%rax, 8(%r12)
	movb	$0, (%rdx,%rax)
	jmp	.L135
	.p2align 4,,10
	.p2align 3
.L144:
	xorl	%edx, %edx
	movq	%rsp, %rsi
	movq	$51, (%rsp)
	call	_ZNSt7__cxx1112basic_stringIcSt11char_traitsIcESaIcEE9_M_createERmm@PLT
	movq	(%rsp), %rdx
	movl	$25972, %ecx
	movdqa	.LC13(%rip), %xmm0
	movq	%rax, (%r12)
	movq	%rdx, 16(%r12)
	movups	%xmm0, (%rax)
	movdqa	.LC14(%rip), %xmm0
	movw	%cx, 48(%rax)
	movups	%xmm0, 16(%rax)
	movdqa	.LC15(%rip), %xmm0
	movb	$114, 50(%rax)
	movups	%xmm0, 32(%rax)
	movq	(%rsp), %rax
	movq	(%r12), %rdx
	movq	%rax, 8(%r12)
	movb	$0, (%rdx,%rax)
	jmp	.L135
	.p2align 4,,10
	.p2align 3
.L145:
	xorl	%edx, %edx
	movq	%rsp, %rsi
	movq	$56, (%rsp)
	call	_ZNSt7__cxx1112basic_stringIcSt11char_traitsIcESaIcEE9_M_createERmm@PLT
	movq	(%rsp), %rdx
	movdqa	.LC16(%rip), %xmm0
	movabsq	$7022344801645520244, %rcx
	movq	%rax, (%r12)
	movq	%rdx, 16(%r12)
	movups	%xmm0, (%rax)
	movdqa	.LC17(%rip), %xmm0
	movq	%rcx, 48(%rax)
	movups	%xmm0, 16(%rax)
	movdqa	.LC18(%rip), %xmm0
	movups	%xmm0, 32(%rax)
	movq	(%rsp), %rax
	movq	(%r12), %rdx
	movq	%rax, 8(%r12)
	movb	$0, (%rdx,%rax)
	jmp	.L135
.L147:
	call	__stack_chk_fail@PLT
	.cfi_endproc
.LFE3035:
	.size	_ZNK4asio5error6detail14netdb_category7messageB5cxx11Ei, .-_ZNK4asio5error6detail14netdb_category7messageB5cxx11Ei
	.section	.text.unlikely,"ax",@progbits
	.align 2
	.type	_ZZZN8asiodnp318TCPClientIOHandler12StartConnectERKSt10shared_ptrIN7asiopal9TCPClientEERKN7openpal12TimeDurationEENKUlRKS1_INS2_8ExecutorEEN4asio19basic_stream_socketINSF_2ip3tcpENSF_21stream_socket_serviceISI_EEEERKSt10error_codeE_clESE_SL_SO_ENUlvE_D2Ev, @function
_ZZZN8asiodnp318TCPClientIOHandler12StartConnectERKSt10shared_ptrIN7asiopal9TCPClientEERKN7openpal12TimeDurationEENKUlRKS1_INS2_8ExecutorEEN4asio19basic_stream_socketINSF_2ip3tcpENSF_21stream_socket_serviceISI_EEEERKSt10error_codeE_clESE_SL_SO_ENUlvE_D2Ev:
.LFB7764:
	.cfi_startproc
	pushq	%r12
	.cfi_def_cfa_offset 16
	.cfi_offset 12, -16
	pushq	%rbp
	.cfi_def_cfa_offset 24
	.cfi_offset 6, -24
	pushq	%rbx
	.cfi_def_cfa_offset 32
	.cfi_offset 3, -32
	movq	32(%rdi), %rbp
	movq	%rdi, %rbx
	testq	%rbp, %rbp
	je	.L150
	movq	__libc_single_threaded@GOTPCREL(%rip), %r12
	cmpb	$0, (%r12)
	je	.L151
	movl	8(%rbp), %eax
	leal	-1(%rax), %edx
	movl	%edx, 8(%rbp)
	jmp	.L152
.L151:
	orl	$-1, %eax
	lock xaddl	%eax, 8(%rbp)
.L152:
	decl	%eax
	jne	.L150
	movq	0(%rbp), %rax
	movq	%rbp, %rdi
	call	*16(%rax)
	cmpb	$0, (%r12)
	je	.L154
	movl	12(%rbp), %eax
	leal	-1(%rax), %edx
	movl	%edx, 12(%rbp)
	jmp	.L155
.L154:
	orl	$-1, %eax
	lock xaddl	%eax, 12(%rbp)
.L155:
	decl	%eax
	jne	.L150
	movq	0(%rbp), %rax
	movq	%rbp, %rdi
	call	*24(%rax)
.L150:
	movq	8(%rbx), %rbp
	testq	%rbp, %rbp
	je	.L148
	movq	__libc_single_threaded@GOTPCREL(%rip), %rbx
	cmpb	$0, (%rbx)
	je	.L158
	movl	8(%rbp), %eax
	leal	-1(%rax), %edx
	movl	%edx, 8(%rbp)
	jmp	.L159
.L158:
	orl	$-1, %eax
	lock xaddl	%eax, 8(%rbp)
.L159:
	decl	%eax
	jne	.L148
	movq	0(%rbp), %rax
	movq	%rbp, %rdi
	call	*16(%rax)
	cmpb	$0, (%rbx)
	je	.L161
	movl	12(%rbp), %eax
	leal	-1(%rax), %edx
	movl	%edx, 12(%rbp)
	jmp	.L162
.L161:
	orl	$-1, %eax
	lock xaddl	%eax, 12(%rbp)
.L162:
	decl	%eax
	jne	.L148
	movq	0(%rbp), %rax
	popq	%rbx
	.cfi_remember_state
	.cfi_def_cfa_offset 24
	movq	%rbp, %rdi
	popq	%rbp
	.cfi_def_cfa_offset 16
	popq	%r12
	.cfi_def_cfa_offset 8
	movq	24(%rax), %rax
	jmp	*%rax
.L148:
	.cfi_restore_state
	popq	%rbx
	.cfi_def_cfa_offset 24
	popq	%rbp
	.cfi_def_cfa_offset 16
	popq	%r12
	.cfi_def_cfa_offset 8
	ret
	.cfi_endproc
.LFE7764:
	.size	_ZZZN8asiodnp318TCPClientIOHandler12StartConnectERKSt10shared_ptrIN7asiopal9TCPClientEERKN7openpal12TimeDurationEENKUlRKS1_INS2_8ExecutorEEN4asio19basic_stream_socketINSF_2ip3tcpENSF_21stream_socket_serviceISI_EEEERKSt10error_codeE_clESE_SL_SO_ENUlvE_D2Ev, .-_ZZZN8asiodnp318TCPClientIOHandler12StartConnectERKSt10shared_ptrIN7asiopal9TCPClientEERKN7openpal12TimeDurationEENKUlRKS1_INS2_8ExecutorEEN4asio19basic_stream_socketINSF_2ip3tcpENSF_21stream_socket_serviceISI_EEEERKSt10error_codeE_clESE_SL_SO_ENUlvE_D2Ev
	.set	_ZZZN8asiodnp318TCPClientIOHandler12StartConnectERKSt10shared_ptrIN7asiopal9TCPClientEERKN7openpal12TimeDurationEENKUlRKS1_INS2_8ExecutorEEN4asio19basic_stream_socketINSF_2ip3tcpENSF_21stream_socket_serviceISI_EEEERKSt10error_codeE_clESE_SL_SO_ENUlvE_D1Ev,_ZZZN8asiodnp318TCPClientIOHandler12StartConnectERKSt10shared_ptrIN7asiopal9TCPClientEERKN7openpal12TimeDurationEENKUlRKS1_INS2_8ExecutorEEN4asio19basic_stream_socketINSF_2ip3tcpENSF_21stream_socket_serviceISI_EEEERKSt10error_codeE_clESE_SL_SO_ENUlvE_D2Ev
	.text
	.p2align 4
	.type	_ZNSt17_Function_handlerIFvRKSt10shared_ptrIN7asiopal8ExecutorEEN4asio19basic_stream_socketINS6_2ip3tcpENS6_21stream_socket_serviceIS9_EEEERKSt10error_codeEZN8asiodnp318TCPClientIOHandler12StartConnectERKS0_INS1_9TCPClientEERKN7openpal12TimeDurationEEUlS5_SC_SF_E_E10_M_managerERSt9_Any_dataRKST_St18_Manager_operation, @function
_ZNSt17_Function_handlerIFvRKSt10shared_ptrIN7asiopal8ExecutorEEN4asio19basic_stream_socketINS6_2ip3tcpENS6_21stream_socket_serviceIS9_EEEERKSt10error_codeEZN8asiodnp318TCPClientIOHandler12StartConnectERKS0_INS1_9TCPClientEERKN7openpal12TimeDurationEEUlS5_SC_SF_E_E10_M_managerERSt9_Any_dataRKST_St18_Manager_operation:
.LFB9187:
	.cfi_startproc
	endbr64
	pushq	%r12
	.cfi_def_cfa_offset 16
	.cfi_offset 12, -16
	pushq	%rbp
	.cfi_def_cfa_offset 24
	.cfi_offset 6, -24
	pushq	%rbx
	.cfi_def_cfa_offset 32
	.cfi_offset 3, -32
	movq	%rdi, %rbx
	testl	%edx, %edx
	je	.L165
	cmpl	$1, %edx
	je	.L166
	cmpl	$2, %edx
	je	.L169
	cmpl	$3, %edx
	jne	.L168
	movq	(%rdi), %rbp
	testq	%rbp, %rbp
	je	.L168
	movq	40(%rbp), %r12
	testq	%r12, %r12
	je	.L176
	movq	__libc_single_threaded@GOTPCREL(%rip), %rbx
	cmpb	$0, (%rbx)
	je	.L177
	movl	8(%r12), %eax
	leal	-1(%rax), %edx
	movl	%edx, 8(%r12)
.L178:
	cmpl	$1, %eax
	je	.L200
.L176:
	movq	8(%rbp), %r12
	testq	%r12, %r12
	je	.L183
	movq	__libc_single_threaded@GOTPCREL(%rip), %rbx
	cmpb	$0, (%rbx)
	je	.L184
	movl	8(%r12), %eax
	leal	-1(%rax), %edx
	movl	%edx, 8(%r12)
.L185:
	cmpl	$1, %eax
	je	.L201
.L183:
	movl	$48, %esi
	movq	%rbp, %rdi
	call	_ZdlPvm@PLT
.L168:
	popq	%rbx
	.cfi_remember_state
	.cfi_def_cfa_offset 24
	xorl	%eax, %eax
	popq	%rbp
	.cfi_def_cfa_offset 16
	popq	%r12
	.cfi_def_cfa_offset 8
	ret
	.p2align 4,,10
	.p2align 3
.L165:
	.cfi_restore_state
	leaq	_ZTIZN8asiodnp318TCPClientIOHandler12StartConnectERKSt10shared_ptrIN7asiopal9TCPClientEERKN7openpal12TimeDurationEEUlRKS1_INS2_8ExecutorEEN4asio19basic_stream_socketINSF_2ip3tcpENSF_21stream_socket_serviceISI_EEEERKSt10error_codeE_(%rip), %rax
	movq	%rax, (%rdi)
	xorl	%eax, %eax
	popq	%rbx
	.cfi_remember_state
	.cfi_def_cfa_offset 24
	popq	%rbp
	.cfi_def_cfa_offset 16
	popq	%r12
	.cfi_def_cfa_offset 8
	ret
	.p2align 4,,10
	.p2align 3
.L166:
	.cfi_restore_state
	movq	(%rsi), %rax
	movq	%rax, (%rdi)
	xorl	%eax, %eax
	popq	%rbx
	.cfi_remember_state
	.cfi_def_cfa_offset 24
	popq	%rbp
	.cfi_def_cfa_offset 16
	popq	%r12
	.cfi_def_cfa_offset 8
	ret
	.p2align 4,,10
	.p2align 3
.L169:
	.cfi_restore_state
	movq	(%rsi), %rbp
	movl	$48, %edi
	call	_Znwm@PLT
	movdqu	0(%rbp), %xmm0
	movq	8(%rbp), %rdx
	movups	%xmm0, (%rax)
	testq	%rdx, %rdx
	je	.L171
	movq	__libc_single_threaded@GOTPCREL(%rip), %rcx
	cmpb	$0, (%rcx)
	je	.L172
	addl	$1, 8(%rdx)
.L171:
	movq	16(%rbp), %rdx
	movq	%rdx, 16(%rax)
	movq	24(%rbp), %rdx
	movq	%rdx, 24(%rax)
	movdqu	32(%rbp), %xmm1
	movups	%xmm1, 32(%rax)
	movq	40(%rax), %rdx
	testq	%rdx, %rdx
	je	.L173
	movq	__libc_single_threaded@GOTPCREL(%rip), %rcx
	cmpb	$0, (%rcx)
	je	.L174
	addl	$1, 8(%rdx)
.L173:
	movq	%rax, (%rbx)
	jmp	.L168
	.p2align 4,,10
	.p2align 3
.L174:
	lock addl	$1, 8(%rdx)
	jmp	.L173
	.p2align 4,,10
	.p2align 3
.L172:
	lock addl	$1, 8(%rdx)
	jmp	.L171
.L201:
	movq	(%r12), %rax
	movq	%r12, %rdi
	call	*16(%rax)
	cmpb	$0, (%rbx)
	je	.L187
	movl	12(%r12), %eax
	leal	-1(%rax), %edx
	movl	%edx, 12(%r12)
.L188:
	cmpl	$1, %eax
	jne	.L183
	movq	(%r12), %rax
	movq	%r12, %rdi
	call	*24(%rax)
	jmp	.L183
.L200:
	movq	(%r12), %rax
	movq	%r12, %rdi
	call	*16(%rax)
	cmpb	$0, (%rbx)
	je	.L180
	movl	12(%r12), %eax
	leal	-1(%rax), %edx
	movl	%edx, 12(%r12)
.L181:
	cmpl	$1, %eax
	jne	.L176
	movq	(%r12), %rax
	movq	%r12, %rdi
	call	*24(%rax)
	jmp	.L176
.L184:
	movl	$-1, %eax
	lock xaddl	%eax, 8(%r12)
	jmp	.L185
.L177:
	movl	$-1, %eax
	lock xaddl	%eax, 8(%r12)
	jmp	.L178
.L180:
	movl	$-1, %eax
	lock xaddl	%eax, 12(%r12)
	jmp	.L181
.L187:
	movl	$-1, %eax
	lock xaddl	%eax, 12(%r12)
	jmp	.L188
	.cfi_endproc
.LFE9187:
	.size	_ZNSt17_Function_handlerIFvRKSt10shared_ptrIN7asiopal8ExecutorEEN4asio19basic_stream_socketINS6_2ip3tcpENS6_21stream_socket_serviceIS9_EEEERKSt10error_codeEZN8asiodnp318TCPClientIOHandler12StartConnectERKS0_INS1_9TCPClientEERKN7openpal12TimeDurationEEUlS5_SC_SF_E_E10_M_managerERSt9_Any_dataRKST_St18_Manager_operation, .-_ZNSt17_Function_handlerIFvRKSt10shared_ptrIN7asiopal8ExecutorEEN4asio19basic_stream_socketINS6_2ip3tcpENS6_21stream_socket_serviceIS9_EEEERKSt10error_codeEZN8asiodnp318TCPClientIOHandler12StartConnectERKS0_INS1_9TCPClientEERKN7openpal12TimeDurationEEUlS5_SC_SF_E_E10_M_managerERSt9_Any_dataRKST_St18_Manager_operation
	.p2align 4
	.type	_ZNSt17_Function_handlerIFvvEZN7openpal8TimerRef5StartIZZN8asiodnp318TCPClientIOHandler12StartConnectERKSt10shared_ptrIN7asiopal9TCPClientEERKNS1_12TimeDurationEENKUlRKS6_INS7_8ExecutorEEN4asio19basic_stream_socketINSJ_2ip3tcpENSJ_21stream_socket_serviceISM_EEEERKSt10error_codeE_clESI_SP_SS_EUlvE_EEbSE_RKT_EUlvE_E10_M_managerERSt9_Any_dataRKS10_St18_Manager_operation, @function
_ZNSt17_Function_handlerIFvvEZN7openpal8TimerRef5StartIZZN8asiodnp318TCPClientIOHandler12StartConnectERKSt10shared_ptrIN7asiopal9TCPClientEERKNS1_12TimeDurationEENKUlRKS6_INS7_8ExecutorEEN4asio19basic_stream_socketINSJ_2ip3tcpENSJ_21stream_socket_serviceISM_EEEERKSt10error_codeE_clESI_SP_SS_EUlvE_EEbSE_RKT_EUlvE_E10_M_managerERSt9_Any_dataRKS10_St18_Manager_operation:
.LFB9514:
	.cfi_startproc
	endbr64
	pushq	%r12
	.cfi_def_cfa_offset 16
	.cfi_offset 12, -16
	pushq	%rbp
	.cfi_def_cfa_offset 24
	.cfi_offset 6, -24
	pushq	%rbx
	.cfi_def_cfa_offset 32
	.cfi_offset 3, -32
	movq	%rdi, %rbx
	testl	%edx, %edx
	je	.L203
	cmpl	$1, %edx
	je	.L204
	cmpl	$2, %edx
	je	.L207
	cmpl	$3, %edx
	jne	.L206
	movq	(%rdi), %rbp
	testq	%rbp, %rbp
	je	.L206
	movq	40(%rbp), %r12
	testq	%r12, %r12
	je	.L214
	movq	__libc_single_threaded@GOTPCREL(%rip), %rbx
	cmpb	$0, (%rbx)
	je	.L215
	movl	8(%r12), %eax
	leal	-1(%rax), %edx
	movl	%edx, 8(%r12)
.L216:
	cmpl	$1, %eax
	je	.L238
.L214:
	movq	16(%rbp), %r12
	testq	%r12, %r12
	je	.L221
	movq	__libc_single_threaded@GOTPCREL(%rip), %rbx
	cmpb	$0, (%rbx)
	je	.L222
	movl	8(%r12), %eax
	leal	-1(%rax), %edx
	movl	%edx, 8(%r12)
.L223:
	cmpl	$1, %eax
	je	.L239
.L221:
	movl	$56, %esi
	movq	%rbp, %rdi
	call	_ZdlPvm@PLT
.L206:
	popq	%rbx
	.cfi_remember_state
	.cfi_def_cfa_offset 24
	xorl	%eax, %eax
	popq	%rbp
	.cfi_def_cfa_offset 16
	popq	%r12
	.cfi_def_cfa_offset 8
	ret
	.p2align 4,,10
	.p2align 3
.L203:
	.cfi_restore_state
	leaq	_ZTIZN7openpal8TimerRef5StartIZZN8asiodnp318TCPClientIOHandler12StartConnectERKSt10shared_ptrIN7asiopal9TCPClientEERKNS_12TimeDurationEENKUlRKS4_INS5_8ExecutorEEN4asio19basic_stream_socketINSH_2ip3tcpENSH_21stream_socket_serviceISK_EEEERKSt10error_codeE_clESG_SN_SQ_EUlvE_EEbSC_RKT_EUlvE_(%rip), %rax
	movq	%rax, (%rdi)
	xorl	%eax, %eax
	popq	%rbx
	.cfi_remember_state
	.cfi_def_cfa_offset 24
	popq	%rbp
	.cfi_def_cfa_offset 16
	popq	%r12
	.cfi_def_cfa_offset 8
	ret
	.p2align 4,,10
	.p2align 3
.L204:
	.cfi_restore_state
	movq	(%rsi), %rax
	movq	%rax, (%rdi)
	xorl	%eax, %eax
	popq	%rbx
	.cfi_remember_state
	.cfi_def_cfa_offset 24
	popq	%rbp
	.cfi_def_cfa_offset 16
	popq	%r12
	.cfi_def_cfa_offset 8
	ret
	.p2align 4,,10
	.p2align 3
.L207:
	.cfi_restore_state
	movq	(%rsi), %rbp
	movl	$56, %edi
	call	_Znwm@PLT
	movq	0(%rbp), %rdx
	movq	%rdx, (%rax)
	movq	8(%rbp), %rdx
	movq	%rdx, 8(%rax)
	movq	16(%rbp), %rdx
	movq	%rdx, 16(%rax)
	testq	%rdx, %rdx
	je	.L209
	movq	__libc_single_threaded@GOTPCREL(%rip), %rcx
	cmpb	$0, (%rcx)
	je	.L210
	addl	$1, 8(%rdx)
.L209:
	movq	24(%rbp), %rdx
	movq	%rdx, 24(%rax)
	movdqu	32(%rbp), %xmm0
	movq	40(%rbp), %rdx
	movups	%xmm0, 32(%rax)
	testq	%rdx, %rdx
	je	.L211
	movq	__libc_single_threaded@GOTPCREL(%rip), %rcx
	cmpb	$0, (%rcx)
	je	.L212
	addl	$1, 8(%rdx)
.L211:
	movq	48(%rbp), %rdx
	movq	%rdx, 48(%rax)
	movq	%rax, (%rbx)
	jmp	.L206
	.p2align 4,,10
	.p2align 3
.L212:
	lock addl	$1, 8(%rdx)
	jmp	.L211
	.p2align 4,,10
	.p2align 3
.L210:
	lock addl	$1, 8(%rdx)
	jmp	.L209
.L239:
	movq	(%r12), %rax
	movq	%r12, %rdi
	call	*16(%rax)
	cmpb	$0, (%rbx)
	je	.L225
	movl	12(%r12), %eax
	leal	-1(%rax), %edx
	movl	%edx, 12(%r12)
.L226:
	cmpl	$1, %eax
	jne	.L221
	movq	(%r12), %rax
	movq	%r12, %rdi
	call	*24(%rax)
	jmp	.L221
.L238:
	movq	(%r12), %rax
	movq	%r12, %rdi
	call	*16(%rax)
	cmpb	$0, (%rbx)
	je	.L218
	movl	12(%r12), %eax
	leal	-1(%rax), %edx
	movl	%edx, 12(%r12)
.L219:
	cmpl	$1, %eax
	jne	.L214
	movq	(%r12), %rax
	movq	%r12, %rdi
	call	*24(%rax)
	jmp	.L214
.L222:
	movl	$-1, %eax
	lock xaddl	%eax, 8(%r12)
	jmp	.L223
.L215:
	movl	$-1, %eax
	lock xaddl	%eax, 8(%r12)
	jmp	.L216
.L218:
	movl	$-1, %eax
	lock xaddl	%eax, 12(%r12)
	jmp	.L219
.L225:
	movl	$-1, %eax
	lock xaddl	%eax, 12(%r12)
	jmp	.L226
	.cfi_endproc
.LFE9514:
	.size	_ZNSt17_Function_handlerIFvvEZN7openpal8TimerRef5StartIZZN8asiodnp318TCPClientIOHandler12StartConnectERKSt10shared_ptrIN7asiopal9TCPClientEERKNS1_12TimeDurationEENKUlRKS6_INS7_8ExecutorEEN4asio19basic_stream_socketINSJ_2ip3tcpENSJ_21stream_socket_serviceISM_EEEERKSt10error_codeE_clESI_SP_SS_EUlvE_EEbSE_RKT_EUlvE_E10_M_managerERSt9_Any_dataRKS10_St18_Manager_operation, .-_ZNSt17_Function_handlerIFvvEZN7openpal8TimerRef5StartIZZN8asiodnp318TCPClientIOHandler12StartConnectERKSt10shared_ptrIN7asiopal9TCPClientEERKNS1_12TimeDurationEENKUlRKS6_INS7_8ExecutorEEN4asio19basic_stream_socketINSJ_2ip3tcpENSJ_21stream_socket_serviceISM_EEEERKSt10error_codeE_clESI_SP_SS_EUlvE_EEbSE_RKT_EUlvE_E10_M_managerERSt9_Any_dataRKS10_St18_Manager_operation
	.section	.text._ZN4asio15system_categoryEv,"axG",@progbits,_ZN4asio15system_categoryEv,comdat
	.p2align 4
	.weak	_ZN4asio15system_categoryEv
	.type	_ZN4asio15system_categoryEv, @function
_ZN4asio15system_categoryEv:
.LFB2998:
	.cfi_startproc
	endbr64
	pushq	%r12
	.cfi_def_cfa_offset 16
	.cfi_offset 12, -16
	pushq	%rbp
	.cfi_def_cfa_offset 24
	.cfi_offset 6, -24
	subq	$8, %rsp
	.cfi_def_cfa_offset 32
	movq	_ZGVZN4asio15system_categoryEvE8instance@GOTPCREL(%rip), %rbp
	movzbl	0(%rbp), %eax
	testb	%al, %al
	je	.L241
.L248:
	movq	_ZZN4asio15system_categoryEvE8instance@GOTPCREL(%rip), %r12
	addq	$8, %rsp
	.cfi_remember_state
	.cfi_def_cfa_offset 24
	popq	%rbp
	.cfi_def_cfa_offset 16
	movq	%r12, %rax
	popq	%r12
	.cfi_def_cfa_offset 8
	ret
	.p2align 4,,10
	.p2align 3
.L241:
	.cfi_restore_state
	movq	%rbp, %rdi
	call	__cxa_guard_acquire@PLT
	testl	%eax, %eax
	je	.L248
	movq	_ZZN4asio15system_categoryEvE8instance@GOTPCREL(%rip), %r12
	movq	_ZN4asio6detail15system_categoryD1Ev@GOTPCREL(%rip), %rdi
	leaq	__dso_handle(%rip), %rdx
	movq	%r12, %rsi
	call	__cxa_atexit@PLT
	movq	%rbp, %rdi
	call	__cxa_guard_release@PLT
	addq	$8, %rsp
	.cfi_def_cfa_offset 24
	movq	%r12, %rax
	popq	%rbp
	.cfi_def_cfa_offset 16
	popq	%r12
	.cfi_def_cfa_offset 8
	ret
	.cfi_endproc
.LFE2998:
	.size	_ZN4asio15system_categoryEv, .-_ZN4asio15system_categoryEv
	.section	.text._ZN4asio6detail28reactive_socket_service_base7destroyERNS1_24base_implementation_typeE,"axG",@progbits,_ZN4asio6detail28reactive_socket_service_base7destroyERNS1_24base_implementation_typeE,comdat
	.align 2
	.p2align 4
	.weak	_ZN4asio6detail28reactive_socket_service_base7destroyERNS1_24base_implementation_typeE
	.type	_ZN4asio6detail28reactive_socket_service_base7destroyERNS1_24base_implementation_typeE, @function
_ZN4asio6detail28reactive_socket_service_base7destroyERNS1_24base_implementation_typeE:
.LFB4471:
	.cfi_startproc
	endbr64
	pushq	%r15
	.cfi_def_cfa_offset 16
	.cfi_offset 15, -16
	pushq	%r14
	.cfi_def_cfa_offset 24
	.cfi_offset 14, -24
	pushq	%r13
	.cfi_def_cfa_offset 32
	.cfi_offset 13, -32
	pushq	%r12
	.cfi_def_cfa_offset 40
	.cfi_offset 12, -40
	pushq	%rbp
	.cfi_def_cfa_offset 48
	.cfi_offset 6, -48
	pushq	%rbx
	.cfi_def_cfa_offset 56
	.cfi_offset 3, -56
	subq	$72, %rsp
	.cfi_def_cfa_offset 128
	movl	(%rsi), %r12d
	movq	%fs:40, %rax
	movq	%rax, 56(%rsp)
	xorl	%eax, %eax
	cmpl	$-1, %r12d
	jne	.L355
.L249:
	movq	56(%rsp), %rax
	subq	%fs:40, %rax
	jne	.L354
	addq	$72, %rsp
	.cfi_remember_state
	.cfi_def_cfa_offset 56
	popq	%rbx
	.cfi_def_cfa_offset 48
	popq	%rbp
	.cfi_def_cfa_offset 40
	popq	%r12
	.cfi_def_cfa_offset 32
	popq	%r13
	.cfi_def_cfa_offset 24
	popq	%r14
	.cfi_def_cfa_offset 16
	popq	%r15
	.cfi_def_cfa_offset 8
	ret
	.p2align 4,,10
	.p2align 3
.L355:
	.cfi_restore_state
	movq	8(%rsi), %rbp
	movq	%rsi, %r15
	testq	%rbp, %rbp
	je	.L280
	movq	(%rdi), %rax
	movzbl	4(%rsi), %ebx
	movq	%rax, 16(%rsp)
	leaq	40(%rbp), %rax
	movq	%rax, %rdi
	movq	%rax, 24(%rsp)
	call	pthread_mutex_lock@PLT
	movq	8(%r15), %rdi
	cmpb	$0, 144(%rdi)
	jne	.L252
	andl	$64, %ebx
	jne	.L356
.L253:
	movq	$0, 8(%rsp)
	xorl	%ebp, %ebp
	movl	$0, 4(%rsp)
.L254:
	movslq	4(%rsp), %r12
	movq	%r12, %rax
	salq	$4, %rax
	movq	96(%rax,%rdi), %rbx
	testq	%rbx, %rbx
	je	.L301
	movq	_ZGVZN4asio15system_categoryEvE8instance@GOTPCREL(%rip), %r14
	movq	_ZZN4asio15system_categoryEvE8instance@GOTPCREL(%rip), %r13
	movzbl	(%r14), %eax
	testb	%al, %al
	je	.L357
	.p2align 4,,10
	.p2align 3
.L256:
	movq	8(%r15), %rdi
	movq	%r12, %rax
	movl	$125, 24(%rbx)
	salq	$4, %rax
	movq	%r13, 32(%rbx)
	addq	%rdi, %rax
	movq	96(%rax), %rdx
	testq	%rdx, %rdx
	je	.L258
	movq	(%rdx), %r11
	movq	%r11, 96(%rax)
	testq	%r11, %r11
	je	.L358
	movq	$0, (%rdx)
	movq	$0, (%rbx)
	testq	%rbp, %rbp
	je	.L359
.L298:
	movq	%rbx, 0(%rbp)
	testq	%r11, %r11
	je	.L260
.L261:
	movzbl	(%r14), %eax
	movq	%rbx, %rbp
	movq	%r11, %rbx
	testb	%al, %al
	jne	.L256
.L357:
	movq	%r14, %rdi
	call	__cxa_guard_acquire@PLT
	testl	%eax, %eax
	je	.L256
	movq	_ZN4asio6detail15system_categoryD1Ev@GOTPCREL(%rip), %rdi
	leaq	__dso_handle(%rip), %rdx
	movq	%r13, %rsi
	call	__cxa_atexit@PLT
	movq	%r14, %rdi
	call	__cxa_guard_release@PLT
	jmp	.L256
	.p2align 4,,10
	.p2align 3
.L252:
	movq	24(%rsp), %rdi
	call	pthread_mutex_unlock@PLT
.L353:
	movl	(%r15), %r12d
	cmpl	$-1, %r12d
	je	.L249
.L280:
	call	__errno_location@PLT
	movzbl	4(%r15), %ebp
	movq	%rax, %rbx
	testb	$8, %bpl
	jne	.L351
	movq	_ZGVZN4asio15system_categoryEvE8instance@GOTPCREL(%rip), %r14
.L282:
	movl	$0, (%rbx)
	movl	%r12d, %edi
	call	close@PLT
	movl	%eax, %ebp
	movzbl	(%r14), %eax
	testb	%al, %al
	je	.L360
.L287:
	movl	(%rbx), %r13d
	testl	%ebp, %ebp
	je	.L249
	movzbl	(%r14), %eax
	testb	%al, %al
	je	.L361
.L291:
	cmpl	$11, %r13d
	je	.L293
	movzbl	(%r14), %eax
	testb	%al, %al
	jne	.L249
	movq	%r14, %rdi
	call	__cxa_guard_acquire@PLT
	testl	%eax, %eax
	je	.L249
	movq	_ZZN4asio15system_categoryEvE8instance@GOTPCREL(%rip), %rsi
	movq	_ZN4asio6detail15system_categoryD1Ev@GOTPCREL(%rip), %rdi
	leaq	__dso_handle(%rip), %rdx
	call	__cxa_atexit@PLT
	movq	56(%rsp), %rax
	subq	%fs:40, %rax
	jne	.L354
	addq	$72, %rsp
	.cfi_remember_state
	.cfi_def_cfa_offset 56
	movq	%r14, %rdi
	popq	%rbx
	.cfi_def_cfa_offset 48
	popq	%rbp
	.cfi_def_cfa_offset 40
	popq	%r12
	.cfi_def_cfa_offset 32
	popq	%r13
	.cfi_def_cfa_offset 24
	popq	%r14
	.cfi_def_cfa_offset 16
	popq	%r15
	.cfi_def_cfa_offset 8
	jmp	__cxa_guard_release@PLT
	.p2align 4,,10
	.p2align 3
.L258:
	.cfi_restore_state
	movq	$0, (%rbx)
	testq	%rbp, %rbp
	je	.L302
	movq	%rbx, 0(%rbp)
.L260:
	addl	$1, 4(%rsp)
	movl	4(%rsp), %eax
	cmpl	$3, %eax
	je	.L262
.L362:
	movq	%rbx, %rbp
	jmp	.L254
	.p2align 4,,10
	.p2align 3
.L358:
	movq	$0, 104(%rax)
	movq	$0, (%rdx)
	movq	$0, (%rbx)
	testq	%rbp, %rbp
	jne	.L298
	.p2align 4,,10
	.p2align 3
.L302:
	addl	$1, 4(%rsp)
	movl	4(%rsp), %eax
	movq	%rbx, 8(%rsp)
	cmpl	$3, %eax
	jne	.L362
.L262:
	movl	$-1, 88(%rdi)
	movb	$1, 144(%rdi)
	movq	24(%rsp), %rdi
	call	pthread_mutex_unlock@PLT
	movq	16(%rsp), %r14
	movq	8(%r15), %rbp
	leaq	120(%r14), %r12
	movq	%r12, %rdi
	call	pthread_mutex_lock@PLT
	cmpq	160(%r14), %rbp
	je	.L363
.L264:
	movq	32(%rbp), %rax
	testq	%rax, %rax
	je	.L265
	movq	24(%rbp), %rdx
	movq	%rdx, 24(%rax)
.L265:
	movq	24(%rbp), %rax
	testq	%rax, %rax
	je	.L266
	movq	32(%rbp), %rdx
	movq	%rdx, 32(%rax)
.L266:
	movq	16(%rsp), %r14
	movq	%r12, %rdi
	movq	168(%r14), %rax
	movq	$0, 32(%rbp)
	movq	%rax, 24(%rbp)
	movq	%rbp, 168(%r14)
	call	pthread_mutex_unlock@PLT
	cmpq	$0, 8(%rsp)
	movq	$0, 8(%r15)
	je	.L353
	movq	40(%r14), %rbp
	cmpb	$0, 40(%rbp)
	je	.L268
	data16	leaq	_ZN4asio6detail15keyword_tss_ptrINS0_10call_stackINS0_15task_io_serviceENS0_27task_io_service_thread_infoEE7contextEE6value_E@tlsgd(%rip), %rdi
	.value	0x6666
	rex64
	call	__tls_get_addr@PLT
	movq	(%rax), %rax
	testq	%rax, %rax
	jne	.L271
	jmp	.L268
	.p2align 4,,10
	.p2align 3
.L269:
	movq	16(%rax), %rax
	testq	%rax, %rax
	je	.L268
.L271:
	cmpq	(%rax), %rbp
	jne	.L269
	movq	8(%rax), %rax
	testq	%rax, %rax
	je	.L268
	movq	16(%rax), %rdx
	movq	8(%rsp), %rcx
	testq	%rdx, %rdx
	je	.L272
	movq	%rcx, (%rdx)
.L273:
	movq	%rbx, 16(%rax)
	jmp	.L353
	.p2align 4,,10
	.p2align 3
.L359:
	movq	%rbx, 8(%rsp)
	jmp	.L261
	.p2align 4,,10
	.p2align 3
.L360:
	movq	%r14, %rdi
	call	__cxa_guard_acquire@PLT
	testl	%eax, %eax
	je	.L287
	movq	_ZZN4asio15system_categoryEvE8instance@GOTPCREL(%rip), %rsi
	movq	_ZN4asio6detail15system_categoryD1Ev@GOTPCREL(%rip), %rdi
	leaq	__dso_handle(%rip), %rdx
	call	__cxa_atexit@PLT
	movq	%r14, %rdi
	call	__cxa_guard_release@PLT
	jmp	.L287
	.p2align 4,,10
	.p2align 3
.L351:
	orl	$8, %ebp
	leaq	40(%rsp), %rcx
	movl	$13, %edx
	movl	%r12d, %edi
	movb	%bpl, 4(%r15)
	movl	$8, %r8d
	movl	$1, %esi
	movl	$0, (%rax)
	movq	$0, 40(%rsp)
	call	setsockopt@PLT
	movq	_ZGVZN4asio15system_categoryEvE8instance@GOTPCREL(%rip), %r14
	movzbl	(%r14), %eax
	testb	%al, %al
	jne	.L282
	movq	%r14, %rdi
	call	__cxa_guard_acquire@PLT
	testl	%eax, %eax
	je	.L282
	movq	_ZZN4asio15system_categoryEvE8instance@GOTPCREL(%rip), %rsi
	movq	_ZN4asio6detail15system_categoryD1Ev@GOTPCREL(%rip), %rdi
	leaq	__dso_handle(%rip), %rdx
	call	__cxa_atexit@PLT
	movq	%r14, %rdi
	call	__cxa_guard_release@PLT
	jmp	.L282
	.p2align 4,,10
	.p2align 3
.L268:
	leaq	48(%rbp), %r12
	movq	%r12, %rdi
	call	pthread_mutex_lock@PLT
	movq	200(%rbp), %rax
	testq	%rax, %rax
	je	.L275
	movq	8(%rsp), %rcx
	movq	%rcx, (%rax)
.L276:
	movq	136(%rbp), %rax
	movq	%rbx, 200(%rbp)
	orq	$1, %rax
	movq	%rax, 136(%rbp)
	cmpq	$1, %rax
	je	.L277
	movq	%r12, %rdi
	call	pthread_mutex_unlock@PLT
	leaq	88(%rbp), %rdi
	call	pthread_cond_signal@PLT
	jmp	.L353
.L277:
	cmpb	$0, 176(%rbp)
	jne	.L279
	movq	144(%rbp), %rax
	testq	%rax, %rax
	je	.L279
	movb	$1, 176(%rbp)
	leaq	88(%rax), %rdx
	leaq	40(%rsp), %rcx
	movl	$3, %esi
	movq	%rdx, 44(%rsp)
	movl	88(%rax), %edx
	movl	$-2147483639, 40(%rsp)
	movl	96(%rax), %edi
	call	epoll_ctl@PLT
.L279:
	movq	%r12, %rdi
	call	pthread_mutex_unlock@PLT
	jmp	.L353
	.p2align 4,,10
	.p2align 3
.L301:
	movq	%rbp, %rbx
	jmp	.L260
	.p2align 4,,10
	.p2align 3
.L356:
	movq	16(%rsp), %rax
	movl	$0, 40(%rsp)
	leaq	40(%rsp), %rcx
	movl	%r12d, %edx
	movq	$0, 44(%rsp)
	movl	$2, %esi
	movl	96(%rax), %edi
	call	epoll_ctl@PLT
	movq	8(%r15), %rdi
	jmp	.L253
	.p2align 4,,10
	.p2align 3
.L363:
	movq	24(%rbp), %rax
	movq	16(%rsp), %rcx
	movq	%rax, 160(%rcx)
	jmp	.L264
.L361:
	movq	%r14, %rdi
	call	__cxa_guard_acquire@PLT
	testl	%eax, %eax
	je	.L291
	movq	_ZZN4asio15system_categoryEvE8instance@GOTPCREL(%rip), %rsi
	movq	_ZN4asio6detail15system_categoryD1Ev@GOTPCREL(%rip), %rdi
	leaq	__dso_handle(%rip), %rdx
	call	__cxa_atexit@PLT
	movq	%r14, %rdi
	call	__cxa_guard_release@PLT
	jmp	.L291
.L293:
	leaq	40(%rsp), %rdx
	movl	$21537, %esi
	movl	%r12d, %edi
	xorl	%eax, %eax
	movl	$0, 40(%rsp)
	call	ioctl@PLT
	andb	$-4, 4(%r15)
	movl	%r12d, %edi
	movl	$0, (%rbx)
	call	close@PLT
	movzbl	(%r14), %eax
	testb	%al, %al
	jne	.L249
	movq	%r14, %rdi
	call	__cxa_guard_acquire@PLT
	testl	%eax, %eax
	je	.L249
	movq	_ZZN4asio15system_categoryEvE8instance@GOTPCREL(%rip), %rsi
	movq	_ZN4asio6detail15system_categoryD1Ev@GOTPCREL(%rip), %rdi
	leaq	__dso_handle(%rip), %rdx
	call	__cxa_atexit@PLT
	movq	%r14, %rdi
	call	__cxa_guard_release@PLT
	jmp	.L249
.L275:
	movq	8(%rsp), %rax
	movq	%rax, 192(%rbp)
	jmp	.L276
.L272:
	movq	%rcx, 8(%rax)
	jmp	.L273
.L354:
	call	__stack_chk_fail@PLT
	.cfi_endproc
.LFE4471:
	.size	_ZN4asio6detail28reactive_socket_service_base7destroyERNS1_24base_implementation_typeE, .-_ZN4asio6detail28reactive_socket_service_base7destroyERNS1_24base_implementation_typeE
	.section	.text._ZNSt23_Sp_counted_ptr_inplaceIN7asiopal13SocketChannelESaIS1_ELN9__gnu_cxx12_Lock_policyE2EE10_M_disposeEv,"axG",@progbits,_ZNSt23_Sp_counted_ptr_inplaceIN7asiopal13SocketChannelESaIS1_ELN9__gnu_cxx12_Lock_policyE2EE10_M_disposeEv,comdat
	.align 2
	.p2align 4
	.weak	_ZNSt23_Sp_counted_ptr_inplaceIN7asiopal13SocketChannelESaIS1_ELN9__gnu_cxx12_Lock_policyE2EE10_M_disposeEv
	.type	_ZNSt23_Sp_counted_ptr_inplaceIN7asiopal13SocketChannelESaIS1_ELN9__gnu_cxx12_Lock_policyE2EE10_M_disposeEv, @function
_ZNSt23_Sp_counted_ptr_inplaceIN7asiopal13SocketChannelESaIS1_ELN9__gnu_cxx12_Lock_policyE2EE10_M_disposeEv:
.LFB10530:
	.cfi_startproc
	.cfi_personality 0x9b,DW.ref.__gxx_personality_v0
	.cfi_lsda 0x1b,.LLSDA10530
	endbr64
	movq	_ZTVN7asiopal13SocketChannelE@GOTPCREL(%rip), %rax
	pushq	%r12
	.cfi_def_cfa_offset 16
	.cfi_offset 12, -16
	leaq	80(%rdi), %rsi
	pushq	%rbp
	.cfi_def_cfa_offset 24
	.cfi_offset 6, -24
	addq	$16, %rax
	pushq	%rbx
	.cfi_def_cfa_offset 32
	.cfi_offset 3, -32
	movq	%rdi, %rbx
	movq	%rax, 16(%rdi)
	movq	104(%rdi), %rax
	leaq	40(%rax), %rdi
	call	_ZN4asio6detail28reactive_socket_service_base7destroyERNS1_24base_implementation_typeE@PLT
	movq	_ZTVN7asiopal13IAsyncChannelE@GOTPCREL(%rip), %rax
	movq	64(%rbx), %rbp
	addq	$16, %rax
	movq	%rax, 16(%rbx)
	testq	%rbp, %rbp
	je	.L366
	movq	__libc_single_threaded@GOTPCREL(%rip), %r12
	cmpb	$0, (%r12)
	je	.L367
	movl	8(%rbp), %eax
	leal	-1(%rax), %edx
	movl	%edx, 8(%rbp)
.L368:
	cmpl	$1, %eax
	je	.L385
.L366:
	movq	48(%rbx), %rbp
	testq	%rbp, %rbp
	je	.L373
	movq	__libc_single_threaded@GOTPCREL(%rip), %r12
	cmpb	$0, (%r12)
	je	.L374
	movl	8(%rbp), %eax
	leal	-1(%rax), %edx
	movl	%edx, 8(%rbp)
.L375:
	cmpl	$1, %eax
	je	.L386
.L373:
	movq	32(%rbx), %rdi
	testq	%rdi, %rdi
	je	.L364
	movq	__libc_single_threaded@GOTPCREL(%rip), %rax
	cmpb	$0, (%rax)
	je	.L381
	movl	12(%rdi), %eax
	leal	-1(%rax), %edx
	movl	%edx, 12(%rdi)
.L382:
	cmpl	$1, %eax
	je	.L387
.L364:
	popq	%rbx
	.cfi_remember_state
	.cfi_def_cfa_offset 24
	popq	%rbp
	.cfi_def_cfa_offset 16
	popq	%r12
	.cfi_def_cfa_offset 8
	ret
	.p2align 4,,10
	.p2align 3
.L385:
	.cfi_restore_state
	movq	0(%rbp), %rax
	movq	%rbp, %rdi
	call	*16(%rax)
	cmpb	$0, (%r12)
	je	.L370
	movl	12(%rbp), %eax
	leal	-1(%rax), %edx
	movl	%edx, 12(%rbp)
.L371:
	cmpl	$1, %eax
	jne	.L366
	movq	0(%rbp), %rax
	movq	%rbp, %rdi
	call	*24(%rax)
	jmp	.L366
	.p2align 4,,10
	.p2align 3
.L386:
	movq	0(%rbp), %rax
	movq	%rbp, %rdi
	call	*16(%rax)
	cmpb	$0, (%r12)
	je	.L377
	movl	12(%rbp), %eax
	leal	-1(%rax), %edx
	movl	%edx, 12(%rbp)
.L378:
	cmpl	$1, %eax
	jne	.L373
	movq	0(%rbp), %rax
	movq	%rbp, %rdi
	call	*24(%rax)
	jmp	.L373
	.p2align 4,,10
	.p2align 3
.L387:
	movq	(%rdi), %rax
	popq	%rbx
	.cfi_remember_state
	.cfi_def_cfa_offset 24
	popq	%rbp
	.cfi_def_cfa_offset 16
	popq	%r12
	.cfi_def_cfa_offset 8
	movq	24(%rax), %rax
	jmp	*%rax
	.p2align 4,,10
	.p2align 3
.L374:
	.cfi_restore_state
	movl	$-1, %eax
	lock xaddl	%eax, 8(%rbp)
	jmp	.L375
	.p2align 4,,10
	.p2align 3
.L381:
	movl	$-1, %eax
	lock xaddl	%eax, 12(%rdi)
	jmp	.L382
	.p2align 4,,10
	.p2align 3
.L367:
	movl	$-1, %eax
	lock xaddl	%eax, 8(%rbp)
	jmp	.L368
	.p2align 4,,10
	.p2align 3
.L370:
	movl	$-1, %eax
	lock xaddl	%eax, 12(%rbp)
	jmp	.L371
	.p2align 4,,10
	.p2align 3
.L377:
	movl	$-1, %eax
	lock xaddl	%eax, 12(%rbp)
	jmp	.L378
	.cfi_endproc
.LFE10530:
	.globl	__gxx_personality_v0
	.section	.gcc_except_table._ZNSt23_Sp_counted_ptr_inplaceIN7asiopal13SocketChannelESaIS1_ELN9__gnu_cxx12_Lock_policyE2EE10_M_disposeEv,"aG",@progbits,_ZNSt23_Sp_counted_ptr_inplaceIN7asiopal13SocketChannelESaIS1_ELN9__gnu_cxx12_Lock_policyE2EE10_M_disposeEv,comdat
.LLSDA10530:
	.byte	0xff
	.byte	0xff
	.byte	0x1
	.uleb128 .LLSDACSE10530-.LLSDACSB10530
.LLSDACSB10530:
.LLSDACSE10530:
	.section	.text._ZNSt23_Sp_counted_ptr_inplaceIN7asiopal13SocketChannelESaIS1_ELN9__gnu_cxx12_Lock_policyE2EE10_M_disposeEv,"axG",@progbits,_ZNSt23_Sp_counted_ptr_inplaceIN7asiopal13SocketChannelESaIS1_ELN9__gnu_cxx12_Lock_policyE2EE10_M_disposeEv,comdat
	.size	_ZNSt23_Sp_counted_ptr_inplaceIN7asiopal13SocketChannelESaIS1_ELN9__gnu_cxx12_Lock_policyE2EE10_M_disposeEv, .-_ZNSt23_Sp_counted_ptr_inplaceIN7asiopal13SocketChannelESaIS1_ELN9__gnu_cxx12_Lock_policyE2EE10_M_disposeEv
	.section	.text._ZNSt23_Sp_counted_ptr_inplaceIN7asiopal9TCPClientESaIS1_ELN9__gnu_cxx12_Lock_policyE2EE10_M_disposeEv,"axG",@progbits,_ZNSt23_Sp_counted_ptr_inplaceIN7asiopal9TCPClientESaIS1_ELN9__gnu_cxx12_Lock_policyE2EE10_M_disposeEv,comdat
	.align 2
	.p2align 4
	.weak	_ZNSt23_Sp_counted_ptr_inplaceIN7asiopal9TCPClientESaIS1_ELN9__gnu_cxx12_Lock_policyE2EE10_M_disposeEv
	.type	_ZNSt23_Sp_counted_ptr_inplaceIN7asiopal9TCPClientESaIS1_ELN9__gnu_cxx12_Lock_policyE2EE10_M_disposeEv, @function
_ZNSt23_Sp_counted_ptr_inplaceIN7asiopal9TCPClientESaIS1_ELN9__gnu_cxx12_Lock_policyE2EE10_M_disposeEv:
.LFB10544:
	.cfi_startproc
	.cfi_personality 0x9b,DW.ref.__gxx_personality_v0
	.cfi_lsda 0x1b,.LLSDA10544
	endbr64
	pushq	%r12
	.cfi_def_cfa_offset 16
	.cfi_offset 12, -16
	pxor	%xmm0, %xmm0
	pushq	%rbp
	.cfi_def_cfa_offset 24
	.cfi_offset 6, -24
	pushq	%rbx
	.cfi_def_cfa_offset 32
	.cfi_offset 3, -32
	movq	256(%rdi), %r12
	movq	%rdi, %rbx
	movups	%xmm0, 248(%rdi)
	testq	%r12, %r12
	je	.L390
	movq	__libc_single_threaded@GOTPCREL(%rip), %rbp
	cmpb	$0, 0(%rbp)
	je	.L391
	movl	8(%r12), %eax
	leal	-1(%rax), %edx
	movl	%edx, 8(%r12)
	cmpl	$1, %eax
	jne	.L390
.L395:
	movq	(%r12), %rax
	movq	%r12, %rdi
	call	*16(%rax)
	cmpb	$0, 0(%rbp)
	je	.L439
	movl	12(%r12), %eax
	leal	-1(%rax), %edx
	movl	%edx, 12(%r12)
.L397:
	cmpl	$1, %eax
	jne	.L396
	movq	(%r12), %rax
	movq	%r12, %rdi
	call	*24(%rax)
	jmp	.L396
	.p2align 4,,10
	.p2align 3
.L391:
	lock subl	$1, 8(%r12)
	je	.L395
.L396:
	movq	256(%rbx), %r12
	testq	%r12, %r12
	je	.L390
	cmpb	$0, 0(%rbp)
	je	.L399
	movl	8(%r12), %eax
	leal	-1(%rax), %edx
	movl	%edx, 8(%r12)
.L400:
	cmpl	$1, %eax
	jne	.L390
	movq	(%r12), %rax
	movq	%r12, %rdi
	call	*16(%rax)
	cmpb	$0, 0(%rbp)
	je	.L401
	movl	12(%r12), %eax
	leal	-1(%rax), %edx
	movl	%edx, 12(%r12)
.L402:
	cmpl	$1, %eax
	jne	.L390
	movq	(%r12), %rax
	movq	%r12, %rdi
	call	*24(%rax)
	.p2align 4,,10
	.p2align 3
.L390:
	movq	176(%rbx), %rax
	leaq	152(%rbx), %rsi
	leaq	40(%rax), %rdi
	call	_ZN4asio6detail28reactive_socket_service_base7destroyERNS1_24base_implementation_typeE@PLT
	movq	120(%rbx), %rdi
	leaq	136(%rbx), %rax
	cmpq	%rax, %rdi
	je	.L403
	movq	136(%rbx), %rax
	leaq	1(%rax), %rsi
	call	_ZdlPvm@PLT
.L403:
	movq	88(%rbx), %rdi
	leaq	104(%rbx), %rax
	cmpq	%rax, %rdi
	je	.L404
	movq	104(%rbx), %rax
	leaq	1(%rax), %rsi
	call	_ZdlPvm@PLT
.L404:
	movq	80(%rbx), %r12
	testq	%r12, %r12
	je	.L406
	movq	__libc_single_threaded@GOTPCREL(%rip), %rbp
	cmpb	$0, 0(%rbp)
	je	.L407
	movl	8(%r12), %eax
	leal	-1(%rax), %edx
	movl	%edx, 8(%r12)
.L408:
	cmpl	$1, %eax
	je	.L440
.L406:
	movq	64(%rbx), %r12
	testq	%r12, %r12
	je	.L413
	movq	__libc_single_threaded@GOTPCREL(%rip), %rbp
	cmpb	$0, 0(%rbp)
	je	.L414
	movl	8(%r12), %eax
	leal	-1(%rax), %edx
	movl	%edx, 8(%r12)
.L415:
	cmpl	$1, %eax
	je	.L441
.L413:
	movq	48(%rbx), %r12
	testq	%r12, %r12
	je	.L420
	movq	__libc_single_threaded@GOTPCREL(%rip), %rbp
	cmpb	$0, 0(%rbp)
	je	.L421
	movl	8(%r12), %eax
	leal	-1(%rax), %edx
	movl	%edx, 8(%r12)
.L422:
	cmpl	$1, %eax
	je	.L442
.L420:
	movq	24(%rbx), %rdi
	testq	%rdi, %rdi
	je	.L388
	movq	__libc_single_threaded@GOTPCREL(%rip), %rax
	cmpb	$0, (%rax)
	je	.L428
	movl	12(%rdi), %eax
	leal	-1(%rax), %edx
	movl	%edx, 12(%rdi)
.L429:
	cmpl	$1, %eax
	je	.L443
.L388:
	popq	%rbx
	.cfi_remember_state
	.cfi_def_cfa_offset 24
	popq	%rbp
	.cfi_def_cfa_offset 16
	popq	%r12
	.cfi_def_cfa_offset 8
	ret
	.p2align 4,,10
	.p2align 3
.L440:
	.cfi_restore_state
	movq	(%r12), %rax
	movq	%r12, %rdi
	call	*16(%rax)
	cmpb	$0, 0(%rbp)
	je	.L410
	movl	12(%r12), %eax
	leal	-1(%rax), %edx
	movl	%edx, 12(%r12)
.L411:
	cmpl	$1, %eax
	jne	.L406
	movq	(%r12), %rax
	movq	%r12, %rdi
	call	*24(%rax)
	jmp	.L406
	.p2align 4,,10
	.p2align 3
.L441:
	movq	(%r12), %rax
	movq	%r12, %rdi
	call	*16(%rax)
	cmpb	$0, 0(%rbp)
	je	.L417
	movl	12(%r12), %eax
	leal	-1(%rax), %edx
	movl	%edx, 12(%r12)
.L418:
	cmpl	$1, %eax
	jne	.L413
	movq	(%r12), %rax
	movq	%r12, %rdi
	call	*24(%rax)
	jmp	.L413
	.p2align 4,,10
	.p2align 3
.L442:
	movq	(%r12), %rax
	movq	%r12, %rdi
	call	*16(%rax)
	cmpb	$0, 0(%rbp)
	je	.L424
	movl	12(%r12), %eax
	leal	-1(%rax), %edx
	movl	%edx, 12(%r12)
.L425:
	cmpl	$1, %eax
	jne	.L420
	movq	(%r12), %rax
	movq	%r12, %rdi
	call	*24(%rax)
	jmp	.L420
	.p2align 4,,10
	.p2align 3
.L443:
	movq	(%rdi), %rax
	popq	%rbx
	.cfi_remember_state
	.cfi_def_cfa_offset 24
	popq	%rbp
	.cfi_def_cfa_offset 16
	popq	%r12
	.cfi_def_cfa_offset 8
	movq	24(%rax), %rax
	jmp	*%rax
	.p2align 4,,10
	.p2align 3
.L421:
	.cfi_restore_state
	movl	$-1, %eax
	lock xaddl	%eax, 8(%r12)
	jmp	.L422
	.p2align 4,,10
	.p2align 3
.L428:
	movl	$-1, %eax
	lock xaddl	%eax, 12(%rdi)
	jmp	.L429
	.p2align 4,,10
	.p2align 3
.L407:
	movl	$-1, %eax
	lock xaddl	%eax, 8(%r12)
	jmp	.L408
	.p2align 4,,10
	.p2align 3
.L414:
	movl	$-1, %eax
	lock xaddl	%eax, 8(%r12)
	jmp	.L415
	.p2align 4,,10
	.p2align 3
.L399:
	movl	$-1, %eax
	lock xaddl	%eax, 8(%r12)
	jmp	.L400
	.p2align 4,,10
	.p2align 3
.L401:
	movl	$-1, %eax
	lock xaddl	%eax, 12(%r12)
	jmp	.L402
	.p2align 4,,10
	.p2align 3
.L424:
	movl	$-1, %eax
	lock xaddl	%eax, 12(%r12)
	jmp	.L425
	.p2align 4,,10
	.p2align 3
.L439:
	movl	$-1, %eax
	lock xaddl	%eax, 12(%r12)
	jmp	.L397
	.p2align 4,,10
	.p2align 3
.L410:
	movl	$-1, %eax
	lock xaddl	%eax, 12(%r12)
	jmp	.L411
	.p2align 4,,10
	.p2align 3
.L417:
	movl	$-1, %eax
	lock xaddl	%eax, 12(%r12)
	jmp	.L418
	.cfi_endproc
.LFE10544:
	.section	.gcc_except_table._ZNSt23_Sp_counted_ptr_inplaceIN7asiopal9TCPClientESaIS1_ELN9__gnu_cxx12_Lock_policyE2EE10_M_disposeEv,"aG",@progbits,_ZNSt23_Sp_counted_ptr_inplaceIN7asiopal9TCPClientESaIS1_ELN9__gnu_cxx12_Lock_policyE2EE10_M_disposeEv,comdat
.LLSDA10544:
	.byte	0xff
	.byte	0xff
	.byte	0x1
	.uleb128 .LLSDACSE10544-.LLSDACSB10544
.LLSDACSB10544:
.LLSDACSE10544:
	.section	.text._ZNSt23_Sp_counted_ptr_inplaceIN7asiopal9TCPClientESaIS1_ELN9__gnu_cxx12_Lock_policyE2EE10_M_disposeEv,"axG",@progbits,_ZNSt23_Sp_counted_ptr_inplaceIN7asiopal9TCPClientESaIS1_ELN9__gnu_cxx12_Lock_policyE2EE10_M_disposeEv,comdat
	.size	_ZNSt23_Sp_counted_ptr_inplaceIN7asiopal9TCPClientESaIS1_ELN9__gnu_cxx12_Lock_policyE2EE10_M_disposeEv, .-_ZNSt23_Sp_counted_ptr_inplaceIN7asiopal9TCPClientESaIS1_ELN9__gnu_cxx12_Lock_policyE2EE10_M_disposeEv
	.section	.text._ZN8asiodnp39IOHandlerD2Ev,"axG",@progbits,_ZN8asiodnp39IOHandlerD5Ev,comdat
	.align 2
	.p2align 4
	.weak	_ZN8asiodnp39IOHandlerD2Ev
	.type	_ZN8asiodnp39IOHandlerD2Ev, @function
_ZN8asiodnp39IOHandlerD2Ev:
.LFB7652:
	.cfi_startproc
	endbr64
	pushq	%r15
	.cfi_def_cfa_offset 16
	.cfi_offset 15, -16
	pushq	%r14
	.cfi_def_cfa_offset 24
	.cfi_offset 14, -24
	pushq	%r13
	.cfi_def_cfa_offset 32
	.cfi_offset 13, -32
	pushq	%r12
	.cfi_def_cfa_offset 40
	.cfi_offset 12, -40
	movq	%rdi, %r12
	pushq	%rbp
	.cfi_def_cfa_offset 48
	.cfi_offset 6, -48
	pushq	%rbx
	.cfi_def_cfa_offset 56
	.cfi_offset 3, -56
	subq	$56, %rsp
	.cfi_def_cfa_offset 112
	movq	_ZTVN8asiodnp39IOHandlerE@GOTPCREL(%rip), %rax
	leaq	104(%rax), %rdx
	addq	$16, %rax
	movq	%rax, %xmm0
	movq	_ZTVN8opendnp317MultidropTaskLockE@GOTPCREL(%rip), %rax
	movq	%rdx, %xmm1
	punpcklqdq	%xmm1, %xmm0
	addq	$16, %rax
	movups	%xmm0, (%rdi)
	movq	%rax, 648(%rdi)
	movq	712(%rdi), %rdi
	testq	%rdi, %rdi
	je	.L445
	movq	784(%r12), %rax
	movq	752(%r12), %rbx
	leaq	8(%rax), %rbp
	cmpq	%rbx, %rbp
	jbe	.L446
	.p2align 4,,10
	.p2align 3
.L447:
	movq	(%rbx), %rdi
	movl	$512, %esi
	addq	$8, %rbx
	call	_ZdlPvm@PLT
	cmpq	%rbx, %rbp
	ja	.L447
	movq	712(%r12), %rdi
.L446:
	movq	720(%r12), %rax
	leaq	0(,%rax,8), %rsi
	call	_ZdlPvm@PLT
.L445:
	movq	680(%r12), %rbx
	testq	%rbx, %rbx
	je	.L451
.L448:
	movq	24(%rbx), %rdi
	call	_ZNSt8_Rb_treeIPN8opendnp317IScheduleCallbackES2_St9_IdentityIS2_ESt4lessIS2_ESaIS2_EE8_M_eraseEPSt13_Rb_tree_nodeIS2_E.isra.0
	movq	%rbx, %rdi
	movq	16(%rbx), %rbx
	movl	$40, %esi
	call	_ZdlPvm@PLT
	testq	%rbx, %rbx
	jne	.L448
.L451:
	movq	640(%r12), %rbp
	testq	%rbp, %rbp
	je	.L452
	movq	__libc_single_threaded@GOTPCREL(%rip), %r15
	cmpb	$0, (%r15)
	je	.L453
	movl	8(%rbp), %eax
	leal	-1(%rax), %edx
	movl	%edx, 8(%rbp)
.L454:
	cmpl	$1, %eax
	je	.L572
.L452:
	movq	240(%r12), %rbp
	testq	%rbp, %rbp
	je	.L458
	movq	__libc_single_threaded@GOTPCREL(%rip), %r15
	cmpb	$0, (%r15)
	je	.L459
	movl	8(%rbp), %eax
	leal	-1(%rax), %edx
	movl	%edx, 8(%rbp)
.L460:
	cmpl	$1, %eax
	je	.L573
.L458:
	movq	224(%r12), %rbp
	testq	%rbp, %rbp
	je	.L465
	movq	__libc_single_threaded@GOTPCREL(%rip), %r15
	cmpb	$0, (%r15)
	je	.L466
	movl	8(%rbp), %eax
	leal	-1(%rax), %edx
	movl	%edx, 8(%rbp)
.L467:
	cmpl	$1, %eax
	je	.L574
.L465:
	movq	184(%r12), %rax
	movq	168(%r12), %rsi
	movq	152(%r12), %rbx
	movq	%rax, 16(%rsp)
	movq	192(%r12), %rax
	movq	%rsi, 32(%rsp)
	movq	176(%r12), %rsi
	movq	%rax, (%rsp)
	movq	208(%r12), %rax
	leaq	8(%rsi), %rbp
	movq	%rsi, 40(%rsp)
	movq	%rax, 24(%rsp)
	cmpq	%rbp, %rax
	jbe	.L482
	.p2align 4,,10
	.p2align 3
.L471:
	movq	0(%rbp), %r13
	leaq	512(%r13), %r14
	jmp	.L481
	.p2align 4,,10
	.p2align 3
.L475:
	addq	$32, %r13
	cmpq	%r13, %r14
	je	.L575
.L481:
	movq	24(%r13), %rdi
	testq	%rdi, %rdi
	je	.L475
	movq	__libc_single_threaded@GOTPCREL(%rip), %r15
	cmpb	$0, (%r15)
	je	.L476
	movl	8(%rdi), %edx
	leal	-1(%rdx), %r8d
	movl	%r8d, 8(%rdi)
.L477:
	cmpl	$1, %edx
	jne	.L475
	movq	(%rdi), %rdx
	movq	%rdi, 8(%rsp)
	call	*16(%rdx)
	cmpb	$0, (%r15)
	movq	8(%rsp), %rdi
	je	.L479
	movl	12(%rdi), %edx
	leal	-1(%rdx), %ecx
	movl	%ecx, 12(%rdi)
.L480:
	cmpl	$1, %edx
	jne	.L475
	movq	(%rdi), %rdx
	addq	$32, %r13
	call	*24(%rdx)
	cmpq	%r13, %r14
	jne	.L481
	.p2align 4,,10
	.p2align 3
.L575:
	addq	$8, %rbp
	cmpq	%rbp, 24(%rsp)
	ja	.L471
.L482:
	movq	40(%rsp), %rcx
	cmpq	%rcx, 24(%rsp)
	je	.L571
	cmpq	32(%rsp), %rbx
	jne	.L486
	jmp	.L496
	.p2align 4,,10
	.p2align 3
.L490:
	addq	$32, %rbx
	cmpq	%rbx, 32(%rsp)
	je	.L496
.L486:
	movq	24(%rbx), %rbp
	testq	%rbp, %rbp
	je	.L490
	movq	__libc_single_threaded@GOTPCREL(%rip), %r15
	cmpb	$0, (%r15)
	je	.L491
	movl	8(%rbp), %eax
	leal	-1(%rax), %edx
	movl	%edx, 8(%rbp)
.L492:
	cmpl	$1, %eax
	jne	.L490
	movq	0(%rbp), %rax
	movq	%rbp, %rdi
	call	*16(%rax)
	cmpb	$0, (%r15)
	je	.L494
	movl	12(%rbp), %eax
	leal	-1(%rax), %edx
	movl	%edx, 12(%rbp)
.L495:
	cmpl	$1, %eax
	jne	.L490
	movq	0(%rbp), %rax
	movq	%rbp, %rdi
	addq	$32, %rbx
	call	*24(%rax)
	cmpq	%rbx, 32(%rsp)
	jne	.L486
.L496:
	movq	(%rsp), %rcx
	cmpq	%rcx, 16(%rsp)
	jne	.L487
	jmp	.L488
	.p2align 4,,10
	.p2align 3
.L498:
	addq	$32, (%rsp)
	movq	(%rsp), %rax
	cmpq	%rax, 16(%rsp)
	je	.L488
.L487:
	movq	(%rsp), %rax
	movq	24(%rax), %rbp
	testq	%rbp, %rbp
	je	.L498
	movq	__libc_single_threaded@GOTPCREL(%rip), %r15
	cmpb	$0, (%r15)
	je	.L499
	movl	8(%rbp), %eax
	leal	-1(%rax), %edx
	movl	%edx, 8(%rbp)
.L500:
	cmpl	$1, %eax
	jne	.L498
	movq	0(%rbp), %rax
	movq	%rbp, %rdi
	call	*16(%rax)
	cmpb	$0, (%r15)
	je	.L502
	movl	12(%rbp), %eax
	leal	-1(%rax), %edx
	movl	%edx, 12(%rbp)
.L503:
	cmpl	$1, %eax
	jne	.L498
	movq	0(%rbp), %rax
	movq	%rbp, %rdi
	call	*24(%rax)
	addq	$32, (%rsp)
	movq	(%rsp), %rax
	cmpq	%rax, 16(%rsp)
	jne	.L487
	.p2align 4,,10
	.p2align 3
.L488:
	movq	136(%r12), %rdi
	testq	%rdi, %rdi
	je	.L485
	movq	208(%r12), %rax
	movq	176(%r12), %rbx
	leaq	8(%rax), %rbp
	cmpq	%rbx, %rbp
	jbe	.L511
	.p2align 4,,10
	.p2align 3
.L512:
	movq	(%rbx), %rdi
	movl	$512, %esi
	addq	$8, %rbx
	call	_ZdlPvm@PLT
	cmpq	%rbx, %rbp
	ja	.L512
	movq	136(%r12), %rdi
.L511:
	movq	144(%r12), %rax
	leaq	0(,%rax,8), %rsi
	call	_ZdlPvm@PLT
.L485:
	movq	120(%r12), %rbx
	movq	112(%r12), %rbp
	cmpq	%rbp, %rbx
	jne	.L521
	jmp	.L513
	.p2align 4,,10
	.p2align 3
.L515:
	addq	$24, %rbp
	cmpq	%rbp, %rbx
	je	.L576
.L521:
	movq	16(%rbp), %r13
	testq	%r13, %r13
	je	.L515
	movq	__libc_single_threaded@GOTPCREL(%rip), %r15
	cmpb	$0, (%r15)
	je	.L516
	movl	8(%r13), %eax
	leal	-1(%rax), %edx
	movl	%edx, 8(%r13)
.L517:
	cmpl	$1, %eax
	jne	.L515
	movq	0(%r13), %rax
	movq	%r13, %rdi
	call	*16(%rax)
	cmpb	$0, (%r15)
	je	.L519
	movl	12(%r13), %eax
	leal	-1(%rax), %edx
	movl	%edx, 12(%r13)
.L520:
	cmpl	$1, %eax
	jne	.L515
	movq	0(%r13), %rax
	addq	$24, %rbp
	movq	%r13, %rdi
	call	*24(%rax)
	cmpq	%rbp, %rbx
	jne	.L521
	.p2align 4,,10
	.p2align 3
.L576:
	movq	112(%r12), %rbp
.L513:
	testq	%rbp, %rbp
	je	.L522
	movq	128(%r12), %rsi
	movq	%rbp, %rdi
	subq	%rbp, %rsi
	call	_ZdlPvm@PLT
.L522:
	movq	72(%r12), %rbp
	testq	%rbp, %rbp
	je	.L524
	movq	__libc_single_threaded@GOTPCREL(%rip), %r15
	cmpb	$0, (%r15)
	je	.L525
	movl	8(%rbp), %eax
	leal	-1(%rax), %edx
	movl	%edx, 8(%rbp)
.L526:
	cmpl	$1, %eax
	je	.L577
.L524:
	movq	56(%r12), %rbp
	testq	%rbp, %rbp
	je	.L531
	movq	__libc_single_threaded@GOTPCREL(%rip), %r15
	cmpb	$0, (%r15)
	je	.L532
	movl	8(%rbp), %eax
	leal	-1(%rax), %edx
	movl	%edx, 8(%rbp)
.L533:
	cmpl	$1, %eax
	je	.L578
.L531:
	movq	40(%r12), %rbp
	testq	%rbp, %rbp
	je	.L538
	movq	__libc_single_threaded@GOTPCREL(%rip), %r15
	cmpb	$0, (%r15)
	je	.L539
	movl	8(%rbp), %eax
	leal	-1(%rax), %edx
	movl	%edx, 8(%rbp)
.L540:
	cmpl	$1, %eax
	je	.L579
.L538:
	movq	24(%r12), %rdi
	testq	%rdi, %rdi
	je	.L444
	movq	__libc_single_threaded@GOTPCREL(%rip), %rax
	cmpb	$0, (%rax)
	je	.L546
	movl	12(%rdi), %eax
	leal	-1(%rax), %edx
	movl	%edx, 12(%rdi)
.L547:
	cmpl	$1, %eax
	je	.L580
.L444:
	addq	$56, %rsp
	.cfi_remember_state
	.cfi_def_cfa_offset 56
	popq	%rbx
	.cfi_def_cfa_offset 48
	popq	%rbp
	.cfi_def_cfa_offset 40
	popq	%r12
	.cfi_def_cfa_offset 32
	popq	%r13
	.cfi_def_cfa_offset 24
	popq	%r14
	.cfi_def_cfa_offset 16
	popq	%r15
	.cfi_def_cfa_offset 8
	ret
	.p2align 4,,10
	.p2align 3
.L476:
	.cfi_restore_state
	movl	$-1, %edx
	lock xaddl	%edx, 8(%rdi)
	jmp	.L477
.L582:
	movq	0(%rbp), %rax
	movq	%rbp, %rdi
	call	*16(%rax)
	cmpb	$0, (%r15)
	je	.L509
	movl	12(%rbp), %eax
	leal	-1(%rax), %edx
	movl	%edx, 12(%rbp)
.L510:
	cmpl	$1, %eax
	je	.L581
	.p2align 4,,10
	.p2align 3
.L505:
	addq	$32, %rbx
.L571:
	cmpq	%rbx, 16(%rsp)
	je	.L488
	movq	24(%rbx), %rbp
	testq	%rbp, %rbp
	je	.L505
	movq	__libc_single_threaded@GOTPCREL(%rip), %r15
	cmpb	$0, (%r15)
	je	.L506
	movl	8(%rbp), %eax
	leal	-1(%rax), %edx
	movl	%edx, 8(%rbp)
.L507:
	cmpl	$1, %eax
	jne	.L505
	jmp	.L582
	.p2align 4,,10
	.p2align 3
.L479:
	movl	$-1, %edx
	lock xaddl	%edx, 12(%rdi)
	jmp	.L480
	.p2align 4,,10
	.p2align 3
.L516:
	movl	$-1, %eax
	lock xaddl	%eax, 8(%r13)
	jmp	.L517
	.p2align 4,,10
	.p2align 3
.L491:
	movl	$-1, %eax
	lock xaddl	%eax, 8(%rbp)
	jmp	.L492
	.p2align 4,,10
	.p2align 3
.L499:
	movl	$-1, %eax
	lock xaddl	%eax, 8(%rbp)
	jmp	.L500
.L519:
	movl	$-1, %eax
	lock xaddl	%eax, 12(%r13)
	jmp	.L520
.L506:
	movl	$-1, %eax
	lock xaddl	%eax, 8(%rbp)
	jmp	.L507
.L494:
	movl	$-1, %eax
	lock xaddl	%eax, 12(%rbp)
	jmp	.L495
.L502:
	movl	$-1, %eax
	lock xaddl	%eax, 12(%rbp)
	jmp	.L503
.L577:
	movq	0(%rbp), %rax
	movq	%rbp, %rdi
	call	*16(%rax)
	cmpb	$0, (%r15)
	je	.L528
	movl	12(%rbp), %eax
	leal	-1(%rax), %edx
	movl	%edx, 12(%rbp)
.L529:
	cmpl	$1, %eax
	jne	.L524
	movq	0(%rbp), %rax
	movq	%rbp, %rdi
	call	*24(%rax)
	jmp	.L524
.L578:
	movq	0(%rbp), %rax
	movq	%rbp, %rdi
	call	*16(%rax)
	cmpb	$0, (%r15)
	je	.L535
	movl	12(%rbp), %eax
	leal	-1(%rax), %edx
	movl	%edx, 12(%rbp)
.L536:
	cmpl	$1, %eax
	jne	.L531
	movq	0(%rbp), %rax
	movq	%rbp, %rdi
	call	*24(%rax)
	jmp	.L531
.L579:
	movq	0(%rbp), %rax
	movq	%rbp, %rdi
	call	*16(%rax)
	cmpb	$0, (%r15)
	je	.L542
	movl	12(%rbp), %eax
	leal	-1(%rax), %edx
	movl	%edx, 12(%rbp)
.L543:
	cmpl	$1, %eax
	jne	.L538
	movq	0(%rbp), %rax
	movq	%rbp, %rdi
	call	*24(%rax)
	jmp	.L538
.L580:
	movq	(%rdi), %rax
	movq	24(%rax), %rax
	addq	$56, %rsp
	.cfi_remember_state
	.cfi_def_cfa_offset 56
	popq	%rbx
	.cfi_def_cfa_offset 48
	popq	%rbp
	.cfi_def_cfa_offset 40
	popq	%r12
	.cfi_def_cfa_offset 32
	popq	%r13
	.cfi_def_cfa_offset 24
	popq	%r14
	.cfi_def_cfa_offset 16
	popq	%r15
	.cfi_def_cfa_offset 8
	jmp	*%rax
.L572:
	.cfi_restore_state
	movq	0(%rbp), %rax
	movq	%rbp, %rdi
	call	*16(%rax)
	cmpb	$0, (%r15)
	je	.L455
	movl	12(%rbp), %eax
	leal	-1(%rax), %edx
	movl	%edx, 12(%rbp)
.L456:
	cmpl	$1, %eax
	jne	.L452
	movq	0(%rbp), %rax
	movq	%rbp, %rdi
	call	*24(%rax)
	jmp	.L452
.L573:
	movq	0(%rbp), %rax
	movq	%rbp, %rdi
	call	*16(%rax)
	cmpb	$0, (%r15)
	je	.L462
	movl	12(%rbp), %eax
	leal	-1(%rax), %edx
	movl	%edx, 12(%rbp)
.L463:
	cmpl	$1, %eax
	jne	.L458
	movq	0(%rbp), %rax
	movq	%rbp, %rdi
	call	*24(%rax)
	jmp	.L458
.L574:
	movq	0(%rbp), %rax
	movq	%rbp, %rdi
	call	*16(%rax)
	cmpb	$0, (%r15)
	je	.L469
	movl	12(%rbp), %eax
	leal	-1(%rax), %edx
	movl	%edx, 12(%rbp)
.L470:
	cmpl	$1, %eax
	jne	.L465
	movq	0(%rbp), %rax
	movq	%rbp, %rdi
	call	*24(%rax)
	jmp	.L465
.L453:
	movl	$-1, %eax
	lock xaddl	%eax, 8(%rbp)
	jmp	.L454
.L525:
	movl	$-1, %eax
	lock xaddl	%eax, 8(%rbp)
	jmp	.L526
.L532:
	movl	$-1, %eax
	lock xaddl	%eax, 8(%rbp)
	jmp	.L533
.L546:
	movl	$-1, %eax
	lock xaddl	%eax, 12(%rdi)
	jmp	.L547
.L539:
	movl	$-1, %eax
	lock xaddl	%eax, 8(%rbp)
	jmp	.L540
.L459:
	movl	$-1, %eax
	lock xaddl	%eax, 8(%rbp)
	jmp	.L460
.L466:
	movl	$-1, %eax
	lock xaddl	%eax, 8(%rbp)
	jmp	.L467
.L581:
	movq	0(%rbp), %rax
	movq	%rbp, %rdi
	call	*24(%rax)
	jmp	.L505
.L509:
	movl	$-1, %eax
	lock xaddl	%eax, 12(%rbp)
	jmp	.L510
.L528:
	movl	$-1, %eax
	lock xaddl	%eax, 12(%rbp)
	jmp	.L529
.L455:
	movl	$-1, %eax
	lock xaddl	%eax, 12(%rbp)
	jmp	.L456
.L462:
	movl	$-1, %eax
	lock xaddl	%eax, 12(%rbp)
	jmp	.L463
.L469:
	movl	$-1, %eax
	lock xaddl	%eax, 12(%rbp)
	jmp	.L470
.L535:
	movl	$-1, %eax
	lock xaddl	%eax, 12(%rbp)
	jmp	.L536
.L542:
	movl	$-1, %eax
	lock xaddl	%eax, 12(%rbp)
	jmp	.L543
	.cfi_endproc
.LFE7652:
	.size	_ZN8asiodnp39IOHandlerD2Ev, .-_ZN8asiodnp39IOHandlerD2Ev
	.set	.LTHUNK0,_ZN8asiodnp39IOHandlerD2Ev
	.p2align 4
	.weak	_ZThn8_N8asiodnp39IOHandlerD1Ev
	.type	_ZThn8_N8asiodnp39IOHandlerD1Ev, @function
_ZThn8_N8asiodnp39IOHandlerD1Ev:
.LFB10695:
	.cfi_startproc
	endbr64
	subq	$8, %rdi
	jmp	.LTHUNK0
	.cfi_endproc
.LFE10695:
	.size	_ZThn8_N8asiodnp39IOHandlerD1Ev, .-_ZThn8_N8asiodnp39IOHandlerD1Ev
	.weak	_ZN8asiodnp39IOHandlerD1Ev
	.set	_ZN8asiodnp39IOHandlerD1Ev,_ZN8asiodnp39IOHandlerD2Ev
	.section	.text._ZN8asiodnp318TCPClientIOHandlerD2Ev,"axG",@progbits,_ZN8asiodnp318TCPClientIOHandlerD5Ev,comdat
	.align 2
	.p2align 4
	.weak	_ZN8asiodnp318TCPClientIOHandlerD2Ev
	.type	_ZN8asiodnp318TCPClientIOHandlerD2Ev, @function
_ZN8asiodnp318TCPClientIOHandlerD2Ev:
.LFB10439:
	.cfi_startproc
	endbr64
	movq	_ZTVN8asiodnp318TCPClientIOHandlerE@GOTPCREL(%rip), %rax
	pushq	%r12
	.cfi_def_cfa_offset 16
	.cfi_offset 12, -16
	pushq	%rbp
	.cfi_def_cfa_offset 24
	.cfi_offset 6, -24
	movq	%rdi, %rbp
	addq	$928, %rdi
	leaq	104(%rax), %rdx
	addq	$16, %rax
	pushq	%rbx
	.cfi_def_cfa_offset 32
	.cfi_offset 3, -32
	movq	%rax, %xmm0
	movq	%rdx, %xmm1
	punpcklqdq	%xmm1, %xmm0
	movups	%xmm0, -928(%rdi)
	call	_ZN7openpal8TimerRefD1Ev@PLT
	movq	920(%rbp), %r12
	testq	%r12, %r12
	je	.L585
	movq	__libc_single_threaded@GOTPCREL(%rip), %rbx
	cmpb	$0, (%rbx)
	je	.L586
	movl	8(%r12), %eax
	leal	-1(%rax), %edx
	movl	%edx, 8(%r12)
.L587:
	cmpl	$1, %eax
	je	.L601
.L585:
	movq	880(%rbp), %rdi
	leaq	896(%rbp), %rax
	cmpq	%rax, %rdi
	je	.L591
	movq	896(%rbp), %rax
	leaq	1(%rax), %rsi
	call	_ZdlPvm@PLT
.L591:
	movq	840(%rbp), %rdi
	leaq	856(%rbp), %rax
	cmpq	%rax, %rdi
	je	.L592
	movq	856(%rbp), %rax
	leaq	1(%rax), %rsi
	call	_ZdlPvm@PLT
.L592:
	movq	808(%rbp), %r12
	testq	%r12, %r12
	je	.L594
	movq	__libc_single_threaded@GOTPCREL(%rip), %rbx
	cmpb	$0, (%rbx)
	je	.L595
	movl	8(%r12), %eax
	leal	-1(%rax), %edx
	movl	%edx, 8(%r12)
.L596:
	cmpl	$1, %eax
	je	.L602
.L594:
	popq	%rbx
	.cfi_remember_state
	.cfi_def_cfa_offset 24
	movq	%rbp, %rdi
	popq	%rbp
	.cfi_def_cfa_offset 16
	popq	%r12
	.cfi_def_cfa_offset 8
	jmp	_ZN8asiodnp39IOHandlerD2Ev@PLT
	.p2align 4,,10
	.p2align 3
.L601:
	.cfi_restore_state
	movq	(%r12), %rax
	movq	%r12, %rdi
	call	*16(%rax)
	cmpb	$0, (%rbx)
	je	.L589
	movl	12(%r12), %eax
	leal	-1(%rax), %edx
	movl	%edx, 12(%r12)
.L590:
	cmpl	$1, %eax
	jne	.L585
	movq	(%r12), %rax
	movq	%r12, %rdi
	call	*24(%rax)
	jmp	.L585
	.p2align 4,,10
	.p2align 3
.L602:
	movq	(%r12), %rax
	movq	%r12, %rdi
	call	*16(%rax)
	cmpb	$0, (%rbx)
	je	.L598
	movl	12(%r12), %eax
	leal	-1(%rax), %edx
	movl	%edx, 12(%r12)
.L599:
	cmpl	$1, %eax
	jne	.L594
	movq	(%r12), %rax
	movq	%r12, %rdi
	call	*24(%rax)
	jmp	.L594
	.p2align 4,,10
	.p2align 3
.L595:
	movl	$-1, %eax
	lock xaddl	%eax, 8(%r12)
	jmp	.L596
	.p2align 4,,10
	.p2align 3
.L586:
	movl	$-1, %eax
	lock xaddl	%eax, 8(%r12)
	jmp	.L587
	.p2align 4,,10
	.p2align 3
.L589:
	movl	$-1, %eax
	lock xaddl	%eax, 12(%r12)
	jmp	.L590
	.p2align 4,,10
	.p2align 3
.L598:
	movl	$-1, %eax
	lock xaddl	%eax, 12(%r12)
	jmp	.L599
	.cfi_endproc
.LFE10439:
	.size	_ZN8asiodnp318TCPClientIOHandlerD2Ev, .-_ZN8asiodnp318TCPClientIOHandlerD2Ev
	.weak	_ZN8asiodnp318TCPClientIOHandlerD1Ev
	.set	_ZN8asiodnp318TCPClientIOHandlerD1Ev,_ZN8asiodnp318TCPClientIOHandlerD2Ev
	.section	.text._ZN8asiodnp318TCPClientIOHandlerD0Ev,"axG",@progbits,_ZN8asiodnp318TCPClientIOHandlerD5Ev,comdat
	.align 2
	.p2align 4
	.weak	_ZN8asiodnp318TCPClientIOHandlerD0Ev
	.type	_ZN8asiodnp318TCPClientIOHandlerD0Ev, @function
_ZN8asiodnp318TCPClientIOHandlerD0Ev:
.LFB10441:
	.cfi_startproc
	endbr64
	movq	_ZTVN8asiodnp318TCPClientIOHandlerE@GOTPCREL(%rip), %rax
	pushq	%r12
	.cfi_def_cfa_offset 16
	.cfi_offset 12, -16
	pushq	%rbp
	.cfi_def_cfa_offset 24
	.cfi_offset 6, -24
	movq	%rdi, %rbp
	addq	$928, %rdi
	leaq	104(%rax), %rdx
	addq	$16, %rax
	pushq	%rbx
	.cfi_def_cfa_offset 32
	.cfi_offset 3, -32
	movq	%rax, %xmm0
	movq	%rdx, %xmm1
	punpcklqdq	%xmm1, %xmm0
	movups	%xmm0, -928(%rdi)
	call	_ZN7openpal8TimerRefD1Ev@PLT
	movq	920(%rbp), %r12
	testq	%r12, %r12
	je	.L605
	movq	__libc_single_threaded@GOTPCREL(%rip), %rbx
	cmpb	$0, (%rbx)
	je	.L606
	movl	8(%r12), %eax
	leal	-1(%rax), %edx
	movl	%edx, 8(%r12)
.L607:
	cmpl	$1, %eax
	je	.L621
.L605:
	movq	880(%rbp), %rdi
	leaq	896(%rbp), %rax
	cmpq	%rax, %rdi
	je	.L611
	movq	896(%rbp), %rax
	leaq	1(%rax), %rsi
	call	_ZdlPvm@PLT
.L611:
	movq	840(%rbp), %rdi
	leaq	856(%rbp), %rax
	cmpq	%rax, %rdi
	je	.L612
	movq	856(%rbp), %rax
	leaq	1(%rax), %rsi
	call	_ZdlPvm@PLT
.L612:
	movq	808(%rbp), %r12
	testq	%r12, %r12
	je	.L614
	movq	__libc_single_threaded@GOTPCREL(%rip), %rbx
	cmpb	$0, (%rbx)
	je	.L615
	movl	8(%r12), %eax
	leal	-1(%rax), %edx
	movl	%edx, 8(%r12)
.L616:
	cmpl	$1, %eax
	je	.L622
.L614:
	movq	%rbp, %rdi
	call	_ZN8asiodnp39IOHandlerD2Ev@PLT
	popq	%rbx
	.cfi_remember_state
	.cfi_def_cfa_offset 24
	movq	%rbp, %rdi
	movl	$944, %esi
	popq	%rbp
	.cfi_def_cfa_offset 16
	popq	%r12
	.cfi_def_cfa_offset 8
	jmp	_ZdlPvm@PLT
	.p2align 4,,10
	.p2align 3
.L621:
	.cfi_restore_state
	movq	(%r12), %rax
	movq	%r12, %rdi
	call	*16(%rax)
	cmpb	$0, (%rbx)
	je	.L609
	movl	12(%r12), %eax
	leal	-1(%rax), %edx
	movl	%edx, 12(%r12)
.L610:
	cmpl	$1, %eax
	jne	.L605
	movq	(%r12), %rax
	movq	%r12, %rdi
	call	*24(%rax)
	jmp	.L605
	.p2align 4,,10
	.p2align 3
.L622:
	movq	(%r12), %rax
	movq	%r12, %rdi
	call	*16(%rax)
	cmpb	$0, (%rbx)
	je	.L618
	movl	12(%r12), %eax
	leal	-1(%rax), %edx
	movl	%edx, 12(%r12)
.L619:
	cmpl	$1, %eax
	jne	.L614
	movq	(%r12), %rax
	movq	%r12, %rdi
	call	*24(%rax)
	jmp	.L614
	.p2align 4,,10
	.p2align 3
.L615:
	movl	$-1, %eax
	lock xaddl	%eax, 8(%r12)
	jmp	.L616
	.p2align 4,,10
	.p2align 3
.L606:
	movl	$-1, %eax
	lock xaddl	%eax, 8(%r12)
	jmp	.L607
	.p2align 4,,10
	.p2align 3
.L609:
	movl	$-1, %eax
	lock xaddl	%eax, 12(%r12)
	jmp	.L610
	.p2align 4,,10
	.p2align 3
.L618:
	movl	$-1, %eax
	lock xaddl	%eax, 12(%r12)
	jmp	.L619
	.cfi_endproc
.LFE10441:
	.size	_ZN8asiodnp318TCPClientIOHandlerD0Ev, .-_ZN8asiodnp318TCPClientIOHandlerD0Ev
	.p2align 4
	.weak	_ZThn8_N8asiodnp318TCPClientIOHandlerD0Ev
	.type	_ZThn8_N8asiodnp318TCPClientIOHandlerD0Ev, @function
_ZThn8_N8asiodnp318TCPClientIOHandlerD0Ev:
.LFB10678:
	.cfi_startproc
	endbr64
	pushq	%r13
	.cfi_def_cfa_offset 16
	.cfi_offset 13, -16
	pushq	%r12
	.cfi_def_cfa_offset 24
	.cfi_offset 12, -24
	leaq	-8(%rdi), %r12
	pushq	%rbp
	.cfi_def_cfa_offset 32
	.cfi_offset 6, -32
	pushq	%rbx
	.cfi_def_cfa_offset 40
	.cfi_offset 3, -40
	movq	%rdi, %rbx
	addq	$920, %rdi
	subq	$8, %rsp
	.cfi_def_cfa_offset 48
	movq	_ZTVN8asiodnp318TCPClientIOHandlerE@GOTPCREL(%rip), %rax
	leaq	104(%rax), %rdx
	addq	$16, %rax
	movq	%rax, %xmm0
	movq	%rdx, %xmm1
	punpcklqdq	%xmm1, %xmm0
	movups	%xmm0, -928(%rdi)
	call	_ZN7openpal8TimerRefD1Ev@PLT
	movq	912(%rbx), %rbp
	testq	%rbp, %rbp
	je	.L625
	movq	__libc_single_threaded@GOTPCREL(%rip), %r13
	cmpb	$0, 0(%r13)
	je	.L626
	movl	8(%rbp), %eax
	leal	-1(%rax), %edx
	movl	%edx, 8(%rbp)
.L627:
	cmpl	$1, %eax
	je	.L641
.L625:
	movq	872(%rbx), %rdi
	leaq	888(%rbx), %rax
	cmpq	%rax, %rdi
	je	.L631
	movq	888(%rbx), %rax
	leaq	1(%rax), %rsi
	call	_ZdlPvm@PLT
.L631:
	movq	832(%rbx), %rdi
	leaq	848(%rbx), %rax
	cmpq	%rax, %rdi
	je	.L632
	movq	848(%rbx), %rax
	leaq	1(%rax), %rsi
	call	_ZdlPvm@PLT
.L632:
	movq	800(%rbx), %rbp
	testq	%rbp, %rbp
	je	.L634
	movq	__libc_single_threaded@GOTPCREL(%rip), %r13
	cmpb	$0, 0(%r13)
	je	.L635
	movl	8(%rbp), %eax
	leal	-1(%rax), %edx
	movl	%edx, 8(%rbp)
.L636:
	cmpl	$1, %eax
	je	.L642
.L634:
	movq	%r12, %rdi
	call	_ZN8asiodnp39IOHandlerD2Ev@PLT
	addq	$8, %rsp
	.cfi_remember_state
	.cfi_def_cfa_offset 40
	movq	%r12, %rdi
	movl	$944, %esi
	popq	%rbx
	.cfi_def_cfa_offset 32
	popq	%rbp
	.cfi_def_cfa_offset 24
	popq	%r12
	.cfi_def_cfa_offset 16
	popq	%r13
	.cfi_def_cfa_offset 8
	jmp	_ZdlPvm@PLT
	.p2align 4,,10
	.p2align 3
.L641:
	.cfi_restore_state
	movq	0(%rbp), %rax
	movq	%rbp, %rdi
	call	*16(%rax)
	cmpb	$0, 0(%r13)
	je	.L629
	movl	12(%rbp), %eax
	leal	-1(%rax), %edx
	movl	%edx, 12(%rbp)
.L630:
	cmpl	$1, %eax
	jne	.L625
	movq	0(%rbp), %rax
	movq	%rbp, %rdi
	call	*24(%rax)
	jmp	.L625
	.p2align 4,,10
	.p2align 3
.L642:
	movq	0(%rbp), %rax
	movq	%rbp, %rdi
	call	*16(%rax)
	cmpb	$0, 0(%r13)
	je	.L638
	movl	12(%rbp), %eax
	leal	-1(%rax), %edx
	movl	%edx, 12(%rbp)
.L639:
	cmpl	$1, %eax
	jne	.L634
	movq	0(%rbp), %rax
	movq	%rbp, %rdi
	call	*24(%rax)
	jmp	.L634
	.p2align 4,,10
	.p2align 3
.L635:
	movl	$-1, %eax
	lock xaddl	%eax, 8(%rbp)
	jmp	.L636
	.p2align 4,,10
	.p2align 3
.L626:
	movl	$-1, %eax
	lock xaddl	%eax, 8(%rbp)
	jmp	.L627
	.p2align 4,,10
	.p2align 3
.L629:
	movl	$-1, %eax
	lock xaddl	%eax, 12(%rbp)
	jmp	.L630
	.p2align 4,,10
	.p2align 3
.L638:
	movl	$-1, %eax
	lock xaddl	%eax, 12(%rbp)
	jmp	.L639
	.cfi_endproc
.LFE10678:
	.size	_ZThn8_N8asiodnp318TCPClientIOHandlerD0Ev, .-_ZThn8_N8asiodnp318TCPClientIOHandlerD0Ev
	.section	.text._ZN8asiodnp318TCPClientIOHandlerD2Ev,"axG",@progbits,_ZN8asiodnp318TCPClientIOHandlerD5Ev,comdat
	.p2align 4
	.weak	_ZThn8_N8asiodnp318TCPClientIOHandlerD1Ev
	.type	_ZThn8_N8asiodnp318TCPClientIOHandlerD1Ev, @function
_ZThn8_N8asiodnp318TCPClientIOHandlerD1Ev:
.LFB10679:
	.cfi_startproc
	endbr64
	pushq	%r13
	.cfi_def_cfa_offset 16
	.cfi_offset 13, -16
	pushq	%r12
	.cfi_def_cfa_offset 24
	.cfi_offset 12, -24
	leaq	-8(%rdi), %r12
	pushq	%rbp
	.cfi_def_cfa_offset 32
	.cfi_offset 6, -32
	pushq	%rbx
	.cfi_def_cfa_offset 40
	.cfi_offset 3, -40
	movq	%rdi, %rbx
	addq	$920, %rdi
	subq	$8, %rsp
	.cfi_def_cfa_offset 48
	movq	_ZTVN8asiodnp318TCPClientIOHandlerE@GOTPCREL(%rip), %rax
	leaq	104(%rax), %rdx
	addq	$16, %rax
	movq	%rax, %xmm0
	movq	%rdx, %xmm1
	punpcklqdq	%xmm1, %xmm0
	movups	%xmm0, -928(%rdi)
	call	_ZN7openpal8TimerRefD1Ev@PLT
	movq	912(%rbx), %rbp
	testq	%rbp, %rbp
	je	.L645
	movq	__libc_single_threaded@GOTPCREL(%rip), %r13
	cmpb	$0, 0(%r13)
	je	.L646
	movl	8(%rbp), %eax
	leal	-1(%rax), %edx
	movl	%edx, 8(%rbp)
.L647:
	cmpl	$1, %eax
	je	.L661
.L645:
	movq	872(%rbx), %rdi
	leaq	888(%rbx), %rax
	cmpq	%rax, %rdi
	je	.L651
	movq	888(%rbx), %rax
	leaq	1(%rax), %rsi
	call	_ZdlPvm@PLT
.L651:
	movq	832(%rbx), %rdi
	leaq	848(%rbx), %rax
	cmpq	%rax, %rdi
	je	.L652
	movq	848(%rbx), %rax
	leaq	1(%rax), %rsi
	call	_ZdlPvm@PLT
.L652:
	movq	800(%rbx), %rbp
	testq	%rbp, %rbp
	je	.L654
	movq	__libc_single_threaded@GOTPCREL(%rip), %r13
	cmpb	$0, 0(%r13)
	je	.L655
	movl	8(%rbp), %eax
	leal	-1(%rax), %edx
	movl	%edx, 8(%rbp)
.L656:
	cmpl	$1, %eax
	je	.L662
.L654:
	addq	$8, %rsp
	.cfi_remember_state
	.cfi_def_cfa_offset 40
	movq	%r12, %rdi
	popq	%rbx
	.cfi_def_cfa_offset 32
	popq	%rbp
	.cfi_def_cfa_offset 24
	popq	%r12
	.cfi_def_cfa_offset 16
	popq	%r13
	.cfi_def_cfa_offset 8
	jmp	_ZN8asiodnp39IOHandlerD2Ev@PLT
	.p2align 4,,10
	.p2align 3
.L661:
	.cfi_restore_state
	movq	0(%rbp), %rax
	movq	%rbp, %rdi
	call	*16(%rax)
	cmpb	$0, 0(%r13)
	je	.L649
	movl	12(%rbp), %eax
	leal	-1(%rax), %edx
	movl	%edx, 12(%rbp)
.L650:
	cmpl	$1, %eax
	jne	.L645
	movq	0(%rbp), %rax
	movq	%rbp, %rdi
	call	*24(%rax)
	jmp	.L645
	.p2align 4,,10
	.p2align 3
.L662:
	movq	0(%rbp), %rax
	movq	%rbp, %rdi
	call	*16(%rax)
	cmpb	$0, 0(%r13)
	je	.L658
	movl	12(%rbp), %eax
	leal	-1(%rax), %edx
	movl	%edx, 12(%rbp)
.L659:
	cmpl	$1, %eax
	jne	.L654
	movq	0(%rbp), %rax
	movq	%rbp, %rdi
	call	*24(%rax)
	jmp	.L654
	.p2align 4,,10
	.p2align 3
.L655:
	movl	$-1, %eax
	lock xaddl	%eax, 8(%rbp)
	jmp	.L656
	.p2align 4,,10
	.p2align 3
.L646:
	movl	$-1, %eax
	lock xaddl	%eax, 8(%rbp)
	jmp	.L647
	.p2align 4,,10
	.p2align 3
.L649:
	movl	$-1, %eax
	lock xaddl	%eax, 12(%rbp)
	jmp	.L650
	.p2align 4,,10
	.p2align 3
.L658:
	movl	$-1, %eax
	lock xaddl	%eax, 12(%rbp)
	jmp	.L659
	.cfi_endproc
.LFE10679:
	.size	_ZThn8_N8asiodnp318TCPClientIOHandlerD1Ev, .-_ZThn8_N8asiodnp318TCPClientIOHandlerD1Ev
	.section	.text._ZN8asiodnp39IOHandlerD0Ev,"axG",@progbits,_ZN8asiodnp39IOHandlerD5Ev,comdat
	.align 2
	.p2align 4
	.weak	_ZN8asiodnp39IOHandlerD0Ev
	.type	_ZN8asiodnp39IOHandlerD0Ev, @function
_ZN8asiodnp39IOHandlerD0Ev:
.LFB7654:
	.cfi_startproc
	endbr64
	pushq	%rbp
	.cfi_def_cfa_offset 16
	.cfi_offset 6, -16
	movq	%rdi, %rbp
	call	_ZN8asiodnp39IOHandlerD1Ev@PLT
	movq	%rbp, %rdi
	movl	$800, %esi
	popq	%rbp
	.cfi_def_cfa_offset 8
	jmp	_ZdlPvm@PLT
	.cfi_endproc
.LFE7654:
	.size	_ZN8asiodnp39IOHandlerD0Ev, .-_ZN8asiodnp39IOHandlerD0Ev
	.p2align 4
	.weak	_ZThn8_N8asiodnp39IOHandlerD0Ev
	.type	_ZThn8_N8asiodnp39IOHandlerD0Ev, @function
_ZThn8_N8asiodnp39IOHandlerD0Ev:
.LFB10677:
	.cfi_startproc
	endbr64
	pushq	%rbp
	.cfi_def_cfa_offset 16
	.cfi_offset 6, -16
	leaq	-8(%rdi), %rbp
	movq	%rbp, %rdi
	call	_ZN8asiodnp39IOHandlerD1Ev@PLT
	movq	%rbp, %rdi
	movl	$800, %esi
	popq	%rbp
	.cfi_def_cfa_offset 8
	jmp	_ZdlPvm@PLT
	.cfi_endproc
.LFE10677:
	.size	_ZThn8_N8asiodnp39IOHandlerD0Ev, .-_ZThn8_N8asiodnp39IOHandlerD0Ev
	.section	.rodata.str1.1,"aMS",@progbits,1
.LC23:
	.string	"Connecting to: %s"
	.section	.rodata.str1.8,"aMS",@progbits,1
	.align 8
.LC24:
	.string	"/home/saptarshi/Desktop/OpenPLC61850/utils/dnp3_src/cpp/libs/src/asiodnp3/TCPClientIOHandler.cpp(70)"
	.section	.text.unlikely
	.align 2
.LCOLDB25:
	.text
.LHOTB25:
	.align 2
	.p2align 4
	.globl	_ZN8asiodnp318TCPClientIOHandler12StartConnectERKSt10shared_ptrIN7asiopal9TCPClientEERKN7openpal12TimeDurationE
	.type	_ZN8asiodnp318TCPClientIOHandler12StartConnectERKSt10shared_ptrIN7asiopal9TCPClientEERKN7openpal12TimeDurationE, @function
_ZN8asiodnp318TCPClientIOHandler12StartConnectERKSt10shared_ptrIN7asiopal9TCPClientEERKN7openpal12TimeDurationE:
.LFB7742:
	.cfi_startproc
	.cfi_personality 0x9b,DW.ref.__gxx_personality_v0
	.cfi_lsda 0x1b,.LLSDA7742
	endbr64
	pushq	%r15
	.cfi_def_cfa_offset 16
	.cfi_offset 15, -16
	pushq	%r14
	.cfi_def_cfa_offset 24
	.cfi_offset 14, -24
	pushq	%r13
	.cfi_def_cfa_offset 32
	.cfi_offset 13, -32
	movq	%rsi, %r13
	pushq	%r12
	.cfi_def_cfa_offset 40
	.cfi_offset 12, -40
	leaq	32(%rdi), %r12
	pushq	%rbp
	.cfi_def_cfa_offset 48
	.cfi_offset 6, -48
	movq	%rdx, %rbp
	pushq	%rbx
	.cfi_def_cfa_offset 56
	.cfi_offset 3, -56
	movq	%rdi, %rbx
	movq	%r12, %rdi
	subq	$216, %rsp
	.cfi_def_cfa_offset 272
	movq	%fs:40, %rax
	movq	%rax, 200(%rsp)
	xorl	%eax, %eax
	leaq	44(%rsp), %r14
	movl	$8, 44(%rsp)
	movq	%r14, %rsi
.LEHB0:
	call	_ZNK7openpal6Logger9IsEnabledERKNS_10LogFiltersE@PLT
.LEHE0:
	testb	%al, %al
	jne	.L742
.L668:
	movq	24(%rbx), %r12
	testq	%r12, %r12
	je	.L669
	leaq	8(%r12), %rax
	movq	%rax, 8(%rsp)
	movl	8(%r12), %eax
.L671:
	testl	%eax, %eax
	je	.L669
	movq	8(%rsp), %rcx
	leal	1(%rax), %edx
	lock cmpxchgl	%edx, (%rcx)
	jne	.L671
	movq	16(%rbx), %rax
	movq	0(%rbp), %r14
	movq	8(%r13), %rbp
	movq	%rax, 16(%rsp)
	movq	0(%r13), %rax
	movq	__libc_single_threaded@GOTPCREL(%rip), %r13
	movq	%rax, 24(%rsp)
	testq	%rbp, %rbp
	je	.L673
	cmpb	$0, 0(%r13)
	je	.L672
	addl	$1, 8(%rbp)
.L673:
	pxor	%xmm0, %xmm0
	movl	$48, %edi
	movq	$0, 64(%rsp)
	movq	912(%rbx), %r15
	movq	$0, 72(%rsp)
	movaps	%xmm0, 48(%rsp)
.LEHB1:
	call	_Znwm@PLT
.LEHE1:
	movq	%r12, %xmm3
	movq	%rbp, %xmm2
	cmpb	$0, 0(%r13)
	movq	16(%rsp), %xmm1
	movq	24(%rsp), %xmm0
	punpcklqdq	%xmm3, %xmm1
	punpcklqdq	%xmm2, %xmm0
	movups	%xmm1, (%rax)
	je	.L674
	addl	$1, 8(%r12)
.L675:
	movq	%rbx, 16(%rax)
	movq	%r14, 24(%rax)
	movups	%xmm0, 32(%rax)
	testq	%rbp, %rbp
	je	.L676
	cmpb	$0, 0(%r13)
	je	.L677
	addl	$1, 8(%rbp)
.L676:
	movq	%rax, 48(%rsp)
	leaq	_ZNSt17_Function_handlerIFvRKSt10shared_ptrIN7asiopal8ExecutorEEN4asio19basic_stream_socketINS6_2ip3tcpENS6_21stream_socket_serviceIS9_EEEERKSt10error_codeEZN8asiodnp318TCPClientIOHandler12StartConnectERKS0_INS1_9TCPClientEERKN7openpal12TimeDurationEEUlS5_SC_SF_E_E10_M_managerERSt9_Any_dataRKST_St18_Manager_operation(%rip), %rcx
	leaq	_ZNSt17_Function_handlerIFvRKSt10shared_ptrIN7asiopal8ExecutorEEN4asio19basic_stream_socketINS6_2ip3tcpENS6_21stream_socket_serviceIS9_EEEERKSt10error_codeEZN8asiodnp318TCPClientIOHandler12StartConnectERKS0_INS1_9TCPClientEERKN7openpal12TimeDurationEEUlS5_SC_SF_E_E9_M_invokeERKSt9_Any_dataS5_OSC_SF_(%rip), %rax
	movq	%r15, %rdi
	movq	%rcx, %xmm0
	movq	%rax, %xmm4
	leaq	48(%rsp), %r14
	punpcklqdq	%xmm4, %xmm0
	movq	%r14, %rsi
	movaps	%xmm0, 64(%rsp)
.LEHB2:
	call	_ZN7asiopal9TCPClient12BeginConnectERKSt8functionIFvRKSt10shared_ptrINS_8ExecutorEEN4asio19basic_stream_socketINS7_2ip3tcpENS7_21stream_socket_serviceISA_EEEERKSt10error_codeEE@PLT
.LEHE2:
	movq	64(%rsp), %rax
	testq	%rax, %rax
	je	.L682
	movl	$3, %edx
	movq	%r14, %rsi
	movq	%r14, %rdi
	call	*%rax
.L682:
	movzbl	0(%r13), %eax
	testq	%rbp, %rbp
	je	.L684
	testb	%al, %al
	je	.L685
	movl	8(%rbp), %eax
	leal	-1(%rax), %edx
	movl	%edx, 8(%rbp)
.L686:
	cmpl	$1, %eax
	je	.L743
.L684:
	cmpb	$0, 0(%r13)
	je	.L690
	movl	8(%r12), %eax
	leal	-1(%rax), %edx
	movl	%edx, 8(%r12)
	cmpl	$1, %eax
	je	.L744
.L667:
	movq	200(%rsp), %rax
	subq	%fs:40, %rax
	jne	.L741
	addq	$216, %rsp
	.cfi_remember_state
	.cfi_def_cfa_offset 56
	popq	%rbx
	.cfi_def_cfa_offset 48
	popq	%rbp
	.cfi_def_cfa_offset 40
	popq	%r12
	.cfi_def_cfa_offset 32
	popq	%r13
	.cfi_def_cfa_offset 24
	popq	%r14
	.cfi_def_cfa_offset 16
	popq	%r15
	.cfi_def_cfa_offset 8
	ret
	.p2align 4,,10
	.p2align 3
.L677:
	.cfi_restore_state
	lock addl	$1, 8(%rbp)
	jmp	.L676
	.p2align 4,,10
	.p2align 3
.L672:
	lock addl	$1, 8(%rbp)
	jmp	.L673
	.p2align 4,,10
	.p2align 3
.L742:
	leaq	80(%rsp), %r15
	movq	840(%rbx), %r9
	movl	$120, %ecx
	xorl	%eax, %eax
	movq	%r15, %rdi
	movl	$1, %edx
	movl	$120, %esi
	leaq	.LC23(%rip), %r8
	call	__snprintf_chk@PLT
	movq	%r15, %rcx
	movq	%r14, %rsi
	movq	%r12, %rdi
	leaq	.LC24(%rip), %rdx
	movl	$8, 44(%rsp)
.LEHB3:
	call	_ZN7openpal6Logger3LogERKNS_10LogFiltersEPKcS5_@PLT
.LEHE3:
	jmp	.L668
	.p2align 4,,10
	.p2align 3
.L674:
	lock addl	$1, 8(%r12)
	jmp	.L675
	.p2align 4,,10
	.p2align 3
.L743:
	movq	0(%rbp), %rax
	movq	%rbp, %rdi
	call	*16(%rax)
	cmpb	$0, 0(%r13)
	je	.L688
	movl	12(%rbp), %eax
	leal	-1(%rax), %edx
	movl	%edx, 12(%rbp)
.L689:
	cmpl	$1, %eax
	jne	.L684
	movq	0(%rbp), %rax
	movq	%rbp, %rdi
	call	*24(%rax)
	jmp	.L684
	.p2align 4,,10
	.p2align 3
.L744:
	movq	(%r12), %rax
	movq	%r12, %rdi
	call	*16(%rax)
	cmpb	$0, 0(%r13)
	je	.L694
	movl	12(%r12), %eax
	leal	-1(%rax), %edx
	movl	%edx, 12(%r12)
.L695:
	cmpl	$1, %eax
	jne	.L667
	movq	200(%rsp), %rax
	subq	%fs:40, %rax
	jne	.L741
	movq	(%r12), %rax
	movq	%r12, %rdi
	movq	24(%rax), %rax
	addq	$216, %rsp
	.cfi_remember_state
	.cfi_def_cfa_offset 56
	popq	%rbx
	.cfi_def_cfa_offset 48
	popq	%rbp
	.cfi_def_cfa_offset 40
	popq	%r12
	.cfi_def_cfa_offset 32
	popq	%r13
	.cfi_def_cfa_offset 24
	popq	%r14
	.cfi_def_cfa_offset 16
	popq	%r15
	.cfi_def_cfa_offset 8
	jmp	*%rax
	.p2align 4,,10
	.p2align 3
.L685:
	.cfi_restore_state
	movl	$-1, %eax
	lock xaddl	%eax, 8(%rbp)
	jmp	.L686
	.p2align 4,,10
	.p2align 3
.L690:
	movq	8(%rsp), %rcx
	movl	$-1, %eax
	lock xaddl	%eax, (%rcx)
	cmpl	$1, %eax
	jne	.L667
	jmp	.L744
	.p2align 4,,10
	.p2align 3
.L688:
	movl	$-1, %eax
	lock xaddl	%eax, 12(%rbp)
	jmp	.L689
	.p2align 4,,10
	.p2align 3
.L694:
	movl	$-1, %eax
	lock xaddl	%eax, 12(%r12)
	jmp	.L695
.L741:
	call	__stack_chk_fail@PLT
.L716:
	endbr64
	movq	%rax, %rbx
	jmp	.L698
.L717:
	endbr64
	movq	%rax, %r14
	jmp	.L679
	.section	.gcc_except_table,"a",@progbits
.LLSDA7742:
	.byte	0xff
	.byte	0xff
	.byte	0x1
	.uleb128 .LLSDACSE7742-.LLSDACSB7742
.LLSDACSB7742:
	.uleb128 .LEHB0-.LFB7742
	.uleb128 .LEHE0-.LEHB0
	.uleb128 0
	.uleb128 0
	.uleb128 .LEHB1-.LFB7742
	.uleb128 .LEHE1-.LEHB1
	.uleb128 .L717-.LFB7742
	.uleb128 0
	.uleb128 .LEHB2-.LFB7742
	.uleb128 .LEHE2-.LEHB2
	.uleb128 .L716-.LFB7742
	.uleb128 0
	.uleb128 .LEHB3-.LFB7742
	.uleb128 .LEHE3-.LEHB3
	.uleb128 0
	.uleb128 0
.LLSDACSE7742:
	.text
	.cfi_endproc
	.section	.text.unlikely
	.cfi_startproc
	.cfi_personality 0x9b,DW.ref.__gxx_personality_v0
	.cfi_lsda 0x1b,.LLSDAC7742
	.type	_ZN8asiodnp318TCPClientIOHandler12StartConnectERKSt10shared_ptrIN7asiopal9TCPClientEERKN7openpal12TimeDurationE.cold, @function
_ZN8asiodnp318TCPClientIOHandler12StartConnectERKSt10shared_ptrIN7asiopal9TCPClientEERKN7openpal12TimeDurationE.cold:
.LFSB7742:
.L669:
	.cfi_def_cfa_offset 272
	.cfi_offset 3, -56
	.cfi_offset 6, -48
	.cfi_offset 12, -40
	.cfi_offset 13, -32
	.cfi_offset 14, -24
	.cfi_offset 15, -16
	movl	$8, %edi
	call	__cxa_allocate_exception@PLT
	movq	_ZNSt12bad_weak_ptrD1Ev@GOTPCREL(%rip), %rdx
	movq	_ZTISt12bad_weak_ptr@GOTPCREL(%rip), %rsi
	movq	%rax, %rdi
	movq	_ZTVSt12bad_weak_ptr@GOTPCREL(%rip), %rax
	addq	$16, %rax
	movq	%rax, (%rdi)
.LEHB4:
	call	__cxa_throw@PLT
.LEHE4:
.L698:
	movq	64(%rsp), %rax
	testq	%rax, %rax
	je	.L699
	movl	$3, %edx
	movq	%r14, %rsi
	movq	%r14, %rdi
	call	*%rax
.L699:
	movq	%rbx, %r14
.L681:
	movzbl	0(%r13), %eax
	testq	%rbp, %rbp
	je	.L701
	leaq	8(%rbp), %rdx
	testb	%al, %al
	je	.L702
	movl	8(%rbp), %eax
	leal	-1(%rax), %edx
	movl	%edx, 8(%rbp)
.L703:
	subl	$1, %eax
	jne	.L701
	movq	0(%rbp), %rax
	movq	%rbp, %rdi
	call	*16(%rax)
	cmpb	$0, 0(%r13)
	leaq	12(%rbp), %rdx
	je	.L705
	movl	12(%rbp), %eax
	leal	-1(%rax), %edx
	movl	%edx, 12(%rbp)
.L706:
	subl	$1, %eax
	jne	.L701
	movq	0(%rbp), %rax
	movq	%rbp, %rdi
	call	*24(%rax)
.L701:
	cmpb	$0, 0(%r13)
	je	.L707
	movl	8(%r12), %eax
	leal	-1(%rax), %edx
	movl	%edx, 8(%r12)
.L708:
	subl	$1, %eax
	jne	.L710
	movq	(%r12), %rax
	movq	%r12, %rdi
	call	*16(%rax)
	cmpb	$0, 0(%r13)
	leaq	12(%r12), %rdx
	je	.L711
	movl	12(%r12), %eax
	leal	-1(%rax), %edx
	movl	%edx, 12(%r12)
.L712:
	subl	$1, %eax
	jne	.L710
	movq	(%r12), %rax
	movq	%r12, %rdi
	call	*24(%rax)
.L710:
	movq	%r14, %rdi
.LEHB5:
	call	_Unwind_Resume@PLT
.LEHE5:
.L679:
	movq	64(%rsp), %rax
	testq	%rax, %rax
	je	.L681
	leaq	48(%rsp), %rdi
	movl	$3, %edx
	movq	%rdi, %rsi
	call	*%rax
	jmp	.L681
.L707:
	movq	8(%rsp), %rcx
	orl	$-1, %eax
	lock xaddl	%eax, (%rcx)
	jmp	.L708
.L702:
	orl	$-1, %eax
	lock xaddl	%eax, (%rdx)
	jmp	.L703
.L711:
	orl	$-1, %eax
	lock xaddl	%eax, (%rdx)
	jmp	.L712
.L705:
	orl	$-1, %eax
	lock xaddl	%eax, (%rdx)
	jmp	.L706
	.cfi_endproc
.LFE7742:
	.section	.gcc_except_table
.LLSDAC7742:
	.byte	0xff
	.byte	0xff
	.byte	0x1
	.uleb128 .LLSDACSEC7742-.LLSDACSBC7742
.LLSDACSBC7742:
	.uleb128 .LEHB4-.LCOLDB25
	.uleb128 .LEHE4-.LEHB4
	.uleb128 0
	.uleb128 0
	.uleb128 .LEHB5-.LCOLDB25
	.uleb128 .LEHE5-.LEHB5
	.uleb128 0
	.uleb128 0
.LLSDACSEC7742:
	.section	.text.unlikely
	.text
	.size	_ZN8asiodnp318TCPClientIOHandler12StartConnectERKSt10shared_ptrIN7asiopal9TCPClientEERKN7openpal12TimeDurationE, .-_ZN8asiodnp318TCPClientIOHandler12StartConnectERKSt10shared_ptrIN7asiopal9TCPClientEERKN7openpal12TimeDurationE
	.section	.text.unlikely
	.size	_ZN8asiodnp318TCPClientIOHandler12StartConnectERKSt10shared_ptrIN7asiopal9TCPClientEERKN7openpal12TimeDurationE.cold, .-_ZN8asiodnp318TCPClientIOHandler12StartConnectERKSt10shared_ptrIN7asiopal9TCPClientEERKN7openpal12TimeDurationE.cold
.LCOLDE25:
	.text
.LHOTE25:
	.p2align 4
	.type	_ZNSt17_Function_handlerIFvvEZN7openpal8TimerRef5StartIZZN8asiodnp318TCPClientIOHandler12StartConnectERKSt10shared_ptrIN7asiopal9TCPClientEERKNS1_12TimeDurationEENKUlRKS6_INS7_8ExecutorEEN4asio19basic_stream_socketINSJ_2ip3tcpENSJ_21stream_socket_serviceISM_EEEERKSt10error_codeE_clESI_SP_SS_EUlvE_EEbSE_RKT_EUlvE_E9_M_invokeERKSt9_Any_data, @function
_ZNSt17_Function_handlerIFvvEZN7openpal8TimerRef5StartIZZN8asiodnp318TCPClientIOHandler12StartConnectERKSt10shared_ptrIN7asiopal9TCPClientEERKNS1_12TimeDurationEENKUlRKS6_INS7_8ExecutorEEN4asio19basic_stream_socketINSJ_2ip3tcpENSJ_21stream_socket_serviceISM_EEEERKSt10error_codeE_clESI_SP_SS_EUlvE_EEbSE_RKT_EUlvE_E9_M_invokeERKSt9_Any_data:
.LFB9513:
	.cfi_startproc
	endbr64
	movq	(%rdi), %rax
	movq	(%rax), %rdx
	movq	48(%rax), %rdi
	leaq	32(%rax), %rsi
	movq	$0, 8(%rdx)
	leaq	24(%rax), %rdx
	jmp	_ZN8asiodnp318TCPClientIOHandler12StartConnectERKSt10shared_ptrIN7asiopal9TCPClientEERKN7openpal12TimeDurationE@PLT
	.cfi_endproc
.LFE9513:
	.size	_ZNSt17_Function_handlerIFvvEZN7openpal8TimerRef5StartIZZN8asiodnp318TCPClientIOHandler12StartConnectERKSt10shared_ptrIN7asiopal9TCPClientEERKNS1_12TimeDurationEENKUlRKS6_INS7_8ExecutorEEN4asio19basic_stream_socketINSJ_2ip3tcpENSJ_21stream_socket_serviceISM_EEEERKSt10error_codeE_clESI_SP_SS_EUlvE_EEbSE_RKT_EUlvE_E9_M_invokeERKSt9_Any_data, .-_ZNSt17_Function_handlerIFvvEZN7openpal8TimerRef5StartIZZN8asiodnp318TCPClientIOHandler12StartConnectERKSt10shared_ptrIN7asiopal9TCPClientEERKNS1_12TimeDurationEENKUlRKS6_INS7_8ExecutorEEN4asio19basic_stream_socketINSJ_2ip3tcpENSJ_21stream_socket_serviceISM_EEEERKSt10error_codeE_clESI_SP_SS_EUlvE_EEbSE_RKT_EUlvE_E9_M_invokeERKSt9_Any_data
	.section	.text.unlikely
	.align 2
.LCOLDB27:
	.text
.LHOTB27:
	.align 2
	.p2align 4
	.globl	_ZN8asiodnp318TCPClientIOHandler18BeginChannelAcceptEv
	.type	_ZN8asiodnp318TCPClientIOHandler18BeginChannelAcceptEv, @function
_ZN8asiodnp318TCPClientIOHandler18BeginChannelAcceptEv:
.LFB7739:
	.cfi_startproc
	.cfi_personality 0x9b,DW.ref.__gxx_personality_v0
	.cfi_lsda 0x1b,.LLSDA7739
	endbr64
	pushq	%r12
	.cfi_def_cfa_offset 16
	.cfi_offset 12, -16
	pushq	%rbp
	.cfi_def_cfa_offset 24
	.cfi_offset 6, -24
	movq	%rdi, %rbp
	movl	$264, %edi
	pushq	%rbx
	.cfi_def_cfa_offset 32
	.cfi_offset 3, -32
	subq	$16, %rsp
	.cfi_def_cfa_offset 48
.LEHB6:
	call	_Znwm@PLT
.LEHE6:
	leaq	840(%rbp), %rcx
	leaq	32(%rbp), %rsi
	movq	%rax, %r12
	movq	.LC26(%rip), %rax
	leaq	800(%rbp), %rdx
	leaq	880(%rbp), %r8
	leaq	16(%r12), %rbx
	movq	%r12, %xmm1
	movq	%rax, 8(%r12)
	movq	_ZTVSt23_Sp_counted_ptr_inplaceIN7asiopal9TCPClientESaIS1_ELN9__gnu_cxx12_Lock_policyE2EE@GOTPCREL(%rip), %rax
	movq	%rbx, %xmm0
	movq	%rbx, %rdi
	punpcklqdq	%xmm1, %xmm0
	addq	$16, %rax
	movaps	%xmm0, (%rsp)
	movq	%rax, (%r12)
.LEHB7:
	call	_ZN7asiopal9TCPClientC1ERKN7openpal6LoggerERKSt10shared_ptrINS_8ExecutorEERKNS_10IPEndpointERKNSt7__cxx1112basic_stringIcSt11char_traitsIcESaIcEEE@PLT
.LEHE7:
	movq	24(%r12), %rdi
	testq	%rdi, %rdi
	je	.L748
	movl	8(%rdi), %eax
	testl	%eax, %eax
	je	.L748
.L750:
	movq	920(%rbp), %r12
	movdqa	(%rsp), %xmm2
	leaq	912(%rbp), %rsi
	movups	%xmm2, 912(%rbp)
	testq	%r12, %r12
	je	.L757
	movq	__libc_single_threaded@GOTPCREL(%rip), %rbx
	cmpb	$0, (%rbx)
	je	.L758
	movl	8(%r12), %eax
	leal	-1(%rax), %edx
	movl	%edx, 8(%r12)
.L759:
	cmpl	$1, %eax
	je	.L774
.L757:
	addq	$16, %rsp
	.cfi_remember_state
	.cfi_def_cfa_offset 32
	leaq	816(%rbp), %rdx
	movq	%rbp, %rdi
	popq	%rbx
	.cfi_def_cfa_offset 24
	popq	%rbp
	.cfi_def_cfa_offset 16
	popq	%r12
	.cfi_def_cfa_offset 8
.LEHB8:
	jmp	_ZN8asiodnp318TCPClientIOHandler12StartConnectERKSt10shared_ptrIN7asiopal9TCPClientEERKN7openpal12TimeDurationE@PLT
.LEHE8:
	.p2align 4,,10
	.p2align 3
.L748:
	.cfi_restore_state
	movq	__libc_single_threaded@GOTPCREL(%rip), %rax
	movq	%rbx, 16(%r12)
	cmpb	$0, (%rax)
	je	.L775
	addl	$1, 12(%r12)
	testq	%rdi, %rdi
	je	.L752
.L751:
	movl	12(%rdi), %eax
	leal	-1(%rax), %edx
	movl	%edx, 12(%rdi)
.L755:
	cmpl	$1, %eax
	jne	.L752
	movq	(%rdi), %rax
	call	*24(%rax)
	.p2align 4,,10
	.p2align 3
.L752:
	movq	%r12, 24(%r12)
	jmp	.L750
	.p2align 4,,10
	.p2align 3
.L775:
	lock addl	$1, 12(%r12)
	movq	24(%r12), %rdi
	testq	%rdi, %rdi
	je	.L752
	cmpb	$0, (%rax)
	jne	.L751
	movl	$-1, %eax
	lock xaddl	%eax, 12(%rdi)
	jmp	.L755
	.p2align 4,,10
	.p2align 3
.L774:
	movq	(%r12), %rax
	movq	%rsi, (%rsp)
	movq	%r12, %rdi
	call	*16(%rax)
	cmpb	$0, (%rbx)
	movq	(%rsp), %rsi
	je	.L761
	movl	12(%r12), %eax
	leal	-1(%rax), %edx
	movl	%edx, 12(%r12)
.L762:
	cmpl	$1, %eax
	jne	.L757
	movq	(%r12), %rax
	movq	%rsi, (%rsp)
	movq	%r12, %rdi
	call	*24(%rax)
	movq	(%rsp), %rsi
	jmp	.L757
	.p2align 4,,10
	.p2align 3
.L758:
	movl	$-1, %eax
	lock xaddl	%eax, 8(%r12)
	jmp	.L759
	.p2align 4,,10
	.p2align 3
.L761:
	movl	$-1, %eax
	lock xaddl	%eax, 12(%r12)
	jmp	.L762
.L765:
	endbr64
	movq	%rax, %rbp
	jmp	.L749
	.section	.gcc_except_table
.LLSDA7739:
	.byte	0xff
	.byte	0xff
	.byte	0x1
	.uleb128 .LLSDACSE7739-.LLSDACSB7739
.LLSDACSB7739:
	.uleb128 .LEHB6-.LFB7739
	.uleb128 .LEHE6-.LEHB6
	.uleb128 0
	.uleb128 0
	.uleb128 .LEHB7-.LFB7739
	.uleb128 .LEHE7-.LEHB7
	.uleb128 .L765-.LFB7739
	.uleb128 0
	.uleb128 .LEHB8-.LFB7739
	.uleb128 .LEHE8-.LEHB8
	.uleb128 0
	.uleb128 0
.LLSDACSE7739:
	.text
	.cfi_endproc
	.section	.text.unlikely
	.cfi_startproc
	.cfi_personality 0x9b,DW.ref.__gxx_personality_v0
	.cfi_lsda 0x1b,.LLSDAC7739
	.type	_ZN8asiodnp318TCPClientIOHandler18BeginChannelAcceptEv.cold, @function
_ZN8asiodnp318TCPClientIOHandler18BeginChannelAcceptEv.cold:
.LFSB7739:
.L749:
	.cfi_def_cfa_offset 48
	.cfi_offset 3, -32
	.cfi_offset 6, -24
	.cfi_offset 12, -16
	movq	%r12, %rdi
	movl	$264, %esi
	call	_ZdlPvm@PLT
	movq	%rbp, %rdi
.LEHB9:
	call	_Unwind_Resume@PLT
.LEHE9:
	.cfi_endproc
.LFE7739:
	.section	.gcc_except_table
.LLSDAC7739:
	.byte	0xff
	.byte	0xff
	.byte	0x1
	.uleb128 .LLSDACSEC7739-.LLSDACSBC7739
.LLSDACSBC7739:
	.uleb128 .LEHB9-.LCOLDB27
	.uleb128 .LEHE9-.LEHB9
	.uleb128 0
	.uleb128 0
.LLSDACSEC7739:
	.section	.text.unlikely
	.text
	.size	_ZN8asiodnp318TCPClientIOHandler18BeginChannelAcceptEv, .-_ZN8asiodnp318TCPClientIOHandler18BeginChannelAcceptEv
	.section	.text.unlikely
	.size	_ZN8asiodnp318TCPClientIOHandler18BeginChannelAcceptEv.cold, .-_ZN8asiodnp318TCPClientIOHandler18BeginChannelAcceptEv.cold
.LCOLDE27:
	.text
.LHOTE27:
	.align 2
	.p2align 4
	.globl	_ZN8asiodnp318TCPClientIOHandler17OnChannelShutdownEv
	.type	_ZN8asiodnp318TCPClientIOHandler17OnChannelShutdownEv, @function
_ZN8asiodnp318TCPClientIOHandler17OnChannelShutdownEv:
.LFB7741:
	.cfi_startproc
	endbr64
	jmp	_ZN8asiodnp318TCPClientIOHandler18BeginChannelAcceptEv@PLT
	.cfi_endproc
.LFE7741:
	.size	_ZN8asiodnp318TCPClientIOHandler17OnChannelShutdownEv, .-_ZN8asiodnp318TCPClientIOHandler17OnChannelShutdownEv
	.align 2
	.p2align 4
	.globl	_ZN8asiodnp318TCPClientIOHandler10ResetStateEv
	.type	_ZN8asiodnp318TCPClientIOHandler10ResetStateEv, @function
_ZN8asiodnp318TCPClientIOHandler10ResetStateEv:
.LFB7785:
	.cfi_startproc
	endbr64
	pushq	%r12
	.cfi_def_cfa_offset 16
	.cfi_offset 12, -16
	pushq	%rbp
	.cfi_def_cfa_offset 24
	.cfi_offset 6, -24
	pushq	%rbx
	.cfi_def_cfa_offset 32
	.cfi_offset 3, -32
	movq	%rdi, %rbx
	movq	912(%rdi), %rdi
	testq	%rdi, %rdi
	je	.L779
	call	_ZN7asiopal9TCPClient6CancelEv@PLT
	movq	920(%rbx), %rbp
	pxor	%xmm0, %xmm0
	movups	%xmm0, 912(%rbx)
	testq	%rbp, %rbp
	je	.L779
	movq	__libc_single_threaded@GOTPCREL(%rip), %r12
	cmpb	$0, (%r12)
	je	.L781
	movl	8(%rbp), %eax
	leal	-1(%rax), %edx
	movl	%edx, 8(%rbp)
.L782:
	cmpl	$1, %eax
	jne	.L779
	movq	0(%rbp), %rax
	movq	%rbp, %rdi
	call	*16(%rax)
	cmpb	$0, (%r12)
	je	.L783
	movl	12(%rbp), %eax
	leal	-1(%rax), %edx
	movl	%edx, 12(%rbp)
.L784:
	cmpl	$1, %eax
	je	.L789
.L779:
	leaq	928(%rbx), %rdi
	popq	%rbx
	.cfi_remember_state
	.cfi_def_cfa_offset 24
	popq	%rbp
	.cfi_def_cfa_offset 16
	popq	%r12
	.cfi_def_cfa_offset 8
	jmp	_ZN7openpal8TimerRef6CancelEv@PLT
	.p2align 4,,10
	.p2align 3
.L781:
	.cfi_restore_state
	movl	$-1, %eax
	lock xaddl	%eax, 8(%rbp)
	jmp	.L782
	.p2align 4,,10
	.p2align 3
.L789:
	movq	0(%rbp), %rax
	movq	%rbp, %rdi
	call	*24(%rax)
	jmp	.L779
	.p2align 4,,10
	.p2align 3
.L783:
	movl	$-1, %eax
	lock xaddl	%eax, 12(%rbp)
	jmp	.L784
	.cfi_endproc
.LFE7785:
	.size	_ZN8asiodnp318TCPClientIOHandler10ResetStateEv, .-_ZN8asiodnp318TCPClientIOHandler10ResetStateEv
	.align 2
	.p2align 4
	.globl	_ZN8asiodnp318TCPClientIOHandler12ShutdownImplEv
	.type	_ZN8asiodnp318TCPClientIOHandler12ShutdownImplEv, @function
_ZN8asiodnp318TCPClientIOHandler12ShutdownImplEv:
.LFB7738:
	.cfi_startproc
	endbr64
	jmp	_ZN8asiodnp318TCPClientIOHandler10ResetStateEv@PLT
	.cfi_endproc
.LFE7738:
	.size	_ZN8asiodnp318TCPClientIOHandler12ShutdownImplEv, .-_ZN8asiodnp318TCPClientIOHandler12ShutdownImplEv
	.globl	_ZN8asiodnp318TCPClientIOHandler20SuspendChannelAcceptEv
	.set	_ZN8asiodnp318TCPClientIOHandler20SuspendChannelAcceptEv,_ZN8asiodnp318TCPClientIOHandler12ShutdownImplEv
	.section	.text._ZNSt16_Sp_counted_baseILN9__gnu_cxx12_Lock_policyE2EE10_M_releaseEv,"axG",@progbits,_ZNSt16_Sp_counted_baseILN9__gnu_cxx12_Lock_policyE2EE10_M_releaseEv,comdat
	.align 2
	.p2align 4
	.weak	_ZNSt16_Sp_counted_baseILN9__gnu_cxx12_Lock_policyE2EE10_M_releaseEv
	.type	_ZNSt16_Sp_counted_baseILN9__gnu_cxx12_Lock_policyE2EE10_M_releaseEv, @function
_ZNSt16_Sp_counted_baseILN9__gnu_cxx12_Lock_policyE2EE10_M_releaseEv:
.LFB8806:
	.cfi_startproc
	endbr64
	pushq	%rbp
	.cfi_def_cfa_offset 16
	.cfi_offset 6, -16
	movq	%rdi, %rbp
	pushq	%rbx
	.cfi_def_cfa_offset 24
	.cfi_offset 3, -24
	subq	$8, %rsp
	.cfi_def_cfa_offset 32
	movq	__libc_single_threaded@GOTPCREL(%rip), %rbx
	cmpb	$0, (%rbx)
	je	.L792
	movl	8(%rdi), %eax
	leal	-1(%rax), %edx
	movl	%edx, 8(%rdi)
.L793:
	cmpl	$1, %eax
	je	.L800
.L791:
	addq	$8, %rsp
	.cfi_remember_state
	.cfi_def_cfa_offset 24
	popq	%rbx
	.cfi_def_cfa_offset 16
	popq	%rbp
	.cfi_def_cfa_offset 8
	ret
	.p2align 4,,10
	.p2align 3
.L800:
	.cfi_restore_state
	movq	0(%rbp), %rax
	movq	%rbp, %rdi
	call	*16(%rax)
	cmpb	$0, (%rbx)
	je	.L796
	movl	12(%rbp), %eax
	leal	-1(%rax), %edx
	movl	%edx, 12(%rbp)
.L797:
	cmpl	$1, %eax
	jne	.L791
	movq	0(%rbp), %rax
	movq	%rbp, %rdi
	movq	24(%rax), %rax
	addq	$8, %rsp
	.cfi_remember_state
	.cfi_def_cfa_offset 24
	popq	%rbx
	.cfi_def_cfa_offset 16
	popq	%rbp
	.cfi_def_cfa_offset 8
	jmp	*%rax
	.p2align 4,,10
	.p2align 3
.L792:
	.cfi_restore_state
	movl	$-1, %eax
	lock xaddl	%eax, 8(%rdi)
	jmp	.L793
	.p2align 4,,10
	.p2align 3
.L796:
	movl	$-1, %eax
	lock xaddl	%eax, 12(%rbp)
	jmp	.L797
	.cfi_endproc
.LFE8806:
	.size	_ZNSt16_Sp_counted_baseILN9__gnu_cxx12_Lock_policyE2EE10_M_releaseEv, .-_ZNSt16_Sp_counted_baseILN9__gnu_cxx12_Lock_policyE2EE10_M_releaseEv
	.section	.text.unlikely
	.align 2
.LCOLDB28:
	.text
.LHOTB28:
	.align 2
	.p2align 4
	.globl	_ZN8asiodnp318TCPClientIOHandlerC2ERKN7openpal6LoggerERKSt10shared_ptrINS_16IChannelListenerEERKS5_IN7asiopal8ExecutorEERKNSA_12ChannelRetryERKNSA_10IPEndpointERKNSt7__cxx1112basic_stringIcSt11char_traitsIcESaIcEEE
	.type	_ZN8asiodnp318TCPClientIOHandlerC2ERKN7openpal6LoggerERKSt10shared_ptrINS_16IChannelListenerEERKS5_IN7asiopal8ExecutorEERKNSA_12ChannelRetryERKNSA_10IPEndpointERKNSt7__cxx1112basic_stringIcSt11char_traitsIcESaIcEEE, @function
_ZN8asiodnp318TCPClientIOHandlerC2ERKN7openpal6LoggerERKSt10shared_ptrINS_16IChannelListenerEERKS5_IN7asiopal8ExecutorEERKNSA_12ChannelRetryERKNSA_10IPEndpointERKNSt7__cxx1112basic_stringIcSt11char_traitsIcESaIcEEE:
.LFB7736:
	.cfi_startproc
	.cfi_personality 0x9b,DW.ref.__gxx_personality_v0
	.cfi_lsda 0x1b,.LLSDA7736
	endbr64
	pushq	%r15
	.cfi_def_cfa_offset 16
	.cfi_offset 15, -16
	pushq	%r14
	.cfi_def_cfa_offset 24
	.cfi_offset 14, -24
	pushq	%r13
	.cfi_def_cfa_offset 32
	.cfi_offset 13, -32
	movq	%rcx, %r13
	pushq	%r12
	.cfi_def_cfa_offset 40
	.cfi_offset 12, -40
	movq	%r8, %r12
	pushq	%rbp
	.cfi_def_cfa_offset 48
	.cfi_offset 6, -48
	movq	%rdi, %rbp
	pushq	%rbx
	.cfi_def_cfa_offset 56
	.cfi_offset 3, -56
	movq	%r9, %rbx
	subq	$40, %rsp
	.cfi_def_cfa_offset 96
	movq	%fs:40, %rax
	movq	%rax, 24(%rsp)
	movq	_ZTVN8asiodnp318TCPClientIOHandlerE@GOTPCREL(%rip), %rax
	movq	96(%rsp), %r15
	leaq	104(%rax), %rcx
	addq	$16, %rax
	movq	%rax, %xmm0
	movq	%rcx, %xmm1
	punpcklqdq	%xmm1, %xmm0
	movaps	%xmm0, (%rsp)
.LEHB10:
	call	_ZN8asiodnp39IOHandlerC2ERKN7openpal6LoggerERKSt10shared_ptrINS_16IChannelListenerEE@PLT
.LEHE10:
	movdqa	(%rsp), %xmm0
	movups	%xmm0, 0(%rbp)
	movdqu	0(%r13), %xmm2
	movq	8(%r13), %rax
	movups	%xmm2, 800(%rbp)
	testq	%rax, %rax
	je	.L802
	movq	__libc_single_threaded@GOTPCREL(%rip), %rdx
	cmpb	$0, (%rdx)
	je	.L803
	addl	$1, 8(%rax)
.L802:
	movq	16(%r12), %rax
	movdqu	(%r12), %xmm3
	movq	%rax, 832(%rbp)
	leaq	856(%rbp), %rax
	movq	%rax, 840(%rbp)
	movq	(%rbx), %r14
	movups	%xmm3, 816(%rbp)
	movq	8(%rbx), %r12
	movq	%rax, (%rsp)
	movq	%r14, %rax
	addq	%r12, %rax
	je	.L804
	testq	%r14, %r14
	je	.L850
.L804:
	movq	%r12, 16(%rsp)
	cmpq	$15, %r12
	ja	.L851
	cmpq	$1, %r12
	jne	.L807
	movzbl	(%r14), %eax
	movb	%al, 856(%rbp)
	movq	(%rsp), %rax
.L808:
	movq	%r12, 848(%rbp)
	movb	$0, (%rax,%r12)
	movzwl	32(%rbx), %eax
	leaq	896(%rbp), %rbx
	movq	%rbx, 880(%rbp)
	movq	(%r15), %r12
	movq	8(%r15), %r14
	movw	%ax, 872(%rbp)
	movq	%r12, %rax
	addq	%r14, %rax
	je	.L809
	testq	%r12, %r12
	je	.L852
.L809:
	movq	%r14, 16(%rsp)
	cmpq	$15, %r14
	ja	.L853
	cmpq	$1, %r14
	jne	.L812
	movzbl	(%r12), %eax
	movb	%al, 896(%rbp)
	movq	%rbx, %rax
.L813:
	movq	%r14, 888(%rbp)
	pxor	%xmm0, %xmm0
	leaq	928(%rbp), %rdi
	movb	$0, (%rax,%r14)
	movups	%xmm0, 912(%rbp)
	movq	0(%r13), %rsi
.LEHB11:
	call	_ZN7openpal8TimerRefC1ERNS_9IExecutorE@PLT
.LEHE11:
	movq	24(%rsp), %rax
	subq	%fs:40, %rax
	jne	.L854
	addq	$40, %rsp
	.cfi_remember_state
	.cfi_def_cfa_offset 56
	popq	%rbx
	.cfi_def_cfa_offset 48
	popq	%rbp
	.cfi_def_cfa_offset 40
	popq	%r12
	.cfi_def_cfa_offset 32
	popq	%r13
	.cfi_def_cfa_offset 24
	popq	%r14
	.cfi_def_cfa_offset 16
	popq	%r15
	.cfi_def_cfa_offset 8
	ret
	.p2align 4,,10
	.p2align 3
.L807:
	.cfi_restore_state
	testq	%r12, %r12
	jne	.L855
	movq	(%rsp), %rax
	jmp	.L808
	.p2align 4,,10
	.p2align 3
.L803:
	lock addl	$1, 8(%rax)
	jmp	.L802
	.p2align 4,,10
	.p2align 3
.L812:
	testq	%r14, %r14
	jne	.L856
	movq	%rbx, %rax
	jmp	.L813
	.p2align 4,,10
	.p2align 3
.L851:
	leaq	16(%rsp), %rsi
	leaq	840(%rbp), %rdi
	xorl	%edx, %edx
.LEHB12:
	call	_ZNSt7__cxx1112basic_stringIcSt11char_traitsIcESaIcEE9_M_createERmm@PLT
.LEHE12:
	movq	%rax, 840(%rbp)
	movq	%rax, %rdi
	movq	16(%rsp), %rax
	movq	%rax, 856(%rbp)
.L806:
	movq	%r12, %rdx
	movq	%r14, %rsi
	call	memcpy@PLT
	movq	16(%rsp), %r12
	movq	840(%rbp), %rax
	jmp	.L808
	.p2align 4,,10
	.p2align 3
.L853:
	leaq	16(%rsp), %rsi
	leaq	880(%rbp), %rdi
	xorl	%edx, %edx
.LEHB13:
	call	_ZNSt7__cxx1112basic_stringIcSt11char_traitsIcESaIcEE9_M_createERmm@PLT
.LEHE13:
	movq	%rax, 880(%rbp)
	movq	%rax, %rdi
	movq	16(%rsp), %rax
	movq	%rax, 896(%rbp)
.L811:
	movq	%r14, %rdx
	movq	%r12, %rsi
	call	memcpy@PLT
	movq	16(%rsp), %r14
	movq	880(%rbp), %rax
	jmp	.L813
.L850:
	leaq	.LC4(%rip), %rdi
.LEHB14:
	call	_ZSt19__throw_logic_errorPKc@PLT
.LEHE14:
.L854:
	call	__stack_chk_fail@PLT
.L852:
	leaq	.LC4(%rip), %rdi
.LEHB15:
	call	_ZSt19__throw_logic_errorPKc@PLT
.LEHE15:
.L856:
	movq	%rbx, %rdi
	jmp	.L811
.L855:
	movq	(%rsp), %rdi
	jmp	.L806
.L826:
	endbr64
	movq	%rax, %r12
	jmp	.L814
.L825:
	endbr64
	movq	%rax, %r12
	jmp	.L817
.L824:
	endbr64
	movq	%rax, %r12
	jmp	.L819
	.section	.gcc_except_table
.LLSDA7736:
	.byte	0xff
	.byte	0xff
	.byte	0x1
	.uleb128 .LLSDACSE7736-.LLSDACSB7736
.LLSDACSB7736:
	.uleb128 .LEHB10-.LFB7736
	.uleb128 .LEHE10-.LEHB10
	.uleb128 0
	.uleb128 0
	.uleb128 .LEHB11-.LFB7736
	.uleb128 .LEHE11-.LEHB11
	.uleb128 .L826-.LFB7736
	.uleb128 0
	.uleb128 .LEHB12-.LFB7736
	.uleb128 .LEHE12-.LEHB12
	.uleb128 .L824-.LFB7736
	.uleb128 0
	.uleb128 .LEHB13-.LFB7736
	.uleb128 .LEHE13-.LEHB13
	.uleb128 .L825-.LFB7736
	.uleb128 0
	.uleb128 .LEHB14-.LFB7736
	.uleb128 .LEHE14-.LEHB14
	.uleb128 .L824-.LFB7736
	.uleb128 0
	.uleb128 .LEHB15-.LFB7736
	.uleb128 .LEHE15-.LEHB15
	.uleb128 .L825-.LFB7736
	.uleb128 0
.LLSDACSE7736:
	.text
	.cfi_endproc
	.section	.text.unlikely
	.cfi_startproc
	.cfi_personality 0x9b,DW.ref.__gxx_personality_v0
	.cfi_lsda 0x1b,.LLSDAC7736
	.type	_ZN8asiodnp318TCPClientIOHandlerC2ERKN7openpal6LoggerERKSt10shared_ptrINS_16IChannelListenerEERKS5_IN7asiopal8ExecutorEERKNSA_12ChannelRetryERKNSA_10IPEndpointERKNSt7__cxx1112basic_stringIcSt11char_traitsIcESaIcEEE.cold, @function
_ZN8asiodnp318TCPClientIOHandlerC2ERKN7openpal6LoggerERKSt10shared_ptrINS_16IChannelListenerEERKS5_IN7asiopal8ExecutorEERKNSA_12ChannelRetryERKNSA_10IPEndpointERKNSt7__cxx1112basic_stringIcSt11char_traitsIcESaIcEEE.cold:
.LFSB7736:
.L814:
	.cfi_def_cfa_offset 96
	.cfi_offset 3, -56
	.cfi_offset 6, -48
	.cfi_offset 12, -40
	.cfi_offset 13, -32
	.cfi_offset 14, -24
	.cfi_offset 15, -16
	movq	920(%rbp), %rdi
	testq	%rdi, %rdi
	je	.L815
	call	_ZNSt16_Sp_counted_baseILN9__gnu_cxx12_Lock_policyE2EE10_M_releaseEv@PLT
.L815:
	movq	880(%rbp), %rdi
	cmpq	%rdi, %rbx
	je	.L817
	movq	896(%rbp), %rax
	leaq	1(%rax), %rsi
	call	_ZdlPvm@PLT
.L817:
	movq	840(%rbp), %rdi
	cmpq	%rdi, (%rsp)
	je	.L819
	movq	856(%rbp), %rax
	leaq	1(%rax), %rsi
	call	_ZdlPvm@PLT
.L819:
	movq	808(%rbp), %rdi
	testq	%rdi, %rdi
	je	.L820
	call	_ZNSt16_Sp_counted_baseILN9__gnu_cxx12_Lock_policyE2EE10_M_releaseEv@PLT
.L820:
	movq	%rbp, %rdi
	call	_ZN8asiodnp39IOHandlerD2Ev@PLT
	movq	%r12, %rdi
.LEHB16:
	call	_Unwind_Resume@PLT
.LEHE16:
	.cfi_endproc
.LFE7736:
	.section	.gcc_except_table
.LLSDAC7736:
	.byte	0xff
	.byte	0xff
	.byte	0x1
	.uleb128 .LLSDACSEC7736-.LLSDACSBC7736
.LLSDACSBC7736:
	.uleb128 .LEHB16-.LCOLDB28
	.uleb128 .LEHE16-.LEHB16
	.uleb128 0
	.uleb128 0
.LLSDACSEC7736:
	.section	.text.unlikely
	.text
	.size	_ZN8asiodnp318TCPClientIOHandlerC2ERKN7openpal6LoggerERKSt10shared_ptrINS_16IChannelListenerEERKS5_IN7asiopal8ExecutorEERKNSA_12ChannelRetryERKNSA_10IPEndpointERKNSt7__cxx1112basic_stringIcSt11char_traitsIcESaIcEEE, .-_ZN8asiodnp318TCPClientIOHandlerC2ERKN7openpal6LoggerERKSt10shared_ptrINS_16IChannelListenerEERKS5_IN7asiopal8ExecutorEERKNSA_12ChannelRetryERKNSA_10IPEndpointERKNSt7__cxx1112basic_stringIcSt11char_traitsIcESaIcEEE
	.section	.text.unlikely
	.size	_ZN8asiodnp318TCPClientIOHandlerC2ERKN7openpal6LoggerERKSt10shared_ptrINS_16IChannelListenerEERKS5_IN7asiopal8ExecutorEERKNSA_12ChannelRetryERKNSA_10IPEndpointERKNSt7__cxx1112basic_stringIcSt11char_traitsIcESaIcEEE.cold, .-_ZN8asiodnp318TCPClientIOHandlerC2ERKN7openpal6LoggerERKSt10shared_ptrINS_16IChannelListenerEERKS5_IN7asiopal8ExecutorEERKNSA_12ChannelRetryERKNSA_10IPEndpointERKNSt7__cxx1112basic_stringIcSt11char_traitsIcESaIcEEE.cold
.LCOLDE28:
	.text
.LHOTE28:
	.globl	_ZN8asiodnp318TCPClientIOHandlerC1ERKN7openpal6LoggerERKSt10shared_ptrINS_16IChannelListenerEERKS5_IN7asiopal8ExecutorEERKNSA_12ChannelRetryERKNSA_10IPEndpointERKNSt7__cxx1112basic_stringIcSt11char_traitsIcESaIcEEE
	.set	_ZN8asiodnp318TCPClientIOHandlerC1ERKN7openpal6LoggerERKSt10shared_ptrINS_16IChannelListenerEERKS5_IN7asiopal8ExecutorEERKNSA_12ChannelRetryERKNSA_10IPEndpointERKNSt7__cxx1112basic_stringIcSt11char_traitsIcESaIcEEE,_ZN8asiodnp318TCPClientIOHandlerC2ERKN7openpal6LoggerERKSt10shared_ptrINS_16IChannelListenerEERKS5_IN7asiopal8ExecutorEERKNSA_12ChannelRetryERKNSA_10IPEndpointERKNSt7__cxx1112basic_stringIcSt11char_traitsIcESaIcEEE
	.section	.rodata.str1.1
.LC29:
	.string	"Error Connecting: %s"
	.section	.rodata.str1.8
	.align 8
.LC30:
	.string	"/home/saptarshi/Desktop/OpenPLC61850/utils/dnp3_src/cpp/libs/src/asiodnp3/TCPClientIOHandler.cpp(76)"
	.section	.rodata.str1.1
.LC31:
	.string	"Connected to: %s"
	.section	.rodata.str1.8
	.align 8
.LC32:
	.string	"/home/saptarshi/Desktop/OpenPLC61850/utils/dnp3_src/cpp/libs/src/asiodnp3/TCPClientIOHandler.cpp(91)"
	.section	.text.unlikely
	.align 2
.LCOLDB33:
	.text
.LHOTB33:
	.align 2
	.p2align 4
	.type	_ZZN8asiodnp318TCPClientIOHandler12StartConnectERKSt10shared_ptrIN7asiopal9TCPClientEERKN7openpal12TimeDurationEENKUlRKS1_INS2_8ExecutorEEN4asio19basic_stream_socketINSF_2ip3tcpENSF_21stream_socket_serviceISI_EEEERKSt10error_codeE_clESE_SL_SO_, @function
_ZZN8asiodnp318TCPClientIOHandler12StartConnectERKSt10shared_ptrIN7asiopal9TCPClientEERKN7openpal12TimeDurationEENKUlRKS1_INS2_8ExecutorEEN4asio19basic_stream_socketINSF_2ip3tcpENSF_21stream_socket_serviceISI_EEEERKSt10error_codeE_clESE_SL_SO_:
.LFB7749:
	.cfi_startproc
	.cfi_personality 0x9b,DW.ref.__gxx_personality_v0
	.cfi_lsda 0x1b,.LLSDA7749
	pushq	%r15
	.cfi_def_cfa_offset 16
	.cfi_offset 15, -16
	pushq	%r14
	.cfi_def_cfa_offset 24
	.cfi_offset 14, -24
	pushq	%r13
	.cfi_def_cfa_offset 32
	.cfi_offset 13, -32
	pushq	%r12
	.cfi_def_cfa_offset 40
	.cfi_offset 12, -40
	pushq	%rbp
	.cfi_def_cfa_offset 48
	.cfi_offset 6, -48
	pushq	%rbx
	.cfi_def_cfa_offset 56
	.cfi_offset 3, -56
	movq	%rdi, %rbx
	subq	$328, %rsp
	.cfi_def_cfa_offset 384
	movq	%fs:40, %rax
	movq	%rax, 312(%rsp)
	movq	16(%rdi), %rax
	leaq	32(%rax), %rdi
	movl	(%rcx), %eax
	testl	%eax, %eax
	je	.L858
	leaq	96(%rsp), %r13
	movl	$4, 96(%rsp)
	movq	%rcx, %r12
	movq	%r13, %rsi
.LEHB17:
	call	_ZNK7openpal6Logger9IsEnabledERKNS_10LogFiltersE@PLT
	testb	%al, %al
	je	.L859
	movq	8(%r12), %rsi
	movl	(%r12), %edx
	leaq	160(%rsp), %rdi
	leaq	192(%rsp), %r12
	movq	(%rsi), %rax
	call	*32(%rax)
	movq	160(%rsp), %r9
	movq	%r12, %rdi
	xorl	%eax, %eax
	movl	$120, %ecx
	movl	$1, %edx
	movl	$120, %esi
	leaq	.LC29(%rip), %r8
	call	__snprintf_chk@PLT
	movq	160(%rsp), %rdi
	leaq	176(%rsp), %rax
	cmpq	%rax, %rdi
	je	.L860
	movq	176(%rsp), %rax
	leaq	1(%rax), %rsi
	call	_ZdlPvm@PLT
.L860:
	movq	16(%rbx), %rax
	movq	%r12, %rcx
	leaq	.LC30(%rip), %rdx
	movq	%r13, %rsi
	movl	$4, 96(%rsp)
	leaq	32(%rax), %rdi
	call	_ZN7openpal6Logger3LogERKNS_10LogFiltersEPKcS5_@PLT
.L859:
	movq	16(%rbx), %rdx
	leaq	24(%rbx), %rbp
	movq	%rbp, %rsi
	movq	832(%rdx), %rdi
	addl	$1, 84(%rdx)
	addq	$824, %rdx
	movq	(%rdi), %rax
	call	*16(%rax)
.LEHE17:
	movdqu	(%rbx), %xmm2
	movq	8(%rbx), %rdx
	movaps	%xmm2, 48(%rsp)
	testq	%rdx, %rdx
	je	.L861
	movq	__libc_single_threaded@GOTPCREL(%rip), %rcx
	cmpb	$0, (%rcx)
	je	.L862
	addl	$1, 8(%rdx)
.L861:
	movq	%rax, 64(%rsp)
	movdqu	32(%rbx), %xmm3
	movq	40(%rbx), %rax
	movups	%xmm3, 72(%rsp)
	testq	%rax, %rax
	je	.L863
	movq	__libc_single_threaded@GOTPCREL(%rip), %rdx
	cmpb	$0, (%rdx)
	je	.L864
	addl	$1, 8(%rax)
.L863:
	movq	16(%rbx), %r12
	movq	56(%rsp), %rax
	movq	%r12, 88(%rsp)
	addq	$928, %r12
	movq	%r12, %xmm0
	movq	%rax, 112(%rsp)
	movhps	48(%rsp), %xmm0
	movaps	%xmm0, 96(%rsp)
	testq	%rax, %rax
	je	.L865
	movq	__libc_single_threaded@GOTPCREL(%rip), %rdx
	cmpb	$0, (%rdx)
	je	.L866
	addl	$1, 8(%rax)
.L865:
	movq	64(%rsp), %rax
	movdqu	72(%rsp), %xmm4
	movq	%rax, 120(%rsp)
	movq	80(%rsp), %rax
	movaps	%xmm4, 128(%rsp)
	testq	%rax, %rax
	je	.L867
	movq	__libc_single_threaded@GOTPCREL(%rip), %rdx
	cmpb	$0, (%rdx)
	je	.L868
	addl	$1, 8(%rax)
.L867:
	movq	88(%rsp), %rax
	pxor	%xmm0, %xmm0
	movl	$56, %edi
	movq	$0, 176(%rsp)
	movq	$0, 184(%rsp)
	movq	%rax, 144(%rsp)
	movaps	%xmm0, 160(%rsp)
.LEHB18:
	call	_Znwm@PLT
.LEHE18:
	movdqa	96(%rsp), %xmm5
	movq	112(%rsp), %rdx
	movups	%xmm5, (%rax)
	movq	%rdx, 16(%rax)
	testq	%rdx, %rdx
	je	.L869
	movq	__libc_single_threaded@GOTPCREL(%rip), %rcx
	cmpb	$0, (%rcx)
	je	.L870
	addl	$1, 8(%rdx)
.L869:
	movdqa	128(%rsp), %xmm6
	movq	120(%rsp), %rdx
	movq	%rdx, 24(%rax)
	movq	136(%rsp), %rdx
	movups	%xmm6, 32(%rax)
	testq	%rdx, %rdx
	je	.L871
	movq	__libc_single_threaded@GOTPCREL(%rip), %rcx
	cmpb	$0, (%rcx)
	je	.L872
	addl	$1, 8(%rdx)
.L871:
	movq	144(%rsp), %rdx
	movq	%rbp, %rsi
	movq	%r12, %rdi
	movq	%rax, 160(%rsp)
	leaq	_ZNSt17_Function_handlerIFvvEZN7openpal8TimerRef5StartIZZN8asiodnp318TCPClientIOHandler12StartConnectERKSt10shared_ptrIN7asiopal9TCPClientEERKNS1_12TimeDurationEENKUlRKS6_INS7_8ExecutorEEN4asio19basic_stream_socketINSJ_2ip3tcpENSJ_21stream_socket_serviceISM_EEEERKSt10error_codeE_clESI_SP_SS_EUlvE_EEbSE_RKT_EUlvE_E10_M_managerERSt9_Any_dataRKS10_St18_Manager_operation(%rip), %rcx
	leaq	160(%rsp), %r13
	movq	%rdx, 48(%rax)
	leaq	_ZNSt17_Function_handlerIFvvEZN7openpal8TimerRef5StartIZZN8asiodnp318TCPClientIOHandler12StartConnectERKSt10shared_ptrIN7asiopal9TCPClientEERKNS1_12TimeDurationEENKUlRKS6_INS7_8ExecutorEEN4asio19basic_stream_socketINSJ_2ip3tcpENSJ_21stream_socket_serviceISM_EEEERKSt10error_codeE_clESI_SP_SS_EUlvE_EEbSE_RKT_EUlvE_E9_M_invokeERKSt9_Any_data(%rip), %rax
	movq	%rcx, %xmm0
	movq	%r13, %rdx
	movq	%rax, %xmm7
	punpcklqdq	%xmm7, %xmm0
	movaps	%xmm0, 176(%rsp)
.LEHB19:
	call	_ZN7openpal8TimerRef11StartActionERKNS_12TimeDurationERKSt8functionIFvvEE@PLT
.LEHE19:
	movq	176(%rsp), %rax
	testq	%rax, %rax
	je	.L877
	movl	$3, %edx
	movq	%r13, %rsi
	movq	%r13, %rdi
	call	*%rax
.L877:
	movq	136(%rsp), %rbp
	testq	%rbp, %rbp
	je	.L879
	movq	__libc_single_threaded@GOTPCREL(%rip), %r12
	cmpb	$0, (%r12)
	je	.L880
	movl	8(%rbp), %eax
	leal	-1(%rax), %edx
	movl	%edx, 8(%rbp)
.L881:
	cmpl	$1, %eax
	jne	.L879
	movq	0(%rbp), %rax
	movq	%rbp, %rdi
	call	*16(%rax)
	cmpb	$0, (%r12)
	je	.L883
	movl	12(%rbp), %eax
	leal	-1(%rax), %edx
	movl	%edx, 12(%rbp)
.L884:
	cmpl	$1, %eax
	je	.L1018
	.p2align 4,,10
	.p2align 3
.L879:
	movq	112(%rsp), %rbp
	testq	%rbp, %rbp
	je	.L886
	movq	__libc_single_threaded@GOTPCREL(%rip), %r12
	cmpb	$0, (%r12)
	je	.L887
	movl	8(%rbp), %eax
	leal	-1(%rax), %edx
	movl	%edx, 8(%rbp)
.L888:
	cmpl	$1, %eax
	jne	.L886
	movq	0(%rbp), %rax
	movq	%rbp, %rdi
	call	*16(%rax)
	cmpb	$0, (%r12)
	je	.L890
	movl	12(%rbp), %eax
	leal	-1(%rax), %edx
	movl	%edx, 12(%rbp)
.L891:
	cmpl	$1, %eax
	je	.L1019
	.p2align 4,,10
	.p2align 3
.L886:
	movq	80(%rsp), %rbp
	testq	%rbp, %rbp
	je	.L893
	movq	__libc_single_threaded@GOTPCREL(%rip), %r12
	cmpb	$0, (%r12)
	je	.L896
	movl	8(%rbp), %eax
	leal	-1(%rax), %edx
	movl	%edx, 8(%rbp)
.L897:
	cmpl	$1, %eax
	jne	.L893
	movq	0(%rbp), %rax
	movq	%rbp, %rdi
	call	*16(%rax)
	cmpb	$0, (%r12)
	je	.L899
	movl	12(%rbp), %eax
	leal	-1(%rax), %edx
	movl	%edx, 12(%rbp)
.L900:
	cmpl	$1, %eax
	je	.L1020
	.p2align 4,,10
	.p2align 3
.L893:
	movq	56(%rsp), %rbp
	testq	%rbp, %rbp
	je	.L857
	movq	__libc_single_threaded@GOTPCREL(%rip), %r12
	cmpb	$0, (%r12)
	je	.L903
	movl	8(%rbp), %eax
	leal	-1(%rax), %edx
	movl	%edx, 8(%rbp)
.L904:
	cmpl	$1, %eax
	jne	.L857
	movq	0(%rbp), %rax
	movq	%rbp, %rdi
	call	*16(%rax)
	cmpb	$0, (%r12)
	je	.L906
	movl	12(%rbp), %eax
	leal	-1(%rax), %edx
	movl	%edx, 12(%rbp)
.L907:
	cmpl	$1, %eax
	je	.L1021
	.p2align 4,,10
	.p2align 3
.L857:
	movq	312(%rsp), %rax
	subq	%fs:40, %rax
	jne	.L1017
	addq	$328, %rsp
	.cfi_remember_state
	.cfi_def_cfa_offset 56
	popq	%rbx
	.cfi_def_cfa_offset 48
	popq	%rbp
	.cfi_def_cfa_offset 40
	popq	%r12
	.cfi_def_cfa_offset 32
	popq	%r13
	.cfi_def_cfa_offset 24
	popq	%r14
	.cfi_def_cfa_offset 16
	popq	%r15
	.cfi_def_cfa_offset 8
	ret
	.p2align 4,,10
	.p2align 3
.L858:
	.cfi_restore_state
	leaq	96(%rsp), %r13
	movq	%rsi, %r15
	movl	$8, 96(%rsp)
	movq	%rdx, %rbp
	movq	%r13, %rsi
.LEHB20:
	call	_ZNK7openpal6Logger9IsEnabledERKNS_10LogFiltersE@PLT
.LEHE20:
	testb	%al, %al
	jne	.L1022
.L910:
	movq	24(%rbp), %rax
	movq	16(%rbx), %r14
	movq	%rax, 72(%rsp)
	movl	0(%rbp), %eax
	movl	$-1, 0(%rbp)
	movl	%eax, 48(%rsp)
	movzbl	4(%rbp), %eax
	movb	$0, 4(%rbp)
	movq	(%r15), %r12
	movb	%al, 52(%rsp)
	movq	8(%rbp), %rax
	movq	$0, 8(%rbp)
	movq	%rax, 56(%rsp)
	movl	16(%rbp), %eax
	movl	$2, 16(%rbp)
	movq	8(%r15), %rbp
	movl	%eax, 64(%rsp)
	testq	%rbp, %rbp
	je	.L911
	movq	__libc_single_threaded@GOTPCREL(%rip), %rax
	cmpb	$0, (%rax)
	je	.L912
	addl	$1, 8(%rbp)
.L911:
	movl	$112, %edi
.LEHB21:
	call	_Znwm@PLT
.LEHE21:
	movq	%rax, %rbx
	movq	.LC26(%rip), %rax
	movq	%r12, %xmm0
	movq	%rbp, %xmm3
	leaq	16(%rbx), %r15
	movq	%rbx, %xmm2
	punpcklqdq	%xmm3, %xmm0
	movq	%rax, 8(%rbx)
	movq	_ZTVSt23_Sp_counted_ptr_inplaceIN7asiopal13SocketChannelESaIS1_ELN9__gnu_cxx12_Lock_policyE2EE@GOTPCREL(%rip), %rax
	movq	%r15, %xmm1
	punpcklqdq	%xmm2, %xmm1
	movaps	%xmm0, 32(%rsp)
	addq	$16, %rax
	movaps	%xmm1, (%rsp)
	movq	%rax, (%rbx)
	testq	%rbp, %rbp
	je	.L913
	movq	__libc_single_threaded@GOTPCREL(%rip), %rax
	cmpb	$0, (%rax)
	je	.L914
	addl	$1, 8(%rbp)
.L913:
	movq	72(%rsp), %rax
	leaq	32(%rsp), %rsi
	movq	%r13, %rdx
	movq	%r15, %rdi
	movq	%rax, 120(%rsp)
	movl	48(%rsp), %eax
	movl	$-1, 48(%rsp)
	movl	%eax, 96(%rsp)
	movzbl	52(%rsp), %eax
	movb	$0, 52(%rsp)
	movb	%al, 100(%rsp)
	movq	56(%rsp), %rax
	movq	$0, 56(%rsp)
	movq	%rax, 104(%rsp)
	movl	64(%rsp), %eax
	movl	$2, 64(%rsp)
	movl	%eax, 112(%rsp)
.LEHB22:
	call	_ZN7asiopal13SocketChannelC1ESt10shared_ptrINS_8ExecutorEEN4asio19basic_stream_socketINS4_2ip3tcpENS4_21stream_socket_serviceIS7_EEEE@PLT
.LEHE22:
	movq	120(%rsp), %rax
	movq	%r13, %rsi
	leaq	40(%rax), %rdi
	call	_ZN4asio6detail28reactive_socket_service_base7destroyERNS1_24base_implementation_typeE@PLT
	movq	40(%rsp), %rdi
	testq	%rdi, %rdi
	je	.L920
	movq	__libc_single_threaded@GOTPCREL(%rip), %r12
	cmpb	$0, (%r12)
	je	.L916
	movl	8(%rdi), %eax
	leal	-1(%rax), %edx
	movl	%edx, 8(%rdi)
.L917:
	cmpl	$1, %eax
	jne	.L920
	movq	(%rdi), %rax
	movq	%rdi, 24(%rsp)
	call	*16(%rax)
	cmpb	$0, (%r12)
	movq	24(%rsp), %rdi
	je	.L918
	movl	12(%rdi), %eax
	leal	-1(%rax), %edx
	movl	%edx, 12(%rdi)
.L919:
	cmpl	$1, %eax
	je	.L1023
	.p2align 4,,10
	.p2align 3
.L920:
	movq	32(%rbx), %rdi
	testq	%rdi, %rdi
	je	.L924
	movl	8(%rdi), %eax
	testl	%eax, %eax
	jne	.L925
.L924:
	movq	__libc_single_threaded@GOTPCREL(%rip), %rax
	movq	%r15, 24(%rbx)
	cmpb	$0, (%rax)
	je	.L1024
	addl	$1, 12(%rbx)
	testq	%rdi, %rdi
	je	.L927
.L926:
	movl	12(%rdi), %eax
	leal	-1(%rax), %edx
	movl	%edx, 12(%rdi)
.L930:
	cmpl	$1, %eax
	jne	.L927
	movq	(%rdi), %rax
	call	*24(%rax)
	.p2align 4,,10
	.p2align 3
.L927:
	movq	%rbx, 32(%rbx)
.L925:
	movdqa	(%rsp), %xmm4
	movq	%r13, %rsi
	movq	%r14, %rdi
	movaps	%xmm4, 96(%rsp)
.LEHB23:
	call	_ZN8asiodnp39IOHandler12OnNewChannelERKSt10shared_ptrIN7asiopal13IAsyncChannelEE@PLT
.LEHE23:
	movq	104(%rsp), %r13
	testq	%r13, %r13
	je	.L932
	movq	__libc_single_threaded@GOTPCREL(%rip), %r12
	cmpb	$0, (%r12)
	je	.L933
	movl	8(%r13), %eax
	leal	-1(%rax), %edx
	movl	%edx, 8(%r13)
.L934:
	cmpl	$1, %eax
	je	.L1025
.L932:
	testq	%rbp, %rbp
	je	.L939
	movq	__libc_single_threaded@GOTPCREL(%rip), %r12
	cmpb	$0, (%r12)
	je	.L940
	movl	8(%rbp), %eax
	leal	-1(%rax), %edx
	movl	%edx, 8(%rbp)
.L941:
	cmpl	$1, %eax
	je	.L1026
.L939:
	movq	72(%rsp), %rax
	leaq	48(%rsp), %rsi
	leaq	40(%rax), %rdi
	call	_ZN4asio6detail28reactive_socket_service_base7destroyERNS1_24base_implementation_typeE@PLT
	jmp	.L857
	.p2align 4,,10
	.p2align 3
.L1022:
	movq	16(%rbx), %rax
	movl	$120, %ecx
	movl	$1, %edx
	leaq	192(%rsp), %r12
	movq	%r12, %rdi
	leaq	.LC31(%rip), %r8
	movl	$120, %esi
	movq	840(%rax), %r9
	xorl	%eax, %eax
	call	__snprintf_chk@PLT
	movq	16(%rbx), %rax
	movq	%r12, %rcx
	movq	%r13, %rsi
	leaq	.LC32(%rip), %rdx
	movl	$8, 96(%rsp)
	leaq	32(%rax), %rdi
.LEHB24:
	call	_ZN7openpal6Logger3LogERKNS_10LogFiltersEPKcS5_@PLT
.LEHE24:
	jmp	.L910
	.p2align 4,,10
	.p2align 3
.L903:
	movl	$-1, %eax
	lock xaddl	%eax, 8(%rbp)
	jmp	.L904
	.p2align 4,,10
	.p2align 3
.L887:
	movl	$-1, %eax
	lock xaddl	%eax, 8(%rbp)
	jmp	.L888
	.p2align 4,,10
	.p2align 3
.L896:
	movl	$-1, %eax
	lock xaddl	%eax, 8(%rbp)
	jmp	.L897
	.p2align 4,,10
	.p2align 3
.L880:
	movl	$-1, %eax
	lock xaddl	%eax, 8(%rbp)
	jmp	.L881
	.p2align 4,,10
	.p2align 3
.L916:
	movl	$-1, %eax
	lock xaddl	%eax, 8(%rdi)
	jmp	.L917
	.p2align 4,,10
	.p2align 3
.L862:
	lock addl	$1, 8(%rdx)
	jmp	.L861
	.p2align 4,,10
	.p2align 3
.L864:
	lock addl	$1, 8(%rax)
	jmp	.L863
	.p2align 4,,10
	.p2align 3
.L866:
	lock addl	$1, 8(%rax)
	jmp	.L865
	.p2align 4,,10
	.p2align 3
.L868:
	lock addl	$1, 8(%rax)
	jmp	.L867
	.p2align 4,,10
	.p2align 3
.L870:
	lock addl	$1, 8(%rdx)
	jmp	.L869
	.p2align 4,,10
	.p2align 3
.L872:
	lock addl	$1, 8(%rdx)
	jmp	.L871
	.p2align 4,,10
	.p2align 3
.L912:
	lock addl	$1, 8(%rbp)
	jmp	.L911
	.p2align 4,,10
	.p2align 3
.L914:
	lock addl	$1, 8(%rbp)
	jmp	.L913
	.p2align 4,,10
	.p2align 3
.L1024:
	lock addl	$1, 12(%rbx)
	movq	32(%rbx), %rdi
	testq	%rdi, %rdi
	je	.L927
	cmpb	$0, (%rax)
	jne	.L926
	movl	$-1, %eax
	lock xaddl	%eax, 12(%rdi)
	jmp	.L930
	.p2align 4,,10
	.p2align 3
.L1026:
	movq	0(%rbp), %rax
	movq	%rbp, %rdi
	call	*16(%rax)
	cmpb	$0, (%r12)
	je	.L943
	movl	12(%rbp), %eax
	leal	-1(%rax), %edx
	movl	%edx, 12(%rbp)
.L944:
	cmpl	$1, %eax
	jne	.L939
	movq	0(%rbp), %rax
	movq	%rbp, %rdi
	call	*24(%rax)
	jmp	.L939
	.p2align 4,,10
	.p2align 3
.L1025:
	movq	0(%r13), %rax
	movq	%r13, %rdi
	call	*16(%rax)
	cmpb	$0, (%r12)
	je	.L936
	movl	12(%r13), %eax
	leal	-1(%rax), %edx
	movl	%edx, 12(%r13)
.L937:
	cmpl	$1, %eax
	jne	.L932
	movq	0(%r13), %rax
	movq	%r13, %rdi
	call	*24(%rax)
	jmp	.L932
	.p2align 4,,10
	.p2align 3
.L933:
	movl	$-1, %eax
	lock xaddl	%eax, 8(%r13)
	jmp	.L934
	.p2align 4,,10
	.p2align 3
.L940:
	movl	$-1, %eax
	lock xaddl	%eax, 8(%rbp)
	jmp	.L941
	.p2align 4,,10
	.p2align 3
.L1021:
	movq	312(%rsp), %rax
	subq	%fs:40, %rax
	jne	.L1017
	movq	0(%rbp), %rax
	movq	%rbp, %rdi
	movq	24(%rax), %rax
	addq	$328, %rsp
	.cfi_remember_state
	.cfi_def_cfa_offset 56
	popq	%rbx
	.cfi_def_cfa_offset 48
	popq	%rbp
	.cfi_def_cfa_offset 40
	popq	%r12
	.cfi_def_cfa_offset 32
	popq	%r13
	.cfi_def_cfa_offset 24
	popq	%r14
	.cfi_def_cfa_offset 16
	popq	%r15
	.cfi_def_cfa_offset 8
	jmp	*%rax
	.p2align 4,,10
	.p2align 3
.L1018:
	.cfi_restore_state
	movq	0(%rbp), %rax
	movq	%rbp, %rdi
	call	*24(%rax)
	jmp	.L879
	.p2align 4,,10
	.p2align 3
.L1020:
	movq	0(%rbp), %rax
	movq	%rbp, %rdi
	call	*24(%rax)
	jmp	.L893
	.p2align 4,,10
	.p2align 3
.L1019:
	movq	0(%rbp), %rax
	movq	%rbp, %rdi
	call	*24(%rax)
	jmp	.L886
	.p2align 4,,10
	.p2align 3
.L1023:
	movq	(%rdi), %rax
	call	*24(%rax)
	jmp	.L920
	.p2align 4,,10
	.p2align 3
.L899:
	movl	$-1, %eax
	lock xaddl	%eax, 12(%rbp)
	jmp	.L900
	.p2align 4,,10
	.p2align 3
.L890:
	movl	$-1, %eax
	lock xaddl	%eax, 12(%rbp)
	jmp	.L891
	.p2align 4,,10
	.p2align 3
.L906:
	movl	$-1, %eax
	lock xaddl	%eax, 12(%rbp)
	jmp	.L907
	.p2align 4,,10
	.p2align 3
.L883:
	movl	$-1, %eax
	lock xaddl	%eax, 12(%rbp)
	jmp	.L884
	.p2align 4,,10
	.p2align 3
.L943:
	movl	$-1, %eax
	lock xaddl	%eax, 12(%rbp)
	jmp	.L944
	.p2align 4,,10
	.p2align 3
.L918:
	movl	$-1, %eax
	lock xaddl	%eax, 12(%rdi)
	jmp	.L919
	.p2align 4,,10
	.p2align 3
.L936:
	movl	$-1, %eax
	lock xaddl	%eax, 12(%r13)
	jmp	.L937
.L1017:
	call	__stack_chk_fail@PLT
.L955:
	endbr64
	movq	%rax, %rbp
	jmp	.L874
.L953:
	endbr64
	movq	%rax, %r12
	jmp	.L945
.L954:
	endbr64
	movq	%rax, %rbp
	jmp	.L894
.L952:
	endbr64
	movq	%rax, %r12
	jmp	.L923
.L956:
	endbr64
	movq	%rax, %r12
	jmp	.L921
	.section	.gcc_except_table
.LLSDA7749:
	.byte	0xff
	.byte	0xff
	.byte	0x1
	.uleb128 .LLSDACSE7749-.LLSDACSB7749
.LLSDACSB7749:
	.uleb128 .LEHB17-.LFB7749
	.uleb128 .LEHE17-.LEHB17
	.uleb128 0
	.uleb128 0
	.uleb128 .LEHB18-.LFB7749
	.uleb128 .LEHE18-.LEHB18
	.uleb128 .L955-.LFB7749
	.uleb128 0
	.uleb128 .LEHB19-.LFB7749
	.uleb128 .LEHE19-.LEHB19
	.uleb128 .L954-.LFB7749
	.uleb128 0
	.uleb128 .LEHB20-.LFB7749
	.uleb128 .LEHE20-.LEHB20
	.uleb128 0
	.uleb128 0
	.uleb128 .LEHB21-.LFB7749
	.uleb128 .LEHE21-.LEHB21
	.uleb128 .L952-.LFB7749
	.uleb128 0
	.uleb128 .LEHB22-.LFB7749
	.uleb128 .LEHE22-.LEHB22
	.uleb128 .L956-.LFB7749
	.uleb128 0
	.uleb128 .LEHB23-.LFB7749
	.uleb128 .LEHE23-.LEHB23
	.uleb128 .L953-.LFB7749
	.uleb128 0
	.uleb128 .LEHB24-.LFB7749
	.uleb128 .LEHE24-.LEHB24
	.uleb128 0
	.uleb128 0
.LLSDACSE7749:
	.text
	.cfi_endproc
	.section	.text.unlikely
	.cfi_startproc
	.cfi_personality 0x9b,DW.ref.__gxx_personality_v0
	.cfi_lsda 0x1b,.LLSDAC7749
	.type	_ZZN8asiodnp318TCPClientIOHandler12StartConnectERKSt10shared_ptrIN7asiopal9TCPClientEERKN7openpal12TimeDurationEENKUlRKS1_INS2_8ExecutorEEN4asio19basic_stream_socketINSF_2ip3tcpENSF_21stream_socket_serviceISI_EEEERKSt10error_codeE_clESE_SL_SO_.cold, @function
_ZZN8asiodnp318TCPClientIOHandler12StartConnectERKSt10shared_ptrIN7asiopal9TCPClientEERKN7openpal12TimeDurationEENKUlRKS1_INS2_8ExecutorEEN4asio19basic_stream_socketINSF_2ip3tcpENSF_21stream_socket_serviceISI_EEEERKSt10error_codeE_clESE_SL_SO_.cold:
.LFSB7749:
.L874:
	.cfi_def_cfa_offset 384
	.cfi_offset 3, -56
	.cfi_offset 6, -48
	.cfi_offset 12, -40
	.cfi_offset 13, -32
	.cfi_offset 14, -24
	.cfi_offset 15, -16
	movq	176(%rsp), %rax
	testq	%rax, %rax
	je	.L876
	leaq	160(%rsp), %rdi
	movl	$3, %edx
	movq	%rdi, %rsi
	call	*%rax
	jmp	.L876
.L945:
	movq	104(%rsp), %rdi
	testq	%rdi, %rdi
	je	.L923
	call	_ZNSt16_Sp_counted_baseILN9__gnu_cxx12_Lock_policyE2EE10_M_releaseEv@PLT
.L923:
	testq	%rbp, %rbp
	je	.L947
	movq	%rbp, %rdi
	call	_ZNSt16_Sp_counted_baseILN9__gnu_cxx12_Lock_policyE2EE10_M_releaseEv@PLT
.L947:
	movq	72(%rsp), %rax
	leaq	48(%rsp), %rsi
	leaq	40(%rax), %rdi
	call	_ZN4asio6detail28reactive_socket_service_base7destroyERNS1_24base_implementation_typeE@PLT
	movq	%r12, %rdi
.LEHB25:
	call	_Unwind_Resume@PLT
.LEHE25:
.L894:
	movq	176(%rsp), %rax
	testq	%rax, %rax
	je	.L876
	movl	$3, %edx
	movq	%r13, %rsi
	movq	%r13, %rdi
	call	*%rax
.L876:
	leaq	104(%rsp), %rdi
	call	_ZZZN8asiodnp318TCPClientIOHandler12StartConnectERKSt10shared_ptrIN7asiopal9TCPClientEERKN7openpal12TimeDurationEENKUlRKS1_INS2_8ExecutorEEN4asio19basic_stream_socketINSF_2ip3tcpENSF_21stream_socket_serviceISI_EEEERKSt10error_codeE_clESE_SL_SO_ENUlvE_D1Ev
	leaq	48(%rsp), %rdi
	call	_ZZZN8asiodnp318TCPClientIOHandler12StartConnectERKSt10shared_ptrIN7asiopal9TCPClientEERKN7openpal12TimeDurationEENKUlRKS1_INS2_8ExecutorEEN4asio19basic_stream_socketINSF_2ip3tcpENSF_21stream_socket_serviceISI_EEEERKSt10error_codeE_clESE_SL_SO_ENUlvE_D1Ev
	movq	%rbp, %rdi
.LEHB26:
	call	_Unwind_Resume@PLT
.LEHE26:
.L921:
	movq	120(%rsp), %rax
	movq	%r13, %rsi
	leaq	40(%rax), %rdi
	call	_ZN4asio6detail28reactive_socket_service_base7destroyERNS1_24base_implementation_typeE@PLT
	movq	40(%rsp), %rdi
	testq	%rdi, %rdi
	je	.L922
	call	_ZNSt16_Sp_counted_baseILN9__gnu_cxx12_Lock_policyE2EE10_M_releaseEv@PLT
.L922:
	movl	$112, %esi
	movq	%rbx, %rdi
	call	_ZdlPvm@PLT
	jmp	.L923
	.cfi_endproc
.LFE7749:
	.section	.gcc_except_table
.LLSDAC7749:
	.byte	0xff
	.byte	0xff
	.byte	0x1
	.uleb128 .LLSDACSEC7749-.LLSDACSBC7749
.LLSDACSBC7749:
	.uleb128 .LEHB25-.LCOLDB33
	.uleb128 .LEHE25-.LEHB25
	.uleb128 0
	.uleb128 0
	.uleb128 .LEHB26-.LCOLDB33
	.uleb128 .LEHE26-.LEHB26
	.uleb128 0
	.uleb128 0
.LLSDACSEC7749:
	.section	.text.unlikely
	.text
	.size	_ZZN8asiodnp318TCPClientIOHandler12StartConnectERKSt10shared_ptrIN7asiopal9TCPClientEERKN7openpal12TimeDurationEENKUlRKS1_INS2_8ExecutorEEN4asio19basic_stream_socketINSF_2ip3tcpENSF_21stream_socket_serviceISI_EEEERKSt10error_codeE_clESE_SL_SO_, .-_ZZN8asiodnp318TCPClientIOHandler12StartConnectERKSt10shared_ptrIN7asiopal9TCPClientEERKN7openpal12TimeDurationEENKUlRKS1_INS2_8ExecutorEEN4asio19basic_stream_socketINSF_2ip3tcpENSF_21stream_socket_serviceISI_EEEERKSt10error_codeE_clESE_SL_SO_
	.section	.text.unlikely
	.size	_ZZN8asiodnp318TCPClientIOHandler12StartConnectERKSt10shared_ptrIN7asiopal9TCPClientEERKN7openpal12TimeDurationEENKUlRKS1_INS2_8ExecutorEEN4asio19basic_stream_socketINSF_2ip3tcpENSF_21stream_socket_serviceISI_EEEERKSt10error_codeE_clESE_SL_SO_.cold, .-_ZZN8asiodnp318TCPClientIOHandler12StartConnectERKSt10shared_ptrIN7asiopal9TCPClientEERKN7openpal12TimeDurationEENKUlRKS1_INS2_8ExecutorEEN4asio19basic_stream_socketINSF_2ip3tcpENSF_21stream_socket_serviceISI_EEEERKSt10error_codeE_clESE_SL_SO_.cold
.LCOLDE33:
	.text
.LHOTE33:
	.section	.text.unlikely
.LCOLDB34:
	.text
.LHOTB34:
	.p2align 4
	.type	_ZNSt17_Function_handlerIFvRKSt10shared_ptrIN7asiopal8ExecutorEEN4asio19basic_stream_socketINS6_2ip3tcpENS6_21stream_socket_serviceIS9_EEEERKSt10error_codeEZN8asiodnp318TCPClientIOHandler12StartConnectERKS0_INS1_9TCPClientEERKN7openpal12TimeDurationEEUlS5_SC_SF_E_E9_M_invokeERKSt9_Any_dataS5_OSC_SF_, @function
_ZNSt17_Function_handlerIFvRKSt10shared_ptrIN7asiopal8ExecutorEEN4asio19basic_stream_socketINS6_2ip3tcpENS6_21stream_socket_serviceIS9_EEEERKSt10error_codeEZN8asiodnp318TCPClientIOHandler12StartConnectERKS0_INS1_9TCPClientEERKN7openpal12TimeDurationEEUlS5_SC_SF_E_E9_M_invokeERKSt9_Any_dataS5_OSC_SF_:
.LFB9185:
	.cfi_startproc
	.cfi_personality 0x9b,DW.ref.__gxx_personality_v0
	.cfi_lsda 0x1b,.LLSDA9185
	endbr64
	pushq	%r12
	.cfi_def_cfa_offset 16
	.cfi_offset 12, -16
	pushq	%rbp
	.cfi_def_cfa_offset 24
	.cfi_offset 6, -24
	subq	$56, %rsp
	.cfi_def_cfa_offset 80
	movq	(%rdi), %rdi
	movq	%fs:40, %rax
	movq	%rax, 40(%rsp)
	xorl	%eax, %eax
	movq	24(%rdx), %rax
	movq	%rsp, %rbp
	movq	%rax, 24(%rsp)
	movl	(%rdx), %eax
	movl	$-1, (%rdx)
	movl	%eax, (%rsp)
	movzbl	4(%rdx), %eax
	movb	$0, 4(%rdx)
	movb	%al, 4(%rsp)
	movq	8(%rdx), %rax
	movq	$0, 8(%rdx)
	movq	%rax, 8(%rsp)
	movl	16(%rdx), %eax
	movl	$2, 16(%rdx)
	movq	%rbp, %rdx
	movl	%eax, 16(%rsp)
.LEHB27:
	call	_ZZN8asiodnp318TCPClientIOHandler12StartConnectERKSt10shared_ptrIN7asiopal9TCPClientEERKN7openpal12TimeDurationEENKUlRKS1_INS2_8ExecutorEEN4asio19basic_stream_socketINSF_2ip3tcpENSF_21stream_socket_serviceISI_EEEERKSt10error_codeE_clESE_SL_SO_
.LEHE27:
	movq	24(%rsp), %rax
	movq	%rbp, %rsi
	leaq	40(%rax), %rdi
	call	_ZN4asio6detail28reactive_socket_service_base7destroyERNS1_24base_implementation_typeE@PLT
	movq	40(%rsp), %rax
	subq	%fs:40, %rax
	jne	.L1033
	addq	$56, %rsp
	.cfi_remember_state
	.cfi_def_cfa_offset 24
	popq	%rbp
	.cfi_def_cfa_offset 16
	popq	%r12
	.cfi_def_cfa_offset 8
	ret
.L1033:
	.cfi_restore_state
	call	__stack_chk_fail@PLT
.L1030:
	endbr64
	movq	%rax, %r12
	jmp	.L1028
	.section	.gcc_except_table
.LLSDA9185:
	.byte	0xff
	.byte	0xff
	.byte	0x1
	.uleb128 .LLSDACSE9185-.LLSDACSB9185
.LLSDACSB9185:
	.uleb128 .LEHB27-.LFB9185
	.uleb128 .LEHE27-.LEHB27
	.uleb128 .L1030-.LFB9185
	.uleb128 0
.LLSDACSE9185:
	.text
	.cfi_endproc
	.section	.text.unlikely
	.cfi_startproc
	.cfi_personality 0x9b,DW.ref.__gxx_personality_v0
	.cfi_lsda 0x1b,.LLSDAC9185
	.type	_ZNSt17_Function_handlerIFvRKSt10shared_ptrIN7asiopal8ExecutorEEN4asio19basic_stream_socketINS6_2ip3tcpENS6_21stream_socket_serviceIS9_EEEERKSt10error_codeEZN8asiodnp318TCPClientIOHandler12StartConnectERKS0_INS1_9TCPClientEERKN7openpal12TimeDurationEEUlS5_SC_SF_E_E9_M_invokeERKSt9_Any_dataS5_OSC_SF_.cold, @function
_ZNSt17_Function_handlerIFvRKSt10shared_ptrIN7asiopal8ExecutorEEN4asio19basic_stream_socketINS6_2ip3tcpENS6_21stream_socket_serviceIS9_EEEERKSt10error_codeEZN8asiodnp318TCPClientIOHandler12StartConnectERKS0_INS1_9TCPClientEERKN7openpal12TimeDurationEEUlS5_SC_SF_E_E9_M_invokeERKSt9_Any_dataS5_OSC_SF_.cold:
.LFSB9185:
.L1028:
	.cfi_def_cfa_offset 80
	.cfi_offset 6, -24
	.cfi_offset 12, -16
	movq	24(%rsp), %rax
	movq	%rbp, %rsi
	leaq	40(%rax), %rdi
	call	_ZN4asio6detail28reactive_socket_service_base7destroyERNS1_24base_implementation_typeE@PLT
	movq	%r12, %rdi
.LEHB28:
	call	_Unwind_Resume@PLT
.LEHE28:
	.cfi_endproc
.LFE9185:
	.section	.gcc_except_table
.LLSDAC9185:
	.byte	0xff
	.byte	0xff
	.byte	0x1
	.uleb128 .LLSDACSEC9185-.LLSDACSBC9185
.LLSDACSBC9185:
	.uleb128 .LEHB28-.LCOLDB34
	.uleb128 .LEHE28-.LEHB28
	.uleb128 0
	.uleb128 0
.LLSDACSEC9185:
	.section	.text.unlikely
	.text
	.size	_ZNSt17_Function_handlerIFvRKSt10shared_ptrIN7asiopal8ExecutorEEN4asio19basic_stream_socketINS6_2ip3tcpENS6_21stream_socket_serviceIS9_EEEERKSt10error_codeEZN8asiodnp318TCPClientIOHandler12StartConnectERKS0_INS1_9TCPClientEERKN7openpal12TimeDurationEEUlS5_SC_SF_E_E9_M_invokeERKSt9_Any_dataS5_OSC_SF_, .-_ZNSt17_Function_handlerIFvRKSt10shared_ptrIN7asiopal8ExecutorEEN4asio19basic_stream_socketINS6_2ip3tcpENS6_21stream_socket_serviceIS9_EEEERKSt10error_codeEZN8asiodnp318TCPClientIOHandler12StartConnectERKS0_INS1_9TCPClientEERKN7openpal12TimeDurationEEUlS5_SC_SF_E_E9_M_invokeERKSt9_Any_dataS5_OSC_SF_
	.section	.text.unlikely
	.size	_ZNSt17_Function_handlerIFvRKSt10shared_ptrIN7asiopal8ExecutorEEN4asio19basic_stream_socketINS6_2ip3tcpENS6_21stream_socket_serviceIS9_EEEERKSt10error_codeEZN8asiodnp318TCPClientIOHandler12StartConnectERKS0_INS1_9TCPClientEERKN7openpal12TimeDurationEEUlS5_SC_SF_E_E9_M_invokeERKSt9_Any_dataS5_OSC_SF_.cold, .-_ZNSt17_Function_handlerIFvRKSt10shared_ptrIN7asiopal8ExecutorEEN4asio19basic_stream_socketINS6_2ip3tcpENS6_21stream_socket_serviceIS9_EEEERKSt10error_codeEZN8asiodnp318TCPClientIOHandler12StartConnectERKS0_INS1_9TCPClientEERKN7openpal12TimeDurationEEUlS5_SC_SF_E_E9_M_invokeERKSt9_Any_dataS5_OSC_SF_.cold
.LCOLDE34:
	.text
.LHOTE34:
	.section	.text.startup,"ax",@progbits
	.p2align 4
	.type	_GLOBAL__sub_I_TCPClientIOHandler.cpp, @function
_GLOBAL__sub_I_TCPClientIOHandler.cpp:
.LFB10667:
	.cfi_startproc
	endbr64
	pushq	%rbp
	.cfi_def_cfa_offset 16
	.cfi_offset 6, -16
	call	_ZN4asio15system_categoryEv@PLT
	movq	_ZGVZN4asio5error18get_netdb_categoryEvE8instance@GOTPCREL(%rip), %rbp
	movzbl	0(%rbp), %eax
	testb	%al, %al
	je	.L1059
.L1036:
	movq	_ZGVZN4asio5error21get_addrinfo_categoryEvE8instance@GOTPCREL(%rip), %rbp
	movzbl	0(%rbp), %eax
	testb	%al, %al
	je	.L1060
.L1039:
	movq	_ZGVZN4asio5error17get_misc_categoryEvE8instance@GOTPCREL(%rip), %rbp
	movzbl	0(%rbp), %eax
	testb	%al, %al
	je	.L1061
.L1042:
	movq	_ZGVN4asio6detail10call_stackINS0_15task_io_serviceENS0_27task_io_service_thread_infoEE4top_E@GOTPCREL(%rip), %rax
	cmpb	$0, (%rax)
	je	.L1062
.L1044:
	movq	_ZGVN4asio6detail12service_baseINS0_13epoll_reactorEE2idE@GOTPCREL(%rip), %rax
	cmpb	$0, (%rax)
	je	.L1063
.L1045:
	movq	_ZGVN4asio6detail12service_baseINS0_15task_io_serviceEE2idE@GOTPCREL(%rip), %rax
	cmpb	$0, (%rax)
	je	.L1064
.L1046:
	movq	_ZGVN4asio6detail10call_stackINS0_14strand_service11strand_implEhE4top_E@GOTPCREL(%rip), %rax
	cmpb	$0, (%rax)
	je	.L1065
.L1047:
	movq	_ZGVN4asio6detail12service_baseINS0_14strand_serviceEE2idE@GOTPCREL(%rip), %rax
	cmpb	$0, (%rax)
	je	.L1066
	popq	%rbp
	.cfi_remember_state
	.cfi_def_cfa_offset 8
	ret
.L1059:
	.cfi_restore_state
	movq	%rbp, %rdi
	call	__cxa_guard_acquire@PLT
	testl	%eax, %eax
	je	.L1036
	movq	_ZZN4asio5error18get_netdb_categoryEvE8instance@GOTPCREL(%rip), %rsi
	movq	_ZN4asio5error6detail14netdb_categoryD1Ev@GOTPCREL(%rip), %rdi
	leaq	__dso_handle(%rip), %rdx
	call	__cxa_atexit@PLT
	movq	%rbp, %rdi
	call	__cxa_guard_release@PLT
	jmp	.L1036
.L1066:
	movb	$1, (%rax)
	leaq	__dso_handle(%rip), %rdx
	movq	_ZN4asio6detail12service_baseINS0_14strand_serviceEE2idE@GOTPCREL(%rip), %rsi
	movq	_ZN4asio6detail10service_idINS0_14strand_serviceEED1Ev@GOTPCREL(%rip), %rdi
	popq	%rbp
	.cfi_remember_state
	.cfi_def_cfa_offset 8
	jmp	__cxa_atexit@PLT
.L1065:
	.cfi_restore_state
	movb	$1, (%rax)
	movq	_ZN4asio6detail10call_stackINS0_14strand_service11strand_implEhE4top_E@GOTPCREL(%rip), %rsi
	leaq	__dso_handle(%rip), %rdx
	movq	_ZN4asio6detail7tss_ptrINS0_10call_stackINS0_14strand_service11strand_implEhE7contextEED1Ev@GOTPCREL(%rip), %rdi
	call	__cxa_atexit@PLT
	jmp	.L1047
.L1064:
	movb	$1, (%rax)
	movq	_ZN4asio6detail12service_baseINS0_15task_io_serviceEE2idE@GOTPCREL(%rip), %rsi
	leaq	__dso_handle(%rip), %rdx
	movq	_ZN4asio6detail10service_idINS0_15task_io_serviceEED1Ev@GOTPCREL(%rip), %rdi
	call	__cxa_atexit@PLT
	jmp	.L1046
.L1063:
	movb	$1, (%rax)
	movq	_ZN4asio6detail12service_baseINS0_13epoll_reactorEE2idE@GOTPCREL(%rip), %rsi
	leaq	__dso_handle(%rip), %rdx
	movq	_ZN4asio6detail10service_idINS0_13epoll_reactorEED1Ev@GOTPCREL(%rip), %rdi
	call	__cxa_atexit@PLT
	jmp	.L1045
.L1062:
	movb	$1, (%rax)
	movq	_ZN4asio6detail10call_stackINS0_15task_io_serviceENS0_27task_io_service_thread_infoEE4top_E@GOTPCREL(%rip), %rsi
	leaq	__dso_handle(%rip), %rdx
	movq	_ZN4asio6detail7tss_ptrINS0_10call_stackINS0_15task_io_serviceENS0_27task_io_service_thread_infoEE7contextEED1Ev@GOTPCREL(%rip), %rdi
	call	__cxa_atexit@PLT
	jmp	.L1044
.L1061:
	movq	%rbp, %rdi
	call	__cxa_guard_acquire@PLT
	testl	%eax, %eax
	je	.L1042
	movq	_ZZN4asio5error17get_misc_categoryEvE8instance@GOTPCREL(%rip), %rsi
	movq	_ZN4asio5error6detail13misc_categoryD1Ev@GOTPCREL(%rip), %rdi
	leaq	__dso_handle(%rip), %rdx
	call	__cxa_atexit@PLT
	movq	%rbp, %rdi
	call	__cxa_guard_release@PLT
	jmp	.L1042
.L1060:
	movq	%rbp, %rdi
	call	__cxa_guard_acquire@PLT
	testl	%eax, %eax
	je	.L1039
	movq	_ZZN4asio5error21get_addrinfo_categoryEvE8instance@GOTPCREL(%rip), %rsi
	movq	_ZN4asio5error6detail17addrinfo_categoryD1Ev@GOTPCREL(%rip), %rdi
	leaq	__dso_handle(%rip), %rdx
	call	__cxa_atexit@PLT
	movq	%rbp, %rdi
	call	__cxa_guard_release@PLT
	jmp	.L1039
	.cfi_endproc
.LFE10667:
	.size	_GLOBAL__sub_I_TCPClientIOHandler.cpp, .-_GLOBAL__sub_I_TCPClientIOHandler.cpp
	.section	.init_array,"aw"
	.align 8
	.quad	_GLOBAL__sub_I_TCPClientIOHandler.cpp
	.weak	_ZTSSt11_Mutex_baseILN9__gnu_cxx12_Lock_policyE2EE
	.section	.rodata._ZTSSt11_Mutex_baseILN9__gnu_cxx12_Lock_policyE2EE,"aG",@progbits,_ZTSSt11_Mutex_baseILN9__gnu_cxx12_Lock_policyE2EE,comdat
	.align 32
	.type	_ZTSSt11_Mutex_baseILN9__gnu_cxx12_Lock_policyE2EE, @object
	.size	_ZTSSt11_Mutex_baseILN9__gnu_cxx12_Lock_policyE2EE, 47
_ZTSSt11_Mutex_baseILN9__gnu_cxx12_Lock_policyE2EE:
	.string	"St11_Mutex_baseILN9__gnu_cxx12_Lock_policyE2EE"
	.weak	_ZTISt11_Mutex_baseILN9__gnu_cxx12_Lock_policyE2EE
	.section	.data.rel.ro._ZTISt11_Mutex_baseILN9__gnu_cxx12_Lock_policyE2EE,"awG",@progbits,_ZTISt11_Mutex_baseILN9__gnu_cxx12_Lock_policyE2EE,comdat
	.align 8
	.type	_ZTISt11_Mutex_baseILN9__gnu_cxx12_Lock_policyE2EE, @object
	.size	_ZTISt11_Mutex_baseILN9__gnu_cxx12_Lock_policyE2EE, 16
_ZTISt11_Mutex_baseILN9__gnu_cxx12_Lock_policyE2EE:
	.quad	_ZTVN10__cxxabiv117__class_type_infoE+16
	.quad	_ZTSSt11_Mutex_baseILN9__gnu_cxx12_Lock_policyE2EE
	.weak	_ZTSSt23enable_shared_from_thisIN7asiopal13IAsyncChannelEE
	.section	.rodata._ZTSSt23enable_shared_from_thisIN7asiopal13IAsyncChannelEE,"aG",@progbits,_ZTSSt23enable_shared_from_thisIN7asiopal13IAsyncChannelEE,comdat
	.align 32
	.type	_ZTSSt23enable_shared_from_thisIN7asiopal13IAsyncChannelEE, @object
	.size	_ZTSSt23enable_shared_from_thisIN7asiopal13IAsyncChannelEE, 55
_ZTSSt23enable_shared_from_thisIN7asiopal13IAsyncChannelEE:
	.string	"St23enable_shared_from_thisIN7asiopal13IAsyncChannelEE"
	.weak	_ZTISt23enable_shared_from_thisIN7asiopal13IAsyncChannelEE
	.section	.data.rel.ro._ZTISt23enable_shared_from_thisIN7asiopal13IAsyncChannelEE,"awG",@progbits,_ZTISt23enable_shared_from_thisIN7asiopal13IAsyncChannelEE,comdat
	.align 8
	.type	_ZTISt23enable_shared_from_thisIN7asiopal13IAsyncChannelEE, @object
	.size	_ZTISt23enable_shared_from_thisIN7asiopal13IAsyncChannelEE, 16
_ZTISt23enable_shared_from_thisIN7asiopal13IAsyncChannelEE:
	.quad	_ZTVN10__cxxabiv117__class_type_infoE+16
	.quad	_ZTSSt23enable_shared_from_thisIN7asiopal13IAsyncChannelEE
	.weak	_ZTSN7openpal10UncopyableE
	.section	.rodata._ZTSN7openpal10UncopyableE,"aG",@progbits,_ZTSN7openpal10UncopyableE,comdat
	.align 16
	.type	_ZTSN7openpal10UncopyableE, @object
	.size	_ZTSN7openpal10UncopyableE, 23
_ZTSN7openpal10UncopyableE:
	.string	"N7openpal10UncopyableE"
	.weak	_ZTIN7openpal10UncopyableE
	.section	.data.rel.ro._ZTIN7openpal10UncopyableE,"awG",@progbits,_ZTIN7openpal10UncopyableE,comdat
	.align 8
	.type	_ZTIN7openpal10UncopyableE, @object
	.size	_ZTIN7openpal10UncopyableE, 16
_ZTIN7openpal10UncopyableE:
	.quad	_ZTVN10__cxxabiv117__class_type_infoE+16
	.quad	_ZTSN7openpal10UncopyableE
	.weak	_ZTSSt19_Sp_make_shared_tag
	.section	.rodata._ZTSSt19_Sp_make_shared_tag,"aG",@progbits,_ZTSSt19_Sp_make_shared_tag,comdat
	.align 16
	.type	_ZTSSt19_Sp_make_shared_tag, @object
	.size	_ZTSSt19_Sp_make_shared_tag, 24
_ZTSSt19_Sp_make_shared_tag:
	.string	"St19_Sp_make_shared_tag"
	.weak	_ZGVN4asio6detail12service_baseINS0_14strand_serviceEE2idE
	.section	.bss._ZGVN4asio6detail12service_baseINS0_14strand_serviceEE2idE,"awG",@nobits,_ZGVN4asio6detail12service_baseINS0_14strand_serviceEE2idE,comdat
	.align 8
	.type	_ZGVN4asio6detail12service_baseINS0_14strand_serviceEE2idE, @gnu_unique_object
	.size	_ZGVN4asio6detail12service_baseINS0_14strand_serviceEE2idE, 8
_ZGVN4asio6detail12service_baseINS0_14strand_serviceEE2idE:
	.zero	8
	.weak	_ZGVN4asio6detail10call_stackINS0_14strand_service11strand_implEhE4top_E
	.section	.bss._ZGVN4asio6detail10call_stackINS0_14strand_service11strand_implEhE4top_E,"awG",@nobits,_ZGVN4asio6detail10call_stackINS0_14strand_service11strand_implEhE4top_E,comdat
	.align 8
	.type	_ZGVN4asio6detail10call_stackINS0_14strand_service11strand_implEhE4top_E, @gnu_unique_object
	.size	_ZGVN4asio6detail10call_stackINS0_14strand_service11strand_implEhE4top_E, 8
_ZGVN4asio6detail10call_stackINS0_14strand_service11strand_implEhE4top_E:
	.zero	8
	.weak	_ZGVN4asio6detail12service_baseINS0_15task_io_serviceEE2idE
	.section	.bss._ZGVN4asio6detail12service_baseINS0_15task_io_serviceEE2idE,"awG",@nobits,_ZGVN4asio6detail12service_baseINS0_15task_io_serviceEE2idE,comdat
	.align 8
	.type	_ZGVN4asio6detail12service_baseINS0_15task_io_serviceEE2idE, @gnu_unique_object
	.size	_ZGVN4asio6detail12service_baseINS0_15task_io_serviceEE2idE, 8
_ZGVN4asio6detail12service_baseINS0_15task_io_serviceEE2idE:
	.zero	8
	.weak	_ZGVN4asio6detail12service_baseINS0_13epoll_reactorEE2idE
	.section	.bss._ZGVN4asio6detail12service_baseINS0_13epoll_reactorEE2idE,"awG",@nobits,_ZGVN4asio6detail12service_baseINS0_13epoll_reactorEE2idE,comdat
	.align 8
	.type	_ZGVN4asio6detail12service_baseINS0_13epoll_reactorEE2idE, @gnu_unique_object
	.size	_ZGVN4asio6detail12service_baseINS0_13epoll_reactorEE2idE, 8
_ZGVN4asio6detail12service_baseINS0_13epoll_reactorEE2idE:
	.zero	8
	.weak	_ZGVN4asio6detail10call_stackINS0_15task_io_serviceENS0_27task_io_service_thread_infoEE4top_E
	.section	.bss._ZGVN4asio6detail10call_stackINS0_15task_io_serviceENS0_27task_io_service_thread_infoEE4top_E,"awG",@nobits,_ZGVN4asio6detail10call_stackINS0_15task_io_serviceENS0_27task_io_service_thread_infoEE4top_E,comdat
	.align 8
	.type	_ZGVN4asio6detail10call_stackINS0_15task_io_serviceENS0_27task_io_service_thread_infoEE4top_E, @gnu_unique_object
	.size	_ZGVN4asio6detail10call_stackINS0_15task_io_serviceENS0_27task_io_service_thread_infoEE4top_E, 8
_ZGVN4asio6detail10call_stackINS0_15task_io_serviceENS0_27task_io_service_thread_infoEE4top_E:
	.zero	8
	.weak	_ZN4asio6detail12service_baseINS0_14strand_serviceEE2idE
	.section	.bss._ZN4asio6detail12service_baseINS0_14strand_serviceEE2idE,"awG",@nobits,_ZN4asio6detail12service_baseINS0_14strand_serviceEE2idE,comdat
	.type	_ZN4asio6detail12service_baseINS0_14strand_serviceEE2idE, @gnu_unique_object
	.size	_ZN4asio6detail12service_baseINS0_14strand_serviceEE2idE, 1
_ZN4asio6detail12service_baseINS0_14strand_serviceEE2idE:
	.zero	1
	.weak	_ZN4asio6detail10call_stackINS0_14strand_service11strand_implEhE4top_E
	.section	.bss._ZN4asio6detail10call_stackINS0_14strand_service11strand_implEhE4top_E,"awG",@nobits,_ZN4asio6detail10call_stackINS0_14strand_service11strand_implEhE4top_E,comdat
	.type	_ZN4asio6detail10call_stackINS0_14strand_service11strand_implEhE4top_E, @gnu_unique_object
	.size	_ZN4asio6detail10call_stackINS0_14strand_service11strand_implEhE4top_E, 1
_ZN4asio6detail10call_stackINS0_14strand_service11strand_implEhE4top_E:
	.zero	1
	.weak	_ZN4asio6detail12service_baseINS0_15task_io_serviceEE2idE
	.section	.bss._ZN4asio6detail12service_baseINS0_15task_io_serviceEE2idE,"awG",@nobits,_ZN4asio6detail12service_baseINS0_15task_io_serviceEE2idE,comdat
	.type	_ZN4asio6detail12service_baseINS0_15task_io_serviceEE2idE, @gnu_unique_object
	.size	_ZN4asio6detail12service_baseINS0_15task_io_serviceEE2idE, 1
_ZN4asio6detail12service_baseINS0_15task_io_serviceEE2idE:
	.zero	1
	.weak	_ZN4asio6detail12service_baseINS0_13epoll_reactorEE2idE
	.section	.bss._ZN4asio6detail12service_baseINS0_13epoll_reactorEE2idE,"awG",@nobits,_ZN4asio6detail12service_baseINS0_13epoll_reactorEE2idE,comdat
	.type	_ZN4asio6detail12service_baseINS0_13epoll_reactorEE2idE, @gnu_unique_object
	.size	_ZN4asio6detail12service_baseINS0_13epoll_reactorEE2idE, 1
_ZN4asio6detail12service_baseINS0_13epoll_reactorEE2idE:
	.zero	1
	.weak	_ZN4asio6detail10call_stackINS0_15task_io_serviceENS0_27task_io_service_thread_infoEE4top_E
	.section	.bss._ZN4asio6detail10call_stackINS0_15task_io_serviceENS0_27task_io_service_thread_infoEE4top_E,"awG",@nobits,_ZN4asio6detail10call_stackINS0_15task_io_serviceENS0_27task_io_service_thread_infoEE4top_E,comdat
	.type	_ZN4asio6detail10call_stackINS0_15task_io_serviceENS0_27task_io_service_thread_infoEE4top_E, @gnu_unique_object
	.size	_ZN4asio6detail10call_stackINS0_15task_io_serviceENS0_27task_io_service_thread_infoEE4top_E, 1
_ZN4asio6detail10call_stackINS0_15task_io_serviceENS0_27task_io_service_thread_infoEE4top_E:
	.zero	1
	.weak	_ZTSSt16_Sp_counted_baseILN9__gnu_cxx12_Lock_policyE2EE
	.section	.rodata._ZTSSt16_Sp_counted_baseILN9__gnu_cxx12_Lock_policyE2EE,"aG",@progbits,_ZTSSt16_Sp_counted_baseILN9__gnu_cxx12_Lock_policyE2EE,comdat
	.align 32
	.type	_ZTSSt16_Sp_counted_baseILN9__gnu_cxx12_Lock_policyE2EE, @object
	.size	_ZTSSt16_Sp_counted_baseILN9__gnu_cxx12_Lock_policyE2EE, 52
_ZTSSt16_Sp_counted_baseILN9__gnu_cxx12_Lock_policyE2EE:
	.string	"St16_Sp_counted_baseILN9__gnu_cxx12_Lock_policyE2EE"
	.weak	_ZTISt16_Sp_counted_baseILN9__gnu_cxx12_Lock_policyE2EE
	.section	.data.rel.ro._ZTISt16_Sp_counted_baseILN9__gnu_cxx12_Lock_policyE2EE,"awG",@progbits,_ZTISt16_Sp_counted_baseILN9__gnu_cxx12_Lock_policyE2EE,comdat
	.align 8
	.type	_ZTISt16_Sp_counted_baseILN9__gnu_cxx12_Lock_policyE2EE, @object
	.size	_ZTISt16_Sp_counted_baseILN9__gnu_cxx12_Lock_policyE2EE, 24
_ZTISt16_Sp_counted_baseILN9__gnu_cxx12_Lock_policyE2EE:
	.quad	_ZTVN10__cxxabiv120__si_class_type_infoE+16
	.quad	_ZTSSt16_Sp_counted_baseILN9__gnu_cxx12_Lock_policyE2EE
	.quad	_ZTISt11_Mutex_baseILN9__gnu_cxx12_Lock_policyE2EE
	.weak	_ZTSN4asio6detail15system_categoryE
	.section	.rodata._ZTSN4asio6detail15system_categoryE,"aG",@progbits,_ZTSN4asio6detail15system_categoryE,comdat
	.align 32
	.type	_ZTSN4asio6detail15system_categoryE, @object
	.size	_ZTSN4asio6detail15system_categoryE, 32
_ZTSN4asio6detail15system_categoryE:
	.string	"N4asio6detail15system_categoryE"
	.weak	_ZTIN4asio6detail15system_categoryE
	.section	.data.rel.ro._ZTIN4asio6detail15system_categoryE,"awG",@progbits,_ZTIN4asio6detail15system_categoryE,comdat
	.align 8
	.type	_ZTIN4asio6detail15system_categoryE, @object
	.size	_ZTIN4asio6detail15system_categoryE, 24
_ZTIN4asio6detail15system_categoryE:
	.quad	_ZTVN10__cxxabiv120__si_class_type_infoE+16
	.quad	_ZTSN4asio6detail15system_categoryE
	.quad	_ZTINSt3_V214error_categoryE
	.weak	_ZTSN4asio5error6detail14netdb_categoryE
	.section	.rodata._ZTSN4asio5error6detail14netdb_categoryE,"aG",@progbits,_ZTSN4asio5error6detail14netdb_categoryE,comdat
	.align 32
	.type	_ZTSN4asio5error6detail14netdb_categoryE, @object
	.size	_ZTSN4asio5error6detail14netdb_categoryE, 37
_ZTSN4asio5error6detail14netdb_categoryE:
	.string	"N4asio5error6detail14netdb_categoryE"
	.weak	_ZTIN4asio5error6detail14netdb_categoryE
	.section	.data.rel.ro._ZTIN4asio5error6detail14netdb_categoryE,"awG",@progbits,_ZTIN4asio5error6detail14netdb_categoryE,comdat
	.align 8
	.type	_ZTIN4asio5error6detail14netdb_categoryE, @object
	.size	_ZTIN4asio5error6detail14netdb_categoryE, 24
_ZTIN4asio5error6detail14netdb_categoryE:
	.quad	_ZTVN10__cxxabiv120__si_class_type_infoE+16
	.quad	_ZTSN4asio5error6detail14netdb_categoryE
	.quad	_ZTINSt3_V214error_categoryE
	.weak	_ZTSN4asio5error6detail17addrinfo_categoryE
	.section	.rodata._ZTSN4asio5error6detail17addrinfo_categoryE,"aG",@progbits,_ZTSN4asio5error6detail17addrinfo_categoryE,comdat
	.align 32
	.type	_ZTSN4asio5error6detail17addrinfo_categoryE, @object
	.size	_ZTSN4asio5error6detail17addrinfo_categoryE, 40
_ZTSN4asio5error6detail17addrinfo_categoryE:
	.string	"N4asio5error6detail17addrinfo_categoryE"
	.weak	_ZTIN4asio5error6detail17addrinfo_categoryE
	.section	.data.rel.ro._ZTIN4asio5error6detail17addrinfo_categoryE,"awG",@progbits,_ZTIN4asio5error6detail17addrinfo_categoryE,comdat
	.align 8
	.type	_ZTIN4asio5error6detail17addrinfo_categoryE, @object
	.size	_ZTIN4asio5error6detail17addrinfo_categoryE, 24
_ZTIN4asio5error6detail17addrinfo_categoryE:
	.quad	_ZTVN10__cxxabiv120__si_class_type_infoE+16
	.quad	_ZTSN4asio5error6detail17addrinfo_categoryE
	.quad	_ZTINSt3_V214error_categoryE
	.weak	_ZTSN4asio5error6detail13misc_categoryE
	.section	.rodata._ZTSN4asio5error6detail13misc_categoryE,"aG",@progbits,_ZTSN4asio5error6detail13misc_categoryE,comdat
	.align 32
	.type	_ZTSN4asio5error6detail13misc_categoryE, @object
	.size	_ZTSN4asio5error6detail13misc_categoryE, 36
_ZTSN4asio5error6detail13misc_categoryE:
	.string	"N4asio5error6detail13misc_categoryE"
	.weak	_ZTIN4asio5error6detail13misc_categoryE
	.section	.data.rel.ro._ZTIN4asio5error6detail13misc_categoryE,"awG",@progbits,_ZTIN4asio5error6detail13misc_categoryE,comdat
	.align 8
	.type	_ZTIN4asio5error6detail13misc_categoryE, @object
	.size	_ZTIN4asio5error6detail13misc_categoryE, 24
_ZTIN4asio5error6detail13misc_categoryE:
	.quad	_ZTVN10__cxxabiv120__si_class_type_infoE+16
	.quad	_ZTSN4asio5error6detail13misc_categoryE
	.quad	_ZTINSt3_V214error_categoryE
	.weak	_ZTSN7asiopal13IAsyncChannelE
	.section	.rodata._ZTSN7asiopal13IAsyncChannelE,"aG",@progbits,_ZTSN7asiopal13IAsyncChannelE,comdat
	.align 16
	.type	_ZTSN7asiopal13IAsyncChannelE, @object
	.size	_ZTSN7asiopal13IAsyncChannelE, 26
_ZTSN7asiopal13IAsyncChannelE:
	.string	"N7asiopal13IAsyncChannelE"
	.weak	_ZTIN7asiopal13IAsyncChannelE
	.section	.data.rel.ro._ZTIN7asiopal13IAsyncChannelE,"awG",@progbits,_ZTIN7asiopal13IAsyncChannelE,comdat
	.align 8
	.type	_ZTIN7asiopal13IAsyncChannelE, @object
	.size	_ZTIN7asiopal13IAsyncChannelE, 56
_ZTIN7asiopal13IAsyncChannelE:
	.quad	_ZTVN10__cxxabiv121__vmi_class_type_infoE+16
	.quad	_ZTSN7asiopal13IAsyncChannelE
	.long	0
	.long	2
	.quad	_ZTISt23enable_shared_from_thisIN7asiopal13IAsyncChannelEE
	.quad	2050
	.quad	_ZTIN7openpal10UncopyableE
	.quad	0
	.weak	_ZTSN8asiodnp318TCPClientIOHandlerE
	.section	.rodata._ZTSN8asiodnp318TCPClientIOHandlerE,"aG",@progbits,_ZTSN8asiodnp318TCPClientIOHandlerE,comdat
	.align 32
	.type	_ZTSN8asiodnp318TCPClientIOHandlerE, @object
	.size	_ZTSN8asiodnp318TCPClientIOHandlerE, 32
_ZTSN8asiodnp318TCPClientIOHandlerE:
	.string	"N8asiodnp318TCPClientIOHandlerE"
	.weak	_ZTIN8asiodnp318TCPClientIOHandlerE
	.section	.data.rel.ro._ZTIN8asiodnp318TCPClientIOHandlerE,"awG",@progbits,_ZTIN8asiodnp318TCPClientIOHandlerE,comdat
	.align 8
	.type	_ZTIN8asiodnp318TCPClientIOHandlerE, @object
	.size	_ZTIN8asiodnp318TCPClientIOHandlerE, 24
_ZTIN8asiodnp318TCPClientIOHandlerE:
	.quad	_ZTVN10__cxxabiv120__si_class_type_infoE+16
	.quad	_ZTSN8asiodnp318TCPClientIOHandlerE
	.quad	_ZTIN8asiodnp39IOHandlerE
	.section	.data.rel.ro,"aw"
	.align 8
	.type	_ZTIZN8asiodnp318TCPClientIOHandler12StartConnectERKSt10shared_ptrIN7asiopal9TCPClientEERKN7openpal12TimeDurationEEUlRKS1_INS2_8ExecutorEEN4asio19basic_stream_socketINSF_2ip3tcpENSF_21stream_socket_serviceISI_EEEERKSt10error_codeE_, @object
	.size	_ZTIZN8asiodnp318TCPClientIOHandler12StartConnectERKSt10shared_ptrIN7asiopal9TCPClientEERKN7openpal12TimeDurationEEUlRKS1_INS2_8ExecutorEEN4asio19basic_stream_socketINSF_2ip3tcpENSF_21stream_socket_serviceISI_EEEERKSt10error_codeE_, 16
_ZTIZN8asiodnp318TCPClientIOHandler12StartConnectERKSt10shared_ptrIN7asiopal9TCPClientEERKN7openpal12TimeDurationEEUlRKS1_INS2_8ExecutorEEN4asio19basic_stream_socketINSF_2ip3tcpENSF_21stream_socket_serviceISI_EEEERKSt10error_codeE_:
	.quad	_ZTVN10__cxxabiv117__class_type_infoE+16
	.quad	_ZTSZN8asiodnp318TCPClientIOHandler12StartConnectERKSt10shared_ptrIN7asiopal9TCPClientEERKN7openpal12TimeDurationEEUlRKS1_INS2_8ExecutorEEN4asio19basic_stream_socketINSF_2ip3tcpENSF_21stream_socket_serviceISI_EEEERKSt10error_codeE_
	.section	.rodata
	.align 32
	.type	_ZTSZN8asiodnp318TCPClientIOHandler12StartConnectERKSt10shared_ptrIN7asiopal9TCPClientEERKN7openpal12TimeDurationEEUlRKS1_INS2_8ExecutorEEN4asio19basic_stream_socketINSF_2ip3tcpENSF_21stream_socket_serviceISI_EEEERKSt10error_codeE_, @object
	.size	_ZTSZN8asiodnp318TCPClientIOHandler12StartConnectERKSt10shared_ptrIN7asiopal9TCPClientEERKN7openpal12TimeDurationEEUlRKS1_INS2_8ExecutorEEN4asio19basic_stream_socketINSF_2ip3tcpENSF_21stream_socket_serviceISI_EEEERKSt10error_codeE_, 229
_ZTSZN8asiodnp318TCPClientIOHandler12StartConnectERKSt10shared_ptrIN7asiopal9TCPClientEERKN7openpal12TimeDurationEEUlRKS1_INS2_8ExecutorEEN4asio19basic_stream_socketINSF_2ip3tcpENSF_21stream_socket_serviceISI_EEEERKSt10error_codeE_:
	.string	"*ZN8asiodnp318TCPClientIOHandler12StartConnectERKSt10shared_ptrIN7asiopal9TCPClientEERKN7openpal12TimeDurationEEUlRKS1_INS2_8ExecutorEEN4asio19basic_stream_socketINSF_2ip3tcpENSF_21stream_socket_serviceISI_EEEERKSt10error_codeE_"
	.section	.data.rel.ro
	.align 8
	.type	_ZTIZN7openpal8TimerRef5StartIZZN8asiodnp318TCPClientIOHandler12StartConnectERKSt10shared_ptrIN7asiopal9TCPClientEERKNS_12TimeDurationEENKUlRKS4_INS5_8ExecutorEEN4asio19basic_stream_socketINSH_2ip3tcpENSH_21stream_socket_serviceISK_EEEERKSt10error_codeE_clESG_SN_SQ_EUlvE_EEbSC_RKT_EUlvE_, @object
	.size	_ZTIZN7openpal8TimerRef5StartIZZN8asiodnp318TCPClientIOHandler12StartConnectERKSt10shared_ptrIN7asiopal9TCPClientEERKNS_12TimeDurationEENKUlRKS4_INS5_8ExecutorEEN4asio19basic_stream_socketINSH_2ip3tcpENSH_21stream_socket_serviceISK_EEEERKSt10error_codeE_clESG_SN_SQ_EUlvE_EEbSC_RKT_EUlvE_, 16
_ZTIZN7openpal8TimerRef5StartIZZN8asiodnp318TCPClientIOHandler12StartConnectERKSt10shared_ptrIN7asiopal9TCPClientEERKNS_12TimeDurationEENKUlRKS4_INS5_8ExecutorEEN4asio19basic_stream_socketINSH_2ip3tcpENSH_21stream_socket_serviceISK_EEEERKSt10error_codeE_clESG_SN_SQ_EUlvE_EEbSC_RKT_EUlvE_:
	.quad	_ZTVN10__cxxabiv117__class_type_infoE+16
	.quad	_ZTSZN7openpal8TimerRef5StartIZZN8asiodnp318TCPClientIOHandler12StartConnectERKSt10shared_ptrIN7asiopal9TCPClientEERKNS_12TimeDurationEENKUlRKS4_INS5_8ExecutorEEN4asio19basic_stream_socketINSH_2ip3tcpENSH_21stream_socket_serviceISK_EEEERKSt10error_codeE_clESG_SN_SQ_EUlvE_EEbSC_RKT_EUlvE_
	.section	.rodata
	.align 32
	.type	_ZTSZN7openpal8TimerRef5StartIZZN8asiodnp318TCPClientIOHandler12StartConnectERKSt10shared_ptrIN7asiopal9TCPClientEERKNS_12TimeDurationEENKUlRKS4_INS5_8ExecutorEEN4asio19basic_stream_socketINSH_2ip3tcpENSH_21stream_socket_serviceISK_EEEERKSt10error_codeE_clESG_SN_SQ_EUlvE_EEbSC_RKT_EUlvE_, @object
	.size	_ZTSZN7openpal8TimerRef5StartIZZN8asiodnp318TCPClientIOHandler12StartConnectERKSt10shared_ptrIN7asiopal9TCPClientEERKNS_12TimeDurationEENKUlRKS4_INS5_8ExecutorEEN4asio19basic_stream_socketINSH_2ip3tcpENSH_21stream_socket_serviceISK_EEEERKSt10error_codeE_clESG_SN_SQ_EUlvE_EEbSC_RKT_EUlvE_, 286
_ZTSZN7openpal8TimerRef5StartIZZN8asiodnp318TCPClientIOHandler12StartConnectERKSt10shared_ptrIN7asiopal9TCPClientEERKNS_12TimeDurationEENKUlRKS4_INS5_8ExecutorEEN4asio19basic_stream_socketINSH_2ip3tcpENSH_21stream_socket_serviceISK_EEEERKSt10error_codeE_clESG_SN_SQ_EUlvE_EEbSC_RKT_EUlvE_:
	.ascii	"*ZN7openpal8TimerRef5StartIZZ"
	.string	"N8asiodnp318TCPClientIOHandler12StartConnectERKSt10shared_ptrIN7asiopal9TCPClientEERKNS_12TimeDurationEENKUlRKS4_INS5_8ExecutorEEN4asio19basic_stream_socketINSH_2ip3tcpENSH_21stream_socket_serviceISK_EEEERKSt10error_codeE_clESG_SN_SQ_EUlvE_EEbSC_RKT_EUlvE_"
	.weak	_ZTSSt23_Sp_counted_ptr_inplaceIN7asiopal9TCPClientESaIS1_ELN9__gnu_cxx12_Lock_policyE2EE
	.section	.rodata._ZTSSt23_Sp_counted_ptr_inplaceIN7asiopal9TCPClientESaIS1_ELN9__gnu_cxx12_Lock_policyE2EE,"aG",@progbits,_ZTSSt23_Sp_counted_ptr_inplaceIN7asiopal9TCPClientESaIS1_ELN9__gnu_cxx12_Lock_policyE2EE,comdat
	.align 32
	.type	_ZTSSt23_Sp_counted_ptr_inplaceIN7asiopal9TCPClientESaIS1_ELN9__gnu_cxx12_Lock_policyE2EE, @object
	.size	_ZTSSt23_Sp_counted_ptr_inplaceIN7asiopal9TCPClientESaIS1_ELN9__gnu_cxx12_Lock_policyE2EE, 86
_ZTSSt23_Sp_counted_ptr_inplaceIN7asiopal9TCPClientESaIS1_ELN9__gnu_cxx12_Lock_policyE2EE:
	.string	"St23_Sp_counted_ptr_inplaceIN7asiopal9TCPClientESaIS1_ELN9__gnu_cxx12_Lock_policyE2EE"
	.weak	_ZTISt23_Sp_counted_ptr_inplaceIN7asiopal9TCPClientESaIS1_ELN9__gnu_cxx12_Lock_policyE2EE
	.section	.data.rel.ro._ZTISt23_Sp_counted_ptr_inplaceIN7asiopal9TCPClientESaIS1_ELN9__gnu_cxx12_Lock_policyE2EE,"awG",@progbits,_ZTISt23_Sp_counted_ptr_inplaceIN7asiopal9TCPClientESaIS1_ELN9__gnu_cxx12_Lock_policyE2EE,comdat
	.align 8
	.type	_ZTISt23_Sp_counted_ptr_inplaceIN7asiopal9TCPClientESaIS1_ELN9__gnu_cxx12_Lock_policyE2EE, @object
	.size	_ZTISt23_Sp_counted_ptr_inplaceIN7asiopal9TCPClientESaIS1_ELN9__gnu_cxx12_Lock_policyE2EE, 24
_ZTISt23_Sp_counted_ptr_inplaceIN7asiopal9TCPClientESaIS1_ELN9__gnu_cxx12_Lock_policyE2EE:
	.quad	_ZTVN10__cxxabiv120__si_class_type_infoE+16
	.quad	_ZTSSt23_Sp_counted_ptr_inplaceIN7asiopal9TCPClientESaIS1_ELN9__gnu_cxx12_Lock_policyE2EE
	.quad	_ZTISt16_Sp_counted_baseILN9__gnu_cxx12_Lock_policyE2EE
	.weak	_ZTSSt23_Sp_counted_ptr_inplaceIN7asiopal13SocketChannelESaIS1_ELN9__gnu_cxx12_Lock_policyE2EE
	.section	.rodata._ZTSSt23_Sp_counted_ptr_inplaceIN7asiopal13SocketChannelESaIS1_ELN9__gnu_cxx12_Lock_policyE2EE,"aG",@progbits,_ZTSSt23_Sp_counted_ptr_inplaceIN7asiopal13SocketChannelESaIS1_ELN9__gnu_cxx12_Lock_policyE2EE,comdat
	.align 32
	.type	_ZTSSt23_Sp_counted_ptr_inplaceIN7asiopal13SocketChannelESaIS1_ELN9__gnu_cxx12_Lock_policyE2EE, @object
	.size	_ZTSSt23_Sp_counted_ptr_inplaceIN7asiopal13SocketChannelESaIS1_ELN9__gnu_cxx12_Lock_policyE2EE, 91
_ZTSSt23_Sp_counted_ptr_inplaceIN7asiopal13SocketChannelESaIS1_ELN9__gnu_cxx12_Lock_policyE2EE:
	.string	"St23_Sp_counted_ptr_inplaceIN7asiopal13SocketChannelESaIS1_ELN9__gnu_cxx12_Lock_policyE2EE"
	.weak	_ZTISt23_Sp_counted_ptr_inplaceIN7asiopal13SocketChannelESaIS1_ELN9__gnu_cxx12_Lock_policyE2EE
	.section	.data.rel.ro._ZTISt23_Sp_counted_ptr_inplaceIN7asiopal13SocketChannelESaIS1_ELN9__gnu_cxx12_Lock_policyE2EE,"awG",@progbits,_ZTISt23_Sp_counted_ptr_inplaceIN7asiopal13SocketChannelESaIS1_ELN9__gnu_cxx12_Lock_policyE2EE,comdat
	.align 8
	.type	_ZTISt23_Sp_counted_ptr_inplaceIN7asiopal13SocketChannelESaIS1_ELN9__gnu_cxx12_Lock_policyE2EE, @object
	.size	_ZTISt23_Sp_counted_ptr_inplaceIN7asiopal13SocketChannelESaIS1_ELN9__gnu_cxx12_Lock_policyE2EE, 24
_ZTISt23_Sp_counted_ptr_inplaceIN7asiopal13SocketChannelESaIS1_ELN9__gnu_cxx12_Lock_policyE2EE:
	.quad	_ZTVN10__cxxabiv120__si_class_type_infoE+16
	.quad	_ZTSSt23_Sp_counted_ptr_inplaceIN7asiopal13SocketChannelESaIS1_ELN9__gnu_cxx12_Lock_policyE2EE
	.quad	_ZTISt16_Sp_counted_baseILN9__gnu_cxx12_Lock_policyE2EE
	.weak	_ZTVN4asio6detail15system_categoryE
	.section	.data.rel.ro._ZTVN4asio6detail15system_categoryE,"awG",@progbits,_ZTVN4asio6detail15system_categoryE,comdat
	.align 8
	.type	_ZTVN4asio6detail15system_categoryE, @object
	.size	_ZTVN4asio6detail15system_categoryE, 80
_ZTVN4asio6detail15system_categoryE:
	.quad	0
	.quad	_ZTIN4asio6detail15system_categoryE
	.quad	_ZN4asio6detail15system_categoryD1Ev
	.quad	_ZN4asio6detail15system_categoryD0Ev
	.quad	_ZNK4asio6detail15system_category4nameEv
	.quad	_ZNKSt3_V214error_category10_M_messageB5cxx11Ei
	.quad	_ZNK4asio6detail15system_category7messageB5cxx11Ei
	.quad	_ZNKSt3_V214error_category23default_error_conditionEi
	.quad	_ZNKSt3_V214error_category10equivalentEiRKSt15error_condition
	.quad	_ZNKSt3_V214error_category10equivalentERKSt10error_codei
	.weak	_ZTVN4asio5error6detail14netdb_categoryE
	.section	.data.rel.ro._ZTVN4asio5error6detail14netdb_categoryE,"awG",@progbits,_ZTVN4asio5error6detail14netdb_categoryE,comdat
	.align 8
	.type	_ZTVN4asio5error6detail14netdb_categoryE, @object
	.size	_ZTVN4asio5error6detail14netdb_categoryE, 80
_ZTVN4asio5error6detail14netdb_categoryE:
	.quad	0
	.quad	_ZTIN4asio5error6detail14netdb_categoryE
	.quad	_ZN4asio5error6detail14netdb_categoryD1Ev
	.quad	_ZN4asio5error6detail14netdb_categoryD0Ev
	.quad	_ZNK4asio5error6detail14netdb_category4nameEv
	.quad	_ZNKSt3_V214error_category10_M_messageB5cxx11Ei
	.quad	_ZNK4asio5error6detail14netdb_category7messageB5cxx11Ei
	.quad	_ZNKSt3_V214error_category23default_error_conditionEi
	.quad	_ZNKSt3_V214error_category10equivalentEiRKSt15error_condition
	.quad	_ZNKSt3_V214error_category10equivalentERKSt10error_codei
	.weak	_ZTVN4asio5error6detail17addrinfo_categoryE
	.section	.data.rel.ro._ZTVN4asio5error6detail17addrinfo_categoryE,"awG",@progbits,_ZTVN4asio5error6detail17addrinfo_categoryE,comdat
	.align 8
	.type	_ZTVN4asio5error6detail17addrinfo_categoryE, @object
	.size	_ZTVN4asio5error6detail17addrinfo_categoryE, 80
_ZTVN4asio5error6detail17addrinfo_categoryE:
	.quad	0
	.quad	_ZTIN4asio5error6detail17addrinfo_categoryE
	.quad	_ZN4asio5error6detail17addrinfo_categoryD1Ev
	.quad	_ZN4asio5error6detail17addrinfo_categoryD0Ev
	.quad	_ZNK4asio5error6detail17addrinfo_category4nameEv
	.quad	_ZNKSt3_V214error_category10_M_messageB5cxx11Ei
	.quad	_ZNK4asio5error6detail17addrinfo_category7messageB5cxx11Ei
	.quad	_ZNKSt3_V214error_category23default_error_conditionEi
	.quad	_ZNKSt3_V214error_category10equivalentEiRKSt15error_condition
	.quad	_ZNKSt3_V214error_category10equivalentERKSt10error_codei
	.weak	_ZTVN4asio5error6detail13misc_categoryE
	.section	.data.rel.ro._ZTVN4asio5error6detail13misc_categoryE,"awG",@progbits,_ZTVN4asio5error6detail13misc_categoryE,comdat
	.align 8
	.type	_ZTVN4asio5error6detail13misc_categoryE, @object
	.size	_ZTVN4asio5error6detail13misc_categoryE, 80
_ZTVN4asio5error6detail13misc_categoryE:
	.quad	0
	.quad	_ZTIN4asio5error6detail13misc_categoryE
	.quad	_ZN4asio5error6detail13misc_categoryD1Ev
	.quad	_ZN4asio5error6detail13misc_categoryD0Ev
	.quad	_ZNK4asio5error6detail13misc_category4nameEv
	.quad	_ZNKSt3_V214error_category10_M_messageB5cxx11Ei
	.quad	_ZNK4asio5error6detail13misc_category7messageB5cxx11Ei
	.quad	_ZNKSt3_V214error_category23default_error_conditionEi
	.quad	_ZNKSt3_V214error_category10equivalentEiRKSt15error_condition
	.quad	_ZNKSt3_V214error_category10equivalentERKSt10error_codei
	.weak	_ZTVN7asiopal13IAsyncChannelE
	.section	.data.rel.ro._ZTVN7asiopal13IAsyncChannelE,"awG",@progbits,_ZTVN7asiopal13IAsyncChannelE,comdat
	.align 8
	.type	_ZTVN7asiopal13IAsyncChannelE, @object
	.size	_ZTVN7asiopal13IAsyncChannelE, 56
_ZTVN7asiopal13IAsyncChannelE:
	.quad	0
	.quad	_ZTIN7asiopal13IAsyncChannelE
	.quad	0
	.quad	0
	.quad	__cxa_pure_virtual
	.quad	__cxa_pure_virtual
	.quad	__cxa_pure_virtual
	.weak	_ZTVN8asiodnp318TCPClientIOHandlerE
	.section	.data.rel.ro._ZTVN8asiodnp318TCPClientIOHandlerE,"awG",@progbits,_ZTVN8asiodnp318TCPClientIOHandlerE,comdat
	.align 8
	.type	_ZTVN8asiodnp318TCPClientIOHandlerE, @object
	.size	_ZTVN8asiodnp318TCPClientIOHandlerE, 136
_ZTVN8asiodnp318TCPClientIOHandlerE:
	.quad	0
	.quad	_ZTIN8asiodnp318TCPClientIOHandlerE
	.quad	_ZN8asiodnp318TCPClientIOHandlerD1Ev
	.quad	_ZN8asiodnp318TCPClientIOHandlerD0Ev
	.quad	_ZN8asiodnp39IOHandler7OnFrameERKN8opendnp316LinkHeaderFieldsERKN7openpal6RSliceE
	.quad	_ZN8asiodnp39IOHandler14OnReadCompleteERKSt10error_codem
	.quad	_ZN8asiodnp39IOHandler15OnWriteCompleteERKSt10error_codem
	.quad	_ZN8asiodnp318TCPClientIOHandler18BeginChannelAcceptEv
	.quad	_ZN8asiodnp318TCPClientIOHandler20SuspendChannelAcceptEv
	.quad	_ZN8asiodnp318TCPClientIOHandler12ShutdownImplEv
	.quad	_ZN8asiodnp318TCPClientIOHandler17OnChannelShutdownEv
	.quad	-8
	.quad	_ZTIN8asiodnp318TCPClientIOHandlerE
	.quad	_ZThn8_N8asiodnp318TCPClientIOHandlerD1Ev
	.quad	_ZThn8_N8asiodnp318TCPClientIOHandlerD0Ev
	.quad	_ZThn8_N8asiodnp39IOHandler14OnReadCompleteERKSt10error_codem
	.quad	_ZThn8_N8asiodnp39IOHandler15OnWriteCompleteERKSt10error_codem
	.weak	_ZTVSt23_Sp_counted_ptr_inplaceIN7asiopal9TCPClientESaIS1_ELN9__gnu_cxx12_Lock_policyE2EE
	.section	.data.rel.ro._ZTVSt23_Sp_counted_ptr_inplaceIN7asiopal9TCPClientESaIS1_ELN9__gnu_cxx12_Lock_policyE2EE,"awG",@progbits,_ZTVSt23_Sp_counted_ptr_inplaceIN7asiopal9TCPClientESaIS1_ELN9__gnu_cxx12_Lock_policyE2EE,comdat
	.align 8
	.type	_ZTVSt23_Sp_counted_ptr_inplaceIN7asiopal9TCPClientESaIS1_ELN9__gnu_cxx12_Lock_policyE2EE, @object
	.size	_ZTVSt23_Sp_counted_ptr_inplaceIN7asiopal9TCPClientESaIS1_ELN9__gnu_cxx12_Lock_policyE2EE, 56
_ZTVSt23_Sp_counted_ptr_inplaceIN7asiopal9TCPClientESaIS1_ELN9__gnu_cxx12_Lock_policyE2EE:
	.quad	0
	.quad	_ZTISt23_Sp_counted_ptr_inplaceIN7asiopal9TCPClientESaIS1_ELN9__gnu_cxx12_Lock_policyE2EE
	.quad	_ZNSt23_Sp_counted_ptr_inplaceIN7asiopal9TCPClientESaIS1_ELN9__gnu_cxx12_Lock_policyE2EED1Ev
	.quad	_ZNSt23_Sp_counted_ptr_inplaceIN7asiopal9TCPClientESaIS1_ELN9__gnu_cxx12_Lock_policyE2EED0Ev
	.quad	_ZNSt23_Sp_counted_ptr_inplaceIN7asiopal9TCPClientESaIS1_ELN9__gnu_cxx12_Lock_policyE2EE10_M_disposeEv
	.quad	_ZNSt23_Sp_counted_ptr_inplaceIN7asiopal9TCPClientESaIS1_ELN9__gnu_cxx12_Lock_policyE2EE10_M_destroyEv
	.quad	_ZNSt23_Sp_counted_ptr_inplaceIN7asiopal9TCPClientESaIS1_ELN9__gnu_cxx12_Lock_policyE2EE14_M_get_deleterERKSt9type_info
	.weak	_ZTVSt23_Sp_counted_ptr_inplaceIN7asiopal13SocketChannelESaIS1_ELN9__gnu_cxx12_Lock_policyE2EE
	.section	.data.rel.ro._ZTVSt23_Sp_counted_ptr_inplaceIN7asiopal13SocketChannelESaIS1_ELN9__gnu_cxx12_Lock_policyE2EE,"awG",@progbits,_ZTVSt23_Sp_counted_ptr_inplaceIN7asiopal13SocketChannelESaIS1_ELN9__gnu_cxx12_Lock_policyE2EE,comdat
	.align 8
	.type	_ZTVSt23_Sp_counted_ptr_inplaceIN7asiopal13SocketChannelESaIS1_ELN9__gnu_cxx12_Lock_policyE2EE, @object
	.size	_ZTVSt23_Sp_counted_ptr_inplaceIN7asiopal13SocketChannelESaIS1_ELN9__gnu_cxx12_Lock_policyE2EE, 56
_ZTVSt23_Sp_counted_ptr_inplaceIN7asiopal13SocketChannelESaIS1_ELN9__gnu_cxx12_Lock_policyE2EE:
	.quad	0
	.quad	_ZTISt23_Sp_counted_ptr_inplaceIN7asiopal13SocketChannelESaIS1_ELN9__gnu_cxx12_Lock_policyE2EE
	.quad	_ZNSt23_Sp_counted_ptr_inplaceIN7asiopal13SocketChannelESaIS1_ELN9__gnu_cxx12_Lock_policyE2EED1Ev
	.quad	_ZNSt23_Sp_counted_ptr_inplaceIN7asiopal13SocketChannelESaIS1_ELN9__gnu_cxx12_Lock_policyE2EED0Ev
	.quad	_ZNSt23_Sp_counted_ptr_inplaceIN7asiopal13SocketChannelESaIS1_ELN9__gnu_cxx12_Lock_policyE2EE10_M_disposeEv
	.quad	_ZNSt23_Sp_counted_ptr_inplaceIN7asiopal13SocketChannelESaIS1_ELN9__gnu_cxx12_Lock_policyE2EE10_M_destroyEv
	.quad	_ZNSt23_Sp_counted_ptr_inplaceIN7asiopal13SocketChannelESaIS1_ELN9__gnu_cxx12_Lock_policyE2EE14_M_get_deleterERKSt9type_info
	.weak	_ZGVZN4asio5error17get_misc_categoryEvE8instance
	.section	.bss._ZGVZN4asio5error17get_misc_categoryEvE8instance,"awG",@nobits,_ZGVZN4asio5error17get_misc_categoryEvE8instance,comdat
	.align 8
	.type	_ZGVZN4asio5error17get_misc_categoryEvE8instance, @gnu_unique_object
	.size	_ZGVZN4asio5error17get_misc_categoryEvE8instance, 8
_ZGVZN4asio5error17get_misc_categoryEvE8instance:
	.zero	8
	.weak	_ZZN4asio5error17get_misc_categoryEvE8instance
	.section	.data.rel._ZZN4asio5error17get_misc_categoryEvE8instance,"awG",@progbits,_ZZN4asio5error17get_misc_categoryEvE8instance,comdat
	.align 8
	.type	_ZZN4asio5error17get_misc_categoryEvE8instance, @gnu_unique_object
	.size	_ZZN4asio5error17get_misc_categoryEvE8instance, 8
_ZZN4asio5error17get_misc_categoryEvE8instance:
	.quad	_ZTVN4asio5error6detail13misc_categoryE+16
	.weak	_ZGVZN4asio5error21get_addrinfo_categoryEvE8instance
	.section	.bss._ZGVZN4asio5error21get_addrinfo_categoryEvE8instance,"awG",@nobits,_ZGVZN4asio5error21get_addrinfo_categoryEvE8instance,comdat
	.align 8
	.type	_ZGVZN4asio5error21get_addrinfo_categoryEvE8instance, @gnu_unique_object
	.size	_ZGVZN4asio5error21get_addrinfo_categoryEvE8instance, 8
_ZGVZN4asio5error21get_addrinfo_categoryEvE8instance:
	.zero	8
	.weak	_ZZN4asio5error21get_addrinfo_categoryEvE8instance
	.section	.data.rel._ZZN4asio5error21get_addrinfo_categoryEvE8instance,"awG",@progbits,_ZZN4asio5error21get_addrinfo_categoryEvE8instance,comdat
	.align 8
	.type	_ZZN4asio5error21get_addrinfo_categoryEvE8instance, @gnu_unique_object
	.size	_ZZN4asio5error21get_addrinfo_categoryEvE8instance, 8
_ZZN4asio5error21get_addrinfo_categoryEvE8instance:
	.quad	_ZTVN4asio5error6detail17addrinfo_categoryE+16
	.weak	_ZGVZN4asio5error18get_netdb_categoryEvE8instance
	.section	.bss._ZGVZN4asio5error18get_netdb_categoryEvE8instance,"awG",@nobits,_ZGVZN4asio5error18get_netdb_categoryEvE8instance,comdat
	.align 8
	.type	_ZGVZN4asio5error18get_netdb_categoryEvE8instance, @gnu_unique_object
	.size	_ZGVZN4asio5error18get_netdb_categoryEvE8instance, 8
_ZGVZN4asio5error18get_netdb_categoryEvE8instance:
	.zero	8
	.weak	_ZZN4asio5error18get_netdb_categoryEvE8instance
	.section	.data.rel._ZZN4asio5error18get_netdb_categoryEvE8instance,"awG",@progbits,_ZZN4asio5error18get_netdb_categoryEvE8instance,comdat
	.align 8
	.type	_ZZN4asio5error18get_netdb_categoryEvE8instance, @gnu_unique_object
	.size	_ZZN4asio5error18get_netdb_categoryEvE8instance, 8
_ZZN4asio5error18get_netdb_categoryEvE8instance:
	.quad	_ZTVN4asio5error6detail14netdb_categoryE+16
	.weak	_ZGVZN4asio15system_categoryEvE8instance
	.section	.bss._ZGVZN4asio15system_categoryEvE8instance,"awG",@nobits,_ZGVZN4asio15system_categoryEvE8instance,comdat
	.align 8
	.type	_ZGVZN4asio15system_categoryEvE8instance, @gnu_unique_object
	.size	_ZGVZN4asio15system_categoryEvE8instance, 8
_ZGVZN4asio15system_categoryEvE8instance:
	.zero	8
	.weak	_ZZN4asio15system_categoryEvE8instance
	.section	.data.rel._ZZN4asio15system_categoryEvE8instance,"awG",@progbits,_ZZN4asio15system_categoryEvE8instance,comdat
	.align 8
	.type	_ZZN4asio15system_categoryEvE8instance, @gnu_unique_object
	.size	_ZZN4asio15system_categoryEvE8instance, 8
_ZZN4asio15system_categoryEvE8instance:
	.quad	_ZTVN4asio6detail15system_categoryE+16
	.weak	_ZN4asio6detail15keyword_tss_ptrINS0_10call_stackINS0_15task_io_serviceENS0_27task_io_service_thread_infoEE7contextEE6value_E
	.section	.tbss._ZN4asio6detail15keyword_tss_ptrINS0_10call_stackINS0_15task_io_serviceENS0_27task_io_service_thread_infoEE7contextEE6value_E,"awTG",@nobits,_ZN4asio6detail15keyword_tss_ptrINS0_10call_stackINS0_15task_io_serviceENS0_27task_io_service_thread_infoEE7contextEE6value_E,comdat
	.align 8
	.type	_ZN4asio6detail15keyword_tss_ptrINS0_10call_stackINS0_15task_io_serviceENS0_27task_io_service_thread_infoEE7contextEE6value_E, @gnu_unique_object
	.size	_ZN4asio6detail15keyword_tss_ptrINS0_10call_stackINS0_15task_io_serviceENS0_27task_io_service_thread_infoEE7contextEE6value_E, 8
_ZN4asio6detail15keyword_tss_ptrINS0_10call_stackINS0_15task_io_serviceENS0_27task_io_service_thread_infoEE7contextEE6value_E:
	.zero	8
	.weak	_ZZNSt19_Sp_make_shared_tag5_S_tiEvE5__tag
	.section	.rodata._ZZNSt19_Sp_make_shared_tag5_S_tiEvE5__tag,"aG",@progbits,_ZZNSt19_Sp_make_shared_tag5_S_tiEvE5__tag,comdat
	.align 8
	.type	_ZZNSt19_Sp_make_shared_tag5_S_tiEvE5__tag, @gnu_unique_object
	.size	_ZZNSt19_Sp_make_shared_tag5_S_tiEvE5__tag, 16
_ZZNSt19_Sp_make_shared_tag5_S_tiEvE5__tag:
	.zero	16
	.section	.rodata.cst16,"aM",@progbits,16
	.align 16
.LC5:
	.quad	8028075772644520015
	.quad	7310593917846626414
	.align 16
.LC6:
	.quad	2334381286471394643
	.quad	7959390400869068654
	.align 16
.LC7:
	.quad	8367816086596579155
	.quad	2338616625292734585
	.align 16
.LC8:
	.quad	7234013753529430881
	.quad	8243030355803531634
	.align 16
.LC9:
	.quad	2338615488418245701
	.quad	7959390400869068654
	.align 16
.LC10:
	.quad	7166182912791242836
	.quad	7214892426067994994
	.align 16
.LC11:
	.quad	2338616625293649263
	.quad	8031165433303558502
	.align 16
.LC12:
	.quad	7810775711721485344
	.quad	7812726531955123045
	.align 16
.LC13:
	.quad	8390045716486254408
	.quad	2891421386351273504
	.align 16
.LC14:
	.quad	7526769937477431150
	.quad	8532478930943832687
	.align 16
.LC15:
	.quad	2340027324477221221
	.quad	7020021577750243169
	.align 16
.LC16:
	.quad	8243123821706831956
	.quad	7809653110584451193
	.align 16
.LC17:
	.quad	2338623170819155049
	.quad	2338324160631043177
	.align 16
.LC18:
	.quad	7311138144931573614
	.quad	7019250824563089696
	.align 16
.LC19:
	.quad	7309955097514876993
	.quad	7809911847770287971
	.align 16
.LC20:
	.quad	2338053693894893669
	.quad	7234314212361855855
	.align 16
.LC21:
	.quad	2334956330985808928
	.quad	7310293695322153316
	.align 16
.LC22:
	.quad	8387231026764149601
	.quad	8245935278387126884
	.section	.rodata.cst8,"aM",@progbits,8
	.align 8
.LC26:
	.long	1
	.long	1
	.weak	__cxa_pure_virtual
	.hidden	DW.ref.__gxx_personality_v0
	.weak	DW.ref.__gxx_personality_v0
	.section	.data.rel.local.DW.ref.__gxx_personality_v0,"awG",@progbits,DW.ref.__gxx_personality_v0,comdat
	.align 8
	.type	DW.ref.__gxx_personality_v0, @object
	.size	DW.ref.__gxx_personality_v0, 8
DW.ref.__gxx_personality_v0:
	.quad	__gxx_personality_v0
	.hidden	__dso_handle
	.ident	"GCC: (Ubuntu 11.4.0-1ubuntu1~22.04) 11.4.0"
	.section	.note.GNU-stack,"",@progbits
	.section	.note.gnu.property,"a"
	.align 8
	.long	1f - 0f
	.long	4f - 1f
	.long	5
0:
	.string	"GNU"
1:
	.align 8
	.long	0xc0000002
	.long	3f - 2f
2:
	.long	0x3
3:
	.align 8
4:
