	.file	"TCPServerIOHandler.cpp"
	.text
	.section	.rodata._ZNK4asio6detail15system_category4nameEv.str1.1,"aMS",@progbits,1
.LC0:
	.string	"asio.system"
	.section	.text._ZNK4asio6detail15system_category4nameEv,"axG",@progbits,_ZNK4asio6detail15system_category4nameEv,comdat
	.align 2
	.p2align 4
	.weak	_ZNK4asio6detail15system_category4nameEv
	.type	_ZNK4asio6detail15system_category4nameEv, @function
_ZNK4asio6detail15system_category4nameEv:
.LFB2994:
	.cfi_startproc
	endbr64
	leaq	.LC0(%rip), %rax
	ret
	.cfi_endproc
.LFE2994:
	.size	_ZNK4asio6detail15system_category4nameEv, .-_ZNK4asio6detail15system_category4nameEv
	.section	.rodata._ZNK4asio5error6detail14netdb_category4nameEv.str1.1,"aMS",@progbits,1
.LC1:
	.string	"asio.netdb"
	.section	.text._ZNK4asio5error6detail14netdb_category4nameEv,"axG",@progbits,_ZNK4asio5error6detail14netdb_category4nameEv,comdat
	.align 2
	.p2align 4
	.weak	_ZNK4asio5error6detail14netdb_category4nameEv
	.type	_ZNK4asio5error6detail14netdb_category4nameEv, @function
_ZNK4asio5error6detail14netdb_category4nameEv:
.LFB3034:
	.cfi_startproc
	endbr64
	leaq	.LC1(%rip), %rax
	ret
	.cfi_endproc
.LFE3034:
	.size	_ZNK4asio5error6detail14netdb_category4nameEv, .-_ZNK4asio5error6detail14netdb_category4nameEv
	.section	.rodata._ZNK4asio5error6detail17addrinfo_category4nameEv.str1.1,"aMS",@progbits,1
.LC2:
	.string	"asio.addrinfo"
	.section	.text._ZNK4asio5error6detail17addrinfo_category4nameEv,"axG",@progbits,_ZNK4asio5error6detail17addrinfo_category4nameEv,comdat
	.align 2
	.p2align 4
	.weak	_ZNK4asio5error6detail17addrinfo_category4nameEv
	.type	_ZNK4asio5error6detail17addrinfo_category4nameEv, @function
_ZNK4asio5error6detail17addrinfo_category4nameEv:
.LFB3040:
	.cfi_startproc
	endbr64
	leaq	.LC2(%rip), %rax
	ret
	.cfi_endproc
.LFE3040:
	.size	_ZNK4asio5error6detail17addrinfo_category4nameEv, .-_ZNK4asio5error6detail17addrinfo_category4nameEv
	.section	.rodata._ZNK4asio5error6detail13misc_category4nameEv.str1.1,"aMS",@progbits,1
.LC3:
	.string	"asio.misc"
	.section	.text._ZNK4asio5error6detail13misc_category4nameEv,"axG",@progbits,_ZNK4asio5error6detail13misc_category4nameEv,comdat
	.align 2
	.p2align 4
	.weak	_ZNK4asio5error6detail13misc_category4nameEv
	.type	_ZNK4asio5error6detail13misc_category4nameEv, @function
_ZNK4asio5error6detail13misc_category4nameEv:
.LFB3046:
	.cfi_startproc
	endbr64
	leaq	.LC3(%rip), %rax
	ret
	.cfi_endproc
.LFE3046:
	.size	_ZNK4asio5error6detail13misc_category4nameEv, .-_ZNK4asio5error6detail13misc_category4nameEv
	.section	.text._ZN8asiodnp318TCPServerIOHandler6Server10OnShutdownEv,"axG",@progbits,_ZN8asiodnp318TCPServerIOHandler6Server10OnShutdownEv,comdat
	.align 2
	.p2align 4
	.weak	_ZN8asiodnp318TCPServerIOHandler6Server10OnShutdownEv
	.type	_ZN8asiodnp318TCPServerIOHandler6Server10OnShutdownEv, @function
_ZN8asiodnp318TCPServerIOHandler6Server10OnShutdownEv:
.LFB7734:
	.cfi_startproc
	endbr64
	ret
	.cfi_endproc
.LFE7734:
	.size	_ZN8asiodnp318TCPServerIOHandler6Server10OnShutdownEv, .-_ZN8asiodnp318TCPServerIOHandler6Server10OnShutdownEv
	.section	.text._ZN8asiodnp318TCPServerIOHandler17OnChannelShutdownEv,"axG",@progbits,_ZN8asiodnp318TCPServerIOHandler17OnChannelShutdownEv,comdat
	.align 2
	.p2align 4
	.weak	_ZN8asiodnp318TCPServerIOHandler17OnChannelShutdownEv
	.type	_ZN8asiodnp318TCPServerIOHandler17OnChannelShutdownEv, @function
_ZN8asiodnp318TCPServerIOHandler17OnChannelShutdownEv:
.LFB7742:
	.cfi_startproc
	endbr64
	ret
	.cfi_endproc
.LFE7742:
	.size	_ZN8asiodnp318TCPServerIOHandler17OnChannelShutdownEv, .-_ZN8asiodnp318TCPServerIOHandler17OnChannelShutdownEv
	.section	.text._ZN4asio6detail7tss_ptrINS0_10call_stackINS0_15task_io_serviceENS0_27task_io_service_thread_infoEE7contextEED2Ev,"axG",@progbits,_ZN4asio6detail7tss_ptrINS0_10call_stackINS0_15task_io_serviceENS0_27task_io_service_thread_infoEE7contextEED5Ev,comdat
	.align 2
	.p2align 4
	.weak	_ZN4asio6detail7tss_ptrINS0_10call_stackINS0_15task_io_serviceENS0_27task_io_service_thread_infoEE7contextEED2Ev
	.type	_ZN4asio6detail7tss_ptrINS0_10call_stackINS0_15task_io_serviceENS0_27task_io_service_thread_infoEE7contextEED2Ev, @function
_ZN4asio6detail7tss_ptrINS0_10call_stackINS0_15task_io_serviceENS0_27task_io_service_thread_infoEE7contextEED2Ev:
.LFB10509:
	.cfi_startproc
	endbr64
	ret
	.cfi_endproc
.LFE10509:
	.size	_ZN4asio6detail7tss_ptrINS0_10call_stackINS0_15task_io_serviceENS0_27task_io_service_thread_infoEE7contextEED2Ev, .-_ZN4asio6detail7tss_ptrINS0_10call_stackINS0_15task_io_serviceENS0_27task_io_service_thread_infoEE7contextEED2Ev
	.weak	_ZN4asio6detail7tss_ptrINS0_10call_stackINS0_15task_io_serviceENS0_27task_io_service_thread_infoEE7contextEED1Ev
	.set	_ZN4asio6detail7tss_ptrINS0_10call_stackINS0_15task_io_serviceENS0_27task_io_service_thread_infoEE7contextEED1Ev,_ZN4asio6detail7tss_ptrINS0_10call_stackINS0_15task_io_serviceENS0_27task_io_service_thread_infoEE7contextEED2Ev
	.section	.text._ZN4asio6detail10service_idINS0_13epoll_reactorEED2Ev,"axG",@progbits,_ZN4asio6detail10service_idINS0_13epoll_reactorEED5Ev,comdat
	.align 2
	.p2align 4
	.weak	_ZN4asio6detail10service_idINS0_13epoll_reactorEED2Ev
	.type	_ZN4asio6detail10service_idINS0_13epoll_reactorEED2Ev, @function
_ZN4asio6detail10service_idINS0_13epoll_reactorEED2Ev:
.LFB10512:
	.cfi_startproc
	endbr64
	ret
	.cfi_endproc
.LFE10512:
	.size	_ZN4asio6detail10service_idINS0_13epoll_reactorEED2Ev, .-_ZN4asio6detail10service_idINS0_13epoll_reactorEED2Ev
	.weak	_ZN4asio6detail10service_idINS0_13epoll_reactorEED1Ev
	.set	_ZN4asio6detail10service_idINS0_13epoll_reactorEED1Ev,_ZN4asio6detail10service_idINS0_13epoll_reactorEED2Ev
	.section	.text._ZN4asio6detail10service_idINS0_15task_io_serviceEED2Ev,"axG",@progbits,_ZN4asio6detail10service_idINS0_15task_io_serviceEED5Ev,comdat
	.align 2
	.p2align 4
	.weak	_ZN4asio6detail10service_idINS0_15task_io_serviceEED2Ev
	.type	_ZN4asio6detail10service_idINS0_15task_io_serviceEED2Ev, @function
_ZN4asio6detail10service_idINS0_15task_io_serviceEED2Ev:
.LFB10515:
	.cfi_startproc
	endbr64
	ret
	.cfi_endproc
.LFE10515:
	.size	_ZN4asio6detail10service_idINS0_15task_io_serviceEED2Ev, .-_ZN4asio6detail10service_idINS0_15task_io_serviceEED2Ev
	.weak	_ZN4asio6detail10service_idINS0_15task_io_serviceEED1Ev
	.set	_ZN4asio6detail10service_idINS0_15task_io_serviceEED1Ev,_ZN4asio6detail10service_idINS0_15task_io_serviceEED2Ev
	.section	.text._ZN4asio6detail7tss_ptrINS0_10call_stackINS0_14strand_service11strand_implEhE7contextEED2Ev,"axG",@progbits,_ZN4asio6detail7tss_ptrINS0_10call_stackINS0_14strand_service11strand_implEhE7contextEED5Ev,comdat
	.align 2
	.p2align 4
	.weak	_ZN4asio6detail7tss_ptrINS0_10call_stackINS0_14strand_service11strand_implEhE7contextEED2Ev
	.type	_ZN4asio6detail7tss_ptrINS0_10call_stackINS0_14strand_service11strand_implEhE7contextEED2Ev, @function
_ZN4asio6detail7tss_ptrINS0_10call_stackINS0_14strand_service11strand_implEhE7contextEED2Ev:
.LFB10518:
	.cfi_startproc
	endbr64
	ret
	.cfi_endproc
.LFE10518:
	.size	_ZN4asio6detail7tss_ptrINS0_10call_stackINS0_14strand_service11strand_implEhE7contextEED2Ev, .-_ZN4asio6detail7tss_ptrINS0_10call_stackINS0_14strand_service11strand_implEhE7contextEED2Ev
	.weak	_ZN4asio6detail7tss_ptrINS0_10call_stackINS0_14strand_service11strand_implEhE7contextEED1Ev
	.set	_ZN4asio6detail7tss_ptrINS0_10call_stackINS0_14strand_service11strand_implEhE7contextEED1Ev,_ZN4asio6detail7tss_ptrINS0_10call_stackINS0_14strand_service11strand_implEhE7contextEED2Ev
	.section	.text._ZN4asio6detail10service_idINS0_14strand_serviceEED2Ev,"axG",@progbits,_ZN4asio6detail10service_idINS0_14strand_serviceEED5Ev,comdat
	.align 2
	.p2align 4
	.weak	_ZN4asio6detail10service_idINS0_14strand_serviceEED2Ev
	.type	_ZN4asio6detail10service_idINS0_14strand_serviceEED2Ev, @function
_ZN4asio6detail10service_idINS0_14strand_serviceEED2Ev:
.LFB10521:
	.cfi_startproc
	endbr64
	ret
	.cfi_endproc
.LFE10521:
	.size	_ZN4asio6detail10service_idINS0_14strand_serviceEED2Ev, .-_ZN4asio6detail10service_idINS0_14strand_serviceEED2Ev
	.weak	_ZN4asio6detail10service_idINS0_14strand_serviceEED1Ev
	.set	_ZN4asio6detail10service_idINS0_14strand_serviceEED1Ev,_ZN4asio6detail10service_idINS0_14strand_serviceEED2Ev
	.section	.text._ZNSt23_Sp_counted_ptr_inplaceIN8asiodnp318TCPServerIOHandler6ServerESaIS2_ELN9__gnu_cxx12_Lock_policyE2EED2Ev,"axG",@progbits,_ZNSt23_Sp_counted_ptr_inplaceIN8asiodnp318TCPServerIOHandler6ServerESaIS2_ELN9__gnu_cxx12_Lock_policyE2EED5Ev,comdat
	.align 2
	.p2align 4
	.weak	_ZNSt23_Sp_counted_ptr_inplaceIN8asiodnp318TCPServerIOHandler6ServerESaIS2_ELN9__gnu_cxx12_Lock_policyE2EED2Ev
	.type	_ZNSt23_Sp_counted_ptr_inplaceIN8asiodnp318TCPServerIOHandler6ServerESaIS2_ELN9__gnu_cxx12_Lock_policyE2EED2Ev, @function
_ZNSt23_Sp_counted_ptr_inplaceIN8asiodnp318TCPServerIOHandler6ServerESaIS2_ELN9__gnu_cxx12_Lock_policyE2EED2Ev:
.LFB10524:
	.cfi_startproc
	endbr64
	ret
	.cfi_endproc
.LFE10524:
	.size	_ZNSt23_Sp_counted_ptr_inplaceIN8asiodnp318TCPServerIOHandler6ServerESaIS2_ELN9__gnu_cxx12_Lock_policyE2EED2Ev, .-_ZNSt23_Sp_counted_ptr_inplaceIN8asiodnp318TCPServerIOHandler6ServerESaIS2_ELN9__gnu_cxx12_Lock_policyE2EED2Ev
	.weak	_ZNSt23_Sp_counted_ptr_inplaceIN8asiodnp318TCPServerIOHandler6ServerESaIS2_ELN9__gnu_cxx12_Lock_policyE2EED1Ev
	.set	_ZNSt23_Sp_counted_ptr_inplaceIN8asiodnp318TCPServerIOHandler6ServerESaIS2_ELN9__gnu_cxx12_Lock_policyE2EED1Ev,_ZNSt23_Sp_counted_ptr_inplaceIN8asiodnp318TCPServerIOHandler6ServerESaIS2_ELN9__gnu_cxx12_Lock_policyE2EED2Ev
	.section	.text._ZNSt23_Sp_counted_ptr_inplaceIN7asiopal13SocketChannelESaIS1_ELN9__gnu_cxx12_Lock_policyE2EED2Ev,"axG",@progbits,_ZNSt23_Sp_counted_ptr_inplaceIN7asiopal13SocketChannelESaIS1_ELN9__gnu_cxx12_Lock_policyE2EED5Ev,comdat
	.align 2
	.p2align 4
	.weak	_ZNSt23_Sp_counted_ptr_inplaceIN7asiopal13SocketChannelESaIS1_ELN9__gnu_cxx12_Lock_policyE2EED2Ev
	.type	_ZNSt23_Sp_counted_ptr_inplaceIN7asiopal13SocketChannelESaIS1_ELN9__gnu_cxx12_Lock_policyE2EED2Ev, @function
_ZNSt23_Sp_counted_ptr_inplaceIN7asiopal13SocketChannelESaIS1_ELN9__gnu_cxx12_Lock_policyE2EED2Ev:
.LFB10531:
	.cfi_startproc
	endbr64
	ret
	.cfi_endproc
.LFE10531:
	.size	_ZNSt23_Sp_counted_ptr_inplaceIN7asiopal13SocketChannelESaIS1_ELN9__gnu_cxx12_Lock_policyE2EED2Ev, .-_ZNSt23_Sp_counted_ptr_inplaceIN7asiopal13SocketChannelESaIS1_ELN9__gnu_cxx12_Lock_policyE2EED2Ev
	.weak	_ZNSt23_Sp_counted_ptr_inplaceIN7asiopal13SocketChannelESaIS1_ELN9__gnu_cxx12_Lock_policyE2EED1Ev
	.set	_ZNSt23_Sp_counted_ptr_inplaceIN7asiopal13SocketChannelESaIS1_ELN9__gnu_cxx12_Lock_policyE2EED1Ev,_ZNSt23_Sp_counted_ptr_inplaceIN7asiopal13SocketChannelESaIS1_ELN9__gnu_cxx12_Lock_policyE2EED2Ev
	.section	.text._ZN4asio6detail15system_categoryD2Ev,"axG",@progbits,_ZN4asio6detail15system_categoryD5Ev,comdat
	.align 2
	.p2align 4
	.weak	_ZN4asio6detail15system_categoryD2Ev
	.type	_ZN4asio6detail15system_categoryD2Ev, @function
_ZN4asio6detail15system_categoryD2Ev:
.LFB10488:
	.cfi_startproc
	endbr64
	movq	_ZTVN4asio6detail15system_categoryE@GOTPCREL(%rip), %rax
	addq	$16, %rax
	movq	%rax, (%rdi)
	jmp	_ZNSt3_V214error_categoryD2Ev@PLT
	.cfi_endproc
.LFE10488:
	.size	_ZN4asio6detail15system_categoryD2Ev, .-_ZN4asio6detail15system_categoryD2Ev
	.weak	_ZN4asio6detail15system_categoryD1Ev
	.set	_ZN4asio6detail15system_categoryD1Ev,_ZN4asio6detail15system_categoryD2Ev
	.section	.text._ZN4asio5error6detail14netdb_categoryD2Ev,"axG",@progbits,_ZN4asio5error6detail14netdb_categoryD5Ev,comdat
	.align 2
	.p2align 4
	.weak	_ZN4asio5error6detail14netdb_categoryD2Ev
	.type	_ZN4asio5error6detail14netdb_categoryD2Ev, @function
_ZN4asio5error6detail14netdb_categoryD2Ev:
.LFB10476:
	.cfi_startproc
	endbr64
	movq	_ZTVN4asio5error6detail14netdb_categoryE@GOTPCREL(%rip), %rax
	addq	$16, %rax
	movq	%rax, (%rdi)
	jmp	_ZNSt3_V214error_categoryD2Ev@PLT
	.cfi_endproc
.LFE10476:
	.size	_ZN4asio5error6detail14netdb_categoryD2Ev, .-_ZN4asio5error6detail14netdb_categoryD2Ev
	.weak	_ZN4asio5error6detail14netdb_categoryD1Ev
	.set	_ZN4asio5error6detail14netdb_categoryD1Ev,_ZN4asio5error6detail14netdb_categoryD2Ev
	.section	.text._ZN4asio5error6detail17addrinfo_categoryD2Ev,"axG",@progbits,_ZN4asio5error6detail17addrinfo_categoryD5Ev,comdat
	.align 2
	.p2align 4
	.weak	_ZN4asio5error6detail17addrinfo_categoryD2Ev
	.type	_ZN4asio5error6detail17addrinfo_categoryD2Ev, @function
_ZN4asio5error6detail17addrinfo_categoryD2Ev:
.LFB10472:
	.cfi_startproc
	endbr64
	movq	_ZTVN4asio5error6detail17addrinfo_categoryE@GOTPCREL(%rip), %rax
	addq	$16, %rax
	movq	%rax, (%rdi)
	jmp	_ZNSt3_V214error_categoryD2Ev@PLT
	.cfi_endproc
.LFE10472:
	.size	_ZN4asio5error6detail17addrinfo_categoryD2Ev, .-_ZN4asio5error6detail17addrinfo_categoryD2Ev
	.weak	_ZN4asio5error6detail17addrinfo_categoryD1Ev
	.set	_ZN4asio5error6detail17addrinfo_categoryD1Ev,_ZN4asio5error6detail17addrinfo_categoryD2Ev
	.section	.text._ZN4asio5error6detail13misc_categoryD2Ev,"axG",@progbits,_ZN4asio5error6detail13misc_categoryD5Ev,comdat
	.align 2
	.p2align 4
	.weak	_ZN4asio5error6detail13misc_categoryD2Ev
	.type	_ZN4asio5error6detail13misc_categoryD2Ev, @function
_ZN4asio5error6detail13misc_categoryD2Ev:
.LFB10468:
	.cfi_startproc
	endbr64
	movq	_ZTVN4asio5error6detail13misc_categoryE@GOTPCREL(%rip), %rax
	addq	$16, %rax
	movq	%rax, (%rdi)
	jmp	_ZNSt3_V214error_categoryD2Ev@PLT
	.cfi_endproc
.LFE10468:
	.size	_ZN4asio5error6detail13misc_categoryD2Ev, .-_ZN4asio5error6detail13misc_categoryD2Ev
	.weak	_ZN4asio5error6detail13misc_categoryD1Ev
	.set	_ZN4asio5error6detail13misc_categoryD1Ev,_ZN4asio5error6detail13misc_categoryD2Ev
	.section	.text._ZN4asio6detail15system_categoryD0Ev,"axG",@progbits,_ZN4asio6detail15system_categoryD5Ev,comdat
	.align 2
	.p2align 4
	.weak	_ZN4asio6detail15system_categoryD0Ev
	.type	_ZN4asio6detail15system_categoryD0Ev, @function
_ZN4asio6detail15system_categoryD0Ev:
.LFB10490:
	.cfi_startproc
	endbr64
	movq	_ZTVN4asio6detail15system_categoryE@GOTPCREL(%rip), %rax
	pushq	%rbp
	.cfi_def_cfa_offset 16
	.cfi_offset 6, -16
	movq	%rdi, %rbp
	addq	$16, %rax
	movq	%rax, (%rdi)
	call	_ZNSt3_V214error_categoryD2Ev@PLT
	movq	%rbp, %rdi
	movl	$8, %esi
	popq	%rbp
	.cfi_def_cfa_offset 8
	jmp	_ZdlPvm@PLT
	.cfi_endproc
.LFE10490:
	.size	_ZN4asio6detail15system_categoryD0Ev, .-_ZN4asio6detail15system_categoryD0Ev
	.section	.text._ZN4asio5error6detail14netdb_categoryD0Ev,"axG",@progbits,_ZN4asio5error6detail14netdb_categoryD5Ev,comdat
	.align 2
	.p2align 4
	.weak	_ZN4asio5error6detail14netdb_categoryD0Ev
	.type	_ZN4asio5error6detail14netdb_categoryD0Ev, @function
_ZN4asio5error6detail14netdb_categoryD0Ev:
.LFB10478:
	.cfi_startproc
	endbr64
	movq	_ZTVN4asio5error6detail14netdb_categoryE@GOTPCREL(%rip), %rax
	pushq	%rbp
	.cfi_def_cfa_offset 16
	.cfi_offset 6, -16
	movq	%rdi, %rbp
	addq	$16, %rax
	movq	%rax, (%rdi)
	call	_ZNSt3_V214error_categoryD2Ev@PLT
	movq	%rbp, %rdi
	movl	$8, %esi
	popq	%rbp
	.cfi_def_cfa_offset 8
	jmp	_ZdlPvm@PLT
	.cfi_endproc
.LFE10478:
	.size	_ZN4asio5error6detail14netdb_categoryD0Ev, .-_ZN4asio5error6detail14netdb_categoryD0Ev
	.section	.text._ZN4asio5error6detail17addrinfo_categoryD0Ev,"axG",@progbits,_ZN4asio5error6detail17addrinfo_categoryD5Ev,comdat
	.align 2
	.p2align 4
	.weak	_ZN4asio5error6detail17addrinfo_categoryD0Ev
	.type	_ZN4asio5error6detail17addrinfo_categoryD0Ev, @function
_ZN4asio5error6detail17addrinfo_categoryD0Ev:
.LFB10474:
	.cfi_startproc
	endbr64
	movq	_ZTVN4asio5error6detail17addrinfo_categoryE@GOTPCREL(%rip), %rax
	pushq	%rbp
	.cfi_def_cfa_offset 16
	.cfi_offset 6, -16
	movq	%rdi, %rbp
	addq	$16, %rax
	movq	%rax, (%rdi)
	call	_ZNSt3_V214error_categoryD2Ev@PLT
	movq	%rbp, %rdi
	movl	$8, %esi
	popq	%rbp
	.cfi_def_cfa_offset 8
	jmp	_ZdlPvm@PLT
	.cfi_endproc
.LFE10474:
	.size	_ZN4asio5error6detail17addrinfo_categoryD0Ev, .-_ZN4asio5error6detail17addrinfo_categoryD0Ev
	.section	.text._ZN4asio5error6detail13misc_categoryD0Ev,"axG",@progbits,_ZN4asio5error6detail13misc_categoryD5Ev,comdat
	.align 2
	.p2align 4
	.weak	_ZN4asio5error6detail13misc_categoryD0Ev
	.type	_ZN4asio5error6detail13misc_categoryD0Ev, @function
_ZN4asio5error6detail13misc_categoryD0Ev:
.LFB10470:
	.cfi_startproc
	endbr64
	movq	_ZTVN4asio5error6detail13misc_categoryE@GOTPCREL(%rip), %rax
	pushq	%rbp
	.cfi_def_cfa_offset 16
	.cfi_offset 6, -16
	movq	%rdi, %rbp
	addq	$16, %rax
	movq	%rax, (%rdi)
	call	_ZNSt3_V214error_categoryD2Ev@PLT
	movq	%rbp, %rdi
	movl	$8, %esi
	popq	%rbp
	.cfi_def_cfa_offset 8
	jmp	_ZdlPvm@PLT
	.cfi_endproc
.LFE10470:
	.size	_ZN4asio5error6detail13misc_categoryD0Ev, .-_ZN4asio5error6detail13misc_categoryD0Ev
	.section	.text._ZNSt23_Sp_counted_ptr_inplaceIN7asiopal13SocketChannelESaIS1_ELN9__gnu_cxx12_Lock_policyE2EED0Ev,"axG",@progbits,_ZNSt23_Sp_counted_ptr_inplaceIN7asiopal13SocketChannelESaIS1_ELN9__gnu_cxx12_Lock_policyE2EED5Ev,comdat
	.align 2
	.p2align 4
	.weak	_ZNSt23_Sp_counted_ptr_inplaceIN7asiopal13SocketChannelESaIS1_ELN9__gnu_cxx12_Lock_policyE2EED0Ev
	.type	_ZNSt23_Sp_counted_ptr_inplaceIN7asiopal13SocketChannelESaIS1_ELN9__gnu_cxx12_Lock_policyE2EED0Ev, @function
_ZNSt23_Sp_counted_ptr_inplaceIN7asiopal13SocketChannelESaIS1_ELN9__gnu_cxx12_Lock_policyE2EED0Ev:
.LFB10533:
	.cfi_startproc
	endbr64
	movl	$112, %esi
	jmp	_ZdlPvm@PLT
	.cfi_endproc
.LFE10533:
	.size	_ZNSt23_Sp_counted_ptr_inplaceIN7asiopal13SocketChannelESaIS1_ELN9__gnu_cxx12_Lock_policyE2EED0Ev, .-_ZNSt23_Sp_counted_ptr_inplaceIN7asiopal13SocketChannelESaIS1_ELN9__gnu_cxx12_Lock_policyE2EED0Ev
	.section	.text._ZNSt23_Sp_counted_ptr_inplaceIN8asiodnp318TCPServerIOHandler6ServerESaIS2_ELN9__gnu_cxx12_Lock_policyE2EED0Ev,"axG",@progbits,_ZNSt23_Sp_counted_ptr_inplaceIN8asiodnp318TCPServerIOHandler6ServerESaIS2_ELN9__gnu_cxx12_Lock_policyE2EED5Ev,comdat
	.align 2
	.p2align 4
	.weak	_ZNSt23_Sp_counted_ptr_inplaceIN8asiodnp318TCPServerIOHandler6ServerESaIS2_ELN9__gnu_cxx12_Lock_policyE2EED0Ev
	.type	_ZNSt23_Sp_counted_ptr_inplaceIN8asiodnp318TCPServerIOHandler6ServerESaIS2_ELN9__gnu_cxx12_Lock_policyE2EED0Ev, @function
_ZNSt23_Sp_counted_ptr_inplaceIN8asiodnp318TCPServerIOHandler6ServerESaIS2_ELN9__gnu_cxx12_Lock_policyE2EED0Ev:
.LFB10526:
	.cfi_startproc
	endbr64
	movl	$256, %esi
	jmp	_ZdlPvm@PLT
	.cfi_endproc
.LFE10526:
	.size	_ZNSt23_Sp_counted_ptr_inplaceIN8asiodnp318TCPServerIOHandler6ServerESaIS2_ELN9__gnu_cxx12_Lock_policyE2EED0Ev, .-_ZNSt23_Sp_counted_ptr_inplaceIN8asiodnp318TCPServerIOHandler6ServerESaIS2_ELN9__gnu_cxx12_Lock_policyE2EED0Ev
	.section	.text._ZNSt23_Sp_counted_ptr_inplaceIN8asiodnp318TCPServerIOHandler6ServerESaIS2_ELN9__gnu_cxx12_Lock_policyE2EE10_M_destroyEv,"axG",@progbits,_ZNSt23_Sp_counted_ptr_inplaceIN8asiodnp318TCPServerIOHandler6ServerESaIS2_ELN9__gnu_cxx12_Lock_policyE2EE10_M_destroyEv,comdat
	.align 2
	.p2align 4
	.weak	_ZNSt23_Sp_counted_ptr_inplaceIN8asiodnp318TCPServerIOHandler6ServerESaIS2_ELN9__gnu_cxx12_Lock_policyE2EE10_M_destroyEv
	.type	_ZNSt23_Sp_counted_ptr_inplaceIN8asiodnp318TCPServerIOHandler6ServerESaIS2_ELN9__gnu_cxx12_Lock_policyE2EE10_M_destroyEv, @function
_ZNSt23_Sp_counted_ptr_inplaceIN8asiodnp318TCPServerIOHandler6ServerESaIS2_ELN9__gnu_cxx12_Lock_policyE2EE10_M_destroyEv:
.LFB10528:
	.cfi_startproc
	endbr64
	movl	$256, %esi
	jmp	_ZdlPvm@PLT
	.cfi_endproc
.LFE10528:
	.size	_ZNSt23_Sp_counted_ptr_inplaceIN8asiodnp318TCPServerIOHandler6ServerESaIS2_ELN9__gnu_cxx12_Lock_policyE2EE10_M_destroyEv, .-_ZNSt23_Sp_counted_ptr_inplaceIN8asiodnp318TCPServerIOHandler6ServerESaIS2_ELN9__gnu_cxx12_Lock_policyE2EE10_M_destroyEv
	.section	.text._ZNSt23_Sp_counted_ptr_inplaceIN7asiopal13SocketChannelESaIS1_ELN9__gnu_cxx12_Lock_policyE2EE10_M_destroyEv,"axG",@progbits,_ZNSt23_Sp_counted_ptr_inplaceIN7asiopal13SocketChannelESaIS1_ELN9__gnu_cxx12_Lock_policyE2EE10_M_destroyEv,comdat
	.align 2
	.p2align 4
	.weak	_ZNSt23_Sp_counted_ptr_inplaceIN7asiopal13SocketChannelESaIS1_ELN9__gnu_cxx12_Lock_policyE2EE10_M_destroyEv
	.type	_ZNSt23_Sp_counted_ptr_inplaceIN7asiopal13SocketChannelESaIS1_ELN9__gnu_cxx12_Lock_policyE2EE10_M_destroyEv, @function
_ZNSt23_Sp_counted_ptr_inplaceIN7asiopal13SocketChannelESaIS1_ELN9__gnu_cxx12_Lock_policyE2EE10_M_destroyEv:
.LFB10535:
	.cfi_startproc
	endbr64
	movl	$112, %esi
	jmp	_ZdlPvm@PLT
	.cfi_endproc
.LFE10535:
	.size	_ZNSt23_Sp_counted_ptr_inplaceIN7asiopal13SocketChannelESaIS1_ELN9__gnu_cxx12_Lock_policyE2EE10_M_destroyEv, .-_ZNSt23_Sp_counted_ptr_inplaceIN7asiopal13SocketChannelESaIS1_ELN9__gnu_cxx12_Lock_policyE2EE10_M_destroyEv
	.section	.text._ZNSt23_Sp_counted_ptr_inplaceIN7asiopal13SocketChannelESaIS1_ELN9__gnu_cxx12_Lock_policyE2EE14_M_get_deleterERKSt9type_info,"axG",@progbits,_ZNSt23_Sp_counted_ptr_inplaceIN7asiopal13SocketChannelESaIS1_ELN9__gnu_cxx12_Lock_policyE2EE14_M_get_deleterERKSt9type_info,comdat
	.align 2
	.p2align 4
	.weak	_ZNSt23_Sp_counted_ptr_inplaceIN7asiopal13SocketChannelESaIS1_ELN9__gnu_cxx12_Lock_policyE2EE14_M_get_deleterERKSt9type_info
	.type	_ZNSt23_Sp_counted_ptr_inplaceIN7asiopal13SocketChannelESaIS1_ELN9__gnu_cxx12_Lock_policyE2EE14_M_get_deleterERKSt9type_info, @function
_ZNSt23_Sp_counted_ptr_inplaceIN7asiopal13SocketChannelESaIS1_ELN9__gnu_cxx12_Lock_policyE2EE14_M_get_deleterERKSt9type_info:
.LFB10536:
	.cfi_startproc
	endbr64
	cmpq	_ZZNSt19_Sp_make_shared_tag5_S_tiEvE5__tag@GOTPCREL(%rip), %rsi
	pushq	%r12
	.cfi_def_cfa_offset 16
	.cfi_offset 12, -16
	leaq	16(%rdi), %r12
	je	.L31
	movq	8(%rsi), %rdi
	movq	_ZTSSt19_Sp_make_shared_tag@GOTPCREL(%rip), %rsi
	cmpq	%rsi, %rdi
	je	.L31
	cmpb	$42, (%rdi)
	je	.L33
	call	strcmp@PLT
	testl	%eax, %eax
	movl	$0, %eax
	cmovne	%rax, %r12
.L31:
	movq	%r12, %rax
	popq	%r12
	.cfi_remember_state
	.cfi_def_cfa_offset 8
	ret
	.p2align 4,,10
	.p2align 3
.L33:
	.cfi_restore_state
	xorl	%r12d, %r12d
	movq	%r12, %rax
	popq	%r12
	.cfi_def_cfa_offset 8
	ret
	.cfi_endproc
.LFE10536:
	.size	_ZNSt23_Sp_counted_ptr_inplaceIN7asiopal13SocketChannelESaIS1_ELN9__gnu_cxx12_Lock_policyE2EE14_M_get_deleterERKSt9type_info, .-_ZNSt23_Sp_counted_ptr_inplaceIN7asiopal13SocketChannelESaIS1_ELN9__gnu_cxx12_Lock_policyE2EE14_M_get_deleterERKSt9type_info
	.section	.text._ZNSt23_Sp_counted_ptr_inplaceIN8asiodnp318TCPServerIOHandler6ServerESaIS2_ELN9__gnu_cxx12_Lock_policyE2EE14_M_get_deleterERKSt9type_info,"axG",@progbits,_ZNSt23_Sp_counted_ptr_inplaceIN8asiodnp318TCPServerIOHandler6ServerESaIS2_ELN9__gnu_cxx12_Lock_policyE2EE14_M_get_deleterERKSt9type_info,comdat
	.align 2
	.p2align 4
	.weak	_ZNSt23_Sp_counted_ptr_inplaceIN8asiodnp318TCPServerIOHandler6ServerESaIS2_ELN9__gnu_cxx12_Lock_policyE2EE14_M_get_deleterERKSt9type_info
	.type	_ZNSt23_Sp_counted_ptr_inplaceIN8asiodnp318TCPServerIOHandler6ServerESaIS2_ELN9__gnu_cxx12_Lock_policyE2EE14_M_get_deleterERKSt9type_info, @function
_ZNSt23_Sp_counted_ptr_inplaceIN8asiodnp318TCPServerIOHandler6ServerESaIS2_ELN9__gnu_cxx12_Lock_policyE2EE14_M_get_deleterERKSt9type_info:
.LFB10529:
	.cfi_startproc
	endbr64
	cmpq	_ZZNSt19_Sp_make_shared_tag5_S_tiEvE5__tag@GOTPCREL(%rip), %rsi
	pushq	%r12
	.cfi_def_cfa_offset 16
	.cfi_offset 12, -16
	leaq	16(%rdi), %r12
	je	.L36
	movq	8(%rsi), %rdi
	movq	_ZTSSt19_Sp_make_shared_tag@GOTPCREL(%rip), %rsi
	cmpq	%rsi, %rdi
	je	.L36
	cmpb	$42, (%rdi)
	je	.L38
	call	strcmp@PLT
	testl	%eax, %eax
	movl	$0, %eax
	cmovne	%rax, %r12
.L36:
	movq	%r12, %rax
	popq	%r12
	.cfi_remember_state
	.cfi_def_cfa_offset 8
	ret
	.p2align 4,,10
	.p2align 3
.L38:
	.cfi_restore_state
	xorl	%r12d, %r12d
	movq	%r12, %rax
	popq	%r12
	.cfi_def_cfa_offset 8
	ret
	.cfi_endproc
.LFE10529:
	.size	_ZNSt23_Sp_counted_ptr_inplaceIN8asiodnp318TCPServerIOHandler6ServerESaIS2_ELN9__gnu_cxx12_Lock_policyE2EE14_M_get_deleterERKSt9type_info, .-_ZNSt23_Sp_counted_ptr_inplaceIN8asiodnp318TCPServerIOHandler6ServerESaIS2_ELN9__gnu_cxx12_Lock_policyE2EE14_M_get_deleterERKSt9type_info
	.section	.text._ZNSt8_Rb_treeIPN8opendnp317IScheduleCallbackES2_St9_IdentityIS2_ESt4lessIS2_ESaIS2_EE8_M_eraseEPSt13_Rb_tree_nodeIS2_E.isra.0,"axG",@progbits,_ZN8asiodnp39IOHandlerD5Ev,comdat
	.align 2
	.p2align 4
	.type	_ZNSt8_Rb_treeIPN8opendnp317IScheduleCallbackES2_St9_IdentityIS2_ESt4lessIS2_ESaIS2_EE8_M_eraseEPSt13_Rb_tree_nodeIS2_E.isra.0, @function
_ZNSt8_Rb_treeIPN8opendnp317IScheduleCallbackES2_St9_IdentityIS2_ESt4lessIS2_ESaIS2_EE8_M_eraseEPSt13_Rb_tree_nodeIS2_E.isra.0:
.LFB10652:
	.cfi_startproc
	pushq	%r15
	.cfi_def_cfa_offset 16
	.cfi_offset 15, -16
	pushq	%r14
	.cfi_def_cfa_offset 24
	.cfi_offset 14, -24
	pushq	%r13
	.cfi_def_cfa_offset 32
	.cfi_offset 13, -32
	pushq	%r12
	.cfi_def_cfa_offset 40
	.cfi_offset 12, -40
	pushq	%rbp
	.cfi_def_cfa_offset 48
	.cfi_offset 6, -48
	pushq	%rbx
	.cfi_def_cfa_offset 56
	.cfi_offset 3, -56
	subq	$40, %rsp
	.cfi_def_cfa_offset 96
	movq	%rdi, 16(%rsp)
	testq	%rdi, %rdi
	je	.L41
.L59:
	movq	16(%rsp), %rax
	movq	24(%rax), %r14
	testq	%r14, %r14
	je	.L43
.L58:
	movq	24(%r14), %r15
	testq	%r15, %r15
	je	.L44
.L57:
	movq	24(%r15), %rax
	movq	%rax, 8(%rsp)
	testq	%rax, %rax
	je	.L45
.L56:
	movq	8(%rsp), %rax
	movq	24(%rax), %rbp
	testq	%rbp, %rbp
	je	.L46
.L55:
	movq	24(%rbp), %r13
	testq	%r13, %r13
	je	.L47
.L54:
	movq	24(%r13), %r12
	testq	%r12, %r12
	je	.L48
.L53:
	movq	24(%r12), %r9
	testq	%r9, %r9
	je	.L49
.L52:
	movq	24(%r9), %rbx
	testq	%rbx, %rbx
	je	.L50
.L51:
	movq	24(%rbx), %rdi
	movq	%r9, 24(%rsp)
	call	_ZNSt8_Rb_treeIPN8opendnp317IScheduleCallbackES2_St9_IdentityIS2_ESt4lessIS2_ESaIS2_EE8_M_eraseEPSt13_Rb_tree_nodeIS2_E.isra.0
	movq	%rbx, %rdi
	movq	16(%rbx), %rbx
	movl	$40, %esi
	call	_ZdlPvm@PLT
	movq	24(%rsp), %r9
	testq	%rbx, %rbx
	jne	.L51
.L50:
	movq	16(%r9), %rbx
	movl	$40, %esi
	movq	%r9, %rdi
	call	_ZdlPvm@PLT
	testq	%rbx, %rbx
	je	.L49
	movq	%rbx, %r9
	jmp	.L52
.L47:
	movq	16(%rbp), %r12
	movl	$40, %esi
	movq	%rbp, %rdi
	call	_ZdlPvm@PLT
	testq	%r12, %r12
	je	.L46
	movq	%r12, %rbp
	jmp	.L55
	.p2align 4,,10
	.p2align 3
.L48:
	movq	16(%r13), %r12
	movl	$40, %esi
	movq	%r13, %rdi
	call	_ZdlPvm@PLT
	testq	%r12, %r12
	je	.L47
	movq	%r12, %r13
	jmp	.L54
.L46:
	movq	8(%rsp), %rdi
	movl	$40, %esi
	movq	16(%rdi), %rbp
	call	_ZdlPvm@PLT
	testq	%rbp, %rbp
	je	.L45
	movq	%rbp, 8(%rsp)
	jmp	.L56
	.p2align 4,,10
	.p2align 3
.L49:
	movq	16(%r12), %rax
	movl	$40, %esi
	movq	%r12, %rdi
	movq	%rax, 24(%rsp)
	call	_ZdlPvm@PLT
	movq	24(%rsp), %rax
	testq	%rax, %rax
	je	.L48
	movq	%rax, %r12
	jmp	.L53
.L45:
	movq	16(%r15), %rbx
	movl	$40, %esi
	movq	%r15, %rdi
	call	_ZdlPvm@PLT
	testq	%rbx, %rbx
	je	.L44
	movq	%rbx, %r15
	jmp	.L57
.L44:
	movq	16(%r14), %rbx
	movl	$40, %esi
	movq	%r14, %rdi
	call	_ZdlPvm@PLT
	testq	%rbx, %rbx
	je	.L43
	movq	%rbx, %r14
	jmp	.L58
.L43:
	movq	16(%rsp), %rdi
	movl	$40, %esi
	movq	16(%rdi), %rbx
	call	_ZdlPvm@PLT
	testq	%rbx, %rbx
	je	.L41
	movq	%rbx, 16(%rsp)
	jmp	.L59
.L41:
	addq	$40, %rsp
	.cfi_def_cfa_offset 56
	popq	%rbx
	.cfi_def_cfa_offset 48
	popq	%rbp
	.cfi_def_cfa_offset 40
	popq	%r12
	.cfi_def_cfa_offset 32
	popq	%r13
	.cfi_def_cfa_offset 24
	popq	%r14
	.cfi_def_cfa_offset 16
	popq	%r15
	.cfi_def_cfa_offset 8
	ret
	.cfi_endproc
.LFE10652:
	.size	_ZNSt8_Rb_treeIPN8opendnp317IScheduleCallbackES2_St9_IdentityIS2_ESt4lessIS2_ESaIS2_EE8_M_eraseEPSt13_Rb_tree_nodeIS2_E.isra.0, .-_ZNSt8_Rb_treeIPN8opendnp317IScheduleCallbackES2_St9_IdentityIS2_ESt4lessIS2_ESaIS2_EE8_M_eraseEPSt13_Rb_tree_nodeIS2_E.isra.0
	.section	.rodata._ZNK4asio6detail15system_category7messageB5cxx11Ei.str1.8,"aMS",@progbits,1
	.align 8
.LC4:
	.string	"basic_string::_M_construct null not valid"
	.section	.text._ZNK4asio6detail15system_category7messageB5cxx11Ei,"axG",@progbits,_ZNK4asio6detail15system_category7messageB5cxx11Ei,comdat
	.align 2
	.p2align 4
	.weak	_ZNK4asio6detail15system_category7messageB5cxx11Ei
	.type	_ZNK4asio6detail15system_category7messageB5cxx11Ei, @function
_ZNK4asio6detail15system_category7messageB5cxx11Ei:
.LFB2995:
	.cfi_startproc
	endbr64
	pushq	%r14
	.cfi_def_cfa_offset 16
	.cfi_offset 14, -16
	pushq	%r13
	.cfi_def_cfa_offset 24
	.cfi_offset 13, -24
	pushq	%r12
	.cfi_def_cfa_offset 32
	.cfi_offset 12, -32
	movq	%rdi, %r12
	pushq	%rbp
	.cfi_def_cfa_offset 40
	.cfi_offset 6, -40
	leaq	16(%rdi), %rbp
	subq	$296, %rsp
	.cfi_def_cfa_offset 336
	movq	%fs:40, %rax
	movq	%rax, 280(%rsp)
	xorl	%eax, %eax
	cmpl	$125, %edx
	je	.L112
	pxor	%xmm0, %xmm0
	movl	%edx, %edi
	leaq	16(%rsp), %rsi
	movl	$256, %edx
	movaps	%xmm0, 16(%rsp)
	movaps	%xmm0, 32(%rsp)
	movaps	%xmm0, 48(%rsp)
	movaps	%xmm0, 64(%rsp)
	movaps	%xmm0, 80(%rsp)
	movaps	%xmm0, 96(%rsp)
	movaps	%xmm0, 112(%rsp)
	movaps	%xmm0, 128(%rsp)
	movaps	%xmm0, 144(%rsp)
	movaps	%xmm0, 160(%rsp)
	movaps	%xmm0, 176(%rsp)
	movaps	%xmm0, 192(%rsp)
	movaps	%xmm0, 208(%rsp)
	movaps	%xmm0, 224(%rsp)
	movaps	%xmm0, 240(%rsp)
	movaps	%xmm0, 256(%rsp)
	call	strerror_r@PLT
	movq	%rbp, (%r12)
	movq	%rax, %r13
	testq	%rax, %rax
	je	.L100
	movq	%rax, %rdi
	call	strlen@PLT
	movq	%rax, 8(%rsp)
	movq	%rax, %r14
	cmpq	$15, %rax
	ja	.L113
	cmpq	$1, %rax
	jne	.L104
	movzbl	0(%r13), %edx
	movb	%dl, 16(%r12)
.L105:
	movq	%rax, 8(%r12)
	movb	$0, 0(%rbp,%rax)
.L97:
	movq	280(%rsp), %rax
	subq	%fs:40, %rax
	jne	.L114
	addq	$296, %rsp
	.cfi_remember_state
	.cfi_def_cfa_offset 40
	movq	%r12, %rax
	popq	%rbp
	.cfi_def_cfa_offset 32
	popq	%r12
	.cfi_def_cfa_offset 24
	popq	%r13
	.cfi_def_cfa_offset 16
	popq	%r14
	.cfi_def_cfa_offset 8
	ret
	.p2align 4,,10
	.p2align 3
.L113:
	.cfi_restore_state
	leaq	8(%rsp), %rsi
	xorl	%edx, %edx
	movq	%r12, %rdi
	call	_ZNSt7__cxx1112basic_stringIcSt11char_traitsIcESaIcEE9_M_createERmm@PLT
	movq	%rax, (%r12)
	movq	%rax, %rbp
	movq	8(%rsp), %rax
	movq	%rax, 16(%r12)
.L103:
	movq	%rbp, %rdi
	movq	%r14, %rdx
	movq	%r13, %rsi
	call	memcpy@PLT
	movq	8(%rsp), %rax
	movq	(%r12), %rbp
	jmp	.L105
	.p2align 4,,10
	.p2align 3
.L112:
	movq	%rbp, (%rdi)
	xorl	%edx, %edx
	leaq	8(%rsp), %rsi
	movq	$18, 8(%rsp)
	call	_ZNSt7__cxx1112basic_stringIcSt11char_traitsIcESaIcEE9_M_createERmm@PLT
	movq	8(%rsp), %rdx
	movdqa	.LC5(%rip), %xmm0
	movq	%rax, (%r12)
	movq	%rdx, 16(%r12)
	movl	$11876, %edx
	movw	%dx, 16(%rax)
	movups	%xmm0, (%rax)
	movq	8(%rsp), %rax
	movq	(%r12), %rdx
	movq	%rax, 8(%r12)
	movb	$0, (%rdx,%rax)
	jmp	.L97
	.p2align 4,,10
	.p2align 3
.L104:
	testq	%rax, %rax
	je	.L105
	jmp	.L103
.L100:
	leaq	.LC4(%rip), %rdi
	call	_ZSt19__throw_logic_errorPKc@PLT
.L114:
	call	__stack_chk_fail@PLT
	.cfi_endproc
.LFE2995:
	.size	_ZNK4asio6detail15system_category7messageB5cxx11Ei, .-_ZNK4asio6detail15system_category7messageB5cxx11Ei
	.section	.text._ZNK4asio5error6detail17addrinfo_category7messageB5cxx11Ei,"axG",@progbits,_ZNK4asio5error6detail17addrinfo_category7messageB5cxx11Ei,comdat
	.align 2
	.p2align 4
	.weak	_ZNK4asio5error6detail17addrinfo_category7messageB5cxx11Ei
	.type	_ZNK4asio5error6detail17addrinfo_category7messageB5cxx11Ei, @function
_ZNK4asio5error6detail17addrinfo_category7messageB5cxx11Ei:
.LFB3041:
	.cfi_startproc
	endbr64
	pushq	%r12
	.cfi_def_cfa_offset 16
	.cfi_offset 12, -16
	movq	%rdi, %r12
	subq	$16, %rsp
	.cfi_def_cfa_offset 32
	movq	%fs:40, %rax
	movq	%rax, 8(%rsp)
	xorl	%eax, %eax
	leaq	16(%rdi), %rax
	movq	%rax, (%rdi)
	cmpl	$-8, %edx
	je	.L121
	cmpl	$-7, %edx
	je	.L122
	xorl	%edx, %edx
	movq	%rsp, %rsi
	movq	$19, (%rsp)
	call	_ZNSt7__cxx1112basic_stringIcSt11char_traitsIcESaIcEE9_M_createERmm@PLT
	movq	(%rsp), %rdx
	movdqa	.LC8(%rip), %xmm0
	movq	%rax, (%r12)
	movq	%rdx, 16(%r12)
	movl	$28530, %edx
	movw	%dx, 16(%rax)
	movb	$114, 18(%rax)
	movups	%xmm0, (%rax)
	movq	(%rsp), %rax
	movq	(%r12), %rdx
	movq	%rax, 8(%r12)
	movb	$0, (%rdx,%rax)
.L115:
	movq	8(%rsp), %rax
	subq	%fs:40, %rax
	jne	.L123
	addq	$16, %rsp
	.cfi_remember_state
	.cfi_def_cfa_offset 16
	movq	%r12, %rax
	popq	%r12
	.cfi_def_cfa_offset 8
	ret
	.p2align 4,,10
	.p2align 3
.L122:
	.cfi_restore_state
	xorl	%edx, %edx
	movq	%rsp, %rsi
	movq	$25, (%rsp)
	call	_ZNSt7__cxx1112basic_stringIcSt11char_traitsIcESaIcEE9_M_createERmm@PLT
	movq	(%rsp), %rdx
	movdqa	.LC7(%rip), %xmm0
	movabsq	$7310593918082512243, %rcx
	movq	%rax, (%r12)
	movq	%rdx, 16(%r12)
	movq	%rcx, 16(%rax)
	movb	$100, 24(%rax)
	movups	%xmm0, (%rax)
	movq	(%rsp), %rax
	movq	(%r12), %rdx
	movq	%rax, 8(%r12)
	movb	$0, (%rdx,%rax)
	jmp	.L115
	.p2align 4,,10
	.p2align 3
.L121:
	xorl	%edx, %edx
	movq	%rsp, %rsi
	movq	$17, (%rsp)
	call	_ZNSt7__cxx1112basic_stringIcSt11char_traitsIcESaIcEE9_M_createERmm@PLT
	movq	(%rsp), %rdx
	movdqa	.LC6(%rip), %xmm0
	movq	%rax, (%r12)
	movq	%rdx, 16(%r12)
	movb	$100, 16(%rax)
	movups	%xmm0, (%rax)
	movq	(%rsp), %rax
	movq	(%r12), %rdx
	movq	%rax, 8(%r12)
	movb	$0, (%rdx,%rax)
	jmp	.L115
.L123:
	call	__stack_chk_fail@PLT
	.cfi_endproc
.LFE3041:
	.size	_ZNK4asio5error6detail17addrinfo_category7messageB5cxx11Ei, .-_ZNK4asio5error6detail17addrinfo_category7messageB5cxx11Ei
	.section	.text._ZNK4asio5error6detail13misc_category7messageB5cxx11Ei,"axG",@progbits,_ZNK4asio5error6detail13misc_category7messageB5cxx11Ei,comdat
	.align 2
	.p2align 4
	.weak	_ZNK4asio5error6detail13misc_category7messageB5cxx11Ei
	.type	_ZNK4asio5error6detail13misc_category7messageB5cxx11Ei, @function
_ZNK4asio5error6detail13misc_category7messageB5cxx11Ei:
.LFB3047:
	.cfi_startproc
	endbr64
	pushq	%r12
	.cfi_def_cfa_offset 16
	.cfi_offset 12, -16
	movq	%rdi, %r12
	subq	$16, %rsp
	.cfi_def_cfa_offset 32
	movq	%fs:40, %rax
	movq	%rax, 8(%rsp)
	xorl	%eax, %eax
	leaq	16(%rdi), %rax
	movq	%rax, (%rdi)
	cmpl	$1, %edx
	je	.L132
	cmpl	$2, %edx
	je	.L133
	cmpl	$3, %edx
	je	.L134
	cmpl	$4, %edx
	je	.L135
	movabsq	$8316298233121436513, %rcx
	movl	$28530, %edx
	movq	%rcx, 16(%rdi)
	movl	$1919230051, 8(%rax)
	movw	%dx, 12(%rax)
	movb	$114, 14(%rax)
	movq	$15, 8(%rdi)
	movb	$0, 31(%rdi)
.L124:
	movq	8(%rsp), %rax
	subq	%fs:40, %rax
	jne	.L136
	addq	$16, %rsp
	.cfi_remember_state
	.cfi_def_cfa_offset 16
	movq	%r12, %rax
	popq	%r12
	.cfi_def_cfa_offset 8
	ret
	.p2align 4,,10
	.p2align 3
.L132:
	.cfi_restore_state
	movabsq	$2340011850872286273, %rcx
	movq	%rcx, 16(%rdi)
	movl	$1852141679, 8(%rax)
	movq	$12, 8(%rdi)
	movb	$0, 28(%rdi)
	jmp	.L124
	.p2align 4,,10
	.p2align 3
.L135:
	movq	%rsp, %rsi
	xorl	%edx, %edx
	movq	$57, (%rsp)
	call	_ZNSt7__cxx1112basic_stringIcSt11char_traitsIcESaIcEE9_M_createERmm@PLT
	movq	(%rsp), %rdx
	movdqa	.LC10(%rip), %xmm0
	movabsq	$7310291504967217959, %rsi
	movq	%rax, (%r12)
	movq	%rdx, 16(%r12)
	movups	%xmm0, (%rax)
	movdqa	.LC11(%rip), %xmm0
	movq	%rsi, 48(%rax)
	movups	%xmm0, 16(%rax)
	movdqa	.LC12(%rip), %xmm0
	movb	$116, 56(%rax)
	movups	%xmm0, 32(%rax)
	movq	(%rsp), %rax
	movq	(%r12), %rdx
	movq	%rax, 8(%r12)
	movb	$0, (%rdx,%rax)
	jmp	.L124
	.p2align 4,,10
	.p2align 3
.L133:
	movabsq	$7358994418594246213, %rcx
	movq	%rcx, 16(%rdi)
	movl	$27753, %ecx
	movw	%cx, 8(%rax)
	movb	$101, 10(%rax)
	movq	$11, 8(%rdi)
	movb	$0, 27(%rdi)
	jmp	.L124
	.p2align 4,,10
	.p2align 3
.L134:
	xorl	%edx, %edx
	movq	%rsp, %rsi
	movq	$17, (%rsp)
	call	_ZNSt7__cxx1112basic_stringIcSt11char_traitsIcESaIcEE9_M_createERmm@PLT
	movq	(%rsp), %rdx
	movdqa	.LC9(%rip), %xmm0
	movq	%rax, (%r12)
	movq	%rdx, 16(%r12)
	movb	$100, 16(%rax)
	movups	%xmm0, (%rax)
	movq	(%rsp), %rax
	movq	(%r12), %rdx
	movq	%rax, 8(%r12)
	movb	$0, (%rdx,%rax)
	jmp	.L124
.L136:
	call	__stack_chk_fail@PLT
	.cfi_endproc
.LFE3047:
	.size	_ZNK4asio5error6detail13misc_category7messageB5cxx11Ei, .-_ZNK4asio5error6detail13misc_category7messageB5cxx11Ei
	.section	.text._ZNK4asio5error6detail14netdb_category7messageB5cxx11Ei,"axG",@progbits,_ZNK4asio5error6detail14netdb_category7messageB5cxx11Ei,comdat
	.align 2
	.p2align 4
	.weak	_ZNK4asio5error6detail14netdb_category7messageB5cxx11Ei
	.type	_ZNK4asio5error6detail14netdb_category7messageB5cxx11Ei, @function
_ZNK4asio5error6detail14netdb_category7messageB5cxx11Ei:
.LFB3035:
	.cfi_startproc
	endbr64
	pushq	%r12
	.cfi_def_cfa_offset 16
	.cfi_offset 12, -16
	movq	%rdi, %r12
	subq	$16, %rsp
	.cfi_def_cfa_offset 32
	movq	%fs:40, %rax
	movq	%rax, 8(%rsp)
	xorl	%eax, %eax
	leaq	16(%rdi), %rax
	movq	%rax, (%rdi)
	cmpl	$1, %edx
	je	.L145
	cmpl	$2, %edx
	je	.L146
	cmpl	$4, %edx
	je	.L147
	cmpl	$3, %edx
	je	.L148
	xorl	%edx, %edx
	movq	%rsp, %rsi
	movq	$16, (%rsp)
	call	_ZNSt7__cxx1112basic_stringIcSt11char_traitsIcESaIcEE9_M_createERmm@PLT
	movq	(%rsp), %rdx
	movdqa	.LC22(%rip), %xmm0
	movq	%rax, (%r12)
	movq	%rdx, 16(%r12)
	movups	%xmm0, (%rax)
	movq	(%rsp), %rax
	movq	(%r12), %rdx
	movq	%rax, 8(%r12)
	movb	$0, (%rdx,%rax)
.L137:
	movq	8(%rsp), %rax
	subq	%fs:40, %rax
	jne	.L149
	addq	$16, %rsp
	.cfi_remember_state
	.cfi_def_cfa_offset 16
	movq	%r12, %rax
	popq	%r12
	.cfi_def_cfa_offset 8
	ret
	.p2align 4,,10
	.p2align 3
.L145:
	.cfi_restore_state
	movq	%rsp, %rsi
	xorl	%edx, %edx
	movq	$30, (%rsp)
	call	_ZNSt7__cxx1112basic_stringIcSt11char_traitsIcESaIcEE9_M_createERmm@PLT
	movq	(%rsp), %rdx
	movl	$10597, %esi
	movdqa	.LC13(%rip), %xmm0
	movabsq	$8388361603773658465, %rcx
	movq	%rax, (%r12)
	movq	%rdx, 16(%r12)
	movq	%rcx, 16(%rax)
	movl	$1986622561, 24(%rax)
	movw	%si, 28(%rax)
	movups	%xmm0, (%rax)
	movq	(%rsp), %rax
	movq	(%r12), %rdx
	movq	%rax, 8(%r12)
	movb	$0, (%rdx,%rax)
	jmp	.L137
	.p2align 4,,10
	.p2align 3
.L148:
	xorl	%edx, %edx
	movq	%rsp, %rsi
	movq	$55, (%rsp)
	call	_ZNSt7__cxx1112basic_stringIcSt11char_traitsIcESaIcEE9_M_createERmm@PLT
	movq	(%rsp), %rdx
	movdqa	.LC19(%rip), %xmm0
	movq	%rax, (%r12)
	movq	%rdx, 16(%r12)
	movl	$30059, %edx
	movups	%xmm0, (%rax)
	movdqa	.LC20(%rip), %xmm0
	movl	$1869573152, 48(%rax)
	movups	%xmm0, 16(%rax)
	movdqa	.LC21(%rip), %xmm0
	movw	%dx, 52(%rax)
	movb	$112, 54(%rax)
	movups	%xmm0, 32(%rax)
	movq	(%rsp), %rax
	movq	(%r12), %rdx
	movq	%rax, 8(%r12)
	movb	$0, (%rdx,%rax)
	jmp	.L137
	.p2align 4,,10
	.p2align 3
.L146:
	xorl	%edx, %edx
	movq	%rsp, %rsi
	movq	$51, (%rsp)
	call	_ZNSt7__cxx1112basic_stringIcSt11char_traitsIcESaIcEE9_M_createERmm@PLT
	movq	(%rsp), %rdx
	movl	$25972, %ecx
	movdqa	.LC13(%rip), %xmm0
	movq	%rax, (%r12)
	movq	%rdx, 16(%r12)
	movups	%xmm0, (%rax)
	movdqa	.LC14(%rip), %xmm0
	movw	%cx, 48(%rax)
	movups	%xmm0, 16(%rax)
	movdqa	.LC15(%rip), %xmm0
	movb	$114, 50(%rax)
	movups	%xmm0, 32(%rax)
	movq	(%rsp), %rax
	movq	(%r12), %rdx
	movq	%rax, 8(%r12)
	movb	$0, (%rdx,%rax)
	jmp	.L137
	.p2align 4,,10
	.p2align 3
.L147:
	xorl	%edx, %edx
	movq	%rsp, %rsi
	movq	$56, (%rsp)
	call	_ZNSt7__cxx1112basic_stringIcSt11char_traitsIcESaIcEE9_M_createERmm@PLT
	movq	(%rsp), %rdx
	movdqa	.LC16(%rip), %xmm0
	movabsq	$7022344801645520244, %rcx
	movq	%rax, (%r12)
	movq	%rdx, 16(%r12)
	movups	%xmm0, (%rax)
	movdqa	.LC17(%rip), %xmm0
	movq	%rcx, 48(%rax)
	movups	%xmm0, 16(%rax)
	movdqa	.LC18(%rip), %xmm0
	movups	%xmm0, 32(%rax)
	movq	(%rsp), %rax
	movq	(%r12), %rdx
	movq	%rax, 8(%r12)
	movb	$0, (%rdx,%rax)
	jmp	.L137
.L149:
	call	__stack_chk_fail@PLT
	.cfi_endproc
.LFE3035:
	.size	_ZNK4asio5error6detail14netdb_category7messageB5cxx11Ei, .-_ZNK4asio5error6detail14netdb_category7messageB5cxx11Ei
	.text
	.align 2
	.p2align 4
	.globl	_ZN8asiodnp318TCPServerIOHandler12ShutdownImplEv
	.type	_ZN8asiodnp318TCPServerIOHandler12ShutdownImplEv, @function
_ZN8asiodnp318TCPServerIOHandler12ShutdownImplEv:
.LFB7765:
	.cfi_startproc
	endbr64
	pushq	%rbp
	.cfi_def_cfa_offset 16
	.cfi_offset 6, -16
	pushq	%rbx
	.cfi_def_cfa_offset 24
	.cfi_offset 3, -24
	movq	%rdi, %rbx
	subq	$8, %rsp
	.cfi_def_cfa_offset 32
	movq	856(%rdi), %rdi
	testq	%rdi, %rdi
	je	.L150
	call	_ZN7asiopal9TCPServer8ShutdownEv@PLT
	movq	864(%rbx), %rbp
	pxor	%xmm0, %xmm0
	movups	%xmm0, 856(%rbx)
	testq	%rbp, %rbp
	je	.L150
	movq	__libc_single_threaded@GOTPCREL(%rip), %rbx
	cmpb	$0, (%rbx)
	je	.L154
	movl	8(%rbp), %eax
	leal	-1(%rax), %edx
	movl	%edx, 8(%rbp)
.L155:
	cmpl	$1, %eax
	jne	.L150
	movq	0(%rbp), %rax
	movq	%rbp, %rdi
	call	*16(%rax)
	cmpb	$0, (%rbx)
	je	.L156
	movl	12(%rbp), %eax
	leal	-1(%rax), %edx
	movl	%edx, 12(%rbp)
.L157:
	cmpl	$1, %eax
	je	.L162
.L150:
	addq	$8, %rsp
	.cfi_remember_state
	.cfi_def_cfa_offset 24
	popq	%rbx
	.cfi_def_cfa_offset 16
	popq	%rbp
	.cfi_def_cfa_offset 8
	ret
	.p2align 4,,10
	.p2align 3
.L154:
	.cfi_restore_state
	movl	$-1, %eax
	lock xaddl	%eax, 8(%rbp)
	jmp	.L155
	.p2align 4,,10
	.p2align 3
.L162:
	movq	0(%rbp), %rax
	movq	%rbp, %rdi
	movq	24(%rax), %rax
	addq	$8, %rsp
	.cfi_remember_state
	.cfi_def_cfa_offset 24
	popq	%rbx
	.cfi_def_cfa_offset 16
	popq	%rbp
	.cfi_def_cfa_offset 8
	jmp	*%rax
	.p2align 4,,10
	.p2align 3
.L156:
	.cfi_restore_state
	movl	$-1, %eax
	lock xaddl	%eax, 12(%rbp)
	jmp	.L157
	.cfi_endproc
.LFE7765:
	.size	_ZN8asiodnp318TCPServerIOHandler12ShutdownImplEv, .-_ZN8asiodnp318TCPServerIOHandler12ShutdownImplEv
	.globl	_ZN8asiodnp318TCPServerIOHandler20SuspendChannelAcceptEv
	.set	_ZN8asiodnp318TCPServerIOHandler20SuspendChannelAcceptEv,_ZN8asiodnp318TCPServerIOHandler12ShutdownImplEv
	.p2align 4
	.type	_ZNSt17_Function_handlerIFvRKSt10shared_ptrIN7asiopal8ExecutorEEN4asio19basic_stream_socketINS6_2ip3tcpENS6_21stream_socket_serviceIS9_EEEEEZN8asiodnp318TCPServerIOHandler18BeginChannelAcceptEvEUlS5_SC_E_E10_M_managerERSt9_Any_dataRKSI_St18_Manager_operation, @function
_ZNSt17_Function_handlerIFvRKSt10shared_ptrIN7asiopal8ExecutorEEN4asio19basic_stream_socketINS6_2ip3tcpENS6_21stream_socket_serviceIS9_EEEEEZN8asiodnp318TCPServerIOHandler18BeginChannelAcceptEvEUlS5_SC_E_E10_M_managerERSt9_Any_dataRKSI_St18_Manager_operation:
.LFB9174:
	.cfi_startproc
	endbr64
	pushq	%r12
	.cfi_def_cfa_offset 16
	.cfi_offset 12, -16
	pushq	%rbp
	.cfi_def_cfa_offset 24
	.cfi_offset 6, -24
	pushq	%rbx
	.cfi_def_cfa_offset 32
	.cfi_offset 3, -32
	movq	%rdi, %rbx
	testl	%edx, %edx
	je	.L164
	cmpl	$1, %edx
	je	.L165
	cmpl	$2, %edx
	je	.L168
	cmpl	$3, %edx
	jne	.L167
	movq	(%rdi), %rbp
	testq	%rbp, %rbp
	je	.L167
	movq	8(%rbp), %r12
	testq	%r12, %r12
	je	.L173
	movq	__libc_single_threaded@GOTPCREL(%rip), %rbx
	cmpb	$0, (%rbx)
	je	.L174
	movl	8(%r12), %eax
	leal	-1(%rax), %edx
	movl	%edx, 8(%r12)
.L175:
	cmpl	$1, %eax
	je	.L187
.L173:
	movl	$24, %esi
	movq	%rbp, %rdi
	call	_ZdlPvm@PLT
.L167:
	popq	%rbx
	.cfi_remember_state
	.cfi_def_cfa_offset 24
	xorl	%eax, %eax
	popq	%rbp
	.cfi_def_cfa_offset 16
	popq	%r12
	.cfi_def_cfa_offset 8
	ret
	.p2align 4,,10
	.p2align 3
.L164:
	.cfi_restore_state
	leaq	_ZTIZN8asiodnp318TCPServerIOHandler18BeginChannelAcceptEvEUlRKSt10shared_ptrIN7asiopal8ExecutorEEN4asio19basic_stream_socketINS7_2ip3tcpENS7_21stream_socket_serviceISA_EEEEE_(%rip), %rax
	movq	%rax, (%rdi)
	xorl	%eax, %eax
	popq	%rbx
	.cfi_remember_state
	.cfi_def_cfa_offset 24
	popq	%rbp
	.cfi_def_cfa_offset 16
	popq	%r12
	.cfi_def_cfa_offset 8
	ret
	.p2align 4,,10
	.p2align 3
.L165:
	.cfi_restore_state
	movq	(%rsi), %rax
	movq	%rax, (%rdi)
	xorl	%eax, %eax
	popq	%rbx
	.cfi_remember_state
	.cfi_def_cfa_offset 24
	popq	%rbp
	.cfi_def_cfa_offset 16
	popq	%r12
	.cfi_def_cfa_offset 8
	ret
	.p2align 4,,10
	.p2align 3
.L168:
	.cfi_restore_state
	movq	(%rsi), %rbp
	movl	$24, %edi
	call	_Znwm@PLT
	movdqu	0(%rbp), %xmm0
	movq	8(%rbp), %rdx
	movups	%xmm0, (%rax)
	testq	%rdx, %rdx
	je	.L170
	movq	__libc_single_threaded@GOTPCREL(%rip), %rcx
	cmpb	$0, (%rcx)
	je	.L171
	addl	$1, 8(%rdx)
.L170:
	movq	16(%rbp), %rdx
	movq	%rdx, 16(%rax)
	movq	%rax, (%rbx)
	jmp	.L167
	.p2align 4,,10
	.p2align 3
.L171:
	lock addl	$1, 8(%rdx)
	jmp	.L170
.L187:
	movq	(%r12), %rax
	movq	%r12, %rdi
	call	*16(%rax)
	cmpb	$0, (%rbx)
	je	.L177
	movl	12(%r12), %eax
	leal	-1(%rax), %edx
	movl	%edx, 12(%r12)
.L178:
	cmpl	$1, %eax
	jne	.L173
	movq	(%r12), %rax
	movq	%r12, %rdi
	call	*24(%rax)
	jmp	.L173
.L174:
	movl	$-1, %eax
	lock xaddl	%eax, 8(%r12)
	jmp	.L175
.L177:
	movl	$-1, %eax
	lock xaddl	%eax, 12(%r12)
	jmp	.L178
	.cfi_endproc
.LFE9174:
	.size	_ZNSt17_Function_handlerIFvRKSt10shared_ptrIN7asiopal8ExecutorEEN4asio19basic_stream_socketINS6_2ip3tcpENS6_21stream_socket_serviceIS9_EEEEEZN8asiodnp318TCPServerIOHandler18BeginChannelAcceptEvEUlS5_SC_E_E10_M_managerERSt9_Any_dataRKSI_St18_Manager_operation, .-_ZNSt17_Function_handlerIFvRKSt10shared_ptrIN7asiopal8ExecutorEEN4asio19basic_stream_socketINS6_2ip3tcpENS6_21stream_socket_serviceIS9_EEEEEZN8asiodnp318TCPServerIOHandler18BeginChannelAcceptEvEUlS5_SC_E_E10_M_managerERSt9_Any_dataRKSI_St18_Manager_operation
	.section	.text._ZN4asio15system_categoryEv,"axG",@progbits,_ZN4asio15system_categoryEv,comdat
	.p2align 4
	.weak	_ZN4asio15system_categoryEv
	.type	_ZN4asio15system_categoryEv, @function
_ZN4asio15system_categoryEv:
.LFB2998:
	.cfi_startproc
	endbr64
	pushq	%r12
	.cfi_def_cfa_offset 16
	.cfi_offset 12, -16
	pushq	%rbp
	.cfi_def_cfa_offset 24
	.cfi_offset 6, -24
	subq	$8, %rsp
	.cfi_def_cfa_offset 32
	movq	_ZGVZN4asio15system_categoryEvE8instance@GOTPCREL(%rip), %rbp
	movzbl	0(%rbp), %eax
	testb	%al, %al
	je	.L189
.L196:
	movq	_ZZN4asio15system_categoryEvE8instance@GOTPCREL(%rip), %r12
	addq	$8, %rsp
	.cfi_remember_state
	.cfi_def_cfa_offset 24
	popq	%rbp
	.cfi_def_cfa_offset 16
	movq	%r12, %rax
	popq	%r12
	.cfi_def_cfa_offset 8
	ret
	.p2align 4,,10
	.p2align 3
.L189:
	.cfi_restore_state
	movq	%rbp, %rdi
	call	__cxa_guard_acquire@PLT
	testl	%eax, %eax
	je	.L196
	movq	_ZZN4asio15system_categoryEvE8instance@GOTPCREL(%rip), %r12
	movq	_ZN4asio6detail15system_categoryD1Ev@GOTPCREL(%rip), %rdi
	leaq	__dso_handle(%rip), %rdx
	movq	%r12, %rsi
	call	__cxa_atexit@PLT
	movq	%rbp, %rdi
	call	__cxa_guard_release@PLT
	addq	$8, %rsp
	.cfi_def_cfa_offset 24
	movq	%r12, %rax
	popq	%rbp
	.cfi_def_cfa_offset 16
	popq	%r12
	.cfi_def_cfa_offset 8
	ret
	.cfi_endproc
.LFE2998:
	.size	_ZN4asio15system_categoryEv, .-_ZN4asio15system_categoryEv
	.section	.text._ZN4asio6detail28reactive_socket_service_base7destroyERNS1_24base_implementation_typeE,"axG",@progbits,_ZN4asio6detail28reactive_socket_service_base7destroyERNS1_24base_implementation_typeE,comdat
	.align 2
	.p2align 4
	.weak	_ZN4asio6detail28reactive_socket_service_base7destroyERNS1_24base_implementation_typeE
	.type	_ZN4asio6detail28reactive_socket_service_base7destroyERNS1_24base_implementation_typeE, @function
_ZN4asio6detail28reactive_socket_service_base7destroyERNS1_24base_implementation_typeE:
.LFB4471:
	.cfi_startproc
	endbr64
	pushq	%r15
	.cfi_def_cfa_offset 16
	.cfi_offset 15, -16
	pushq	%r14
	.cfi_def_cfa_offset 24
	.cfi_offset 14, -24
	pushq	%r13
	.cfi_def_cfa_offset 32
	.cfi_offset 13, -32
	pushq	%r12
	.cfi_def_cfa_offset 40
	.cfi_offset 12, -40
	pushq	%rbp
	.cfi_def_cfa_offset 48
	.cfi_offset 6, -48
	pushq	%rbx
	.cfi_def_cfa_offset 56
	.cfi_offset 3, -56
	subq	$72, %rsp
	.cfi_def_cfa_offset 128
	movl	(%rsi), %r12d
	movq	%fs:40, %rax
	movq	%rax, 56(%rsp)
	xorl	%eax, %eax
	cmpl	$-1, %r12d
	jne	.L303
.L197:
	movq	56(%rsp), %rax
	subq	%fs:40, %rax
	jne	.L302
	addq	$72, %rsp
	.cfi_remember_state
	.cfi_def_cfa_offset 56
	popq	%rbx
	.cfi_def_cfa_offset 48
	popq	%rbp
	.cfi_def_cfa_offset 40
	popq	%r12
	.cfi_def_cfa_offset 32
	popq	%r13
	.cfi_def_cfa_offset 24
	popq	%r14
	.cfi_def_cfa_offset 16
	popq	%r15
	.cfi_def_cfa_offset 8
	ret
	.p2align 4,,10
	.p2align 3
.L303:
	.cfi_restore_state
	movq	8(%rsi), %rbp
	movq	%rsi, %r15
	testq	%rbp, %rbp
	je	.L228
	movq	(%rdi), %rax
	movzbl	4(%rsi), %ebx
	movq	%rax, 16(%rsp)
	leaq	40(%rbp), %rax
	movq	%rax, %rdi
	movq	%rax, 24(%rsp)
	call	pthread_mutex_lock@PLT
	movq	8(%r15), %rdi
	cmpb	$0, 144(%rdi)
	jne	.L200
	andl	$64, %ebx
	jne	.L304
.L201:
	movq	$0, 8(%rsp)
	xorl	%ebp, %ebp
	movl	$0, 4(%rsp)
.L202:
	movslq	4(%rsp), %r12
	movq	%r12, %rax
	salq	$4, %rax
	movq	96(%rax,%rdi), %rbx
	testq	%rbx, %rbx
	je	.L249
	movq	_ZGVZN4asio15system_categoryEvE8instance@GOTPCREL(%rip), %r14
	movq	_ZZN4asio15system_categoryEvE8instance@GOTPCREL(%rip), %r13
	movzbl	(%r14), %eax
	testb	%al, %al
	je	.L305
	.p2align 4,,10
	.p2align 3
.L204:
	movq	8(%r15), %rdi
	movq	%r12, %rax
	movl	$125, 24(%rbx)
	salq	$4, %rax
	movq	%r13, 32(%rbx)
	addq	%rdi, %rax
	movq	96(%rax), %rdx
	testq	%rdx, %rdx
	je	.L206
	movq	(%rdx), %r11
	movq	%r11, 96(%rax)
	testq	%r11, %r11
	je	.L306
	movq	$0, (%rdx)
	movq	$0, (%rbx)
	testq	%rbp, %rbp
	je	.L307
.L246:
	movq	%rbx, 0(%rbp)
	testq	%r11, %r11
	je	.L208
.L209:
	movzbl	(%r14), %eax
	movq	%rbx, %rbp
	movq	%r11, %rbx
	testb	%al, %al
	jne	.L204
.L305:
	movq	%r14, %rdi
	call	__cxa_guard_acquire@PLT
	testl	%eax, %eax
	je	.L204
	movq	_ZN4asio6detail15system_categoryD1Ev@GOTPCREL(%rip), %rdi
	leaq	__dso_handle(%rip), %rdx
	movq	%r13, %rsi
	call	__cxa_atexit@PLT
	movq	%r14, %rdi
	call	__cxa_guard_release@PLT
	jmp	.L204
	.p2align 4,,10
	.p2align 3
.L200:
	movq	24(%rsp), %rdi
	call	pthread_mutex_unlock@PLT
.L301:
	movl	(%r15), %r12d
	cmpl	$-1, %r12d
	je	.L197
.L228:
	call	__errno_location@PLT
	movzbl	4(%r15), %ebp
	movq	%rax, %rbx
	testb	$8, %bpl
	jne	.L299
	movq	_ZGVZN4asio15system_categoryEvE8instance@GOTPCREL(%rip), %r14
.L230:
	movl	$0, (%rbx)
	movl	%r12d, %edi
	call	close@PLT
	movl	%eax, %ebp
	movzbl	(%r14), %eax
	testb	%al, %al
	je	.L308
.L235:
	movl	(%rbx), %r13d
	testl	%ebp, %ebp
	je	.L197
	movzbl	(%r14), %eax
	testb	%al, %al
	je	.L309
.L239:
	cmpl	$11, %r13d
	je	.L241
	movzbl	(%r14), %eax
	testb	%al, %al
	jne	.L197
	movq	%r14, %rdi
	call	__cxa_guard_acquire@PLT
	testl	%eax, %eax
	je	.L197
	movq	_ZZN4asio15system_categoryEvE8instance@GOTPCREL(%rip), %rsi
	movq	_ZN4asio6detail15system_categoryD1Ev@GOTPCREL(%rip), %rdi
	leaq	__dso_handle(%rip), %rdx
	call	__cxa_atexit@PLT
	movq	56(%rsp), %rax
	subq	%fs:40, %rax
	jne	.L302
	addq	$72, %rsp
	.cfi_remember_state
	.cfi_def_cfa_offset 56
	movq	%r14, %rdi
	popq	%rbx
	.cfi_def_cfa_offset 48
	popq	%rbp
	.cfi_def_cfa_offset 40
	popq	%r12
	.cfi_def_cfa_offset 32
	popq	%r13
	.cfi_def_cfa_offset 24
	popq	%r14
	.cfi_def_cfa_offset 16
	popq	%r15
	.cfi_def_cfa_offset 8
	jmp	__cxa_guard_release@PLT
	.p2align 4,,10
	.p2align 3
.L206:
	.cfi_restore_state
	movq	$0, (%rbx)
	testq	%rbp, %rbp
	je	.L250
	movq	%rbx, 0(%rbp)
.L208:
	addl	$1, 4(%rsp)
	movl	4(%rsp), %eax
	cmpl	$3, %eax
	je	.L210
.L310:
	movq	%rbx, %rbp
	jmp	.L202
	.p2align 4,,10
	.p2align 3
.L306:
	movq	$0, 104(%rax)
	movq	$0, (%rdx)
	movq	$0, (%rbx)
	testq	%rbp, %rbp
	jne	.L246
	.p2align 4,,10
	.p2align 3
.L250:
	addl	$1, 4(%rsp)
	movl	4(%rsp), %eax
	movq	%rbx, 8(%rsp)
	cmpl	$3, %eax
	jne	.L310
.L210:
	movl	$-1, 88(%rdi)
	movb	$1, 144(%rdi)
	movq	24(%rsp), %rdi
	call	pthread_mutex_unlock@PLT
	movq	16(%rsp), %r14
	movq	8(%r15), %rbp
	leaq	120(%r14), %r12
	movq	%r12, %rdi
	call	pthread_mutex_lock@PLT
	cmpq	160(%r14), %rbp
	je	.L311
.L212:
	movq	32(%rbp), %rax
	testq	%rax, %rax
	je	.L213
	movq	24(%rbp), %rdx
	movq	%rdx, 24(%rax)
.L213:
	movq	24(%rbp), %rax
	testq	%rax, %rax
	je	.L214
	movq	32(%rbp), %rdx
	movq	%rdx, 32(%rax)
.L214:
	movq	16(%rsp), %r14
	movq	%r12, %rdi
	movq	168(%r14), %rax
	movq	$0, 32(%rbp)
	movq	%rax, 24(%rbp)
	movq	%rbp, 168(%r14)
	call	pthread_mutex_unlock@PLT
	cmpq	$0, 8(%rsp)
	movq	$0, 8(%r15)
	je	.L301
	movq	40(%r14), %rbp
	cmpb	$0, 40(%rbp)
	je	.L216
	data16	leaq	_ZN4asio6detail15keyword_tss_ptrINS0_10call_stackINS0_15task_io_serviceENS0_27task_io_service_thread_infoEE7contextEE6value_E@tlsgd(%rip), %rdi
	.value	0x6666
	rex64
	call	__tls_get_addr@PLT
	movq	(%rax), %rax
	testq	%rax, %rax
	jne	.L219
	jmp	.L216
	.p2align 4,,10
	.p2align 3
.L217:
	movq	16(%rax), %rax
	testq	%rax, %rax
	je	.L216
.L219:
	cmpq	(%rax), %rbp
	jne	.L217
	movq	8(%rax), %rax
	testq	%rax, %rax
	je	.L216
	movq	16(%rax), %rdx
	movq	8(%rsp), %rcx
	testq	%rdx, %rdx
	je	.L220
	movq	%rcx, (%rdx)
.L221:
	movq	%rbx, 16(%rax)
	jmp	.L301
	.p2align 4,,10
	.p2align 3
.L307:
	movq	%rbx, 8(%rsp)
	jmp	.L209
	.p2align 4,,10
	.p2align 3
.L308:
	movq	%r14, %rdi
	call	__cxa_guard_acquire@PLT
	testl	%eax, %eax
	je	.L235
	movq	_ZZN4asio15system_categoryEvE8instance@GOTPCREL(%rip), %rsi
	movq	_ZN4asio6detail15system_categoryD1Ev@GOTPCREL(%rip), %rdi
	leaq	__dso_handle(%rip), %rdx
	call	__cxa_atexit@PLT
	movq	%r14, %rdi
	call	__cxa_guard_release@PLT
	jmp	.L235
	.p2align 4,,10
	.p2align 3
.L299:
	orl	$8, %ebp
	leaq	40(%rsp), %rcx
	movl	$13, %edx
	movl	%r12d, %edi
	movb	%bpl, 4(%r15)
	movl	$8, %r8d
	movl	$1, %esi
	movl	$0, (%rax)
	movq	$0, 40(%rsp)
	call	setsockopt@PLT
	movq	_ZGVZN4asio15system_categoryEvE8instance@GOTPCREL(%rip), %r14
	movzbl	(%r14), %eax
	testb	%al, %al
	jne	.L230
	movq	%r14, %rdi
	call	__cxa_guard_acquire@PLT
	testl	%eax, %eax
	je	.L230
	movq	_ZZN4asio15system_categoryEvE8instance@GOTPCREL(%rip), %rsi
	movq	_ZN4asio6detail15system_categoryD1Ev@GOTPCREL(%rip), %rdi
	leaq	__dso_handle(%rip), %rdx
	call	__cxa_atexit@PLT
	movq	%r14, %rdi
	call	__cxa_guard_release@PLT
	jmp	.L230
	.p2align 4,,10
	.p2align 3
.L216:
	leaq	48(%rbp), %r12
	movq	%r12, %rdi
	call	pthread_mutex_lock@PLT
	movq	200(%rbp), %rax
	testq	%rax, %rax
	je	.L223
	movq	8(%rsp), %rcx
	movq	%rcx, (%rax)
.L224:
	movq	136(%rbp), %rax
	movq	%rbx, 200(%rbp)
	orq	$1, %rax
	movq	%rax, 136(%rbp)
	cmpq	$1, %rax
	je	.L225
	movq	%r12, %rdi
	call	pthread_mutex_unlock@PLT
	leaq	88(%rbp), %rdi
	call	pthread_cond_signal@PLT
	jmp	.L301
.L225:
	cmpb	$0, 176(%rbp)
	jne	.L227
	movq	144(%rbp), %rax
	testq	%rax, %rax
	je	.L227
	movb	$1, 176(%rbp)
	leaq	88(%rax), %rdx
	leaq	40(%rsp), %rcx
	movl	$3, %esi
	movq	%rdx, 44(%rsp)
	movl	88(%rax), %edx
	movl	$-2147483639, 40(%rsp)
	movl	96(%rax), %edi
	call	epoll_ctl@PLT
.L227:
	movq	%r12, %rdi
	call	pthread_mutex_unlock@PLT
	jmp	.L301
	.p2align 4,,10
	.p2align 3
.L249:
	movq	%rbp, %rbx
	jmp	.L208
	.p2align 4,,10
	.p2align 3
.L304:
	movq	16(%rsp), %rax
	movl	$0, 40(%rsp)
	leaq	40(%rsp), %rcx
	movl	%r12d, %edx
	movq	$0, 44(%rsp)
	movl	$2, %esi
	movl	96(%rax), %edi
	call	epoll_ctl@PLT
	movq	8(%r15), %rdi
	jmp	.L201
	.p2align 4,,10
	.p2align 3
.L311:
	movq	24(%rbp), %rax
	movq	16(%rsp), %rcx
	movq	%rax, 160(%rcx)
	jmp	.L212
.L309:
	movq	%r14, %rdi
	call	__cxa_guard_acquire@PLT
	testl	%eax, %eax
	je	.L239
	movq	_ZZN4asio15system_categoryEvE8instance@GOTPCREL(%rip), %rsi
	movq	_ZN4asio6detail15system_categoryD1Ev@GOTPCREL(%rip), %rdi
	leaq	__dso_handle(%rip), %rdx
	call	__cxa_atexit@PLT
	movq	%r14, %rdi
	call	__cxa_guard_release@PLT
	jmp	.L239
.L241:
	leaq	40(%rsp), %rdx
	movl	$21537, %esi
	movl	%r12d, %edi
	xorl	%eax, %eax
	movl	$0, 40(%rsp)
	call	ioctl@PLT
	andb	$-4, 4(%r15)
	movl	%r12d, %edi
	movl	$0, (%rbx)
	call	close@PLT
	movzbl	(%r14), %eax
	testb	%al, %al
	jne	.L197
	movq	%r14, %rdi
	call	__cxa_guard_acquire@PLT
	testl	%eax, %eax
	je	.L197
	movq	_ZZN4asio15system_categoryEvE8instance@GOTPCREL(%rip), %rsi
	movq	_ZN4asio6detail15system_categoryD1Ev@GOTPCREL(%rip), %rdi
	leaq	__dso_handle(%rip), %rdx
	call	__cxa_atexit@PLT
	movq	%r14, %rdi
	call	__cxa_guard_release@PLT
	jmp	.L197
.L223:
	movq	8(%rsp), %rax
	movq	%rax, 192(%rbp)
	jmp	.L224
.L220:
	movq	%rcx, 8(%rax)
	jmp	.L221
.L302:
	call	__stack_chk_fail@PLT
	.cfi_endproc
.LFE4471:
	.size	_ZN4asio6detail28reactive_socket_service_base7destroyERNS1_24base_implementation_typeE, .-_ZN4asio6detail28reactive_socket_service_base7destroyERNS1_24base_implementation_typeE
	.section	.text.unlikely,"ax",@progbits
	.align 2
.LCOLDB23:
	.text
.LHOTB23:
	.align 2
	.p2align 4
	.globl	_ZN8asiodnp318TCPServerIOHandler6Server16AcceptConnectionEmRKSt10shared_ptrIN7asiopal8ExecutorEEN4asio19basic_stream_socketINS8_2ip3tcpENS8_21stream_socket_serviceISB_EEEE
	.type	_ZN8asiodnp318TCPServerIOHandler6Server16AcceptConnectionEmRKSt10shared_ptrIN7asiopal8ExecutorEEN4asio19basic_stream_socketINS8_2ip3tcpENS8_21stream_socket_serviceISB_EEEE, @function
_ZN8asiodnp318TCPServerIOHandler6Server16AcceptConnectionEmRKSt10shared_ptrIN7asiopal8ExecutorEEN4asio19basic_stream_socketINS8_2ip3tcpENS8_21stream_socket_serviceISB_EEEE:
.LFB7751:
	.cfi_startproc
	.cfi_personality 0x9b,DW.ref.__gxx_personality_v0
	.cfi_lsda 0x1b,.LLSDA7751
	endbr64
	pushq	%r12
	.cfi_def_cfa_offset 16
	.cfi_offset 12, -16
	movq	%rdx, %rsi
	pushq	%rbp
	.cfi_def_cfa_offset 24
	.cfi_offset 6, -24
	subq	$56, %rsp
	.cfi_def_cfa_offset 80
	movq	%fs:40, %rdx
	movq	%rdx, 40(%rsp)
	movq	24(%rcx), %rdx
	movq	%rdx, 24(%rsp)
	movl	(%rcx), %edx
	movl	$-1, (%rcx)
	movl	%edx, (%rsp)
	movzbl	4(%rcx), %edx
	movb	$0, 4(%rcx)
	cmpq	$0, 224(%rdi)
	movb	%dl, 4(%rsp)
	movq	8(%rcx), %rdx
	movq	$0, 8(%rcx)
	movq	%rdx, 8(%rsp)
	movl	16(%rcx), %edx
	movl	$2, 16(%rcx)
	movl	%edx, 16(%rsp)
	je	.L319
	movq	%rdi, %rax
	movq	%rsp, %rbp
	leaq	208(%rdi), %rdi
	movq	%rbp, %rdx
.LEHB0:
	call	*232(%rax)
.LEHE0:
	movq	24(%rsp), %rax
	movq	%rbp, %rsi
	leaq	40(%rax), %rdi
	call	_ZN4asio6detail28reactive_socket_service_base7destroyERNS1_24base_implementation_typeE@PLT
	movq	40(%rsp), %rax
	subq	%fs:40, %rax
	jne	.L320
	addq	$56, %rsp
	.cfi_remember_state
	.cfi_def_cfa_offset 24
	popq	%rbp
	.cfi_def_cfa_offset 16
	popq	%r12
	.cfi_def_cfa_offset 8
	ret
.L319:
	.cfi_restore_state
	movq	%rsp, %rbp
.LEHB1:
	call	_ZSt25__throw_bad_function_callv@PLT
.LEHE1:
.L320:
	call	__stack_chk_fail@PLT
.L316:
	endbr64
	movq	%rax, %r12
	jmp	.L314
	.globl	__gxx_personality_v0
	.section	.gcc_except_table,"a",@progbits
.LLSDA7751:
	.byte	0xff
	.byte	0xff
	.byte	0x1
	.uleb128 .LLSDACSE7751-.LLSDACSB7751
.LLSDACSB7751:
	.uleb128 .LEHB0-.LFB7751
	.uleb128 .LEHE0-.LEHB0
	.uleb128 .L316-.LFB7751
	.uleb128 0
	.uleb128 .LEHB1-.LFB7751
	.uleb128 .LEHE1-.LEHB1
	.uleb128 .L316-.LFB7751
	.uleb128 0
.LLSDACSE7751:
	.text
	.cfi_endproc
	.section	.text.unlikely
	.cfi_startproc
	.cfi_personality 0x9b,DW.ref.__gxx_personality_v0
	.cfi_lsda 0x1b,.LLSDAC7751
	.type	_ZN8asiodnp318TCPServerIOHandler6Server16AcceptConnectionEmRKSt10shared_ptrIN7asiopal8ExecutorEEN4asio19basic_stream_socketINS8_2ip3tcpENS8_21stream_socket_serviceISB_EEEE.cold, @function
_ZN8asiodnp318TCPServerIOHandler6Server16AcceptConnectionEmRKSt10shared_ptrIN7asiopal8ExecutorEEN4asio19basic_stream_socketINS8_2ip3tcpENS8_21stream_socket_serviceISB_EEEE.cold:
.LFSB7751:
.L314:
	.cfi_def_cfa_offset 80
	.cfi_offset 6, -24
	.cfi_offset 12, -16
	movq	24(%rsp), %rax
	movq	%rbp, %rsi
	leaq	40(%rax), %rdi
	call	_ZN4asio6detail28reactive_socket_service_base7destroyERNS1_24base_implementation_typeE@PLT
	movq	%r12, %rdi
.LEHB2:
	call	_Unwind_Resume@PLT
.LEHE2:
	.cfi_endproc
.LFE7751:
	.section	.gcc_except_table
.LLSDAC7751:
	.byte	0xff
	.byte	0xff
	.byte	0x1
	.uleb128 .LLSDACSEC7751-.LLSDACSBC7751
.LLSDACSBC7751:
	.uleb128 .LEHB2-.LCOLDB23
	.uleb128 .LEHE2-.LEHB2
	.uleb128 0
	.uleb128 0
.LLSDACSEC7751:
	.section	.text.unlikely
	.text
	.size	_ZN8asiodnp318TCPServerIOHandler6Server16AcceptConnectionEmRKSt10shared_ptrIN7asiopal8ExecutorEEN4asio19basic_stream_socketINS8_2ip3tcpENS8_21stream_socket_serviceISB_EEEE, .-_ZN8asiodnp318TCPServerIOHandler6Server16AcceptConnectionEmRKSt10shared_ptrIN7asiopal8ExecutorEEN4asio19basic_stream_socketINS8_2ip3tcpENS8_21stream_socket_serviceISB_EEEE
	.section	.text.unlikely
	.size	_ZN8asiodnp318TCPServerIOHandler6Server16AcceptConnectionEmRKSt10shared_ptrIN7asiopal8ExecutorEEN4asio19basic_stream_socketINS8_2ip3tcpENS8_21stream_socket_serviceISB_EEEE.cold, .-_ZN8asiodnp318TCPServerIOHandler6Server16AcceptConnectionEmRKSt10shared_ptrIN7asiopal8ExecutorEEN4asio19basic_stream_socketINS8_2ip3tcpENS8_21stream_socket_serviceISB_EEEE.cold
.LCOLDE23:
	.text
.LHOTE23:
	.section	.text._ZNSt23_Sp_counted_ptr_inplaceIN7asiopal13SocketChannelESaIS1_ELN9__gnu_cxx12_Lock_policyE2EE10_M_disposeEv,"axG",@progbits,_ZNSt23_Sp_counted_ptr_inplaceIN7asiopal13SocketChannelESaIS1_ELN9__gnu_cxx12_Lock_policyE2EE10_M_disposeEv,comdat
	.align 2
	.p2align 4
	.weak	_ZNSt23_Sp_counted_ptr_inplaceIN7asiopal13SocketChannelESaIS1_ELN9__gnu_cxx12_Lock_policyE2EE10_M_disposeEv
	.type	_ZNSt23_Sp_counted_ptr_inplaceIN7asiopal13SocketChannelESaIS1_ELN9__gnu_cxx12_Lock_policyE2EE10_M_disposeEv, @function
_ZNSt23_Sp_counted_ptr_inplaceIN7asiopal13SocketChannelESaIS1_ELN9__gnu_cxx12_Lock_policyE2EE10_M_disposeEv:
.LFB10534:
	.cfi_startproc
	.cfi_personality 0x9b,DW.ref.__gxx_personality_v0
	.cfi_lsda 0x1b,.LLSDA10534
	endbr64
	movq	_ZTVN7asiopal13SocketChannelE@GOTPCREL(%rip), %rax
	pushq	%r12
	.cfi_def_cfa_offset 16
	.cfi_offset 12, -16
	leaq	80(%rdi), %rsi
	pushq	%rbp
	.cfi_def_cfa_offset 24
	.cfi_offset 6, -24
	addq	$16, %rax
	pushq	%rbx
	.cfi_def_cfa_offset 32
	.cfi_offset 3, -32
	movq	%rdi, %rbx
	movq	%rax, 16(%rdi)
	movq	104(%rdi), %rax
	leaq	40(%rax), %rdi
	call	_ZN4asio6detail28reactive_socket_service_base7destroyERNS1_24base_implementation_typeE@PLT
	movq	_ZTVN7asiopal13IAsyncChannelE@GOTPCREL(%rip), %rax
	movq	64(%rbx), %rbp
	addq	$16, %rax
	movq	%rax, 16(%rbx)
	testq	%rbp, %rbp
	je	.L323
	movq	__libc_single_threaded@GOTPCREL(%rip), %r12
	cmpb	$0, (%r12)
	je	.L324
	movl	8(%rbp), %eax
	leal	-1(%rax), %edx
	movl	%edx, 8(%rbp)
.L325:
	cmpl	$1, %eax
	je	.L342
.L323:
	movq	48(%rbx), %rbp
	testq	%rbp, %rbp
	je	.L330
	movq	__libc_single_threaded@GOTPCREL(%rip), %r12
	cmpb	$0, (%r12)
	je	.L331
	movl	8(%rbp), %eax
	leal	-1(%rax), %edx
	movl	%edx, 8(%rbp)
.L332:
	cmpl	$1, %eax
	je	.L343
.L330:
	movq	32(%rbx), %rdi
	testq	%rdi, %rdi
	je	.L321
	movq	__libc_single_threaded@GOTPCREL(%rip), %rax
	cmpb	$0, (%rax)
	je	.L338
	movl	12(%rdi), %eax
	leal	-1(%rax), %edx
	movl	%edx, 12(%rdi)
.L339:
	cmpl	$1, %eax
	je	.L344
.L321:
	popq	%rbx
	.cfi_remember_state
	.cfi_def_cfa_offset 24
	popq	%rbp
	.cfi_def_cfa_offset 16
	popq	%r12
	.cfi_def_cfa_offset 8
	ret
	.p2align 4,,10
	.p2align 3
.L342:
	.cfi_restore_state
	movq	0(%rbp), %rax
	movq	%rbp, %rdi
	call	*16(%rax)
	cmpb	$0, (%r12)
	je	.L327
	movl	12(%rbp), %eax
	leal	-1(%rax), %edx
	movl	%edx, 12(%rbp)
.L328:
	cmpl	$1, %eax
	jne	.L323
	movq	0(%rbp), %rax
	movq	%rbp, %rdi
	call	*24(%rax)
	jmp	.L323
	.p2align 4,,10
	.p2align 3
.L343:
	movq	0(%rbp), %rax
	movq	%rbp, %rdi
	call	*16(%rax)
	cmpb	$0, (%r12)
	je	.L334
	movl	12(%rbp), %eax
	leal	-1(%rax), %edx
	movl	%edx, 12(%rbp)
.L335:
	cmpl	$1, %eax
	jne	.L330
	movq	0(%rbp), %rax
	movq	%rbp, %rdi
	call	*24(%rax)
	jmp	.L330
	.p2align 4,,10
	.p2align 3
.L344:
	movq	(%rdi), %rax
	popq	%rbx
	.cfi_remember_state
	.cfi_def_cfa_offset 24
	popq	%rbp
	.cfi_def_cfa_offset 16
	popq	%r12
	.cfi_def_cfa_offset 8
	movq	24(%rax), %rax
	jmp	*%rax
	.p2align 4,,10
	.p2align 3
.L331:
	.cfi_restore_state
	movl	$-1, %eax
	lock xaddl	%eax, 8(%rbp)
	jmp	.L332
	.p2align 4,,10
	.p2align 3
.L338:
	movl	$-1, %eax
	lock xaddl	%eax, 12(%rdi)
	jmp	.L339
	.p2align 4,,10
	.p2align 3
.L324:
	movl	$-1, %eax
	lock xaddl	%eax, 8(%rbp)
	jmp	.L325
	.p2align 4,,10
	.p2align 3
.L327:
	movl	$-1, %eax
	lock xaddl	%eax, 12(%rbp)
	jmp	.L328
	.p2align 4,,10
	.p2align 3
.L334:
	movl	$-1, %eax
	lock xaddl	%eax, 12(%rbp)
	jmp	.L335
	.cfi_endproc
.LFE10534:
	.section	.gcc_except_table
.LLSDA10534:
	.byte	0xff
	.byte	0xff
	.byte	0x1
	.uleb128 .LLSDACSE10534-.LLSDACSB10534
.LLSDACSB10534:
.LLSDACSE10534:
	.section	.text._ZNSt23_Sp_counted_ptr_inplaceIN7asiopal13SocketChannelESaIS1_ELN9__gnu_cxx12_Lock_policyE2EE10_M_disposeEv,"axG",@progbits,_ZNSt23_Sp_counted_ptr_inplaceIN7asiopal13SocketChannelESaIS1_ELN9__gnu_cxx12_Lock_policyE2EE10_M_disposeEv,comdat
	.size	_ZNSt23_Sp_counted_ptr_inplaceIN7asiopal13SocketChannelESaIS1_ELN9__gnu_cxx12_Lock_policyE2EE10_M_disposeEv, .-_ZNSt23_Sp_counted_ptr_inplaceIN7asiopal13SocketChannelESaIS1_ELN9__gnu_cxx12_Lock_policyE2EE10_M_disposeEv
	.section	.text._ZNSt23_Sp_counted_ptr_inplaceIN8asiodnp318TCPServerIOHandler6ServerESaIS2_ELN9__gnu_cxx12_Lock_policyE2EE10_M_disposeEv,"axG",@progbits,_ZNSt23_Sp_counted_ptr_inplaceIN8asiodnp318TCPServerIOHandler6ServerESaIS2_ELN9__gnu_cxx12_Lock_policyE2EE10_M_disposeEv,comdat
	.align 2
	.p2align 4
	.weak	_ZNSt23_Sp_counted_ptr_inplaceIN8asiodnp318TCPServerIOHandler6ServerESaIS2_ELN9__gnu_cxx12_Lock_policyE2EE10_M_disposeEv
	.type	_ZNSt23_Sp_counted_ptr_inplaceIN8asiodnp318TCPServerIOHandler6ServerESaIS2_ELN9__gnu_cxx12_Lock_policyE2EE10_M_disposeEv, @function
_ZNSt23_Sp_counted_ptr_inplaceIN8asiodnp318TCPServerIOHandler6ServerESaIS2_ELN9__gnu_cxx12_Lock_policyE2EE10_M_disposeEv:
.LFB10527:
	.cfi_startproc
	.cfi_personality 0x9b,DW.ref.__gxx_personality_v0
	.cfi_lsda 0x1b,.LLSDA10527
	endbr64
	movq	_ZTVN8asiodnp318TCPServerIOHandler6ServerE@GOTPCREL(%rip), %rax
	pushq	%r12
	.cfi_def_cfa_offset 16
	.cfi_offset 12, -16
	pushq	%rbp
	.cfi_def_cfa_offset 24
	.cfi_offset 6, -24
	addq	$16, %rax
	pushq	%rbx
	.cfi_def_cfa_offset 32
	.cfi_offset 3, -32
	movq	%rdi, %rbx
	movq	%rax, 16(%rdi)
	movq	240(%rdi), %rax
	testq	%rax, %rax
	je	.L346
	leaq	224(%rdi), %rdi
	movl	$3, %edx
	movq	%rdi, %rsi
	call	*%rax
.L346:
	movq	_ZTVN7asiopal9TCPServerE@GOTPCREL(%rip), %rax
	leaq	152(%rbx), %rsi
	addq	$16, %rax
	movq	%rax, 16(%rbx)
	movq	176(%rbx), %rax
	leaq	40(%rax), %rdi
	call	_ZN4asio6detail28reactive_socket_service_base7destroyERNS1_24base_implementation_typeE@PLT
	movq	144(%rbx), %rax
	leaq	120(%rbx), %rsi
	leaq	40(%rax), %rdi
	call	_ZN4asio6detail28reactive_socket_service_base7destroyERNS1_24base_implementation_typeE@PLT
	movq	80(%rbx), %rbp
	testq	%rbp, %rbp
	je	.L348
	movq	__libc_single_threaded@GOTPCREL(%rip), %r12
	cmpb	$0, (%r12)
	je	.L349
	movl	8(%rbp), %eax
	leal	-1(%rax), %edx
	movl	%edx, 8(%rbp)
.L350:
	cmpl	$1, %eax
	je	.L377
.L348:
	movq	64(%rbx), %rbp
	testq	%rbp, %rbp
	je	.L355
	movq	__libc_single_threaded@GOTPCREL(%rip), %r12
	cmpb	$0, (%r12)
	je	.L356
	movl	8(%rbp), %eax
	leal	-1(%rax), %edx
	movl	%edx, 8(%rbp)
.L357:
	cmpl	$1, %eax
	je	.L378
.L355:
	movq	48(%rbx), %rbp
	testq	%rbp, %rbp
	je	.L362
	movq	__libc_single_threaded@GOTPCREL(%rip), %r12
	cmpb	$0, (%r12)
	je	.L363
	movl	8(%rbp), %eax
	leal	-1(%rax), %edx
	movl	%edx, 8(%rbp)
.L364:
	cmpl	$1, %eax
	je	.L379
.L362:
	movq	32(%rbx), %rdi
	testq	%rdi, %rdi
	je	.L345
	movq	__libc_single_threaded@GOTPCREL(%rip), %rax
	cmpb	$0, (%rax)
	je	.L370
	movl	12(%rdi), %eax
	leal	-1(%rax), %edx
	movl	%edx, 12(%rdi)
.L371:
	cmpl	$1, %eax
	je	.L380
.L345:
	popq	%rbx
	.cfi_remember_state
	.cfi_def_cfa_offset 24
	popq	%rbp
	.cfi_def_cfa_offset 16
	popq	%r12
	.cfi_def_cfa_offset 8
	ret
	.p2align 4,,10
	.p2align 3
.L377:
	.cfi_restore_state
	movq	0(%rbp), %rax
	movq	%rbp, %rdi
	call	*16(%rax)
	cmpb	$0, (%r12)
	je	.L352
	movl	12(%rbp), %eax
	leal	-1(%rax), %edx
	movl	%edx, 12(%rbp)
.L353:
	cmpl	$1, %eax
	jne	.L348
	movq	0(%rbp), %rax
	movq	%rbp, %rdi
	call	*24(%rax)
	jmp	.L348
	.p2align 4,,10
	.p2align 3
.L378:
	movq	0(%rbp), %rax
	movq	%rbp, %rdi
	call	*16(%rax)
	cmpb	$0, (%r12)
	je	.L359
	movl	12(%rbp), %eax
	leal	-1(%rax), %edx
	movl	%edx, 12(%rbp)
.L360:
	cmpl	$1, %eax
	jne	.L355
	movq	0(%rbp), %rax
	movq	%rbp, %rdi
	call	*24(%rax)
	jmp	.L355
	.p2align 4,,10
	.p2align 3
.L379:
	movq	0(%rbp), %rax
	movq	%rbp, %rdi
	call	*16(%rax)
	cmpb	$0, (%r12)
	je	.L366
	movl	12(%rbp), %eax
	leal	-1(%rax), %edx
	movl	%edx, 12(%rbp)
.L367:
	cmpl	$1, %eax
	jne	.L362
	movq	0(%rbp), %rax
	movq	%rbp, %rdi
	call	*24(%rax)
	jmp	.L362
	.p2align 4,,10
	.p2align 3
.L380:
	movq	(%rdi), %rax
	popq	%rbx
	.cfi_remember_state
	.cfi_def_cfa_offset 24
	popq	%rbp
	.cfi_def_cfa_offset 16
	popq	%r12
	.cfi_def_cfa_offset 8
	movq	24(%rax), %rax
	jmp	*%rax
	.p2align 4,,10
	.p2align 3
.L356:
	.cfi_restore_state
	movl	$-1, %eax
	lock xaddl	%eax, 8(%rbp)
	jmp	.L357
	.p2align 4,,10
	.p2align 3
.L363:
	movl	$-1, %eax
	lock xaddl	%eax, 8(%rbp)
	jmp	.L364
	.p2align 4,,10
	.p2align 3
.L370:
	movl	$-1, %eax
	lock xaddl	%eax, 12(%rdi)
	jmp	.L371
	.p2align 4,,10
	.p2align 3
.L349:
	movl	$-1, %eax
	lock xaddl	%eax, 8(%rbp)
	jmp	.L350
	.p2align 4,,10
	.p2align 3
.L352:
	movl	$-1, %eax
	lock xaddl	%eax, 12(%rbp)
	jmp	.L353
	.p2align 4,,10
	.p2align 3
.L359:
	movl	$-1, %eax
	lock xaddl	%eax, 12(%rbp)
	jmp	.L360
	.p2align 4,,10
	.p2align 3
.L366:
	movl	$-1, %eax
	lock xaddl	%eax, 12(%rbp)
	jmp	.L367
	.cfi_endproc
.LFE10527:
	.section	.gcc_except_table
.LLSDA10527:
	.byte	0xff
	.byte	0xff
	.byte	0x1
	.uleb128 .LLSDACSE10527-.LLSDACSB10527
.LLSDACSB10527:
.LLSDACSE10527:
	.section	.text._ZNSt23_Sp_counted_ptr_inplaceIN8asiodnp318TCPServerIOHandler6ServerESaIS2_ELN9__gnu_cxx12_Lock_policyE2EE10_M_disposeEv,"axG",@progbits,_ZNSt23_Sp_counted_ptr_inplaceIN8asiodnp318TCPServerIOHandler6ServerESaIS2_ELN9__gnu_cxx12_Lock_policyE2EE10_M_disposeEv,comdat
	.size	_ZNSt23_Sp_counted_ptr_inplaceIN8asiodnp318TCPServerIOHandler6ServerESaIS2_ELN9__gnu_cxx12_Lock_policyE2EE10_M_disposeEv, .-_ZNSt23_Sp_counted_ptr_inplaceIN8asiodnp318TCPServerIOHandler6ServerESaIS2_ELN9__gnu_cxx12_Lock_policyE2EE10_M_disposeEv
	.section	.text._ZN8asiodnp318TCPServerIOHandler6ServerD2Ev,"axG",@progbits,_ZN8asiodnp318TCPServerIOHandler6ServerD5Ev,comdat
	.align 2
	.p2align 4
	.weak	_ZN8asiodnp318TCPServerIOHandler6ServerD2Ev
	.type	_ZN8asiodnp318TCPServerIOHandler6ServerD2Ev, @function
_ZN8asiodnp318TCPServerIOHandler6ServerD2Ev:
.LFB10436:
	.cfi_startproc
	.cfi_personality 0x9b,DW.ref.__gxx_personality_v0
	.cfi_lsda 0x1b,.LLSDA10436
	endbr64
	movq	_ZTVN8asiodnp318TCPServerIOHandler6ServerE@GOTPCREL(%rip), %rax
	pushq	%r12
	.cfi_def_cfa_offset 16
	.cfi_offset 12, -16
	pushq	%rbp
	.cfi_def_cfa_offset 24
	.cfi_offset 6, -24
	addq	$16, %rax
	pushq	%rbx
	.cfi_def_cfa_offset 32
	.cfi_offset 3, -32
	movq	%rdi, %rbx
	movq	%rax, (%rdi)
	movq	224(%rdi), %rax
	testq	%rax, %rax
	je	.L382
	leaq	208(%rdi), %rdi
	movl	$3, %edx
	movq	%rdi, %rsi
	call	*%rax
.L382:
	movq	_ZTVN7asiopal9TCPServerE@GOTPCREL(%rip), %rax
	leaq	136(%rbx), %rsi
	addq	$16, %rax
	movq	%rax, (%rbx)
	movq	160(%rbx), %rax
	leaq	40(%rax), %rdi
	call	_ZN4asio6detail28reactive_socket_service_base7destroyERNS1_24base_implementation_typeE@PLT
	movq	128(%rbx), %rax
	leaq	104(%rbx), %rsi
	leaq	40(%rax), %rdi
	call	_ZN4asio6detail28reactive_socket_service_base7destroyERNS1_24base_implementation_typeE@PLT
	movq	64(%rbx), %rbp
	testq	%rbp, %rbp
	je	.L384
	movq	__libc_single_threaded@GOTPCREL(%rip), %r12
	cmpb	$0, (%r12)
	je	.L385
	movl	8(%rbp), %eax
	leal	-1(%rax), %edx
	movl	%edx, 8(%rbp)
.L386:
	cmpl	$1, %eax
	je	.L413
.L384:
	movq	48(%rbx), %rbp
	testq	%rbp, %rbp
	je	.L391
	movq	__libc_single_threaded@GOTPCREL(%rip), %r12
	cmpb	$0, (%r12)
	je	.L392
	movl	8(%rbp), %eax
	leal	-1(%rax), %edx
	movl	%edx, 8(%rbp)
.L393:
	cmpl	$1, %eax
	je	.L414
.L391:
	movq	32(%rbx), %rbp
	testq	%rbp, %rbp
	je	.L398
	movq	__libc_single_threaded@GOTPCREL(%rip), %r12
	cmpb	$0, (%r12)
	je	.L399
	movl	8(%rbp), %eax
	leal	-1(%rax), %edx
	movl	%edx, 8(%rbp)
.L400:
	cmpl	$1, %eax
	je	.L415
.L398:
	movq	16(%rbx), %rdi
	testq	%rdi, %rdi
	je	.L381
	movq	__libc_single_threaded@GOTPCREL(%rip), %rax
	cmpb	$0, (%rax)
	je	.L406
	movl	12(%rdi), %eax
	leal	-1(%rax), %edx
	movl	%edx, 12(%rdi)
.L407:
	cmpl	$1, %eax
	je	.L416
.L381:
	popq	%rbx
	.cfi_remember_state
	.cfi_def_cfa_offset 24
	popq	%rbp
	.cfi_def_cfa_offset 16
	popq	%r12
	.cfi_def_cfa_offset 8
	ret
	.p2align 4,,10
	.p2align 3
.L413:
	.cfi_restore_state
	movq	0(%rbp), %rax
	movq	%rbp, %rdi
	call	*16(%rax)
	cmpb	$0, (%r12)
	je	.L388
	movl	12(%rbp), %eax
	leal	-1(%rax), %edx
	movl	%edx, 12(%rbp)
.L389:
	cmpl	$1, %eax
	jne	.L384
	movq	0(%rbp), %rax
	movq	%rbp, %rdi
	call	*24(%rax)
	jmp	.L384
	.p2align 4,,10
	.p2align 3
.L414:
	movq	0(%rbp), %rax
	movq	%rbp, %rdi
	call	*16(%rax)
	cmpb	$0, (%r12)
	je	.L395
	movl	12(%rbp), %eax
	leal	-1(%rax), %edx
	movl	%edx, 12(%rbp)
.L396:
	cmpl	$1, %eax
	jne	.L391
	movq	0(%rbp), %rax
	movq	%rbp, %rdi
	call	*24(%rax)
	jmp	.L391
	.p2align 4,,10
	.p2align 3
.L415:
	movq	0(%rbp), %rax
	movq	%rbp, %rdi
	call	*16(%rax)
	cmpb	$0, (%r12)
	je	.L402
	movl	12(%rbp), %eax
	leal	-1(%rax), %edx
	movl	%edx, 12(%rbp)
.L403:
	cmpl	$1, %eax
	jne	.L398
	movq	0(%rbp), %rax
	movq	%rbp, %rdi
	call	*24(%rax)
	jmp	.L398
	.p2align 4,,10
	.p2align 3
.L416:
	movq	(%rdi), %rax
	popq	%rbx
	.cfi_remember_state
	.cfi_def_cfa_offset 24
	popq	%rbp
	.cfi_def_cfa_offset 16
	popq	%r12
	.cfi_def_cfa_offset 8
	movq	24(%rax), %rax
	jmp	*%rax
	.p2align 4,,10
	.p2align 3
.L392:
	.cfi_restore_state
	movl	$-1, %eax
	lock xaddl	%eax, 8(%rbp)
	jmp	.L393
	.p2align 4,,10
	.p2align 3
.L399:
	movl	$-1, %eax
	lock xaddl	%eax, 8(%rbp)
	jmp	.L400
	.p2align 4,,10
	.p2align 3
.L406:
	movl	$-1, %eax
	lock xaddl	%eax, 12(%rdi)
	jmp	.L407
	.p2align 4,,10
	.p2align 3
.L385:
	movl	$-1, %eax
	lock xaddl	%eax, 8(%rbp)
	jmp	.L386
	.p2align 4,,10
	.p2align 3
.L388:
	movl	$-1, %eax
	lock xaddl	%eax, 12(%rbp)
	jmp	.L389
	.p2align 4,,10
	.p2align 3
.L395:
	movl	$-1, %eax
	lock xaddl	%eax, 12(%rbp)
	jmp	.L396
	.p2align 4,,10
	.p2align 3
.L402:
	movl	$-1, %eax
	lock xaddl	%eax, 12(%rbp)
	jmp	.L403
	.cfi_endproc
.LFE10436:
	.section	.gcc_except_table
.LLSDA10436:
	.byte	0xff
	.byte	0xff
	.byte	0x1
	.uleb128 .LLSDACSE10436-.LLSDACSB10436
.LLSDACSB10436:
.LLSDACSE10436:
	.section	.text._ZN8asiodnp318TCPServerIOHandler6ServerD2Ev,"axG",@progbits,_ZN8asiodnp318TCPServerIOHandler6ServerD5Ev,comdat
	.size	_ZN8asiodnp318TCPServerIOHandler6ServerD2Ev, .-_ZN8asiodnp318TCPServerIOHandler6ServerD2Ev
	.weak	_ZN8asiodnp318TCPServerIOHandler6ServerD1Ev
	.set	_ZN8asiodnp318TCPServerIOHandler6ServerD1Ev,_ZN8asiodnp318TCPServerIOHandler6ServerD2Ev
	.section	.text._ZN8asiodnp318TCPServerIOHandler6ServerD0Ev,"axG",@progbits,_ZN8asiodnp318TCPServerIOHandler6ServerD5Ev,comdat
	.align 2
	.p2align 4
	.weak	_ZN8asiodnp318TCPServerIOHandler6ServerD0Ev
	.type	_ZN8asiodnp318TCPServerIOHandler6ServerD0Ev, @function
_ZN8asiodnp318TCPServerIOHandler6ServerD0Ev:
.LFB10438:
	.cfi_startproc
	.cfi_personality 0x9b,DW.ref.__gxx_personality_v0
	.cfi_lsda 0x1b,.LLSDA10438
	endbr64
	movq	_ZTVN8asiodnp318TCPServerIOHandler6ServerE@GOTPCREL(%rip), %rax
	pushq	%r12
	.cfi_def_cfa_offset 16
	.cfi_offset 12, -16
	pushq	%rbp
	.cfi_def_cfa_offset 24
	.cfi_offset 6, -24
	movq	%rdi, %rbp
	addq	$16, %rax
	pushq	%rbx
	.cfi_def_cfa_offset 32
	.cfi_offset 3, -32
	movq	%rax, (%rdi)
	movq	224(%rdi), %rax
	testq	%rax, %rax
	je	.L418
	leaq	208(%rdi), %rdi
	movl	$3, %edx
	movq	%rdi, %rsi
	call	*%rax
.L418:
	movq	_ZTVN7asiopal9TCPServerE@GOTPCREL(%rip), %rax
	leaq	136(%rbp), %rsi
	addq	$16, %rax
	movq	%rax, 0(%rbp)
	movq	160(%rbp), %rax
	leaq	40(%rax), %rdi
	call	_ZN4asio6detail28reactive_socket_service_base7destroyERNS1_24base_implementation_typeE@PLT
	movq	128(%rbp), %rax
	leaq	104(%rbp), %rsi
	leaq	40(%rax), %rdi
	call	_ZN4asio6detail28reactive_socket_service_base7destroyERNS1_24base_implementation_typeE@PLT
	movq	64(%rbp), %r12
	testq	%r12, %r12
	je	.L420
	movq	__libc_single_threaded@GOTPCREL(%rip), %rbx
	cmpb	$0, (%rbx)
	je	.L421
	movl	8(%r12), %eax
	leal	-1(%rax), %edx
	movl	%edx, 8(%r12)
.L422:
	cmpl	$1, %eax
	je	.L449
.L420:
	movq	48(%rbp), %r12
	testq	%r12, %r12
	je	.L427
	movq	__libc_single_threaded@GOTPCREL(%rip), %rbx
	cmpb	$0, (%rbx)
	je	.L428
	movl	8(%r12), %eax
	leal	-1(%rax), %edx
	movl	%edx, 8(%r12)
.L429:
	cmpl	$1, %eax
	je	.L450
.L427:
	movq	32(%rbp), %r12
	testq	%r12, %r12
	je	.L434
	movq	__libc_single_threaded@GOTPCREL(%rip), %rbx
	cmpb	$0, (%rbx)
	je	.L435
	movl	8(%r12), %eax
	leal	-1(%rax), %edx
	movl	%edx, 8(%r12)
.L436:
	cmpl	$1, %eax
	je	.L451
.L434:
	movq	16(%rbp), %rdi
	testq	%rdi, %rdi
	je	.L441
	movq	__libc_single_threaded@GOTPCREL(%rip), %rax
	cmpb	$0, (%rax)
	je	.L442
	movl	12(%rdi), %eax
	leal	-1(%rax), %edx
	movl	%edx, 12(%rdi)
.L443:
	cmpl	$1, %eax
	je	.L452
.L441:
	popq	%rbx
	.cfi_remember_state
	.cfi_def_cfa_offset 24
	movq	%rbp, %rdi
	movl	$240, %esi
	popq	%rbp
	.cfi_def_cfa_offset 16
	popq	%r12
	.cfi_def_cfa_offset 8
	jmp	_ZdlPvm@PLT
	.p2align 4,,10
	.p2align 3
.L449:
	.cfi_restore_state
	movq	(%r12), %rax
	movq	%r12, %rdi
	call	*16(%rax)
	cmpb	$0, (%rbx)
	je	.L424
	movl	12(%r12), %eax
	leal	-1(%rax), %edx
	movl	%edx, 12(%r12)
.L425:
	cmpl	$1, %eax
	jne	.L420
	movq	(%r12), %rax
	movq	%r12, %rdi
	call	*24(%rax)
	jmp	.L420
	.p2align 4,,10
	.p2align 3
.L450:
	movq	(%r12), %rax
	movq	%r12, %rdi
	call	*16(%rax)
	cmpb	$0, (%rbx)
	je	.L431
	movl	12(%r12), %eax
	leal	-1(%rax), %edx
	movl	%edx, 12(%r12)
.L432:
	cmpl	$1, %eax
	jne	.L427
	movq	(%r12), %rax
	movq	%r12, %rdi
	call	*24(%rax)
	jmp	.L427
	.p2align 4,,10
	.p2align 3
.L451:
	movq	(%r12), %rax
	movq	%r12, %rdi
	call	*16(%rax)
	cmpb	$0, (%rbx)
	je	.L438
	movl	12(%r12), %eax
	leal	-1(%rax), %edx
	movl	%edx, 12(%r12)
.L439:
	cmpl	$1, %eax
	jne	.L434
	movq	(%r12), %rax
	movq	%r12, %rdi
	call	*24(%rax)
	jmp	.L434
	.p2align 4,,10
	.p2align 3
.L452:
	movq	(%rdi), %rax
	call	*24(%rax)
	jmp	.L441
	.p2align 4,,10
	.p2align 3
.L428:
	movl	$-1, %eax
	lock xaddl	%eax, 8(%r12)
	jmp	.L429
	.p2align 4,,10
	.p2align 3
.L435:
	movl	$-1, %eax
	lock xaddl	%eax, 8(%r12)
	jmp	.L436
	.p2align 4,,10
	.p2align 3
.L442:
	movl	$-1, %eax
	lock xaddl	%eax, 12(%rdi)
	jmp	.L443
	.p2align 4,,10
	.p2align 3
.L421:
	movl	$-1, %eax
	lock xaddl	%eax, 8(%r12)
	jmp	.L422
	.p2align 4,,10
	.p2align 3
.L424:
	movl	$-1, %eax
	lock xaddl	%eax, 12(%r12)
	jmp	.L425
	.p2align 4,,10
	.p2align 3
.L431:
	movl	$-1, %eax
	lock xaddl	%eax, 12(%r12)
	jmp	.L432
	.p2align 4,,10
	.p2align 3
.L438:
	movl	$-1, %eax
	lock xaddl	%eax, 12(%r12)
	jmp	.L439
	.cfi_endproc
.LFE10438:
	.section	.gcc_except_table
.LLSDA10438:
	.byte	0xff
	.byte	0xff
	.byte	0x1
	.uleb128 .LLSDACSE10438-.LLSDACSB10438
.LLSDACSB10438:
.LLSDACSE10438:
	.section	.text._ZN8asiodnp318TCPServerIOHandler6ServerD0Ev,"axG",@progbits,_ZN8asiodnp318TCPServerIOHandler6ServerD5Ev,comdat
	.size	_ZN8asiodnp318TCPServerIOHandler6ServerD0Ev, .-_ZN8asiodnp318TCPServerIOHandler6ServerD0Ev
	.section	.text._ZN8asiodnp39IOHandlerD2Ev,"axG",@progbits,_ZN8asiodnp39IOHandlerD5Ev,comdat
	.align 2
	.p2align 4
	.weak	_ZN8asiodnp39IOHandlerD2Ev
	.type	_ZN8asiodnp39IOHandlerD2Ev, @function
_ZN8asiodnp39IOHandlerD2Ev:
.LFB7652:
	.cfi_startproc
	endbr64
	pushq	%r15
	.cfi_def_cfa_offset 16
	.cfi_offset 15, -16
	pushq	%r14
	.cfi_def_cfa_offset 24
	.cfi_offset 14, -24
	pushq	%r13
	.cfi_def_cfa_offset 32
	.cfi_offset 13, -32
	pushq	%r12
	.cfi_def_cfa_offset 40
	.cfi_offset 12, -40
	movq	%rdi, %r12
	pushq	%rbp
	.cfi_def_cfa_offset 48
	.cfi_offset 6, -48
	pushq	%rbx
	.cfi_def_cfa_offset 56
	.cfi_offset 3, -56
	subq	$56, %rsp
	.cfi_def_cfa_offset 112
	movq	_ZTVN8asiodnp39IOHandlerE@GOTPCREL(%rip), %rax
	leaq	104(%rax), %rdx
	addq	$16, %rax
	movq	%rax, %xmm0
	movq	_ZTVN8opendnp317MultidropTaskLockE@GOTPCREL(%rip), %rax
	movq	%rdx, %xmm1
	punpcklqdq	%xmm1, %xmm0
	addq	$16, %rax
	movups	%xmm0, (%rdi)
	movq	%rax, 648(%rdi)
	movq	712(%rdi), %rdi
	testq	%rdi, %rdi
	je	.L454
	movq	784(%r12), %rax
	movq	752(%r12), %rbx
	leaq	8(%rax), %rbp
	cmpq	%rbx, %rbp
	jbe	.L455
	.p2align 4,,10
	.p2align 3
.L456:
	movq	(%rbx), %rdi
	movl	$512, %esi
	addq	$8, %rbx
	call	_ZdlPvm@PLT
	cmpq	%rbx, %rbp
	ja	.L456
	movq	712(%r12), %rdi
.L455:
	movq	720(%r12), %rax
	leaq	0(,%rax,8), %rsi
	call	_ZdlPvm@PLT
.L454:
	movq	680(%r12), %rbx
	testq	%rbx, %rbx
	je	.L460
.L457:
	movq	24(%rbx), %rdi
	call	_ZNSt8_Rb_treeIPN8opendnp317IScheduleCallbackES2_St9_IdentityIS2_ESt4lessIS2_ESaIS2_EE8_M_eraseEPSt13_Rb_tree_nodeIS2_E.isra.0
	movq	%rbx, %rdi
	movq	16(%rbx), %rbx
	movl	$40, %esi
	call	_ZdlPvm@PLT
	testq	%rbx, %rbx
	jne	.L457
.L460:
	movq	640(%r12), %rbp
	testq	%rbp, %rbp
	je	.L461
	movq	__libc_single_threaded@GOTPCREL(%rip), %r15
	cmpb	$0, (%r15)
	je	.L462
	movl	8(%rbp), %eax
	leal	-1(%rax), %edx
	movl	%edx, 8(%rbp)
.L463:
	cmpl	$1, %eax
	je	.L581
.L461:
	movq	240(%r12), %rbp
	testq	%rbp, %rbp
	je	.L467
	movq	__libc_single_threaded@GOTPCREL(%rip), %r15
	cmpb	$0, (%r15)
	je	.L468
	movl	8(%rbp), %eax
	leal	-1(%rax), %edx
	movl	%edx, 8(%rbp)
.L469:
	cmpl	$1, %eax
	je	.L582
.L467:
	movq	224(%r12), %rbp
	testq	%rbp, %rbp
	je	.L474
	movq	__libc_single_threaded@GOTPCREL(%rip), %r15
	cmpb	$0, (%r15)
	je	.L475
	movl	8(%rbp), %eax
	leal	-1(%rax), %edx
	movl	%edx, 8(%rbp)
.L476:
	cmpl	$1, %eax
	je	.L583
.L474:
	movq	184(%r12), %rax
	movq	168(%r12), %rsi
	movq	152(%r12), %rbx
	movq	%rax, 16(%rsp)
	movq	192(%r12), %rax
	movq	%rsi, 32(%rsp)
	movq	176(%r12), %rsi
	movq	%rax, (%rsp)
	movq	208(%r12), %rax
	leaq	8(%rsi), %rbp
	movq	%rsi, 40(%rsp)
	movq	%rax, 24(%rsp)
	cmpq	%rbp, %rax
	jbe	.L491
	.p2align 4,,10
	.p2align 3
.L480:
	movq	0(%rbp), %r13
	leaq	512(%r13), %r14
	jmp	.L490
	.p2align 4,,10
	.p2align 3
.L484:
	addq	$32, %r13
	cmpq	%r13, %r14
	je	.L584
.L490:
	movq	24(%r13), %rdi
	testq	%rdi, %rdi
	je	.L484
	movq	__libc_single_threaded@GOTPCREL(%rip), %r15
	cmpb	$0, (%r15)
	je	.L485
	movl	8(%rdi), %edx
	leal	-1(%rdx), %r8d
	movl	%r8d, 8(%rdi)
.L486:
	cmpl	$1, %edx
	jne	.L484
	movq	(%rdi), %rdx
	movq	%rdi, 8(%rsp)
	call	*16(%rdx)
	cmpb	$0, (%r15)
	movq	8(%rsp), %rdi
	je	.L488
	movl	12(%rdi), %edx
	leal	-1(%rdx), %ecx
	movl	%ecx, 12(%rdi)
.L489:
	cmpl	$1, %edx
	jne	.L484
	movq	(%rdi), %rdx
	addq	$32, %r13
	call	*24(%rdx)
	cmpq	%r13, %r14
	jne	.L490
	.p2align 4,,10
	.p2align 3
.L584:
	addq	$8, %rbp
	cmpq	%rbp, 24(%rsp)
	ja	.L480
.L491:
	movq	40(%rsp), %rcx
	cmpq	%rcx, 24(%rsp)
	je	.L580
	cmpq	32(%rsp), %rbx
	jne	.L495
	jmp	.L505
	.p2align 4,,10
	.p2align 3
.L499:
	addq	$32, %rbx
	cmpq	%rbx, 32(%rsp)
	je	.L505
.L495:
	movq	24(%rbx), %rbp
	testq	%rbp, %rbp
	je	.L499
	movq	__libc_single_threaded@GOTPCREL(%rip), %r15
	cmpb	$0, (%r15)
	je	.L500
	movl	8(%rbp), %eax
	leal	-1(%rax), %edx
	movl	%edx, 8(%rbp)
.L501:
	cmpl	$1, %eax
	jne	.L499
	movq	0(%rbp), %rax
	movq	%rbp, %rdi
	call	*16(%rax)
	cmpb	$0, (%r15)
	je	.L503
	movl	12(%rbp), %eax
	leal	-1(%rax), %edx
	movl	%edx, 12(%rbp)
.L504:
	cmpl	$1, %eax
	jne	.L499
	movq	0(%rbp), %rax
	movq	%rbp, %rdi
	addq	$32, %rbx
	call	*24(%rax)
	cmpq	%rbx, 32(%rsp)
	jne	.L495
.L505:
	movq	(%rsp), %rcx
	cmpq	%rcx, 16(%rsp)
	jne	.L496
	jmp	.L497
	.p2align 4,,10
	.p2align 3
.L507:
	addq	$32, (%rsp)
	movq	(%rsp), %rax
	cmpq	%rax, 16(%rsp)
	je	.L497
.L496:
	movq	(%rsp), %rax
	movq	24(%rax), %rbp
	testq	%rbp, %rbp
	je	.L507
	movq	__libc_single_threaded@GOTPCREL(%rip), %r15
	cmpb	$0, (%r15)
	je	.L508
	movl	8(%rbp), %eax
	leal	-1(%rax), %edx
	movl	%edx, 8(%rbp)
.L509:
	cmpl	$1, %eax
	jne	.L507
	movq	0(%rbp), %rax
	movq	%rbp, %rdi
	call	*16(%rax)
	cmpb	$0, (%r15)
	je	.L511
	movl	12(%rbp), %eax
	leal	-1(%rax), %edx
	movl	%edx, 12(%rbp)
.L512:
	cmpl	$1, %eax
	jne	.L507
	movq	0(%rbp), %rax
	movq	%rbp, %rdi
	call	*24(%rax)
	addq	$32, (%rsp)
	movq	(%rsp), %rax
	cmpq	%rax, 16(%rsp)
	jne	.L496
	.p2align 4,,10
	.p2align 3
.L497:
	movq	136(%r12), %rdi
	testq	%rdi, %rdi
	je	.L494
	movq	208(%r12), %rax
	movq	176(%r12), %rbx
	leaq	8(%rax), %rbp
	cmpq	%rbx, %rbp
	jbe	.L520
	.p2align 4,,10
	.p2align 3
.L521:
	movq	(%rbx), %rdi
	movl	$512, %esi
	addq	$8, %rbx
	call	_ZdlPvm@PLT
	cmpq	%rbx, %rbp
	ja	.L521
	movq	136(%r12), %rdi
.L520:
	movq	144(%r12), %rax
	leaq	0(,%rax,8), %rsi
	call	_ZdlPvm@PLT
.L494:
	movq	120(%r12), %rbx
	movq	112(%r12), %rbp
	cmpq	%rbp, %rbx
	jne	.L530
	jmp	.L522
	.p2align 4,,10
	.p2align 3
.L524:
	addq	$24, %rbp
	cmpq	%rbp, %rbx
	je	.L585
.L530:
	movq	16(%rbp), %r13
	testq	%r13, %r13
	je	.L524
	movq	__libc_single_threaded@GOTPCREL(%rip), %r15
	cmpb	$0, (%r15)
	je	.L525
	movl	8(%r13), %eax
	leal	-1(%rax), %edx
	movl	%edx, 8(%r13)
.L526:
	cmpl	$1, %eax
	jne	.L524
	movq	0(%r13), %rax
	movq	%r13, %rdi
	call	*16(%rax)
	cmpb	$0, (%r15)
	je	.L528
	movl	12(%r13), %eax
	leal	-1(%rax), %edx
	movl	%edx, 12(%r13)
.L529:
	cmpl	$1, %eax
	jne	.L524
	movq	0(%r13), %rax
	addq	$24, %rbp
	movq	%r13, %rdi
	call	*24(%rax)
	cmpq	%rbp, %rbx
	jne	.L530
	.p2align 4,,10
	.p2align 3
.L585:
	movq	112(%r12), %rbp
.L522:
	testq	%rbp, %rbp
	je	.L531
	movq	128(%r12), %rsi
	movq	%rbp, %rdi
	subq	%rbp, %rsi
	call	_ZdlPvm@PLT
.L531:
	movq	72(%r12), %rbp
	testq	%rbp, %rbp
	je	.L533
	movq	__libc_single_threaded@GOTPCREL(%rip), %r15
	cmpb	$0, (%r15)
	je	.L534
	movl	8(%rbp), %eax
	leal	-1(%rax), %edx
	movl	%edx, 8(%rbp)
.L535:
	cmpl	$1, %eax
	je	.L586
.L533:
	movq	56(%r12), %rbp
	testq	%rbp, %rbp
	je	.L540
	movq	__libc_single_threaded@GOTPCREL(%rip), %r15
	cmpb	$0, (%r15)
	je	.L541
	movl	8(%rbp), %eax
	leal	-1(%rax), %edx
	movl	%edx, 8(%rbp)
.L542:
	cmpl	$1, %eax
	je	.L587
.L540:
	movq	40(%r12), %rbp
	testq	%rbp, %rbp
	je	.L547
	movq	__libc_single_threaded@GOTPCREL(%rip), %r15
	cmpb	$0, (%r15)
	je	.L548
	movl	8(%rbp), %eax
	leal	-1(%rax), %edx
	movl	%edx, 8(%rbp)
.L549:
	cmpl	$1, %eax
	je	.L588
.L547:
	movq	24(%r12), %rdi
	testq	%rdi, %rdi
	je	.L453
	movq	__libc_single_threaded@GOTPCREL(%rip), %rax
	cmpb	$0, (%rax)
	je	.L555
	movl	12(%rdi), %eax
	leal	-1(%rax), %edx
	movl	%edx, 12(%rdi)
.L556:
	cmpl	$1, %eax
	je	.L589
.L453:
	addq	$56, %rsp
	.cfi_remember_state
	.cfi_def_cfa_offset 56
	popq	%rbx
	.cfi_def_cfa_offset 48
	popq	%rbp
	.cfi_def_cfa_offset 40
	popq	%r12
	.cfi_def_cfa_offset 32
	popq	%r13
	.cfi_def_cfa_offset 24
	popq	%r14
	.cfi_def_cfa_offset 16
	popq	%r15
	.cfi_def_cfa_offset 8
	ret
	.p2align 4,,10
	.p2align 3
.L485:
	.cfi_restore_state
	movl	$-1, %edx
	lock xaddl	%edx, 8(%rdi)
	jmp	.L486
.L591:
	movq	0(%rbp), %rax
	movq	%rbp, %rdi
	call	*16(%rax)
	cmpb	$0, (%r15)
	je	.L518
	movl	12(%rbp), %eax
	leal	-1(%rax), %edx
	movl	%edx, 12(%rbp)
.L519:
	cmpl	$1, %eax
	je	.L590
	.p2align 4,,10
	.p2align 3
.L514:
	addq	$32, %rbx
.L580:
	cmpq	%rbx, 16(%rsp)
	je	.L497
	movq	24(%rbx), %rbp
	testq	%rbp, %rbp
	je	.L514
	movq	__libc_single_threaded@GOTPCREL(%rip), %r15
	cmpb	$0, (%r15)
	je	.L515
	movl	8(%rbp), %eax
	leal	-1(%rax), %edx
	movl	%edx, 8(%rbp)
.L516:
	cmpl	$1, %eax
	jne	.L514
	jmp	.L591
	.p2align 4,,10
	.p2align 3
.L488:
	movl	$-1, %edx
	lock xaddl	%edx, 12(%rdi)
	jmp	.L489
	.p2align 4,,10
	.p2align 3
.L525:
	movl	$-1, %eax
	lock xaddl	%eax, 8(%r13)
	jmp	.L526
	.p2align 4,,10
	.p2align 3
.L500:
	movl	$-1, %eax
	lock xaddl	%eax, 8(%rbp)
	jmp	.L501
	.p2align 4,,10
	.p2align 3
.L508:
	movl	$-1, %eax
	lock xaddl	%eax, 8(%rbp)
	jmp	.L509
.L528:
	movl	$-1, %eax
	lock xaddl	%eax, 12(%r13)
	jmp	.L529
.L515:
	movl	$-1, %eax
	lock xaddl	%eax, 8(%rbp)
	jmp	.L516
.L503:
	movl	$-1, %eax
	lock xaddl	%eax, 12(%rbp)
	jmp	.L504
.L511:
	movl	$-1, %eax
	lock xaddl	%eax, 12(%rbp)
	jmp	.L512
.L586:
	movq	0(%rbp), %rax
	movq	%rbp, %rdi
	call	*16(%rax)
	cmpb	$0, (%r15)
	je	.L537
	movl	12(%rbp), %eax
	leal	-1(%rax), %edx
	movl	%edx, 12(%rbp)
.L538:
	cmpl	$1, %eax
	jne	.L533
	movq	0(%rbp), %rax
	movq	%rbp, %rdi
	call	*24(%rax)
	jmp	.L533
.L587:
	movq	0(%rbp), %rax
	movq	%rbp, %rdi
	call	*16(%rax)
	cmpb	$0, (%r15)
	je	.L544
	movl	12(%rbp), %eax
	leal	-1(%rax), %edx
	movl	%edx, 12(%rbp)
.L545:
	cmpl	$1, %eax
	jne	.L540
	movq	0(%rbp), %rax
	movq	%rbp, %rdi
	call	*24(%rax)
	jmp	.L540
.L588:
	movq	0(%rbp), %rax
	movq	%rbp, %rdi
	call	*16(%rax)
	cmpb	$0, (%r15)
	je	.L551
	movl	12(%rbp), %eax
	leal	-1(%rax), %edx
	movl	%edx, 12(%rbp)
.L552:
	cmpl	$1, %eax
	jne	.L547
	movq	0(%rbp), %rax
	movq	%rbp, %rdi
	call	*24(%rax)
	jmp	.L547
.L589:
	movq	(%rdi), %rax
	movq	24(%rax), %rax
	addq	$56, %rsp
	.cfi_remember_state
	.cfi_def_cfa_offset 56
	popq	%rbx
	.cfi_def_cfa_offset 48
	popq	%rbp
	.cfi_def_cfa_offset 40
	popq	%r12
	.cfi_def_cfa_offset 32
	popq	%r13
	.cfi_def_cfa_offset 24
	popq	%r14
	.cfi_def_cfa_offset 16
	popq	%r15
	.cfi_def_cfa_offset 8
	jmp	*%rax
.L581:
	.cfi_restore_state
	movq	0(%rbp), %rax
	movq	%rbp, %rdi
	call	*16(%rax)
	cmpb	$0, (%r15)
	je	.L464
	movl	12(%rbp), %eax
	leal	-1(%rax), %edx
	movl	%edx, 12(%rbp)
.L465:
	cmpl	$1, %eax
	jne	.L461
	movq	0(%rbp), %rax
	movq	%rbp, %rdi
	call	*24(%rax)
	jmp	.L461
.L582:
	movq	0(%rbp), %rax
	movq	%rbp, %rdi
	call	*16(%rax)
	cmpb	$0, (%r15)
	je	.L471
	movl	12(%rbp), %eax
	leal	-1(%rax), %edx
	movl	%edx, 12(%rbp)
.L472:
	cmpl	$1, %eax
	jne	.L467
	movq	0(%rbp), %rax
	movq	%rbp, %rdi
	call	*24(%rax)
	jmp	.L467
.L583:
	movq	0(%rbp), %rax
	movq	%rbp, %rdi
	call	*16(%rax)
	cmpb	$0, (%r15)
	je	.L478
	movl	12(%rbp), %eax
	leal	-1(%rax), %edx
	movl	%edx, 12(%rbp)
.L479:
	cmpl	$1, %eax
	jne	.L474
	movq	0(%rbp), %rax
	movq	%rbp, %rdi
	call	*24(%rax)
	jmp	.L474
.L462:
	movl	$-1, %eax
	lock xaddl	%eax, 8(%rbp)
	jmp	.L463
.L534:
	movl	$-1, %eax
	lock xaddl	%eax, 8(%rbp)
	jmp	.L535
.L541:
	movl	$-1, %eax
	lock xaddl	%eax, 8(%rbp)
	jmp	.L542
.L555:
	movl	$-1, %eax
	lock xaddl	%eax, 12(%rdi)
	jmp	.L556
.L548:
	movl	$-1, %eax
	lock xaddl	%eax, 8(%rbp)
	jmp	.L549
.L468:
	movl	$-1, %eax
	lock xaddl	%eax, 8(%rbp)
	jmp	.L469
.L475:
	movl	$-1, %eax
	lock xaddl	%eax, 8(%rbp)
	jmp	.L476
.L590:
	movq	0(%rbp), %rax
	movq	%rbp, %rdi
	call	*24(%rax)
	jmp	.L514
.L518:
	movl	$-1, %eax
	lock xaddl	%eax, 12(%rbp)
	jmp	.L519
.L537:
	movl	$-1, %eax
	lock xaddl	%eax, 12(%rbp)
	jmp	.L538
.L464:
	movl	$-1, %eax
	lock xaddl	%eax, 12(%rbp)
	jmp	.L465
.L471:
	movl	$-1, %eax
	lock xaddl	%eax, 12(%rbp)
	jmp	.L472
.L478:
	movl	$-1, %eax
	lock xaddl	%eax, 12(%rbp)
	jmp	.L479
.L544:
	movl	$-1, %eax
	lock xaddl	%eax, 12(%rbp)
	jmp	.L545
.L551:
	movl	$-1, %eax
	lock xaddl	%eax, 12(%rbp)
	jmp	.L552
	.cfi_endproc
.LFE7652:
	.size	_ZN8asiodnp39IOHandlerD2Ev, .-_ZN8asiodnp39IOHandlerD2Ev
	.set	.LTHUNK0,_ZN8asiodnp39IOHandlerD2Ev
	.p2align 4
	.weak	_ZThn8_N8asiodnp39IOHandlerD1Ev
	.type	_ZThn8_N8asiodnp39IOHandlerD1Ev, @function
_ZThn8_N8asiodnp39IOHandlerD1Ev:
.LFB10666:
	.cfi_startproc
	endbr64
	subq	$8, %rdi
	jmp	.LTHUNK0
	.cfi_endproc
.LFE10666:
	.size	_ZThn8_N8asiodnp39IOHandlerD1Ev, .-_ZThn8_N8asiodnp39IOHandlerD1Ev
	.weak	_ZN8asiodnp39IOHandlerD1Ev
	.set	_ZN8asiodnp39IOHandlerD1Ev,_ZN8asiodnp39IOHandlerD2Ev
	.section	.text._ZN8asiodnp318TCPServerIOHandlerD2Ev,"axG",@progbits,_ZN8asiodnp318TCPServerIOHandlerD5Ev,comdat
	.align 2
	.p2align 4
	.weak	_ZN8asiodnp318TCPServerIOHandlerD2Ev
	.type	_ZN8asiodnp318TCPServerIOHandlerD2Ev, @function
_ZN8asiodnp318TCPServerIOHandlerD2Ev:
.LFB10432:
	.cfi_startproc
	endbr64
	movq	_ZTVN8asiodnp318TCPServerIOHandlerE@GOTPCREL(%rip), %rax
	pushq	%r12
	.cfi_def_cfa_offset 16
	.cfi_offset 12, -16
	pushq	%rbp
	.cfi_def_cfa_offset 24
	.cfi_offset 6, -24
	movq	%rdi, %rbp
	leaq	104(%rax), %rdx
	addq	$16, %rax
	pushq	%rbx
	.cfi_def_cfa_offset 32
	.cfi_offset 3, -32
	movq	864(%rdi), %r12
	movq	%rax, %xmm0
	movq	%rdx, %xmm1
	punpcklqdq	%xmm1, %xmm0
	movups	%xmm0, (%rdi)
	testq	%r12, %r12
	je	.L594
	movq	__libc_single_threaded@GOTPCREL(%rip), %rbx
	cmpb	$0, (%rbx)
	je	.L595
	movl	8(%r12), %eax
	leal	-1(%rax), %edx
	movl	%edx, 8(%r12)
.L596:
	cmpl	$1, %eax
	je	.L609
.L594:
	movq	816(%rbp), %rdi
	leaq	832(%rbp), %rax
	cmpq	%rax, %rdi
	je	.L600
	movq	832(%rbp), %rax
	leaq	1(%rax), %rsi
	call	_ZdlPvm@PLT
.L600:
	movq	808(%rbp), %r12
	testq	%r12, %r12
	je	.L602
	movq	__libc_single_threaded@GOTPCREL(%rip), %rbx
	cmpb	$0, (%rbx)
	je	.L603
	movl	8(%r12), %eax
	leal	-1(%rax), %edx
	movl	%edx, 8(%r12)
.L604:
	cmpl	$1, %eax
	je	.L610
.L602:
	popq	%rbx
	.cfi_remember_state
	.cfi_def_cfa_offset 24
	movq	%rbp, %rdi
	popq	%rbp
	.cfi_def_cfa_offset 16
	popq	%r12
	.cfi_def_cfa_offset 8
	jmp	_ZN8asiodnp39IOHandlerD2Ev@PLT
	.p2align 4,,10
	.p2align 3
.L609:
	.cfi_restore_state
	movq	(%r12), %rax
	movq	%r12, %rdi
	call	*16(%rax)
	cmpb	$0, (%rbx)
	je	.L598
	movl	12(%r12), %eax
	leal	-1(%rax), %edx
	movl	%edx, 12(%r12)
.L599:
	cmpl	$1, %eax
	jne	.L594
	movq	(%r12), %rax
	movq	%r12, %rdi
	call	*24(%rax)
	jmp	.L594
	.p2align 4,,10
	.p2align 3
.L610:
	movq	(%r12), %rax
	movq	%r12, %rdi
	call	*16(%rax)
	cmpb	$0, (%rbx)
	je	.L606
	movl	12(%r12), %eax
	leal	-1(%rax), %edx
	movl	%edx, 12(%r12)
.L607:
	cmpl	$1, %eax
	jne	.L602
	movq	(%r12), %rax
	movq	%r12, %rdi
	call	*24(%rax)
	jmp	.L602
	.p2align 4,,10
	.p2align 3
.L603:
	movl	$-1, %eax
	lock xaddl	%eax, 8(%r12)
	jmp	.L604
	.p2align 4,,10
	.p2align 3
.L595:
	movl	$-1, %eax
	lock xaddl	%eax, 8(%r12)
	jmp	.L596
	.p2align 4,,10
	.p2align 3
.L598:
	movl	$-1, %eax
	lock xaddl	%eax, 12(%r12)
	jmp	.L599
	.p2align 4,,10
	.p2align 3
.L606:
	movl	$-1, %eax
	lock xaddl	%eax, 12(%r12)
	jmp	.L607
	.cfi_endproc
.LFE10432:
	.size	_ZN8asiodnp318TCPServerIOHandlerD2Ev, .-_ZN8asiodnp318TCPServerIOHandlerD2Ev
	.weak	_ZN8asiodnp318TCPServerIOHandlerD1Ev
	.set	_ZN8asiodnp318TCPServerIOHandlerD1Ev,_ZN8asiodnp318TCPServerIOHandlerD2Ev
	.section	.text._ZN8asiodnp318TCPServerIOHandlerD0Ev,"axG",@progbits,_ZN8asiodnp318TCPServerIOHandlerD5Ev,comdat
	.align 2
	.p2align 4
	.weak	_ZN8asiodnp318TCPServerIOHandlerD0Ev
	.type	_ZN8asiodnp318TCPServerIOHandlerD0Ev, @function
_ZN8asiodnp318TCPServerIOHandlerD0Ev:
.LFB10434:
	.cfi_startproc
	endbr64
	movq	_ZTVN8asiodnp318TCPServerIOHandlerE@GOTPCREL(%rip), %rax
	pushq	%r12
	.cfi_def_cfa_offset 16
	.cfi_offset 12, -16
	pushq	%rbp
	.cfi_def_cfa_offset 24
	.cfi_offset 6, -24
	movq	%rdi, %rbp
	leaq	104(%rax), %rdx
	addq	$16, %rax
	pushq	%rbx
	.cfi_def_cfa_offset 32
	.cfi_offset 3, -32
	movq	864(%rdi), %r12
	movq	%rax, %xmm0
	movq	%rdx, %xmm1
	punpcklqdq	%xmm1, %xmm0
	movups	%xmm0, (%rdi)
	testq	%r12, %r12
	je	.L613
	movq	__libc_single_threaded@GOTPCREL(%rip), %rbx
	cmpb	$0, (%rbx)
	je	.L614
	movl	8(%r12), %eax
	leal	-1(%rax), %edx
	movl	%edx, 8(%r12)
.L615:
	cmpl	$1, %eax
	je	.L628
.L613:
	movq	816(%rbp), %rdi
	leaq	832(%rbp), %rax
	cmpq	%rax, %rdi
	je	.L619
	movq	832(%rbp), %rax
	leaq	1(%rax), %rsi
	call	_ZdlPvm@PLT
.L619:
	movq	808(%rbp), %r12
	testq	%r12, %r12
	je	.L621
	movq	__libc_single_threaded@GOTPCREL(%rip), %rbx
	cmpb	$0, (%rbx)
	je	.L622
	movl	8(%r12), %eax
	leal	-1(%rax), %edx
	movl	%edx, 8(%r12)
.L623:
	cmpl	$1, %eax
	je	.L629
.L621:
	movq	%rbp, %rdi
	call	_ZN8asiodnp39IOHandlerD2Ev@PLT
	popq	%rbx
	.cfi_remember_state
	.cfi_def_cfa_offset 24
	movq	%rbp, %rdi
	movl	$872, %esi
	popq	%rbp
	.cfi_def_cfa_offset 16
	popq	%r12
	.cfi_def_cfa_offset 8
	jmp	_ZdlPvm@PLT
	.p2align 4,,10
	.p2align 3
.L628:
	.cfi_restore_state
	movq	(%r12), %rax
	movq	%r12, %rdi
	call	*16(%rax)
	cmpb	$0, (%rbx)
	je	.L617
	movl	12(%r12), %eax
	leal	-1(%rax), %edx
	movl	%edx, 12(%r12)
.L618:
	cmpl	$1, %eax
	jne	.L613
	movq	(%r12), %rax
	movq	%r12, %rdi
	call	*24(%rax)
	jmp	.L613
	.p2align 4,,10
	.p2align 3
.L629:
	movq	(%r12), %rax
	movq	%r12, %rdi
	call	*16(%rax)
	cmpb	$0, (%rbx)
	je	.L625
	movl	12(%r12), %eax
	leal	-1(%rax), %edx
	movl	%edx, 12(%r12)
.L626:
	cmpl	$1, %eax
	jne	.L621
	movq	(%r12), %rax
	movq	%r12, %rdi
	call	*24(%rax)
	jmp	.L621
	.p2align 4,,10
	.p2align 3
.L622:
	movl	$-1, %eax
	lock xaddl	%eax, 8(%r12)
	jmp	.L623
	.p2align 4,,10
	.p2align 3
.L614:
	movl	$-1, %eax
	lock xaddl	%eax, 8(%r12)
	jmp	.L615
	.p2align 4,,10
	.p2align 3
.L617:
	movl	$-1, %eax
	lock xaddl	%eax, 12(%r12)
	jmp	.L618
	.p2align 4,,10
	.p2align 3
.L625:
	movl	$-1, %eax
	lock xaddl	%eax, 12(%r12)
	jmp	.L626
	.cfi_endproc
.LFE10434:
	.size	_ZN8asiodnp318TCPServerIOHandlerD0Ev, .-_ZN8asiodnp318TCPServerIOHandlerD0Ev
	.p2align 4
	.weak	_ZThn8_N8asiodnp318TCPServerIOHandlerD0Ev
	.type	_ZThn8_N8asiodnp318TCPServerIOHandlerD0Ev, @function
_ZThn8_N8asiodnp318TCPServerIOHandlerD0Ev:
.LFB10650:
	.cfi_startproc
	endbr64
	pushq	%r13
	.cfi_def_cfa_offset 16
	.cfi_offset 13, -16
	pushq	%r12
	.cfi_def_cfa_offset 24
	.cfi_offset 12, -24
	leaq	-8(%rdi), %r12
	pushq	%rbp
	.cfi_def_cfa_offset 32
	.cfi_offset 6, -32
	pushq	%rbx
	.cfi_def_cfa_offset 40
	.cfi_offset 3, -40
	movq	%rdi, %rbx
	subq	$8, %rsp
	.cfi_def_cfa_offset 48
	movq	_ZTVN8asiodnp318TCPServerIOHandlerE@GOTPCREL(%rip), %rax
	movq	856(%rdi), %rbp
	leaq	104(%rax), %rdx
	addq	$16, %rax
	movq	%rax, %xmm0
	movq	%rdx, %xmm1
	punpcklqdq	%xmm1, %xmm0
	movups	%xmm0, -8(%rdi)
	testq	%rbp, %rbp
	je	.L632
	movq	__libc_single_threaded@GOTPCREL(%rip), %r13
	cmpb	$0, 0(%r13)
	je	.L633
	movl	8(%rbp), %eax
	leal	-1(%rax), %edx
	movl	%edx, 8(%rbp)
.L634:
	cmpl	$1, %eax
	je	.L647
.L632:
	movq	808(%rbx), %rdi
	leaq	824(%rbx), %rax
	cmpq	%rax, %rdi
	je	.L638
	movq	824(%rbx), %rax
	leaq	1(%rax), %rsi
	call	_ZdlPvm@PLT
.L638:
	movq	800(%rbx), %rbp
	testq	%rbp, %rbp
	je	.L640
	movq	__libc_single_threaded@GOTPCREL(%rip), %r13
	cmpb	$0, 0(%r13)
	je	.L641
	movl	8(%rbp), %eax
	leal	-1(%rax), %edx
	movl	%edx, 8(%rbp)
.L642:
	cmpl	$1, %eax
	je	.L648
.L640:
	movq	%r12, %rdi
	call	_ZN8asiodnp39IOHandlerD2Ev@PLT
	addq	$8, %rsp
	.cfi_remember_state
	.cfi_def_cfa_offset 40
	movq	%r12, %rdi
	movl	$872, %esi
	popq	%rbx
	.cfi_def_cfa_offset 32
	popq	%rbp
	.cfi_def_cfa_offset 24
	popq	%r12
	.cfi_def_cfa_offset 16
	popq	%r13
	.cfi_def_cfa_offset 8
	jmp	_ZdlPvm@PLT
	.p2align 4,,10
	.p2align 3
.L647:
	.cfi_restore_state
	movq	0(%rbp), %rax
	movq	%rbp, %rdi
	call	*16(%rax)
	cmpb	$0, 0(%r13)
	je	.L636
	movl	12(%rbp), %eax
	leal	-1(%rax), %edx
	movl	%edx, 12(%rbp)
.L637:
	cmpl	$1, %eax
	jne	.L632
	movq	0(%rbp), %rax
	movq	%rbp, %rdi
	call	*24(%rax)
	jmp	.L632
	.p2align 4,,10
	.p2align 3
.L648:
	movq	0(%rbp), %rax
	movq	%rbp, %rdi
	call	*16(%rax)
	cmpb	$0, 0(%r13)
	je	.L644
	movl	12(%rbp), %eax
	leal	-1(%rax), %edx
	movl	%edx, 12(%rbp)
.L645:
	cmpl	$1, %eax
	jne	.L640
	movq	0(%rbp), %rax
	movq	%rbp, %rdi
	call	*24(%rax)
	jmp	.L640
	.p2align 4,,10
	.p2align 3
.L641:
	movl	$-1, %eax
	lock xaddl	%eax, 8(%rbp)
	jmp	.L642
	.p2align 4,,10
	.p2align 3
.L633:
	movl	$-1, %eax
	lock xaddl	%eax, 8(%rbp)
	jmp	.L634
	.p2align 4,,10
	.p2align 3
.L636:
	movl	$-1, %eax
	lock xaddl	%eax, 12(%rbp)
	jmp	.L637
	.p2align 4,,10
	.p2align 3
.L644:
	movl	$-1, %eax
	lock xaddl	%eax, 12(%rbp)
	jmp	.L645
	.cfi_endproc
.LFE10650:
	.size	_ZThn8_N8asiodnp318TCPServerIOHandlerD0Ev, .-_ZThn8_N8asiodnp318TCPServerIOHandlerD0Ev
	.section	.text._ZN8asiodnp318TCPServerIOHandlerD2Ev,"axG",@progbits,_ZN8asiodnp318TCPServerIOHandlerD5Ev,comdat
	.p2align 4
	.weak	_ZThn8_N8asiodnp318TCPServerIOHandlerD1Ev
	.type	_ZThn8_N8asiodnp318TCPServerIOHandlerD1Ev, @function
_ZThn8_N8asiodnp318TCPServerIOHandlerD1Ev:
.LFB10651:
	.cfi_startproc
	endbr64
	pushq	%r13
	.cfi_def_cfa_offset 16
	.cfi_offset 13, -16
	leaq	-8(%rdi), %r13
	pushq	%r12
	.cfi_def_cfa_offset 24
	.cfi_offset 12, -24
	pushq	%rbp
	.cfi_def_cfa_offset 32
	.cfi_offset 6, -32
	pushq	%rbx
	.cfi_def_cfa_offset 40
	.cfi_offset 3, -40
	movq	%rdi, %rbx
	subq	$8, %rsp
	.cfi_def_cfa_offset 48
	movq	_ZTVN8asiodnp318TCPServerIOHandlerE@GOTPCREL(%rip), %rax
	movq	856(%rdi), %rbp
	leaq	104(%rax), %rdx
	addq	$16, %rax
	movq	%rax, %xmm0
	movq	%rdx, %xmm1
	punpcklqdq	%xmm1, %xmm0
	movups	%xmm0, -8(%rdi)
	testq	%rbp, %rbp
	je	.L651
	movq	__libc_single_threaded@GOTPCREL(%rip), %r12
	cmpb	$0, (%r12)
	je	.L652
	movl	8(%rbp), %eax
	leal	-1(%rax), %edx
	movl	%edx, 8(%rbp)
.L653:
	cmpl	$1, %eax
	je	.L666
.L651:
	movq	808(%rbx), %rdi
	leaq	824(%rbx), %rax
	cmpq	%rax, %rdi
	je	.L657
	movq	824(%rbx), %rax
	leaq	1(%rax), %rsi
	call	_ZdlPvm@PLT
.L657:
	movq	800(%rbx), %rbp
	testq	%rbp, %rbp
	je	.L659
	movq	__libc_single_threaded@GOTPCREL(%rip), %r12
	cmpb	$0, (%r12)
	je	.L660
	movl	8(%rbp), %eax
	leal	-1(%rax), %edx
	movl	%edx, 8(%rbp)
.L661:
	cmpl	$1, %eax
	je	.L667
.L659:
	addq	$8, %rsp
	.cfi_remember_state
	.cfi_def_cfa_offset 40
	movq	%r13, %rdi
	popq	%rbx
	.cfi_def_cfa_offset 32
	popq	%rbp
	.cfi_def_cfa_offset 24
	popq	%r12
	.cfi_def_cfa_offset 16
	popq	%r13
	.cfi_def_cfa_offset 8
	jmp	_ZN8asiodnp39IOHandlerD2Ev@PLT
	.p2align 4,,10
	.p2align 3
.L666:
	.cfi_restore_state
	movq	0(%rbp), %rax
	movq	%rbp, %rdi
	call	*16(%rax)
	cmpb	$0, (%r12)
	je	.L655
	movl	12(%rbp), %eax
	leal	-1(%rax), %edx
	movl	%edx, 12(%rbp)
.L656:
	cmpl	$1, %eax
	jne	.L651
	movq	0(%rbp), %rax
	movq	%rbp, %rdi
	call	*24(%rax)
	jmp	.L651
	.p2align 4,,10
	.p2align 3
.L667:
	movq	0(%rbp), %rax
	movq	%rbp, %rdi
	call	*16(%rax)
	cmpb	$0, (%r12)
	je	.L663
	movl	12(%rbp), %eax
	leal	-1(%rax), %edx
	movl	%edx, 12(%rbp)
.L664:
	cmpl	$1, %eax
	jne	.L659
	movq	0(%rbp), %rax
	movq	%rbp, %rdi
	call	*24(%rax)
	jmp	.L659
	.p2align 4,,10
	.p2align 3
.L660:
	movl	$-1, %eax
	lock xaddl	%eax, 8(%rbp)
	jmp	.L661
	.p2align 4,,10
	.p2align 3
.L652:
	movl	$-1, %eax
	lock xaddl	%eax, 8(%rbp)
	jmp	.L653
	.p2align 4,,10
	.p2align 3
.L655:
	movl	$-1, %eax
	lock xaddl	%eax, 12(%rbp)
	jmp	.L656
	.p2align 4,,10
	.p2align 3
.L663:
	movl	$-1, %eax
	lock xaddl	%eax, 12(%rbp)
	jmp	.L664
	.cfi_endproc
.LFE10651:
	.size	_ZThn8_N8asiodnp318TCPServerIOHandlerD1Ev, .-_ZThn8_N8asiodnp318TCPServerIOHandlerD1Ev
	.section	.text._ZN8asiodnp39IOHandlerD0Ev,"axG",@progbits,_ZN8asiodnp39IOHandlerD5Ev,comdat
	.align 2
	.p2align 4
	.weak	_ZN8asiodnp39IOHandlerD0Ev
	.type	_ZN8asiodnp39IOHandlerD0Ev, @function
_ZN8asiodnp39IOHandlerD0Ev:
.LFB7654:
	.cfi_startproc
	endbr64
	pushq	%rbp
	.cfi_def_cfa_offset 16
	.cfi_offset 6, -16
	movq	%rdi, %rbp
	call	_ZN8asiodnp39IOHandlerD1Ev@PLT
	movq	%rbp, %rdi
	movl	$800, %esi
	popq	%rbp
	.cfi_def_cfa_offset 8
	jmp	_ZdlPvm@PLT
	.cfi_endproc
.LFE7654:
	.size	_ZN8asiodnp39IOHandlerD0Ev, .-_ZN8asiodnp39IOHandlerD0Ev
	.p2align 4
	.weak	_ZThn8_N8asiodnp39IOHandlerD0Ev
	.type	_ZThn8_N8asiodnp39IOHandlerD0Ev, @function
_ZThn8_N8asiodnp39IOHandlerD0Ev:
.LFB10649:
	.cfi_startproc
	endbr64
	pushq	%rbp
	.cfi_def_cfa_offset 16
	.cfi_offset 6, -16
	leaq	-8(%rdi), %rbp
	movq	%rbp, %rdi
	call	_ZN8asiodnp39IOHandlerD1Ev@PLT
	movq	%rbp, %rdi
	movl	$800, %esi
	popq	%rbp
	.cfi_def_cfa_offset 8
	jmp	_ZdlPvm@PLT
	.cfi_endproc
.LFE10649:
	.size	_ZThn8_N8asiodnp39IOHandlerD0Ev, .-_ZThn8_N8asiodnp39IOHandlerD0Ev
	.section	.text._ZNSt16_Sp_counted_baseILN9__gnu_cxx12_Lock_policyE2EE10_M_releaseEv,"axG",@progbits,_ZNSt16_Sp_counted_baseILN9__gnu_cxx12_Lock_policyE2EE10_M_releaseEv,comdat
	.align 2
	.p2align 4
	.weak	_ZNSt16_Sp_counted_baseILN9__gnu_cxx12_Lock_policyE2EE10_M_releaseEv
	.type	_ZNSt16_Sp_counted_baseILN9__gnu_cxx12_Lock_policyE2EE10_M_releaseEv, @function
_ZNSt16_Sp_counted_baseILN9__gnu_cxx12_Lock_policyE2EE10_M_releaseEv:
.LFB8802:
	.cfi_startproc
	endbr64
	pushq	%rbp
	.cfi_def_cfa_offset 16
	.cfi_offset 6, -16
	movq	%rdi, %rbp
	pushq	%rbx
	.cfi_def_cfa_offset 24
	.cfi_offset 3, -24
	subq	$8, %rsp
	.cfi_def_cfa_offset 32
	movq	__libc_single_threaded@GOTPCREL(%rip), %rbx
	cmpb	$0, (%rbx)
	je	.L673
	movl	8(%rdi), %eax
	leal	-1(%rax), %edx
	movl	%edx, 8(%rdi)
.L674:
	cmpl	$1, %eax
	je	.L681
.L672:
	addq	$8, %rsp
	.cfi_remember_state
	.cfi_def_cfa_offset 24
	popq	%rbx
	.cfi_def_cfa_offset 16
	popq	%rbp
	.cfi_def_cfa_offset 8
	ret
	.p2align 4,,10
	.p2align 3
.L681:
	.cfi_restore_state
	movq	0(%rbp), %rax
	movq	%rbp, %rdi
	call	*16(%rax)
	cmpb	$0, (%rbx)
	je	.L677
	movl	12(%rbp), %eax
	leal	-1(%rax), %edx
	movl	%edx, 12(%rbp)
.L678:
	cmpl	$1, %eax
	jne	.L672
	movq	0(%rbp), %rax
	movq	%rbp, %rdi
	movq	24(%rax), %rax
	addq	$8, %rsp
	.cfi_remember_state
	.cfi_def_cfa_offset 24
	popq	%rbx
	.cfi_def_cfa_offset 16
	popq	%rbp
	.cfi_def_cfa_offset 8
	jmp	*%rax
	.p2align 4,,10
	.p2align 3
.L673:
	.cfi_restore_state
	movl	$-1, %eax
	lock xaddl	%eax, 8(%rdi)
	jmp	.L674
	.p2align 4,,10
	.p2align 3
.L677:
	movl	$-1, %eax
	lock xaddl	%eax, 12(%rbp)
	jmp	.L678
	.cfi_endproc
.LFE8802:
	.size	_ZNSt16_Sp_counted_baseILN9__gnu_cxx12_Lock_policyE2EE10_M_releaseEv, .-_ZNSt16_Sp_counted_baseILN9__gnu_cxx12_Lock_policyE2EE10_M_releaseEv
	.section	.text.unlikely
	.align 2
.LCOLDB24:
	.text
.LHOTB24:
	.align 2
	.p2align 4
	.globl	_ZN8asiodnp318TCPServerIOHandlerC2ERKN7openpal6LoggerERKSt10shared_ptrINS_16IChannelListenerEERKS5_IN7asiopal8ExecutorEERKNSA_10IPEndpointERSt10error_code
	.type	_ZN8asiodnp318TCPServerIOHandlerC2ERKN7openpal6LoggerERKSt10shared_ptrINS_16IChannelListenerEERKS5_IN7asiopal8ExecutorEERKNSA_10IPEndpointERSt10error_code, @function
_ZN8asiodnp318TCPServerIOHandlerC2ERKN7openpal6LoggerERKSt10shared_ptrINS_16IChannelListenerEERKS5_IN7asiopal8ExecutorEERKNSA_10IPEndpointERSt10error_code:
.LFB7763:
	.cfi_startproc
	.cfi_personality 0x9b,DW.ref.__gxx_personality_v0
	.cfi_lsda 0x1b,.LLSDA7763
	endbr64
	pushq	%r13
	.cfi_def_cfa_offset 16
	.cfi_offset 13, -16
	pushq	%r12
	.cfi_def_cfa_offset 24
	.cfi_offset 12, -24
	movq	%rcx, %r12
	pushq	%rbp
	.cfi_def_cfa_offset 32
	.cfi_offset 6, -32
	movq	%rdi, %rbp
	pushq	%rbx
	.cfi_def_cfa_offset 40
	.cfi_offset 3, -40
	movq	%r8, %rbx
	subq	$40, %rsp
	.cfi_def_cfa_offset 80
	movq	%fs:40, %rax
	movq	%rax, 24(%rsp)
	movq	_ZTVN8asiodnp318TCPServerIOHandlerE@GOTPCREL(%rip), %rax
	leaq	104(%rax), %rcx
	addq	$16, %rax
	movq	%rax, %xmm0
	movq	%rcx, %xmm1
	punpcklqdq	%xmm1, %xmm0
	movaps	%xmm0, (%rsp)
.LEHB3:
	call	_ZN8asiodnp39IOHandlerC2ERKN7openpal6LoggerERKSt10shared_ptrINS_16IChannelListenerEE@PLT
.LEHE3:
	movdqa	(%rsp), %xmm0
	movups	%xmm0, 0(%rbp)
	movdqu	(%r12), %xmm2
	movups	%xmm2, 800(%rbp)
	movq	808(%rbp), %rax
	testq	%rax, %rax
	je	.L683
	movq	__libc_single_threaded@GOTPCREL(%rip), %rdx
	cmpb	$0, (%rdx)
	je	.L684
	addl	$1, 8(%rax)
.L683:
	leaq	832(%rbp), %rdi
	movq	8(%rbx), %r12
	movq	%rdi, 816(%rbp)
	movq	(%rbx), %r13
	movq	%r13, %rax
	addq	%r12, %rax
	je	.L685
	testq	%r13, %r13
	je	.L711
.L685:
	movq	%r12, 16(%rsp)
	cmpq	$15, %r12
	ja	.L712
	cmpq	$1, %r12
	jne	.L688
	movzbl	0(%r13), %eax
	movb	%al, 832(%rbp)
.L689:
	movq	%r12, 824(%rbp)
	pxor	%xmm0, %xmm0
	movb	$0, (%rdi,%r12)
	movzwl	32(%rbx), %eax
	movups	%xmm0, 856(%rbp)
	movw	%ax, 848(%rbp)
	movq	24(%rsp), %rax
	subq	%fs:40, %rax
	jne	.L713
	addq	$40, %rsp
	.cfi_remember_state
	.cfi_def_cfa_offset 40
	popq	%rbx
	.cfi_def_cfa_offset 32
	popq	%rbp
	.cfi_def_cfa_offset 24
	popq	%r12
	.cfi_def_cfa_offset 16
	popq	%r13
	.cfi_def_cfa_offset 8
	ret
	.p2align 4,,10
	.p2align 3
.L688:
	.cfi_restore_state
	testq	%r12, %r12
	je	.L689
	jmp	.L687
	.p2align 4,,10
	.p2align 3
.L684:
	lock addl	$1, 8(%rax)
	jmp	.L683
	.p2align 4,,10
	.p2align 3
.L712:
	leaq	16(%rsp), %rsi
	leaq	816(%rbp), %rdi
	xorl	%edx, %edx
.LEHB4:
	call	_ZNSt7__cxx1112basic_stringIcSt11char_traitsIcESaIcEE9_M_createERmm@PLT
	movq	%rax, 816(%rbp)
	movq	%rax, %rdi
	movq	16(%rsp), %rax
	movq	%rax, 832(%rbp)
.L687:
	movq	%r12, %rdx
	movq	%r13, %rsi
	call	memcpy@PLT
	movq	16(%rsp), %r12
	movq	816(%rbp), %rdi
	jmp	.L689
.L711:
	leaq	.LC4(%rip), %rdi
	call	_ZSt19__throw_logic_errorPKc@PLT
.LEHE4:
.L713:
	call	__stack_chk_fail@PLT
.L693:
	endbr64
	movq	%rax, %r12
	jmp	.L690
	.section	.gcc_except_table
.LLSDA7763:
	.byte	0xff
	.byte	0xff
	.byte	0x1
	.uleb128 .LLSDACSE7763-.LLSDACSB7763
.LLSDACSB7763:
	.uleb128 .LEHB3-.LFB7763
	.uleb128 .LEHE3-.LEHB3
	.uleb128 0
	.uleb128 0
	.uleb128 .LEHB4-.LFB7763
	.uleb128 .LEHE4-.LEHB4
	.uleb128 .L693-.LFB7763
	.uleb128 0
.LLSDACSE7763:
	.text
	.cfi_endproc
	.section	.text.unlikely
	.cfi_startproc
	.cfi_personality 0x9b,DW.ref.__gxx_personality_v0
	.cfi_lsda 0x1b,.LLSDAC7763
	.type	_ZN8asiodnp318TCPServerIOHandlerC2ERKN7openpal6LoggerERKSt10shared_ptrINS_16IChannelListenerEERKS5_IN7asiopal8ExecutorEERKNSA_10IPEndpointERSt10error_code.cold, @function
_ZN8asiodnp318TCPServerIOHandlerC2ERKN7openpal6LoggerERKSt10shared_ptrINS_16IChannelListenerEERKS5_IN7asiopal8ExecutorEERKNSA_10IPEndpointERSt10error_code.cold:
.LFSB7763:
.L690:
	.cfi_def_cfa_offset 80
	.cfi_offset 3, -40
	.cfi_offset 6, -32
	.cfi_offset 12, -24
	.cfi_offset 13, -16
	movq	808(%rbp), %rdi
	testq	%rdi, %rdi
	je	.L691
	call	_ZNSt16_Sp_counted_baseILN9__gnu_cxx12_Lock_policyE2EE10_M_releaseEv@PLT
.L691:
	movq	%rbp, %rdi
	call	_ZN8asiodnp39IOHandlerD2Ev@PLT
	movq	%r12, %rdi
.LEHB5:
	call	_Unwind_Resume@PLT
.LEHE5:
	.cfi_endproc
.LFE7763:
	.section	.gcc_except_table
.LLSDAC7763:
	.byte	0xff
	.byte	0xff
	.byte	0x1
	.uleb128 .LLSDACSEC7763-.LLSDACSBC7763
.LLSDACSBC7763:
	.uleb128 .LEHB5-.LCOLDB24
	.uleb128 .LEHE5-.LEHB5
	.uleb128 0
	.uleb128 0
.LLSDACSEC7763:
	.section	.text.unlikely
	.text
	.size	_ZN8asiodnp318TCPServerIOHandlerC2ERKN7openpal6LoggerERKSt10shared_ptrINS_16IChannelListenerEERKS5_IN7asiopal8ExecutorEERKNSA_10IPEndpointERSt10error_code, .-_ZN8asiodnp318TCPServerIOHandlerC2ERKN7openpal6LoggerERKSt10shared_ptrINS_16IChannelListenerEERKS5_IN7asiopal8ExecutorEERKNSA_10IPEndpointERSt10error_code
	.section	.text.unlikely
	.size	_ZN8asiodnp318TCPServerIOHandlerC2ERKN7openpal6LoggerERKSt10shared_ptrINS_16IChannelListenerEERKS5_IN7asiopal8ExecutorEERKNSA_10IPEndpointERSt10error_code.cold, .-_ZN8asiodnp318TCPServerIOHandlerC2ERKN7openpal6LoggerERKSt10shared_ptrINS_16IChannelListenerEERKS5_IN7asiopal8ExecutorEERKNSA_10IPEndpointERSt10error_code.cold
.LCOLDE24:
	.text
.LHOTE24:
	.globl	_ZN8asiodnp318TCPServerIOHandlerC1ERKN7openpal6LoggerERKSt10shared_ptrINS_16IChannelListenerEERKS5_IN7asiopal8ExecutorEERKNSA_10IPEndpointERSt10error_code
	.set	_ZN8asiodnp318TCPServerIOHandlerC1ERKN7openpal6LoggerERKSt10shared_ptrINS_16IChannelListenerEERKS5_IN7asiopal8ExecutorEERKNSA_10IPEndpointERSt10error_code,_ZN8asiodnp318TCPServerIOHandlerC2ERKN7openpal6LoggerERKSt10shared_ptrINS_16IChannelListenerEERKS5_IN7asiopal8ExecutorEERKNSA_10IPEndpointERSt10error_code
	.section	.rodata.str1.8,"aMS",@progbits,1
	.align 8
.LC26:
	.string	"/home/saptarshi/Desktop/OpenPLC61850/utils/dnp3_src/cpp/libs/src/asiodnp3/TCPServerIOHandler.cpp(81)"
	.section	.text.unlikely
	.align 2
.LCOLDB27:
	.text
.LHOTB27:
	.align 2
	.p2align 4
	.globl	_ZN8asiodnp318TCPServerIOHandler18BeginChannelAcceptEv
	.type	_ZN8asiodnp318TCPServerIOHandler18BeginChannelAcceptEv, @function
_ZN8asiodnp318TCPServerIOHandler18BeginChannelAcceptEv:
.LFB7766:
	.cfi_startproc
	.cfi_personality 0x9b,DW.ref.__gxx_personality_v0
	.cfi_lsda 0x1b,.LLSDA7766
	endbr64
	pushq	%r15
	.cfi_def_cfa_offset 16
	.cfi_offset 15, -16
	pushq	%r14
	.cfi_def_cfa_offset 24
	.cfi_offset 14, -24
	pushq	%r13
	.cfi_def_cfa_offset 32
	.cfi_offset 13, -32
	pushq	%r12
	.cfi_def_cfa_offset 40
	.cfi_offset 12, -40
	pushq	%rbp
	.cfi_def_cfa_offset 48
	.cfi_offset 6, -48
	pushq	%rbx
	.cfi_def_cfa_offset 56
	.cfi_offset 3, -56
	subq	$168, %rsp
	.cfi_def_cfa_offset 224
	movq	24(%rdi), %rbp
	movq	%fs:40, %rax
	movq	%rax, 152(%rsp)
	xorl	%eax, %eax
	testq	%rbp, %rbp
	je	.L715
	movl	8(%rbp), %eax
	movq	%rdi, %r14
	leaq	8(%rbp), %r13
.L717:
	testl	%eax, %eax
	je	.L715
	leal	1(%rax), %edx
	lock cmpxchgl	%edx, 0(%r13)
	jne	.L717
	movq	16(%r14), %rax
	movq	856(%r14), %r12
	movq	%rax, 8(%rsp)
	testq	%r12, %r12
	je	.L836
	pxor	%xmm0, %xmm0
	movl	$24, %edi
	movq	$0, 96(%rsp)
	movq	$0, 104(%rsp)
	movaps	%xmm0, 80(%rsp)
.LEHB6:
	call	_Znwm@PLT
.LEHE6:
	movq	8(%rsp), %xmm0
	movq	__libc_single_threaded@GOTPCREL(%rip), %rbx
	movq	%rbp, %xmm2
	punpcklqdq	%xmm2, %xmm0
	cmpb	$0, (%rbx)
	movups	%xmm0, (%rax)
	je	.L718
	addl	$1, 8(%rbp)
.L719:
	movq	%r14, 16(%rax)
	leaq	112(%rsp), %r15
	leaq	80(%rsp), %r14
	movl	$2, %edx
	leaq	_ZNSt17_Function_handlerIFvRKSt10shared_ptrIN7asiopal8ExecutorEEN4asio19basic_stream_socketINS6_2ip3tcpENS6_21stream_socket_serviceIS9_EEEEEZN8asiodnp318TCPServerIOHandler18BeginChannelAcceptEvEUlS5_SC_E_E10_M_managerERSt9_Any_dataRKSI_St18_Manager_operation(%rip), %rsi
	movq	%r15, %rdi
	movq	%rax, 80(%rsp)
	leaq	_ZNSt17_Function_handlerIFvRKSt10shared_ptrIN7asiopal8ExecutorEEN4asio19basic_stream_socketINS6_2ip3tcpENS6_21stream_socket_serviceIS9_EEEEEZN8asiodnp318TCPServerIOHandler18BeginChannelAcceptEvEUlS5_SC_E_E9_M_invokeERKSt9_Any_dataS5_OSC_(%rip), %rax
	movq	%rsi, %xmm0
	movq	%r14, %rsi
	movq	%rax, %xmm3
	movq	$0, 128(%rsp)
	movq	$0, 136(%rsp)
	punpcklqdq	%xmm3, %xmm0
	movaps	%xmm0, 96(%rsp)
	pxor	%xmm0, %xmm0
	movaps	%xmm0, 112(%rsp)
.LEHB7:
	call	_ZNSt17_Function_handlerIFvRKSt10shared_ptrIN7asiopal8ExecutorEEN4asio19basic_stream_socketINS6_2ip3tcpENS6_21stream_socket_serviceIS9_EEEEEZN8asiodnp318TCPServerIOHandler18BeginChannelAcceptEvEUlS5_SC_E_E10_M_managerERSt9_Any_dataRKSI_St18_Manager_operation
.LEHE7:
	movdqu	208(%r12), %xmm4
	movq	96(%rsp), %rcx
	movdqa	112(%rsp), %xmm0
	movq	104(%rsp), %rdx
	movaps	%xmm4, 112(%rsp)
	movq	224(%r12), %rax
	movups	%xmm0, 208(%r12)
	movq	%rax, 128(%rsp)
	movq	%rcx, 224(%r12)
	movq	232(%r12), %rcx
	movq	%rcx, 136(%rsp)
	movq	%rdx, 232(%r12)
	testq	%rax, %rax
	je	.L725
	movl	$3, %edx
	movq	%r15, %rsi
	movq	%r15, %rdi
	call	*%rax
.L725:
	movq	%r12, %rdi
.LEHB8:
	call	_ZN7asiopal9TCPServer11StartAcceptEv@PLT
.LEHE8:
	movq	96(%rsp), %rax
	testq	%rax, %rax
	je	.L730
	movl	$3, %edx
	movq	%r14, %rsi
	movq	%r14, %rdi
	call	*%rax
.L730:
	cmpb	$0, (%rbx)
	je	.L761
.L839:
	movl	8(%rbp), %eax
	leal	-1(%rax), %edx
	movl	%edx, 8(%rbp)
	cmpl	$1, %eax
	je	.L837
.L714:
	movq	152(%rsp), %rax
	subq	%fs:40, %rax
	jne	.L835
	addq	$168, %rsp
	.cfi_remember_state
	.cfi_def_cfa_offset 56
	popq	%rbx
	.cfi_def_cfa_offset 48
	popq	%rbp
	.cfi_def_cfa_offset 40
	popq	%r12
	.cfi_def_cfa_offset 32
	popq	%r13
	.cfi_def_cfa_offset 24
	popq	%r14
	.cfi_def_cfa_offset 16
	popq	%r15
	.cfi_def_cfa_offset 8
	ret
	.p2align 4,,10
	.p2align 3
.L836:
	.cfi_restore_state
	movl	$0, 64(%rsp)
	leaq	32(%r14), %r15
	call	_ZNSt3_V215system_categoryEv@PLT
	leaq	800(%r14), %rsi
	movl	$256, %edi
	movq	%rax, 72(%rsp)
	leaq	816(%r14), %rax
	movq	%rax, 16(%rsp)
	movq	%rsi, 24(%rsp)
.LEHB9:
	call	_Znwm@PLT
.LEHE9:
	movq	%rax, %r12
	movq	16(%rsp), %rcx
	movq	24(%rsp), %rdx
	movq	%r15, %rsi
	leaq	16(%r12), %rbx
	movq	%r12, %xmm5
	leaq	64(%rsp), %r8
	movq	.LC25(%rip), %rax
	movq	%rbx, %xmm1
	movq	%rbx, %rdi
	movq	%rax, 8(%r12)
	movq	_ZTVSt23_Sp_counted_ptr_inplaceIN8asiodnp318TCPServerIOHandler6ServerESaIS2_ELN9__gnu_cxx12_Lock_policyE2EE@GOTPCREL(%rip), %rax
	punpcklqdq	%xmm5, %xmm1
	movaps	%xmm1, 32(%rsp)
	addq	$16, %rax
	movq	%rax, (%r12)
.LEHB10:
	call	_ZN7asiopal9TCPServerC2ERKN7openpal6LoggerERKSt10shared_ptrINS_8ExecutorEERKNS_10IPEndpointERSt10error_code@PLT
.LEHE10:
	movq	_ZTVN8asiodnp318TCPServerIOHandler6ServerE@GOTPCREL(%rip), %rax
	pxor	%xmm0, %xmm0
	movq	32(%r12), %rdi
	movq	$0, 240(%r12)
	movq	$0, 248(%r12)
	movups	%xmm0, 224(%r12)
	addq	$16, %rax
	movq	%rax, 16(%r12)
	testq	%rdi, %rdi
	je	.L732
	movl	8(%rdi), %eax
	testl	%eax, %eax
	je	.L732
.L734:
	movq	864(%r14), %r12
	movdqa	32(%rsp), %xmm6
	movups	%xmm6, 856(%r14)
	testq	%r12, %r12
	je	.L741
	movq	__libc_single_threaded@GOTPCREL(%rip), %rbx
	cmpb	$0, (%rbx)
	je	.L742
	movl	8(%r12), %eax
	leal	-1(%rax), %edx
	movl	%edx, 8(%r12)
.L743:
	cmpl	$1, %eax
	je	.L838
.L741:
	movl	64(%rsp), %eax
	testl	%eax, %eax
	je	.L747
	leaq	60(%rsp), %r12
	movq	%r15, %rdi
	movl	$4, 60(%rsp)
	movq	%r12, %rsi
.LEHB11:
	call	_ZNK7openpal6Logger9IsEnabledERKNS_10LogFiltersE@PLT
	testb	%al, %al
	je	.L834
	movq	72(%rsp), %rsi
	movl	64(%rsp), %edx
	leaq	112(%rsp), %rdi
	movq	(%rsi), %rax
	call	*32(%rax)
.LEHE11:
	movq	112(%rsp), %rcx
	leaq	.LC26(%rip), %rdx
	movq	%r12, %rsi
	movq	%r15, %rdi
	movl	$4, 60(%rsp)
.LEHB12:
	call	_ZN7openpal6Logger3LogERKNS_10LogFiltersEPKcS5_@PLT
.LEHE12:
	movq	112(%rsp), %rdi
	leaq	128(%rsp), %rax
	cmpq	%rax, %rdi
	je	.L834
	movq	128(%rsp), %rax
	leaq	1(%rax), %rsi
	call	_ZdlPvm@PLT
.L834:
	movq	__libc_single_threaded@GOTPCREL(%rip), %rbx
	cmpb	$0, (%rbx)
	jne	.L839
	.p2align 4,,10
	.p2align 3
.L761:
	movl	$-1, %eax
	lock xaddl	%eax, 0(%r13)
	cmpl	$1, %eax
	jne	.L714
.L837:
	movq	0(%rbp), %rax
	movq	%rbp, %rdi
	call	*16(%rax)
	cmpb	$0, (%rbx)
	je	.L765
	movl	12(%rbp), %eax
	leal	-1(%rax), %edx
	movl	%edx, 12(%rbp)
.L766:
	cmpl	$1, %eax
	jne	.L714
	movq	152(%rsp), %rax
	subq	%fs:40, %rax
	jne	.L835
	movq	0(%rbp), %rax
	movq	%rbp, %rdi
	movq	24(%rax), %rax
	addq	$168, %rsp
	.cfi_remember_state
	.cfi_def_cfa_offset 56
	popq	%rbx
	.cfi_def_cfa_offset 48
	popq	%rbp
	.cfi_def_cfa_offset 40
	popq	%r12
	.cfi_def_cfa_offset 32
	popq	%r13
	.cfi_def_cfa_offset 24
	popq	%r14
	.cfi_def_cfa_offset 16
	popq	%r15
	.cfi_def_cfa_offset 8
	jmp	*%rax
	.p2align 4,,10
	.p2align 3
.L718:
	.cfi_restore_state
	lock addl	$1, 8(%rbp)
	jmp	.L719
	.p2align 4,,10
	.p2align 3
.L732:
	movq	%rbx, 24(%r12)
	movq	__libc_single_threaded@GOTPCREL(%rip), %rbx
	cmpb	$0, (%rbx)
	je	.L840
	addl	$1, 12(%r12)
	testq	%rdi, %rdi
	je	.L736
.L735:
	movl	12(%rdi), %eax
	leal	-1(%rax), %edx
	movl	%edx, 12(%rdi)
	jmp	.L739
	.p2align 4,,10
	.p2align 3
.L840:
	lock addl	$1, 12(%r12)
	movq	32(%r12), %rdi
	testq	%rdi, %rdi
	jne	.L841
.L736:
	movq	%r12, 32(%r12)
	jmp	.L734
	.p2align 4,,10
	.p2align 3
.L747:
	pxor	%xmm0, %xmm0
	movl	$24, %edi
	movq	$0, 96(%rsp)
	movq	856(%r14), %r12
	movq	$0, 104(%rsp)
	movaps	%xmm0, 80(%rsp)
.LEHB13:
	call	_Znwm@PLT
.LEHE13:
	movq	8(%rsp), %xmm0
	movq	__libc_single_threaded@GOTPCREL(%rip), %rbx
	movq	%rbp, %xmm7
	punpcklqdq	%xmm7, %xmm0
	cmpb	$0, (%rbx)
	movups	%xmm0, (%rax)
	je	.L750
	addl	$1, 8(%rbp)
.L751:
	movq	%r14, 16(%rax)
	leaq	112(%rsp), %r15
	leaq	80(%rsp), %r14
	movl	$2, %edx
	movq	%rax, 80(%rsp)
	leaq	_ZNSt17_Function_handlerIFvRKSt10shared_ptrIN7asiopal8ExecutorEEN4asio19basic_stream_socketINS6_2ip3tcpENS6_21stream_socket_serviceIS9_EEEEEZN8asiodnp318TCPServerIOHandler18BeginChannelAcceptEvEUlS5_SC_E_E10_M_managerERSt9_Any_dataRKSI_St18_Manager_operation(%rip), %rcx
	movq	%r14, %rsi
	movq	%r15, %rdi
	leaq	_ZNSt17_Function_handlerIFvRKSt10shared_ptrIN7asiopal8ExecutorEEN4asio19basic_stream_socketINS6_2ip3tcpENS6_21stream_socket_serviceIS9_EEEEEZN8asiodnp318TCPServerIOHandler18BeginChannelAcceptEvEUlS5_SC_E_E9_M_invokeERKSt9_Any_dataS5_OSC_(%rip), %rax
	movq	%rcx, %xmm0
	movq	$0, 128(%rsp)
	movq	%rax, %xmm7
	movq	$0, 136(%rsp)
	punpcklqdq	%xmm7, %xmm0
	movaps	%xmm0, 96(%rsp)
	pxor	%xmm0, %xmm0
	movaps	%xmm0, 112(%rsp)
.LEHB14:
	call	_ZNSt17_Function_handlerIFvRKSt10shared_ptrIN7asiopal8ExecutorEEN4asio19basic_stream_socketINS6_2ip3tcpENS6_21stream_socket_serviceIS9_EEEEEZN8asiodnp318TCPServerIOHandler18BeginChannelAcceptEvEUlS5_SC_E_E10_M_managerERSt9_Any_dataRKSI_St18_Manager_operation
.LEHE14:
	movdqu	208(%r12), %xmm7
	movq	96(%rsp), %rcx
	movdqa	112(%rsp), %xmm0
	movq	104(%rsp), %rdx
	movaps	%xmm7, 112(%rsp)
	movq	224(%r12), %rax
	movups	%xmm0, 208(%r12)
	movq	%rax, 128(%rsp)
	movq	%rcx, 224(%r12)
	movq	232(%r12), %rcx
	movq	%rcx, 136(%rsp)
	movq	%rdx, 232(%r12)
	testq	%rax, %rax
	je	.L756
	movl	$3, %edx
	movq	%r15, %rsi
	movq	%r15, %rdi
	call	*%rax
.L756:
	movq	%r12, %rdi
.LEHB15:
	call	_ZN7asiopal9TCPServer11StartAcceptEv@PLT
.LEHE15:
	movq	96(%rsp), %rax
	testq	%rax, %rax
	je	.L730
	movl	$3, %edx
	movq	%r14, %rsi
	movq	%r14, %rdi
	call	*%rax
	jmp	.L730
	.p2align 4,,10
	.p2align 3
.L765:
	movl	$-1, %eax
	lock xaddl	%eax, 12(%rbp)
	jmp	.L766
	.p2align 4,,10
	.p2align 3
.L841:
	cmpb	$0, (%rbx)
	jne	.L735
	movl	$-1, %eax
	lock xaddl	%eax, 12(%rdi)
.L739:
	cmpl	$1, %eax
	jne	.L736
	movq	(%rdi), %rax
	call	*24(%rax)
	jmp	.L736
	.p2align 4,,10
	.p2align 3
.L838:
	movq	(%r12), %rax
	movq	%r12, %rdi
	call	*16(%rax)
	cmpb	$0, (%rbx)
	je	.L745
	movl	12(%r12), %eax
	leal	-1(%rax), %edx
	movl	%edx, 12(%r12)
.L746:
	cmpl	$1, %eax
	jne	.L741
	movq	(%r12), %rax
	movq	%r12, %rdi
	call	*24(%rax)
	jmp	.L741
	.p2align 4,,10
	.p2align 3
.L742:
	movl	$-1, %eax
	lock xaddl	%eax, 8(%r12)
	jmp	.L743
	.p2align 4,,10
	.p2align 3
.L750:
	lock addl	$1, 8(%rbp)
	jmp	.L751
	.p2align 4,,10
	.p2align 3
.L745:
	movl	$-1, %eax
	lock xaddl	%eax, 12(%r12)
	jmp	.L746
.L835:
	call	__stack_chk_fail@PLT
.L778:
	endbr64
	movq	%rax, %r12
	jmp	.L723
.L784:
	endbr64
	movq	%rax, %rbx
	jmp	.L733
.L780:
	endbr64
	movq	%rax, %r12
	jmp	.L770
.L785:
	endbr64
	movq	%rax, %r12
	jmp	.L753
.L781:
	endbr64
	movq	%rax, %r12
	jmp	.L759
.L786:
	endbr64
	movq	%rax, %r12
	jmp	.L757
.L783:
	endbr64
	movq	%rax, %r12
	jmp	.L726
.L782:
	endbr64
	movq	%rax, %r12
	jmp	.L721
.L779:
	endbr64
	movq	%rax, %r12
	jmp	.L728
	.section	.gcc_except_table
.LLSDA7766:
	.byte	0xff
	.byte	0xff
	.byte	0x1
	.uleb128 .LLSDACSE7766-.LLSDACSB7766
.LLSDACSB7766:
	.uleb128 .LEHB6-.LFB7766
	.uleb128 .LEHE6-.LEHB6
	.uleb128 .L782-.LFB7766
	.uleb128 0
	.uleb128 .LEHB7-.LFB7766
	.uleb128 .LEHE7-.LEHB7
	.uleb128 .L783-.LFB7766
	.uleb128 0
	.uleb128 .LEHB8-.LFB7766
	.uleb128 .LEHE8-.LEHB8
	.uleb128 .L779-.LFB7766
	.uleb128 0
	.uleb128 .LEHB9-.LFB7766
	.uleb128 .LEHE9-.LEHB9
	.uleb128 .L778-.LFB7766
	.uleb128 0
	.uleb128 .LEHB10-.LFB7766
	.uleb128 .LEHE10-.LEHB10
	.uleb128 .L784-.LFB7766
	.uleb128 0
	.uleb128 .LEHB11-.LFB7766
	.uleb128 .LEHE11-.LEHB11
	.uleb128 .L778-.LFB7766
	.uleb128 0
	.uleb128 .LEHB12-.LFB7766
	.uleb128 .LEHE12-.LEHB12
	.uleb128 .L780-.LFB7766
	.uleb128 0
	.uleb128 .LEHB13-.LFB7766
	.uleb128 .LEHE13-.LEHB13
	.uleb128 .L785-.LFB7766
	.uleb128 0
	.uleb128 .LEHB14-.LFB7766
	.uleb128 .LEHE14-.LEHB14
	.uleb128 .L786-.LFB7766
	.uleb128 0
	.uleb128 .LEHB15-.LFB7766
	.uleb128 .LEHE15-.LEHB15
	.uleb128 .L781-.LFB7766
	.uleb128 0
.LLSDACSE7766:
	.text
	.cfi_endproc
	.section	.text.unlikely
	.cfi_startproc
	.cfi_personality 0x9b,DW.ref.__gxx_personality_v0
	.cfi_lsda 0x1b,.LLSDAC7766
	.type	_ZN8asiodnp318TCPServerIOHandler18BeginChannelAcceptEv.cold, @function
_ZN8asiodnp318TCPServerIOHandler18BeginChannelAcceptEv.cold:
.LFSB7766:
.L733:
	.cfi_def_cfa_offset 224
	.cfi_offset 3, -56
	.cfi_offset 6, -48
	.cfi_offset 12, -40
	.cfi_offset 13, -32
	.cfi_offset 14, -24
	.cfi_offset 15, -16
	movq	%r12, %rdi
	movl	$256, %esi
	movq	%rbx, %r12
	call	_ZdlPvm@PLT
.L723:
	movq	%rbp, %rdi
	call	_ZNSt16_Sp_counted_baseILN9__gnu_cxx12_Lock_policyE2EE10_M_releaseEv@PLT
	movq	%r12, %rdi
.LEHB16:
	call	_Unwind_Resume@PLT
.LEHE16:
.L770:
	movq	112(%rsp), %rdi
	leaq	128(%rsp), %rax
	cmpq	%rax, %rdi
	je	.L723
	movq	128(%rsp), %rax
	leaq	1(%rax), %rsi
	call	_ZdlPvm@PLT
	jmp	.L723
.L753:
	movq	96(%rsp), %rax
	testq	%rax, %rax
	je	.L723
	leaq	80(%rsp), %rdi
	movl	$3, %edx
	movq	%rdi, %rsi
	call	*%rax
	jmp	.L723
.L757:
	movq	128(%rsp), %rax
	testq	%rax, %rax
	je	.L759
	movl	$3, %edx
	movq	%r15, %rsi
	movq	%r15, %rdi
	call	*%rax
.L759:
	movq	96(%rsp), %rax
	testq	%rax, %rax
	je	.L723
	movl	$3, %edx
	movq	%r14, %rsi
	movq	%r14, %rdi
	call	*%rax
	jmp	.L723
.L715:
	movl	$8, %edi
	call	__cxa_allocate_exception@PLT
	movq	_ZNSt12bad_weak_ptrD1Ev@GOTPCREL(%rip), %rdx
	movq	_ZTISt12bad_weak_ptr@GOTPCREL(%rip), %rsi
	movq	%rax, %rdi
	movq	_ZTVSt12bad_weak_ptr@GOTPCREL(%rip), %rax
	addq	$16, %rax
	movq	%rax, (%rdi)
.LEHB17:
	call	__cxa_throw@PLT
.LEHE17:
.L726:
	movq	128(%rsp), %rax
	testq	%rax, %rax
	je	.L728
	movl	$3, %edx
	movq	%r15, %rsi
	movq	%r15, %rdi
	call	*%rax
.L728:
	movq	96(%rsp), %rax
	testq	%rax, %rax
	je	.L723
	movl	$3, %edx
	movq	%r14, %rsi
	movq	%r14, %rdi
	call	*%rax
	jmp	.L723
.L721:
	movq	96(%rsp), %rax
	testq	%rax, %rax
	je	.L723
	leaq	80(%rsp), %rdi
	movl	$3, %edx
	movq	%rdi, %rsi
	call	*%rax
	jmp	.L723
	.cfi_endproc
.LFE7766:
	.section	.gcc_except_table
.LLSDAC7766:
	.byte	0xff
	.byte	0xff
	.byte	0x1
	.uleb128 .LLSDACSEC7766-.LLSDACSBC7766
.LLSDACSBC7766:
	.uleb128 .LEHB16-.LCOLDB27
	.uleb128 .LEHE16-.LEHB16
	.uleb128 0
	.uleb128 0
	.uleb128 .LEHB17-.LCOLDB27
	.uleb128 .LEHE17-.LEHB17
	.uleb128 0
	.uleb128 0
.LLSDACSEC7766:
	.section	.text.unlikely
	.text
	.size	_ZN8asiodnp318TCPServerIOHandler18BeginChannelAcceptEv, .-_ZN8asiodnp318TCPServerIOHandler18BeginChannelAcceptEv
	.section	.text.unlikely
	.size	_ZN8asiodnp318TCPServerIOHandler18BeginChannelAcceptEv.cold, .-_ZN8asiodnp318TCPServerIOHandler18BeginChannelAcceptEv.cold
.LCOLDE27:
	.text
.LHOTE27:
	.section	.text.unlikely
.LCOLDB28:
	.text
.LHOTB28:
	.p2align 4
	.type	_ZNSt17_Function_handlerIFvRKSt10shared_ptrIN7asiopal8ExecutorEEN4asio19basic_stream_socketINS6_2ip3tcpENS6_21stream_socket_serviceIS9_EEEEEZN8asiodnp318TCPServerIOHandler18BeginChannelAcceptEvEUlS5_SC_E_E9_M_invokeERKSt9_Any_dataS5_OSC_, @function
_ZNSt17_Function_handlerIFvRKSt10shared_ptrIN7asiopal8ExecutorEEN4asio19basic_stream_socketINS6_2ip3tcpENS6_21stream_socket_serviceIS9_EEEEEZN8asiodnp318TCPServerIOHandler18BeginChannelAcceptEvEUlS5_SC_E_E9_M_invokeERKSt9_Any_dataS5_OSC_:
.LFB9173:
	.cfi_startproc
	.cfi_personality 0x9b,DW.ref.__gxx_personality_v0
	.cfi_lsda 0x1b,.LLSDA9173
	endbr64
	pushq	%r15
	.cfi_def_cfa_offset 16
	.cfi_offset 15, -16
	pushq	%r14
	.cfi_def_cfa_offset 24
	.cfi_offset 14, -24
	pushq	%r13
	.cfi_def_cfa_offset 32
	.cfi_offset 13, -32
	pushq	%r12
	.cfi_def_cfa_offset 40
	.cfi_offset 12, -40
	pushq	%rbp
	.cfi_def_cfa_offset 48
	.cfi_offset 6, -48
	pushq	%rbx
	.cfi_def_cfa_offset 56
	.cfi_offset 3, -56
	subq	$168, %rsp
	.cfi_def_cfa_offset 224
	movq	(%rdi), %r10
	movl	(%rdx), %r9d
	movq	%fs:40, %rax
	movq	%rax, 152(%rsp)
	xorl	%eax, %eax
	movzbl	4(%rdx), %r8d
	movq	24(%rdx), %rax
	movb	$0, 4(%rdx)
	movq	8(%rdx), %rdi
	movl	16(%rdx), %ecx
	movl	%r9d, 80(%rsp)
	movq	8(%rsi), %rbp
	movq	%rax, 72(%rsp)
	movl	$-1, (%rdx)
	movq	16(%r10), %r14
	movq	$0, 8(%rdx)
	movq	(%rsi), %rbx
	movl	$2, 16(%rdx)
	movq	%rax, 104(%rsp)
	movl	$-1, 48(%rsp)
	movb	%r8b, 84(%rsp)
	movb	$0, 52(%rsp)
	movq	%rdi, 88(%rsp)
	movq	$0, 56(%rsp)
	movl	%ecx, 96(%rsp)
	movl	$2, 64(%rsp)
	testq	%rbp, %rbp
	je	.L843
	movq	__libc_single_threaded@GOTPCREL(%rip), %rax
	cmpb	$0, (%rax)
	je	.L844
	addl	$1, 8(%rbp)
.L843:
	movl	$112, %edi
.LEHB18:
	call	_Znwm@PLT
.LEHE18:
	movq	%rax, %r12
	movq	.LC25(%rip), %rax
	movq	%rbx, %xmm0
	movq	%rbp, %xmm3
	leaq	16(%r12), %r15
	movq	%r12, %xmm2
	punpcklqdq	%xmm3, %xmm0
	movq	%rax, 8(%r12)
	movq	_ZTVSt23_Sp_counted_ptr_inplaceIN7asiopal13SocketChannelESaIS1_ELN9__gnu_cxx12_Lock_policyE2EE@GOTPCREL(%rip), %rax
	movq	%r15, %xmm1
	punpcklqdq	%xmm2, %xmm1
	movaps	%xmm0, 32(%rsp)
	addq	$16, %rax
	movaps	%xmm1, (%rsp)
	movq	%rax, (%r12)
	testq	%rbp, %rbp
	je	.L845
	movq	__libc_single_threaded@GOTPCREL(%rip), %rax
	cmpb	$0, (%rax)
	je	.L846
	addl	$1, 8(%rbp)
.L845:
	movq	104(%rsp), %rax
	leaq	112(%rsp), %rbx
	leaq	32(%rsp), %rsi
	movq	%r15, %rdi
	movq	%rbx, %rdx
	movq	%rax, 136(%rsp)
	movl	80(%rsp), %eax
	movl	$-1, 80(%rsp)
	movl	%eax, 112(%rsp)
	movzbl	84(%rsp), %eax
	movb	$0, 84(%rsp)
	movb	%al, 116(%rsp)
	movq	88(%rsp), %rax
	movq	$0, 88(%rsp)
	movq	%rax, 120(%rsp)
	movl	96(%rsp), %eax
	movl	$2, 96(%rsp)
	movl	%eax, 128(%rsp)
.LEHB19:
	call	_ZN7asiopal13SocketChannelC1ESt10shared_ptrINS_8ExecutorEEN4asio19basic_stream_socketINS4_2ip3tcpENS4_21stream_socket_serviceIS7_EEEE@PLT
.LEHE19:
	movq	136(%rsp), %rax
	movq	%rbx, %rsi
	leaq	40(%rax), %rdi
	call	_ZN4asio6detail28reactive_socket_service_base7destroyERNS1_24base_implementation_typeE@PLT
	movq	40(%rsp), %r13
	testq	%r13, %r13
	je	.L852
	movq	__libc_single_threaded@GOTPCREL(%rip), %rax
	cmpb	$0, (%rax)
	je	.L848
	movl	8(%r13), %edx
	leal	-1(%rdx), %ecx
	movl	%ecx, 8(%r13)
.L849:
	cmpl	$1, %edx
	je	.L914
.L852:
	movq	32(%r12), %rdi
	testq	%rdi, %rdi
	je	.L856
	movl	8(%rdi), %eax
	testl	%eax, %eax
	je	.L856
.L857:
	movdqa	(%rsp), %xmm4
	movq	%rbx, %rsi
	movq	%r14, %rdi
	movaps	%xmm4, 112(%rsp)
.LEHB20:
	call	_ZN8asiodnp39IOHandler12OnNewChannelERKSt10shared_ptrIN7asiopal13IAsyncChannelEE@PLT
.LEHE20:
	movq	120(%rsp), %r12
	testq	%r12, %r12
	je	.L864
	movq	__libc_single_threaded@GOTPCREL(%rip), %rax
	cmpb	$0, (%rax)
	je	.L865
	movl	8(%r12), %edx
	leal	-1(%rdx), %ecx
	movl	%ecx, 8(%r12)
.L866:
	cmpl	$1, %edx
	je	.L915
.L864:
	testq	%rbp, %rbp
	je	.L871
	movq	__libc_single_threaded@GOTPCREL(%rip), %rax
	cmpb	$0, (%rax)
	je	.L872
	movl	8(%rbp), %edx
	leal	-1(%rdx), %ecx
	movl	%ecx, 8(%rbp)
.L873:
	cmpl	$1, %edx
	je	.L916
.L871:
	movq	104(%rsp), %rax
	leaq	80(%rsp), %rsi
	leaq	40(%rax), %rdi
	call	_ZN4asio6detail28reactive_socket_service_base7destroyERNS1_24base_implementation_typeE@PLT
	movq	72(%rsp), %rax
	leaq	48(%rsp), %rsi
	leaq	40(%rax), %rdi
	call	_ZN4asio6detail28reactive_socket_service_base7destroyERNS1_24base_implementation_typeE@PLT
	movq	152(%rsp), %rax
	subq	%fs:40, %rax
	jne	.L917
	addq	$168, %rsp
	.cfi_remember_state
	.cfi_def_cfa_offset 56
	popq	%rbx
	.cfi_def_cfa_offset 48
	popq	%rbp
	.cfi_def_cfa_offset 40
	popq	%r12
	.cfi_def_cfa_offset 32
	popq	%r13
	.cfi_def_cfa_offset 24
	popq	%r14
	.cfi_def_cfa_offset 16
	popq	%r15
	.cfi_def_cfa_offset 8
	ret
	.p2align 4,,10
	.p2align 3
.L844:
	.cfi_restore_state
	lock addl	$1, 8(%rbp)
	jmp	.L843
	.p2align 4,,10
	.p2align 3
.L846:
	lock addl	$1, 8(%rbp)
	jmp	.L845
	.p2align 4,,10
	.p2align 3
.L856:
	movq	__libc_single_threaded@GOTPCREL(%rip), %rax
	movq	%r15, 24(%r12)
	cmpb	$0, (%rax)
	je	.L918
	addl	$1, 12(%r12)
	testq	%rdi, %rdi
	je	.L859
.L858:
	movl	12(%rdi), %eax
	leal	-1(%rax), %edx
	movl	%edx, 12(%rdi)
.L862:
	cmpl	$1, %eax
	jne	.L859
	movq	(%rdi), %rax
	call	*24(%rax)
	.p2align 4,,10
	.p2align 3
.L859:
	movq	%r12, 32(%r12)
	jmp	.L857
	.p2align 4,,10
	.p2align 3
.L918:
	lock addl	$1, 12(%r12)
	movq	32(%r12), %rdi
	testq	%rdi, %rdi
	je	.L859
	cmpb	$0, (%rax)
	jne	.L858
	movl	$-1, %eax
	lock xaddl	%eax, 12(%rdi)
	jmp	.L862
	.p2align 4,,10
	.p2align 3
.L916:
	movq	0(%rbp), %rdx
	movq	%rax, (%rsp)
	movq	%rbp, %rdi
	call	*16(%rdx)
	movq	(%rsp), %rax
	cmpb	$0, (%rax)
	je	.L875
	movl	12(%rbp), %eax
	leal	-1(%rax), %edx
	movl	%edx, 12(%rbp)
.L876:
	cmpl	$1, %eax
	jne	.L871
	movq	0(%rbp), %rax
	movq	%rbp, %rdi
	call	*24(%rax)
	jmp	.L871
	.p2align 4,,10
	.p2align 3
.L915:
	movq	(%r12), %rdx
	movq	%rax, (%rsp)
	movq	%r12, %rdi
	call	*16(%rdx)
	movq	(%rsp), %rax
	cmpb	$0, (%rax)
	je	.L868
	movl	12(%r12), %eax
	leal	-1(%rax), %edx
	movl	%edx, 12(%r12)
.L869:
	cmpl	$1, %eax
	jne	.L864
	movq	(%r12), %rax
	movq	%r12, %rdi
	call	*24(%rax)
	jmp	.L864
	.p2align 4,,10
	.p2align 3
.L914:
	movq	0(%r13), %rdx
	movq	%rax, 24(%rsp)
	movq	%r13, %rdi
	call	*16(%rdx)
	movq	24(%rsp), %rax
	cmpb	$0, (%rax)
	je	.L850
	movl	12(%r13), %eax
	leal	-1(%rax), %edx
	movl	%edx, 12(%r13)
.L851:
	cmpl	$1, %eax
	jne	.L852
	movq	0(%r13), %rax
	movq	%r13, %rdi
	call	*24(%rax)
	jmp	.L852
	.p2align 4,,10
	.p2align 3
.L865:
	movl	$-1, %edx
	lock xaddl	%edx, 8(%r12)
	jmp	.L866
	.p2align 4,,10
	.p2align 3
.L848:
	movl	$-1, %edx
	lock xaddl	%edx, 8(%r13)
	jmp	.L849
	.p2align 4,,10
	.p2align 3
.L872:
	movl	$-1, %edx
	lock xaddl	%edx, 8(%rbp)
	jmp	.L873
	.p2align 4,,10
	.p2align 3
.L875:
	movl	$-1, %eax
	lock xaddl	%eax, 12(%rbp)
	jmp	.L876
	.p2align 4,,10
	.p2align 3
.L850:
	movl	$-1, %eax
	lock xaddl	%eax, 12(%r13)
	jmp	.L851
	.p2align 4,,10
	.p2align 3
.L868:
	movl	$-1, %eax
	lock xaddl	%eax, 12(%r12)
	jmp	.L869
.L917:
	call	__stack_chk_fail@PLT
.L884:
	endbr64
	movq	%rax, %r12
	jmp	.L855
.L886:
	endbr64
	movq	%rax, %r13
	jmp	.L853
.L885:
	endbr64
	movq	%rax, %r12
	jmp	.L877
	.section	.gcc_except_table
.LLSDA9173:
	.byte	0xff
	.byte	0xff
	.byte	0x1
	.uleb128 .LLSDACSE9173-.LLSDACSB9173
.LLSDACSB9173:
	.uleb128 .LEHB18-.LFB9173
	.uleb128 .LEHE18-.LEHB18
	.uleb128 .L884-.LFB9173
	.uleb128 0
	.uleb128 .LEHB19-.LFB9173
	.uleb128 .LEHE19-.LEHB19
	.uleb128 .L886-.LFB9173
	.uleb128 0
	.uleb128 .LEHB20-.LFB9173
	.uleb128 .LEHE20-.LEHB20
	.uleb128 .L885-.LFB9173
	.uleb128 0
.LLSDACSE9173:
	.text
	.cfi_endproc
	.section	.text.unlikely
	.cfi_startproc
	.cfi_personality 0x9b,DW.ref.__gxx_personality_v0
	.cfi_lsda 0x1b,.LLSDAC9173
	.type	_ZNSt17_Function_handlerIFvRKSt10shared_ptrIN7asiopal8ExecutorEEN4asio19basic_stream_socketINS6_2ip3tcpENS6_21stream_socket_serviceIS9_EEEEEZN8asiodnp318TCPServerIOHandler18BeginChannelAcceptEvEUlS5_SC_E_E9_M_invokeERKSt9_Any_dataS5_OSC_.cold, @function
_ZNSt17_Function_handlerIFvRKSt10shared_ptrIN7asiopal8ExecutorEEN4asio19basic_stream_socketINS6_2ip3tcpENS6_21stream_socket_serviceIS9_EEEEEZN8asiodnp318TCPServerIOHandler18BeginChannelAcceptEvEUlS5_SC_E_E9_M_invokeERKSt9_Any_dataS5_OSC_.cold:
.LFSB9173:
.L853:
	.cfi_def_cfa_offset 224
	.cfi_offset 3, -56
	.cfi_offset 6, -48
	.cfi_offset 12, -40
	.cfi_offset 13, -32
	.cfi_offset 14, -24
	.cfi_offset 15, -16
	movq	136(%rsp), %rax
	movq	%rbx, %rsi
	leaq	40(%rax), %rdi
	call	_ZN4asio6detail28reactive_socket_service_base7destroyERNS1_24base_implementation_typeE@PLT
	movq	40(%rsp), %rdi
	testq	%rdi, %rdi
	jne	.L919
.L854:
	movq	%r12, %rdi
	movl	$112, %esi
	movq	%r13, %r12
	call	_ZdlPvm@PLT
.L855:
	testq	%rbp, %rbp
	je	.L879
	movq	%rbp, %rdi
	call	_ZNSt16_Sp_counted_baseILN9__gnu_cxx12_Lock_policyE2EE10_M_releaseEv@PLT
.L879:
	movq	104(%rsp), %rax
	leaq	80(%rsp), %rsi
	leaq	40(%rax), %rdi
	call	_ZN4asio6detail28reactive_socket_service_base7destroyERNS1_24base_implementation_typeE@PLT
	movq	72(%rsp), %rax
	leaq	48(%rsp), %rsi
	leaq	40(%rax), %rdi
	call	_ZN4asio6detail28reactive_socket_service_base7destroyERNS1_24base_implementation_typeE@PLT
	movq	%r12, %rdi
.LEHB21:
	call	_Unwind_Resume@PLT
.LEHE21:
.L877:
	movq	120(%rsp), %rdi
	testq	%rdi, %rdi
	je	.L855
	call	_ZNSt16_Sp_counted_baseILN9__gnu_cxx12_Lock_policyE2EE10_M_releaseEv@PLT
	jmp	.L855
.L919:
	call	_ZNSt16_Sp_counted_baseILN9__gnu_cxx12_Lock_policyE2EE10_M_releaseEv@PLT
	jmp	.L854
	.cfi_endproc
.LFE9173:
	.section	.gcc_except_table
.LLSDAC9173:
	.byte	0xff
	.byte	0xff
	.byte	0x1
	.uleb128 .LLSDACSEC9173-.LLSDACSBC9173
.LLSDACSBC9173:
	.uleb128 .LEHB21-.LCOLDB28
	.uleb128 .LEHE21-.LEHB21
	.uleb128 0
	.uleb128 0
.LLSDACSEC9173:
	.section	.text.unlikely
	.text
	.size	_ZNSt17_Function_handlerIFvRKSt10shared_ptrIN7asiopal8ExecutorEEN4asio19basic_stream_socketINS6_2ip3tcpENS6_21stream_socket_serviceIS9_EEEEEZN8asiodnp318TCPServerIOHandler18BeginChannelAcceptEvEUlS5_SC_E_E9_M_invokeERKSt9_Any_dataS5_OSC_, .-_ZNSt17_Function_handlerIFvRKSt10shared_ptrIN7asiopal8ExecutorEEN4asio19basic_stream_socketINS6_2ip3tcpENS6_21stream_socket_serviceIS9_EEEEEZN8asiodnp318TCPServerIOHandler18BeginChannelAcceptEvEUlS5_SC_E_E9_M_invokeERKSt9_Any_dataS5_OSC_
	.section	.text.unlikely
	.size	_ZNSt17_Function_handlerIFvRKSt10shared_ptrIN7asiopal8ExecutorEEN4asio19basic_stream_socketINS6_2ip3tcpENS6_21stream_socket_serviceIS9_EEEEEZN8asiodnp318TCPServerIOHandler18BeginChannelAcceptEvEUlS5_SC_E_E9_M_invokeERKSt9_Any_dataS5_OSC_.cold, .-_ZNSt17_Function_handlerIFvRKSt10shared_ptrIN7asiopal8ExecutorEEN4asio19basic_stream_socketINS6_2ip3tcpENS6_21stream_socket_serviceIS9_EEEEEZN8asiodnp318TCPServerIOHandler18BeginChannelAcceptEvEUlS5_SC_E_E9_M_invokeERKSt9_Any_dataS5_OSC_.cold
.LCOLDE28:
	.text
.LHOTE28:
	.section	.text.startup,"ax",@progbits
	.p2align 4
	.type	_GLOBAL__sub_I_TCPServerIOHandler.cpp, @function
_GLOBAL__sub_I_TCPServerIOHandler.cpp:
.LFB10639:
	.cfi_startproc
	endbr64
	pushq	%rbp
	.cfi_def_cfa_offset 16
	.cfi_offset 6, -16
	call	_ZN4asio15system_categoryEv@PLT
	movq	_ZGVZN4asio5error18get_netdb_categoryEvE8instance@GOTPCREL(%rip), %rbp
	movzbl	0(%rbp), %eax
	testb	%al, %al
	je	.L945
.L922:
	movq	_ZGVZN4asio5error21get_addrinfo_categoryEvE8instance@GOTPCREL(%rip), %rbp
	movzbl	0(%rbp), %eax
	testb	%al, %al
	je	.L946
.L925:
	movq	_ZGVZN4asio5error17get_misc_categoryEvE8instance@GOTPCREL(%rip), %rbp
	movzbl	0(%rbp), %eax
	testb	%al, %al
	je	.L947
.L928:
	movq	_ZGVN4asio6detail10call_stackINS0_15task_io_serviceENS0_27task_io_service_thread_infoEE4top_E@GOTPCREL(%rip), %rax
	cmpb	$0, (%rax)
	je	.L948
.L930:
	movq	_ZGVN4asio6detail12service_baseINS0_13epoll_reactorEE2idE@GOTPCREL(%rip), %rax
	cmpb	$0, (%rax)
	je	.L949
.L931:
	movq	_ZGVN4asio6detail12service_baseINS0_15task_io_serviceEE2idE@GOTPCREL(%rip), %rax
	cmpb	$0, (%rax)
	je	.L950
.L932:
	movq	_ZGVN4asio6detail10call_stackINS0_14strand_service11strand_implEhE4top_E@GOTPCREL(%rip), %rax
	cmpb	$0, (%rax)
	je	.L951
.L933:
	movq	_ZGVN4asio6detail12service_baseINS0_14strand_serviceEE2idE@GOTPCREL(%rip), %rax
	cmpb	$0, (%rax)
	je	.L952
	popq	%rbp
	.cfi_remember_state
	.cfi_def_cfa_offset 8
	ret
.L945:
	.cfi_restore_state
	movq	%rbp, %rdi
	call	__cxa_guard_acquire@PLT
	testl	%eax, %eax
	je	.L922
	movq	_ZZN4asio5error18get_netdb_categoryEvE8instance@GOTPCREL(%rip), %rsi
	movq	_ZN4asio5error6detail14netdb_categoryD1Ev@GOTPCREL(%rip), %rdi
	leaq	__dso_handle(%rip), %rdx
	call	__cxa_atexit@PLT
	movq	%rbp, %rdi
	call	__cxa_guard_release@PLT
	jmp	.L922
.L952:
	movb	$1, (%rax)
	leaq	__dso_handle(%rip), %rdx
	movq	_ZN4asio6detail12service_baseINS0_14strand_serviceEE2idE@GOTPCREL(%rip), %rsi
	movq	_ZN4asio6detail10service_idINS0_14strand_serviceEED1Ev@GOTPCREL(%rip), %rdi
	popq	%rbp
	.cfi_remember_state
	.cfi_def_cfa_offset 8
	jmp	__cxa_atexit@PLT
.L951:
	.cfi_restore_state
	movb	$1, (%rax)
	movq	_ZN4asio6detail10call_stackINS0_14strand_service11strand_implEhE4top_E@GOTPCREL(%rip), %rsi
	leaq	__dso_handle(%rip), %rdx
	movq	_ZN4asio6detail7tss_ptrINS0_10call_stackINS0_14strand_service11strand_implEhE7contextEED1Ev@GOTPCREL(%rip), %rdi
	call	__cxa_atexit@PLT
	jmp	.L933
.L950:
	movb	$1, (%rax)
	movq	_ZN4asio6detail12service_baseINS0_15task_io_serviceEE2idE@GOTPCREL(%rip), %rsi
	leaq	__dso_handle(%rip), %rdx
	movq	_ZN4asio6detail10service_idINS0_15task_io_serviceEED1Ev@GOTPCREL(%rip), %rdi
	call	__cxa_atexit@PLT
	jmp	.L932
.L949:
	movb	$1, (%rax)
	movq	_ZN4asio6detail12service_baseINS0_13epoll_reactorEE2idE@GOTPCREL(%rip), %rsi
	leaq	__dso_handle(%rip), %rdx
	movq	_ZN4asio6detail10service_idINS0_13epoll_reactorEED1Ev@GOTPCREL(%rip), %rdi
	call	__cxa_atexit@PLT
	jmp	.L931
.L948:
	movb	$1, (%rax)
	movq	_ZN4asio6detail10call_stackINS0_15task_io_serviceENS0_27task_io_service_thread_infoEE4top_E@GOTPCREL(%rip), %rsi
	leaq	__dso_handle(%rip), %rdx
	movq	_ZN4asio6detail7tss_ptrINS0_10call_stackINS0_15task_io_serviceENS0_27task_io_service_thread_infoEE7contextEED1Ev@GOTPCREL(%rip), %rdi
	call	__cxa_atexit@PLT
	jmp	.L930
.L947:
	movq	%rbp, %rdi
	call	__cxa_guard_acquire@PLT
	testl	%eax, %eax
	je	.L928
	movq	_ZZN4asio5error17get_misc_categoryEvE8instance@GOTPCREL(%rip), %rsi
	movq	_ZN4asio5error6detail13misc_categoryD1Ev@GOTPCREL(%rip), %rdi
	leaq	__dso_handle(%rip), %rdx
	call	__cxa_atexit@PLT
	movq	%rbp, %rdi
	call	__cxa_guard_release@PLT
	jmp	.L928
.L946:
	movq	%rbp, %rdi
	call	__cxa_guard_acquire@PLT
	testl	%eax, %eax
	je	.L925
	movq	_ZZN4asio5error21get_addrinfo_categoryEvE8instance@GOTPCREL(%rip), %rsi
	movq	_ZN4asio5error6detail17addrinfo_categoryD1Ev@GOTPCREL(%rip), %rdi
	leaq	__dso_handle(%rip), %rdx
	call	__cxa_atexit@PLT
	movq	%rbp, %rdi
	call	__cxa_guard_release@PLT
	jmp	.L925
	.cfi_endproc
.LFE10639:
	.size	_GLOBAL__sub_I_TCPServerIOHandler.cpp, .-_GLOBAL__sub_I_TCPServerIOHandler.cpp
	.section	.init_array,"aw"
	.align 8
	.quad	_GLOBAL__sub_I_TCPServerIOHandler.cpp
	.weak	_ZTSSt11_Mutex_baseILN9__gnu_cxx12_Lock_policyE2EE
	.section	.rodata._ZTSSt11_Mutex_baseILN9__gnu_cxx12_Lock_policyE2EE,"aG",@progbits,_ZTSSt11_Mutex_baseILN9__gnu_cxx12_Lock_policyE2EE,comdat
	.align 32
	.type	_ZTSSt11_Mutex_baseILN9__gnu_cxx12_Lock_policyE2EE, @object
	.size	_ZTSSt11_Mutex_baseILN9__gnu_cxx12_Lock_policyE2EE, 47
_ZTSSt11_Mutex_baseILN9__gnu_cxx12_Lock_policyE2EE:
	.string	"St11_Mutex_baseILN9__gnu_cxx12_Lock_policyE2EE"
	.weak	_ZTISt11_Mutex_baseILN9__gnu_cxx12_Lock_policyE2EE
	.section	.data.rel.ro._ZTISt11_Mutex_baseILN9__gnu_cxx12_Lock_policyE2EE,"awG",@progbits,_ZTISt11_Mutex_baseILN9__gnu_cxx12_Lock_policyE2EE,comdat
	.align 8
	.type	_ZTISt11_Mutex_baseILN9__gnu_cxx12_Lock_policyE2EE, @object
	.size	_ZTISt11_Mutex_baseILN9__gnu_cxx12_Lock_policyE2EE, 16
_ZTISt11_Mutex_baseILN9__gnu_cxx12_Lock_policyE2EE:
	.quad	_ZTVN10__cxxabiv117__class_type_infoE+16
	.quad	_ZTSSt11_Mutex_baseILN9__gnu_cxx12_Lock_policyE2EE
	.weak	_ZTSN7openpal10UncopyableE
	.section	.rodata._ZTSN7openpal10UncopyableE,"aG",@progbits,_ZTSN7openpal10UncopyableE,comdat
	.align 16
	.type	_ZTSN7openpal10UncopyableE, @object
	.size	_ZTSN7openpal10UncopyableE, 23
_ZTSN7openpal10UncopyableE:
	.string	"N7openpal10UncopyableE"
	.weak	_ZTIN7openpal10UncopyableE
	.section	.data.rel.ro._ZTIN7openpal10UncopyableE,"awG",@progbits,_ZTIN7openpal10UncopyableE,comdat
	.align 8
	.type	_ZTIN7openpal10UncopyableE, @object
	.size	_ZTIN7openpal10UncopyableE, 16
_ZTIN7openpal10UncopyableE:
	.quad	_ZTVN10__cxxabiv117__class_type_infoE+16
	.quad	_ZTSN7openpal10UncopyableE
	.weak	_ZTSSt23enable_shared_from_thisIN7asiopal13IAsyncChannelEE
	.section	.rodata._ZTSSt23enable_shared_from_thisIN7asiopal13IAsyncChannelEE,"aG",@progbits,_ZTSSt23enable_shared_from_thisIN7asiopal13IAsyncChannelEE,comdat
	.align 32
	.type	_ZTSSt23enable_shared_from_thisIN7asiopal13IAsyncChannelEE, @object
	.size	_ZTSSt23enable_shared_from_thisIN7asiopal13IAsyncChannelEE, 55
_ZTSSt23enable_shared_from_thisIN7asiopal13IAsyncChannelEE:
	.string	"St23enable_shared_from_thisIN7asiopal13IAsyncChannelEE"
	.weak	_ZTISt23enable_shared_from_thisIN7asiopal13IAsyncChannelEE
	.section	.data.rel.ro._ZTISt23enable_shared_from_thisIN7asiopal13IAsyncChannelEE,"awG",@progbits,_ZTISt23enable_shared_from_thisIN7asiopal13IAsyncChannelEE,comdat
	.align 8
	.type	_ZTISt23enable_shared_from_thisIN7asiopal13IAsyncChannelEE, @object
	.size	_ZTISt23enable_shared_from_thisIN7asiopal13IAsyncChannelEE, 16
_ZTISt23enable_shared_from_thisIN7asiopal13IAsyncChannelEE:
	.quad	_ZTVN10__cxxabiv117__class_type_infoE+16
	.quad	_ZTSSt23enable_shared_from_thisIN7asiopal13IAsyncChannelEE
	.weak	_ZTSSt19_Sp_make_shared_tag
	.section	.rodata._ZTSSt19_Sp_make_shared_tag,"aG",@progbits,_ZTSSt19_Sp_make_shared_tag,comdat
	.align 16
	.type	_ZTSSt19_Sp_make_shared_tag, @object
	.size	_ZTSSt19_Sp_make_shared_tag, 24
_ZTSSt19_Sp_make_shared_tag:
	.string	"St19_Sp_make_shared_tag"
	.weak	_ZGVN4asio6detail12service_baseINS0_14strand_serviceEE2idE
	.section	.bss._ZGVN4asio6detail12service_baseINS0_14strand_serviceEE2idE,"awG",@nobits,_ZGVN4asio6detail12service_baseINS0_14strand_serviceEE2idE,comdat
	.align 8
	.type	_ZGVN4asio6detail12service_baseINS0_14strand_serviceEE2idE, @gnu_unique_object
	.size	_ZGVN4asio6detail12service_baseINS0_14strand_serviceEE2idE, 8
_ZGVN4asio6detail12service_baseINS0_14strand_serviceEE2idE:
	.zero	8
	.weak	_ZGVN4asio6detail10call_stackINS0_14strand_service11strand_implEhE4top_E
	.section	.bss._ZGVN4asio6detail10call_stackINS0_14strand_service11strand_implEhE4top_E,"awG",@nobits,_ZGVN4asio6detail10call_stackINS0_14strand_service11strand_implEhE4top_E,comdat
	.align 8
	.type	_ZGVN4asio6detail10call_stackINS0_14strand_service11strand_implEhE4top_E, @gnu_unique_object
	.size	_ZGVN4asio6detail10call_stackINS0_14strand_service11strand_implEhE4top_E, 8
_ZGVN4asio6detail10call_stackINS0_14strand_service11strand_implEhE4top_E:
	.zero	8
	.weak	_ZGVN4asio6detail12service_baseINS0_15task_io_serviceEE2idE
	.section	.bss._ZGVN4asio6detail12service_baseINS0_15task_io_serviceEE2idE,"awG",@nobits,_ZGVN4asio6detail12service_baseINS0_15task_io_serviceEE2idE,comdat
	.align 8
	.type	_ZGVN4asio6detail12service_baseINS0_15task_io_serviceEE2idE, @gnu_unique_object
	.size	_ZGVN4asio6detail12service_baseINS0_15task_io_serviceEE2idE, 8
_ZGVN4asio6detail12service_baseINS0_15task_io_serviceEE2idE:
	.zero	8
	.weak	_ZGVN4asio6detail12service_baseINS0_13epoll_reactorEE2idE
	.section	.bss._ZGVN4asio6detail12service_baseINS0_13epoll_reactorEE2idE,"awG",@nobits,_ZGVN4asio6detail12service_baseINS0_13epoll_reactorEE2idE,comdat
	.align 8
	.type	_ZGVN4asio6detail12service_baseINS0_13epoll_reactorEE2idE, @gnu_unique_object
	.size	_ZGVN4asio6detail12service_baseINS0_13epoll_reactorEE2idE, 8
_ZGVN4asio6detail12service_baseINS0_13epoll_reactorEE2idE:
	.zero	8
	.weak	_ZGVN4asio6detail10call_stackINS0_15task_io_serviceENS0_27task_io_service_thread_infoEE4top_E
	.section	.bss._ZGVN4asio6detail10call_stackINS0_15task_io_serviceENS0_27task_io_service_thread_infoEE4top_E,"awG",@nobits,_ZGVN4asio6detail10call_stackINS0_15task_io_serviceENS0_27task_io_service_thread_infoEE4top_E,comdat
	.align 8
	.type	_ZGVN4asio6detail10call_stackINS0_15task_io_serviceENS0_27task_io_service_thread_infoEE4top_E, @gnu_unique_object
	.size	_ZGVN4asio6detail10call_stackINS0_15task_io_serviceENS0_27task_io_service_thread_infoEE4top_E, 8
_ZGVN4asio6detail10call_stackINS0_15task_io_serviceENS0_27task_io_service_thread_infoEE4top_E:
	.zero	8
	.weak	_ZN4asio6detail12service_baseINS0_14strand_serviceEE2idE
	.section	.bss._ZN4asio6detail12service_baseINS0_14strand_serviceEE2idE,"awG",@nobits,_ZN4asio6detail12service_baseINS0_14strand_serviceEE2idE,comdat
	.type	_ZN4asio6detail12service_baseINS0_14strand_serviceEE2idE, @gnu_unique_object
	.size	_ZN4asio6detail12service_baseINS0_14strand_serviceEE2idE, 1
_ZN4asio6detail12service_baseINS0_14strand_serviceEE2idE:
	.zero	1
	.weak	_ZN4asio6detail10call_stackINS0_14strand_service11strand_implEhE4top_E
	.section	.bss._ZN4asio6detail10call_stackINS0_14strand_service11strand_implEhE4top_E,"awG",@nobits,_ZN4asio6detail10call_stackINS0_14strand_service11strand_implEhE4top_E,comdat
	.type	_ZN4asio6detail10call_stackINS0_14strand_service11strand_implEhE4top_E, @gnu_unique_object
	.size	_ZN4asio6detail10call_stackINS0_14strand_service11strand_implEhE4top_E, 1
_ZN4asio6detail10call_stackINS0_14strand_service11strand_implEhE4top_E:
	.zero	1
	.weak	_ZN4asio6detail12service_baseINS0_15task_io_serviceEE2idE
	.section	.bss._ZN4asio6detail12service_baseINS0_15task_io_serviceEE2idE,"awG",@nobits,_ZN4asio6detail12service_baseINS0_15task_io_serviceEE2idE,comdat
	.type	_ZN4asio6detail12service_baseINS0_15task_io_serviceEE2idE, @gnu_unique_object
	.size	_ZN4asio6detail12service_baseINS0_15task_io_serviceEE2idE, 1
_ZN4asio6detail12service_baseINS0_15task_io_serviceEE2idE:
	.zero	1
	.weak	_ZN4asio6detail12service_baseINS0_13epoll_reactorEE2idE
	.section	.bss._ZN4asio6detail12service_baseINS0_13epoll_reactorEE2idE,"awG",@nobits,_ZN4asio6detail12service_baseINS0_13epoll_reactorEE2idE,comdat
	.type	_ZN4asio6detail12service_baseINS0_13epoll_reactorEE2idE, @gnu_unique_object
	.size	_ZN4asio6detail12service_baseINS0_13epoll_reactorEE2idE, 1
_ZN4asio6detail12service_baseINS0_13epoll_reactorEE2idE:
	.zero	1
	.weak	_ZN4asio6detail10call_stackINS0_15task_io_serviceENS0_27task_io_service_thread_infoEE4top_E
	.section	.bss._ZN4asio6detail10call_stackINS0_15task_io_serviceENS0_27task_io_service_thread_infoEE4top_E,"awG",@nobits,_ZN4asio6detail10call_stackINS0_15task_io_serviceENS0_27task_io_service_thread_infoEE4top_E,comdat
	.type	_ZN4asio6detail10call_stackINS0_15task_io_serviceENS0_27task_io_service_thread_infoEE4top_E, @gnu_unique_object
	.size	_ZN4asio6detail10call_stackINS0_15task_io_serviceENS0_27task_io_service_thread_infoEE4top_E, 1
_ZN4asio6detail10call_stackINS0_15task_io_serviceENS0_27task_io_service_thread_infoEE4top_E:
	.zero	1
	.weak	_ZTSSt16_Sp_counted_baseILN9__gnu_cxx12_Lock_policyE2EE
	.section	.rodata._ZTSSt16_Sp_counted_baseILN9__gnu_cxx12_Lock_policyE2EE,"aG",@progbits,_ZTSSt16_Sp_counted_baseILN9__gnu_cxx12_Lock_policyE2EE,comdat
	.align 32
	.type	_ZTSSt16_Sp_counted_baseILN9__gnu_cxx12_Lock_policyE2EE, @object
	.size	_ZTSSt16_Sp_counted_baseILN9__gnu_cxx12_Lock_policyE2EE, 52
_ZTSSt16_Sp_counted_baseILN9__gnu_cxx12_Lock_policyE2EE:
	.string	"St16_Sp_counted_baseILN9__gnu_cxx12_Lock_policyE2EE"
	.weak	_ZTISt16_Sp_counted_baseILN9__gnu_cxx12_Lock_policyE2EE
	.section	.data.rel.ro._ZTISt16_Sp_counted_baseILN9__gnu_cxx12_Lock_policyE2EE,"awG",@progbits,_ZTISt16_Sp_counted_baseILN9__gnu_cxx12_Lock_policyE2EE,comdat
	.align 8
	.type	_ZTISt16_Sp_counted_baseILN9__gnu_cxx12_Lock_policyE2EE, @object
	.size	_ZTISt16_Sp_counted_baseILN9__gnu_cxx12_Lock_policyE2EE, 24
_ZTISt16_Sp_counted_baseILN9__gnu_cxx12_Lock_policyE2EE:
	.quad	_ZTVN10__cxxabiv120__si_class_type_infoE+16
	.quad	_ZTSSt16_Sp_counted_baseILN9__gnu_cxx12_Lock_policyE2EE
	.quad	_ZTISt11_Mutex_baseILN9__gnu_cxx12_Lock_policyE2EE
	.weak	_ZTSN4asio6detail15system_categoryE
	.section	.rodata._ZTSN4asio6detail15system_categoryE,"aG",@progbits,_ZTSN4asio6detail15system_categoryE,comdat
	.align 32
	.type	_ZTSN4asio6detail15system_categoryE, @object
	.size	_ZTSN4asio6detail15system_categoryE, 32
_ZTSN4asio6detail15system_categoryE:
	.string	"N4asio6detail15system_categoryE"
	.weak	_ZTIN4asio6detail15system_categoryE
	.section	.data.rel.ro._ZTIN4asio6detail15system_categoryE,"awG",@progbits,_ZTIN4asio6detail15system_categoryE,comdat
	.align 8
	.type	_ZTIN4asio6detail15system_categoryE, @object
	.size	_ZTIN4asio6detail15system_categoryE, 24
_ZTIN4asio6detail15system_categoryE:
	.quad	_ZTVN10__cxxabiv120__si_class_type_infoE+16
	.quad	_ZTSN4asio6detail15system_categoryE
	.quad	_ZTINSt3_V214error_categoryE
	.weak	_ZTSN4asio5error6detail14netdb_categoryE
	.section	.rodata._ZTSN4asio5error6detail14netdb_categoryE,"aG",@progbits,_ZTSN4asio5error6detail14netdb_categoryE,comdat
	.align 32
	.type	_ZTSN4asio5error6detail14netdb_categoryE, @object
	.size	_ZTSN4asio5error6detail14netdb_categoryE, 37
_ZTSN4asio5error6detail14netdb_categoryE:
	.string	"N4asio5error6detail14netdb_categoryE"
	.weak	_ZTIN4asio5error6detail14netdb_categoryE
	.section	.data.rel.ro._ZTIN4asio5error6detail14netdb_categoryE,"awG",@progbits,_ZTIN4asio5error6detail14netdb_categoryE,comdat
	.align 8
	.type	_ZTIN4asio5error6detail14netdb_categoryE, @object
	.size	_ZTIN4asio5error6detail14netdb_categoryE, 24
_ZTIN4asio5error6detail14netdb_categoryE:
	.quad	_ZTVN10__cxxabiv120__si_class_type_infoE+16
	.quad	_ZTSN4asio5error6detail14netdb_categoryE
	.quad	_ZTINSt3_V214error_categoryE
	.weak	_ZTSN4asio5error6detail17addrinfo_categoryE
	.section	.rodata._ZTSN4asio5error6detail17addrinfo_categoryE,"aG",@progbits,_ZTSN4asio5error6detail17addrinfo_categoryE,comdat
	.align 32
	.type	_ZTSN4asio5error6detail17addrinfo_categoryE, @object
	.size	_ZTSN4asio5error6detail17addrinfo_categoryE, 40
_ZTSN4asio5error6detail17addrinfo_categoryE:
	.string	"N4asio5error6detail17addrinfo_categoryE"
	.weak	_ZTIN4asio5error6detail17addrinfo_categoryE
	.section	.data.rel.ro._ZTIN4asio5error6detail17addrinfo_categoryE,"awG",@progbits,_ZTIN4asio5error6detail17addrinfo_categoryE,comdat
	.align 8
	.type	_ZTIN4asio5error6detail17addrinfo_categoryE, @object
	.size	_ZTIN4asio5error6detail17addrinfo_categoryE, 24
_ZTIN4asio5error6detail17addrinfo_categoryE:
	.quad	_ZTVN10__cxxabiv120__si_class_type_infoE+16
	.quad	_ZTSN4asio5error6detail17addrinfo_categoryE
	.quad	_ZTINSt3_V214error_categoryE
	.weak	_ZTSN4asio5error6detail13misc_categoryE
	.section	.rodata._ZTSN4asio5error6detail13misc_categoryE,"aG",@progbits,_ZTSN4asio5error6detail13misc_categoryE,comdat
	.align 32
	.type	_ZTSN4asio5error6detail13misc_categoryE, @object
	.size	_ZTSN4asio5error6detail13misc_categoryE, 36
_ZTSN4asio5error6detail13misc_categoryE:
	.string	"N4asio5error6detail13misc_categoryE"
	.weak	_ZTIN4asio5error6detail13misc_categoryE
	.section	.data.rel.ro._ZTIN4asio5error6detail13misc_categoryE,"awG",@progbits,_ZTIN4asio5error6detail13misc_categoryE,comdat
	.align 8
	.type	_ZTIN4asio5error6detail13misc_categoryE, @object
	.size	_ZTIN4asio5error6detail13misc_categoryE, 24
_ZTIN4asio5error6detail13misc_categoryE:
	.quad	_ZTVN10__cxxabiv120__si_class_type_infoE+16
	.quad	_ZTSN4asio5error6detail13misc_categoryE
	.quad	_ZTINSt3_V214error_categoryE
	.weak	_ZTSN7asiopal13IAsyncChannelE
	.section	.rodata._ZTSN7asiopal13IAsyncChannelE,"aG",@progbits,_ZTSN7asiopal13IAsyncChannelE,comdat
	.align 16
	.type	_ZTSN7asiopal13IAsyncChannelE, @object
	.size	_ZTSN7asiopal13IAsyncChannelE, 26
_ZTSN7asiopal13IAsyncChannelE:
	.string	"N7asiopal13IAsyncChannelE"
	.weak	_ZTIN7asiopal13IAsyncChannelE
	.section	.data.rel.ro._ZTIN7asiopal13IAsyncChannelE,"awG",@progbits,_ZTIN7asiopal13IAsyncChannelE,comdat
	.align 8
	.type	_ZTIN7asiopal13IAsyncChannelE, @object
	.size	_ZTIN7asiopal13IAsyncChannelE, 56
_ZTIN7asiopal13IAsyncChannelE:
	.quad	_ZTVN10__cxxabiv121__vmi_class_type_infoE+16
	.quad	_ZTSN7asiopal13IAsyncChannelE
	.long	0
	.long	2
	.quad	_ZTISt23enable_shared_from_thisIN7asiopal13IAsyncChannelEE
	.quad	2050
	.quad	_ZTIN7openpal10UncopyableE
	.quad	0
	.weak	_ZTSN8asiodnp318TCPServerIOHandler6ServerE
	.section	.rodata._ZTSN8asiodnp318TCPServerIOHandler6ServerE,"aG",@progbits,_ZTSN8asiodnp318TCPServerIOHandler6ServerE,comdat
	.align 32
	.type	_ZTSN8asiodnp318TCPServerIOHandler6ServerE, @object
	.size	_ZTSN8asiodnp318TCPServerIOHandler6ServerE, 39
_ZTSN8asiodnp318TCPServerIOHandler6ServerE:
	.string	"N8asiodnp318TCPServerIOHandler6ServerE"
	.weak	_ZTIN8asiodnp318TCPServerIOHandler6ServerE
	.section	.data.rel.ro._ZTIN8asiodnp318TCPServerIOHandler6ServerE,"awG",@progbits,_ZTIN8asiodnp318TCPServerIOHandler6ServerE,comdat
	.align 8
	.type	_ZTIN8asiodnp318TCPServerIOHandler6ServerE, @object
	.size	_ZTIN8asiodnp318TCPServerIOHandler6ServerE, 24
_ZTIN8asiodnp318TCPServerIOHandler6ServerE:
	.quad	_ZTVN10__cxxabiv120__si_class_type_infoE+16
	.quad	_ZTSN8asiodnp318TCPServerIOHandler6ServerE
	.quad	_ZTIN7asiopal9TCPServerE
	.weak	_ZTSN8asiodnp318TCPServerIOHandlerE
	.section	.rodata._ZTSN8asiodnp318TCPServerIOHandlerE,"aG",@progbits,_ZTSN8asiodnp318TCPServerIOHandlerE,comdat
	.align 32
	.type	_ZTSN8asiodnp318TCPServerIOHandlerE, @object
	.size	_ZTSN8asiodnp318TCPServerIOHandlerE, 32
_ZTSN8asiodnp318TCPServerIOHandlerE:
	.string	"N8asiodnp318TCPServerIOHandlerE"
	.weak	_ZTIN8asiodnp318TCPServerIOHandlerE
	.section	.data.rel.ro._ZTIN8asiodnp318TCPServerIOHandlerE,"awG",@progbits,_ZTIN8asiodnp318TCPServerIOHandlerE,comdat
	.align 8
	.type	_ZTIN8asiodnp318TCPServerIOHandlerE, @object
	.size	_ZTIN8asiodnp318TCPServerIOHandlerE, 24
_ZTIN8asiodnp318TCPServerIOHandlerE:
	.quad	_ZTVN10__cxxabiv120__si_class_type_infoE+16
	.quad	_ZTSN8asiodnp318TCPServerIOHandlerE
	.quad	_ZTIN8asiodnp39IOHandlerE
	.section	.data.rel.ro,"aw"
	.align 8
	.type	_ZTIZN8asiodnp318TCPServerIOHandler18BeginChannelAcceptEvEUlRKSt10shared_ptrIN7asiopal8ExecutorEEN4asio19basic_stream_socketINS7_2ip3tcpENS7_21stream_socket_serviceISA_EEEEE_, @object
	.size	_ZTIZN8asiodnp318TCPServerIOHandler18BeginChannelAcceptEvEUlRKSt10shared_ptrIN7asiopal8ExecutorEEN4asio19basic_stream_socketINS7_2ip3tcpENS7_21stream_socket_serviceISA_EEEEE_, 16
_ZTIZN8asiodnp318TCPServerIOHandler18BeginChannelAcceptEvEUlRKSt10shared_ptrIN7asiopal8ExecutorEEN4asio19basic_stream_socketINS7_2ip3tcpENS7_21stream_socket_serviceISA_EEEEE_:
	.quad	_ZTVN10__cxxabiv117__class_type_infoE+16
	.quad	_ZTSZN8asiodnp318TCPServerIOHandler18BeginChannelAcceptEvEUlRKSt10shared_ptrIN7asiopal8ExecutorEEN4asio19basic_stream_socketINS7_2ip3tcpENS7_21stream_socket_serviceISA_EEEEE_
	.section	.rodata
	.align 32
	.type	_ZTSZN8asiodnp318TCPServerIOHandler18BeginChannelAcceptEvEUlRKSt10shared_ptrIN7asiopal8ExecutorEEN4asio19basic_stream_socketINS7_2ip3tcpENS7_21stream_socket_serviceISA_EEEEE_, @object
	.size	_ZTSZN8asiodnp318TCPServerIOHandler18BeginChannelAcceptEvEUlRKSt10shared_ptrIN7asiopal8ExecutorEEN4asio19basic_stream_socketINS7_2ip3tcpENS7_21stream_socket_serviceISA_EEEEE_, 172
_ZTSZN8asiodnp318TCPServerIOHandler18BeginChannelAcceptEvEUlRKSt10shared_ptrIN7asiopal8ExecutorEEN4asio19basic_stream_socketINS7_2ip3tcpENS7_21stream_socket_serviceISA_EEEEE_:
	.string	"*ZN8asiodnp318TCPServerIOHandler18BeginChannelAcceptEvEUlRKSt10shared_ptrIN7asiopal8ExecutorEEN4asio19basic_stream_socketINS7_2ip3tcpENS7_21stream_socket_serviceISA_EEEEE_"
	.weak	_ZTSSt23_Sp_counted_ptr_inplaceIN7asiopal13SocketChannelESaIS1_ELN9__gnu_cxx12_Lock_policyE2EE
	.section	.rodata._ZTSSt23_Sp_counted_ptr_inplaceIN7asiopal13SocketChannelESaIS1_ELN9__gnu_cxx12_Lock_policyE2EE,"aG",@progbits,_ZTSSt23_Sp_counted_ptr_inplaceIN7asiopal13SocketChannelESaIS1_ELN9__gnu_cxx12_Lock_policyE2EE,comdat
	.align 32
	.type	_ZTSSt23_Sp_counted_ptr_inplaceIN7asiopal13SocketChannelESaIS1_ELN9__gnu_cxx12_Lock_policyE2EE, @object
	.size	_ZTSSt23_Sp_counted_ptr_inplaceIN7asiopal13SocketChannelESaIS1_ELN9__gnu_cxx12_Lock_policyE2EE, 91
_ZTSSt23_Sp_counted_ptr_inplaceIN7asiopal13SocketChannelESaIS1_ELN9__gnu_cxx12_Lock_policyE2EE:
	.string	"St23_Sp_counted_ptr_inplaceIN7asiopal13SocketChannelESaIS1_ELN9__gnu_cxx12_Lock_policyE2EE"
	.weak	_ZTISt23_Sp_counted_ptr_inplaceIN7asiopal13SocketChannelESaIS1_ELN9__gnu_cxx12_Lock_policyE2EE
	.section	.data.rel.ro._ZTISt23_Sp_counted_ptr_inplaceIN7asiopal13SocketChannelESaIS1_ELN9__gnu_cxx12_Lock_policyE2EE,"awG",@progbits,_ZTISt23_Sp_counted_ptr_inplaceIN7asiopal13SocketChannelESaIS1_ELN9__gnu_cxx12_Lock_policyE2EE,comdat
	.align 8
	.type	_ZTISt23_Sp_counted_ptr_inplaceIN7asiopal13SocketChannelESaIS1_ELN9__gnu_cxx12_Lock_policyE2EE, @object
	.size	_ZTISt23_Sp_counted_ptr_inplaceIN7asiopal13SocketChannelESaIS1_ELN9__gnu_cxx12_Lock_policyE2EE, 24
_ZTISt23_Sp_counted_ptr_inplaceIN7asiopal13SocketChannelESaIS1_ELN9__gnu_cxx12_Lock_policyE2EE:
	.quad	_ZTVN10__cxxabiv120__si_class_type_infoE+16
	.quad	_ZTSSt23_Sp_counted_ptr_inplaceIN7asiopal13SocketChannelESaIS1_ELN9__gnu_cxx12_Lock_policyE2EE
	.quad	_ZTISt16_Sp_counted_baseILN9__gnu_cxx12_Lock_policyE2EE
	.weak	_ZTSSt23_Sp_counted_ptr_inplaceIN8asiodnp318TCPServerIOHandler6ServerESaIS2_ELN9__gnu_cxx12_Lock_policyE2EE
	.section	.rodata._ZTSSt23_Sp_counted_ptr_inplaceIN8asiodnp318TCPServerIOHandler6ServerESaIS2_ELN9__gnu_cxx12_Lock_policyE2EE,"aG",@progbits,_ZTSSt23_Sp_counted_ptr_inplaceIN8asiodnp318TCPServerIOHandler6ServerESaIS2_ELN9__gnu_cxx12_Lock_policyE2EE,comdat
	.align 32
	.type	_ZTSSt23_Sp_counted_ptr_inplaceIN8asiodnp318TCPServerIOHandler6ServerESaIS2_ELN9__gnu_cxx12_Lock_policyE2EE, @object
	.size	_ZTSSt23_Sp_counted_ptr_inplaceIN8asiodnp318TCPServerIOHandler6ServerESaIS2_ELN9__gnu_cxx12_Lock_policyE2EE, 104
_ZTSSt23_Sp_counted_ptr_inplaceIN8asiodnp318TCPServerIOHandler6ServerESaIS2_ELN9__gnu_cxx12_Lock_policyE2EE:
	.string	"St23_Sp_counted_ptr_inplaceIN8asiodnp318TCPServerIOHandler6ServerESaIS2_ELN9__gnu_cxx12_Lock_policyE2EE"
	.weak	_ZTISt23_Sp_counted_ptr_inplaceIN8asiodnp318TCPServerIOHandler6ServerESaIS2_ELN9__gnu_cxx12_Lock_policyE2EE
	.section	.data.rel.ro._ZTISt23_Sp_counted_ptr_inplaceIN8asiodnp318TCPServerIOHandler6ServerESaIS2_ELN9__gnu_cxx12_Lock_policyE2EE,"awG",@progbits,_ZTISt23_Sp_counted_ptr_inplaceIN8asiodnp318TCPServerIOHandler6ServerESaIS2_ELN9__gnu_cxx12_Lock_policyE2EE,comdat
	.align 8
	.type	_ZTISt23_Sp_counted_ptr_inplaceIN8asiodnp318TCPServerIOHandler6ServerESaIS2_ELN9__gnu_cxx12_Lock_policyE2EE, @object
	.size	_ZTISt23_Sp_counted_ptr_inplaceIN8asiodnp318TCPServerIOHandler6ServerESaIS2_ELN9__gnu_cxx12_Lock_policyE2EE, 24
_ZTISt23_Sp_counted_ptr_inplaceIN8asiodnp318TCPServerIOHandler6ServerESaIS2_ELN9__gnu_cxx12_Lock_policyE2EE:
	.quad	_ZTVN10__cxxabiv120__si_class_type_infoE+16
	.quad	_ZTSSt23_Sp_counted_ptr_inplaceIN8asiodnp318TCPServerIOHandler6ServerESaIS2_ELN9__gnu_cxx12_Lock_policyE2EE
	.quad	_ZTISt16_Sp_counted_baseILN9__gnu_cxx12_Lock_policyE2EE
	.weak	_ZTVN4asio6detail15system_categoryE
	.section	.data.rel.ro._ZTVN4asio6detail15system_categoryE,"awG",@progbits,_ZTVN4asio6detail15system_categoryE,comdat
	.align 8
	.type	_ZTVN4asio6detail15system_categoryE, @object
	.size	_ZTVN4asio6detail15system_categoryE, 80
_ZTVN4asio6detail15system_categoryE:
	.quad	0
	.quad	_ZTIN4asio6detail15system_categoryE
	.quad	_ZN4asio6detail15system_categoryD1Ev
	.quad	_ZN4asio6detail15system_categoryD0Ev
	.quad	_ZNK4asio6detail15system_category4nameEv
	.quad	_ZNKSt3_V214error_category10_M_messageB5cxx11Ei
	.quad	_ZNK4asio6detail15system_category7messageB5cxx11Ei
	.quad	_ZNKSt3_V214error_category23default_error_conditionEi
	.quad	_ZNKSt3_V214error_category10equivalentEiRKSt15error_condition
	.quad	_ZNKSt3_V214error_category10equivalentERKSt10error_codei
	.weak	_ZTVN4asio5error6detail14netdb_categoryE
	.section	.data.rel.ro._ZTVN4asio5error6detail14netdb_categoryE,"awG",@progbits,_ZTVN4asio5error6detail14netdb_categoryE,comdat
	.align 8
	.type	_ZTVN4asio5error6detail14netdb_categoryE, @object
	.size	_ZTVN4asio5error6detail14netdb_categoryE, 80
_ZTVN4asio5error6detail14netdb_categoryE:
	.quad	0
	.quad	_ZTIN4asio5error6detail14netdb_categoryE
	.quad	_ZN4asio5error6detail14netdb_categoryD1Ev
	.quad	_ZN4asio5error6detail14netdb_categoryD0Ev
	.quad	_ZNK4asio5error6detail14netdb_category4nameEv
	.quad	_ZNKSt3_V214error_category10_M_messageB5cxx11Ei
	.quad	_ZNK4asio5error6detail14netdb_category7messageB5cxx11Ei
	.quad	_ZNKSt3_V214error_category23default_error_conditionEi
	.quad	_ZNKSt3_V214error_category10equivalentEiRKSt15error_condition
	.quad	_ZNKSt3_V214error_category10equivalentERKSt10error_codei
	.weak	_ZTVN4asio5error6detail17addrinfo_categoryE
	.section	.data.rel.ro._ZTVN4asio5error6detail17addrinfo_categoryE,"awG",@progbits,_ZTVN4asio5error6detail17addrinfo_categoryE,comdat
	.align 8
	.type	_ZTVN4asio5error6detail17addrinfo_categoryE, @object
	.size	_ZTVN4asio5error6detail17addrinfo_categoryE, 80
_ZTVN4asio5error6detail17addrinfo_categoryE:
	.quad	0
	.quad	_ZTIN4asio5error6detail17addrinfo_categoryE
	.quad	_ZN4asio5error6detail17addrinfo_categoryD1Ev
	.quad	_ZN4asio5error6detail17addrinfo_categoryD0Ev
	.quad	_ZNK4asio5error6detail17addrinfo_category4nameEv
	.quad	_ZNKSt3_V214error_category10_M_messageB5cxx11Ei
	.quad	_ZNK4asio5error6detail17addrinfo_category7messageB5cxx11Ei
	.quad	_ZNKSt3_V214error_category23default_error_conditionEi
	.quad	_ZNKSt3_V214error_category10equivalentEiRKSt15error_condition
	.quad	_ZNKSt3_V214error_category10equivalentERKSt10error_codei
	.weak	_ZTVN4asio5error6detail13misc_categoryE
	.section	.data.rel.ro._ZTVN4asio5error6detail13misc_categoryE,"awG",@progbits,_ZTVN4asio5error6detail13misc_categoryE,comdat
	.align 8
	.type	_ZTVN4asio5error6detail13misc_categoryE, @object
	.size	_ZTVN4asio5error6detail13misc_categoryE, 80
_ZTVN4asio5error6detail13misc_categoryE:
	.quad	0
	.quad	_ZTIN4asio5error6detail13misc_categoryE
	.quad	_ZN4asio5error6detail13misc_categoryD1Ev
	.quad	_ZN4asio5error6detail13misc_categoryD0Ev
	.quad	_ZNK4asio5error6detail13misc_category4nameEv
	.quad	_ZNKSt3_V214error_category10_M_messageB5cxx11Ei
	.quad	_ZNK4asio5error6detail13misc_category7messageB5cxx11Ei
	.quad	_ZNKSt3_V214error_category23default_error_conditionEi
	.quad	_ZNKSt3_V214error_category10equivalentEiRKSt15error_condition
	.quad	_ZNKSt3_V214error_category10equivalentERKSt10error_codei
	.weak	_ZTVN7asiopal13IAsyncChannelE
	.section	.data.rel.ro._ZTVN7asiopal13IAsyncChannelE,"awG",@progbits,_ZTVN7asiopal13IAsyncChannelE,comdat
	.align 8
	.type	_ZTVN7asiopal13IAsyncChannelE, @object
	.size	_ZTVN7asiopal13IAsyncChannelE, 56
_ZTVN7asiopal13IAsyncChannelE:
	.quad	0
	.quad	_ZTIN7asiopal13IAsyncChannelE
	.quad	0
	.quad	0
	.quad	__cxa_pure_virtual
	.quad	__cxa_pure_virtual
	.quad	__cxa_pure_virtual
	.weak	_ZTVN8asiodnp318TCPServerIOHandler6ServerE
	.section	.data.rel.ro._ZTVN8asiodnp318TCPServerIOHandler6ServerE,"awG",@progbits,_ZTVN8asiodnp318TCPServerIOHandler6ServerE,comdat
	.align 8
	.type	_ZTVN8asiodnp318TCPServerIOHandler6ServerE, @object
	.size	_ZTVN8asiodnp318TCPServerIOHandler6ServerE, 56
_ZTVN8asiodnp318TCPServerIOHandler6ServerE:
	.quad	0
	.quad	_ZTIN8asiodnp318TCPServerIOHandler6ServerE
	.quad	_ZN8asiodnp318TCPServerIOHandler6ServerD1Ev
	.quad	_ZN8asiodnp318TCPServerIOHandler6ServerD0Ev
	.quad	_ZN7asiopal9TCPServer8ShutdownEv
	.quad	_ZN8asiodnp318TCPServerIOHandler6Server10OnShutdownEv
	.quad	_ZN8asiodnp318TCPServerIOHandler6Server16AcceptConnectionEmRKSt10shared_ptrIN7asiopal8ExecutorEEN4asio19basic_stream_socketINS8_2ip3tcpENS8_21stream_socket_serviceISB_EEEE
	.weak	_ZTVN8asiodnp318TCPServerIOHandlerE
	.section	.data.rel.ro._ZTVN8asiodnp318TCPServerIOHandlerE,"awG",@progbits,_ZTVN8asiodnp318TCPServerIOHandlerE,comdat
	.align 8
	.type	_ZTVN8asiodnp318TCPServerIOHandlerE, @object
	.size	_ZTVN8asiodnp318TCPServerIOHandlerE, 136
_ZTVN8asiodnp318TCPServerIOHandlerE:
	.quad	0
	.quad	_ZTIN8asiodnp318TCPServerIOHandlerE
	.quad	_ZN8asiodnp318TCPServerIOHandlerD1Ev
	.quad	_ZN8asiodnp318TCPServerIOHandlerD0Ev
	.quad	_ZN8asiodnp39IOHandler7OnFrameERKN8opendnp316LinkHeaderFieldsERKN7openpal6RSliceE
	.quad	_ZN8asiodnp39IOHandler14OnReadCompleteERKSt10error_codem
	.quad	_ZN8asiodnp39IOHandler15OnWriteCompleteERKSt10error_codem
	.quad	_ZN8asiodnp318TCPServerIOHandler18BeginChannelAcceptEv
	.quad	_ZN8asiodnp318TCPServerIOHandler20SuspendChannelAcceptEv
	.quad	_ZN8asiodnp318TCPServerIOHandler12ShutdownImplEv
	.quad	_ZN8asiodnp318TCPServerIOHandler17OnChannelShutdownEv
	.quad	-8
	.quad	_ZTIN8asiodnp318TCPServerIOHandlerE
	.quad	_ZThn8_N8asiodnp318TCPServerIOHandlerD1Ev
	.quad	_ZThn8_N8asiodnp318TCPServerIOHandlerD0Ev
	.quad	_ZThn8_N8asiodnp39IOHandler14OnReadCompleteERKSt10error_codem
	.quad	_ZThn8_N8asiodnp39IOHandler15OnWriteCompleteERKSt10error_codem
	.weak	_ZTVSt23_Sp_counted_ptr_inplaceIN7asiopal13SocketChannelESaIS1_ELN9__gnu_cxx12_Lock_policyE2EE
	.section	.data.rel.ro._ZTVSt23_Sp_counted_ptr_inplaceIN7asiopal13SocketChannelESaIS1_ELN9__gnu_cxx12_Lock_policyE2EE,"awG",@progbits,_ZTVSt23_Sp_counted_ptr_inplaceIN7asiopal13SocketChannelESaIS1_ELN9__gnu_cxx12_Lock_policyE2EE,comdat
	.align 8
	.type	_ZTVSt23_Sp_counted_ptr_inplaceIN7asiopal13SocketChannelESaIS1_ELN9__gnu_cxx12_Lock_policyE2EE, @object
	.size	_ZTVSt23_Sp_counted_ptr_inplaceIN7asiopal13SocketChannelESaIS1_ELN9__gnu_cxx12_Lock_policyE2EE, 56
_ZTVSt23_Sp_counted_ptr_inplaceIN7asiopal13SocketChannelESaIS1_ELN9__gnu_cxx12_Lock_policyE2EE:
	.quad	0
	.quad	_ZTISt23_Sp_counted_ptr_inplaceIN7asiopal13SocketChannelESaIS1_ELN9__gnu_cxx12_Lock_policyE2EE
	.quad	_ZNSt23_Sp_counted_ptr_inplaceIN7asiopal13SocketChannelESaIS1_ELN9__gnu_cxx12_Lock_policyE2EED1Ev
	.quad	_ZNSt23_Sp_counted_ptr_inplaceIN7asiopal13SocketChannelESaIS1_ELN9__gnu_cxx12_Lock_policyE2EED0Ev
	.quad	_ZNSt23_Sp_counted_ptr_inplaceIN7asiopal13SocketChannelESaIS1_ELN9__gnu_cxx12_Lock_policyE2EE10_M_disposeEv
	.quad	_ZNSt23_Sp_counted_ptr_inplaceIN7asiopal13SocketChannelESaIS1_ELN9__gnu_cxx12_Lock_policyE2EE10_M_destroyEv
	.quad	_ZNSt23_Sp_counted_ptr_inplaceIN7asiopal13SocketChannelESaIS1_ELN9__gnu_cxx12_Lock_policyE2EE14_M_get_deleterERKSt9type_info
	.weak	_ZTVSt23_Sp_counted_ptr_inplaceIN8asiodnp318TCPServerIOHandler6ServerESaIS2_ELN9__gnu_cxx12_Lock_policyE2EE
	.section	.data.rel.ro._ZTVSt23_Sp_counted_ptr_inplaceIN8asiodnp318TCPServerIOHandler6ServerESaIS2_ELN9__gnu_cxx12_Lock_policyE2EE,"awG",@progbits,_ZTVSt23_Sp_counted_ptr_inplaceIN8asiodnp318TCPServerIOHandler6ServerESaIS2_ELN9__gnu_cxx12_Lock_policyE2EE,comdat
	.align 8
	.type	_ZTVSt23_Sp_counted_ptr_inplaceIN8asiodnp318TCPServerIOHandler6ServerESaIS2_ELN9__gnu_cxx12_Lock_policyE2EE, @object
	.size	_ZTVSt23_Sp_counted_ptr_inplaceIN8asiodnp318TCPServerIOHandler6ServerESaIS2_ELN9__gnu_cxx12_Lock_policyE2EE, 56
_ZTVSt23_Sp_counted_ptr_inplaceIN8asiodnp318TCPServerIOHandler6ServerESaIS2_ELN9__gnu_cxx12_Lock_policyE2EE:
	.quad	0
	.quad	_ZTISt23_Sp_counted_ptr_inplaceIN8asiodnp318TCPServerIOHandler6ServerESaIS2_ELN9__gnu_cxx12_Lock_policyE2EE
	.quad	_ZNSt23_Sp_counted_ptr_inplaceIN8asiodnp318TCPServerIOHandler6ServerESaIS2_ELN9__gnu_cxx12_Lock_policyE2EED1Ev
	.quad	_ZNSt23_Sp_counted_ptr_inplaceIN8asiodnp318TCPServerIOHandler6ServerESaIS2_ELN9__gnu_cxx12_Lock_policyE2EED0Ev
	.quad	_ZNSt23_Sp_counted_ptr_inplaceIN8asiodnp318TCPServerIOHandler6ServerESaIS2_ELN9__gnu_cxx12_Lock_policyE2EE10_M_disposeEv
	.quad	_ZNSt23_Sp_counted_ptr_inplaceIN8asiodnp318TCPServerIOHandler6ServerESaIS2_ELN9__gnu_cxx12_Lock_policyE2EE10_M_destroyEv
	.quad	_ZNSt23_Sp_counted_ptr_inplaceIN8asiodnp318TCPServerIOHandler6ServerESaIS2_ELN9__gnu_cxx12_Lock_policyE2EE14_M_get_deleterERKSt9type_info
	.weak	_ZGVZN4asio5error17get_misc_categoryEvE8instance
	.section	.bss._ZGVZN4asio5error17get_misc_categoryEvE8instance,"awG",@nobits,_ZGVZN4asio5error17get_misc_categoryEvE8instance,comdat
	.align 8
	.type	_ZGVZN4asio5error17get_misc_categoryEvE8instance, @gnu_unique_object
	.size	_ZGVZN4asio5error17get_misc_categoryEvE8instance, 8
_ZGVZN4asio5error17get_misc_categoryEvE8instance:
	.zero	8
	.weak	_ZZN4asio5error17get_misc_categoryEvE8instance
	.section	.data.rel._ZZN4asio5error17get_misc_categoryEvE8instance,"awG",@progbits,_ZZN4asio5error17get_misc_categoryEvE8instance,comdat
	.align 8
	.type	_ZZN4asio5error17get_misc_categoryEvE8instance, @gnu_unique_object
	.size	_ZZN4asio5error17get_misc_categoryEvE8instance, 8
_ZZN4asio5error17get_misc_categoryEvE8instance:
	.quad	_ZTVN4asio5error6detail13misc_categoryE+16
	.weak	_ZGVZN4asio5error21get_addrinfo_categoryEvE8instance
	.section	.bss._ZGVZN4asio5error21get_addrinfo_categoryEvE8instance,"awG",@nobits,_ZGVZN4asio5error21get_addrinfo_categoryEvE8instance,comdat
	.align 8
	.type	_ZGVZN4asio5error21get_addrinfo_categoryEvE8instance, @gnu_unique_object
	.size	_ZGVZN4asio5error21get_addrinfo_categoryEvE8instance, 8
_ZGVZN4asio5error21get_addrinfo_categoryEvE8instance:
	.zero	8
	.weak	_ZZN4asio5error21get_addrinfo_categoryEvE8instance
	.section	.data.rel._ZZN4asio5error21get_addrinfo_categoryEvE8instance,"awG",@progbits,_ZZN4asio5error21get_addrinfo_categoryEvE8instance,comdat
	.align 8
	.type	_ZZN4asio5error21get_addrinfo_categoryEvE8instance, @gnu_unique_object
	.size	_ZZN4asio5error21get_addrinfo_categoryEvE8instance, 8
_ZZN4asio5error21get_addrinfo_categoryEvE8instance:
	.quad	_ZTVN4asio5error6detail17addrinfo_categoryE+16
	.weak	_ZGVZN4asio5error18get_netdb_categoryEvE8instance
	.section	.bss._ZGVZN4asio5error18get_netdb_categoryEvE8instance,"awG",@nobits,_ZGVZN4asio5error18get_netdb_categoryEvE8instance,comdat
	.align 8
	.type	_ZGVZN4asio5error18get_netdb_categoryEvE8instance, @gnu_unique_object
	.size	_ZGVZN4asio5error18get_netdb_categoryEvE8instance, 8
_ZGVZN4asio5error18get_netdb_categoryEvE8instance:
	.zero	8
	.weak	_ZZN4asio5error18get_netdb_categoryEvE8instance
	.section	.data.rel._ZZN4asio5error18get_netdb_categoryEvE8instance,"awG",@progbits,_ZZN4asio5error18get_netdb_categoryEvE8instance,comdat
	.align 8
	.type	_ZZN4asio5error18get_netdb_categoryEvE8instance, @gnu_unique_object
	.size	_ZZN4asio5error18get_netdb_categoryEvE8instance, 8
_ZZN4asio5error18get_netdb_categoryEvE8instance:
	.quad	_ZTVN4asio5error6detail14netdb_categoryE+16
	.weak	_ZGVZN4asio15system_categoryEvE8instance
	.section	.bss._ZGVZN4asio15system_categoryEvE8instance,"awG",@nobits,_ZGVZN4asio15system_categoryEvE8instance,comdat
	.align 8
	.type	_ZGVZN4asio15system_categoryEvE8instance, @gnu_unique_object
	.size	_ZGVZN4asio15system_categoryEvE8instance, 8
_ZGVZN4asio15system_categoryEvE8instance:
	.zero	8
	.weak	_ZZN4asio15system_categoryEvE8instance
	.section	.data.rel._ZZN4asio15system_categoryEvE8instance,"awG",@progbits,_ZZN4asio15system_categoryEvE8instance,comdat
	.align 8
	.type	_ZZN4asio15system_categoryEvE8instance, @gnu_unique_object
	.size	_ZZN4asio15system_categoryEvE8instance, 8
_ZZN4asio15system_categoryEvE8instance:
	.quad	_ZTVN4asio6detail15system_categoryE+16
	.weak	_ZN4asio6detail15keyword_tss_ptrINS0_10call_stackINS0_15task_io_serviceENS0_27task_io_service_thread_infoEE7contextEE6value_E
	.section	.tbss._ZN4asio6detail15keyword_tss_ptrINS0_10call_stackINS0_15task_io_serviceENS0_27task_io_service_thread_infoEE7contextEE6value_E,"awTG",@nobits,_ZN4asio6detail15keyword_tss_ptrINS0_10call_stackINS0_15task_io_serviceENS0_27task_io_service_thread_infoEE7contextEE6value_E,comdat
	.align 8
	.type	_ZN4asio6detail15keyword_tss_ptrINS0_10call_stackINS0_15task_io_serviceENS0_27task_io_service_thread_infoEE7contextEE6value_E, @gnu_unique_object
	.size	_ZN4asio6detail15keyword_tss_ptrINS0_10call_stackINS0_15task_io_serviceENS0_27task_io_service_thread_infoEE7contextEE6value_E, 8
_ZN4asio6detail15keyword_tss_ptrINS0_10call_stackINS0_15task_io_serviceENS0_27task_io_service_thread_infoEE7contextEE6value_E:
	.zero	8
	.weak	_ZZNSt19_Sp_make_shared_tag5_S_tiEvE5__tag
	.section	.rodata._ZZNSt19_Sp_make_shared_tag5_S_tiEvE5__tag,"aG",@progbits,_ZZNSt19_Sp_make_shared_tag5_S_tiEvE5__tag,comdat
	.align 8
	.type	_ZZNSt19_Sp_make_shared_tag5_S_tiEvE5__tag, @gnu_unique_object
	.size	_ZZNSt19_Sp_make_shared_tag5_S_tiEvE5__tag, 16
_ZZNSt19_Sp_make_shared_tag5_S_tiEvE5__tag:
	.zero	16
	.section	.rodata.cst16,"aM",@progbits,16
	.align 16
.LC5:
	.quad	8028075772644520015
	.quad	7310593917846626414
	.align 16
.LC6:
	.quad	2334381286471394643
	.quad	7959390400869068654
	.align 16
.LC7:
	.quad	8367816086596579155
	.quad	2338616625292734585
	.align 16
.LC8:
	.quad	7234013753529430881
	.quad	8243030355803531634
	.align 16
.LC9:
	.quad	2338615488418245701
	.quad	7959390400869068654
	.align 16
.LC10:
	.quad	7166182912791242836
	.quad	7214892426067994994
	.align 16
.LC11:
	.quad	2338616625293649263
	.quad	8031165433303558502
	.align 16
.LC12:
	.quad	7810775711721485344
	.quad	7812726531955123045
	.align 16
.LC13:
	.quad	8390045716486254408
	.quad	2891421386351273504
	.align 16
.LC14:
	.quad	7526769937477431150
	.quad	8532478930943832687
	.align 16
.LC15:
	.quad	2340027324477221221
	.quad	7020021577750243169
	.align 16
.LC16:
	.quad	8243123821706831956
	.quad	7809653110584451193
	.align 16
.LC17:
	.quad	2338623170819155049
	.quad	2338324160631043177
	.align 16
.LC18:
	.quad	7311138144931573614
	.quad	7019250824563089696
	.align 16
.LC19:
	.quad	7309955097514876993
	.quad	7809911847770287971
	.align 16
.LC20:
	.quad	2338053693894893669
	.quad	7234314212361855855
	.align 16
.LC21:
	.quad	2334956330985808928
	.quad	7310293695322153316
	.align 16
.LC22:
	.quad	8387231026764149601
	.quad	8245935278387126884
	.section	.rodata.cst8,"aM",@progbits,8
	.align 8
.LC25:
	.long	1
	.long	1
	.weak	__cxa_pure_virtual
	.hidden	DW.ref.__gxx_personality_v0
	.weak	DW.ref.__gxx_personality_v0
	.section	.data.rel.local.DW.ref.__gxx_personality_v0,"awG",@progbits,DW.ref.__gxx_personality_v0,comdat
	.align 8
	.type	DW.ref.__gxx_personality_v0, @object
	.size	DW.ref.__gxx_personality_v0, 8
DW.ref.__gxx_personality_v0:
	.quad	__gxx_personality_v0
	.hidden	__dso_handle
	.ident	"GCC: (Ubuntu 11.4.0-1ubuntu1~22.04) 11.4.0"
	.section	.note.GNU-stack,"",@progbits
	.section	.note.gnu.property,"a"
	.align 8
	.long	1f - 0f
	.long	4f - 1f
	.long	5
0:
	.string	"GNU"
1:
	.align 8
	.long	0xc0000002
	.long	3f - 2f
2:
	.long	0x3
3:
	.align 8
4:
