	.file	"UpdateBuilder.cpp"
	.text
	.p2align 4
	.type	_ZNSt17_Function_handlerIFvRN8opendnp314IUpdateHandlerEEZN8asiodnp313UpdateBuilder6UpdateERKNS0_15TimeAndIntervalEtEUlS2_E_E9_M_invokeERKSt9_Any_dataS2_, @function
_ZNSt17_Function_handlerIFvRN8opendnp314IUpdateHandlerEEZN8asiodnp313UpdateBuilder6UpdateERKNS0_15TimeAndIntervalEtEUlS2_E_E9_M_invokeERKSt9_Any_dataS2_:
.LFB2236:
	.cfi_startproc
	endbr64
	movq	%rdi, %r8
	movq	%rsi, %rdi
	movq	(%rdi), %rax
	movq	(%r8), %rsi
	movzwl	16(%rsi), %edx
	jmp	*72(%rax)
	.cfi_endproc
.LFE2236:
	.size	_ZNSt17_Function_handlerIFvRN8opendnp314IUpdateHandlerEEZN8asiodnp313UpdateBuilder6UpdateERKNS0_15TimeAndIntervalEtEUlS2_E_E9_M_invokeERKSt9_Any_dataS2_, .-_ZNSt17_Function_handlerIFvRN8opendnp314IUpdateHandlerEEZN8asiodnp313UpdateBuilder6UpdateERKNS0_15TimeAndIntervalEtEUlS2_E_E9_M_invokeERKSt9_Any_dataS2_
	.p2align 4
	.type	_ZNSt17_Function_handlerIFvRN8opendnp314IUpdateHandlerEEZN8asiodnp313UpdateBuilder6ModifyENS0_9FlagsTypeEtthEUlS2_E_E9_M_invokeERKSt9_Any_dataS2_, @function
_ZNSt17_Function_handlerIFvRN8opendnp314IUpdateHandlerEEZN8asiodnp313UpdateBuilder6ModifyENS0_9FlagsTypeEtthEUlS2_E_E9_M_invokeERKSt9_Any_dataS2_:
.LFB2240:
	.cfi_startproc
	endbr64
	movq	%rdi, %rax
	movq	%rsi, %rdi
	movq	(%rsi), %rsi
	movzwl	4(%rax), %ecx
	movzwl	2(%rax), %edx
	movq	80(%rsi), %r9
	movzbl	6(%rax), %r8d
	movzbl	(%rax), %esi
	jmp	*%r9
	.cfi_endproc
.LFE2240:
	.size	_ZNSt17_Function_handlerIFvRN8opendnp314IUpdateHandlerEEZN8asiodnp313UpdateBuilder6ModifyENS0_9FlagsTypeEtthEUlS2_E_E9_M_invokeERKSt9_Any_dataS2_, .-_ZNSt17_Function_handlerIFvRN8opendnp314IUpdateHandlerEEZN8asiodnp313UpdateBuilder6ModifyENS0_9FlagsTypeEtthEUlS2_E_E9_M_invokeERKSt9_Any_dataS2_
	.section	.text._ZNSt17_Function_handlerIFvRN8opendnp314IUpdateHandlerEEZN8asiodnp313UpdateBuilder7AddMeasINS0_6BinaryEEERS5_RKT_tNS0_9EventModeEEUlS2_E_E9_M_invokeERKSt9_Any_dataS2_,"axG",@progbits,_ZNSt17_Function_handlerIFvRN8opendnp314IUpdateHandlerEEZN8asiodnp313UpdateBuilder7AddMeasINS0_6BinaryEEERS5_RKT_tNS0_9EventModeEEUlS2_E_E9_M_invokeERKSt9_Any_dataS2_,comdat
	.p2align 4
	.weak	_ZNSt17_Function_handlerIFvRN8opendnp314IUpdateHandlerEEZN8asiodnp313UpdateBuilder7AddMeasINS0_6BinaryEEERS5_RKT_tNS0_9EventModeEEUlS2_E_E9_M_invokeERKSt9_Any_dataS2_
	.type	_ZNSt17_Function_handlerIFvRN8opendnp314IUpdateHandlerEEZN8asiodnp313UpdateBuilder7AddMeasINS0_6BinaryEEERS5_RKT_tNS0_9EventModeEEUlS2_E_E9_M_invokeERKSt9_Any_dataS2_, @function
_ZNSt17_Function_handlerIFvRN8opendnp314IUpdateHandlerEEZN8asiodnp313UpdateBuilder7AddMeasINS0_6BinaryEEERS5_RKT_tNS0_9EventModeEEUlS2_E_E9_M_invokeERKSt9_Any_dataS2_:
.LFB2268:
	.cfi_startproc
	endbr64
	movq	%rdi, %r8
	movq	%rsi, %rdi
	movq	(%rdi), %rax
	movq	(%r8), %rsi
	movzbl	26(%rsi), %ecx
	movzwl	24(%rsi), %edx
	jmp	*16(%rax)
	.cfi_endproc
.LFE2268:
	.size	_ZNSt17_Function_handlerIFvRN8opendnp314IUpdateHandlerEEZN8asiodnp313UpdateBuilder7AddMeasINS0_6BinaryEEERS5_RKT_tNS0_9EventModeEEUlS2_E_E9_M_invokeERKSt9_Any_dataS2_, .-_ZNSt17_Function_handlerIFvRN8opendnp314IUpdateHandlerEEZN8asiodnp313UpdateBuilder7AddMeasINS0_6BinaryEEERS5_RKT_tNS0_9EventModeEEUlS2_E_E9_M_invokeERKSt9_Any_dataS2_
	.section	.text._ZNSt17_Function_handlerIFvRN8opendnp314IUpdateHandlerEEZN8asiodnp313UpdateBuilder7AddMeasINS0_15DoubleBitBinaryEEERS5_RKT_tNS0_9EventModeEEUlS2_E_E9_M_invokeERKSt9_Any_dataS2_,"axG",@progbits,_ZNSt17_Function_handlerIFvRN8opendnp314IUpdateHandlerEEZN8asiodnp313UpdateBuilder7AddMeasINS0_15DoubleBitBinaryEEERS5_RKT_tNS0_9EventModeEEUlS2_E_E9_M_invokeERKSt9_Any_dataS2_,comdat
	.p2align 4
	.weak	_ZNSt17_Function_handlerIFvRN8opendnp314IUpdateHandlerEEZN8asiodnp313UpdateBuilder7AddMeasINS0_15DoubleBitBinaryEEERS5_RKT_tNS0_9EventModeEEUlS2_E_E9_M_invokeERKSt9_Any_dataS2_
	.type	_ZNSt17_Function_handlerIFvRN8opendnp314IUpdateHandlerEEZN8asiodnp313UpdateBuilder7AddMeasINS0_15DoubleBitBinaryEEERS5_RKT_tNS0_9EventModeEEUlS2_E_E9_M_invokeERKSt9_Any_dataS2_, @function
_ZNSt17_Function_handlerIFvRN8opendnp314IUpdateHandlerEEZN8asiodnp313UpdateBuilder7AddMeasINS0_15DoubleBitBinaryEEERS5_RKT_tNS0_9EventModeEEUlS2_E_E9_M_invokeERKSt9_Any_dataS2_:
.LFB2272:
	.cfi_startproc
	endbr64
	movq	%rdi, %r8
	movq	%rsi, %rdi
	movq	(%rdi), %rax
	movq	(%r8), %rsi
	movzbl	26(%rsi), %ecx
	movzwl	24(%rsi), %edx
	jmp	*24(%rax)
	.cfi_endproc
.LFE2272:
	.size	_ZNSt17_Function_handlerIFvRN8opendnp314IUpdateHandlerEEZN8asiodnp313UpdateBuilder7AddMeasINS0_15DoubleBitBinaryEEERS5_RKT_tNS0_9EventModeEEUlS2_E_E9_M_invokeERKSt9_Any_dataS2_, .-_ZNSt17_Function_handlerIFvRN8opendnp314IUpdateHandlerEEZN8asiodnp313UpdateBuilder7AddMeasINS0_15DoubleBitBinaryEEERS5_RKT_tNS0_9EventModeEEUlS2_E_E9_M_invokeERKSt9_Any_dataS2_
	.section	.text._ZNSt17_Function_handlerIFvRN8opendnp314IUpdateHandlerEEZN8asiodnp313UpdateBuilder7AddMeasINS0_6AnalogEEERS5_RKT_tNS0_9EventModeEEUlS2_E_E9_M_invokeERKSt9_Any_dataS2_,"axG",@progbits,_ZNSt17_Function_handlerIFvRN8opendnp314IUpdateHandlerEEZN8asiodnp313UpdateBuilder7AddMeasINS0_6AnalogEEERS5_RKT_tNS0_9EventModeEEUlS2_E_E9_M_invokeERKSt9_Any_dataS2_,comdat
	.p2align 4
	.weak	_ZNSt17_Function_handlerIFvRN8opendnp314IUpdateHandlerEEZN8asiodnp313UpdateBuilder7AddMeasINS0_6AnalogEEERS5_RKT_tNS0_9EventModeEEUlS2_E_E9_M_invokeERKSt9_Any_dataS2_
	.type	_ZNSt17_Function_handlerIFvRN8opendnp314IUpdateHandlerEEZN8asiodnp313UpdateBuilder7AddMeasINS0_6AnalogEEERS5_RKT_tNS0_9EventModeEEUlS2_E_E9_M_invokeERKSt9_Any_dataS2_, @function
_ZNSt17_Function_handlerIFvRN8opendnp314IUpdateHandlerEEZN8asiodnp313UpdateBuilder7AddMeasINS0_6AnalogEEERS5_RKT_tNS0_9EventModeEEUlS2_E_E9_M_invokeERKSt9_Any_dataS2_:
.LFB2276:
	.cfi_startproc
	endbr64
	movq	%rdi, %r8
	movq	%rsi, %rdi
	movq	(%rdi), %rax
	movq	(%r8), %rsi
	movzbl	26(%rsi), %ecx
	movzwl	24(%rsi), %edx
	jmp	*32(%rax)
	.cfi_endproc
.LFE2276:
	.size	_ZNSt17_Function_handlerIFvRN8opendnp314IUpdateHandlerEEZN8asiodnp313UpdateBuilder7AddMeasINS0_6AnalogEEERS5_RKT_tNS0_9EventModeEEUlS2_E_E9_M_invokeERKSt9_Any_dataS2_, .-_ZNSt17_Function_handlerIFvRN8opendnp314IUpdateHandlerEEZN8asiodnp313UpdateBuilder7AddMeasINS0_6AnalogEEERS5_RKT_tNS0_9EventModeEEUlS2_E_E9_M_invokeERKSt9_Any_dataS2_
	.section	.text._ZNSt17_Function_handlerIFvRN8opendnp314IUpdateHandlerEEZN8asiodnp313UpdateBuilder7AddMeasINS0_7CounterEEERS5_RKT_tNS0_9EventModeEEUlS2_E_E9_M_invokeERKSt9_Any_dataS2_,"axG",@progbits,_ZNSt17_Function_handlerIFvRN8opendnp314IUpdateHandlerEEZN8asiodnp313UpdateBuilder7AddMeasINS0_7CounterEEERS5_RKT_tNS0_9EventModeEEUlS2_E_E9_M_invokeERKSt9_Any_dataS2_,comdat
	.p2align 4
	.weak	_ZNSt17_Function_handlerIFvRN8opendnp314IUpdateHandlerEEZN8asiodnp313UpdateBuilder7AddMeasINS0_7CounterEEERS5_RKT_tNS0_9EventModeEEUlS2_E_E9_M_invokeERKSt9_Any_dataS2_
	.type	_ZNSt17_Function_handlerIFvRN8opendnp314IUpdateHandlerEEZN8asiodnp313UpdateBuilder7AddMeasINS0_7CounterEEERS5_RKT_tNS0_9EventModeEEUlS2_E_E9_M_invokeERKSt9_Any_dataS2_, @function
_ZNSt17_Function_handlerIFvRN8opendnp314IUpdateHandlerEEZN8asiodnp313UpdateBuilder7AddMeasINS0_7CounterEEERS5_RKT_tNS0_9EventModeEEUlS2_E_E9_M_invokeERKSt9_Any_dataS2_:
.LFB2280:
	.cfi_startproc
	endbr64
	movq	%rdi, %r8
	movq	%rsi, %rdi
	movq	(%rdi), %rax
	movq	(%r8), %rsi
	movzbl	26(%rsi), %ecx
	movzwl	24(%rsi), %edx
	jmp	*40(%rax)
	.cfi_endproc
.LFE2280:
	.size	_ZNSt17_Function_handlerIFvRN8opendnp314IUpdateHandlerEEZN8asiodnp313UpdateBuilder7AddMeasINS0_7CounterEEERS5_RKT_tNS0_9EventModeEEUlS2_E_E9_M_invokeERKSt9_Any_dataS2_, .-_ZNSt17_Function_handlerIFvRN8opendnp314IUpdateHandlerEEZN8asiodnp313UpdateBuilder7AddMeasINS0_7CounterEEERS5_RKT_tNS0_9EventModeEEUlS2_E_E9_M_invokeERKSt9_Any_dataS2_
	.section	.text._ZNSt17_Function_handlerIFvRN8opendnp314IUpdateHandlerEEZN8asiodnp313UpdateBuilder7AddMeasINS0_13FrozenCounterEEERS5_RKT_tNS0_9EventModeEEUlS2_E_E9_M_invokeERKSt9_Any_dataS2_,"axG",@progbits,_ZNSt17_Function_handlerIFvRN8opendnp314IUpdateHandlerEEZN8asiodnp313UpdateBuilder7AddMeasINS0_13FrozenCounterEEERS5_RKT_tNS0_9EventModeEEUlS2_E_E9_M_invokeERKSt9_Any_dataS2_,comdat
	.p2align 4
	.weak	_ZNSt17_Function_handlerIFvRN8opendnp314IUpdateHandlerEEZN8asiodnp313UpdateBuilder7AddMeasINS0_13FrozenCounterEEERS5_RKT_tNS0_9EventModeEEUlS2_E_E9_M_invokeERKSt9_Any_dataS2_
	.type	_ZNSt17_Function_handlerIFvRN8opendnp314IUpdateHandlerEEZN8asiodnp313UpdateBuilder7AddMeasINS0_13FrozenCounterEEERS5_RKT_tNS0_9EventModeEEUlS2_E_E9_M_invokeERKSt9_Any_dataS2_, @function
_ZNSt17_Function_handlerIFvRN8opendnp314IUpdateHandlerEEZN8asiodnp313UpdateBuilder7AddMeasINS0_13FrozenCounterEEERS5_RKT_tNS0_9EventModeEEUlS2_E_E9_M_invokeERKSt9_Any_dataS2_:
.LFB2284:
	.cfi_startproc
	endbr64
	movq	%rdi, %r8
	movq	%rsi, %rdi
	movq	(%rdi), %rax
	movq	(%r8), %rsi
	movzbl	26(%rsi), %ecx
	movzwl	24(%rsi), %edx
	jmp	*48(%rax)
	.cfi_endproc
.LFE2284:
	.size	_ZNSt17_Function_handlerIFvRN8opendnp314IUpdateHandlerEEZN8asiodnp313UpdateBuilder7AddMeasINS0_13FrozenCounterEEERS5_RKT_tNS0_9EventModeEEUlS2_E_E9_M_invokeERKSt9_Any_dataS2_, .-_ZNSt17_Function_handlerIFvRN8opendnp314IUpdateHandlerEEZN8asiodnp313UpdateBuilder7AddMeasINS0_13FrozenCounterEEERS5_RKT_tNS0_9EventModeEEUlS2_E_E9_M_invokeERKSt9_Any_dataS2_
	.section	.text._ZNSt17_Function_handlerIFvRN8opendnp314IUpdateHandlerEEZN8asiodnp313UpdateBuilder7AddMeasINS0_18BinaryOutputStatusEEERS5_RKT_tNS0_9EventModeEEUlS2_E_E9_M_invokeERKSt9_Any_dataS2_,"axG",@progbits,_ZNSt17_Function_handlerIFvRN8opendnp314IUpdateHandlerEEZN8asiodnp313UpdateBuilder7AddMeasINS0_18BinaryOutputStatusEEERS5_RKT_tNS0_9EventModeEEUlS2_E_E9_M_invokeERKSt9_Any_dataS2_,comdat
	.p2align 4
	.weak	_ZNSt17_Function_handlerIFvRN8opendnp314IUpdateHandlerEEZN8asiodnp313UpdateBuilder7AddMeasINS0_18BinaryOutputStatusEEERS5_RKT_tNS0_9EventModeEEUlS2_E_E9_M_invokeERKSt9_Any_dataS2_
	.type	_ZNSt17_Function_handlerIFvRN8opendnp314IUpdateHandlerEEZN8asiodnp313UpdateBuilder7AddMeasINS0_18BinaryOutputStatusEEERS5_RKT_tNS0_9EventModeEEUlS2_E_E9_M_invokeERKSt9_Any_dataS2_, @function
_ZNSt17_Function_handlerIFvRN8opendnp314IUpdateHandlerEEZN8asiodnp313UpdateBuilder7AddMeasINS0_18BinaryOutputStatusEEERS5_RKT_tNS0_9EventModeEEUlS2_E_E9_M_invokeERKSt9_Any_dataS2_:
.LFB2288:
	.cfi_startproc
	endbr64
	movq	%rdi, %r8
	movq	%rsi, %rdi
	movq	(%rdi), %rax
	movq	(%r8), %rsi
	movzbl	26(%rsi), %ecx
	movzwl	24(%rsi), %edx
	jmp	*56(%rax)
	.cfi_endproc
.LFE2288:
	.size	_ZNSt17_Function_handlerIFvRN8opendnp314IUpdateHandlerEEZN8asiodnp313UpdateBuilder7AddMeasINS0_18BinaryOutputStatusEEERS5_RKT_tNS0_9EventModeEEUlS2_E_E9_M_invokeERKSt9_Any_dataS2_, .-_ZNSt17_Function_handlerIFvRN8opendnp314IUpdateHandlerEEZN8asiodnp313UpdateBuilder7AddMeasINS0_18BinaryOutputStatusEEERS5_RKT_tNS0_9EventModeEEUlS2_E_E9_M_invokeERKSt9_Any_dataS2_
	.section	.text._ZNSt17_Function_handlerIFvRN8opendnp314IUpdateHandlerEEZN8asiodnp313UpdateBuilder7AddMeasINS0_18AnalogOutputStatusEEERS5_RKT_tNS0_9EventModeEEUlS2_E_E9_M_invokeERKSt9_Any_dataS2_,"axG",@progbits,_ZNSt17_Function_handlerIFvRN8opendnp314IUpdateHandlerEEZN8asiodnp313UpdateBuilder7AddMeasINS0_18AnalogOutputStatusEEERS5_RKT_tNS0_9EventModeEEUlS2_E_E9_M_invokeERKSt9_Any_dataS2_,comdat
	.p2align 4
	.weak	_ZNSt17_Function_handlerIFvRN8opendnp314IUpdateHandlerEEZN8asiodnp313UpdateBuilder7AddMeasINS0_18AnalogOutputStatusEEERS5_RKT_tNS0_9EventModeEEUlS2_E_E9_M_invokeERKSt9_Any_dataS2_
	.type	_ZNSt17_Function_handlerIFvRN8opendnp314IUpdateHandlerEEZN8asiodnp313UpdateBuilder7AddMeasINS0_18AnalogOutputStatusEEERS5_RKT_tNS0_9EventModeEEUlS2_E_E9_M_invokeERKSt9_Any_dataS2_, @function
_ZNSt17_Function_handlerIFvRN8opendnp314IUpdateHandlerEEZN8asiodnp313UpdateBuilder7AddMeasINS0_18AnalogOutputStatusEEERS5_RKT_tNS0_9EventModeEEUlS2_E_E9_M_invokeERKSt9_Any_dataS2_:
.LFB2292:
	.cfi_startproc
	endbr64
	movq	%rdi, %r8
	movq	%rsi, %rdi
	movq	(%rdi), %rax
	movq	(%r8), %rsi
	movzbl	26(%rsi), %ecx
	movzwl	24(%rsi), %edx
	jmp	*64(%rax)
	.cfi_endproc
.LFE2292:
	.size	_ZNSt17_Function_handlerIFvRN8opendnp314IUpdateHandlerEEZN8asiodnp313UpdateBuilder7AddMeasINS0_18AnalogOutputStatusEEERS5_RKT_tNS0_9EventModeEEUlS2_E_E9_M_invokeERKSt9_Any_dataS2_, .-_ZNSt17_Function_handlerIFvRN8opendnp314IUpdateHandlerEEZN8asiodnp313UpdateBuilder7AddMeasINS0_18AnalogOutputStatusEEERS5_RKT_tNS0_9EventModeEEUlS2_E_E9_M_invokeERKSt9_Any_dataS2_
	.section	.text._ZNSt23_Sp_counted_ptr_inplaceISt6vectorISt8functionIFvRN8opendnp314IUpdateHandlerEEESaIS6_EESaIS8_ELN9__gnu_cxx12_Lock_policyE2EED2Ev,"axG",@progbits,_ZNSt23_Sp_counted_ptr_inplaceISt6vectorISt8functionIFvRN8opendnp314IUpdateHandlerEEESaIS6_EESaIS8_ELN9__gnu_cxx12_Lock_policyE2EED5Ev,comdat
	.align 2
	.p2align 4
	.weak	_ZNSt23_Sp_counted_ptr_inplaceISt6vectorISt8functionIFvRN8opendnp314IUpdateHandlerEEESaIS6_EESaIS8_ELN9__gnu_cxx12_Lock_policyE2EED2Ev
	.type	_ZNSt23_Sp_counted_ptr_inplaceISt6vectorISt8functionIFvRN8opendnp314IUpdateHandlerEEESaIS6_EESaIS8_ELN9__gnu_cxx12_Lock_policyE2EED2Ev, @function
_ZNSt23_Sp_counted_ptr_inplaceISt6vectorISt8functionIFvRN8opendnp314IUpdateHandlerEEESaIS6_EESaIS8_ELN9__gnu_cxx12_Lock_policyE2EED2Ev:
.LFB2621:
	.cfi_startproc
	endbr64
	ret
	.cfi_endproc
.LFE2621:
	.size	_ZNSt23_Sp_counted_ptr_inplaceISt6vectorISt8functionIFvRN8opendnp314IUpdateHandlerEEESaIS6_EESaIS8_ELN9__gnu_cxx12_Lock_policyE2EED2Ev, .-_ZNSt23_Sp_counted_ptr_inplaceISt6vectorISt8functionIFvRN8opendnp314IUpdateHandlerEEESaIS6_EESaIS8_ELN9__gnu_cxx12_Lock_policyE2EED2Ev
	.weak	_ZNSt23_Sp_counted_ptr_inplaceISt6vectorISt8functionIFvRN8opendnp314IUpdateHandlerEEESaIS6_EESaIS8_ELN9__gnu_cxx12_Lock_policyE2EED1Ev
	.set	_ZNSt23_Sp_counted_ptr_inplaceISt6vectorISt8functionIFvRN8opendnp314IUpdateHandlerEEESaIS6_EESaIS8_ELN9__gnu_cxx12_Lock_policyE2EED1Ev,_ZNSt23_Sp_counted_ptr_inplaceISt6vectorISt8functionIFvRN8opendnp314IUpdateHandlerEEESaIS6_EESaIS8_ELN9__gnu_cxx12_Lock_policyE2EED2Ev
	.section	.text._ZNSt23_Sp_counted_ptr_inplaceISt6vectorISt8functionIFvRN8opendnp314IUpdateHandlerEEESaIS6_EESaIS8_ELN9__gnu_cxx12_Lock_policyE2EED0Ev,"axG",@progbits,_ZNSt23_Sp_counted_ptr_inplaceISt6vectorISt8functionIFvRN8opendnp314IUpdateHandlerEEESaIS6_EESaIS8_ELN9__gnu_cxx12_Lock_policyE2EED5Ev,comdat
	.align 2
	.p2align 4
	.weak	_ZNSt23_Sp_counted_ptr_inplaceISt6vectorISt8functionIFvRN8opendnp314IUpdateHandlerEEESaIS6_EESaIS8_ELN9__gnu_cxx12_Lock_policyE2EED0Ev
	.type	_ZNSt23_Sp_counted_ptr_inplaceISt6vectorISt8functionIFvRN8opendnp314IUpdateHandlerEEESaIS6_EESaIS8_ELN9__gnu_cxx12_Lock_policyE2EED0Ev, @function
_ZNSt23_Sp_counted_ptr_inplaceISt6vectorISt8functionIFvRN8opendnp314IUpdateHandlerEEESaIS6_EESaIS8_ELN9__gnu_cxx12_Lock_policyE2EED0Ev:
.LFB2623:
	.cfi_startproc
	endbr64
	movl	$40, %esi
	jmp	_ZdlPvm@PLT
	.cfi_endproc
.LFE2623:
	.size	_ZNSt23_Sp_counted_ptr_inplaceISt6vectorISt8functionIFvRN8opendnp314IUpdateHandlerEEESaIS6_EESaIS8_ELN9__gnu_cxx12_Lock_policyE2EED0Ev, .-_ZNSt23_Sp_counted_ptr_inplaceISt6vectorISt8functionIFvRN8opendnp314IUpdateHandlerEEESaIS6_EESaIS8_ELN9__gnu_cxx12_Lock_policyE2EED0Ev
	.section	.text._ZNSt23_Sp_counted_ptr_inplaceISt6vectorISt8functionIFvRN8opendnp314IUpdateHandlerEEESaIS6_EESaIS8_ELN9__gnu_cxx12_Lock_policyE2EE10_M_destroyEv,"axG",@progbits,_ZNSt23_Sp_counted_ptr_inplaceISt6vectorISt8functionIFvRN8opendnp314IUpdateHandlerEEESaIS6_EESaIS8_ELN9__gnu_cxx12_Lock_policyE2EE10_M_destroyEv,comdat
	.align 2
	.p2align 4
	.weak	_ZNSt23_Sp_counted_ptr_inplaceISt6vectorISt8functionIFvRN8opendnp314IUpdateHandlerEEESaIS6_EESaIS8_ELN9__gnu_cxx12_Lock_policyE2EE10_M_destroyEv
	.type	_ZNSt23_Sp_counted_ptr_inplaceISt6vectorISt8functionIFvRN8opendnp314IUpdateHandlerEEESaIS6_EESaIS8_ELN9__gnu_cxx12_Lock_policyE2EE10_M_destroyEv, @function
_ZNSt23_Sp_counted_ptr_inplaceISt6vectorISt8functionIFvRN8opendnp314IUpdateHandlerEEESaIS6_EESaIS8_ELN9__gnu_cxx12_Lock_policyE2EE10_M_destroyEv:
.LFB2625:
	.cfi_startproc
	endbr64
	movl	$40, %esi
	jmp	_ZdlPvm@PLT
	.cfi_endproc
.LFE2625:
	.size	_ZNSt23_Sp_counted_ptr_inplaceISt6vectorISt8functionIFvRN8opendnp314IUpdateHandlerEEESaIS6_EESaIS8_ELN9__gnu_cxx12_Lock_policyE2EE10_M_destroyEv, .-_ZNSt23_Sp_counted_ptr_inplaceISt6vectorISt8functionIFvRN8opendnp314IUpdateHandlerEEESaIS6_EESaIS8_ELN9__gnu_cxx12_Lock_policyE2EE10_M_destroyEv
	.section	.text._ZNSt23_Sp_counted_ptr_inplaceISt6vectorISt8functionIFvRN8opendnp314IUpdateHandlerEEESaIS6_EESaIS8_ELN9__gnu_cxx12_Lock_policyE2EE10_M_disposeEv,"axG",@progbits,_ZNSt23_Sp_counted_ptr_inplaceISt6vectorISt8functionIFvRN8opendnp314IUpdateHandlerEEESaIS6_EESaIS8_ELN9__gnu_cxx12_Lock_policyE2EE10_M_disposeEv,comdat
	.align 2
	.p2align 4
	.weak	_ZNSt23_Sp_counted_ptr_inplaceISt6vectorISt8functionIFvRN8opendnp314IUpdateHandlerEEESaIS6_EESaIS8_ELN9__gnu_cxx12_Lock_policyE2EE10_M_disposeEv
	.type	_ZNSt23_Sp_counted_ptr_inplaceISt6vectorISt8functionIFvRN8opendnp314IUpdateHandlerEEESaIS6_EESaIS8_ELN9__gnu_cxx12_Lock_policyE2EE10_M_disposeEv, @function
_ZNSt23_Sp_counted_ptr_inplaceISt6vectorISt8functionIFvRN8opendnp314IUpdateHandlerEEESaIS6_EESaIS8_ELN9__gnu_cxx12_Lock_policyE2EE10_M_disposeEv:
.LFB2624:
	.cfi_startproc
	.cfi_personality 0x9b,DW.ref.__gxx_personality_v0
	.cfi_lsda 0x1b,.LLSDA2624
	endbr64
	pushq	%r12
	.cfi_def_cfa_offset 16
	.cfi_offset 12, -16
	movq	%rdi, %r12
	pushq	%rbp
	.cfi_def_cfa_offset 24
	.cfi_offset 6, -24
	pushq	%rbx
	.cfi_def_cfa_offset 32
	.cfi_offset 3, -32
	movq	24(%rdi), %rbx
	movq	16(%rdi), %rbp
	cmpq	%rbp, %rbx
	je	.L15
	.p2align 4,,10
	.p2align 3
.L19:
	movq	16(%rbp), %rax
	testq	%rax, %rax
	je	.L16
	movq	%rbp, %rsi
	movq	%rbp, %rdi
	addq	$32, %rbp
	movl	$3, %edx
	call	*%rax
	cmpq	%rbp, %rbx
	jne	.L19
.L18:
	movq	16(%r12), %rbp
.L15:
	testq	%rbp, %rbp
	je	.L14
	movq	32(%r12), %rsi
	popq	%rbx
	.cfi_remember_state
	.cfi_def_cfa_offset 24
	movq	%rbp, %rdi
	subq	%rbp, %rsi
	popq	%rbp
	.cfi_def_cfa_offset 16
	popq	%r12
	.cfi_def_cfa_offset 8
	jmp	_ZdlPvm@PLT
	.p2align 4,,10
	.p2align 3
.L16:
	.cfi_restore_state
	addq	$32, %rbp
	cmpq	%rbp, %rbx
	jne	.L19
	jmp	.L18
	.p2align 4,,10
	.p2align 3
.L14:
	popq	%rbx
	.cfi_def_cfa_offset 24
	popq	%rbp
	.cfi_def_cfa_offset 16
	popq	%r12
	.cfi_def_cfa_offset 8
	ret
	.cfi_endproc
.LFE2624:
	.globl	__gxx_personality_v0
	.section	.gcc_except_table._ZNSt23_Sp_counted_ptr_inplaceISt6vectorISt8functionIFvRN8opendnp314IUpdateHandlerEEESaIS6_EESaIS8_ELN9__gnu_cxx12_Lock_policyE2EE10_M_disposeEv,"aG",@progbits,_ZNSt23_Sp_counted_ptr_inplaceISt6vectorISt8functionIFvRN8opendnp314IUpdateHandlerEEESaIS6_EESaIS8_ELN9__gnu_cxx12_Lock_policyE2EE10_M_disposeEv,comdat
.LLSDA2624:
	.byte	0xff
	.byte	0xff
	.byte	0x1
	.uleb128 .LLSDACSE2624-.LLSDACSB2624
.LLSDACSB2624:
.LLSDACSE2624:
	.section	.text._ZNSt23_Sp_counted_ptr_inplaceISt6vectorISt8functionIFvRN8opendnp314IUpdateHandlerEEESaIS6_EESaIS8_ELN9__gnu_cxx12_Lock_policyE2EE10_M_disposeEv,"axG",@progbits,_ZNSt23_Sp_counted_ptr_inplaceISt6vectorISt8functionIFvRN8opendnp314IUpdateHandlerEEESaIS6_EESaIS8_ELN9__gnu_cxx12_Lock_policyE2EE10_M_disposeEv,comdat
	.size	_ZNSt23_Sp_counted_ptr_inplaceISt6vectorISt8functionIFvRN8opendnp314IUpdateHandlerEEESaIS6_EESaIS8_ELN9__gnu_cxx12_Lock_policyE2EE10_M_disposeEv, .-_ZNSt23_Sp_counted_ptr_inplaceISt6vectorISt8functionIFvRN8opendnp314IUpdateHandlerEEESaIS6_EESaIS8_ELN9__gnu_cxx12_Lock_policyE2EE10_M_disposeEv
	.section	.text._ZNSt23_Sp_counted_ptr_inplaceISt6vectorISt8functionIFvRN8opendnp314IUpdateHandlerEEESaIS6_EESaIS8_ELN9__gnu_cxx12_Lock_policyE2EE14_M_get_deleterERKSt9type_info,"axG",@progbits,_ZNSt23_Sp_counted_ptr_inplaceISt6vectorISt8functionIFvRN8opendnp314IUpdateHandlerEEESaIS6_EESaIS8_ELN9__gnu_cxx12_Lock_policyE2EE14_M_get_deleterERKSt9type_info,comdat
	.align 2
	.p2align 4
	.weak	_ZNSt23_Sp_counted_ptr_inplaceISt6vectorISt8functionIFvRN8opendnp314IUpdateHandlerEEESaIS6_EESaIS8_ELN9__gnu_cxx12_Lock_policyE2EE14_M_get_deleterERKSt9type_info
	.type	_ZNSt23_Sp_counted_ptr_inplaceISt6vectorISt8functionIFvRN8opendnp314IUpdateHandlerEEESaIS6_EESaIS8_ELN9__gnu_cxx12_Lock_policyE2EE14_M_get_deleterERKSt9type_info, @function
_ZNSt23_Sp_counted_ptr_inplaceISt6vectorISt8functionIFvRN8opendnp314IUpdateHandlerEEESaIS6_EESaIS8_ELN9__gnu_cxx12_Lock_policyE2EE14_M_get_deleterERKSt9type_info:
.LFB2626:
	.cfi_startproc
	endbr64
	cmpq	_ZZNSt19_Sp_make_shared_tag5_S_tiEvE5__tag@GOTPCREL(%rip), %rsi
	pushq	%r12
	.cfi_def_cfa_offset 16
	.cfi_offset 12, -16
	leaq	16(%rdi), %r12
	je	.L22
	movq	8(%rsi), %rdi
	movq	_ZTSSt19_Sp_make_shared_tag@GOTPCREL(%rip), %rsi
	cmpq	%rsi, %rdi
	je	.L22
	cmpb	$42, (%rdi)
	je	.L24
	call	strcmp@PLT
	testl	%eax, %eax
	movl	$0, %eax
	cmovne	%rax, %r12
.L22:
	movq	%r12, %rax
	popq	%r12
	.cfi_remember_state
	.cfi_def_cfa_offset 8
	ret
	.p2align 4,,10
	.p2align 3
.L24:
	.cfi_restore_state
	xorl	%r12d, %r12d
	movq	%r12, %rax
	popq	%r12
	.cfi_def_cfa_offset 8
	ret
	.cfi_endproc
.LFE2626:
	.size	_ZNSt23_Sp_counted_ptr_inplaceISt6vectorISt8functionIFvRN8opendnp314IUpdateHandlerEEESaIS6_EESaIS8_ELN9__gnu_cxx12_Lock_policyE2EE14_M_get_deleterERKSt9type_info, .-_ZNSt23_Sp_counted_ptr_inplaceISt6vectorISt8functionIFvRN8opendnp314IUpdateHandlerEEESaIS6_EESaIS8_ELN9__gnu_cxx12_Lock_policyE2EE14_M_get_deleterERKSt9type_info
	.text
	.p2align 4
	.type	_ZNSt17_Function_handlerIFvRN8opendnp314IUpdateHandlerEEZN8asiodnp313UpdateBuilder6ModifyENS0_9FlagsTypeEtthEUlS2_E_E10_M_managerERSt9_Any_dataRKS9_St18_Manager_operation, @function
_ZNSt17_Function_handlerIFvRN8opendnp314IUpdateHandlerEEZN8asiodnp313UpdateBuilder6ModifyENS0_9FlagsTypeEtthEUlS2_E_E10_M_managerERSt9_Any_dataRKS9_St18_Manager_operation:
.LFB2241:
	.cfi_startproc
	endbr64
	testl	%edx, %edx
	je	.L28
	cmpl	$1, %edx
	je	.L29
	cmpl	$2, %edx
	je	.L33
.L31:
	xorl	%eax, %eax
	ret
	.p2align 4,,10
	.p2align 3
.L28:
	leaq	_ZTIZN8asiodnp313UpdateBuilder6ModifyEN8opendnp39FlagsTypeEtthEUlRNS1_14IUpdateHandlerEE_(%rip), %rax
	movq	%rax, (%rdi)
	xorl	%eax, %eax
	ret
	.p2align 4,,10
	.p2align 3
.L29:
	movq	%rsi, (%rdi)
	xorl	%eax, %eax
	ret
	.p2align 4,,10
	.p2align 3
.L33:
	movq	(%rsi), %rax
	movq	%rax, (%rdi)
	jmp	.L31
	.cfi_endproc
.LFE2241:
	.size	_ZNSt17_Function_handlerIFvRN8opendnp314IUpdateHandlerEEZN8asiodnp313UpdateBuilder6ModifyENS0_9FlagsTypeEtthEUlS2_E_E10_M_managerERSt9_Any_dataRKS9_St18_Manager_operation, .-_ZNSt17_Function_handlerIFvRN8opendnp314IUpdateHandlerEEZN8asiodnp313UpdateBuilder6ModifyENS0_9FlagsTypeEtthEUlS2_E_E10_M_managerERSt9_Any_dataRKS9_St18_Manager_operation
	.section	.text._ZNSt17_Function_handlerIFvRN8opendnp314IUpdateHandlerEEZN8asiodnp313UpdateBuilder7AddMeasINS0_18AnalogOutputStatusEEERS5_RKT_tNS0_9EventModeEEUlS2_E_E10_M_managerERSt9_Any_dataRKSF_St18_Manager_operation,"axG",@progbits,_ZNSt17_Function_handlerIFvRN8opendnp314IUpdateHandlerEEZN8asiodnp313UpdateBuilder7AddMeasINS0_18AnalogOutputStatusEEERS5_RKT_tNS0_9EventModeEEUlS2_E_E10_M_managerERSt9_Any_dataRKSF_St18_Manager_operation,comdat
	.p2align 4
	.weak	_ZNSt17_Function_handlerIFvRN8opendnp314IUpdateHandlerEEZN8asiodnp313UpdateBuilder7AddMeasINS0_18AnalogOutputStatusEEERS5_RKT_tNS0_9EventModeEEUlS2_E_E10_M_managerERSt9_Any_dataRKSF_St18_Manager_operation
	.type	_ZNSt17_Function_handlerIFvRN8opendnp314IUpdateHandlerEEZN8asiodnp313UpdateBuilder7AddMeasINS0_18AnalogOutputStatusEEERS5_RKT_tNS0_9EventModeEEUlS2_E_E10_M_managerERSt9_Any_dataRKSF_St18_Manager_operation, @function
_ZNSt17_Function_handlerIFvRN8opendnp314IUpdateHandlerEEZN8asiodnp313UpdateBuilder7AddMeasINS0_18AnalogOutputStatusEEERS5_RKT_tNS0_9EventModeEEUlS2_E_E10_M_managerERSt9_Any_dataRKSF_St18_Manager_operation:
.LFB2293:
	.cfi_startproc
	endbr64
	pushq	%rbp
	.cfi_def_cfa_offset 16
	.cfi_offset 6, -16
	pushq	%rbx
	.cfi_def_cfa_offset 24
	.cfi_offset 3, -24
	movq	%rdi, %rbx
	subq	$8, %rsp
	.cfi_def_cfa_offset 32
	testl	%edx, %edx
	je	.L35
	cmpl	$1, %edx
	je	.L36
	cmpl	$2, %edx
	je	.L39
	cmpl	$3, %edx
	jne	.L38
	movq	(%rdi), %rdi
	testq	%rdi, %rdi
	je	.L38
	movl	$32, %esi
	call	_ZdlPvm@PLT
.L38:
	addq	$8, %rsp
	.cfi_remember_state
	.cfi_def_cfa_offset 24
	xorl	%eax, %eax
	popq	%rbx
	.cfi_def_cfa_offset 16
	popq	%rbp
	.cfi_def_cfa_offset 8
	ret
	.p2align 4,,10
	.p2align 3
.L35:
	.cfi_restore_state
	movq	_ZTIZN8asiodnp313UpdateBuilder7AddMeasIN8opendnp318AnalogOutputStatusEEERS0_RKT_tNS2_9EventModeEEUlRNS2_14IUpdateHandlerEE_@GOTPCREL(%rip), %rax
	movq	%rax, (%rdi)
	addq	$8, %rsp
	.cfi_remember_state
	.cfi_def_cfa_offset 24
	xorl	%eax, %eax
	popq	%rbx
	.cfi_def_cfa_offset 16
	popq	%rbp
	.cfi_def_cfa_offset 8
	ret
	.p2align 4,,10
	.p2align 3
.L36:
	.cfi_restore_state
	movq	(%rsi), %rax
	movq	%rax, (%rdi)
	addq	$8, %rsp
	.cfi_remember_state
	.cfi_def_cfa_offset 24
	xorl	%eax, %eax
	popq	%rbx
	.cfi_def_cfa_offset 16
	popq	%rbp
	.cfi_def_cfa_offset 8
	ret
	.p2align 4,,10
	.p2align 3
.L39:
	.cfi_restore_state
	movq	(%rsi), %rbp
	movl	$32, %edi
	call	_Znwm@PLT
	movdqu	0(%rbp), %xmm0
	movups	%xmm0, (%rax)
	movdqu	16(%rbp), %xmm1
	movups	%xmm1, 16(%rax)
	movq	%rax, (%rbx)
	jmp	.L38
	.cfi_endproc
.LFE2293:
	.size	_ZNSt17_Function_handlerIFvRN8opendnp314IUpdateHandlerEEZN8asiodnp313UpdateBuilder7AddMeasINS0_18AnalogOutputStatusEEERS5_RKT_tNS0_9EventModeEEUlS2_E_E10_M_managerERSt9_Any_dataRKSF_St18_Manager_operation, .-_ZNSt17_Function_handlerIFvRN8opendnp314IUpdateHandlerEEZN8asiodnp313UpdateBuilder7AddMeasINS0_18AnalogOutputStatusEEERS5_RKT_tNS0_9EventModeEEUlS2_E_E10_M_managerERSt9_Any_dataRKSF_St18_Manager_operation
	.section	.text._ZNSt17_Function_handlerIFvRN8opendnp314IUpdateHandlerEEZN8asiodnp313UpdateBuilder7AddMeasINS0_18BinaryOutputStatusEEERS5_RKT_tNS0_9EventModeEEUlS2_E_E10_M_managerERSt9_Any_dataRKSF_St18_Manager_operation,"axG",@progbits,_ZNSt17_Function_handlerIFvRN8opendnp314IUpdateHandlerEEZN8asiodnp313UpdateBuilder7AddMeasINS0_18BinaryOutputStatusEEERS5_RKT_tNS0_9EventModeEEUlS2_E_E10_M_managerERSt9_Any_dataRKSF_St18_Manager_operation,comdat
	.p2align 4
	.weak	_ZNSt17_Function_handlerIFvRN8opendnp314IUpdateHandlerEEZN8asiodnp313UpdateBuilder7AddMeasINS0_18BinaryOutputStatusEEERS5_RKT_tNS0_9EventModeEEUlS2_E_E10_M_managerERSt9_Any_dataRKSF_St18_Manager_operation
	.type	_ZNSt17_Function_handlerIFvRN8opendnp314IUpdateHandlerEEZN8asiodnp313UpdateBuilder7AddMeasINS0_18BinaryOutputStatusEEERS5_RKT_tNS0_9EventModeEEUlS2_E_E10_M_managerERSt9_Any_dataRKSF_St18_Manager_operation, @function
_ZNSt17_Function_handlerIFvRN8opendnp314IUpdateHandlerEEZN8asiodnp313UpdateBuilder7AddMeasINS0_18BinaryOutputStatusEEERS5_RKT_tNS0_9EventModeEEUlS2_E_E10_M_managerERSt9_Any_dataRKSF_St18_Manager_operation:
.LFB2289:
	.cfi_startproc
	endbr64
	pushq	%rbp
	.cfi_def_cfa_offset 16
	.cfi_offset 6, -16
	pushq	%rbx
	.cfi_def_cfa_offset 24
	.cfi_offset 3, -24
	movq	%rdi, %rbx
	subq	$8, %rsp
	.cfi_def_cfa_offset 32
	testl	%edx, %edx
	je	.L47
	cmpl	$1, %edx
	je	.L48
	cmpl	$2, %edx
	je	.L51
	cmpl	$3, %edx
	jne	.L50
	movq	(%rdi), %rdi
	testq	%rdi, %rdi
	je	.L50
	movl	$32, %esi
	call	_ZdlPvm@PLT
.L50:
	addq	$8, %rsp
	.cfi_remember_state
	.cfi_def_cfa_offset 24
	xorl	%eax, %eax
	popq	%rbx
	.cfi_def_cfa_offset 16
	popq	%rbp
	.cfi_def_cfa_offset 8
	ret
	.p2align 4,,10
	.p2align 3
.L47:
	.cfi_restore_state
	movq	_ZTIZN8asiodnp313UpdateBuilder7AddMeasIN8opendnp318BinaryOutputStatusEEERS0_RKT_tNS2_9EventModeEEUlRNS2_14IUpdateHandlerEE_@GOTPCREL(%rip), %rax
	movq	%rax, (%rdi)
	addq	$8, %rsp
	.cfi_remember_state
	.cfi_def_cfa_offset 24
	xorl	%eax, %eax
	popq	%rbx
	.cfi_def_cfa_offset 16
	popq	%rbp
	.cfi_def_cfa_offset 8
	ret
	.p2align 4,,10
	.p2align 3
.L48:
	.cfi_restore_state
	movq	(%rsi), %rax
	movq	%rax, (%rdi)
	addq	$8, %rsp
	.cfi_remember_state
	.cfi_def_cfa_offset 24
	xorl	%eax, %eax
	popq	%rbx
	.cfi_def_cfa_offset 16
	popq	%rbp
	.cfi_def_cfa_offset 8
	ret
	.p2align 4,,10
	.p2align 3
.L51:
	.cfi_restore_state
	movq	(%rsi), %rbp
	movl	$32, %edi
	call	_Znwm@PLT
	movdqu	0(%rbp), %xmm0
	movups	%xmm0, (%rax)
	movdqu	16(%rbp), %xmm1
	movups	%xmm1, 16(%rax)
	movq	%rax, (%rbx)
	jmp	.L50
	.cfi_endproc
.LFE2289:
	.size	_ZNSt17_Function_handlerIFvRN8opendnp314IUpdateHandlerEEZN8asiodnp313UpdateBuilder7AddMeasINS0_18BinaryOutputStatusEEERS5_RKT_tNS0_9EventModeEEUlS2_E_E10_M_managerERSt9_Any_dataRKSF_St18_Manager_operation, .-_ZNSt17_Function_handlerIFvRN8opendnp314IUpdateHandlerEEZN8asiodnp313UpdateBuilder7AddMeasINS0_18BinaryOutputStatusEEERS5_RKT_tNS0_9EventModeEEUlS2_E_E10_M_managerERSt9_Any_dataRKSF_St18_Manager_operation
	.section	.text._ZNSt17_Function_handlerIFvRN8opendnp314IUpdateHandlerEEZN8asiodnp313UpdateBuilder7AddMeasINS0_13FrozenCounterEEERS5_RKT_tNS0_9EventModeEEUlS2_E_E10_M_managerERSt9_Any_dataRKSF_St18_Manager_operation,"axG",@progbits,_ZNSt17_Function_handlerIFvRN8opendnp314IUpdateHandlerEEZN8asiodnp313UpdateBuilder7AddMeasINS0_13FrozenCounterEEERS5_RKT_tNS0_9EventModeEEUlS2_E_E10_M_managerERSt9_Any_dataRKSF_St18_Manager_operation,comdat
	.p2align 4
	.weak	_ZNSt17_Function_handlerIFvRN8opendnp314IUpdateHandlerEEZN8asiodnp313UpdateBuilder7AddMeasINS0_13FrozenCounterEEERS5_RKT_tNS0_9EventModeEEUlS2_E_E10_M_managerERSt9_Any_dataRKSF_St18_Manager_operation
	.type	_ZNSt17_Function_handlerIFvRN8opendnp314IUpdateHandlerEEZN8asiodnp313UpdateBuilder7AddMeasINS0_13FrozenCounterEEERS5_RKT_tNS0_9EventModeEEUlS2_E_E10_M_managerERSt9_Any_dataRKSF_St18_Manager_operation, @function
_ZNSt17_Function_handlerIFvRN8opendnp314IUpdateHandlerEEZN8asiodnp313UpdateBuilder7AddMeasINS0_13FrozenCounterEEERS5_RKT_tNS0_9EventModeEEUlS2_E_E10_M_managerERSt9_Any_dataRKSF_St18_Manager_operation:
.LFB2285:
	.cfi_startproc
	endbr64
	pushq	%rbp
	.cfi_def_cfa_offset 16
	.cfi_offset 6, -16
	pushq	%rbx
	.cfi_def_cfa_offset 24
	.cfi_offset 3, -24
	movq	%rdi, %rbx
	subq	$8, %rsp
	.cfi_def_cfa_offset 32
	testl	%edx, %edx
	je	.L59
	cmpl	$1, %edx
	je	.L60
	cmpl	$2, %edx
	je	.L63
	cmpl	$3, %edx
	jne	.L62
	movq	(%rdi), %rdi
	testq	%rdi, %rdi
	je	.L62
	movl	$32, %esi
	call	_ZdlPvm@PLT
.L62:
	addq	$8, %rsp
	.cfi_remember_state
	.cfi_def_cfa_offset 24
	xorl	%eax, %eax
	popq	%rbx
	.cfi_def_cfa_offset 16
	popq	%rbp
	.cfi_def_cfa_offset 8
	ret
	.p2align 4,,10
	.p2align 3
.L59:
	.cfi_restore_state
	movq	_ZTIZN8asiodnp313UpdateBuilder7AddMeasIN8opendnp313FrozenCounterEEERS0_RKT_tNS2_9EventModeEEUlRNS2_14IUpdateHandlerEE_@GOTPCREL(%rip), %rax
	movq	%rax, (%rdi)
	addq	$8, %rsp
	.cfi_remember_state
	.cfi_def_cfa_offset 24
	xorl	%eax, %eax
	popq	%rbx
	.cfi_def_cfa_offset 16
	popq	%rbp
	.cfi_def_cfa_offset 8
	ret
	.p2align 4,,10
	.p2align 3
.L60:
	.cfi_restore_state
	movq	(%rsi), %rax
	movq	%rax, (%rdi)
	addq	$8, %rsp
	.cfi_remember_state
	.cfi_def_cfa_offset 24
	xorl	%eax, %eax
	popq	%rbx
	.cfi_def_cfa_offset 16
	popq	%rbp
	.cfi_def_cfa_offset 8
	ret
	.p2align 4,,10
	.p2align 3
.L63:
	.cfi_restore_state
	movq	(%rsi), %rbp
	movl	$32, %edi
	call	_Znwm@PLT
	movdqu	0(%rbp), %xmm0
	movups	%xmm0, (%rax)
	movdqu	16(%rbp), %xmm1
	movups	%xmm1, 16(%rax)
	movq	%rax, (%rbx)
	jmp	.L62
	.cfi_endproc
.LFE2285:
	.size	_ZNSt17_Function_handlerIFvRN8opendnp314IUpdateHandlerEEZN8asiodnp313UpdateBuilder7AddMeasINS0_13FrozenCounterEEERS5_RKT_tNS0_9EventModeEEUlS2_E_E10_M_managerERSt9_Any_dataRKSF_St18_Manager_operation, .-_ZNSt17_Function_handlerIFvRN8opendnp314IUpdateHandlerEEZN8asiodnp313UpdateBuilder7AddMeasINS0_13FrozenCounterEEERS5_RKT_tNS0_9EventModeEEUlS2_E_E10_M_managerERSt9_Any_dataRKSF_St18_Manager_operation
	.section	.text._ZNSt17_Function_handlerIFvRN8opendnp314IUpdateHandlerEEZN8asiodnp313UpdateBuilder7AddMeasINS0_7CounterEEERS5_RKT_tNS0_9EventModeEEUlS2_E_E10_M_managerERSt9_Any_dataRKSF_St18_Manager_operation,"axG",@progbits,_ZNSt17_Function_handlerIFvRN8opendnp314IUpdateHandlerEEZN8asiodnp313UpdateBuilder7AddMeasINS0_7CounterEEERS5_RKT_tNS0_9EventModeEEUlS2_E_E10_M_managerERSt9_Any_dataRKSF_St18_Manager_operation,comdat
	.p2align 4
	.weak	_ZNSt17_Function_handlerIFvRN8opendnp314IUpdateHandlerEEZN8asiodnp313UpdateBuilder7AddMeasINS0_7CounterEEERS5_RKT_tNS0_9EventModeEEUlS2_E_E10_M_managerERSt9_Any_dataRKSF_St18_Manager_operation
	.type	_ZNSt17_Function_handlerIFvRN8opendnp314IUpdateHandlerEEZN8asiodnp313UpdateBuilder7AddMeasINS0_7CounterEEERS5_RKT_tNS0_9EventModeEEUlS2_E_E10_M_managerERSt9_Any_dataRKSF_St18_Manager_operation, @function
_ZNSt17_Function_handlerIFvRN8opendnp314IUpdateHandlerEEZN8asiodnp313UpdateBuilder7AddMeasINS0_7CounterEEERS5_RKT_tNS0_9EventModeEEUlS2_E_E10_M_managerERSt9_Any_dataRKSF_St18_Manager_operation:
.LFB2281:
	.cfi_startproc
	endbr64
	pushq	%rbp
	.cfi_def_cfa_offset 16
	.cfi_offset 6, -16
	pushq	%rbx
	.cfi_def_cfa_offset 24
	.cfi_offset 3, -24
	movq	%rdi, %rbx
	subq	$8, %rsp
	.cfi_def_cfa_offset 32
	testl	%edx, %edx
	je	.L71
	cmpl	$1, %edx
	je	.L72
	cmpl	$2, %edx
	je	.L75
	cmpl	$3, %edx
	jne	.L74
	movq	(%rdi), %rdi
	testq	%rdi, %rdi
	je	.L74
	movl	$32, %esi
	call	_ZdlPvm@PLT
.L74:
	addq	$8, %rsp
	.cfi_remember_state
	.cfi_def_cfa_offset 24
	xorl	%eax, %eax
	popq	%rbx
	.cfi_def_cfa_offset 16
	popq	%rbp
	.cfi_def_cfa_offset 8
	ret
	.p2align 4,,10
	.p2align 3
.L71:
	.cfi_restore_state
	movq	_ZTIZN8asiodnp313UpdateBuilder7AddMeasIN8opendnp37CounterEEERS0_RKT_tNS2_9EventModeEEUlRNS2_14IUpdateHandlerEE_@GOTPCREL(%rip), %rax
	movq	%rax, (%rdi)
	addq	$8, %rsp
	.cfi_remember_state
	.cfi_def_cfa_offset 24
	xorl	%eax, %eax
	popq	%rbx
	.cfi_def_cfa_offset 16
	popq	%rbp
	.cfi_def_cfa_offset 8
	ret
	.p2align 4,,10
	.p2align 3
.L72:
	.cfi_restore_state
	movq	(%rsi), %rax
	movq	%rax, (%rdi)
	addq	$8, %rsp
	.cfi_remember_state
	.cfi_def_cfa_offset 24
	xorl	%eax, %eax
	popq	%rbx
	.cfi_def_cfa_offset 16
	popq	%rbp
	.cfi_def_cfa_offset 8
	ret
	.p2align 4,,10
	.p2align 3
.L75:
	.cfi_restore_state
	movq	(%rsi), %rbp
	movl	$32, %edi
	call	_Znwm@PLT
	movdqu	0(%rbp), %xmm0
	movups	%xmm0, (%rax)
	movdqu	16(%rbp), %xmm1
	movups	%xmm1, 16(%rax)
	movq	%rax, (%rbx)
	jmp	.L74
	.cfi_endproc
.LFE2281:
	.size	_ZNSt17_Function_handlerIFvRN8opendnp314IUpdateHandlerEEZN8asiodnp313UpdateBuilder7AddMeasINS0_7CounterEEERS5_RKT_tNS0_9EventModeEEUlS2_E_E10_M_managerERSt9_Any_dataRKSF_St18_Manager_operation, .-_ZNSt17_Function_handlerIFvRN8opendnp314IUpdateHandlerEEZN8asiodnp313UpdateBuilder7AddMeasINS0_7CounterEEERS5_RKT_tNS0_9EventModeEEUlS2_E_E10_M_managerERSt9_Any_dataRKSF_St18_Manager_operation
	.section	.text._ZNSt17_Function_handlerIFvRN8opendnp314IUpdateHandlerEEZN8asiodnp313UpdateBuilder7AddMeasINS0_6AnalogEEERS5_RKT_tNS0_9EventModeEEUlS2_E_E10_M_managerERSt9_Any_dataRKSF_St18_Manager_operation,"axG",@progbits,_ZNSt17_Function_handlerIFvRN8opendnp314IUpdateHandlerEEZN8asiodnp313UpdateBuilder7AddMeasINS0_6AnalogEEERS5_RKT_tNS0_9EventModeEEUlS2_E_E10_M_managerERSt9_Any_dataRKSF_St18_Manager_operation,comdat
	.p2align 4
	.weak	_ZNSt17_Function_handlerIFvRN8opendnp314IUpdateHandlerEEZN8asiodnp313UpdateBuilder7AddMeasINS0_6AnalogEEERS5_RKT_tNS0_9EventModeEEUlS2_E_E10_M_managerERSt9_Any_dataRKSF_St18_Manager_operation
	.type	_ZNSt17_Function_handlerIFvRN8opendnp314IUpdateHandlerEEZN8asiodnp313UpdateBuilder7AddMeasINS0_6AnalogEEERS5_RKT_tNS0_9EventModeEEUlS2_E_E10_M_managerERSt9_Any_dataRKSF_St18_Manager_operation, @function
_ZNSt17_Function_handlerIFvRN8opendnp314IUpdateHandlerEEZN8asiodnp313UpdateBuilder7AddMeasINS0_6AnalogEEERS5_RKT_tNS0_9EventModeEEUlS2_E_E10_M_managerERSt9_Any_dataRKSF_St18_Manager_operation:
.LFB2277:
	.cfi_startproc
	endbr64
	pushq	%rbp
	.cfi_def_cfa_offset 16
	.cfi_offset 6, -16
	pushq	%rbx
	.cfi_def_cfa_offset 24
	.cfi_offset 3, -24
	movq	%rdi, %rbx
	subq	$8, %rsp
	.cfi_def_cfa_offset 32
	testl	%edx, %edx
	je	.L83
	cmpl	$1, %edx
	je	.L84
	cmpl	$2, %edx
	je	.L87
	cmpl	$3, %edx
	jne	.L86
	movq	(%rdi), %rdi
	testq	%rdi, %rdi
	je	.L86
	movl	$32, %esi
	call	_ZdlPvm@PLT
.L86:
	addq	$8, %rsp
	.cfi_remember_state
	.cfi_def_cfa_offset 24
	xorl	%eax, %eax
	popq	%rbx
	.cfi_def_cfa_offset 16
	popq	%rbp
	.cfi_def_cfa_offset 8
	ret
	.p2align 4,,10
	.p2align 3
.L83:
	.cfi_restore_state
	movq	_ZTIZN8asiodnp313UpdateBuilder7AddMeasIN8opendnp36AnalogEEERS0_RKT_tNS2_9EventModeEEUlRNS2_14IUpdateHandlerEE_@GOTPCREL(%rip), %rax
	movq	%rax, (%rdi)
	addq	$8, %rsp
	.cfi_remember_state
	.cfi_def_cfa_offset 24
	xorl	%eax, %eax
	popq	%rbx
	.cfi_def_cfa_offset 16
	popq	%rbp
	.cfi_def_cfa_offset 8
	ret
	.p2align 4,,10
	.p2align 3
.L84:
	.cfi_restore_state
	movq	(%rsi), %rax
	movq	%rax, (%rdi)
	addq	$8, %rsp
	.cfi_remember_state
	.cfi_def_cfa_offset 24
	xorl	%eax, %eax
	popq	%rbx
	.cfi_def_cfa_offset 16
	popq	%rbp
	.cfi_def_cfa_offset 8
	ret
	.p2align 4,,10
	.p2align 3
.L87:
	.cfi_restore_state
	movq	(%rsi), %rbp
	movl	$32, %edi
	call	_Znwm@PLT
	movdqu	0(%rbp), %xmm0
	movups	%xmm0, (%rax)
	movdqu	16(%rbp), %xmm1
	movups	%xmm1, 16(%rax)
	movq	%rax, (%rbx)
	jmp	.L86
	.cfi_endproc
.LFE2277:
	.size	_ZNSt17_Function_handlerIFvRN8opendnp314IUpdateHandlerEEZN8asiodnp313UpdateBuilder7AddMeasINS0_6AnalogEEERS5_RKT_tNS0_9EventModeEEUlS2_E_E10_M_managerERSt9_Any_dataRKSF_St18_Manager_operation, .-_ZNSt17_Function_handlerIFvRN8opendnp314IUpdateHandlerEEZN8asiodnp313UpdateBuilder7AddMeasINS0_6AnalogEEERS5_RKT_tNS0_9EventModeEEUlS2_E_E10_M_managerERSt9_Any_dataRKSF_St18_Manager_operation
	.section	.text._ZNSt17_Function_handlerIFvRN8opendnp314IUpdateHandlerEEZN8asiodnp313UpdateBuilder7AddMeasINS0_15DoubleBitBinaryEEERS5_RKT_tNS0_9EventModeEEUlS2_E_E10_M_managerERSt9_Any_dataRKSF_St18_Manager_operation,"axG",@progbits,_ZNSt17_Function_handlerIFvRN8opendnp314IUpdateHandlerEEZN8asiodnp313UpdateBuilder7AddMeasINS0_15DoubleBitBinaryEEERS5_RKT_tNS0_9EventModeEEUlS2_E_E10_M_managerERSt9_Any_dataRKSF_St18_Manager_operation,comdat
	.p2align 4
	.weak	_ZNSt17_Function_handlerIFvRN8opendnp314IUpdateHandlerEEZN8asiodnp313UpdateBuilder7AddMeasINS0_15DoubleBitBinaryEEERS5_RKT_tNS0_9EventModeEEUlS2_E_E10_M_managerERSt9_Any_dataRKSF_St18_Manager_operation
	.type	_ZNSt17_Function_handlerIFvRN8opendnp314IUpdateHandlerEEZN8asiodnp313UpdateBuilder7AddMeasINS0_15DoubleBitBinaryEEERS5_RKT_tNS0_9EventModeEEUlS2_E_E10_M_managerERSt9_Any_dataRKSF_St18_Manager_operation, @function
_ZNSt17_Function_handlerIFvRN8opendnp314IUpdateHandlerEEZN8asiodnp313UpdateBuilder7AddMeasINS0_15DoubleBitBinaryEEERS5_RKT_tNS0_9EventModeEEUlS2_E_E10_M_managerERSt9_Any_dataRKSF_St18_Manager_operation:
.LFB2273:
	.cfi_startproc
	endbr64
	pushq	%rbp
	.cfi_def_cfa_offset 16
	.cfi_offset 6, -16
	pushq	%rbx
	.cfi_def_cfa_offset 24
	.cfi_offset 3, -24
	movq	%rdi, %rbx
	subq	$8, %rsp
	.cfi_def_cfa_offset 32
	testl	%edx, %edx
	je	.L95
	cmpl	$1, %edx
	je	.L96
	cmpl	$2, %edx
	je	.L99
	cmpl	$3, %edx
	jne	.L98
	movq	(%rdi), %rdi
	testq	%rdi, %rdi
	je	.L98
	movl	$32, %esi
	call	_ZdlPvm@PLT
.L98:
	addq	$8, %rsp
	.cfi_remember_state
	.cfi_def_cfa_offset 24
	xorl	%eax, %eax
	popq	%rbx
	.cfi_def_cfa_offset 16
	popq	%rbp
	.cfi_def_cfa_offset 8
	ret
	.p2align 4,,10
	.p2align 3
.L95:
	.cfi_restore_state
	movq	_ZTIZN8asiodnp313UpdateBuilder7AddMeasIN8opendnp315DoubleBitBinaryEEERS0_RKT_tNS2_9EventModeEEUlRNS2_14IUpdateHandlerEE_@GOTPCREL(%rip), %rax
	movq	%rax, (%rdi)
	addq	$8, %rsp
	.cfi_remember_state
	.cfi_def_cfa_offset 24
	xorl	%eax, %eax
	popq	%rbx
	.cfi_def_cfa_offset 16
	popq	%rbp
	.cfi_def_cfa_offset 8
	ret
	.p2align 4,,10
	.p2align 3
.L96:
	.cfi_restore_state
	movq	(%rsi), %rax
	movq	%rax, (%rdi)
	addq	$8, %rsp
	.cfi_remember_state
	.cfi_def_cfa_offset 24
	xorl	%eax, %eax
	popq	%rbx
	.cfi_def_cfa_offset 16
	popq	%rbp
	.cfi_def_cfa_offset 8
	ret
	.p2align 4,,10
	.p2align 3
.L99:
	.cfi_restore_state
	movq	(%rsi), %rbp
	movl	$32, %edi
	call	_Znwm@PLT
	movdqu	0(%rbp), %xmm0
	movups	%xmm0, (%rax)
	movdqu	16(%rbp), %xmm1
	movups	%xmm1, 16(%rax)
	movq	%rax, (%rbx)
	jmp	.L98
	.cfi_endproc
.LFE2273:
	.size	_ZNSt17_Function_handlerIFvRN8opendnp314IUpdateHandlerEEZN8asiodnp313UpdateBuilder7AddMeasINS0_15DoubleBitBinaryEEERS5_RKT_tNS0_9EventModeEEUlS2_E_E10_M_managerERSt9_Any_dataRKSF_St18_Manager_operation, .-_ZNSt17_Function_handlerIFvRN8opendnp314IUpdateHandlerEEZN8asiodnp313UpdateBuilder7AddMeasINS0_15DoubleBitBinaryEEERS5_RKT_tNS0_9EventModeEEUlS2_E_E10_M_managerERSt9_Any_dataRKSF_St18_Manager_operation
	.section	.text._ZNSt17_Function_handlerIFvRN8opendnp314IUpdateHandlerEEZN8asiodnp313UpdateBuilder7AddMeasINS0_6BinaryEEERS5_RKT_tNS0_9EventModeEEUlS2_E_E10_M_managerERSt9_Any_dataRKSF_St18_Manager_operation,"axG",@progbits,_ZNSt17_Function_handlerIFvRN8opendnp314IUpdateHandlerEEZN8asiodnp313UpdateBuilder7AddMeasINS0_6BinaryEEERS5_RKT_tNS0_9EventModeEEUlS2_E_E10_M_managerERSt9_Any_dataRKSF_St18_Manager_operation,comdat
	.p2align 4
	.weak	_ZNSt17_Function_handlerIFvRN8opendnp314IUpdateHandlerEEZN8asiodnp313UpdateBuilder7AddMeasINS0_6BinaryEEERS5_RKT_tNS0_9EventModeEEUlS2_E_E10_M_managerERSt9_Any_dataRKSF_St18_Manager_operation
	.type	_ZNSt17_Function_handlerIFvRN8opendnp314IUpdateHandlerEEZN8asiodnp313UpdateBuilder7AddMeasINS0_6BinaryEEERS5_RKT_tNS0_9EventModeEEUlS2_E_E10_M_managerERSt9_Any_dataRKSF_St18_Manager_operation, @function
_ZNSt17_Function_handlerIFvRN8opendnp314IUpdateHandlerEEZN8asiodnp313UpdateBuilder7AddMeasINS0_6BinaryEEERS5_RKT_tNS0_9EventModeEEUlS2_E_E10_M_managerERSt9_Any_dataRKSF_St18_Manager_operation:
.LFB2269:
	.cfi_startproc
	endbr64
	pushq	%rbp
	.cfi_def_cfa_offset 16
	.cfi_offset 6, -16
	pushq	%rbx
	.cfi_def_cfa_offset 24
	.cfi_offset 3, -24
	movq	%rdi, %rbx
	subq	$8, %rsp
	.cfi_def_cfa_offset 32
	testl	%edx, %edx
	je	.L107
	cmpl	$1, %edx
	je	.L108
	cmpl	$2, %edx
	je	.L111
	cmpl	$3, %edx
	jne	.L110
	movq	(%rdi), %rdi
	testq	%rdi, %rdi
	je	.L110
	movl	$32, %esi
	call	_ZdlPvm@PLT
.L110:
	addq	$8, %rsp
	.cfi_remember_state
	.cfi_def_cfa_offset 24
	xorl	%eax, %eax
	popq	%rbx
	.cfi_def_cfa_offset 16
	popq	%rbp
	.cfi_def_cfa_offset 8
	ret
	.p2align 4,,10
	.p2align 3
.L107:
	.cfi_restore_state
	movq	_ZTIZN8asiodnp313UpdateBuilder7AddMeasIN8opendnp36BinaryEEERS0_RKT_tNS2_9EventModeEEUlRNS2_14IUpdateHandlerEE_@GOTPCREL(%rip), %rax
	movq	%rax, (%rdi)
	addq	$8, %rsp
	.cfi_remember_state
	.cfi_def_cfa_offset 24
	xorl	%eax, %eax
	popq	%rbx
	.cfi_def_cfa_offset 16
	popq	%rbp
	.cfi_def_cfa_offset 8
	ret
	.p2align 4,,10
	.p2align 3
.L108:
	.cfi_restore_state
	movq	(%rsi), %rax
	movq	%rax, (%rdi)
	addq	$8, %rsp
	.cfi_remember_state
	.cfi_def_cfa_offset 24
	xorl	%eax, %eax
	popq	%rbx
	.cfi_def_cfa_offset 16
	popq	%rbp
	.cfi_def_cfa_offset 8
	ret
	.p2align 4,,10
	.p2align 3
.L111:
	.cfi_restore_state
	movq	(%rsi), %rbp
	movl	$32, %edi
	call	_Znwm@PLT
	movdqu	0(%rbp), %xmm0
	movups	%xmm0, (%rax)
	movdqu	16(%rbp), %xmm1
	movups	%xmm1, 16(%rax)
	movq	%rax, (%rbx)
	jmp	.L110
	.cfi_endproc
.LFE2269:
	.size	_ZNSt17_Function_handlerIFvRN8opendnp314IUpdateHandlerEEZN8asiodnp313UpdateBuilder7AddMeasINS0_6BinaryEEERS5_RKT_tNS0_9EventModeEEUlS2_E_E10_M_managerERSt9_Any_dataRKSF_St18_Manager_operation, .-_ZNSt17_Function_handlerIFvRN8opendnp314IUpdateHandlerEEZN8asiodnp313UpdateBuilder7AddMeasINS0_6BinaryEEERS5_RKT_tNS0_9EventModeEEUlS2_E_E10_M_managerERSt9_Any_dataRKSF_St18_Manager_operation
	.text
	.p2align 4
	.type	_ZNSt17_Function_handlerIFvRN8opendnp314IUpdateHandlerEEZN8asiodnp313UpdateBuilder6UpdateERKNS0_15TimeAndIntervalEtEUlS2_E_E10_M_managerERSt9_Any_dataRKSB_St18_Manager_operation, @function
_ZNSt17_Function_handlerIFvRN8opendnp314IUpdateHandlerEEZN8asiodnp313UpdateBuilder6UpdateERKNS0_15TimeAndIntervalEtEUlS2_E_E10_M_managerERSt9_Any_dataRKSB_St18_Manager_operation:
.LFB2237:
	.cfi_startproc
	endbr64
	pushq	%rbp
	.cfi_def_cfa_offset 16
	.cfi_offset 6, -16
	pushq	%rbx
	.cfi_def_cfa_offset 24
	.cfi_offset 3, -24
	movq	%rdi, %rbx
	subq	$8, %rsp
	.cfi_def_cfa_offset 32
	testl	%edx, %edx
	je	.L119
	cmpl	$1, %edx
	je	.L120
	cmpl	$2, %edx
	je	.L123
	cmpl	$3, %edx
	jne	.L122
	movq	(%rdi), %rdi
	testq	%rdi, %rdi
	je	.L122
	movl	$24, %esi
	call	_ZdlPvm@PLT
.L122:
	addq	$8, %rsp
	.cfi_remember_state
	.cfi_def_cfa_offset 24
	xorl	%eax, %eax
	popq	%rbx
	.cfi_def_cfa_offset 16
	popq	%rbp
	.cfi_def_cfa_offset 8
	ret
	.p2align 4,,10
	.p2align 3
.L119:
	.cfi_restore_state
	leaq	_ZTIZN8asiodnp313UpdateBuilder6UpdateERKN8opendnp315TimeAndIntervalEtEUlRNS1_14IUpdateHandlerEE_(%rip), %rax
	movq	%rax, (%rdi)
	addq	$8, %rsp
	.cfi_remember_state
	.cfi_def_cfa_offset 24
	xorl	%eax, %eax
	popq	%rbx
	.cfi_def_cfa_offset 16
	popq	%rbp
	.cfi_def_cfa_offset 8
	ret
	.p2align 4,,10
	.p2align 3
.L120:
	.cfi_restore_state
	movq	(%rsi), %rax
	movq	%rax, (%rdi)
	addq	$8, %rsp
	.cfi_remember_state
	.cfi_def_cfa_offset 24
	xorl	%eax, %eax
	popq	%rbx
	.cfi_def_cfa_offset 16
	popq	%rbp
	.cfi_def_cfa_offset 8
	ret
	.p2align 4,,10
	.p2align 3
.L123:
	.cfi_restore_state
	movq	(%rsi), %rbp
	movl	$24, %edi
	call	_Znwm@PLT
	movdqu	0(%rbp), %xmm0
	movups	%xmm0, (%rax)
	movq	16(%rbp), %rdx
	movq	%rdx, 16(%rax)
	movq	%rax, (%rbx)
	jmp	.L122
	.cfi_endproc
.LFE2237:
	.size	_ZNSt17_Function_handlerIFvRN8opendnp314IUpdateHandlerEEZN8asiodnp313UpdateBuilder6UpdateERKNS0_15TimeAndIntervalEtEUlS2_E_E10_M_managerERSt9_Any_dataRKSB_St18_Manager_operation, .-_ZNSt17_Function_handlerIFvRN8opendnp314IUpdateHandlerEEZN8asiodnp313UpdateBuilder6UpdateERKNS0_15TimeAndIntervalEtEUlS2_E_E10_M_managerERSt9_Any_dataRKSB_St18_Manager_operation
	.align 2
	.p2align 4
	.globl	_ZNK8asiodnp313UpdateBuilder5BuildEv
	.type	_ZNK8asiodnp313UpdateBuilder5BuildEv, @function
_ZNK8asiodnp313UpdateBuilder5BuildEv:
.LFB2085:
	.cfi_startproc
	endbr64
	movdqu	(%rsi), %xmm0
	movq	%rdi, %rax
	movups	%xmm0, (%rdi)
	movq	8(%rdi), %rdx
	testq	%rdx, %rdx
	je	.L130
	movq	__libc_single_threaded@GOTPCREL(%rip), %rcx
	cmpb	$0, (%rcx)
	je	.L132
	addl	$1, 8(%rdx)
	ret
	.p2align 4,,10
	.p2align 3
.L132:
	lock addl	$1, 8(%rdx)
.L130:
	ret
	.cfi_endproc
.LFE2085:
	.size	_ZNK8asiodnp313UpdateBuilder5BuildEv, .-_ZNK8asiodnp313UpdateBuilder5BuildEv
	.section	.rodata._ZNSt6vectorISt8functionIFvRN8opendnp314IUpdateHandlerEEESaIS5_EE17_M_realloc_insertIJRKS5_EEEvN9__gnu_cxx17__normal_iteratorIPS5_S7_EEDpOT_.str1.1,"aMS",@progbits,1
.LC0:
	.string	"vector::_M_realloc_insert"
	.section	.text._ZNSt6vectorISt8functionIFvRN8opendnp314IUpdateHandlerEEESaIS5_EE17_M_realloc_insertIJRKS5_EEEvN9__gnu_cxx17__normal_iteratorIPS5_S7_EEDpOT_,"axG",@progbits,_ZNSt6vectorISt8functionIFvRN8opendnp314IUpdateHandlerEEESaIS5_EE17_M_realloc_insertIJRKS5_EEEvN9__gnu_cxx17__normal_iteratorIPS5_S7_EEDpOT_,comdat
	.align 2
	.p2align 4
	.weak	_ZNSt6vectorISt8functionIFvRN8opendnp314IUpdateHandlerEEESaIS5_EE17_M_realloc_insertIJRKS5_EEEvN9__gnu_cxx17__normal_iteratorIPS5_S7_EEDpOT_
	.type	_ZNSt6vectorISt8functionIFvRN8opendnp314IUpdateHandlerEEESaIS5_EE17_M_realloc_insertIJRKS5_EEEvN9__gnu_cxx17__normal_iteratorIPS5_S7_EEDpOT_, @function
_ZNSt6vectorISt8functionIFvRN8opendnp314IUpdateHandlerEEESaIS5_EE17_M_realloc_insertIJRKS5_EEEvN9__gnu_cxx17__normal_iteratorIPS5_S7_EEDpOT_:
.LFB2256:
	.cfi_startproc
	.cfi_personality 0x9b,DW.ref.__gxx_personality_v0
	.cfi_lsda 0x1b,.LLSDA2256
	endbr64
	pushq	%r15
	.cfi_def_cfa_offset 16
	.cfi_offset 15, -16
	pushq	%r14
	.cfi_def_cfa_offset 24
	.cfi_offset 14, -24
	pushq	%r13
	.cfi_def_cfa_offset 32
	.cfi_offset 13, -32
	pushq	%r12
	.cfi_def_cfa_offset 40
	.cfi_offset 12, -40
	pushq	%rbp
	.cfi_def_cfa_offset 48
	.cfi_offset 6, -48
	pushq	%rbx
	.cfi_def_cfa_offset 56
	.cfi_offset 3, -56
	subq	$40, %rsp
	.cfi_def_cfa_offset 96
	movq	8(%rdi), %rbp
	movq	(%rdi), %r13
	movq	%rdx, (%rsp)
	movabsq	$288230376151711743, %rdx
	movq	%rbp, %rax
	subq	%r13, %rax
	sarq	$5, %rax
	cmpq	%rdx, %rax
	je	.L183
	testq	%rax, %rax
	movl	$1, %edx
	movq	%rsi, %r15
	movq	%rdi, %r14
	cmovne	%rax, %rdx
	movq	%rsi, %r12
	movq	%rsi, %rbx
	addq	%rdx, %rax
	setc	%dl
	movq	%rax, 24(%rsp)
	subq	%r13, %r15
	movzbl	%dl, %edx
	testq	%rdx, %rdx
	jne	.L163
	testq	%rax, %rax
	jne	.L141
	movq	$0, 16(%rsp)
.L158:
	movq	(%rsp), %rdi
	addq	16(%rsp), %r15
	pxor	%xmm0, %xmm0
	movq	$0, 16(%r15)
	movq	16(%rdi), %rax
	movq	$0, 24(%r15)
	movups	%xmm0, (%r15)
	testq	%rax, %rax
	je	.L142
	movq	%rdi, %rsi
	movl	$2, %edx
	movq	%r15, %rdi
.LEHB0:
	call	*%rax
.LEHE0:
	movq	(%rsp), %rdi
	movdqu	16(%rdi), %xmm4
	movups	%xmm4, 16(%r15)
.L142:
	cmpq	%r13, %r12
	je	.L184
	movq	16(%rsp), %rax
	movq	%r12, %rsi
	movq	%r13, %rdx
	subq	%r13, %rsi
	addq	%rax, %rsi
	.p2align 4,,10
	.p2align 3
.L161:
	movq	24(%rdx), %rcx
	pxor	%xmm0, %xmm0
	movq	$0, 16(%rax)
	movups	%xmm0, (%rax)
	movq	%rcx, 24(%rax)
	movq	16(%rdx), %rcx
	testq	%rcx, %rcx
	je	.L147
	movdqu	(%rdx), %xmm1
	movq	%rcx, 16(%rax)
	addq	$32, %rax
	addq	$32, %rdx
	movq	$0, -16(%rdx)
	movups	%xmm1, -32(%rax)
	cmpq	%rsi, %rax
	jne	.L161
.L162:
	addq	$32, %rsi
	cmpq	%rbp, %r12
	je	.L151
	movq	%rbp, %rcx
	movq	%rsi, %rax
	subq	%r12, %rcx
	.p2align 4,,10
	.p2align 3
.L160:
	movq	24(%rbx), %rdx
	pxor	%xmm0, %xmm0
	movq	$0, 16(%rax)
	movups	%xmm0, (%rax)
	movq	%rdx, 24(%rax)
	movq	16(%rbx), %rdx
	testq	%rdx, %rdx
	je	.L182
	movdqu	(%rbx), %xmm2
	movq	%rdx, 16(%rax)
	movq	$0, 16(%rbx)
	movups	%xmm2, (%rax)
.L182:
	addq	$32, %rbx
	addq	$32, %rax
	cmpq	%rbx, %rbp
	jne	.L160
	addq	%rcx, %rsi
.L151:
	movq	16(%rsp), %xmm0
	movq	%rsi, %xmm3
	punpcklqdq	%xmm3, %xmm0
	testq	%r13, %r13
	je	.L154
	movq	16(%r14), %rsi
	movq	%r13, %rdi
	movaps	%xmm0, (%rsp)
	subq	%r13, %rsi
	call	_ZdlPvm@PLT
	movdqa	(%rsp), %xmm0
.L154:
	movq	16(%rsp), %rax
	addq	24(%rsp), %rax
	movups	%xmm0, (%r14)
	movq	%rax, 16(%r14)
	addq	$40, %rsp
	.cfi_remember_state
	.cfi_def_cfa_offset 56
	popq	%rbx
	.cfi_def_cfa_offset 48
	popq	%rbp
	.cfi_def_cfa_offset 40
	popq	%r12
	.cfi_def_cfa_offset 32
	popq	%r13
	.cfi_def_cfa_offset 24
	popq	%r14
	.cfi_def_cfa_offset 16
	popq	%r15
	.cfi_def_cfa_offset 8
	ret
	.p2align 4,,10
	.p2align 3
.L147:
	.cfi_restore_state
	addq	$32, %rax
	addq	$32, %rdx
	cmpq	%rax, %rsi
	jne	.L161
	jmp	.L162
	.p2align 4,,10
	.p2align 3
.L163:
	movabsq	$9223372036854775776, %rax
	movq	%rax, 24(%rsp)
	movq	%rax, %rdi
.L140:
.LEHB1:
	call	_Znwm@PLT
	movq	%rax, 16(%rsp)
	jmp	.L158
	.p2align 4,,10
	.p2align 3
.L184:
	movq	16(%rsp), %rsi
	jmp	.L162
.L141:
	movq	%rax, %rdi
	movabsq	$288230376151711743, %rax
	cmpq	%rax, %rdi
	cmovbe	%rdi, %rax
	salq	$5, %rax
	movq	%rax, 24(%rsp)
	movq	%rax, %rdi
	jmp	.L140
.L183:
	leaq	.LC0(%rip), %rdi
	call	_ZSt20__throw_length_errorPKc@PLT
.LEHE1:
.L165:
	endbr64
	movq	%rax, %rbp
.L143:
	movq	16(%r15), %rax
	testq	%rax, %rax
	je	.L144
	movl	$3, %edx
	movq	%r15, %rsi
	movq	%r15, %rdi
	call	*%rax
.L144:
	movq	%rbp, %rdi
	call	__cxa_begin_catch@PLT
	cmpq	$0, 16(%rsp)
	je	.L185
	movq	24(%rsp), %rsi
	movq	16(%rsp), %rdi
	call	_ZdlPvm@PLT
.L157:
.LEHB2:
	call	__cxa_rethrow@PLT
.LEHE2:
.L185:
	movq	16(%r15), %rax
	testq	%rax, %rax
	je	.L157
	movl	$3, %edx
	movq	%r15, %rsi
	movq	%r15, %rdi
	call	*%rax
	jmp	.L157
.L164:
	endbr64
	movq	%rax, %rbp
.L156:
	call	__cxa_end_catch@PLT
	movq	%rbp, %rdi
.LEHB3:
	call	_Unwind_Resume@PLT
.LEHE3:
	.cfi_endproc
.LFE2256:
	.section	.gcc_except_table._ZNSt6vectorISt8functionIFvRN8opendnp314IUpdateHandlerEEESaIS5_EE17_M_realloc_insertIJRKS5_EEEvN9__gnu_cxx17__normal_iteratorIPS5_S7_EEDpOT_,"aG",@progbits,_ZNSt6vectorISt8functionIFvRN8opendnp314IUpdateHandlerEEESaIS5_EE17_M_realloc_insertIJRKS5_EEEvN9__gnu_cxx17__normal_iteratorIPS5_S7_EEDpOT_,comdat
	.align 4
.LLSDA2256:
	.byte	0xff
	.byte	0x9b
	.uleb128 .LLSDATT2256-.LLSDATTD2256
.LLSDATTD2256:
	.byte	0x1
	.uleb128 .LLSDACSE2256-.LLSDACSB2256
.LLSDACSB2256:
	.uleb128 .LEHB0-.LFB2256
	.uleb128 .LEHE0-.LEHB0
	.uleb128 .L165-.LFB2256
	.uleb128 0x3
	.uleb128 .LEHB1-.LFB2256
	.uleb128 .LEHE1-.LEHB1
	.uleb128 0
	.uleb128 0
	.uleb128 .LEHB2-.LFB2256
	.uleb128 .LEHE2-.LEHB2
	.uleb128 .L164-.LFB2256
	.uleb128 0
	.uleb128 .LEHB3-.LFB2256
	.uleb128 .LEHE3-.LEHB3
	.uleb128 0
	.uleb128 0
.LLSDACSE2256:
	.byte	0x1
	.byte	0
	.byte	0
	.byte	0x7d
	.align 4
	.long	0

.LLSDATT2256:
	.section	.text._ZNSt6vectorISt8functionIFvRN8opendnp314IUpdateHandlerEEESaIS5_EE17_M_realloc_insertIJRKS5_EEEvN9__gnu_cxx17__normal_iteratorIPS5_S7_EEDpOT_,"axG",@progbits,_ZNSt6vectorISt8functionIFvRN8opendnp314IUpdateHandlerEEESaIS5_EE17_M_realloc_insertIJRKS5_EEEvN9__gnu_cxx17__normal_iteratorIPS5_S7_EEDpOT_,comdat
	.size	_ZNSt6vectorISt8functionIFvRN8opendnp314IUpdateHandlerEEESaIS5_EE17_M_realloc_insertIJRKS5_EEEvN9__gnu_cxx17__normal_iteratorIPS5_S7_EEDpOT_, .-_ZNSt6vectorISt8functionIFvRN8opendnp314IUpdateHandlerEEESaIS5_EE17_M_realloc_insertIJRKS5_EEEvN9__gnu_cxx17__normal_iteratorIPS5_S7_EEDpOT_
	.section	.text.unlikely,"ax",@progbits
	.align 2
.LCOLDB2:
	.text
.LHOTB2:
	.align 2
	.p2align 4
	.globl	_ZN8asiodnp313UpdateBuilder3AddERKSt8functionIFvRN8opendnp314IUpdateHandlerEEE
	.type	_ZN8asiodnp313UpdateBuilder3AddERKSt8functionIFvRN8opendnp314IUpdateHandlerEEE, @function
_ZN8asiodnp313UpdateBuilder3AddERKSt8functionIFvRN8opendnp314IUpdateHandlerEEE:
.LFB2113:
	.cfi_startproc
	.cfi_personality 0x9b,DW.ref.__gxx_personality_v0
	.cfi_lsda 0x1b,.LLSDA2113
	endbr64
	pushq	%r13
	.cfi_def_cfa_offset 16
	.cfi_offset 13, -16
	movq	%rsi, %r13
	pushq	%r12
	.cfi_def_cfa_offset 24
	.cfi_offset 12, -24
	pushq	%rbp
	.cfi_def_cfa_offset 32
	.cfi_offset 6, -32
	pushq	%rbx
	.cfi_def_cfa_offset 40
	.cfi_offset 3, -40
	subq	$8, %rsp
	.cfi_def_cfa_offset 48
	movq	(%rdi), %rbp
	testq	%rbp, %rbp
	je	.L187
.L213:
	movq	8(%rbp), %r12
	movq	16(%rbp), %rax
	cmpq	%rax, %r12
	je	.L196
	movq	16(%r13), %rax
	pxor	%xmm0, %xmm0
	movq	$0, 16(%r12)
	movq	$0, 24(%r12)
	movups	%xmm0, (%r12)
	testq	%rax, %rax
	je	.L197
	movl	$2, %edx
	movq	%r13, %rsi
	movq	%r12, %rdi
.LEHB4:
	call	*%rax
.LEHE4:
	movdqu	16(%r13), %xmm1
	movups	%xmm1, 16(%r12)
.L197:
	addq	$32, 8(%rbp)
	addq	$8, %rsp
	.cfi_remember_state
	.cfi_def_cfa_offset 40
	popq	%rbx
	.cfi_def_cfa_offset 32
	popq	%rbp
	.cfi_def_cfa_offset 24
	popq	%r12
	.cfi_def_cfa_offset 16
	popq	%r13
	.cfi_def_cfa_offset 8
	ret
	.p2align 4,,10
	.p2align 3
.L196:
	.cfi_restore_state
	addq	$8, %rsp
	.cfi_remember_state
	.cfi_def_cfa_offset 40
	movq	%r13, %rdx
	movq	%r12, %rsi
	movq	%rbp, %rdi
	popq	%rbx
	.cfi_def_cfa_offset 32
	popq	%rbp
	.cfi_def_cfa_offset 24
	popq	%r12
	.cfi_def_cfa_offset 16
	popq	%r13
	.cfi_def_cfa_offset 8
.LEHB5:
	jmp	_ZNSt6vectorISt8functionIFvRN8opendnp314IUpdateHandlerEEESaIS5_EE17_M_realloc_insertIJRKS5_EEEvN9__gnu_cxx17__normal_iteratorIPS5_S7_EEDpOT_@PLT
	.p2align 4,,10
	.p2align 3
.L187:
	.cfi_restore_state
	movq	%rdi, %rbx
	movl	$40, %edi
	call	_Znwm@PLT
.LEHE5:
	movq	.LC1(%rip), %rdx
	pxor	%xmm0, %xmm0
	movq	8(%rbx), %r12
	leaq	16(%rax), %rbp
	movups	%xmm0, 16(%rax)
	movq	%rax, %xmm2
	movq	%rdx, 8(%rax)
	movq	_ZTVSt23_Sp_counted_ptr_inplaceISt6vectorISt8functionIFvRN8opendnp314IUpdateHandlerEEESaIS6_EESaIS8_ELN9__gnu_cxx12_Lock_policyE2EE@GOTPCREL(%rip), %rdx
	movq	%rbp, %xmm0
	punpcklqdq	%xmm2, %xmm0
	movq	$0, 32(%rax)
	addq	$16, %rdx
	movups	%xmm0, (%rbx)
	movq	%rdx, (%rax)
	testq	%r12, %r12
	je	.L196
	movq	__libc_single_threaded@GOTPCREL(%rip), %rbp
	cmpb	$0, 0(%rbp)
	je	.L190
	movl	8(%r12), %eax
	leal	-1(%rax), %edx
	movl	%edx, 8(%r12)
.L191:
	cmpl	$1, %eax
	je	.L192
.L212:
	movq	(%rbx), %rbp
	jmp	.L213
	.p2align 4,,10
	.p2align 3
.L192:
	movq	(%r12), %rax
	movq	%r12, %rdi
	call	*16(%rax)
	cmpb	$0, 0(%rbp)
	je	.L193
	movl	12(%r12), %eax
	leal	-1(%rax), %edx
	movl	%edx, 12(%r12)
.L194:
	cmpl	$1, %eax
	jne	.L212
	movq	(%r12), %rax
	movq	%r12, %rdi
	call	*24(%rax)
	jmp	.L212
	.p2align 4,,10
	.p2align 3
.L190:
	movl	$-1, %eax
	lock xaddl	%eax, 8(%r12)
	jmp	.L191
.L193:
	movl	$-1, %eax
	lock xaddl	%eax, 12(%r12)
	jmp	.L194
.L202:
	endbr64
	movq	%rax, %rbp
	jmp	.L199
	.section	.gcc_except_table,"a",@progbits
.LLSDA2113:
	.byte	0xff
	.byte	0xff
	.byte	0x1
	.uleb128 .LLSDACSE2113-.LLSDACSB2113
.LLSDACSB2113:
	.uleb128 .LEHB4-.LFB2113
	.uleb128 .LEHE4-.LEHB4
	.uleb128 .L202-.LFB2113
	.uleb128 0
	.uleb128 .LEHB5-.LFB2113
	.uleb128 .LEHE5-.LEHB5
	.uleb128 0
	.uleb128 0
.LLSDACSE2113:
	.text
	.cfi_endproc
	.section	.text.unlikely
	.cfi_startproc
	.cfi_personality 0x9b,DW.ref.__gxx_personality_v0
	.cfi_lsda 0x1b,.LLSDAC2113
	.type	_ZN8asiodnp313UpdateBuilder3AddERKSt8functionIFvRN8opendnp314IUpdateHandlerEEE.cold, @function
_ZN8asiodnp313UpdateBuilder3AddERKSt8functionIFvRN8opendnp314IUpdateHandlerEEE.cold:
.LFSB2113:
.L199:
	.cfi_def_cfa_offset 48
	.cfi_offset 3, -40
	.cfi_offset 6, -32
	.cfi_offset 12, -24
	.cfi_offset 13, -16
	movq	16(%r12), %rax
	testq	%rax, %rax
	je	.L200
	movl	$3, %edx
	movq	%r12, %rsi
	movq	%r12, %rdi
	call	*%rax
.L200:
	movq	%rbp, %rdi
.LEHB6:
	call	_Unwind_Resume@PLT
.LEHE6:
	.cfi_endproc
.LFE2113:
	.section	.gcc_except_table
.LLSDAC2113:
	.byte	0xff
	.byte	0xff
	.byte	0x1
	.uleb128 .LLSDACSEC2113-.LLSDACSBC2113
.LLSDACSBC2113:
	.uleb128 .LEHB6-.LCOLDB2
	.uleb128 .LEHE6-.LEHB6
	.uleb128 0
	.uleb128 0
.LLSDACSEC2113:
	.section	.text.unlikely
	.text
	.size	_ZN8asiodnp313UpdateBuilder3AddERKSt8functionIFvRN8opendnp314IUpdateHandlerEEE, .-_ZN8asiodnp313UpdateBuilder3AddERKSt8functionIFvRN8opendnp314IUpdateHandlerEEE
	.section	.text.unlikely
	.size	_ZN8asiodnp313UpdateBuilder3AddERKSt8functionIFvRN8opendnp314IUpdateHandlerEEE.cold, .-_ZN8asiodnp313UpdateBuilder3AddERKSt8functionIFvRN8opendnp314IUpdateHandlerEEE.cold
.LCOLDE2:
	.text
.LHOTE2:
	.section	.text.unlikely
	.align 2
.LCOLDB3:
	.text
.LHOTB3:
	.align 2
	.p2align 4
	.globl	_ZN8asiodnp313UpdateBuilder6UpdateERKN8opendnp36BinaryEtNS1_9EventModeE
	.type	_ZN8asiodnp313UpdateBuilder6UpdateERKN8opendnp36BinaryEtNS1_9EventModeE, @function
_ZN8asiodnp313UpdateBuilder6UpdateERKN8opendnp36BinaryEtNS1_9EventModeE:
.LFB2093:
	.cfi_startproc
	.cfi_personality 0x9b,DW.ref.__gxx_personality_v0
	.cfi_lsda 0x1b,.LLSDA2093
	endbr64
	pushq	%r15
	.cfi_def_cfa_offset 16
	.cfi_offset 15, -16
	pxor	%xmm0, %xmm0
	pushq	%r14
	.cfi_def_cfa_offset 24
	.cfi_offset 14, -24
	pushq	%r13
	.cfi_def_cfa_offset 32
	.cfi_offset 13, -32
	pushq	%r12
	.cfi_def_cfa_offset 40
	.cfi_offset 12, -40
	movq	%rdi, %r12
	movl	$32, %edi
	pushq	%rbp
	.cfi_def_cfa_offset 48
	.cfi_offset 6, -48
	movl	%edx, %ebp
	pushq	%rbx
	.cfi_def_cfa_offset 56
	.cfi_offset 3, -56
	movl	%ecx, %ebx
	subq	$56, %rsp
	.cfi_def_cfa_offset 112
	movzbl	(%rsi), %r15d
	movq	8(%rsi), %r14
	movq	%fs:40, %rax
	movq	%rax, 40(%rsp)
	xorl	%eax, %eax
	movzbl	16(%rsi), %r13d
	movaps	%xmm0, (%rsp)
	movq	$0, 16(%rsp)
	movq	$0, 24(%rsp)
.LEHB7:
	call	_Znwm@PLT
.LEHE7:
	movq	_ZNSt17_Function_handlerIFvRN8opendnp314IUpdateHandlerEEZN8asiodnp313UpdateBuilder7AddMeasINS0_6BinaryEEERS5_RKT_tNS0_9EventModeEEUlS2_E_E10_M_managerERSt9_Any_dataRKSF_St18_Manager_operation@GOTPCREL(%rip), %xmm0
	movw	%bp, 24(%rax)
	movq	%rsp, %rbp
	movq	%r12, %rdi
	movb	%r15b, (%rax)
	movq	%rbp, %rsi
	movq	%r14, 8(%rax)
	movhps	_ZNSt17_Function_handlerIFvRN8opendnp314IUpdateHandlerEEZN8asiodnp313UpdateBuilder7AddMeasINS0_6BinaryEEERS5_RKT_tNS0_9EventModeEEUlS2_E_E9_M_invokeERKSt9_Any_dataS2_@GOTPCREL(%rip), %xmm0
	movb	%r13b, 16(%rax)
	movb	%bl, 26(%rax)
	movq	%rax, (%rsp)
	movaps	%xmm0, 16(%rsp)
.LEHB8:
	call	_ZN8asiodnp313UpdateBuilder3AddERKSt8functionIFvRN8opendnp314IUpdateHandlerEEE@PLT
.LEHE8:
	movq	16(%rsp), %rax
	testq	%rax, %rax
	je	.L218
	movl	$3, %edx
	movq	%rbp, %rsi
	movq	%rbp, %rdi
	call	*%rax
.L218:
	movq	40(%rsp), %rax
	subq	%fs:40, %rax
	jne	.L236
	addq	$56, %rsp
	.cfi_remember_state
	.cfi_def_cfa_offset 56
	movq	%r12, %rax
	popq	%rbx
	.cfi_def_cfa_offset 48
	popq	%rbp
	.cfi_def_cfa_offset 40
	popq	%r12
	.cfi_def_cfa_offset 32
	popq	%r13
	.cfi_def_cfa_offset 24
	popq	%r14
	.cfi_def_cfa_offset 16
	popq	%r15
	.cfi_def_cfa_offset 8
	ret
.L236:
	.cfi_restore_state
	call	__stack_chk_fail@PLT
.L222:
	endbr64
	movq	%rax, %r12
	jmp	.L219
.L223:
	endbr64
	movq	%rax, %rbp
	jmp	.L216
	.section	.gcc_except_table
.LLSDA2093:
	.byte	0xff
	.byte	0xff
	.byte	0x1
	.uleb128 .LLSDACSE2093-.LLSDACSB2093
.LLSDACSB2093:
	.uleb128 .LEHB7-.LFB2093
	.uleb128 .LEHE7-.LEHB7
	.uleb128 .L223-.LFB2093
	.uleb128 0
	.uleb128 .LEHB8-.LFB2093
	.uleb128 .LEHE8-.LEHB8
	.uleb128 .L222-.LFB2093
	.uleb128 0
.LLSDACSE2093:
	.text
	.cfi_endproc
	.section	.text.unlikely
	.cfi_startproc
	.cfi_personality 0x9b,DW.ref.__gxx_personality_v0
	.cfi_lsda 0x1b,.LLSDAC2093
	.type	_ZN8asiodnp313UpdateBuilder6UpdateERKN8opendnp36BinaryEtNS1_9EventModeE.cold, @function
_ZN8asiodnp313UpdateBuilder6UpdateERKN8opendnp36BinaryEtNS1_9EventModeE.cold:
.LFSB2093:
.L219:
	.cfi_def_cfa_offset 112
	.cfi_offset 3, -56
	.cfi_offset 6, -48
	.cfi_offset 12, -40
	.cfi_offset 13, -32
	.cfi_offset 14, -24
	.cfi_offset 15, -16
	movq	16(%rsp), %rax
	testq	%rax, %rax
	je	.L220
	movl	$3, %edx
	movq	%rbp, %rsi
	movq	%rbp, %rdi
	call	*%rax
.L220:
	movq	%r12, %rdi
.LEHB9:
	call	_Unwind_Resume@PLT
.LEHE9:
.L216:
	movq	16(%rsp), %rax
	testq	%rax, %rax
	je	.L217
	movq	%rsp, %rdi
	movl	$3, %edx
	movq	%rdi, %rsi
	call	*%rax
.L217:
	movq	%rbp, %rdi
.LEHB10:
	call	_Unwind_Resume@PLT
.LEHE10:
	.cfi_endproc
.LFE2093:
	.section	.gcc_except_table
.LLSDAC2093:
	.byte	0xff
	.byte	0xff
	.byte	0x1
	.uleb128 .LLSDACSEC2093-.LLSDACSBC2093
.LLSDACSBC2093:
	.uleb128 .LEHB9-.LCOLDB3
	.uleb128 .LEHE9-.LEHB9
	.uleb128 0
	.uleb128 0
	.uleb128 .LEHB10-.LCOLDB3
	.uleb128 .LEHE10-.LEHB10
	.uleb128 0
	.uleb128 0
.LLSDACSEC2093:
	.section	.text.unlikely
	.text
	.size	_ZN8asiodnp313UpdateBuilder6UpdateERKN8opendnp36BinaryEtNS1_9EventModeE, .-_ZN8asiodnp313UpdateBuilder6UpdateERKN8opendnp36BinaryEtNS1_9EventModeE
	.section	.text.unlikely
	.size	_ZN8asiodnp313UpdateBuilder6UpdateERKN8opendnp36BinaryEtNS1_9EventModeE.cold, .-_ZN8asiodnp313UpdateBuilder6UpdateERKN8opendnp36BinaryEtNS1_9EventModeE.cold
.LCOLDE3:
	.text
.LHOTE3:
	.section	.text.unlikely
	.align 2
.LCOLDB4:
	.text
.LHOTB4:
	.align 2
	.p2align 4
	.globl	_ZN8asiodnp313UpdateBuilder6UpdateERKN8opendnp315DoubleBitBinaryEtNS1_9EventModeE
	.type	_ZN8asiodnp313UpdateBuilder6UpdateERKN8opendnp315DoubleBitBinaryEtNS1_9EventModeE, @function
_ZN8asiodnp313UpdateBuilder6UpdateERKN8opendnp315DoubleBitBinaryEtNS1_9EventModeE:
.LFB2094:
	.cfi_startproc
	.cfi_personality 0x9b,DW.ref.__gxx_personality_v0
	.cfi_lsda 0x1b,.LLSDA2094
	endbr64
	pushq	%r15
	.cfi_def_cfa_offset 16
	.cfi_offset 15, -16
	pxor	%xmm0, %xmm0
	pushq	%r14
	.cfi_def_cfa_offset 24
	.cfi_offset 14, -24
	pushq	%r13
	.cfi_def_cfa_offset 32
	.cfi_offset 13, -32
	pushq	%r12
	.cfi_def_cfa_offset 40
	.cfi_offset 12, -40
	movq	%rdi, %r12
	movl	$32, %edi
	pushq	%rbp
	.cfi_def_cfa_offset 48
	.cfi_offset 6, -48
	movl	%edx, %ebp
	pushq	%rbx
	.cfi_def_cfa_offset 56
	.cfi_offset 3, -56
	movl	%ecx, %ebx
	subq	$56, %rsp
	.cfi_def_cfa_offset 112
	movzbl	(%rsi), %r15d
	movq	8(%rsi), %r14
	movq	%fs:40, %rax
	movq	%rax, 40(%rsp)
	xorl	%eax, %eax
	movzbl	16(%rsi), %r13d
	movaps	%xmm0, (%rsp)
	movq	$0, 16(%rsp)
	movq	$0, 24(%rsp)
.LEHB11:
	call	_Znwm@PLT
.LEHE11:
	movq	_ZNSt17_Function_handlerIFvRN8opendnp314IUpdateHandlerEEZN8asiodnp313UpdateBuilder7AddMeasINS0_15DoubleBitBinaryEEERS5_RKT_tNS0_9EventModeEEUlS2_E_E10_M_managerERSt9_Any_dataRKSF_St18_Manager_operation@GOTPCREL(%rip), %xmm0
	movw	%bp, 24(%rax)
	movq	%rsp, %rbp
	movq	%r12, %rdi
	movb	%r15b, (%rax)
	movq	%rbp, %rsi
	movq	%r14, 8(%rax)
	movhps	_ZNSt17_Function_handlerIFvRN8opendnp314IUpdateHandlerEEZN8asiodnp313UpdateBuilder7AddMeasINS0_15DoubleBitBinaryEEERS5_RKT_tNS0_9EventModeEEUlS2_E_E9_M_invokeERKSt9_Any_dataS2_@GOTPCREL(%rip), %xmm0
	movb	%r13b, 16(%rax)
	movb	%bl, 26(%rax)
	movq	%rax, (%rsp)
	movaps	%xmm0, 16(%rsp)
.LEHB12:
	call	_ZN8asiodnp313UpdateBuilder3AddERKSt8functionIFvRN8opendnp314IUpdateHandlerEEE@PLT
.LEHE12:
	movq	16(%rsp), %rax
	testq	%rax, %rax
	je	.L241
	movl	$3, %edx
	movq	%rbp, %rsi
	movq	%rbp, %rdi
	call	*%rax
.L241:
	movq	40(%rsp), %rax
	subq	%fs:40, %rax
	jne	.L259
	addq	$56, %rsp
	.cfi_remember_state
	.cfi_def_cfa_offset 56
	movq	%r12, %rax
	popq	%rbx
	.cfi_def_cfa_offset 48
	popq	%rbp
	.cfi_def_cfa_offset 40
	popq	%r12
	.cfi_def_cfa_offset 32
	popq	%r13
	.cfi_def_cfa_offset 24
	popq	%r14
	.cfi_def_cfa_offset 16
	popq	%r15
	.cfi_def_cfa_offset 8
	ret
.L259:
	.cfi_restore_state
	call	__stack_chk_fail@PLT
.L245:
	endbr64
	movq	%rax, %r12
	jmp	.L242
.L246:
	endbr64
	movq	%rax, %rbp
	jmp	.L239
	.section	.gcc_except_table
.LLSDA2094:
	.byte	0xff
	.byte	0xff
	.byte	0x1
	.uleb128 .LLSDACSE2094-.LLSDACSB2094
.LLSDACSB2094:
	.uleb128 .LEHB11-.LFB2094
	.uleb128 .LEHE11-.LEHB11
	.uleb128 .L246-.LFB2094
	.uleb128 0
	.uleb128 .LEHB12-.LFB2094
	.uleb128 .LEHE12-.LEHB12
	.uleb128 .L245-.LFB2094
	.uleb128 0
.LLSDACSE2094:
	.text
	.cfi_endproc
	.section	.text.unlikely
	.cfi_startproc
	.cfi_personality 0x9b,DW.ref.__gxx_personality_v0
	.cfi_lsda 0x1b,.LLSDAC2094
	.type	_ZN8asiodnp313UpdateBuilder6UpdateERKN8opendnp315DoubleBitBinaryEtNS1_9EventModeE.cold, @function
_ZN8asiodnp313UpdateBuilder6UpdateERKN8opendnp315DoubleBitBinaryEtNS1_9EventModeE.cold:
.LFSB2094:
.L242:
	.cfi_def_cfa_offset 112
	.cfi_offset 3, -56
	.cfi_offset 6, -48
	.cfi_offset 12, -40
	.cfi_offset 13, -32
	.cfi_offset 14, -24
	.cfi_offset 15, -16
	movq	16(%rsp), %rax
	testq	%rax, %rax
	je	.L243
	movl	$3, %edx
	movq	%rbp, %rsi
	movq	%rbp, %rdi
	call	*%rax
.L243:
	movq	%r12, %rdi
.LEHB13:
	call	_Unwind_Resume@PLT
.LEHE13:
.L239:
	movq	16(%rsp), %rax
	testq	%rax, %rax
	je	.L240
	movq	%rsp, %rdi
	movl	$3, %edx
	movq	%rdi, %rsi
	call	*%rax
.L240:
	movq	%rbp, %rdi
.LEHB14:
	call	_Unwind_Resume@PLT
.LEHE14:
	.cfi_endproc
.LFE2094:
	.section	.gcc_except_table
.LLSDAC2094:
	.byte	0xff
	.byte	0xff
	.byte	0x1
	.uleb128 .LLSDACSEC2094-.LLSDACSBC2094
.LLSDACSBC2094:
	.uleb128 .LEHB13-.LCOLDB4
	.uleb128 .LEHE13-.LEHB13
	.uleb128 0
	.uleb128 0
	.uleb128 .LEHB14-.LCOLDB4
	.uleb128 .LEHE14-.LEHB14
	.uleb128 0
	.uleb128 0
.LLSDACSEC2094:
	.section	.text.unlikely
	.text
	.size	_ZN8asiodnp313UpdateBuilder6UpdateERKN8opendnp315DoubleBitBinaryEtNS1_9EventModeE, .-_ZN8asiodnp313UpdateBuilder6UpdateERKN8opendnp315DoubleBitBinaryEtNS1_9EventModeE
	.section	.text.unlikely
	.size	_ZN8asiodnp313UpdateBuilder6UpdateERKN8opendnp315DoubleBitBinaryEtNS1_9EventModeE.cold, .-_ZN8asiodnp313UpdateBuilder6UpdateERKN8opendnp315DoubleBitBinaryEtNS1_9EventModeE.cold
.LCOLDE4:
	.text
.LHOTE4:
	.section	.text.unlikely
	.align 2
.LCOLDB5:
	.text
.LHOTB5:
	.align 2
	.p2align 4
	.globl	_ZN8asiodnp313UpdateBuilder6UpdateERKN8opendnp36AnalogEtNS1_9EventModeE
	.type	_ZN8asiodnp313UpdateBuilder6UpdateERKN8opendnp36AnalogEtNS1_9EventModeE, @function
_ZN8asiodnp313UpdateBuilder6UpdateERKN8opendnp36AnalogEtNS1_9EventModeE:
.LFB2095:
	.cfi_startproc
	.cfi_personality 0x9b,DW.ref.__gxx_personality_v0
	.cfi_lsda 0x1b,.LLSDA2095
	endbr64
	pushq	%r14
	.cfi_def_cfa_offset 16
	.cfi_offset 14, -16
	pxor	%xmm0, %xmm0
	pushq	%r13
	.cfi_def_cfa_offset 24
	.cfi_offset 13, -24
	pushq	%r12
	.cfi_def_cfa_offset 32
	.cfi_offset 12, -32
	movq	%rdi, %r12
	movl	$32, %edi
	pushq	%rbp
	.cfi_def_cfa_offset 40
	.cfi_offset 6, -40
	movl	%edx, %ebp
	pushq	%rbx
	.cfi_def_cfa_offset 48
	.cfi_offset 3, -48
	movl	%ecx, %ebx
	subq	$64, %rsp
	.cfi_def_cfa_offset 112
	movsd	16(%rsi), %xmm1
	movzbl	(%rsi), %r14d
	movq	%fs:40, %rax
	movq	%rax, 56(%rsp)
	xorl	%eax, %eax
	movq	8(%rsi), %r13
	movaps	%xmm0, 16(%rsp)
	movq	$0, 32(%rsp)
	movq	$0, 40(%rsp)
	movsd	%xmm1, 8(%rsp)
.LEHB15:
	call	_Znwm@PLT
.LEHE15:
	movw	%bp, 24(%rax)
	movsd	8(%rsp), %xmm1
	leaq	16(%rsp), %rbp
	movq	%r12, %rdi
	movq	_ZNSt17_Function_handlerIFvRN8opendnp314IUpdateHandlerEEZN8asiodnp313UpdateBuilder7AddMeasINS0_6AnalogEEERS5_RKT_tNS0_9EventModeEEUlS2_E_E10_M_managerERSt9_Any_dataRKSF_St18_Manager_operation@GOTPCREL(%rip), %xmm0
	movb	%r14b, (%rax)
	movq	%rbp, %rsi
	movq	%r13, 8(%rax)
	movb	%bl, 26(%rax)
	movhps	_ZNSt17_Function_handlerIFvRN8opendnp314IUpdateHandlerEEZN8asiodnp313UpdateBuilder7AddMeasINS0_6AnalogEEERS5_RKT_tNS0_9EventModeEEUlS2_E_E9_M_invokeERKSt9_Any_dataS2_@GOTPCREL(%rip), %xmm0
	movsd	%xmm1, 16(%rax)
	movq	%rax, 16(%rsp)
	movaps	%xmm0, 32(%rsp)
.LEHB16:
	call	_ZN8asiodnp313UpdateBuilder3AddERKSt8functionIFvRN8opendnp314IUpdateHandlerEEE@PLT
.LEHE16:
	movq	32(%rsp), %rax
	testq	%rax, %rax
	je	.L264
	movl	$3, %edx
	movq	%rbp, %rsi
	movq	%rbp, %rdi
	call	*%rax
.L264:
	movq	56(%rsp), %rax
	subq	%fs:40, %rax
	jne	.L282
	addq	$64, %rsp
	.cfi_remember_state
	.cfi_def_cfa_offset 48
	movq	%r12, %rax
	popq	%rbx
	.cfi_def_cfa_offset 40
	popq	%rbp
	.cfi_def_cfa_offset 32
	popq	%r12
	.cfi_def_cfa_offset 24
	popq	%r13
	.cfi_def_cfa_offset 16
	popq	%r14
	.cfi_def_cfa_offset 8
	ret
.L282:
	.cfi_restore_state
	call	__stack_chk_fail@PLT
.L268:
	endbr64
	movq	%rax, %r12
	jmp	.L265
.L269:
	endbr64
	movq	%rax, %rbp
	jmp	.L262
	.section	.gcc_except_table
.LLSDA2095:
	.byte	0xff
	.byte	0xff
	.byte	0x1
	.uleb128 .LLSDACSE2095-.LLSDACSB2095
.LLSDACSB2095:
	.uleb128 .LEHB15-.LFB2095
	.uleb128 .LEHE15-.LEHB15
	.uleb128 .L269-.LFB2095
	.uleb128 0
	.uleb128 .LEHB16-.LFB2095
	.uleb128 .LEHE16-.LEHB16
	.uleb128 .L268-.LFB2095
	.uleb128 0
.LLSDACSE2095:
	.text
	.cfi_endproc
	.section	.text.unlikely
	.cfi_startproc
	.cfi_personality 0x9b,DW.ref.__gxx_personality_v0
	.cfi_lsda 0x1b,.LLSDAC2095
	.type	_ZN8asiodnp313UpdateBuilder6UpdateERKN8opendnp36AnalogEtNS1_9EventModeE.cold, @function
_ZN8asiodnp313UpdateBuilder6UpdateERKN8opendnp36AnalogEtNS1_9EventModeE.cold:
.LFSB2095:
.L265:
	.cfi_def_cfa_offset 112
	.cfi_offset 3, -48
	.cfi_offset 6, -40
	.cfi_offset 12, -32
	.cfi_offset 13, -24
	.cfi_offset 14, -16
	movq	32(%rsp), %rax
	testq	%rax, %rax
	je	.L266
	movl	$3, %edx
	movq	%rbp, %rsi
	movq	%rbp, %rdi
	call	*%rax
.L266:
	movq	%r12, %rdi
.LEHB17:
	call	_Unwind_Resume@PLT
.LEHE17:
.L262:
	movq	32(%rsp), %rax
	testq	%rax, %rax
	je	.L263
	leaq	16(%rsp), %rdi
	movl	$3, %edx
	movq	%rdi, %rsi
	call	*%rax
.L263:
	movq	%rbp, %rdi
.LEHB18:
	call	_Unwind_Resume@PLT
.LEHE18:
	.cfi_endproc
.LFE2095:
	.section	.gcc_except_table
.LLSDAC2095:
	.byte	0xff
	.byte	0xff
	.byte	0x1
	.uleb128 .LLSDACSEC2095-.LLSDACSBC2095
.LLSDACSBC2095:
	.uleb128 .LEHB17-.LCOLDB5
	.uleb128 .LEHE17-.LEHB17
	.uleb128 0
	.uleb128 0
	.uleb128 .LEHB18-.LCOLDB5
	.uleb128 .LEHE18-.LEHB18
	.uleb128 0
	.uleb128 0
.LLSDACSEC2095:
	.section	.text.unlikely
	.text
	.size	_ZN8asiodnp313UpdateBuilder6UpdateERKN8opendnp36AnalogEtNS1_9EventModeE, .-_ZN8asiodnp313UpdateBuilder6UpdateERKN8opendnp36AnalogEtNS1_9EventModeE
	.section	.text.unlikely
	.size	_ZN8asiodnp313UpdateBuilder6UpdateERKN8opendnp36AnalogEtNS1_9EventModeE.cold, .-_ZN8asiodnp313UpdateBuilder6UpdateERKN8opendnp36AnalogEtNS1_9EventModeE.cold
.LCOLDE5:
	.text
.LHOTE5:
	.section	.text.unlikely
	.align 2
.LCOLDB6:
	.text
.LHOTB6:
	.align 2
	.p2align 4
	.globl	_ZN8asiodnp313UpdateBuilder6UpdateERKN8opendnp37CounterEtNS1_9EventModeE
	.type	_ZN8asiodnp313UpdateBuilder6UpdateERKN8opendnp37CounterEtNS1_9EventModeE, @function
_ZN8asiodnp313UpdateBuilder6UpdateERKN8opendnp37CounterEtNS1_9EventModeE:
.LFB2096:
	.cfi_startproc
	.cfi_personality 0x9b,DW.ref.__gxx_personality_v0
	.cfi_lsda 0x1b,.LLSDA2096
	endbr64
	pushq	%r15
	.cfi_def_cfa_offset 16
	.cfi_offset 15, -16
	pxor	%xmm0, %xmm0
	pushq	%r14
	.cfi_def_cfa_offset 24
	.cfi_offset 14, -24
	pushq	%r13
	.cfi_def_cfa_offset 32
	.cfi_offset 13, -32
	pushq	%r12
	.cfi_def_cfa_offset 40
	.cfi_offset 12, -40
	movq	%rdi, %r12
	movl	$32, %edi
	pushq	%rbp
	.cfi_def_cfa_offset 48
	.cfi_offset 6, -48
	movl	%edx, %ebp
	pushq	%rbx
	.cfi_def_cfa_offset 56
	.cfi_offset 3, -56
	movl	%ecx, %ebx
	subq	$56, %rsp
	.cfi_def_cfa_offset 112
	movzbl	(%rsi), %r15d
	movq	8(%rsi), %r14
	movq	%fs:40, %rax
	movq	%rax, 40(%rsp)
	xorl	%eax, %eax
	movl	16(%rsi), %r13d
	movaps	%xmm0, (%rsp)
	movq	$0, 16(%rsp)
	movq	$0, 24(%rsp)
.LEHB19:
	call	_Znwm@PLT
.LEHE19:
	movq	_ZNSt17_Function_handlerIFvRN8opendnp314IUpdateHandlerEEZN8asiodnp313UpdateBuilder7AddMeasINS0_7CounterEEERS5_RKT_tNS0_9EventModeEEUlS2_E_E10_M_managerERSt9_Any_dataRKSF_St18_Manager_operation@GOTPCREL(%rip), %xmm0
	movw	%bp, 24(%rax)
	movq	%rsp, %rbp
	movq	%r12, %rdi
	movb	%r15b, (%rax)
	movq	%rbp, %rsi
	movq	%r14, 8(%rax)
	movhps	_ZNSt17_Function_handlerIFvRN8opendnp314IUpdateHandlerEEZN8asiodnp313UpdateBuilder7AddMeasINS0_7CounterEEERS5_RKT_tNS0_9EventModeEEUlS2_E_E9_M_invokeERKSt9_Any_dataS2_@GOTPCREL(%rip), %xmm0
	movl	%r13d, 16(%rax)
	movb	%bl, 26(%rax)
	movq	%rax, (%rsp)
	movaps	%xmm0, 16(%rsp)
.LEHB20:
	call	_ZN8asiodnp313UpdateBuilder3AddERKSt8functionIFvRN8opendnp314IUpdateHandlerEEE@PLT
.LEHE20:
	movq	16(%rsp), %rax
	testq	%rax, %rax
	je	.L287
	movl	$3, %edx
	movq	%rbp, %rsi
	movq	%rbp, %rdi
	call	*%rax
.L287:
	movq	40(%rsp), %rax
	subq	%fs:40, %rax
	jne	.L305
	addq	$56, %rsp
	.cfi_remember_state
	.cfi_def_cfa_offset 56
	movq	%r12, %rax
	popq	%rbx
	.cfi_def_cfa_offset 48
	popq	%rbp
	.cfi_def_cfa_offset 40
	popq	%r12
	.cfi_def_cfa_offset 32
	popq	%r13
	.cfi_def_cfa_offset 24
	popq	%r14
	.cfi_def_cfa_offset 16
	popq	%r15
	.cfi_def_cfa_offset 8
	ret
.L305:
	.cfi_restore_state
	call	__stack_chk_fail@PLT
.L291:
	endbr64
	movq	%rax, %r12
	jmp	.L288
.L292:
	endbr64
	movq	%rax, %rbp
	jmp	.L285
	.section	.gcc_except_table
.LLSDA2096:
	.byte	0xff
	.byte	0xff
	.byte	0x1
	.uleb128 .LLSDACSE2096-.LLSDACSB2096
.LLSDACSB2096:
	.uleb128 .LEHB19-.LFB2096
	.uleb128 .LEHE19-.LEHB19
	.uleb128 .L292-.LFB2096
	.uleb128 0
	.uleb128 .LEHB20-.LFB2096
	.uleb128 .LEHE20-.LEHB20
	.uleb128 .L291-.LFB2096
	.uleb128 0
.LLSDACSE2096:
	.text
	.cfi_endproc
	.section	.text.unlikely
	.cfi_startproc
	.cfi_personality 0x9b,DW.ref.__gxx_personality_v0
	.cfi_lsda 0x1b,.LLSDAC2096
	.type	_ZN8asiodnp313UpdateBuilder6UpdateERKN8opendnp37CounterEtNS1_9EventModeE.cold, @function
_ZN8asiodnp313UpdateBuilder6UpdateERKN8opendnp37CounterEtNS1_9EventModeE.cold:
.LFSB2096:
.L288:
	.cfi_def_cfa_offset 112
	.cfi_offset 3, -56
	.cfi_offset 6, -48
	.cfi_offset 12, -40
	.cfi_offset 13, -32
	.cfi_offset 14, -24
	.cfi_offset 15, -16
	movq	16(%rsp), %rax
	testq	%rax, %rax
	je	.L289
	movl	$3, %edx
	movq	%rbp, %rsi
	movq	%rbp, %rdi
	call	*%rax
.L289:
	movq	%r12, %rdi
.LEHB21:
	call	_Unwind_Resume@PLT
.LEHE21:
.L285:
	movq	16(%rsp), %rax
	testq	%rax, %rax
	je	.L286
	movq	%rsp, %rdi
	movl	$3, %edx
	movq	%rdi, %rsi
	call	*%rax
.L286:
	movq	%rbp, %rdi
.LEHB22:
	call	_Unwind_Resume@PLT
.LEHE22:
	.cfi_endproc
.LFE2096:
	.section	.gcc_except_table
.LLSDAC2096:
	.byte	0xff
	.byte	0xff
	.byte	0x1
	.uleb128 .LLSDACSEC2096-.LLSDACSBC2096
.LLSDACSBC2096:
	.uleb128 .LEHB21-.LCOLDB6
	.uleb128 .LEHE21-.LEHB21
	.uleb128 0
	.uleb128 0
	.uleb128 .LEHB22-.LCOLDB6
	.uleb128 .LEHE22-.LEHB22
	.uleb128 0
	.uleb128 0
.LLSDACSEC2096:
	.section	.text.unlikely
	.text
	.size	_ZN8asiodnp313UpdateBuilder6UpdateERKN8opendnp37CounterEtNS1_9EventModeE, .-_ZN8asiodnp313UpdateBuilder6UpdateERKN8opendnp37CounterEtNS1_9EventModeE
	.section	.text.unlikely
	.size	_ZN8asiodnp313UpdateBuilder6UpdateERKN8opendnp37CounterEtNS1_9EventModeE.cold, .-_ZN8asiodnp313UpdateBuilder6UpdateERKN8opendnp37CounterEtNS1_9EventModeE.cold
.LCOLDE6:
	.text
.LHOTE6:
	.section	.text.unlikely
	.align 2
.LCOLDB7:
	.text
.LHOTB7:
	.align 2
	.p2align 4
	.globl	_ZN8asiodnp313UpdateBuilder6UpdateERKN8opendnp313FrozenCounterEtNS1_9EventModeE
	.type	_ZN8asiodnp313UpdateBuilder6UpdateERKN8opendnp313FrozenCounterEtNS1_9EventModeE, @function
_ZN8asiodnp313UpdateBuilder6UpdateERKN8opendnp313FrozenCounterEtNS1_9EventModeE:
.LFB2097:
	.cfi_startproc
	.cfi_personality 0x9b,DW.ref.__gxx_personality_v0
	.cfi_lsda 0x1b,.LLSDA2097
	endbr64
	pushq	%r15
	.cfi_def_cfa_offset 16
	.cfi_offset 15, -16
	pxor	%xmm0, %xmm0
	pushq	%r14
	.cfi_def_cfa_offset 24
	.cfi_offset 14, -24
	pushq	%r13
	.cfi_def_cfa_offset 32
	.cfi_offset 13, -32
	pushq	%r12
	.cfi_def_cfa_offset 40
	.cfi_offset 12, -40
	movq	%rdi, %r12
	movl	$32, %edi
	pushq	%rbp
	.cfi_def_cfa_offset 48
	.cfi_offset 6, -48
	movl	%edx, %ebp
	pushq	%rbx
	.cfi_def_cfa_offset 56
	.cfi_offset 3, -56
	movl	%ecx, %ebx
	subq	$56, %rsp
	.cfi_def_cfa_offset 112
	movzbl	(%rsi), %r15d
	movq	8(%rsi), %r14
	movq	%fs:40, %rax
	movq	%rax, 40(%rsp)
	xorl	%eax, %eax
	movl	16(%rsi), %r13d
	movaps	%xmm0, (%rsp)
	movq	$0, 16(%rsp)
	movq	$0, 24(%rsp)
.LEHB23:
	call	_Znwm@PLT
.LEHE23:
	movq	_ZNSt17_Function_handlerIFvRN8opendnp314IUpdateHandlerEEZN8asiodnp313UpdateBuilder7AddMeasINS0_13FrozenCounterEEERS5_RKT_tNS0_9EventModeEEUlS2_E_E10_M_managerERSt9_Any_dataRKSF_St18_Manager_operation@GOTPCREL(%rip), %xmm0
	movw	%bp, 24(%rax)
	movq	%rsp, %rbp
	movq	%r12, %rdi
	movb	%r15b, (%rax)
	movq	%rbp, %rsi
	movq	%r14, 8(%rax)
	movhps	_ZNSt17_Function_handlerIFvRN8opendnp314IUpdateHandlerEEZN8asiodnp313UpdateBuilder7AddMeasINS0_13FrozenCounterEEERS5_RKT_tNS0_9EventModeEEUlS2_E_E9_M_invokeERKSt9_Any_dataS2_@GOTPCREL(%rip), %xmm0
	movl	%r13d, 16(%rax)
	movb	%bl, 26(%rax)
	movq	%rax, (%rsp)
	movaps	%xmm0, 16(%rsp)
.LEHB24:
	call	_ZN8asiodnp313UpdateBuilder3AddERKSt8functionIFvRN8opendnp314IUpdateHandlerEEE@PLT
.LEHE24:
	movq	16(%rsp), %rax
	testq	%rax, %rax
	je	.L310
	movl	$3, %edx
	movq	%rbp, %rsi
	movq	%rbp, %rdi
	call	*%rax
.L310:
	movq	40(%rsp), %rax
	subq	%fs:40, %rax
	jne	.L328
	addq	$56, %rsp
	.cfi_remember_state
	.cfi_def_cfa_offset 56
	movq	%r12, %rax
	popq	%rbx
	.cfi_def_cfa_offset 48
	popq	%rbp
	.cfi_def_cfa_offset 40
	popq	%r12
	.cfi_def_cfa_offset 32
	popq	%r13
	.cfi_def_cfa_offset 24
	popq	%r14
	.cfi_def_cfa_offset 16
	popq	%r15
	.cfi_def_cfa_offset 8
	ret
.L328:
	.cfi_restore_state
	call	__stack_chk_fail@PLT
.L314:
	endbr64
	movq	%rax, %r12
	jmp	.L311
.L315:
	endbr64
	movq	%rax, %rbp
	jmp	.L308
	.section	.gcc_except_table
.LLSDA2097:
	.byte	0xff
	.byte	0xff
	.byte	0x1
	.uleb128 .LLSDACSE2097-.LLSDACSB2097
.LLSDACSB2097:
	.uleb128 .LEHB23-.LFB2097
	.uleb128 .LEHE23-.LEHB23
	.uleb128 .L315-.LFB2097
	.uleb128 0
	.uleb128 .LEHB24-.LFB2097
	.uleb128 .LEHE24-.LEHB24
	.uleb128 .L314-.LFB2097
	.uleb128 0
.LLSDACSE2097:
	.text
	.cfi_endproc
	.section	.text.unlikely
	.cfi_startproc
	.cfi_personality 0x9b,DW.ref.__gxx_personality_v0
	.cfi_lsda 0x1b,.LLSDAC2097
	.type	_ZN8asiodnp313UpdateBuilder6UpdateERKN8opendnp313FrozenCounterEtNS1_9EventModeE.cold, @function
_ZN8asiodnp313UpdateBuilder6UpdateERKN8opendnp313FrozenCounterEtNS1_9EventModeE.cold:
.LFSB2097:
.L311:
	.cfi_def_cfa_offset 112
	.cfi_offset 3, -56
	.cfi_offset 6, -48
	.cfi_offset 12, -40
	.cfi_offset 13, -32
	.cfi_offset 14, -24
	.cfi_offset 15, -16
	movq	16(%rsp), %rax
	testq	%rax, %rax
	je	.L312
	movl	$3, %edx
	movq	%rbp, %rsi
	movq	%rbp, %rdi
	call	*%rax
.L312:
	movq	%r12, %rdi
.LEHB25:
	call	_Unwind_Resume@PLT
.LEHE25:
.L308:
	movq	16(%rsp), %rax
	testq	%rax, %rax
	je	.L309
	movq	%rsp, %rdi
	movl	$3, %edx
	movq	%rdi, %rsi
	call	*%rax
.L309:
	movq	%rbp, %rdi
.LEHB26:
	call	_Unwind_Resume@PLT
.LEHE26:
	.cfi_endproc
.LFE2097:
	.section	.gcc_except_table
.LLSDAC2097:
	.byte	0xff
	.byte	0xff
	.byte	0x1
	.uleb128 .LLSDACSEC2097-.LLSDACSBC2097
.LLSDACSBC2097:
	.uleb128 .LEHB25-.LCOLDB7
	.uleb128 .LEHE25-.LEHB25
	.uleb128 0
	.uleb128 0
	.uleb128 .LEHB26-.LCOLDB7
	.uleb128 .LEHE26-.LEHB26
	.uleb128 0
	.uleb128 0
.LLSDACSEC2097:
	.section	.text.unlikely
	.text
	.size	_ZN8asiodnp313UpdateBuilder6UpdateERKN8opendnp313FrozenCounterEtNS1_9EventModeE, .-_ZN8asiodnp313UpdateBuilder6UpdateERKN8opendnp313FrozenCounterEtNS1_9EventModeE
	.section	.text.unlikely
	.size	_ZN8asiodnp313UpdateBuilder6UpdateERKN8opendnp313FrozenCounterEtNS1_9EventModeE.cold, .-_ZN8asiodnp313UpdateBuilder6UpdateERKN8opendnp313FrozenCounterEtNS1_9EventModeE.cold
.LCOLDE7:
	.text
.LHOTE7:
	.section	.text.unlikely
	.align 2
.LCOLDB8:
	.text
.LHOTB8:
	.align 2
	.p2align 4
	.globl	_ZN8asiodnp313UpdateBuilder6UpdateERKN8opendnp318BinaryOutputStatusEtNS1_9EventModeE
	.type	_ZN8asiodnp313UpdateBuilder6UpdateERKN8opendnp318BinaryOutputStatusEtNS1_9EventModeE, @function
_ZN8asiodnp313UpdateBuilder6UpdateERKN8opendnp318BinaryOutputStatusEtNS1_9EventModeE:
.LFB2098:
	.cfi_startproc
	.cfi_personality 0x9b,DW.ref.__gxx_personality_v0
	.cfi_lsda 0x1b,.LLSDA2098
	endbr64
	pushq	%r15
	.cfi_def_cfa_offset 16
	.cfi_offset 15, -16
	pxor	%xmm0, %xmm0
	pushq	%r14
	.cfi_def_cfa_offset 24
	.cfi_offset 14, -24
	pushq	%r13
	.cfi_def_cfa_offset 32
	.cfi_offset 13, -32
	pushq	%r12
	.cfi_def_cfa_offset 40
	.cfi_offset 12, -40
	movq	%rdi, %r12
	movl	$32, %edi
	pushq	%rbp
	.cfi_def_cfa_offset 48
	.cfi_offset 6, -48
	movl	%edx, %ebp
	pushq	%rbx
	.cfi_def_cfa_offset 56
	.cfi_offset 3, -56
	movl	%ecx, %ebx
	subq	$56, %rsp
	.cfi_def_cfa_offset 112
	movzbl	(%rsi), %r15d
	movq	8(%rsi), %r14
	movq	%fs:40, %rax
	movq	%rax, 40(%rsp)
	xorl	%eax, %eax
	movzbl	16(%rsi), %r13d
	movaps	%xmm0, (%rsp)
	movq	$0, 16(%rsp)
	movq	$0, 24(%rsp)
.LEHB27:
	call	_Znwm@PLT
.LEHE27:
	movq	_ZNSt17_Function_handlerIFvRN8opendnp314IUpdateHandlerEEZN8asiodnp313UpdateBuilder7AddMeasINS0_18BinaryOutputStatusEEERS5_RKT_tNS0_9EventModeEEUlS2_E_E10_M_managerERSt9_Any_dataRKSF_St18_Manager_operation@GOTPCREL(%rip), %xmm0
	movw	%bp, 24(%rax)
	movq	%rsp, %rbp
	movq	%r12, %rdi
	movb	%r15b, (%rax)
	movq	%rbp, %rsi
	movq	%r14, 8(%rax)
	movhps	_ZNSt17_Function_handlerIFvRN8opendnp314IUpdateHandlerEEZN8asiodnp313UpdateBuilder7AddMeasINS0_18BinaryOutputStatusEEERS5_RKT_tNS0_9EventModeEEUlS2_E_E9_M_invokeERKSt9_Any_dataS2_@GOTPCREL(%rip), %xmm0
	movb	%r13b, 16(%rax)
	movb	%bl, 26(%rax)
	movq	%rax, (%rsp)
	movaps	%xmm0, 16(%rsp)
.LEHB28:
	call	_ZN8asiodnp313UpdateBuilder3AddERKSt8functionIFvRN8opendnp314IUpdateHandlerEEE@PLT
.LEHE28:
	movq	16(%rsp), %rax
	testq	%rax, %rax
	je	.L333
	movl	$3, %edx
	movq	%rbp, %rsi
	movq	%rbp, %rdi
	call	*%rax
.L333:
	movq	40(%rsp), %rax
	subq	%fs:40, %rax
	jne	.L351
	addq	$56, %rsp
	.cfi_remember_state
	.cfi_def_cfa_offset 56
	movq	%r12, %rax
	popq	%rbx
	.cfi_def_cfa_offset 48
	popq	%rbp
	.cfi_def_cfa_offset 40
	popq	%r12
	.cfi_def_cfa_offset 32
	popq	%r13
	.cfi_def_cfa_offset 24
	popq	%r14
	.cfi_def_cfa_offset 16
	popq	%r15
	.cfi_def_cfa_offset 8
	ret
.L351:
	.cfi_restore_state
	call	__stack_chk_fail@PLT
.L337:
	endbr64
	movq	%rax, %r12
	jmp	.L334
.L338:
	endbr64
	movq	%rax, %rbp
	jmp	.L331
	.section	.gcc_except_table
.LLSDA2098:
	.byte	0xff
	.byte	0xff
	.byte	0x1
	.uleb128 .LLSDACSE2098-.LLSDACSB2098
.LLSDACSB2098:
	.uleb128 .LEHB27-.LFB2098
	.uleb128 .LEHE27-.LEHB27
	.uleb128 .L338-.LFB2098
	.uleb128 0
	.uleb128 .LEHB28-.LFB2098
	.uleb128 .LEHE28-.LEHB28
	.uleb128 .L337-.LFB2098
	.uleb128 0
.LLSDACSE2098:
	.text
	.cfi_endproc
	.section	.text.unlikely
	.cfi_startproc
	.cfi_personality 0x9b,DW.ref.__gxx_personality_v0
	.cfi_lsda 0x1b,.LLSDAC2098
	.type	_ZN8asiodnp313UpdateBuilder6UpdateERKN8opendnp318BinaryOutputStatusEtNS1_9EventModeE.cold, @function
_ZN8asiodnp313UpdateBuilder6UpdateERKN8opendnp318BinaryOutputStatusEtNS1_9EventModeE.cold:
.LFSB2098:
.L334:
	.cfi_def_cfa_offset 112
	.cfi_offset 3, -56
	.cfi_offset 6, -48
	.cfi_offset 12, -40
	.cfi_offset 13, -32
	.cfi_offset 14, -24
	.cfi_offset 15, -16
	movq	16(%rsp), %rax
	testq	%rax, %rax
	je	.L335
	movl	$3, %edx
	movq	%rbp, %rsi
	movq	%rbp, %rdi
	call	*%rax
.L335:
	movq	%r12, %rdi
.LEHB29:
	call	_Unwind_Resume@PLT
.LEHE29:
.L331:
	movq	16(%rsp), %rax
	testq	%rax, %rax
	je	.L332
	movq	%rsp, %rdi
	movl	$3, %edx
	movq	%rdi, %rsi
	call	*%rax
.L332:
	movq	%rbp, %rdi
.LEHB30:
	call	_Unwind_Resume@PLT
.LEHE30:
	.cfi_endproc
.LFE2098:
	.section	.gcc_except_table
.LLSDAC2098:
	.byte	0xff
	.byte	0xff
	.byte	0x1
	.uleb128 .LLSDACSEC2098-.LLSDACSBC2098
.LLSDACSBC2098:
	.uleb128 .LEHB29-.LCOLDB8
	.uleb128 .LEHE29-.LEHB29
	.uleb128 0
	.uleb128 0
	.uleb128 .LEHB30-.LCOLDB8
	.uleb128 .LEHE30-.LEHB30
	.uleb128 0
	.uleb128 0
.LLSDACSEC2098:
	.section	.text.unlikely
	.text
	.size	_ZN8asiodnp313UpdateBuilder6UpdateERKN8opendnp318BinaryOutputStatusEtNS1_9EventModeE, .-_ZN8asiodnp313UpdateBuilder6UpdateERKN8opendnp318BinaryOutputStatusEtNS1_9EventModeE
	.section	.text.unlikely
	.size	_ZN8asiodnp313UpdateBuilder6UpdateERKN8opendnp318BinaryOutputStatusEtNS1_9EventModeE.cold, .-_ZN8asiodnp313UpdateBuilder6UpdateERKN8opendnp318BinaryOutputStatusEtNS1_9EventModeE.cold
.LCOLDE8:
	.text
.LHOTE8:
	.section	.text.unlikely
	.align 2
.LCOLDB9:
	.text
.LHOTB9:
	.align 2
	.p2align 4
	.globl	_ZN8asiodnp313UpdateBuilder6UpdateERKN8opendnp318AnalogOutputStatusEtNS1_9EventModeE
	.type	_ZN8asiodnp313UpdateBuilder6UpdateERKN8opendnp318AnalogOutputStatusEtNS1_9EventModeE, @function
_ZN8asiodnp313UpdateBuilder6UpdateERKN8opendnp318AnalogOutputStatusEtNS1_9EventModeE:
.LFB2099:
	.cfi_startproc
	.cfi_personality 0x9b,DW.ref.__gxx_personality_v0
	.cfi_lsda 0x1b,.LLSDA2099
	endbr64
	pushq	%r14
	.cfi_def_cfa_offset 16
	.cfi_offset 14, -16
	pxor	%xmm0, %xmm0
	pushq	%r13
	.cfi_def_cfa_offset 24
	.cfi_offset 13, -24
	pushq	%r12
	.cfi_def_cfa_offset 32
	.cfi_offset 12, -32
	movq	%rdi, %r12
	movl	$32, %edi
	pushq	%rbp
	.cfi_def_cfa_offset 40
	.cfi_offset 6, -40
	movl	%edx, %ebp
	pushq	%rbx
	.cfi_def_cfa_offset 48
	.cfi_offset 3, -48
	movl	%ecx, %ebx
	subq	$64, %rsp
	.cfi_def_cfa_offset 112
	movsd	16(%rsi), %xmm1
	movzbl	(%rsi), %r14d
	movq	%fs:40, %rax
	movq	%rax, 56(%rsp)
	xorl	%eax, %eax
	movq	8(%rsi), %r13
	movaps	%xmm0, 16(%rsp)
	movq	$0, 32(%rsp)
	movq	$0, 40(%rsp)
	movsd	%xmm1, 8(%rsp)
.LEHB31:
	call	_Znwm@PLT
.LEHE31:
	movw	%bp, 24(%rax)
	movsd	8(%rsp), %xmm1
	leaq	16(%rsp), %rbp
	movq	%r12, %rdi
	movq	_ZNSt17_Function_handlerIFvRN8opendnp314IUpdateHandlerEEZN8asiodnp313UpdateBuilder7AddMeasINS0_18AnalogOutputStatusEEERS5_RKT_tNS0_9EventModeEEUlS2_E_E10_M_managerERSt9_Any_dataRKSF_St18_Manager_operation@GOTPCREL(%rip), %xmm0
	movb	%r14b, (%rax)
	movq	%rbp, %rsi
	movq	%r13, 8(%rax)
	movb	%bl, 26(%rax)
	movhps	_ZNSt17_Function_handlerIFvRN8opendnp314IUpdateHandlerEEZN8asiodnp313UpdateBuilder7AddMeasINS0_18AnalogOutputStatusEEERS5_RKT_tNS0_9EventModeEEUlS2_E_E9_M_invokeERKSt9_Any_dataS2_@GOTPCREL(%rip), %xmm0
	movsd	%xmm1, 16(%rax)
	movq	%rax, 16(%rsp)
	movaps	%xmm0, 32(%rsp)
.LEHB32:
	call	_ZN8asiodnp313UpdateBuilder3AddERKSt8functionIFvRN8opendnp314IUpdateHandlerEEE@PLT
.LEHE32:
	movq	32(%rsp), %rax
	testq	%rax, %rax
	je	.L356
	movl	$3, %edx
	movq	%rbp, %rsi
	movq	%rbp, %rdi
	call	*%rax
.L356:
	movq	56(%rsp), %rax
	subq	%fs:40, %rax
	jne	.L374
	addq	$64, %rsp
	.cfi_remember_state
	.cfi_def_cfa_offset 48
	movq	%r12, %rax
	popq	%rbx
	.cfi_def_cfa_offset 40
	popq	%rbp
	.cfi_def_cfa_offset 32
	popq	%r12
	.cfi_def_cfa_offset 24
	popq	%r13
	.cfi_def_cfa_offset 16
	popq	%r14
	.cfi_def_cfa_offset 8
	ret
.L374:
	.cfi_restore_state
	call	__stack_chk_fail@PLT
.L360:
	endbr64
	movq	%rax, %r12
	jmp	.L357
.L361:
	endbr64
	movq	%rax, %rbp
	jmp	.L354
	.section	.gcc_except_table
.LLSDA2099:
	.byte	0xff
	.byte	0xff
	.byte	0x1
	.uleb128 .LLSDACSE2099-.LLSDACSB2099
.LLSDACSB2099:
	.uleb128 .LEHB31-.LFB2099
	.uleb128 .LEHE31-.LEHB31
	.uleb128 .L361-.LFB2099
	.uleb128 0
	.uleb128 .LEHB32-.LFB2099
	.uleb128 .LEHE32-.LEHB32
	.uleb128 .L360-.LFB2099
	.uleb128 0
.LLSDACSE2099:
	.text
	.cfi_endproc
	.section	.text.unlikely
	.cfi_startproc
	.cfi_personality 0x9b,DW.ref.__gxx_personality_v0
	.cfi_lsda 0x1b,.LLSDAC2099
	.type	_ZN8asiodnp313UpdateBuilder6UpdateERKN8opendnp318AnalogOutputStatusEtNS1_9EventModeE.cold, @function
_ZN8asiodnp313UpdateBuilder6UpdateERKN8opendnp318AnalogOutputStatusEtNS1_9EventModeE.cold:
.LFSB2099:
.L357:
	.cfi_def_cfa_offset 112
	.cfi_offset 3, -48
	.cfi_offset 6, -40
	.cfi_offset 12, -32
	.cfi_offset 13, -24
	.cfi_offset 14, -16
	movq	32(%rsp), %rax
	testq	%rax, %rax
	je	.L358
	movl	$3, %edx
	movq	%rbp, %rsi
	movq	%rbp, %rdi
	call	*%rax
.L358:
	movq	%r12, %rdi
.LEHB33:
	call	_Unwind_Resume@PLT
.LEHE33:
.L354:
	movq	32(%rsp), %rax
	testq	%rax, %rax
	je	.L355
	leaq	16(%rsp), %rdi
	movl	$3, %edx
	movq	%rdi, %rsi
	call	*%rax
.L355:
	movq	%rbp, %rdi
.LEHB34:
	call	_Unwind_Resume@PLT
.LEHE34:
	.cfi_endproc
.LFE2099:
	.section	.gcc_except_table
.LLSDAC2099:
	.byte	0xff
	.byte	0xff
	.byte	0x1
	.uleb128 .LLSDACSEC2099-.LLSDACSBC2099
.LLSDACSBC2099:
	.uleb128 .LEHB33-.LCOLDB9
	.uleb128 .LEHE33-.LEHB33
	.uleb128 0
	.uleb128 0
	.uleb128 .LEHB34-.LCOLDB9
	.uleb128 .LEHE34-.LEHB34
	.uleb128 0
	.uleb128 0
.LLSDACSEC2099:
	.section	.text.unlikely
	.text
	.size	_ZN8asiodnp313UpdateBuilder6UpdateERKN8opendnp318AnalogOutputStatusEtNS1_9EventModeE, .-_ZN8asiodnp313UpdateBuilder6UpdateERKN8opendnp318AnalogOutputStatusEtNS1_9EventModeE
	.section	.text.unlikely
	.size	_ZN8asiodnp313UpdateBuilder6UpdateERKN8opendnp318AnalogOutputStatusEtNS1_9EventModeE.cold, .-_ZN8asiodnp313UpdateBuilder6UpdateERKN8opendnp318AnalogOutputStatusEtNS1_9EventModeE.cold
.LCOLDE9:
	.text
.LHOTE9:
	.section	.text.unlikely
	.align 2
.LCOLDB10:
	.text
.LHOTB10:
	.align 2
	.p2align 4
	.globl	_ZN8asiodnp313UpdateBuilder6UpdateERKN8opendnp315TimeAndIntervalEt
	.type	_ZN8asiodnp313UpdateBuilder6UpdateERKN8opendnp315TimeAndIntervalEt, @function
_ZN8asiodnp313UpdateBuilder6UpdateERKN8opendnp315TimeAndIntervalEt:
.LFB2100:
	.cfi_startproc
	.cfi_personality 0x9b,DW.ref.__gxx_personality_v0
	.cfi_lsda 0x1b,.LLSDA2100
	endbr64
	pushq	%r14
	.cfi_def_cfa_offset 16
	.cfi_offset 14, -16
	pxor	%xmm0, %xmm0
	pushq	%r13
	.cfi_def_cfa_offset 24
	.cfi_offset 13, -24
	pushq	%r12
	.cfi_def_cfa_offset 32
	.cfi_offset 12, -32
	movq	%rdi, %r12
	movl	$24, %edi
	pushq	%rbp
	.cfi_def_cfa_offset 40
	.cfi_offset 6, -40
	pushq	%rbx
	.cfi_def_cfa_offset 48
	.cfi_offset 3, -48
	movl	%edx, %ebx
	subq	$48, %rsp
	.cfi_def_cfa_offset 96
	movq	(%rsi), %r14
	movl	8(%rsi), %r13d
	movq	%fs:40, %rax
	movq	%rax, 40(%rsp)
	xorl	%eax, %eax
	movzbl	12(%rsi), %ebp
	movaps	%xmm0, (%rsp)
	movq	$0, 16(%rsp)
	movq	$0, 24(%rsp)
.LEHB35:
	call	_Znwm@PLT
.LEHE35:
	movb	%bpl, 12(%rax)
	leaq	_ZNSt17_Function_handlerIFvRN8opendnp314IUpdateHandlerEEZN8asiodnp313UpdateBuilder6UpdateERKNS0_15TimeAndIntervalEtEUlS2_E_E10_M_managerERSt9_Any_dataRKSB_St18_Manager_operation(%rip), %rcx
	movq	%rsp, %rbp
	movq	%r12, %rdi
	movq	%r14, (%rax)
	movq	%rcx, %xmm0
	movq	%rbp, %rsi
	movl	%r13d, 8(%rax)
	movw	%bx, 16(%rax)
	movq	%rax, (%rsp)
	leaq	_ZNSt17_Function_handlerIFvRN8opendnp314IUpdateHandlerEEZN8asiodnp313UpdateBuilder6UpdateERKNS0_15TimeAndIntervalEtEUlS2_E_E9_M_invokeERKSt9_Any_dataS2_(%rip), %rax
	movq	%rax, %xmm1
	punpcklqdq	%xmm1, %xmm0
	movaps	%xmm0, 16(%rsp)
.LEHB36:
	call	_ZN8asiodnp313UpdateBuilder3AddERKSt8functionIFvRN8opendnp314IUpdateHandlerEEE@PLT
.LEHE36:
	movq	16(%rsp), %rax
	testq	%rax, %rax
	je	.L379
	movl	$3, %edx
	movq	%rbp, %rsi
	movq	%rbp, %rdi
	call	*%rax
.L379:
	movq	40(%rsp), %rax
	subq	%fs:40, %rax
	jne	.L397
	addq	$48, %rsp
	.cfi_remember_state
	.cfi_def_cfa_offset 48
	movq	%r12, %rax
	popq	%rbx
	.cfi_def_cfa_offset 40
	popq	%rbp
	.cfi_def_cfa_offset 32
	popq	%r12
	.cfi_def_cfa_offset 24
	popq	%r13
	.cfi_def_cfa_offset 16
	popq	%r14
	.cfi_def_cfa_offset 8
	ret
.L397:
	.cfi_restore_state
	call	__stack_chk_fail@PLT
.L383:
	endbr64
	movq	%rax, %r12
	jmp	.L380
.L384:
	endbr64
	movq	%rax, %rbp
	jmp	.L377
	.section	.gcc_except_table
.LLSDA2100:
	.byte	0xff
	.byte	0xff
	.byte	0x1
	.uleb128 .LLSDACSE2100-.LLSDACSB2100
.LLSDACSB2100:
	.uleb128 .LEHB35-.LFB2100
	.uleb128 .LEHE35-.LEHB35
	.uleb128 .L384-.LFB2100
	.uleb128 0
	.uleb128 .LEHB36-.LFB2100
	.uleb128 .LEHE36-.LEHB36
	.uleb128 .L383-.LFB2100
	.uleb128 0
.LLSDACSE2100:
	.text
	.cfi_endproc
	.section	.text.unlikely
	.cfi_startproc
	.cfi_personality 0x9b,DW.ref.__gxx_personality_v0
	.cfi_lsda 0x1b,.LLSDAC2100
	.type	_ZN8asiodnp313UpdateBuilder6UpdateERKN8opendnp315TimeAndIntervalEt.cold, @function
_ZN8asiodnp313UpdateBuilder6UpdateERKN8opendnp315TimeAndIntervalEt.cold:
.LFSB2100:
.L380:
	.cfi_def_cfa_offset 96
	.cfi_offset 3, -48
	.cfi_offset 6, -40
	.cfi_offset 12, -32
	.cfi_offset 13, -24
	.cfi_offset 14, -16
	movq	16(%rsp), %rax
	testq	%rax, %rax
	je	.L381
	movl	$3, %edx
	movq	%rbp, %rsi
	movq	%rbp, %rdi
	call	*%rax
.L381:
	movq	%r12, %rdi
.LEHB37:
	call	_Unwind_Resume@PLT
.LEHE37:
.L377:
	movq	16(%rsp), %rax
	testq	%rax, %rax
	je	.L378
	movq	%rsp, %rdi
	movl	$3, %edx
	movq	%rdi, %rsi
	call	*%rax
.L378:
	movq	%rbp, %rdi
.LEHB38:
	call	_Unwind_Resume@PLT
.LEHE38:
	.cfi_endproc
.LFE2100:
	.section	.gcc_except_table
.LLSDAC2100:
	.byte	0xff
	.byte	0xff
	.byte	0x1
	.uleb128 .LLSDACSEC2100-.LLSDACSBC2100
.LLSDACSBC2100:
	.uleb128 .LEHB37-.LCOLDB10
	.uleb128 .LEHE37-.LEHB37
	.uleb128 0
	.uleb128 0
	.uleb128 .LEHB38-.LCOLDB10
	.uleb128 .LEHE38-.LEHB38
	.uleb128 0
	.uleb128 0
.LLSDACSEC2100:
	.section	.text.unlikely
	.text
	.size	_ZN8asiodnp313UpdateBuilder6UpdateERKN8opendnp315TimeAndIntervalEt, .-_ZN8asiodnp313UpdateBuilder6UpdateERKN8opendnp315TimeAndIntervalEt
	.section	.text.unlikely
	.size	_ZN8asiodnp313UpdateBuilder6UpdateERKN8opendnp315TimeAndIntervalEt.cold, .-_ZN8asiodnp313UpdateBuilder6UpdateERKN8opendnp315TimeAndIntervalEt.cold
.LCOLDE10:
	.text
.LHOTE10:
	.section	.text.unlikely
	.align 2
.LCOLDB11:
	.text
.LHOTB11:
	.align 2
	.p2align 4
	.globl	_ZN8asiodnp313UpdateBuilder6ModifyEN8opendnp39FlagsTypeEtth
	.type	_ZN8asiodnp313UpdateBuilder6ModifyEN8opendnp39FlagsTypeEtth, @function
_ZN8asiodnp313UpdateBuilder6ModifyEN8opendnp39FlagsTypeEtth:
.LFB2107:
	.cfi_startproc
	.cfi_personality 0x9b,DW.ref.__gxx_personality_v0
	.cfi_lsda 0x1b,.LLSDA2107
	endbr64
	pushq	%r12
	.cfi_def_cfa_offset 16
	.cfi_offset 12, -16
	pxor	%xmm0, %xmm0
	movq	%rdi, %r12
	pushq	%rbp
	.cfi_def_cfa_offset 24
	.cfi_offset 6, -24
	subq	$56, %rsp
	.cfi_def_cfa_offset 80
	movq	%fs:40, %rax
	movq	%rax, 40(%rsp)
	xorl	%eax, %eax
	movaps	%xmm0, (%rsp)
	leaq	_ZNSt17_Function_handlerIFvRN8opendnp314IUpdateHandlerEEZN8asiodnp313UpdateBuilder6ModifyENS0_9FlagsTypeEtthEUlS2_E_E9_M_invokeERKSt9_Any_dataS2_(%rip), %rax
	movq	%rsp, %rbp
	movw	%cx, 4(%rsp)
	leaq	_ZNSt17_Function_handlerIFvRN8opendnp314IUpdateHandlerEEZN8asiodnp313UpdateBuilder6ModifyENS0_9FlagsTypeEtthEUlS2_E_E10_M_managerERSt9_Any_dataRKS9_St18_Manager_operation(%rip), %rcx
	movq	%rax, %xmm1
	movq	%rcx, %xmm0
	movb	%sil, (%rsp)
	movq	%rbp, %rsi
	punpcklqdq	%xmm1, %xmm0
	movw	%dx, 2(%rsp)
	movb	%r8b, 6(%rsp)
	movaps	%xmm0, 16(%rsp)
.LEHB39:
	call	_ZN8asiodnp313UpdateBuilder3AddERKSt8functionIFvRN8opendnp314IUpdateHandlerEEE@PLT
.LEHE39:
	movq	16(%rsp), %rax
	testq	%rax, %rax
	je	.L399
	movl	$3, %edx
	movq	%rbp, %rsi
	movq	%rbp, %rdi
	call	*%rax
.L399:
	movq	40(%rsp), %rax
	subq	%fs:40, %rax
	jne	.L412
	addq	$56, %rsp
	.cfi_remember_state
	.cfi_def_cfa_offset 24
	movq	%r12, %rax
	popq	%rbp
	.cfi_def_cfa_offset 16
	popq	%r12
	.cfi_def_cfa_offset 8
	ret
.L412:
	.cfi_restore_state
	call	__stack_chk_fail@PLT
.L403:
	endbr64
	movq	%rax, %r12
	jmp	.L400
	.section	.gcc_except_table
.LLSDA2107:
	.byte	0xff
	.byte	0xff
	.byte	0x1
	.uleb128 .LLSDACSE2107-.LLSDACSB2107
.LLSDACSB2107:
	.uleb128 .LEHB39-.LFB2107
	.uleb128 .LEHE39-.LEHB39
	.uleb128 .L403-.LFB2107
	.uleb128 0
.LLSDACSE2107:
	.text
	.cfi_endproc
	.section	.text.unlikely
	.cfi_startproc
	.cfi_personality 0x9b,DW.ref.__gxx_personality_v0
	.cfi_lsda 0x1b,.LLSDAC2107
	.type	_ZN8asiodnp313UpdateBuilder6ModifyEN8opendnp39FlagsTypeEtth.cold, @function
_ZN8asiodnp313UpdateBuilder6ModifyEN8opendnp39FlagsTypeEtth.cold:
.LFSB2107:
.L400:
	.cfi_def_cfa_offset 80
	.cfi_offset 6, -24
	.cfi_offset 12, -16
	movq	16(%rsp), %rax
	testq	%rax, %rax
	je	.L401
	movl	$3, %edx
	movq	%rbp, %rsi
	movq	%rbp, %rdi
	call	*%rax
.L401:
	movq	%r12, %rdi
.LEHB40:
	call	_Unwind_Resume@PLT
.LEHE40:
	.cfi_endproc
.LFE2107:
	.section	.gcc_except_table
.LLSDAC2107:
	.byte	0xff
	.byte	0xff
	.byte	0x1
	.uleb128 .LLSDACSEC2107-.LLSDACSBC2107
.LLSDACSBC2107:
	.uleb128 .LEHB40-.LCOLDB11
	.uleb128 .LEHE40-.LEHB40
	.uleb128 0
	.uleb128 0
.LLSDACSEC2107:
	.section	.text.unlikely
	.text
	.size	_ZN8asiodnp313UpdateBuilder6ModifyEN8opendnp39FlagsTypeEtth, .-_ZN8asiodnp313UpdateBuilder6ModifyEN8opendnp39FlagsTypeEtth
	.section	.text.unlikely
	.size	_ZN8asiodnp313UpdateBuilder6ModifyEN8opendnp39FlagsTypeEtth.cold, .-_ZN8asiodnp313UpdateBuilder6ModifyEN8opendnp39FlagsTypeEtth.cold
.LCOLDE11:
	.text
.LHOTE11:
	.weak	_ZTSSt11_Mutex_baseILN9__gnu_cxx12_Lock_policyE2EE
	.section	.rodata._ZTSSt11_Mutex_baseILN9__gnu_cxx12_Lock_policyE2EE,"aG",@progbits,_ZTSSt11_Mutex_baseILN9__gnu_cxx12_Lock_policyE2EE,comdat
	.align 32
	.type	_ZTSSt11_Mutex_baseILN9__gnu_cxx12_Lock_policyE2EE, @object
	.size	_ZTSSt11_Mutex_baseILN9__gnu_cxx12_Lock_policyE2EE, 47
_ZTSSt11_Mutex_baseILN9__gnu_cxx12_Lock_policyE2EE:
	.string	"St11_Mutex_baseILN9__gnu_cxx12_Lock_policyE2EE"
	.weak	_ZTISt11_Mutex_baseILN9__gnu_cxx12_Lock_policyE2EE
	.section	.data.rel.ro._ZTISt11_Mutex_baseILN9__gnu_cxx12_Lock_policyE2EE,"awG",@progbits,_ZTISt11_Mutex_baseILN9__gnu_cxx12_Lock_policyE2EE,comdat
	.align 8
	.type	_ZTISt11_Mutex_baseILN9__gnu_cxx12_Lock_policyE2EE, @object
	.size	_ZTISt11_Mutex_baseILN9__gnu_cxx12_Lock_policyE2EE, 16
_ZTISt11_Mutex_baseILN9__gnu_cxx12_Lock_policyE2EE:
	.quad	_ZTVN10__cxxabiv117__class_type_infoE+16
	.quad	_ZTSSt11_Mutex_baseILN9__gnu_cxx12_Lock_policyE2EE
	.weak	_ZTSSt19_Sp_make_shared_tag
	.section	.rodata._ZTSSt19_Sp_make_shared_tag,"aG",@progbits,_ZTSSt19_Sp_make_shared_tag,comdat
	.align 16
	.type	_ZTSSt19_Sp_make_shared_tag, @object
	.size	_ZTSSt19_Sp_make_shared_tag, 24
_ZTSSt19_Sp_make_shared_tag:
	.string	"St19_Sp_make_shared_tag"
	.weak	_ZTSSt16_Sp_counted_baseILN9__gnu_cxx12_Lock_policyE2EE
	.section	.rodata._ZTSSt16_Sp_counted_baseILN9__gnu_cxx12_Lock_policyE2EE,"aG",@progbits,_ZTSSt16_Sp_counted_baseILN9__gnu_cxx12_Lock_policyE2EE,comdat
	.align 32
	.type	_ZTSSt16_Sp_counted_baseILN9__gnu_cxx12_Lock_policyE2EE, @object
	.size	_ZTSSt16_Sp_counted_baseILN9__gnu_cxx12_Lock_policyE2EE, 52
_ZTSSt16_Sp_counted_baseILN9__gnu_cxx12_Lock_policyE2EE:
	.string	"St16_Sp_counted_baseILN9__gnu_cxx12_Lock_policyE2EE"
	.weak	_ZTISt16_Sp_counted_baseILN9__gnu_cxx12_Lock_policyE2EE
	.section	.data.rel.ro._ZTISt16_Sp_counted_baseILN9__gnu_cxx12_Lock_policyE2EE,"awG",@progbits,_ZTISt16_Sp_counted_baseILN9__gnu_cxx12_Lock_policyE2EE,comdat
	.align 8
	.type	_ZTISt16_Sp_counted_baseILN9__gnu_cxx12_Lock_policyE2EE, @object
	.size	_ZTISt16_Sp_counted_baseILN9__gnu_cxx12_Lock_policyE2EE, 24
_ZTISt16_Sp_counted_baseILN9__gnu_cxx12_Lock_policyE2EE:
	.quad	_ZTVN10__cxxabiv120__si_class_type_infoE+16
	.quad	_ZTSSt16_Sp_counted_baseILN9__gnu_cxx12_Lock_policyE2EE
	.quad	_ZTISt11_Mutex_baseILN9__gnu_cxx12_Lock_policyE2EE
	.section	.data.rel.ro,"aw"
	.align 8
	.type	_ZTIZN8asiodnp313UpdateBuilder6UpdateERKN8opendnp315TimeAndIntervalEtEUlRNS1_14IUpdateHandlerEE_, @object
	.size	_ZTIZN8asiodnp313UpdateBuilder6UpdateERKN8opendnp315TimeAndIntervalEtEUlRNS1_14IUpdateHandlerEE_, 16
_ZTIZN8asiodnp313UpdateBuilder6UpdateERKN8opendnp315TimeAndIntervalEtEUlRNS1_14IUpdateHandlerEE_:
	.quad	_ZTVN10__cxxabiv117__class_type_infoE+16
	.quad	_ZTSZN8asiodnp313UpdateBuilder6UpdateERKN8opendnp315TimeAndIntervalEtEUlRNS1_14IUpdateHandlerEE_
	.section	.rodata
	.align 32
	.type	_ZTSZN8asiodnp313UpdateBuilder6UpdateERKN8opendnp315TimeAndIntervalEtEUlRNS1_14IUpdateHandlerEE_, @object
	.size	_ZTSZN8asiodnp313UpdateBuilder6UpdateERKN8opendnp315TimeAndIntervalEtEUlRNS1_14IUpdateHandlerEE_, 94
_ZTSZN8asiodnp313UpdateBuilder6UpdateERKN8opendnp315TimeAndIntervalEtEUlRNS1_14IUpdateHandlerEE_:
	.string	"*ZN8asiodnp313UpdateBuilder6UpdateERKN8opendnp315TimeAndIntervalEtEUlRNS1_14IUpdateHandlerEE_"
	.section	.data.rel.ro
	.align 8
	.type	_ZTIZN8asiodnp313UpdateBuilder6ModifyEN8opendnp39FlagsTypeEtthEUlRNS1_14IUpdateHandlerEE_, @object
	.size	_ZTIZN8asiodnp313UpdateBuilder6ModifyEN8opendnp39FlagsTypeEtthEUlRNS1_14IUpdateHandlerEE_, 16
_ZTIZN8asiodnp313UpdateBuilder6ModifyEN8opendnp39FlagsTypeEtthEUlRNS1_14IUpdateHandlerEE_:
	.quad	_ZTVN10__cxxabiv117__class_type_infoE+16
	.quad	_ZTSZN8asiodnp313UpdateBuilder6ModifyEN8opendnp39FlagsTypeEtthEUlRNS1_14IUpdateHandlerEE_
	.section	.rodata
	.align 32
	.type	_ZTSZN8asiodnp313UpdateBuilder6ModifyEN8opendnp39FlagsTypeEtthEUlRNS1_14IUpdateHandlerEE_, @object
	.size	_ZTSZN8asiodnp313UpdateBuilder6ModifyEN8opendnp39FlagsTypeEtthEUlRNS1_14IUpdateHandlerEE_, 87
_ZTSZN8asiodnp313UpdateBuilder6ModifyEN8opendnp39FlagsTypeEtthEUlRNS1_14IUpdateHandlerEE_:
	.string	"*ZN8asiodnp313UpdateBuilder6ModifyEN8opendnp39FlagsTypeEtthEUlRNS1_14IUpdateHandlerEE_"
	.weak	_ZTSZN8asiodnp313UpdateBuilder7AddMeasIN8opendnp36BinaryEEERS0_RKT_tNS2_9EventModeEEUlRNS2_14IUpdateHandlerEE_
	.section	.rodata._ZTSZN8asiodnp313UpdateBuilder7AddMeasIN8opendnp36BinaryEEERS0_RKT_tNS2_9EventModeEEUlRNS2_14IUpdateHandlerEE_,"aG",@progbits,_ZTSZN8asiodnp313UpdateBuilder7AddMeasIN8opendnp36BinaryEEERS0_RKT_tNS2_9EventModeEEUlRNS2_14IUpdateHandlerEE_,comdat
	.align 32
	.type	_ZTSZN8asiodnp313UpdateBuilder7AddMeasIN8opendnp36BinaryEEERS0_RKT_tNS2_9EventModeEEUlRNS2_14IUpdateHandlerEE_, @object
	.size	_ZTSZN8asiodnp313UpdateBuilder7AddMeasIN8opendnp36BinaryEEERS0_RKT_tNS2_9EventModeEEUlRNS2_14IUpdateHandlerEE_, 107
_ZTSZN8asiodnp313UpdateBuilder7AddMeasIN8opendnp36BinaryEEERS0_RKT_tNS2_9EventModeEEUlRNS2_14IUpdateHandlerEE_:
	.string	"ZN8asiodnp313UpdateBuilder7AddMeasIN8opendnp36BinaryEEERS0_RKT_tNS2_9EventModeEEUlRNS2_14IUpdateHandlerEE_"
	.weak	_ZTIZN8asiodnp313UpdateBuilder7AddMeasIN8opendnp36BinaryEEERS0_RKT_tNS2_9EventModeEEUlRNS2_14IUpdateHandlerEE_
	.section	.data.rel.ro._ZTIZN8asiodnp313UpdateBuilder7AddMeasIN8opendnp36BinaryEEERS0_RKT_tNS2_9EventModeEEUlRNS2_14IUpdateHandlerEE_,"awG",@progbits,_ZTIZN8asiodnp313UpdateBuilder7AddMeasIN8opendnp36BinaryEEERS0_RKT_tNS2_9EventModeEEUlRNS2_14IUpdateHandlerEE_,comdat
	.align 8
	.type	_ZTIZN8asiodnp313UpdateBuilder7AddMeasIN8opendnp36BinaryEEERS0_RKT_tNS2_9EventModeEEUlRNS2_14IUpdateHandlerEE_, @object
	.size	_ZTIZN8asiodnp313UpdateBuilder7AddMeasIN8opendnp36BinaryEEERS0_RKT_tNS2_9EventModeEEUlRNS2_14IUpdateHandlerEE_, 16
_ZTIZN8asiodnp313UpdateBuilder7AddMeasIN8opendnp36BinaryEEERS0_RKT_tNS2_9EventModeEEUlRNS2_14IUpdateHandlerEE_:
	.quad	_ZTVN10__cxxabiv117__class_type_infoE+16
	.quad	_ZTSZN8asiodnp313UpdateBuilder7AddMeasIN8opendnp36BinaryEEERS0_RKT_tNS2_9EventModeEEUlRNS2_14IUpdateHandlerEE_
	.weak	_ZTSZN8asiodnp313UpdateBuilder7AddMeasIN8opendnp315DoubleBitBinaryEEERS0_RKT_tNS2_9EventModeEEUlRNS2_14IUpdateHandlerEE_
	.section	.rodata._ZTSZN8asiodnp313UpdateBuilder7AddMeasIN8opendnp315DoubleBitBinaryEEERS0_RKT_tNS2_9EventModeEEUlRNS2_14IUpdateHandlerEE_,"aG",@progbits,_ZTSZN8asiodnp313UpdateBuilder7AddMeasIN8opendnp315DoubleBitBinaryEEERS0_RKT_tNS2_9EventModeEEUlRNS2_14IUpdateHandlerEE_,comdat
	.align 32
	.type	_ZTSZN8asiodnp313UpdateBuilder7AddMeasIN8opendnp315DoubleBitBinaryEEERS0_RKT_tNS2_9EventModeEEUlRNS2_14IUpdateHandlerEE_, @object
	.size	_ZTSZN8asiodnp313UpdateBuilder7AddMeasIN8opendnp315DoubleBitBinaryEEERS0_RKT_tNS2_9EventModeEEUlRNS2_14IUpdateHandlerEE_, 117
_ZTSZN8asiodnp313UpdateBuilder7AddMeasIN8opendnp315DoubleBitBinaryEEERS0_RKT_tNS2_9EventModeEEUlRNS2_14IUpdateHandlerEE_:
	.string	"ZN8asiodnp313UpdateBuilder7AddMeasIN8opendnp315DoubleBitBinaryEEERS0_RKT_tNS2_9EventModeEEUlRNS2_14IUpdateHandlerEE_"
	.weak	_ZTIZN8asiodnp313UpdateBuilder7AddMeasIN8opendnp315DoubleBitBinaryEEERS0_RKT_tNS2_9EventModeEEUlRNS2_14IUpdateHandlerEE_
	.section	.data.rel.ro._ZTIZN8asiodnp313UpdateBuilder7AddMeasIN8opendnp315DoubleBitBinaryEEERS0_RKT_tNS2_9EventModeEEUlRNS2_14IUpdateHandlerEE_,"awG",@progbits,_ZTIZN8asiodnp313UpdateBuilder7AddMeasIN8opendnp315DoubleBitBinaryEEERS0_RKT_tNS2_9EventModeEEUlRNS2_14IUpdateHandlerEE_,comdat
	.align 8
	.type	_ZTIZN8asiodnp313UpdateBuilder7AddMeasIN8opendnp315DoubleBitBinaryEEERS0_RKT_tNS2_9EventModeEEUlRNS2_14IUpdateHandlerEE_, @object
	.size	_ZTIZN8asiodnp313UpdateBuilder7AddMeasIN8opendnp315DoubleBitBinaryEEERS0_RKT_tNS2_9EventModeEEUlRNS2_14IUpdateHandlerEE_, 16
_ZTIZN8asiodnp313UpdateBuilder7AddMeasIN8opendnp315DoubleBitBinaryEEERS0_RKT_tNS2_9EventModeEEUlRNS2_14IUpdateHandlerEE_:
	.quad	_ZTVN10__cxxabiv117__class_type_infoE+16
	.quad	_ZTSZN8asiodnp313UpdateBuilder7AddMeasIN8opendnp315DoubleBitBinaryEEERS0_RKT_tNS2_9EventModeEEUlRNS2_14IUpdateHandlerEE_
	.weak	_ZTSZN8asiodnp313UpdateBuilder7AddMeasIN8opendnp36AnalogEEERS0_RKT_tNS2_9EventModeEEUlRNS2_14IUpdateHandlerEE_
	.section	.rodata._ZTSZN8asiodnp313UpdateBuilder7AddMeasIN8opendnp36AnalogEEERS0_RKT_tNS2_9EventModeEEUlRNS2_14IUpdateHandlerEE_,"aG",@progbits,_ZTSZN8asiodnp313UpdateBuilder7AddMeasIN8opendnp36AnalogEEERS0_RKT_tNS2_9EventModeEEUlRNS2_14IUpdateHandlerEE_,comdat
	.align 32
	.type	_ZTSZN8asiodnp313UpdateBuilder7AddMeasIN8opendnp36AnalogEEERS0_RKT_tNS2_9EventModeEEUlRNS2_14IUpdateHandlerEE_, @object
	.size	_ZTSZN8asiodnp313UpdateBuilder7AddMeasIN8opendnp36AnalogEEERS0_RKT_tNS2_9EventModeEEUlRNS2_14IUpdateHandlerEE_, 107
_ZTSZN8asiodnp313UpdateBuilder7AddMeasIN8opendnp36AnalogEEERS0_RKT_tNS2_9EventModeEEUlRNS2_14IUpdateHandlerEE_:
	.string	"ZN8asiodnp313UpdateBuilder7AddMeasIN8opendnp36AnalogEEERS0_RKT_tNS2_9EventModeEEUlRNS2_14IUpdateHandlerEE_"
	.weak	_ZTIZN8asiodnp313UpdateBuilder7AddMeasIN8opendnp36AnalogEEERS0_RKT_tNS2_9EventModeEEUlRNS2_14IUpdateHandlerEE_
	.section	.data.rel.ro._ZTIZN8asiodnp313UpdateBuilder7AddMeasIN8opendnp36AnalogEEERS0_RKT_tNS2_9EventModeEEUlRNS2_14IUpdateHandlerEE_,"awG",@progbits,_ZTIZN8asiodnp313UpdateBuilder7AddMeasIN8opendnp36AnalogEEERS0_RKT_tNS2_9EventModeEEUlRNS2_14IUpdateHandlerEE_,comdat
	.align 8
	.type	_ZTIZN8asiodnp313UpdateBuilder7AddMeasIN8opendnp36AnalogEEERS0_RKT_tNS2_9EventModeEEUlRNS2_14IUpdateHandlerEE_, @object
	.size	_ZTIZN8asiodnp313UpdateBuilder7AddMeasIN8opendnp36AnalogEEERS0_RKT_tNS2_9EventModeEEUlRNS2_14IUpdateHandlerEE_, 16
_ZTIZN8asiodnp313UpdateBuilder7AddMeasIN8opendnp36AnalogEEERS0_RKT_tNS2_9EventModeEEUlRNS2_14IUpdateHandlerEE_:
	.quad	_ZTVN10__cxxabiv117__class_type_infoE+16
	.quad	_ZTSZN8asiodnp313UpdateBuilder7AddMeasIN8opendnp36AnalogEEERS0_RKT_tNS2_9EventModeEEUlRNS2_14IUpdateHandlerEE_
	.weak	_ZTSZN8asiodnp313UpdateBuilder7AddMeasIN8opendnp37CounterEEERS0_RKT_tNS2_9EventModeEEUlRNS2_14IUpdateHandlerEE_
	.section	.rodata._ZTSZN8asiodnp313UpdateBuilder7AddMeasIN8opendnp37CounterEEERS0_RKT_tNS2_9EventModeEEUlRNS2_14IUpdateHandlerEE_,"aG",@progbits,_ZTSZN8asiodnp313UpdateBuilder7AddMeasIN8opendnp37CounterEEERS0_RKT_tNS2_9EventModeEEUlRNS2_14IUpdateHandlerEE_,comdat
	.align 32
	.type	_ZTSZN8asiodnp313UpdateBuilder7AddMeasIN8opendnp37CounterEEERS0_RKT_tNS2_9EventModeEEUlRNS2_14IUpdateHandlerEE_, @object
	.size	_ZTSZN8asiodnp313UpdateBuilder7AddMeasIN8opendnp37CounterEEERS0_RKT_tNS2_9EventModeEEUlRNS2_14IUpdateHandlerEE_, 108
_ZTSZN8asiodnp313UpdateBuilder7AddMeasIN8opendnp37CounterEEERS0_RKT_tNS2_9EventModeEEUlRNS2_14IUpdateHandlerEE_:
	.string	"ZN8asiodnp313UpdateBuilder7AddMeasIN8opendnp37CounterEEERS0_RKT_tNS2_9EventModeEEUlRNS2_14IUpdateHandlerEE_"
	.weak	_ZTIZN8asiodnp313UpdateBuilder7AddMeasIN8opendnp37CounterEEERS0_RKT_tNS2_9EventModeEEUlRNS2_14IUpdateHandlerEE_
	.section	.data.rel.ro._ZTIZN8asiodnp313UpdateBuilder7AddMeasIN8opendnp37CounterEEERS0_RKT_tNS2_9EventModeEEUlRNS2_14IUpdateHandlerEE_,"awG",@progbits,_ZTIZN8asiodnp313UpdateBuilder7AddMeasIN8opendnp37CounterEEERS0_RKT_tNS2_9EventModeEEUlRNS2_14IUpdateHandlerEE_,comdat
	.align 8
	.type	_ZTIZN8asiodnp313UpdateBuilder7AddMeasIN8opendnp37CounterEEERS0_RKT_tNS2_9EventModeEEUlRNS2_14IUpdateHandlerEE_, @object
	.size	_ZTIZN8asiodnp313UpdateBuilder7AddMeasIN8opendnp37CounterEEERS0_RKT_tNS2_9EventModeEEUlRNS2_14IUpdateHandlerEE_, 16
_ZTIZN8asiodnp313UpdateBuilder7AddMeasIN8opendnp37CounterEEERS0_RKT_tNS2_9EventModeEEUlRNS2_14IUpdateHandlerEE_:
	.quad	_ZTVN10__cxxabiv117__class_type_infoE+16
	.quad	_ZTSZN8asiodnp313UpdateBuilder7AddMeasIN8opendnp37CounterEEERS0_RKT_tNS2_9EventModeEEUlRNS2_14IUpdateHandlerEE_
	.weak	_ZTSZN8asiodnp313UpdateBuilder7AddMeasIN8opendnp313FrozenCounterEEERS0_RKT_tNS2_9EventModeEEUlRNS2_14IUpdateHandlerEE_
	.section	.rodata._ZTSZN8asiodnp313UpdateBuilder7AddMeasIN8opendnp313FrozenCounterEEERS0_RKT_tNS2_9EventModeEEUlRNS2_14IUpdateHandlerEE_,"aG",@progbits,_ZTSZN8asiodnp313UpdateBuilder7AddMeasIN8opendnp313FrozenCounterEEERS0_RKT_tNS2_9EventModeEEUlRNS2_14IUpdateHandlerEE_,comdat
	.align 32
	.type	_ZTSZN8asiodnp313UpdateBuilder7AddMeasIN8opendnp313FrozenCounterEEERS0_RKT_tNS2_9EventModeEEUlRNS2_14IUpdateHandlerEE_, @object
	.size	_ZTSZN8asiodnp313UpdateBuilder7AddMeasIN8opendnp313FrozenCounterEEERS0_RKT_tNS2_9EventModeEEUlRNS2_14IUpdateHandlerEE_, 115
_ZTSZN8asiodnp313UpdateBuilder7AddMeasIN8opendnp313FrozenCounterEEERS0_RKT_tNS2_9EventModeEEUlRNS2_14IUpdateHandlerEE_:
	.string	"ZN8asiodnp313UpdateBuilder7AddMeasIN8opendnp313FrozenCounterEEERS0_RKT_tNS2_9EventModeEEUlRNS2_14IUpdateHandlerEE_"
	.weak	_ZTIZN8asiodnp313UpdateBuilder7AddMeasIN8opendnp313FrozenCounterEEERS0_RKT_tNS2_9EventModeEEUlRNS2_14IUpdateHandlerEE_
	.section	.data.rel.ro._ZTIZN8asiodnp313UpdateBuilder7AddMeasIN8opendnp313FrozenCounterEEERS0_RKT_tNS2_9EventModeEEUlRNS2_14IUpdateHandlerEE_,"awG",@progbits,_ZTIZN8asiodnp313UpdateBuilder7AddMeasIN8opendnp313FrozenCounterEEERS0_RKT_tNS2_9EventModeEEUlRNS2_14IUpdateHandlerEE_,comdat
	.align 8
	.type	_ZTIZN8asiodnp313UpdateBuilder7AddMeasIN8opendnp313FrozenCounterEEERS0_RKT_tNS2_9EventModeEEUlRNS2_14IUpdateHandlerEE_, @object
	.size	_ZTIZN8asiodnp313UpdateBuilder7AddMeasIN8opendnp313FrozenCounterEEERS0_RKT_tNS2_9EventModeEEUlRNS2_14IUpdateHandlerEE_, 16
_ZTIZN8asiodnp313UpdateBuilder7AddMeasIN8opendnp313FrozenCounterEEERS0_RKT_tNS2_9EventModeEEUlRNS2_14IUpdateHandlerEE_:
	.quad	_ZTVN10__cxxabiv117__class_type_infoE+16
	.quad	_ZTSZN8asiodnp313UpdateBuilder7AddMeasIN8opendnp313FrozenCounterEEERS0_RKT_tNS2_9EventModeEEUlRNS2_14IUpdateHandlerEE_
	.weak	_ZTSZN8asiodnp313UpdateBuilder7AddMeasIN8opendnp318BinaryOutputStatusEEERS0_RKT_tNS2_9EventModeEEUlRNS2_14IUpdateHandlerEE_
	.section	.rodata._ZTSZN8asiodnp313UpdateBuilder7AddMeasIN8opendnp318BinaryOutputStatusEEERS0_RKT_tNS2_9EventModeEEUlRNS2_14IUpdateHandlerEE_,"aG",@progbits,_ZTSZN8asiodnp313UpdateBuilder7AddMeasIN8opendnp318BinaryOutputStatusEEERS0_RKT_tNS2_9EventModeEEUlRNS2_14IUpdateHandlerEE_,comdat
	.align 32
	.type	_ZTSZN8asiodnp313UpdateBuilder7AddMeasIN8opendnp318BinaryOutputStatusEEERS0_RKT_tNS2_9EventModeEEUlRNS2_14IUpdateHandlerEE_, @object
	.size	_ZTSZN8asiodnp313UpdateBuilder7AddMeasIN8opendnp318BinaryOutputStatusEEERS0_RKT_tNS2_9EventModeEEUlRNS2_14IUpdateHandlerEE_, 120
_ZTSZN8asiodnp313UpdateBuilder7AddMeasIN8opendnp318BinaryOutputStatusEEERS0_RKT_tNS2_9EventModeEEUlRNS2_14IUpdateHandlerEE_:
	.string	"ZN8asiodnp313UpdateBuilder7AddMeasIN8opendnp318BinaryOutputStatusEEERS0_RKT_tNS2_9EventModeEEUlRNS2_14IUpdateHandlerEE_"
	.weak	_ZTIZN8asiodnp313UpdateBuilder7AddMeasIN8opendnp318BinaryOutputStatusEEERS0_RKT_tNS2_9EventModeEEUlRNS2_14IUpdateHandlerEE_
	.section	.data.rel.ro._ZTIZN8asiodnp313UpdateBuilder7AddMeasIN8opendnp318BinaryOutputStatusEEERS0_RKT_tNS2_9EventModeEEUlRNS2_14IUpdateHandlerEE_,"awG",@progbits,_ZTIZN8asiodnp313UpdateBuilder7AddMeasIN8opendnp318BinaryOutputStatusEEERS0_RKT_tNS2_9EventModeEEUlRNS2_14IUpdateHandlerEE_,comdat
	.align 8
	.type	_ZTIZN8asiodnp313UpdateBuilder7AddMeasIN8opendnp318BinaryOutputStatusEEERS0_RKT_tNS2_9EventModeEEUlRNS2_14IUpdateHandlerEE_, @object
	.size	_ZTIZN8asiodnp313UpdateBuilder7AddMeasIN8opendnp318BinaryOutputStatusEEERS0_RKT_tNS2_9EventModeEEUlRNS2_14IUpdateHandlerEE_, 16
_ZTIZN8asiodnp313UpdateBuilder7AddMeasIN8opendnp318BinaryOutputStatusEEERS0_RKT_tNS2_9EventModeEEUlRNS2_14IUpdateHandlerEE_:
	.quad	_ZTVN10__cxxabiv117__class_type_infoE+16
	.quad	_ZTSZN8asiodnp313UpdateBuilder7AddMeasIN8opendnp318BinaryOutputStatusEEERS0_RKT_tNS2_9EventModeEEUlRNS2_14IUpdateHandlerEE_
	.weak	_ZTSZN8asiodnp313UpdateBuilder7AddMeasIN8opendnp318AnalogOutputStatusEEERS0_RKT_tNS2_9EventModeEEUlRNS2_14IUpdateHandlerEE_
	.section	.rodata._ZTSZN8asiodnp313UpdateBuilder7AddMeasIN8opendnp318AnalogOutputStatusEEERS0_RKT_tNS2_9EventModeEEUlRNS2_14IUpdateHandlerEE_,"aG",@progbits,_ZTSZN8asiodnp313UpdateBuilder7AddMeasIN8opendnp318AnalogOutputStatusEEERS0_RKT_tNS2_9EventModeEEUlRNS2_14IUpdateHandlerEE_,comdat
	.align 32
	.type	_ZTSZN8asiodnp313UpdateBuilder7AddMeasIN8opendnp318AnalogOutputStatusEEERS0_RKT_tNS2_9EventModeEEUlRNS2_14IUpdateHandlerEE_, @object
	.size	_ZTSZN8asiodnp313UpdateBuilder7AddMeasIN8opendnp318AnalogOutputStatusEEERS0_RKT_tNS2_9EventModeEEUlRNS2_14IUpdateHandlerEE_, 120
_ZTSZN8asiodnp313UpdateBuilder7AddMeasIN8opendnp318AnalogOutputStatusEEERS0_RKT_tNS2_9EventModeEEUlRNS2_14IUpdateHandlerEE_:
	.string	"ZN8asiodnp313UpdateBuilder7AddMeasIN8opendnp318AnalogOutputStatusEEERS0_RKT_tNS2_9EventModeEEUlRNS2_14IUpdateHandlerEE_"
	.weak	_ZTIZN8asiodnp313UpdateBuilder7AddMeasIN8opendnp318AnalogOutputStatusEEERS0_RKT_tNS2_9EventModeEEUlRNS2_14IUpdateHandlerEE_
	.section	.data.rel.ro._ZTIZN8asiodnp313UpdateBuilder7AddMeasIN8opendnp318AnalogOutputStatusEEERS0_RKT_tNS2_9EventModeEEUlRNS2_14IUpdateHandlerEE_,"awG",@progbits,_ZTIZN8asiodnp313UpdateBuilder7AddMeasIN8opendnp318AnalogOutputStatusEEERS0_RKT_tNS2_9EventModeEEUlRNS2_14IUpdateHandlerEE_,comdat
	.align 8
	.type	_ZTIZN8asiodnp313UpdateBuilder7AddMeasIN8opendnp318AnalogOutputStatusEEERS0_RKT_tNS2_9EventModeEEUlRNS2_14IUpdateHandlerEE_, @object
	.size	_ZTIZN8asiodnp313UpdateBuilder7AddMeasIN8opendnp318AnalogOutputStatusEEERS0_RKT_tNS2_9EventModeEEUlRNS2_14IUpdateHandlerEE_, 16
_ZTIZN8asiodnp313UpdateBuilder7AddMeasIN8opendnp318AnalogOutputStatusEEERS0_RKT_tNS2_9EventModeEEUlRNS2_14IUpdateHandlerEE_:
	.quad	_ZTVN10__cxxabiv117__class_type_infoE+16
	.quad	_ZTSZN8asiodnp313UpdateBuilder7AddMeasIN8opendnp318AnalogOutputStatusEEERS0_RKT_tNS2_9EventModeEEUlRNS2_14IUpdateHandlerEE_
	.weak	_ZTSSt23_Sp_counted_ptr_inplaceISt6vectorISt8functionIFvRN8opendnp314IUpdateHandlerEEESaIS6_EESaIS8_ELN9__gnu_cxx12_Lock_policyE2EE
	.section	.rodata._ZTSSt23_Sp_counted_ptr_inplaceISt6vectorISt8functionIFvRN8opendnp314IUpdateHandlerEEESaIS6_EESaIS8_ELN9__gnu_cxx12_Lock_policyE2EE,"aG",@progbits,_ZTSSt23_Sp_counted_ptr_inplaceISt6vectorISt8functionIFvRN8opendnp314IUpdateHandlerEEESaIS6_EESaIS8_ELN9__gnu_cxx12_Lock_policyE2EE,comdat
	.align 32
	.type	_ZTSSt23_Sp_counted_ptr_inplaceISt6vectorISt8functionIFvRN8opendnp314IUpdateHandlerEEESaIS6_EESaIS8_ELN9__gnu_cxx12_Lock_policyE2EE, @object
	.size	_ZTSSt23_Sp_counted_ptr_inplaceISt6vectorISt8functionIFvRN8opendnp314IUpdateHandlerEEESaIS6_EESaIS8_ELN9__gnu_cxx12_Lock_policyE2EE, 128
_ZTSSt23_Sp_counted_ptr_inplaceISt6vectorISt8functionIFvRN8opendnp314IUpdateHandlerEEESaIS6_EESaIS8_ELN9__gnu_cxx12_Lock_policyE2EE:
	.string	"St23_Sp_counted_ptr_inplaceISt6vectorISt8functionIFvRN8opendnp314IUpdateHandlerEEESaIS6_EESaIS8_ELN9__gnu_cxx12_Lock_policyE2EE"
	.weak	_ZTISt23_Sp_counted_ptr_inplaceISt6vectorISt8functionIFvRN8opendnp314IUpdateHandlerEEESaIS6_EESaIS8_ELN9__gnu_cxx12_Lock_policyE2EE
	.section	.data.rel.ro._ZTISt23_Sp_counted_ptr_inplaceISt6vectorISt8functionIFvRN8opendnp314IUpdateHandlerEEESaIS6_EESaIS8_ELN9__gnu_cxx12_Lock_policyE2EE,"awG",@progbits,_ZTISt23_Sp_counted_ptr_inplaceISt6vectorISt8functionIFvRN8opendnp314IUpdateHandlerEEESaIS6_EESaIS8_ELN9__gnu_cxx12_Lock_policyE2EE,comdat
	.align 8
	.type	_ZTISt23_Sp_counted_ptr_inplaceISt6vectorISt8functionIFvRN8opendnp314IUpdateHandlerEEESaIS6_EESaIS8_ELN9__gnu_cxx12_Lock_policyE2EE, @object
	.size	_ZTISt23_Sp_counted_ptr_inplaceISt6vectorISt8functionIFvRN8opendnp314IUpdateHandlerEEESaIS6_EESaIS8_ELN9__gnu_cxx12_Lock_policyE2EE, 24
_ZTISt23_Sp_counted_ptr_inplaceISt6vectorISt8functionIFvRN8opendnp314IUpdateHandlerEEESaIS6_EESaIS8_ELN9__gnu_cxx12_Lock_policyE2EE:
	.quad	_ZTVN10__cxxabiv120__si_class_type_infoE+16
	.quad	_ZTSSt23_Sp_counted_ptr_inplaceISt6vectorISt8functionIFvRN8opendnp314IUpdateHandlerEEESaIS6_EESaIS8_ELN9__gnu_cxx12_Lock_policyE2EE
	.quad	_ZTISt16_Sp_counted_baseILN9__gnu_cxx12_Lock_policyE2EE
	.weak	_ZTVSt23_Sp_counted_ptr_inplaceISt6vectorISt8functionIFvRN8opendnp314IUpdateHandlerEEESaIS6_EESaIS8_ELN9__gnu_cxx12_Lock_policyE2EE
	.section	.data.rel.ro._ZTVSt23_Sp_counted_ptr_inplaceISt6vectorISt8functionIFvRN8opendnp314IUpdateHandlerEEESaIS6_EESaIS8_ELN9__gnu_cxx12_Lock_policyE2EE,"awG",@progbits,_ZTVSt23_Sp_counted_ptr_inplaceISt6vectorISt8functionIFvRN8opendnp314IUpdateHandlerEEESaIS6_EESaIS8_ELN9__gnu_cxx12_Lock_policyE2EE,comdat
	.align 8
	.type	_ZTVSt23_Sp_counted_ptr_inplaceISt6vectorISt8functionIFvRN8opendnp314IUpdateHandlerEEESaIS6_EESaIS8_ELN9__gnu_cxx12_Lock_policyE2EE, @object
	.size	_ZTVSt23_Sp_counted_ptr_inplaceISt6vectorISt8functionIFvRN8opendnp314IUpdateHandlerEEESaIS6_EESaIS8_ELN9__gnu_cxx12_Lock_policyE2EE, 56
_ZTVSt23_Sp_counted_ptr_inplaceISt6vectorISt8functionIFvRN8opendnp314IUpdateHandlerEEESaIS6_EESaIS8_ELN9__gnu_cxx12_Lock_policyE2EE:
	.quad	0
	.quad	_ZTISt23_Sp_counted_ptr_inplaceISt6vectorISt8functionIFvRN8opendnp314IUpdateHandlerEEESaIS6_EESaIS8_ELN9__gnu_cxx12_Lock_policyE2EE
	.quad	_ZNSt23_Sp_counted_ptr_inplaceISt6vectorISt8functionIFvRN8opendnp314IUpdateHandlerEEESaIS6_EESaIS8_ELN9__gnu_cxx12_Lock_policyE2EED1Ev
	.quad	_ZNSt23_Sp_counted_ptr_inplaceISt6vectorISt8functionIFvRN8opendnp314IUpdateHandlerEEESaIS6_EESaIS8_ELN9__gnu_cxx12_Lock_policyE2EED0Ev
	.quad	_ZNSt23_Sp_counted_ptr_inplaceISt6vectorISt8functionIFvRN8opendnp314IUpdateHandlerEEESaIS6_EESaIS8_ELN9__gnu_cxx12_Lock_policyE2EE10_M_disposeEv
	.quad	_ZNSt23_Sp_counted_ptr_inplaceISt6vectorISt8functionIFvRN8opendnp314IUpdateHandlerEEESaIS6_EESaIS8_ELN9__gnu_cxx12_Lock_policyE2EE10_M_destroyEv
	.quad	_ZNSt23_Sp_counted_ptr_inplaceISt6vectorISt8functionIFvRN8opendnp314IUpdateHandlerEEESaIS6_EESaIS8_ELN9__gnu_cxx12_Lock_policyE2EE14_M_get_deleterERKSt9type_info
	.weak	_ZZNSt19_Sp_make_shared_tag5_S_tiEvE5__tag
	.section	.rodata._ZZNSt19_Sp_make_shared_tag5_S_tiEvE5__tag,"aG",@progbits,_ZZNSt19_Sp_make_shared_tag5_S_tiEvE5__tag,comdat
	.align 8
	.type	_ZZNSt19_Sp_make_shared_tag5_S_tiEvE5__tag, @gnu_unique_object
	.size	_ZZNSt19_Sp_make_shared_tag5_S_tiEvE5__tag, 16
_ZZNSt19_Sp_make_shared_tag5_S_tiEvE5__tag:
	.zero	16
	.section	.rodata.cst8,"aM",@progbits,8
	.align 8
.LC1:
	.long	1
	.long	1
	.hidden	DW.ref.__gxx_personality_v0
	.weak	DW.ref.__gxx_personality_v0
	.section	.data.rel.local.DW.ref.__gxx_personality_v0,"awG",@progbits,DW.ref.__gxx_personality_v0,comdat
	.align 8
	.type	DW.ref.__gxx_personality_v0, @object
	.size	DW.ref.__gxx_personality_v0, 8
DW.ref.__gxx_personality_v0:
	.quad	__gxx_personality_v0
	.ident	"GCC: (Ubuntu 11.4.0-1ubuntu1~22.04) 11.4.0"
	.section	.note.GNU-stack,"",@progbits
	.section	.note.gnu.property,"a"
	.align 8
	.long	1f - 0f
	.long	4f - 1f
	.long	5
0:
	.string	"GNU"
1:
	.align 8
	.long	0xc0000002
	.long	3f - 2f
2:
	.long	0x3
3:
	.align 8
4:
