	.file	"ChannelRetry.cpp"
	.text
	.align 2
	.p2align 4
	.globl	_ZN7asiopal12ChannelRetryC2EN7openpal12TimeDurationES2_RNS_18IOpenDelayStrategyE
	.type	_ZN7asiopal12ChannelRetryC2EN7openpal12TimeDurationES2_RNS_18IOpenDelayStrategyE, @function
_ZN7asiopal12ChannelRetryC2EN7openpal12TimeDurationES2_RNS_18IOpenDelayStrategyE:
.LFB18:
	.cfi_startproc
	endbr64
	movq	%rsi, (%rdi)
	movq	%rdx, 8(%rdi)
	movq	%rcx, 16(%rdi)
	ret
	.cfi_endproc
.LFE18:
	.size	_ZN7asiopal12ChannelRetryC2EN7openpal12TimeDurationES2_RNS_18IOpenDelayStrategyE, .-_ZN7asiopal12ChannelRetryC2EN7openpal12TimeDurationES2_RNS_18IOpenDelayStrategyE
	.globl	_ZN7asiopal12ChannelRetryC1EN7openpal12TimeDurationES2_RNS_18IOpenDelayStrategyE
	.set	_ZN7asiopal12ChannelRetryC1EN7openpal12TimeDurationES2_RNS_18IOpenDelayStrategyE,_ZN7asiopal12ChannelRetryC2EN7openpal12TimeDurationES2_RNS_18IOpenDelayStrategyE
	.align 2
	.p2align 4
	.globl	_ZN7asiopal12ChannelRetry7DefaultEv
	.type	_ZN7asiopal12ChannelRetry7DefaultEv, @function
_ZN7asiopal12ChannelRetry7DefaultEv:
.LFB20:
	.cfi_startproc
	endbr64
	pushq	%r14
	.cfi_def_cfa_offset 16
	.cfi_offset 14, -16
	pushq	%r13
	.cfi_def_cfa_offset 24
	.cfi_offset 13, -24
	pushq	%r12
	.cfi_def_cfa_offset 32
	.cfi_offset 12, -32
	movq	%rdi, %r12
	call	_ZN7asiopal26ExponentialBackoffStrategy8InstanceEv@PLT
	movl	$1, %edi
	movq	%rax, %r14
	call	_ZN7openpal12TimeDuration7MinutesEl@PLT
	movl	$1, %edi
	movq	%rax, %r13
	call	_ZN7openpal12TimeDuration7SecondsEl@PLT
	movq	%r14, %rcx
	movq	%r13, %rdx
	movq	%r12, %rdi
	movq	%rax, %rsi
	call	_ZN7asiopal12ChannelRetryC1EN7openpal12TimeDurationES2_RNS_18IOpenDelayStrategyE@PLT
	movq	%r12, %rax
	popq	%r12
	.cfi_def_cfa_offset 24
	popq	%r13
	.cfi_def_cfa_offset 16
	popq	%r14
	.cfi_def_cfa_offset 8
	ret
	.cfi_endproc
.LFE20:
	.size	_ZN7asiopal12ChannelRetry7DefaultEv, .-_ZN7asiopal12ChannelRetry7DefaultEv
	.ident	"GCC: (Ubuntu 11.4.0-1ubuntu1~22.04) 11.4.0"
	.section	.note.GNU-stack,"",@progbits
	.section	.note.gnu.property,"a"
	.align 8
	.long	1f - 0f
	.long	4f - 1f
	.long	5
0:
	.string	"GNU"
1:
	.align 8
	.long	0xc0000002
	.long	3f - 2f
2:
	.long	0x3
3:
	.align 8
4:
