	.file	"Executor.cpp"
	.text
	.section	.rodata._ZNK4asio6detail15system_category4nameEv.str1.1,"aMS",@progbits,1
.LC0:
	.string	"asio.system"
	.section	.text._ZNK4asio6detail15system_category4nameEv,"axG",@progbits,_ZNK4asio6detail15system_category4nameEv,comdat
	.align 2
	.p2align 4
	.weak	_ZNK4asio6detail15system_category4nameEv
	.type	_ZNK4asio6detail15system_category4nameEv, @function
_ZNK4asio6detail15system_category4nameEv:
.LFB2388:
	.cfi_startproc
	endbr64
	leaq	.LC0(%rip), %rax
	ret
	.cfi_endproc
.LFE2388:
	.size	_ZNK4asio6detail15system_category4nameEv, .-_ZNK4asio6detail15system_category4nameEv
	.section	.rodata._ZNK4asio5error6detail14netdb_category4nameEv.str1.1,"aMS",@progbits,1
.LC1:
	.string	"asio.netdb"
	.section	.text._ZNK4asio5error6detail14netdb_category4nameEv,"axG",@progbits,_ZNK4asio5error6detail14netdb_category4nameEv,comdat
	.align 2
	.p2align 4
	.weak	_ZNK4asio5error6detail14netdb_category4nameEv
	.type	_ZNK4asio5error6detail14netdb_category4nameEv, @function
_ZNK4asio5error6detail14netdb_category4nameEv:
.LFB2428:
	.cfi_startproc
	endbr64
	leaq	.LC1(%rip), %rax
	ret
	.cfi_endproc
.LFE2428:
	.size	_ZNK4asio5error6detail14netdb_category4nameEv, .-_ZNK4asio5error6detail14netdb_category4nameEv
	.section	.rodata._ZNK4asio5error6detail17addrinfo_category4nameEv.str1.1,"aMS",@progbits,1
.LC2:
	.string	"asio.addrinfo"
	.section	.text._ZNK4asio5error6detail17addrinfo_category4nameEv,"axG",@progbits,_ZNK4asio5error6detail17addrinfo_category4nameEv,comdat
	.align 2
	.p2align 4
	.weak	_ZNK4asio5error6detail17addrinfo_category4nameEv
	.type	_ZNK4asio5error6detail17addrinfo_category4nameEv, @function
_ZNK4asio5error6detail17addrinfo_category4nameEv:
.LFB2434:
	.cfi_startproc
	endbr64
	leaq	.LC2(%rip), %rax
	ret
	.cfi_endproc
.LFE2434:
	.size	_ZNK4asio5error6detail17addrinfo_category4nameEv, .-_ZNK4asio5error6detail17addrinfo_category4nameEv
	.section	.rodata._ZNK4asio5error6detail13misc_category4nameEv.str1.1,"aMS",@progbits,1
.LC3:
	.string	"asio.misc"
	.section	.text._ZNK4asio5error6detail13misc_category4nameEv,"axG",@progbits,_ZNK4asio5error6detail13misc_category4nameEv,comdat
	.align 2
	.p2align 4
	.weak	_ZNK4asio5error6detail13misc_category4nameEv
	.type	_ZNK4asio5error6detail13misc_category4nameEv, @function
_ZNK4asio5error6detail13misc_category4nameEv:
.LFB2440:
	.cfi_startproc
	endbr64
	leaq	.LC3(%rip), %rax
	ret
	.cfi_endproc
.LFE2440:
	.size	_ZNK4asio5error6detail13misc_category4nameEv, .-_ZNK4asio5error6detail13misc_category4nameEv
	.section	.text._ZN4asio10io_service7service12fork_serviceENS0_10fork_eventE,"axG",@progbits,_ZN4asio10io_service7service12fork_serviceENS0_10fork_eventE,comdat
	.align 2
	.p2align 4
	.weak	_ZN4asio10io_service7service12fork_serviceENS0_10fork_eventE
	.type	_ZN4asio10io_service7service12fork_serviceENS0_10fork_eventE, @function
_ZN4asio10io_service7service12fork_serviceENS0_10fork_eventE:
.LFB3422:
	.cfi_startproc
	endbr64
	ret
	.cfi_endproc
.LFE3422:
	.size	_ZN4asio10io_service7service12fork_serviceENS0_10fork_eventE, .-_ZN4asio10io_service7service12fork_serviceENS0_10fork_eventE
	.section	.text._ZNSt13__future_base13_State_baseV217_M_complete_asyncEv,"axG",@progbits,_ZNSt13__future_base13_State_baseV217_M_complete_asyncEv,comdat
	.align 2
	.p2align 4
	.weak	_ZNSt13__future_base13_State_baseV217_M_complete_asyncEv
	.type	_ZNSt13__future_base13_State_baseV217_M_complete_asyncEv, @function
_ZNSt13__future_base13_State_baseV217_M_complete_asyncEv:
.LFB6737:
	.cfi_startproc
	endbr64
	ret
	.cfi_endproc
.LFE6737:
	.size	_ZNSt13__future_base13_State_baseV217_M_complete_asyncEv, .-_ZNSt13__future_base13_State_baseV217_M_complete_asyncEv
	.section	.text._ZNKSt13__future_base13_State_baseV221_M_is_deferred_futureEv,"axG",@progbits,_ZNKSt13__future_base13_State_baseV221_M_is_deferred_futureEv,comdat
	.align 2
	.p2align 4
	.weak	_ZNKSt13__future_base13_State_baseV221_M_is_deferred_futureEv
	.type	_ZNKSt13__future_base13_State_baseV221_M_is_deferred_futureEv, @function
_ZNKSt13__future_base13_State_baseV221_M_is_deferred_futureEv:
.LFB6738:
	.cfi_startproc
	endbr64
	xorl	%eax, %eax
	ret
	.cfi_endproc
.LFE6738:
	.size	_ZNKSt13__future_base13_State_baseV221_M_is_deferred_futureEv, .-_ZNKSt13__future_base13_State_baseV221_M_is_deferred_futureEv
	.section	.text._ZZNSt9once_flag18_Prepare_executionC4IZSt9call_onceIMNSt13__future_base13_State_baseV2EFvPSt8functionIFSt10unique_ptrINS3_12_Result_baseENS7_8_DeleterEEvEEPbEJPS4_SC_SD_EEvRS_OT_DpOT0_EUlvE_EERSI_ENUlvE_4_FUNEv,"axG",@progbits,_ZZNSt9once_flag18_Prepare_executionC4IZSt9call_onceIMNSt13__future_base13_State_baseV2EFvPSt8functionIFSt10unique_ptrINS3_12_Result_baseENS7_8_DeleterEEvEEPbEJPS4_SC_SD_EEvRS_OT_DpOT0_EUlvE_EERSI_ENUlvE_4_FUNEv,comdat
	.p2align 4
	.weak	_ZZNSt9once_flag18_Prepare_executionC4IZSt9call_onceIMNSt13__future_base13_State_baseV2EFvPSt8functionIFSt10unique_ptrINS3_12_Result_baseENS7_8_DeleterEEvEEPbEJPS4_SC_SD_EEvRS_OT_DpOT0_EUlvE_EERSI_ENUlvE_4_FUNEv
	.type	_ZZNSt9once_flag18_Prepare_executionC4IZSt9call_onceIMNSt13__future_base13_State_baseV2EFvPSt8functionIFSt10unique_ptrINS3_12_Result_baseENS7_8_DeleterEEvEEPbEJPS4_SC_SD_EEvRS_OT_DpOT0_EUlvE_EERSI_ENUlvE_4_FUNEv, @function
_ZZNSt9once_flag18_Prepare_executionC4IZSt9call_onceIMNSt13__future_base13_State_baseV2EFvPSt8functionIFSt10unique_ptrINS3_12_Result_baseENS7_8_DeleterEEvEEPbEJPS4_SC_SD_EEvRS_OT_DpOT0_EUlvE_EERSI_ENUlvE_4_FUNEv:
.LFB8155:
	.cfi_startproc
	endbr64
	subq	$8, %rsp
	.cfi_def_cfa_offset 16
	data16	leaq	_ZSt15__once_callable@tlsgd(%rip), %rdi
	.value	0x6666
	rex64
	call	__tls_get_addr@PLT
	movq	(%rax), %rax
	movq	(%rax), %rdx
	movq	24(%rax), %rsi
	movq	16(%rax), %rcx
	movq	8(%rax), %rax
	movq	8(%rdx), %rdi
	addq	(%rax), %rdi
	movq	(%rdx), %rax
	testb	$1, %al
	je	.L10
	movq	(%rdi), %rdx
	movq	-1(%rdx,%rax), %rax
.L10:
	movq	(%rsi), %rdx
	movq	(%rcx), %rsi
	addq	$8, %rsp
	.cfi_def_cfa_offset 8
	jmp	*%rax
	.cfi_endproc
.LFE8155:
	.size	_ZZNSt9once_flag18_Prepare_executionC4IZSt9call_onceIMNSt13__future_base13_State_baseV2EFvPSt8functionIFSt10unique_ptrINS3_12_Result_baseENS7_8_DeleterEEvEEPbEJPS4_SC_SD_EEvRS_OT_DpOT0_EUlvE_EERSI_ENUlvE_4_FUNEv, .-_ZZNSt9once_flag18_Prepare_executionC4IZSt9call_onceIMNSt13__future_base13_State_baseV2EFvPSt8functionIFSt10unique_ptrINS3_12_Result_baseENS7_8_DeleterEEvEEPbEJPS4_SC_SD_EEvRS_OT_DpOT0_EUlvE_EERSI_ENUlvE_4_FUNEv
	.section	.text._ZNSt15__exception_ptr12__dest_thunkISt12future_errorEEvPv,"axG",@progbits,_ZNSt15__exception_ptr12__dest_thunkISt12future_errorEEvPv,comdat
	.p2align 4
	.weak	_ZNSt15__exception_ptr12__dest_thunkISt12future_errorEEvPv
	.type	_ZNSt15__exception_ptr12__dest_thunkISt12future_errorEEvPv, @function
_ZNSt15__exception_ptr12__dest_thunkISt12future_errorEEvPv:
.LFB8175:
	.cfi_startproc
	endbr64
	movq	(%rdi), %rax
	jmp	*(%rax)
	.cfi_endproc
.LFE8175:
	.size	_ZNSt15__exception_ptr12__dest_thunkISt12future_errorEEvPv, .-_ZNSt15__exception_ptr12__dest_thunkISt12future_errorEEvPv
	.text
	.p2align 4
	.type	_ZNSt17_Function_handlerIFvvEZN7asiopal8Executor18BlockUntilAndFlushERKSt8functionIS0_EEUlvE_E9_M_invokeERKSt9_Any_data, @function
_ZNSt17_Function_handlerIFvvEZN7asiopal8Executor18BlockUntilAndFlushERKSt8functionIS0_EEUlvE_E9_M_invokeERKSt9_Any_data:
.LFB8319:
	.cfi_startproc
	endbr64
	ret
	.cfi_endproc
.LFE8319:
	.size	_ZNSt17_Function_handlerIFvvEZN7asiopal8Executor18BlockUntilAndFlushERKSt8functionIS0_EEUlvE_E9_M_invokeERKSt9_Any_data, .-_ZNSt17_Function_handlerIFvvEZN7asiopal8Executor18BlockUntilAndFlushERKSt8functionIS0_EEUlvE_E9_M_invokeERKSt9_Any_data
	.p2align 4
	.type	_ZNSt17_Function_handlerIFvvEZN7asiopal8Executor18BlockUntilAndFlushERKSt8functionIS0_EEUlvE_E10_M_managerERSt9_Any_dataRKS9_St18_Manager_operation, @function
_ZNSt17_Function_handlerIFvvEZN7asiopal8Executor18BlockUntilAndFlushERKSt8functionIS0_EEUlvE_E10_M_managerERSt9_Any_dataRKS9_St18_Manager_operation:
.LFB8320:
	.cfi_startproc
	endbr64
	testl	%edx, %edx
	je	.L18
	cmpl	$1, %edx
	jne	.L20
	movq	%rsi, (%rdi)
.L20:
	xorl	%eax, %eax
	ret
	.p2align 4,,10
	.p2align 3
.L18:
	leaq	_ZTIZN7asiopal8Executor18BlockUntilAndFlushERKSt8functionIFvvEEEUlvE_(%rip), %rax
	movq	%rax, (%rdi)
	xorl	%eax, %eax
	ret
	.cfi_endproc
.LFE8320:
	.size	_ZNSt17_Function_handlerIFvvEZN7asiopal8Executor18BlockUntilAndFlushERKSt8functionIS0_EEUlvE_E10_M_managerERSt9_Any_dataRKS9_St18_Manager_operation, .-_ZNSt17_Function_handlerIFvvEZN7asiopal8Executor18BlockUntilAndFlushERKSt8functionIS0_EEUlvE_E10_M_managerERSt9_Any_dataRKS9_St18_Manager_operation
	.section	.text._ZNSt17_Function_handlerIFSt10unique_ptrINSt13__future_base12_Result_baseENS2_8_DeleterEEvENS1_13_State_baseV27_SetterIbObEEE9_M_invokeERKSt9_Any_data,"axG",@progbits,_ZNSt17_Function_handlerIFSt10unique_ptrINSt13__future_base12_Result_baseENS2_8_DeleterEEvENS1_13_State_baseV27_SetterIbObEEE9_M_invokeERKSt9_Any_data,comdat
	.p2align 4
	.weak	_ZNSt17_Function_handlerIFSt10unique_ptrINSt13__future_base12_Result_baseENS2_8_DeleterEEvENS1_13_State_baseV27_SetterIbObEEE9_M_invokeERKSt9_Any_data
	.type	_ZNSt17_Function_handlerIFSt10unique_ptrINSt13__future_base12_Result_baseENS2_8_DeleterEEvENS1_13_State_baseV27_SetterIbObEEE9_M_invokeERKSt9_Any_data, @function
_ZNSt17_Function_handlerIFSt10unique_ptrINSt13__future_base12_Result_baseENS2_8_DeleterEEvENS1_13_State_baseV27_SetterIbObEEE9_M_invokeERKSt9_Any_data:
.LFB8576:
	.cfi_startproc
	endbr64
	movq	(%rsi), %rcx
	movq	8(%rsi), %rsi
	movq	%rdi, %rax
	movq	16(%rcx), %rdx
	movzbl	(%rsi), %esi
	movb	$1, 17(%rdx)
	movb	%sil, 16(%rdx)
	movq	$0, 16(%rcx)
	movq	%rdx, (%rdi)
	ret
	.cfi_endproc
.LFE8576:
	.size	_ZNSt17_Function_handlerIFSt10unique_ptrINSt13__future_base12_Result_baseENS2_8_DeleterEEvENS1_13_State_baseV27_SetterIbObEEE9_M_invokeERKSt9_Any_data, .-_ZNSt17_Function_handlerIFSt10unique_ptrINSt13__future_base12_Result_baseENS2_8_DeleterEEvENS1_13_State_baseV27_SetterIbObEEE9_M_invokeERKSt9_Any_data
	.section	.text._ZNSt13__future_base13_State_baseV2D2Ev,"axG",@progbits,_ZNSt13__future_base13_State_baseV2D5Ev,comdat
	.align 2
	.p2align 4
	.weak	_ZNSt13__future_base13_State_baseV2D2Ev
	.type	_ZNSt13__future_base13_State_baseV2D2Ev, @function
_ZNSt13__future_base13_State_baseV2D2Ev:
.LFB9462:
	.cfi_startproc
	.cfi_personality 0x9b,DW.ref.__gxx_personality_v0
	.cfi_lsda 0x1b,.LLSDA9462
	endbr64
	movq	_ZTVNSt13__future_base13_State_baseV2E@GOTPCREL(%rip), %rax
	addq	$16, %rax
	movq	%rax, (%rdi)
	movq	8(%rdi), %rdi
	testq	%rdi, %rdi
	je	.L28
	subq	$8, %rsp
	.cfi_def_cfa_offset 16
	movq	(%rdi), %rax
	call	*(%rax)
	addq	$8, %rsp
	.cfi_def_cfa_offset 8
	ret
	.p2align 4,,10
	.p2align 3
.L28:
	ret
	.cfi_endproc
.LFE9462:
	.globl	__gxx_personality_v0
	.section	.gcc_except_table._ZNSt13__future_base13_State_baseV2D2Ev,"aG",@progbits,_ZNSt13__future_base13_State_baseV2D5Ev,comdat
.LLSDA9462:
	.byte	0xff
	.byte	0xff
	.byte	0x1
	.uleb128 .LLSDACSE9462-.LLSDACSB9462
.LLSDACSB9462:
.LLSDACSE9462:
	.section	.text._ZNSt13__future_base13_State_baseV2D2Ev,"axG",@progbits,_ZNSt13__future_base13_State_baseV2D5Ev,comdat
	.size	_ZNSt13__future_base13_State_baseV2D2Ev, .-_ZNSt13__future_base13_State_baseV2D2Ev
	.weak	_ZNSt13__future_base13_State_baseV2D1Ev
	.set	_ZNSt13__future_base13_State_baseV2D1Ev,_ZNSt13__future_base13_State_baseV2D2Ev
	.section	.text._ZN4asio6detail7tss_ptrINS0_10call_stackINS0_15task_io_serviceENS0_27task_io_service_thread_infoEE7contextEED2Ev,"axG",@progbits,_ZN4asio6detail7tss_ptrINS0_10call_stackINS0_15task_io_serviceENS0_27task_io_service_thread_infoEE7contextEED5Ev,comdat
	.align 2
	.p2align 4
	.weak	_ZN4asio6detail7tss_ptrINS0_10call_stackINS0_15task_io_serviceENS0_27task_io_service_thread_infoEE7contextEED2Ev
	.type	_ZN4asio6detail7tss_ptrINS0_10call_stackINS0_15task_io_serviceENS0_27task_io_service_thread_infoEE7contextEED2Ev, @function
_ZN4asio6detail7tss_ptrINS0_10call_stackINS0_15task_io_serviceENS0_27task_io_service_thread_infoEE7contextEED2Ev:
.LFB9527:
	.cfi_startproc
	endbr64
	ret
	.cfi_endproc
.LFE9527:
	.size	_ZN4asio6detail7tss_ptrINS0_10call_stackINS0_15task_io_serviceENS0_27task_io_service_thread_infoEE7contextEED2Ev, .-_ZN4asio6detail7tss_ptrINS0_10call_stackINS0_15task_io_serviceENS0_27task_io_service_thread_infoEE7contextEED2Ev
	.weak	_ZN4asio6detail7tss_ptrINS0_10call_stackINS0_15task_io_serviceENS0_27task_io_service_thread_infoEE7contextEED1Ev
	.set	_ZN4asio6detail7tss_ptrINS0_10call_stackINS0_15task_io_serviceENS0_27task_io_service_thread_infoEE7contextEED1Ev,_ZN4asio6detail7tss_ptrINS0_10call_stackINS0_15task_io_serviceENS0_27task_io_service_thread_infoEE7contextEED2Ev
	.section	.text._ZN4asio6detail10service_idINS0_13epoll_reactorEED2Ev,"axG",@progbits,_ZN4asio6detail10service_idINS0_13epoll_reactorEED5Ev,comdat
	.align 2
	.p2align 4
	.weak	_ZN4asio6detail10service_idINS0_13epoll_reactorEED2Ev
	.type	_ZN4asio6detail10service_idINS0_13epoll_reactorEED2Ev, @function
_ZN4asio6detail10service_idINS0_13epoll_reactorEED2Ev:
.LFB9530:
	.cfi_startproc
	endbr64
	ret
	.cfi_endproc
.LFE9530:
	.size	_ZN4asio6detail10service_idINS0_13epoll_reactorEED2Ev, .-_ZN4asio6detail10service_idINS0_13epoll_reactorEED2Ev
	.weak	_ZN4asio6detail10service_idINS0_13epoll_reactorEED1Ev
	.set	_ZN4asio6detail10service_idINS0_13epoll_reactorEED1Ev,_ZN4asio6detail10service_idINS0_13epoll_reactorEED2Ev
	.section	.text._ZN4asio6detail10service_idINS0_15task_io_serviceEED2Ev,"axG",@progbits,_ZN4asio6detail10service_idINS0_15task_io_serviceEED5Ev,comdat
	.align 2
	.p2align 4
	.weak	_ZN4asio6detail10service_idINS0_15task_io_serviceEED2Ev
	.type	_ZN4asio6detail10service_idINS0_15task_io_serviceEED2Ev, @function
_ZN4asio6detail10service_idINS0_15task_io_serviceEED2Ev:
.LFB9533:
	.cfi_startproc
	endbr64
	ret
	.cfi_endproc
.LFE9533:
	.size	_ZN4asio6detail10service_idINS0_15task_io_serviceEED2Ev, .-_ZN4asio6detail10service_idINS0_15task_io_serviceEED2Ev
	.weak	_ZN4asio6detail10service_idINS0_15task_io_serviceEED1Ev
	.set	_ZN4asio6detail10service_idINS0_15task_io_serviceEED1Ev,_ZN4asio6detail10service_idINS0_15task_io_serviceEED2Ev
	.section	.text._ZN4asio6detail7tss_ptrINS0_10call_stackINS0_14strand_service11strand_implEhE7contextEED2Ev,"axG",@progbits,_ZN4asio6detail7tss_ptrINS0_10call_stackINS0_14strand_service11strand_implEhE7contextEED5Ev,comdat
	.align 2
	.p2align 4
	.weak	_ZN4asio6detail7tss_ptrINS0_10call_stackINS0_14strand_service11strand_implEhE7contextEED2Ev
	.type	_ZN4asio6detail7tss_ptrINS0_10call_stackINS0_14strand_service11strand_implEhE7contextEED2Ev, @function
_ZN4asio6detail7tss_ptrINS0_10call_stackINS0_14strand_service11strand_implEhE7contextEED2Ev:
.LFB9536:
	.cfi_startproc
	endbr64
	ret
	.cfi_endproc
.LFE9536:
	.size	_ZN4asio6detail7tss_ptrINS0_10call_stackINS0_14strand_service11strand_implEhE7contextEED2Ev, .-_ZN4asio6detail7tss_ptrINS0_10call_stackINS0_14strand_service11strand_implEhE7contextEED2Ev
	.weak	_ZN4asio6detail7tss_ptrINS0_10call_stackINS0_14strand_service11strand_implEhE7contextEED1Ev
	.set	_ZN4asio6detail7tss_ptrINS0_10call_stackINS0_14strand_service11strand_implEhE7contextEED1Ev,_ZN4asio6detail7tss_ptrINS0_10call_stackINS0_14strand_service11strand_implEhE7contextEED2Ev
	.section	.text._ZN4asio6detail10service_idINS0_14strand_serviceEED2Ev,"axG",@progbits,_ZN4asio6detail10service_idINS0_14strand_serviceEED5Ev,comdat
	.align 2
	.p2align 4
	.weak	_ZN4asio6detail10service_idINS0_14strand_serviceEED2Ev
	.type	_ZN4asio6detail10service_idINS0_14strand_serviceEED2Ev, @function
_ZN4asio6detail10service_idINS0_14strand_serviceEED2Ev:
.LFB9539:
	.cfi_startproc
	endbr64
	ret
	.cfi_endproc
.LFE9539:
	.size	_ZN4asio6detail10service_idINS0_14strand_serviceEED2Ev, .-_ZN4asio6detail10service_idINS0_14strand_serviceEED2Ev
	.weak	_ZN4asio6detail10service_idINS0_14strand_serviceEED1Ev
	.set	_ZN4asio6detail10service_idINS0_14strand_serviceEED1Ev,_ZN4asio6detail10service_idINS0_14strand_serviceEED2Ev
	.section	.text._ZNSt23_Sp_counted_ptr_inplaceIN7asiopal5TimerESaIS1_ELN9__gnu_cxx12_Lock_policyE2EED2Ev,"axG",@progbits,_ZNSt23_Sp_counted_ptr_inplaceIN7asiopal5TimerESaIS1_ELN9__gnu_cxx12_Lock_policyE2EED5Ev,comdat
	.align 2
	.p2align 4
	.weak	_ZNSt23_Sp_counted_ptr_inplaceIN7asiopal5TimerESaIS1_ELN9__gnu_cxx12_Lock_policyE2EED2Ev
	.type	_ZNSt23_Sp_counted_ptr_inplaceIN7asiopal5TimerESaIS1_ELN9__gnu_cxx12_Lock_policyE2EED2Ev, @function
_ZNSt23_Sp_counted_ptr_inplaceIN7asiopal5TimerESaIS1_ELN9__gnu_cxx12_Lock_policyE2EED2Ev:
.LFB9542:
	.cfi_startproc
	endbr64
	ret
	.cfi_endproc
.LFE9542:
	.size	_ZNSt23_Sp_counted_ptr_inplaceIN7asiopal5TimerESaIS1_ELN9__gnu_cxx12_Lock_policyE2EED2Ev, .-_ZNSt23_Sp_counted_ptr_inplaceIN7asiopal5TimerESaIS1_ELN9__gnu_cxx12_Lock_policyE2EED2Ev
	.weak	_ZNSt23_Sp_counted_ptr_inplaceIN7asiopal5TimerESaIS1_ELN9__gnu_cxx12_Lock_policyE2EED1Ev
	.set	_ZNSt23_Sp_counted_ptr_inplaceIN7asiopal5TimerESaIS1_ELN9__gnu_cxx12_Lock_policyE2EED1Ev,_ZNSt23_Sp_counted_ptr_inplaceIN7asiopal5TimerESaIS1_ELN9__gnu_cxx12_Lock_policyE2EED2Ev
	.section	.text._ZNSt23_Sp_counted_ptr_inplaceINSt13__future_base13_State_baseV2ESaIS1_ELN9__gnu_cxx12_Lock_policyE2EED2Ev,"axG",@progbits,_ZNSt23_Sp_counted_ptr_inplaceINSt13__future_base13_State_baseV2ESaIS1_ELN9__gnu_cxx12_Lock_policyE2EED5Ev,comdat
	.align 2
	.p2align 4
	.weak	_ZNSt23_Sp_counted_ptr_inplaceINSt13__future_base13_State_baseV2ESaIS1_ELN9__gnu_cxx12_Lock_policyE2EED2Ev
	.type	_ZNSt23_Sp_counted_ptr_inplaceINSt13__future_base13_State_baseV2ESaIS1_ELN9__gnu_cxx12_Lock_policyE2EED2Ev, @function
_ZNSt23_Sp_counted_ptr_inplaceINSt13__future_base13_State_baseV2ESaIS1_ELN9__gnu_cxx12_Lock_policyE2EED2Ev:
.LFB9556:
	.cfi_startproc
	endbr64
	ret
	.cfi_endproc
.LFE9556:
	.size	_ZNSt23_Sp_counted_ptr_inplaceINSt13__future_base13_State_baseV2ESaIS1_ELN9__gnu_cxx12_Lock_policyE2EED2Ev, .-_ZNSt23_Sp_counted_ptr_inplaceINSt13__future_base13_State_baseV2ESaIS1_ELN9__gnu_cxx12_Lock_policyE2EED2Ev
	.weak	_ZNSt23_Sp_counted_ptr_inplaceINSt13__future_base13_State_baseV2ESaIS1_ELN9__gnu_cxx12_Lock_policyE2EED1Ev
	.set	_ZNSt23_Sp_counted_ptr_inplaceINSt13__future_base13_State_baseV2ESaIS1_ELN9__gnu_cxx12_Lock_policyE2EED1Ev,_ZNSt23_Sp_counted_ptr_inplaceINSt13__future_base13_State_baseV2ESaIS1_ELN9__gnu_cxx12_Lock_policyE2EED2Ev
	.section	.text._ZNSt23_Sp_counted_ptr_inplaceINSt13__future_base13_State_baseV2ESaIS1_ELN9__gnu_cxx12_Lock_policyE2EE10_M_disposeEv,"axG",@progbits,_ZNSt23_Sp_counted_ptr_inplaceINSt13__future_base13_State_baseV2ESaIS1_ELN9__gnu_cxx12_Lock_policyE2EE10_M_disposeEv,comdat
	.align 2
	.p2align 4
	.weak	_ZNSt23_Sp_counted_ptr_inplaceINSt13__future_base13_State_baseV2ESaIS1_ELN9__gnu_cxx12_Lock_policyE2EE10_M_disposeEv
	.type	_ZNSt23_Sp_counted_ptr_inplaceINSt13__future_base13_State_baseV2ESaIS1_ELN9__gnu_cxx12_Lock_policyE2EE10_M_disposeEv, @function
_ZNSt23_Sp_counted_ptr_inplaceINSt13__future_base13_State_baseV2ESaIS1_ELN9__gnu_cxx12_Lock_policyE2EE10_M_disposeEv:
.LFB9559:
	.cfi_startproc
	endbr64
	movq	16(%rdi), %rax
	leaq	16(%rdi), %r8
	movq	%r8, %rdi
	movq	(%rax), %rax
	jmp	*%rax
	.cfi_endproc
.LFE9559:
	.size	_ZNSt23_Sp_counted_ptr_inplaceINSt13__future_base13_State_baseV2ESaIS1_ELN9__gnu_cxx12_Lock_policyE2EE10_M_disposeEv, .-_ZNSt23_Sp_counted_ptr_inplaceINSt13__future_base13_State_baseV2ESaIS1_ELN9__gnu_cxx12_Lock_policyE2EE10_M_disposeEv
	.section	.text._ZNSt13__future_base13_State_baseV2D0Ev,"axG",@progbits,_ZNSt13__future_base13_State_baseV2D5Ev,comdat
	.align 2
	.p2align 4
	.weak	_ZNSt13__future_base13_State_baseV2D0Ev
	.type	_ZNSt13__future_base13_State_baseV2D0Ev, @function
_ZNSt13__future_base13_State_baseV2D0Ev:
.LFB9464:
	.cfi_startproc
	.cfi_personality 0x9b,DW.ref.__gxx_personality_v0
	.cfi_lsda 0x1b,.LLSDA9464
	endbr64
	movq	_ZTVNSt13__future_base13_State_baseV2E@GOTPCREL(%rip), %rax
	pushq	%rbp
	.cfi_def_cfa_offset 16
	.cfi_offset 6, -16
	movq	%rdi, %rbp
	addq	$16, %rax
	movq	%rax, (%rdi)
	movq	8(%rdi), %rdi
	testq	%rdi, %rdi
	je	.L40
	movq	(%rdi), %rax
	call	*(%rax)
.L40:
	movq	%rbp, %rdi
	movl	$32, %esi
	popq	%rbp
	.cfi_def_cfa_offset 8
	jmp	_ZdlPvm@PLT
	.cfi_endproc
.LFE9464:
	.section	.gcc_except_table._ZNSt13__future_base13_State_baseV2D0Ev,"aG",@progbits,_ZNSt13__future_base13_State_baseV2D5Ev,comdat
.LLSDA9464:
	.byte	0xff
	.byte	0xff
	.byte	0x1
	.uleb128 .LLSDACSE9464-.LLSDACSB9464
.LLSDACSB9464:
.LLSDACSE9464:
	.section	.text._ZNSt13__future_base13_State_baseV2D0Ev,"axG",@progbits,_ZNSt13__future_base13_State_baseV2D5Ev,comdat
	.size	_ZNSt13__future_base13_State_baseV2D0Ev, .-_ZNSt13__future_base13_State_baseV2D0Ev
	.section	.text._ZNSt23_Sp_counted_ptr_inplaceINSt13__future_base13_State_baseV2ESaIS1_ELN9__gnu_cxx12_Lock_policyE2EED0Ev,"axG",@progbits,_ZNSt23_Sp_counted_ptr_inplaceINSt13__future_base13_State_baseV2ESaIS1_ELN9__gnu_cxx12_Lock_policyE2EED5Ev,comdat
	.align 2
	.p2align 4
	.weak	_ZNSt23_Sp_counted_ptr_inplaceINSt13__future_base13_State_baseV2ESaIS1_ELN9__gnu_cxx12_Lock_policyE2EED0Ev
	.type	_ZNSt23_Sp_counted_ptr_inplaceINSt13__future_base13_State_baseV2ESaIS1_ELN9__gnu_cxx12_Lock_policyE2EED0Ev, @function
_ZNSt23_Sp_counted_ptr_inplaceINSt13__future_base13_State_baseV2ESaIS1_ELN9__gnu_cxx12_Lock_policyE2EED0Ev:
.LFB9558:
	.cfi_startproc
	endbr64
	movl	$48, %esi
	jmp	_ZdlPvm@PLT
	.cfi_endproc
.LFE9558:
	.size	_ZNSt23_Sp_counted_ptr_inplaceINSt13__future_base13_State_baseV2ESaIS1_ELN9__gnu_cxx12_Lock_policyE2EED0Ev, .-_ZNSt23_Sp_counted_ptr_inplaceINSt13__future_base13_State_baseV2ESaIS1_ELN9__gnu_cxx12_Lock_policyE2EED0Ev
	.section	.text._ZNSt23_Sp_counted_ptr_inplaceIN7asiopal5TimerESaIS1_ELN9__gnu_cxx12_Lock_policyE2EED0Ev,"axG",@progbits,_ZNSt23_Sp_counted_ptr_inplaceIN7asiopal5TimerESaIS1_ELN9__gnu_cxx12_Lock_policyE2EED5Ev,comdat
	.align 2
	.p2align 4
	.weak	_ZNSt23_Sp_counted_ptr_inplaceIN7asiopal5TimerESaIS1_ELN9__gnu_cxx12_Lock_policyE2EED0Ev
	.type	_ZNSt23_Sp_counted_ptr_inplaceIN7asiopal5TimerESaIS1_ELN9__gnu_cxx12_Lock_policyE2EED0Ev, @function
_ZNSt23_Sp_counted_ptr_inplaceIN7asiopal5TimerESaIS1_ELN9__gnu_cxx12_Lock_policyE2EED0Ev:
.LFB9544:
	.cfi_startproc
	endbr64
	movl	$88, %esi
	jmp	_ZdlPvm@PLT
	.cfi_endproc
.LFE9544:
	.size	_ZNSt23_Sp_counted_ptr_inplaceIN7asiopal5TimerESaIS1_ELN9__gnu_cxx12_Lock_policyE2EED0Ev, .-_ZNSt23_Sp_counted_ptr_inplaceIN7asiopal5TimerESaIS1_ELN9__gnu_cxx12_Lock_policyE2EED0Ev
	.section	.text._ZNSt23_Sp_counted_ptr_inplaceIN7asiopal5TimerESaIS1_ELN9__gnu_cxx12_Lock_policyE2EE10_M_destroyEv,"axG",@progbits,_ZNSt23_Sp_counted_ptr_inplaceIN7asiopal5TimerESaIS1_ELN9__gnu_cxx12_Lock_policyE2EE10_M_destroyEv,comdat
	.align 2
	.p2align 4
	.weak	_ZNSt23_Sp_counted_ptr_inplaceIN7asiopal5TimerESaIS1_ELN9__gnu_cxx12_Lock_policyE2EE10_M_destroyEv
	.type	_ZNSt23_Sp_counted_ptr_inplaceIN7asiopal5TimerESaIS1_ELN9__gnu_cxx12_Lock_policyE2EE10_M_destroyEv, @function
_ZNSt23_Sp_counted_ptr_inplaceIN7asiopal5TimerESaIS1_ELN9__gnu_cxx12_Lock_policyE2EE10_M_destroyEv:
.LFB9546:
	.cfi_startproc
	endbr64
	movl	$88, %esi
	jmp	_ZdlPvm@PLT
	.cfi_endproc
.LFE9546:
	.size	_ZNSt23_Sp_counted_ptr_inplaceIN7asiopal5TimerESaIS1_ELN9__gnu_cxx12_Lock_policyE2EE10_M_destroyEv, .-_ZNSt23_Sp_counted_ptr_inplaceIN7asiopal5TimerESaIS1_ELN9__gnu_cxx12_Lock_policyE2EE10_M_destroyEv
	.section	.text._ZNSt23_Sp_counted_ptr_inplaceINSt13__future_base13_State_baseV2ESaIS1_ELN9__gnu_cxx12_Lock_policyE2EE10_M_destroyEv,"axG",@progbits,_ZNSt23_Sp_counted_ptr_inplaceINSt13__future_base13_State_baseV2ESaIS1_ELN9__gnu_cxx12_Lock_policyE2EE10_M_destroyEv,comdat
	.align 2
	.p2align 4
	.weak	_ZNSt23_Sp_counted_ptr_inplaceINSt13__future_base13_State_baseV2ESaIS1_ELN9__gnu_cxx12_Lock_policyE2EE10_M_destroyEv
	.type	_ZNSt23_Sp_counted_ptr_inplaceINSt13__future_base13_State_baseV2ESaIS1_ELN9__gnu_cxx12_Lock_policyE2EE10_M_destroyEv, @function
_ZNSt23_Sp_counted_ptr_inplaceINSt13__future_base13_State_baseV2ESaIS1_ELN9__gnu_cxx12_Lock_policyE2EE10_M_destroyEv:
.LFB9560:
	.cfi_startproc
	endbr64
	movl	$48, %esi
	jmp	_ZdlPvm@PLT
	.cfi_endproc
.LFE9560:
	.size	_ZNSt23_Sp_counted_ptr_inplaceINSt13__future_base13_State_baseV2ESaIS1_ELN9__gnu_cxx12_Lock_policyE2EE10_M_destroyEv, .-_ZNSt23_Sp_counted_ptr_inplaceINSt13__future_base13_State_baseV2ESaIS1_ELN9__gnu_cxx12_Lock_policyE2EE10_M_destroyEv
	.section	.text._ZN4asio6detail15system_categoryD2Ev,"axG",@progbits,_ZN4asio6detail15system_categoryD5Ev,comdat
	.align 2
	.p2align 4
	.weak	_ZN4asio6detail15system_categoryD2Ev
	.type	_ZN4asio6detail15system_categoryD2Ev, @function
_ZN4asio6detail15system_categoryD2Ev:
.LFB9506:
	.cfi_startproc
	endbr64
	movq	_ZTVN4asio6detail15system_categoryE@GOTPCREL(%rip), %rax
	addq	$16, %rax
	movq	%rax, (%rdi)
	jmp	_ZNSt3_V214error_categoryD2Ev@PLT
	.cfi_endproc
.LFE9506:
	.size	_ZN4asio6detail15system_categoryD2Ev, .-_ZN4asio6detail15system_categoryD2Ev
	.weak	_ZN4asio6detail15system_categoryD1Ev
	.set	_ZN4asio6detail15system_categoryD1Ev,_ZN4asio6detail15system_categoryD2Ev
	.section	.text._ZN4asio6detail15system_categoryD0Ev,"axG",@progbits,_ZN4asio6detail15system_categoryD5Ev,comdat
	.align 2
	.p2align 4
	.weak	_ZN4asio6detail15system_categoryD0Ev
	.type	_ZN4asio6detail15system_categoryD0Ev, @function
_ZN4asio6detail15system_categoryD0Ev:
.LFB9508:
	.cfi_startproc
	endbr64
	movq	_ZTVN4asio6detail15system_categoryE@GOTPCREL(%rip), %rax
	pushq	%rbp
	.cfi_def_cfa_offset 16
	.cfi_offset 6, -16
	movq	%rdi, %rbp
	addq	$16, %rax
	movq	%rax, (%rdi)
	call	_ZNSt3_V214error_categoryD2Ev@PLT
	movq	%rbp, %rdi
	movl	$8, %esi
	popq	%rbp
	.cfi_def_cfa_offset 8
	jmp	_ZdlPvm@PLT
	.cfi_endproc
.LFE9508:
	.size	_ZN4asio6detail15system_categoryD0Ev, .-_ZN4asio6detail15system_categoryD0Ev
	.section	.text._ZN4asio5error6detail14netdb_categoryD2Ev,"axG",@progbits,_ZN4asio5error6detail14netdb_categoryD5Ev,comdat
	.align 2
	.p2align 4
	.weak	_ZN4asio5error6detail14netdb_categoryD2Ev
	.type	_ZN4asio5error6detail14netdb_categoryD2Ev, @function
_ZN4asio5error6detail14netdb_categoryD2Ev:
.LFB9494:
	.cfi_startproc
	endbr64
	movq	_ZTVN4asio5error6detail14netdb_categoryE@GOTPCREL(%rip), %rax
	addq	$16, %rax
	movq	%rax, (%rdi)
	jmp	_ZNSt3_V214error_categoryD2Ev@PLT
	.cfi_endproc
.LFE9494:
	.size	_ZN4asio5error6detail14netdb_categoryD2Ev, .-_ZN4asio5error6detail14netdb_categoryD2Ev
	.weak	_ZN4asio5error6detail14netdb_categoryD1Ev
	.set	_ZN4asio5error6detail14netdb_categoryD1Ev,_ZN4asio5error6detail14netdb_categoryD2Ev
	.section	.text._ZN4asio5error6detail14netdb_categoryD0Ev,"axG",@progbits,_ZN4asio5error6detail14netdb_categoryD5Ev,comdat
	.align 2
	.p2align 4
	.weak	_ZN4asio5error6detail14netdb_categoryD0Ev
	.type	_ZN4asio5error6detail14netdb_categoryD0Ev, @function
_ZN4asio5error6detail14netdb_categoryD0Ev:
.LFB9496:
	.cfi_startproc
	endbr64
	movq	_ZTVN4asio5error6detail14netdb_categoryE@GOTPCREL(%rip), %rax
	pushq	%rbp
	.cfi_def_cfa_offset 16
	.cfi_offset 6, -16
	movq	%rdi, %rbp
	addq	$16, %rax
	movq	%rax, (%rdi)
	call	_ZNSt3_V214error_categoryD2Ev@PLT
	movq	%rbp, %rdi
	movl	$8, %esi
	popq	%rbp
	.cfi_def_cfa_offset 8
	jmp	_ZdlPvm@PLT
	.cfi_endproc
.LFE9496:
	.size	_ZN4asio5error6detail14netdb_categoryD0Ev, .-_ZN4asio5error6detail14netdb_categoryD0Ev
	.section	.text._ZN4asio5error6detail17addrinfo_categoryD2Ev,"axG",@progbits,_ZN4asio5error6detail17addrinfo_categoryD5Ev,comdat
	.align 2
	.p2align 4
	.weak	_ZN4asio5error6detail17addrinfo_categoryD2Ev
	.type	_ZN4asio5error6detail17addrinfo_categoryD2Ev, @function
_ZN4asio5error6detail17addrinfo_categoryD2Ev:
.LFB9490:
	.cfi_startproc
	endbr64
	movq	_ZTVN4asio5error6detail17addrinfo_categoryE@GOTPCREL(%rip), %rax
	addq	$16, %rax
	movq	%rax, (%rdi)
	jmp	_ZNSt3_V214error_categoryD2Ev@PLT
	.cfi_endproc
.LFE9490:
	.size	_ZN4asio5error6detail17addrinfo_categoryD2Ev, .-_ZN4asio5error6detail17addrinfo_categoryD2Ev
	.weak	_ZN4asio5error6detail17addrinfo_categoryD1Ev
	.set	_ZN4asio5error6detail17addrinfo_categoryD1Ev,_ZN4asio5error6detail17addrinfo_categoryD2Ev
	.section	.text._ZN4asio5error6detail17addrinfo_categoryD0Ev,"axG",@progbits,_ZN4asio5error6detail17addrinfo_categoryD5Ev,comdat
	.align 2
	.p2align 4
	.weak	_ZN4asio5error6detail17addrinfo_categoryD0Ev
	.type	_ZN4asio5error6detail17addrinfo_categoryD0Ev, @function
_ZN4asio5error6detail17addrinfo_categoryD0Ev:
.LFB9492:
	.cfi_startproc
	endbr64
	movq	_ZTVN4asio5error6detail17addrinfo_categoryE@GOTPCREL(%rip), %rax
	pushq	%rbp
	.cfi_def_cfa_offset 16
	.cfi_offset 6, -16
	movq	%rdi, %rbp
	addq	$16, %rax
	movq	%rax, (%rdi)
	call	_ZNSt3_V214error_categoryD2Ev@PLT
	movq	%rbp, %rdi
	movl	$8, %esi
	popq	%rbp
	.cfi_def_cfa_offset 8
	jmp	_ZdlPvm@PLT
	.cfi_endproc
.LFE9492:
	.size	_ZN4asio5error6detail17addrinfo_categoryD0Ev, .-_ZN4asio5error6detail17addrinfo_categoryD0Ev
	.section	.text._ZN4asio5error6detail13misc_categoryD2Ev,"axG",@progbits,_ZN4asio5error6detail13misc_categoryD5Ev,comdat
	.align 2
	.p2align 4
	.weak	_ZN4asio5error6detail13misc_categoryD2Ev
	.type	_ZN4asio5error6detail13misc_categoryD2Ev, @function
_ZN4asio5error6detail13misc_categoryD2Ev:
.LFB9486:
	.cfi_startproc
	endbr64
	movq	_ZTVN4asio5error6detail13misc_categoryE@GOTPCREL(%rip), %rax
	addq	$16, %rax
	movq	%rax, (%rdi)
	jmp	_ZNSt3_V214error_categoryD2Ev@PLT
	.cfi_endproc
.LFE9486:
	.size	_ZN4asio5error6detail13misc_categoryD2Ev, .-_ZN4asio5error6detail13misc_categoryD2Ev
	.weak	_ZN4asio5error6detail13misc_categoryD1Ev
	.set	_ZN4asio5error6detail13misc_categoryD1Ev,_ZN4asio5error6detail13misc_categoryD2Ev
	.section	.text._ZN4asio5error6detail13misc_categoryD0Ev,"axG",@progbits,_ZN4asio5error6detail13misc_categoryD5Ev,comdat
	.align 2
	.p2align 4
	.weak	_ZN4asio5error6detail13misc_categoryD0Ev
	.type	_ZN4asio5error6detail13misc_categoryD0Ev, @function
_ZN4asio5error6detail13misc_categoryD0Ev:
.LFB9488:
	.cfi_startproc
	endbr64
	movq	_ZTVN4asio5error6detail13misc_categoryE@GOTPCREL(%rip), %rax
	pushq	%rbp
	.cfi_def_cfa_offset 16
	.cfi_offset 6, -16
	movq	%rdi, %rbp
	addq	$16, %rax
	movq	%rax, (%rdi)
	call	_ZNSt3_V214error_categoryD2Ev@PLT
	movq	%rbp, %rdi
	movl	$8, %esi
	popq	%rbp
	.cfi_def_cfa_offset 8
	jmp	_ZdlPvm@PLT
	.cfi_endproc
.LFE9488:
	.size	_ZN4asio5error6detail13misc_categoryD0Ev, .-_ZN4asio5error6detail13misc_categoryD0Ev
	.section	.text._ZNSt13__future_base7_ResultIbED2Ev,"axG",@progbits,_ZNSt13__future_base7_ResultIbED5Ev,comdat
	.align 2
	.p2align 4
	.weak	_ZNSt13__future_base7_ResultIbED2Ev
	.type	_ZNSt13__future_base7_ResultIbED2Ev, @function
_ZNSt13__future_base7_ResultIbED2Ev:
.LFB9578:
	.cfi_startproc
	endbr64
	movq	_ZTVNSt13__future_base7_ResultIbEE@GOTPCREL(%rip), %rax
	addq	$16, %rax
	movq	%rax, (%rdi)
	jmp	_ZNSt13__future_base12_Result_baseD2Ev@PLT
	.cfi_endproc
.LFE9578:
	.size	_ZNSt13__future_base7_ResultIbED2Ev, .-_ZNSt13__future_base7_ResultIbED2Ev
	.weak	_ZNSt13__future_base7_ResultIbED1Ev
	.set	_ZNSt13__future_base7_ResultIbED1Ev,_ZNSt13__future_base7_ResultIbED2Ev
	.section	.text._ZNSt13__future_base7_ResultIbED0Ev,"axG",@progbits,_ZNSt13__future_base7_ResultIbED5Ev,comdat
	.align 2
	.p2align 4
	.weak	_ZNSt13__future_base7_ResultIbED0Ev
	.type	_ZNSt13__future_base7_ResultIbED0Ev, @function
_ZNSt13__future_base7_ResultIbED0Ev:
.LFB9580:
	.cfi_startproc
	endbr64
	movq	_ZTVNSt13__future_base7_ResultIbEE@GOTPCREL(%rip), %rax
	pushq	%rbp
	.cfi_def_cfa_offset 16
	.cfi_offset 6, -16
	movq	%rdi, %rbp
	addq	$16, %rax
	movq	%rax, (%rdi)
	call	_ZNSt13__future_base12_Result_baseD2Ev@PLT
	movq	%rbp, %rdi
	movl	$24, %esi
	popq	%rbp
	.cfi_def_cfa_offset 8
	jmp	_ZdlPvm@PLT
	.cfi_endproc
.LFE9580:
	.size	_ZNSt13__future_base7_ResultIbED0Ev, .-_ZNSt13__future_base7_ResultIbED0Ev
	.text
	.align 2
	.p2align 4
	.globl	_ZN7asiopal8Executor7GetTimeEv
	.type	_ZN7asiopal8Executor7GetTimeEv, @function
_ZN7asiopal8Executor7GetTimeEv:
.LFB6999:
	.cfi_startproc
	endbr64
	subq	$24, %rsp
	.cfi_def_cfa_offset 32
	movq	%fs:40, %rax
	movq	%rax, 8(%rsp)
	xorl	%eax, %eax
	call	_ZNSt6chrono3_V212steady_clock3nowEv@PLT
	movq	%rsp, %rdi
	movq	%rax, (%rsp)
	call	_ZN7asiopal15TimeConversions7ConvertERKNSt6chrono10time_pointINS1_3_V212steady_clockENS1_8durationIlSt5ratioILl1ELl1000000000EEEEEE@PLT
	movq	8(%rsp), %rdx
	subq	%fs:40, %rdx
	jne	.L67
	addq	$24, %rsp
	.cfi_remember_state
	.cfi_def_cfa_offset 8
	ret
.L67:
	.cfi_restore_state
	call	__stack_chk_fail@PLT
	.cfi_endproc
.LFE6999:
	.size	_ZN7asiopal8Executor7GetTimeEv, .-_ZN7asiopal8Executor7GetTimeEv
	.section	.text._ZNSt13__future_base13_State_baseV29_M_do_setEPSt8functionIFSt10unique_ptrINS_12_Result_baseENS3_8_DeleterEEvEEPb,"axG",@progbits,_ZNSt13__future_base13_State_baseV29_M_do_setEPSt8functionIFSt10unique_ptrINS_12_Result_baseENS3_8_DeleterEEvEEPb,comdat
	.align 2
	.p2align 4
	.weak	_ZNSt13__future_base13_State_baseV29_M_do_setEPSt8functionIFSt10unique_ptrINS_12_Result_baseENS3_8_DeleterEEvEEPb
	.type	_ZNSt13__future_base13_State_baseV29_M_do_setEPSt8functionIFSt10unique_ptrINS_12_Result_baseENS3_8_DeleterEEvEEPb, @function
_ZNSt13__future_base13_State_baseV29_M_do_setEPSt8functionIFSt10unique_ptrINS_12_Result_baseENS3_8_DeleterEEvEEPb:
.LFB6730:
	.cfi_startproc
	.cfi_personality 0x9b,DW.ref.__gxx_personality_v0
	.cfi_lsda 0x1b,.LLSDA6730
	endbr64
	pushq	%rbp
	.cfi_def_cfa_offset 16
	.cfi_offset 6, -16
	pushq	%rbx
	.cfi_def_cfa_offset 24
	.cfi_offset 3, -24
	subq	$24, %rsp
	.cfi_def_cfa_offset 48
	movq	%fs:40, %rax
	movq	%rax, 8(%rsp)
	xorl	%eax, %eax
	cmpq	$0, 16(%rsi)
	je	.L76
	movq	%rdi, %rbx
	movq	%rdx, %rbp
	movq	%rsp, %rdi
.LEHB0:
	call	*24(%rsi)
.LEHE0:
	movq	8(%rbx), %rdi
	movq	(%rsp), %rax
	movb	$1, 0(%rbp)
	movq	%rdi, (%rsp)
	movq	%rax, 8(%rbx)
	testq	%rdi, %rdi
	je	.L68
	movq	(%rdi), %rax
	call	*(%rax)
.L68:
	movq	8(%rsp), %rax
	subq	%fs:40, %rax
	jne	.L77
	addq	$24, %rsp
	.cfi_remember_state
	.cfi_def_cfa_offset 24
	popq	%rbx
	.cfi_def_cfa_offset 16
	popq	%rbp
	.cfi_def_cfa_offset 8
	ret
.L76:
	.cfi_restore_state
.LEHB1:
	call	_ZSt25__throw_bad_function_callv@PLT
.LEHE1:
.L77:
	call	__stack_chk_fail@PLT
	.cfi_endproc
.LFE6730:
	.section	.gcc_except_table._ZNSt13__future_base13_State_baseV29_M_do_setEPSt8functionIFSt10unique_ptrINS_12_Result_baseENS3_8_DeleterEEvEEPb,"aG",@progbits,_ZNSt13__future_base13_State_baseV29_M_do_setEPSt8functionIFSt10unique_ptrINS_12_Result_baseENS3_8_DeleterEEvEEPb,comdat
.LLSDA6730:
	.byte	0xff
	.byte	0xff
	.byte	0x1
	.uleb128 .LLSDACSE6730-.LLSDACSB6730
.LLSDACSB6730:
	.uleb128 .LEHB0-.LFB6730
	.uleb128 .LEHE0-.LEHB0
	.uleb128 0
	.uleb128 0
	.uleb128 .LEHB1-.LFB6730
	.uleb128 .LEHE1-.LEHB1
	.uleb128 0
	.uleb128 0
.LLSDACSE6730:
	.section	.text._ZNSt13__future_base13_State_baseV29_M_do_setEPSt8functionIFSt10unique_ptrINS_12_Result_baseENS3_8_DeleterEEvEEPb,"axG",@progbits,_ZNSt13__future_base13_State_baseV29_M_do_setEPSt8functionIFSt10unique_ptrINS_12_Result_baseENS3_8_DeleterEEvEEPb,comdat
	.size	_ZNSt13__future_base13_State_baseV29_M_do_setEPSt8functionIFSt10unique_ptrINS_12_Result_baseENS3_8_DeleterEEvEEPb, .-_ZNSt13__future_base13_State_baseV29_M_do_setEPSt8functionIFSt10unique_ptrINS_12_Result_baseENS3_8_DeleterEEvEEPb
	.section	.text._ZNSt17_Function_handlerIFSt10unique_ptrINSt13__future_base12_Result_baseENS2_8_DeleterEEvENS1_13_State_baseV27_SetterIbObEEE10_M_managerERSt9_Any_dataRKSB_St18_Manager_operation,"axG",@progbits,_ZNSt17_Function_handlerIFSt10unique_ptrINSt13__future_base12_Result_baseENS2_8_DeleterEEvENS1_13_State_baseV27_SetterIbObEEE10_M_managerERSt9_Any_dataRKSB_St18_Manager_operation,comdat
	.p2align 4
	.weak	_ZNSt17_Function_handlerIFSt10unique_ptrINSt13__future_base12_Result_baseENS2_8_DeleterEEvENS1_13_State_baseV27_SetterIbObEEE10_M_managerERSt9_Any_dataRKSB_St18_Manager_operation
	.type	_ZNSt17_Function_handlerIFSt10unique_ptrINSt13__future_base12_Result_baseENS2_8_DeleterEEvENS1_13_State_baseV27_SetterIbObEEE10_M_managerERSt9_Any_dataRKSB_St18_Manager_operation, @function
_ZNSt17_Function_handlerIFSt10unique_ptrINSt13__future_base12_Result_baseENS2_8_DeleterEEvENS1_13_State_baseV27_SetterIbObEEE10_M_managerERSt9_Any_dataRKSB_St18_Manager_operation:
.LFB8577:
	.cfi_startproc
	endbr64
	testl	%edx, %edx
	je	.L79
	cmpl	$1, %edx
	je	.L80
	cmpl	$2, %edx
	je	.L84
.L82:
	xorl	%eax, %eax
	ret
	.p2align 4,,10
	.p2align 3
.L79:
	movq	_ZTINSt13__future_base13_State_baseV27_SetterIbObEE@GOTPCREL(%rip), %rax
	movq	%rax, (%rdi)
	xorl	%eax, %eax
	ret
	.p2align 4,,10
	.p2align 3
.L80:
	movq	%rsi, (%rdi)
	xorl	%eax, %eax
	ret
	.p2align 4,,10
	.p2align 3
.L84:
	movdqu	(%rsi), %xmm0
	movups	%xmm0, (%rdi)
	jmp	.L82
	.cfi_endproc
.LFE8577:
	.size	_ZNSt17_Function_handlerIFSt10unique_ptrINSt13__future_base12_Result_baseENS2_8_DeleterEEvENS1_13_State_baseV27_SetterIbObEEE10_M_managerERSt9_Any_dataRKSB_St18_Manager_operation, .-_ZNSt17_Function_handlerIFSt10unique_ptrINSt13__future_base12_Result_baseENS2_8_DeleterEEvENS1_13_State_baseV27_SetterIbObEEE10_M_managerERSt9_Any_dataRKSB_St18_Manager_operation
	.section	.text._ZNSt13__future_base7_ResultIbE10_M_destroyEv,"axG",@progbits,_ZNSt13__future_base7_ResultIbE10_M_destroyEv,comdat
	.align 2
	.p2align 4
	.weak	_ZNSt13__future_base7_ResultIbE10_M_destroyEv
	.type	_ZNSt13__future_base7_ResultIbE10_M_destroyEv, @function
_ZNSt13__future_base7_ResultIbE10_M_destroyEv:
.LFB9576:
	.cfi_startproc
	endbr64
	pushq	%rbp
	.cfi_def_cfa_offset 16
	.cfi_offset 6, -16
	movq	(%rdi), %rax
	movq	%rdi, %rbp
	movq	16(%rax), %rax
	cmpq	_ZNSt13__future_base7_ResultIbED0Ev@GOTPCREL(%rip), %rax
	jne	.L86
	movq	_ZTVNSt13__future_base7_ResultIbEE@GOTPCREL(%rip), %rax
	addq	$16, %rax
	movq	%rax, (%rdi)
	call	_ZNSt13__future_base12_Result_baseD2Ev@PLT
	movq	%rbp, %rdi
	movl	$24, %esi
	popq	%rbp
	.cfi_remember_state
	.cfi_def_cfa_offset 8
	jmp	_ZdlPvm@PLT
	.p2align 4,,10
	.p2align 3
.L86:
	.cfi_restore_state
	popq	%rbp
	.cfi_def_cfa_offset 8
	jmp	*%rax
	.cfi_endproc
.LFE9576:
	.size	_ZNSt13__future_base7_ResultIbE10_M_destroyEv, .-_ZNSt13__future_base7_ResultIbE10_M_destroyEv
	.section	.text._ZN4asio6detail14strand_serviceD2Ev,"axG",@progbits,_ZN4asio6detail14strand_serviceD5Ev,comdat
	.align 2
	.p2align 4
	.weak	_ZN4asio6detail14strand_serviceD2Ev
	.type	_ZN4asio6detail14strand_serviceD2Ev, @function
_ZN4asio6detail14strand_serviceD2Ev:
.LFB9466:
	.cfi_startproc
	.cfi_personality 0x9b,DW.ref.__gxx_personality_v0
	.cfi_lsda 0x1b,.LLSDA9466
	endbr64
	pushq	%r15
	.cfi_def_cfa_offset 16
	.cfi_offset 15, -16
	pushq	%r14
	.cfi_def_cfa_offset 24
	.cfi_offset 14, -24
	pushq	%r13
	.cfi_def_cfa_offset 32
	.cfi_offset 13, -32
	movq	%rdi, %r13
	pushq	%r12
	.cfi_def_cfa_offset 40
	.cfi_offset 12, -40
	leaq	80(%rdi), %r12
	pushq	%rbp
	.cfi_def_cfa_offset 48
	.cfi_offset 6, -48
	leaq	1624(%rdi), %rbp
	pushq	%rbx
	.cfi_def_cfa_offset 56
	.cfi_offset 3, -56
	subq	$56, %rsp
	.cfi_def_cfa_offset 112
	movq	%fs:40, %rax
	movq	%rax, 40(%rsp)
	movq	_ZTVN4asio6detail14strand_serviceE@GOTPCREL(%rip), %rax
	leaq	16(%rsp), %rbx
	addq	$16, %rax
	movq	%rax, (%rdi)
	.p2align 4,,10
	.p2align 3
.L98:
	movq	0(%rbp), %r15
	testq	%r15, %r15
	je	.L89
	movq	88(%r15), %rsi
	testq	%rsi, %rsi
	movq	%rsi, 8(%rsp)
	je	.L90
	call	_ZNSt3_V215system_categoryEv@PLT
	movq	8(%rsp), %rsi
	movq	%rax, %r14
	jmp	.L93
	.p2align 4,,10
	.p2align 3
.L91:
	movq	$0, (%rsi)
	movq	8(%rsi), %rax
	xorl	%ecx, %ecx
	movq	%rbx, %rdx
	movl	$0, 16(%rsp)
	xorl	%edi, %edi
	movq	%r14, 24(%rsp)
	call	*%rax
	movq	88(%r15), %rsi
	testq	%rsi, %rsi
	je	.L90
.L93:
	movq	(%rsi), %rax
	movq	%rax, 88(%r15)
	testq	%rax, %rax
	jne	.L91
	movq	$0, 96(%r15)
	jmp	.L91
	.p2align 4,,10
	.p2align 3
.L94:
	leaq	24(%r15), %rdi
	call	pthread_mutex_destroy@PLT
	movl	$104, %esi
	movq	%r15, %rdi
	call	_ZdlPvm@PLT
.L89:
	subq	$8, %rbp
	cmpq	%rbp, %r12
	jne	.L98
	movq	40(%rsp), %rax
	subq	%fs:40, %rax
	jne	.L126
	addq	$56, %rsp
	.cfi_remember_state
	.cfi_def_cfa_offset 56
	leaq	48(%r13), %rdi
	popq	%rbx
	.cfi_def_cfa_offset 48
	popq	%rbp
	.cfi_def_cfa_offset 40
	popq	%r12
	.cfi_def_cfa_offset 32
	popq	%r13
	.cfi_def_cfa_offset 24
	popq	%r14
	.cfi_def_cfa_offset 16
	popq	%r15
	.cfi_def_cfa_offset 8
	jmp	pthread_mutex_destroy@PLT
	.p2align 4,,10
	.p2align 3
.L90:
	.cfi_restore_state
	movq	72(%r15), %rsi
	testq	%rsi, %rsi
	movq	%rsi, 8(%rsp)
	je	.L94
	call	_ZNSt3_V215system_categoryEv@PLT
	movq	8(%rsp), %rsi
	movq	%rax, %r14
	jmp	.L97
	.p2align 4,,10
	.p2align 3
.L95:
	movq	$0, (%rsi)
	movq	8(%rsi), %rax
	xorl	%ecx, %ecx
	movq	%rbx, %rdx
	movl	$0, 16(%rsp)
	xorl	%edi, %edi
	movq	%r14, 24(%rsp)
	call	*%rax
	movq	72(%r15), %rsi
	testq	%rsi, %rsi
	je	.L94
.L97:
	movq	(%rsi), %rax
	movq	%rax, 72(%r15)
	testq	%rax, %rax
	jne	.L95
	movq	$0, 80(%r15)
	jmp	.L95
.L126:
	call	__stack_chk_fail@PLT
	.cfi_endproc
.LFE9466:
	.section	.gcc_except_table._ZN4asio6detail14strand_serviceD2Ev,"aG",@progbits,_ZN4asio6detail14strand_serviceD5Ev,comdat
.LLSDA9466:
	.byte	0xff
	.byte	0xff
	.byte	0x1
	.uleb128 .LLSDACSE9466-.LLSDACSB9466
.LLSDACSB9466:
.LLSDACSE9466:
	.section	.text._ZN4asio6detail14strand_serviceD2Ev,"axG",@progbits,_ZN4asio6detail14strand_serviceD5Ev,comdat
	.size	_ZN4asio6detail14strand_serviceD2Ev, .-_ZN4asio6detail14strand_serviceD2Ev
	.weak	_ZN4asio6detail14strand_serviceD1Ev
	.set	_ZN4asio6detail14strand_serviceD1Ev,_ZN4asio6detail14strand_serviceD2Ev
	.section	.text._ZNSt23_Sp_counted_ptr_inplaceINSt13__future_base13_State_baseV2ESaIS1_ELN9__gnu_cxx12_Lock_policyE2EE14_M_get_deleterERKSt9type_info,"axG",@progbits,_ZNSt23_Sp_counted_ptr_inplaceINSt13__future_base13_State_baseV2ESaIS1_ELN9__gnu_cxx12_Lock_policyE2EE14_M_get_deleterERKSt9type_info,comdat
	.align 2
	.p2align 4
	.weak	_ZNSt23_Sp_counted_ptr_inplaceINSt13__future_base13_State_baseV2ESaIS1_ELN9__gnu_cxx12_Lock_policyE2EE14_M_get_deleterERKSt9type_info
	.type	_ZNSt23_Sp_counted_ptr_inplaceINSt13__future_base13_State_baseV2ESaIS1_ELN9__gnu_cxx12_Lock_policyE2EE14_M_get_deleterERKSt9type_info, @function
_ZNSt23_Sp_counted_ptr_inplaceINSt13__future_base13_State_baseV2ESaIS1_ELN9__gnu_cxx12_Lock_policyE2EE14_M_get_deleterERKSt9type_info:
.LFB9561:
	.cfi_startproc
	endbr64
	cmpq	_ZZNSt19_Sp_make_shared_tag5_S_tiEvE5__tag@GOTPCREL(%rip), %rsi
	pushq	%r12
	.cfi_def_cfa_offset 16
	.cfi_offset 12, -16
	leaq	16(%rdi), %r12
	je	.L127
	movq	8(%rsi), %rdi
	movq	_ZTSSt19_Sp_make_shared_tag@GOTPCREL(%rip), %rsi
	cmpq	%rsi, %rdi
	je	.L127
	cmpb	$42, (%rdi)
	je	.L129
	call	strcmp@PLT
	testl	%eax, %eax
	movl	$0, %eax
	cmovne	%rax, %r12
.L127:
	movq	%r12, %rax
	popq	%r12
	.cfi_remember_state
	.cfi_def_cfa_offset 8
	ret
	.p2align 4,,10
	.p2align 3
.L129:
	.cfi_restore_state
	xorl	%r12d, %r12d
	movq	%r12, %rax
	popq	%r12
	.cfi_def_cfa_offset 8
	ret
	.cfi_endproc
.LFE9561:
	.size	_ZNSt23_Sp_counted_ptr_inplaceINSt13__future_base13_State_baseV2ESaIS1_ELN9__gnu_cxx12_Lock_policyE2EE14_M_get_deleterERKSt9type_info, .-_ZNSt23_Sp_counted_ptr_inplaceINSt13__future_base13_State_baseV2ESaIS1_ELN9__gnu_cxx12_Lock_policyE2EE14_M_get_deleterERKSt9type_info
	.section	.text._ZNSt23_Sp_counted_ptr_inplaceIN7asiopal5TimerESaIS1_ELN9__gnu_cxx12_Lock_policyE2EE14_M_get_deleterERKSt9type_info,"axG",@progbits,_ZNSt23_Sp_counted_ptr_inplaceIN7asiopal5TimerESaIS1_ELN9__gnu_cxx12_Lock_policyE2EE14_M_get_deleterERKSt9type_info,comdat
	.align 2
	.p2align 4
	.weak	_ZNSt23_Sp_counted_ptr_inplaceIN7asiopal5TimerESaIS1_ELN9__gnu_cxx12_Lock_policyE2EE14_M_get_deleterERKSt9type_info
	.type	_ZNSt23_Sp_counted_ptr_inplaceIN7asiopal5TimerESaIS1_ELN9__gnu_cxx12_Lock_policyE2EE14_M_get_deleterERKSt9type_info, @function
_ZNSt23_Sp_counted_ptr_inplaceIN7asiopal5TimerESaIS1_ELN9__gnu_cxx12_Lock_policyE2EE14_M_get_deleterERKSt9type_info:
.LFB9547:
	.cfi_startproc
	endbr64
	cmpq	_ZZNSt19_Sp_make_shared_tag5_S_tiEvE5__tag@GOTPCREL(%rip), %rsi
	pushq	%r12
	.cfi_def_cfa_offset 16
	.cfi_offset 12, -16
	leaq	16(%rdi), %r12
	je	.L132
	movq	8(%rsi), %rdi
	movq	_ZTSSt19_Sp_make_shared_tag@GOTPCREL(%rip), %rsi
	cmpq	%rsi, %rdi
	je	.L132
	cmpb	$42, (%rdi)
	je	.L134
	call	strcmp@PLT
	testl	%eax, %eax
	movl	$0, %eax
	cmovne	%rax, %r12
.L132:
	movq	%r12, %rax
	popq	%r12
	.cfi_remember_state
	.cfi_def_cfa_offset 8
	ret
	.p2align 4,,10
	.p2align 3
.L134:
	.cfi_restore_state
	xorl	%r12d, %r12d
	movq	%r12, %rax
	popq	%r12
	.cfi_def_cfa_offset 8
	ret
	.cfi_endproc
.LFE9547:
	.size	_ZNSt23_Sp_counted_ptr_inplaceIN7asiopal5TimerESaIS1_ELN9__gnu_cxx12_Lock_policyE2EE14_M_get_deleterERKSt9type_info, .-_ZNSt23_Sp_counted_ptr_inplaceIN7asiopal5TimerESaIS1_ELN9__gnu_cxx12_Lock_policyE2EE14_M_get_deleterERKSt9type_info
	.section	.text._ZN4asio6detail14strand_serviceD0Ev,"axG",@progbits,_ZN4asio6detail14strand_serviceD5Ev,comdat
	.align 2
	.p2align 4
	.weak	_ZN4asio6detail14strand_serviceD0Ev
	.type	_ZN4asio6detail14strand_serviceD0Ev, @function
_ZN4asio6detail14strand_serviceD0Ev:
.LFB9468:
	.cfi_startproc
	.cfi_personality 0x9b,DW.ref.__gxx_personality_v0
	.cfi_lsda 0x1b,.LLSDA9468
	endbr64
	pushq	%r15
	.cfi_def_cfa_offset 16
	.cfi_offset 15, -16
	pushq	%r14
	.cfi_def_cfa_offset 24
	.cfi_offset 14, -24
	pushq	%r13
	.cfi_def_cfa_offset 32
	.cfi_offset 13, -32
	leaq	80(%rdi), %r13
	pushq	%r12
	.cfi_def_cfa_offset 40
	.cfi_offset 12, -40
	pushq	%rbp
	.cfi_def_cfa_offset 48
	.cfi_offset 6, -48
	pushq	%rbx
	.cfi_def_cfa_offset 56
	.cfi_offset 3, -56
	leaq	1624(%rdi), %rbx
	subq	$56, %rsp
	.cfi_def_cfa_offset 112
	movq	%rdi, 8(%rsp)
	leaq	16(%rsp), %r14
	movq	%fs:40, %rax
	movq	%rax, 40(%rsp)
	movq	_ZTVN4asio6detail14strand_serviceE@GOTPCREL(%rip), %rax
	addq	$16, %rax
	movq	%rax, (%rdi)
	.p2align 4,,10
	.p2align 3
.L147:
	movq	(%rbx), %rbp
	testq	%rbp, %rbp
	je	.L138
	movq	88(%rbp), %r12
	testq	%r12, %r12
	je	.L139
	call	_ZNSt3_V215system_categoryEv@PLT
	movq	%rax, %r15
	jmp	.L142
	.p2align 4,,10
	.p2align 3
.L140:
	movq	$0, (%r12)
	movq	%r12, %rsi
	xorl	%ecx, %ecx
	movq	%r14, %rdx
	movq	8(%r12), %r8
	xorl	%edi, %edi
	movq	%r15, 24(%rsp)
	movl	$0, 16(%rsp)
	call	*%r8
	movq	88(%rbp), %r12
	testq	%r12, %r12
	je	.L139
.L142:
	movq	(%r12), %rdx
	movq	%rdx, 88(%rbp)
	testq	%rdx, %rdx
	jne	.L140
	movq	$0, 96(%rbp)
	jmp	.L140
	.p2align 4,,10
	.p2align 3
.L143:
	leaq	24(%rbp), %rdi
	call	pthread_mutex_destroy@PLT
	movl	$104, %esi
	movq	%rbp, %rdi
	call	_ZdlPvm@PLT
.L138:
	subq	$8, %rbx
	cmpq	%rbx, %r13
	jne	.L147
	movq	8(%rsp), %rax
	leaq	48(%rax), %rdi
	call	pthread_mutex_destroy@PLT
	movq	40(%rsp), %rax
	subq	%fs:40, %rax
	jne	.L175
	movq	8(%rsp), %rdi
	addq	$56, %rsp
	.cfi_remember_state
	.cfi_def_cfa_offset 56
	movl	$1640, %esi
	popq	%rbx
	.cfi_def_cfa_offset 48
	popq	%rbp
	.cfi_def_cfa_offset 40
	popq	%r12
	.cfi_def_cfa_offset 32
	popq	%r13
	.cfi_def_cfa_offset 24
	popq	%r14
	.cfi_def_cfa_offset 16
	popq	%r15
	.cfi_def_cfa_offset 8
	jmp	_ZdlPvm@PLT
	.p2align 4,,10
	.p2align 3
.L139:
	.cfi_restore_state
	movq	72(%rbp), %r12
	testq	%r12, %r12
	je	.L143
	call	_ZNSt3_V215system_categoryEv@PLT
	movq	%rax, %r15
	jmp	.L146
	.p2align 4,,10
	.p2align 3
.L144:
	movq	$0, (%r12)
	movq	%r12, %rsi
	xorl	%ecx, %ecx
	movq	%r14, %rdx
	movq	8(%r12), %r8
	xorl	%edi, %edi
	movq	%r15, 24(%rsp)
	movl	$0, 16(%rsp)
	call	*%r8
	movq	72(%rbp), %r12
	testq	%r12, %r12
	je	.L143
.L146:
	movq	(%r12), %rdx
	movq	%rdx, 72(%rbp)
	testq	%rdx, %rdx
	jne	.L144
	movq	$0, 80(%rbp)
	jmp	.L144
.L175:
	call	__stack_chk_fail@PLT
	.cfi_endproc
.LFE9468:
	.section	.gcc_except_table._ZN4asio6detail14strand_serviceD0Ev,"aG",@progbits,_ZN4asio6detail14strand_serviceD5Ev,comdat
.LLSDA9468:
	.byte	0xff
	.byte	0xff
	.byte	0x1
	.uleb128 .LLSDACSE9468-.LLSDACSB9468
.LLSDACSB9468:
.LLSDACSE9468:
	.section	.text._ZN4asio6detail14strand_serviceD0Ev,"axG",@progbits,_ZN4asio6detail14strand_serviceD5Ev,comdat
	.size	_ZN4asio6detail14strand_serviceD0Ev, .-_ZN4asio6detail14strand_serviceD0Ev
	.section	.text._ZN4asio6detail14strand_service16shutdown_serviceEv,"axG",@progbits,_ZN4asio6detail14strand_service16shutdown_serviceEv,comdat
	.align 2
	.p2align 4
	.weak	_ZN4asio6detail14strand_service16shutdown_serviceEv
	.type	_ZN4asio6detail14strand_service16shutdown_serviceEv, @function
_ZN4asio6detail14strand_service16shutdown_serviceEv:
.LFB6422:
	.cfi_startproc
	.cfi_personality 0x9b,DW.ref.__gxx_personality_v0
	.cfi_lsda 0x1b,.LLSDA6422
	endbr64
	pushq	%r12
	.cfi_def_cfa_offset 16
	.cfi_offset 12, -16
	pushq	%rbp
	.cfi_def_cfa_offset 24
	.cfi_offset 6, -24
	leaq	48(%rdi), %rbp
	pushq	%rbx
	.cfi_def_cfa_offset 32
	.cfi_offset 3, -32
	movq	%rdi, %rbx
	movq	%rbp, %rdi
	subq	$32, %rsp
	.cfi_def_cfa_offset 64
	movq	%fs:40, %rax
	movq	%rax, 24(%rsp)
	xorl	%eax, %eax
	call	pthread_mutex_lock@PLT
	leaq	88(%rbx), %rdx
	xorl	%ecx, %ecx
	pxor	%xmm0, %xmm0
	leaq	1632(%rbx), %rdi
	xorl	%ebx, %ebx
	jmp	.L181
	.p2align 4,,10
	.p2align 3
.L203:
	movq	%rsi, (%rcx)
.L179:
	movq	80(%rax), %rcx
	movups	%xmm0, 72(%rax)
.L178:
	movq	88(%rax), %rsi
	testq	%rsi, %rsi
	je	.L177
	testq	%rcx, %rcx
	je	.L186
	movq	%rsi, (%rcx)
.L180:
	movq	96(%rax), %rcx
	movups	%xmm0, 88(%rax)
.L177:
	addq	$8, %rdx
	cmpq	%rdi, %rdx
	je	.L202
.L181:
	movq	(%rdx), %rax
	testq	%rax, %rax
	je	.L177
	movq	72(%rax), %rsi
	testq	%rsi, %rsi
	je	.L178
	testq	%rcx, %rcx
	jne	.L203
	movq	%rsi, %rbx
	jmp	.L179
	.p2align 4,,10
	.p2align 3
.L186:
	movq	%rsi, %rbx
	jmp	.L180
.L202:
	movq	%rbp, %rdi
	call	pthread_mutex_unlock@PLT
	testq	%rbx, %rbx
	je	.L176
	call	_ZNSt3_V215system_categoryEv@PLT
	movq	%rsp, %r12
	movq	%rax, %rbp
	.p2align 4,,10
	.p2align 3
.L183:
	movq	%rbx, %rsi
	movq	(%rbx), %rbx
	xorl	%ecx, %ecx
	xorl	%edi, %edi
	movq	$0, (%rsi)
	movq	8(%rsi), %rax
	movq	%r12, %rdx
	movl	$0, (%rsp)
	movq	%rbp, 8(%rsp)
	call	*%rax
	testq	%rbx, %rbx
	jne	.L183
.L176:
	movq	24(%rsp), %rax
	subq	%fs:40, %rax
	jne	.L204
	addq	$32, %rsp
	.cfi_remember_state
	.cfi_def_cfa_offset 32
	popq	%rbx
	.cfi_def_cfa_offset 24
	popq	%rbp
	.cfi_def_cfa_offset 16
	popq	%r12
	.cfi_def_cfa_offset 8
	ret
.L204:
	.cfi_restore_state
	call	__stack_chk_fail@PLT
	.cfi_endproc
.LFE6422:
	.section	.gcc_except_table._ZN4asio6detail14strand_service16shutdown_serviceEv,"aG",@progbits,_ZN4asio6detail14strand_service16shutdown_serviceEv,comdat
.LLSDA6422:
	.byte	0xff
	.byte	0xff
	.byte	0x1
	.uleb128 .LLSDACSE6422-.LLSDACSB6422
.LLSDACSB6422:
.LLSDACSE6422:
	.section	.text._ZN4asio6detail14strand_service16shutdown_serviceEv,"axG",@progbits,_ZN4asio6detail14strand_service16shutdown_serviceEv,comdat
	.size	_ZN4asio6detail14strand_service16shutdown_serviceEv, .-_ZN4asio6detail14strand_service16shutdown_serviceEv
	.section	.text.unlikely,"ax",@progbits
.LCOLDB4:
	.text
.LHOTB4:
	.p2align 4
	.type	_ZN4asio6detail18completion_handlerIZN7asiopal8Executor10BlockUntilERKSt8functionIFvvEEEUlvE_E11do_completeEPNS0_15task_io_serviceEPNS0_25task_io_service_operationERKSt10error_codem, @function
_ZN4asio6detail18completion_handlerIZN7asiopal8Executor10BlockUntilERKSt8functionIFvvEEEUlvE_E11do_completeEPNS0_15task_io_serviceEPNS0_25task_io_service_operationERKSt10error_codem:
.LFB8769:
	.cfi_startproc
	.cfi_personality 0x9b,DW.ref.__gxx_personality_v0
	.cfi_lsda 0x1b,.LLSDA8769
	endbr64
	pushq	%r13
	.cfi_def_cfa_offset 16
	.cfi_offset 13, -16
	pushq	%r12
	.cfi_def_cfa_offset 24
	.cfi_offset 12, -24
	pushq	%rbp
	.cfi_def_cfa_offset 32
	.cfi_offset 6, -32
	movq	%rsi, %rbp
	pushq	%rbx
	.cfi_def_cfa_offset 40
	.cfi_offset 3, -40
	movq	%rdi, %rbx
	subq	$184, %rsp
	.cfi_def_cfa_offset 224
	movq	24(%rsi), %r12
	movq	32(%rsi), %r13
	movq	%fs:40, %rax
	movq	%rax, 168(%rsp)
	xorl	%eax, %eax
	leaq	80(%rsp), %rdx
	leaq	56(%rsp), %rax
	movq	_ZNSt17_Function_handlerIFSt10unique_ptrINSt13__future_base12_Result_baseENS2_8_DeleterEEvENS1_13_State_baseV27_SetterIbObEEE10_M_managerERSt9_Any_dataRKSB_St18_Manager_operation@GOTPCREL(%rip), %xmm2
	movq	%rax, %xmm3
	movq	%rdx, %xmm0
	leaq	72(%rsp), %rax
	leaq	64(%rsp), %rdx
	movq	%rax, %xmm4
	punpcklqdq	%xmm3, %xmm0
	movq	%rdx, %xmm1
	movhps	_ZNSt17_Function_handlerIFSt10unique_ptrINSt13__future_base12_Result_baseENS2_8_DeleterEEvENS1_13_State_baseV27_SetterIbObEEE9_M_invokeERKSt9_Any_data@GOTPCREL(%rip), %xmm2
	movaps	%xmm0, 32(%rsp)
	punpcklqdq	%xmm4, %xmm1
	movaps	%xmm2, (%rsp)
	movaps	%xmm1, 16(%rsp)
	data16	leaq	_ZN4asio6detail15keyword_tss_ptrINS0_10call_stackINS0_15task_io_serviceENS0_27task_io_service_thread_infoEE7contextEE6value_E@tlsgd(%rip), %rdi
	.value	0x6666
	rex64
	call	__tls_get_addr@PLT
	movq	(%rax), %rax
	testq	%rax, %rax
	je	.L206
	movq	8(%rax), %rax
	testq	%rax, %rax
	je	.L206
	cmpq	$0, (%rax)
	je	.L240
.L206:
	movq	%rbp, %rdi
	call	_ZdlPv@PLT
.L207:
	testq	%rbx, %rbx
	je	.L205
	cmpq	$0, 16(%r12)
	je	.L241
	movq	%r12, %rdi
.LEHB2:
	call	*24(%r12)
.LEHE2:
	movq	0(%r13), %rbx
	movb	$1, 54(%rsp)
	testq	%rbx, %rbx
	je	.L242
	leaq	54(%rsp), %rax
	movdqa	(%rsp), %xmm5
	movdqa	32(%rsp), %xmm6
	leaq	128(%rsp), %rbp
	movq	%rax, 136(%rsp)
	leaq	55(%rsp), %rax
	movdqa	16(%rsp), %xmm7
	movq	%rax, 72(%rsp)
	movq	_ZNSt13__future_base13_State_baseV29_M_do_setEPSt8functionIFSt10unique_ptrINS_12_Result_baseENS3_8_DeleterEEvEEPb@GOTPCREL(%rip), %rax
	movaps	%xmm5, 144(%rsp)
	movaps	%xmm6, 96(%rsp)
	movaps	%xmm7, 112(%rsp)
	movq	%r13, 128(%rsp)
	movb	$0, 55(%rsp)
	movq	%rbp, 64(%rsp)
	movq	%rbx, 56(%rsp)
	movq	%rax, 80(%rsp)
	movq	$0, 88(%rsp)
	data16	leaq	_ZSt15__once_callable@tlsgd(%rip), %rdi
	.value	0x6666
	rex64
	call	__tls_get_addr@PLT
	leaq	96(%rsp), %rdx
	movq	%rdx, (%rax)
	data16	leaq	_ZSt11__once_call@tlsgd(%rip), %rdi
	.value	0x6666
	rex64
	call	__tls_get_addr@PLT
	movq	_ZZNSt9once_flag18_Prepare_executionC4IZSt9call_onceIMNSt13__future_base13_State_baseV2EFvPSt8functionIFSt10unique_ptrINS3_12_Result_baseENS7_8_DeleterEEvEEPbEJPS4_SC_SD_EEvRS_OT_DpOT0_EUlvE_EERSI_ENUlvE_4_FUNEv@GOTPCREL(%rip), %rdx
	movq	__once_proxy@GOTPCREL(%rip), %rsi
	leaq	24(%rbx), %rdi
	movq	%rdx, (%rax)
.LEHB3:
	call	pthread_once@PLT
.LEHE3:
	testl	%eax, %eax
	jne	.L243
	data16	leaq	_ZSt15__once_callable@tlsgd(%rip), %rdi
	.value	0x6666
	rex64
	call	__tls_get_addr@PLT
	movq	$0, (%rax)
	data16	leaq	_ZSt11__once_call@tlsgd(%rip), %rdi
	.value	0x6666
	rex64
	call	__tls_get_addr@PLT
	cmpb	$0, 55(%rsp)
	movq	$0, (%rax)
	jne	.L244
	movl	$2, %edi
.LEHB4:
	call	_ZSt20__throw_future_errori@PLT
.LEHE4:
	.p2align 4,,10
	.p2align 3
.L244:
	leaq	16(%rbx), %rdi
	movl	$1, %eax
	xchgl	(%rdi), %eax
	testl	%eax, %eax
	js	.L216
.L219:
	movq	144(%rsp), %rax
	testq	%rax, %rax
	je	.L218
	movl	$3, %edx
	movq	%rbp, %rsi
	movq	%rbp, %rdi
	call	*%rax
.L218:
	sfence
.L205:
	movq	168(%rsp), %rax
	subq	%fs:40, %rax
	jne	.L245
	addq	$184, %rsp
	.cfi_remember_state
	.cfi_def_cfa_offset 40
	popq	%rbx
	.cfi_def_cfa_offset 32
	popq	%rbp
	.cfi_def_cfa_offset 24
	popq	%r12
	.cfi_def_cfa_offset 16
	popq	%r13
	.cfi_def_cfa_offset 8
	ret
	.p2align 4,,10
	.p2align 3
.L240:
	.cfi_restore_state
	movzbl	40(%rbp), %edx
	movb	%dl, 0(%rbp)
	movq	%rbp, (%rax)
	jmp	.L207
	.p2align 4,,10
	.p2align 3
.L216:
.LEHB5:
	call	_ZNSt28__atomic_futex_unsigned_base19_M_futex_notify_allEPj@PLT
.LEHE5:
	jmp	.L219
.L242:
	movl	$3, %edi
.LEHB6:
	call	_ZSt20__throw_future_errori@PLT
.LEHE6:
.L243:
	movl	%eax, %edi
.LEHB7:
	call	_ZSt20__throw_system_errori@PLT
.LEHE7:
.L241:
.LEHB8:
	call	_ZSt25__throw_bad_function_callv@PLT
.LEHE8:
.L245:
	call	__stack_chk_fail@PLT
.L223:
	endbr64
	movq	%rax, %rdi
	jmp	.L221
.L225:
	endbr64
	movq	%rax, %rbx
	jmp	.L214
.L224:
	endbr64
	movq	%rax, %rbx
	jmp	.L215
	.section	.gcc_except_table,"a",@progbits
.LLSDA8769:
	.byte	0xff
	.byte	0xff
	.byte	0x1
	.uleb128 .LLSDACSE8769-.LLSDACSB8769
.LLSDACSB8769:
	.uleb128 .LEHB2-.LFB8769
	.uleb128 .LEHE2-.LEHB2
	.uleb128 .L223-.LFB8769
	.uleb128 0
	.uleb128 .LEHB3-.LFB8769
	.uleb128 .LEHE3-.LEHB3
	.uleb128 .L225-.LFB8769
	.uleb128 0
	.uleb128 .LEHB4-.LFB8769
	.uleb128 .LEHE4-.LEHB4
	.uleb128 .L224-.LFB8769
	.uleb128 0
	.uleb128 .LEHB5-.LFB8769
	.uleb128 .LEHE5-.LEHB5
	.uleb128 .L224-.LFB8769
	.uleb128 0
	.uleb128 .LEHB6-.LFB8769
	.uleb128 .LEHE6-.LEHB6
	.uleb128 .L223-.LFB8769
	.uleb128 0
	.uleb128 .LEHB7-.LFB8769
	.uleb128 .LEHE7-.LEHB7
	.uleb128 .L225-.LFB8769
	.uleb128 0
	.uleb128 .LEHB8-.LFB8769
	.uleb128 .LEHE8-.LEHB8
	.uleb128 .L223-.LFB8769
	.uleb128 0
.LLSDACSE8769:
	.text
	.cfi_endproc
	.section	.text.unlikely
	.cfi_startproc
	.cfi_personality 0x9b,DW.ref.__gxx_personality_v0
	.cfi_lsda 0x1b,.LLSDAC8769
	.type	_ZN4asio6detail18completion_handlerIZN7asiopal8Executor10BlockUntilERKSt8functionIFvvEEEUlvE_E11do_completeEPNS0_15task_io_serviceEPNS0_25task_io_service_operationERKSt10error_codem.cold, @function
_ZN4asio6detail18completion_handlerIZN7asiopal8Executor10BlockUntilERKSt8functionIFvvEEEUlvE_E11do_completeEPNS0_15task_io_serviceEPNS0_25task_io_service_operationERKSt10error_codem.cold:
.LFSB8769:
.L214:
	.cfi_def_cfa_offset 224
	.cfi_offset 3, -40
	.cfi_offset 6, -32
	.cfi_offset 12, -24
	.cfi_offset 13, -16
	data16	leaq	_ZSt15__once_callable@tlsgd(%rip), %rdi
	.value	0x6666
	rex64
	call	__tls_get_addr@PLT
	movq	$0, (%rax)
	data16	leaq	_ZSt11__once_call@tlsgd(%rip), %rdi
	.value	0x6666
	rex64
	call	__tls_get_addr@PLT
	movq	$0, (%rax)
.L215:
	movq	144(%rsp), %rax
	testq	%rax, %rax
	je	.L220
	movl	$3, %edx
	movq	%rbp, %rsi
	movq	%rbp, %rdi
	call	*%rax
.L220:
	movq	%rbx, %rdi
.L221:
	sfence
.LEHB9:
	call	_Unwind_Resume@PLT
.LEHE9:
	.cfi_endproc
.LFE8769:
	.section	.gcc_except_table
.LLSDAC8769:
	.byte	0xff
	.byte	0xff
	.byte	0x1
	.uleb128 .LLSDACSEC8769-.LLSDACSBC8769
.LLSDACSBC8769:
	.uleb128 .LEHB9-.LCOLDB4
	.uleb128 .LEHE9-.LEHB9
	.uleb128 0
	.uleb128 0
.LLSDACSEC8769:
	.section	.text.unlikely
	.text
	.size	_ZN4asio6detail18completion_handlerIZN7asiopal8Executor10BlockUntilERKSt8functionIFvvEEEUlvE_E11do_completeEPNS0_15task_io_serviceEPNS0_25task_io_service_operationERKSt10error_codem, .-_ZN4asio6detail18completion_handlerIZN7asiopal8Executor10BlockUntilERKSt8functionIFvvEEEUlvE_E11do_completeEPNS0_15task_io_serviceEPNS0_25task_io_service_operationERKSt10error_codem
	.section	.text.unlikely
	.size	_ZN4asio6detail18completion_handlerIZN7asiopal8Executor10BlockUntilERKSt8functionIFvvEEEUlvE_E11do_completeEPNS0_15task_io_serviceEPNS0_25task_io_service_operationERKSt10error_codem.cold, .-_ZN4asio6detail18completion_handlerIZN7asiopal8Executor10BlockUntilERKSt8functionIFvvEEEUlvE_E11do_completeEPNS0_15task_io_serviceEPNS0_25task_io_service_operationERKSt10error_codem.cold
.LCOLDE4:
	.text
.LHOTE4:
	.align 2
	.p2align 4
	.type	_ZN4asio6detail13epoll_reactor12cancel_timerINS0_18chrono_time_traitsINSt6chrono3_V212steady_clockENS_11wait_traitsIS6_EEEEEEmRNS0_11timer_queueIT_EERNSC_14per_timer_dataEm.constprop.0.isra.0, @function
_ZN4asio6detail13epoll_reactor12cancel_timerINS0_18chrono_time_traitsINSt6chrono3_V212steady_clockENS_11wait_traitsIS6_EEEEEEmRNS0_11timer_queueIT_EERNSC_14per_timer_dataEm.constprop.0.isra.0:
.LFB9650:
	.cfi_startproc
	pushq	%r15
	.cfi_def_cfa_offset 16
	.cfi_offset 15, -16
	pushq	%r14
	.cfi_def_cfa_offset 24
	.cfi_offset 14, -24
	leaq	48(%rdi), %r14
	pushq	%r13
	.cfi_def_cfa_offset 32
	.cfi_offset 13, -32
	pushq	%r12
	.cfi_def_cfa_offset 40
	.cfi_offset 12, -40
	pushq	%rbp
	.cfi_def_cfa_offset 48
	.cfi_offset 6, -48
	pushq	%rbx
	.cfi_def_cfa_offset 56
	.cfi_offset 3, -56
	movq	%rdx, %rbx
	subq	$72, %rsp
	.cfi_def_cfa_offset 128
	movq	%rdi, 8(%rsp)
	movq	%r14, %rdi
	movq	%rsi, 16(%rsp)
	movq	%fs:40, %rax
	movq	%rax, 56(%rsp)
	xorl	%eax, %eax
	call	pthread_mutex_lock@PLT
	cmpq	$0, 32(%rbx)
	je	.L326
.L247:
	movq	(%rbx), %r13
	movq	$-1, %r12
	xorl	%r15d, %r15d
	movq	%rbx, %rbp
	movq	$0, (%rsp)
	jmp	.L256
	.p2align 4,,10
	.p2align 3
.L323:
	movq	_ZZN4asio15system_categoryEvE8instance@GOTPCREL(%rip), %rcx
.L251:
	movq	0(%rbp), %rdx
	movl	$125, 24(%r13)
	xorl	%eax, %eax
	movq	%rcx, 32(%r13)
	testq	%rdx, %rdx
	je	.L253
	movq	(%rdx), %rax
	movq	%rax, 0(%rbp)
	testq	%rax, %rax
	je	.L327
.L254:
	movq	$0, (%rdx)
.L253:
	movq	$0, 0(%r13)
	testq	%r15, %r15
	je	.L286
	movq	%r13, (%r15)
	movq	%r13, %r15
	subq	$1, %r12
	je	.L328
.L287:
	movq	%rax, %r13
.L256:
	testq	%r13, %r13
	je	.L318
	movq	_ZGVZN4asio15system_categoryEvE8instance@GOTPCREL(%rip), %rbx
	movzbl	(%rbx), %eax
	testb	%al, %al
	jne	.L323
	movq	%rbx, %rdi
	call	__cxa_guard_acquire@PLT
	testl	%eax, %eax
	je	.L323
	movq	_ZZN4asio15system_categoryEvE8instance@GOTPCREL(%rip), %rcx
	movq	_ZN4asio6detail15system_categoryD1Ev@GOTPCREL(%rip), %rdi
	leaq	__dso_handle(%rip), %rdx
	movq	%rcx, %rsi
	movq	%rcx, 24(%rsp)
	call	__cxa_atexit@PLT
	movq	%rbx, %rdi
	call	__cxa_guard_release@PLT
	movq	24(%rsp), %rcx
	jmp	.L251
	.p2align 4,,10
	.p2align 3
.L286:
	movq	%r13, (%rsp)
	movq	%r13, %r15
	subq	$1, %r12
	jne	.L287
.L328:
	movq	%rbp, %rbx
	testq	%rax, %rax
	je	.L249
.L257:
	movq	%r14, %rdi
	call	pthread_mutex_unlock@PLT
	movq	8(%rsp), %rax
	cmpq	$0, (%rsp)
	movq	40(%rax), %rbx
	je	.L246
	cmpb	$0, 40(%rbx)
	je	.L271
	data16	leaq	_ZN4asio6detail15keyword_tss_ptrINS0_10call_stackINS0_15task_io_serviceENS0_27task_io_service_thread_infoEE7contextEE6value_E@tlsgd(%rip), %rdi
	.value	0x6666
	rex64
	call	__tls_get_addr@PLT
	movq	(%rax), %rax
	testq	%rax, %rax
	jne	.L274
	jmp	.L271
	.p2align 4,,10
	.p2align 3
.L272:
	movq	16(%rax), %rax
	testq	%rax, %rax
	je	.L271
.L274:
	cmpq	(%rax), %rbx
	jne	.L272
	movq	8(%rax), %rax
	testq	%rax, %rax
	je	.L271
	movq	16(%rax), %rdx
	movq	(%rsp), %rsi
	testq	%rdx, %rdx
	je	.L275
	movq	%rsi, (%rdx)
.L276:
	movq	%r13, 16(%rax)
.L246:
	movq	56(%rsp), %rax
	subq	%fs:40, %rax
	jne	.L325
	addq	$72, %rsp
	.cfi_remember_state
	.cfi_def_cfa_offset 56
	popq	%rbx
	.cfi_def_cfa_offset 48
	popq	%rbp
	.cfi_def_cfa_offset 40
	popq	%r12
	.cfi_def_cfa_offset 32
	popq	%r13
	.cfi_def_cfa_offset 24
	popq	%r14
	.cfi_def_cfa_offset 16
	popq	%r15
	.cfi_def_cfa_offset 8
	ret
	.p2align 4,,10
	.p2align 3
.L327:
	.cfi_restore_state
	movq	$0, 8(%rbp)
	jmp	.L254
	.p2align 4,,10
	.p2align 3
.L271:
	leaq	48(%rbx), %rbp
	movq	%rbp, %rdi
	call	pthread_mutex_lock@PLT
	movq	200(%rbx), %rax
	testq	%rax, %rax
	je	.L277
	movq	(%rsp), %rsi
	movq	%rsi, (%rax)
.L278:
	movq	136(%rbx), %rax
	movq	%r13, 200(%rbx)
	orq	$1, %rax
	movq	%rax, 136(%rbx)
	cmpq	$1, %rax
	je	.L279
	movq	%rbp, %rdi
	call	pthread_mutex_unlock@PLT
	movq	56(%rsp), %rax
	subq	%fs:40, %rax
	jne	.L325
	addq	$72, %rsp
	.cfi_remember_state
	.cfi_def_cfa_offset 56
	leaq	88(%rbx), %rdi
	popq	%rbx
	.cfi_def_cfa_offset 48
	popq	%rbp
	.cfi_def_cfa_offset 40
	popq	%r12
	.cfi_def_cfa_offset 32
	popq	%r13
	.cfi_def_cfa_offset 24
	popq	%r14
	.cfi_def_cfa_offset 16
	popq	%r15
	.cfi_def_cfa_offset 8
	jmp	pthread_cond_signal@PLT
	.p2align 4,,10
	.p2align 3
.L318:
	.cfi_restore_state
	movq	%rbp, %rbx
.L249:
	movq	16(%rsp), %rcx
	movq	16(%rbx), %rsi
	movq	32(%rcx), %rax
	movq	24(%rcx), %rdx
	cmpq	%rdx, %rax
	je	.L259
	movq	%rax, %r9
	subq	%rdx, %r9
	movq	%r9, %rdi
	sarq	$4, %rdi
	cmpq	%rdi, %rsi
	jnb	.L259
	subq	$1, %rdi
	leaq	-16(%rax), %r10
	cmpq	%rdi, %rsi
	je	.L329
	movq	%rsi, %rax
	leaq	-16(%rdx,%r9), %r9
	salq	$4, %rax
	movdqu	(%r9), %xmm3
	addq	%rdx, %rax
	movq	(%rax), %rbp
	movq	8(%rax), %r11
	movups	%xmm3, (%rax)
	movq	%rbp, (%r9)
	movq	%r11, 8(%r9)
	movq	8(%rax), %r9
	movq	%rsi, 16(%r9)
	movq	%rdi, 16(%r11)
	movq	%r10, 32(%rcx)
	testq	%rsi, %rsi
	je	.L262
	leaq	-1(%rsi), %r9
	movq	(%rax), %r11
	shrq	%r9
	movq	%r9, %rdi
	salq	$4, %rdi
	addq	%rdx, %rdi
	cmpq	%r11, (%rdi)
	jg	.L263
.L262:
	subq	%rdx, %r10
	leaq	1(%rsi,%rsi), %r9
	movq	%r10, %rcx
	sarq	$4, %rcx
	cmpq	%rcx, %r9
	jnb	.L259
	movq	(%rax), %r11
	jmp	.L265
	.p2align 4,,10
	.p2align 3
.L330:
	leaq	16(%rdx,%rax), %rax
	movq	(%rax), %rbp
	cmpq	%r10, %rbp
	jg	.L289
	movq	%rbp, %r10
	movq	%rax, %r8
.L264:
	movq	%rsi, %rax
	salq	$4, %rax
	addq	%rdx, %rax
	cmpq	%r10, %r11
	jl	.L259
	movq	8(%rax), %r9
	movdqu	(%r8), %xmm1
	movups	%xmm1, (%rax)
	movq	%r9, 8(%r8)
	movq	8(%rax), %rax
	movq	%r11, (%r8)
	movq	%rsi, 16(%rax)
	movq	%rdi, 16(%r9)
	leaq	1(%rdi,%rdi), %r9
	cmpq	%rcx, %r9
	jnb	.L259
	movq	%rdi, %rsi
.L265:
	movq	%r9, %rax
	leaq	1(%r9), %rdi
	salq	$4, %rax
	leaq	(%rdx,%rax), %r8
	movq	(%r8), %r10
	cmpq	%rcx, %rdi
	jne	.L330
.L289:
	movq	%r9, %rdi
	jmp	.L264
	.p2align 4,,10
	.p2align 3
.L279:
	cmpb	$0, 176(%rbx)
	je	.L331
.L281:
	movq	56(%rsp), %rax
	subq	%fs:40, %rax
	jne	.L325
	movq	%rbp, %rdi
.L324:
	addq	$72, %rsp
	.cfi_remember_state
	.cfi_def_cfa_offset 56
	popq	%rbx
	.cfi_def_cfa_offset 48
	popq	%rbp
	.cfi_def_cfa_offset 40
	popq	%r12
	.cfi_def_cfa_offset 32
	popq	%r13
	.cfi_def_cfa_offset 24
	popq	%r14
	.cfi_def_cfa_offset 16
	popq	%r15
	.cfi_def_cfa_offset 8
	jmp	pthread_mutex_unlock@PLT
	.p2align 4,,10
	.p2align 3
.L326:
	.cfi_restore_state
	movq	16(%rsp), %rax
	cmpq	16(%rax), %rbx
	je	.L247
	movq	56(%rsp), %rax
	subq	%fs:40, %rax
	jne	.L325
	movq	%r14, %rdi
	jmp	.L324
	.p2align 4,,10
	.p2align 3
.L331:
	movq	144(%rbx), %rax
	testq	%rax, %rax
	je	.L281
	leaq	88(%rax), %rdx
	movb	$1, 176(%rbx)
	movl	96(%rax), %edi
	leaq	44(%rsp), %rcx
	movq	%rdx, 48(%rsp)
	movl	88(%rax), %edx
	movl	$3, %esi
	movl	$-2147483639, 44(%rsp)
	call	epoll_ctl@PLT
	jmp	.L281
.L275:
	movq	%rsi, 8(%rax)
	jmp	.L276
.L329:
	movq	%r10, 32(%rcx)
	.p2align 4,,10
	.p2align 3
.L259:
	movq	16(%rsp), %rsi
	movq	24(%rbx), %rax
	cmpq	16(%rsi), %rbx
	je	.L332
.L267:
	movq	32(%rbx), %rdx
	testq	%rdx, %rdx
	je	.L268
	movq	%rax, 24(%rdx)
	movq	24(%rbx), %rax
.L268:
	testq	%rax, %rax
	je	.L269
	movq	%rdx, 32(%rax)
.L269:
	pxor	%xmm0, %xmm0
	movq	%r15, %r13
	movups	%xmm0, 24(%rbx)
	jmp	.L257
	.p2align 4,,10
	.p2align 3
.L277:
	movq	(%rsp), %rax
	movq	%rax, 192(%rbx)
	jmp	.L278
.L333:
	movq	%rcx, %r9
.L263:
	movq	8(%rax), %rcx
	movdqu	(%rdi), %xmm2
	movups	%xmm2, (%rax)
	movq	%rcx, 8(%rdi)
	movq	8(%rax), %rax
	movq	%r11, (%rdi)
	movq	%rsi, 16(%rax)
	movq	%r9, 16(%rcx)
	testq	%r9, %r9
	je	.L259
	leaq	-1(%r9), %rcx
	movq	%r9, %rax
	movq	%r9, %rsi
	shrq	%rcx
	salq	$4, %rax
	movq	%rcx, %rdi
	addq	%rdx, %rax
	salq	$4, %rdi
	movq	(%rax), %r11
	addq	%rdx, %rdi
	cmpq	%r11, (%rdi)
	jg	.L333
	jmp	.L259
	.p2align 4,,10
	.p2align 3
.L332:
	movq	%rax, 16(%rsi)
	jmp	.L267
.L325:
	call	__stack_chk_fail@PLT
	.cfi_endproc
.LFE9650:
	.size	_ZN4asio6detail13epoll_reactor12cancel_timerINS0_18chrono_time_traitsINSt6chrono3_V212steady_clockENS_11wait_traitsIS6_EEEEEEmRNS0_11timer_queueIT_EERNSC_14per_timer_dataEm.constprop.0.isra.0, .-_ZN4asio6detail13epoll_reactor12cancel_timerINS0_18chrono_time_traitsINSt6chrono3_V212steady_clockENS_11wait_traitsIS6_EEEEEEmRNS0_11timer_queueIT_EERNSC_14per_timer_dataEm.constprop.0.isra.0
	.section	.text._ZNSt23_Sp_counted_ptr_inplaceIN7asiopal5TimerESaIS1_ELN9__gnu_cxx12_Lock_policyE2EE10_M_disposeEv,"axG",@progbits,_ZNSt23_Sp_counted_ptr_inplaceIN7asiopal5TimerESaIS1_ELN9__gnu_cxx12_Lock_policyE2EE10_M_disposeEv,comdat
	.align 2
	.p2align 4
	.weak	_ZNSt23_Sp_counted_ptr_inplaceIN7asiopal5TimerESaIS1_ELN9__gnu_cxx12_Lock_policyE2EE10_M_disposeEv
	.type	_ZNSt23_Sp_counted_ptr_inplaceIN7asiopal5TimerESaIS1_ELN9__gnu_cxx12_Lock_policyE2EE10_M_disposeEv, @function
_ZNSt23_Sp_counted_ptr_inplaceIN7asiopal5TimerESaIS1_ELN9__gnu_cxx12_Lock_policyE2EE10_M_disposeEv:
.LFB9545:
	.cfi_startproc
	.cfi_personality 0x9b,DW.ref.__gxx_personality_v0
	.cfi_lsda 0x1b,.LLSDA9545
	endbr64
	pushq	%r12
	.cfi_def_cfa_offset 16
	.cfi_offset 12, -16
	pushq	%rbp
	.cfi_def_cfa_offset 24
	.cfi_offset 6, -24
	pushq	%rbx
	.cfi_def_cfa_offset 32
	.cfi_offset 3, -32
	movq	%rdi, %rbx
	subq	$32, %rsp
	.cfi_def_cfa_offset 64
	movq	24(%rdi), %r12
	movq	%fs:40, %rax
	movq	%rax, 24(%rsp)
	movq	_ZTVN7asiopal5TimerE@GOTPCREL(%rip), %rax
	addq	$16, %rax
	movq	%rax, 16(%rdi)
	call	_ZNSt3_V215system_categoryEv@PLT
	cmpb	$0, 40(%rbx)
	movq	%rax, %rbp
	je	.L335
	movq	88(%r12), %rdi
	leaq	48(%rbx), %rdx
	leaq	40(%r12), %rsi
	call	_ZN4asio6detail13epoll_reactor12cancel_timerINS0_18chrono_time_traitsINSt6chrono3_V212steady_clockENS_11wait_traitsIS6_EEEEEEmRNS0_11timer_queueIT_EERNSC_14per_timer_dataEm.constprop.0.isra.0
	movb	$0, 40(%rbx)
.L335:
	movq	48(%rbx), %rsi
	testq	%rsi, %rsi
	je	.L334
	movq	%rsp, %r12
	jmp	.L339
	.p2align 4,,10
	.p2align 3
.L337:
	movq	$0, (%rsi)
	movq	8(%rsi), %rax
	xorl	%ecx, %ecx
	movq	%r12, %rdx
	movl	$0, (%rsp)
	xorl	%edi, %edi
	movq	%rbp, 8(%rsp)
	call	*%rax
	movq	48(%rbx), %rsi
	testq	%rsi, %rsi
	je	.L334
.L339:
	movq	(%rsi), %rax
	movq	%rax, 48(%rbx)
	testq	%rax, %rax
	jne	.L337
	movq	$0, 56(%rbx)
	jmp	.L337
	.p2align 4,,10
	.p2align 3
.L334:
	movq	24(%rsp), %rax
	subq	%fs:40, %rax
	jne	.L352
	addq	$32, %rsp
	.cfi_remember_state
	.cfi_def_cfa_offset 32
	popq	%rbx
	.cfi_def_cfa_offset 24
	popq	%rbp
	.cfi_def_cfa_offset 16
	popq	%r12
	.cfi_def_cfa_offset 8
	ret
.L352:
	.cfi_restore_state
	call	__stack_chk_fail@PLT
	.cfi_endproc
.LFE9545:
	.section	.gcc_except_table
.LLSDA9545:
	.byte	0xff
	.byte	0xff
	.byte	0x1
	.uleb128 .LLSDACSE9545-.LLSDACSB9545
.LLSDACSB9545:
.LLSDACSE9545:
	.section	.text._ZNSt23_Sp_counted_ptr_inplaceIN7asiopal5TimerESaIS1_ELN9__gnu_cxx12_Lock_policyE2EE10_M_disposeEv,"axG",@progbits,_ZNSt23_Sp_counted_ptr_inplaceIN7asiopal5TimerESaIS1_ELN9__gnu_cxx12_Lock_policyE2EE10_M_disposeEv,comdat
	.size	_ZNSt23_Sp_counted_ptr_inplaceIN7asiopal5TimerESaIS1_ELN9__gnu_cxx12_Lock_policyE2EE10_M_disposeEv, .-_ZNSt23_Sp_counted_ptr_inplaceIN7asiopal5TimerESaIS1_ELN9__gnu_cxx12_Lock_policyE2EE10_M_disposeEv
	.section	.rodata._ZNK4asio6detail15system_category7messageB5cxx11Ei.str1.8,"aMS",@progbits,1
	.align 8
.LC5:
	.string	"basic_string::_M_construct null not valid"
	.section	.text._ZNK4asio6detail15system_category7messageB5cxx11Ei,"axG",@progbits,_ZNK4asio6detail15system_category7messageB5cxx11Ei,comdat
	.align 2
	.p2align 4
	.weak	_ZNK4asio6detail15system_category7messageB5cxx11Ei
	.type	_ZNK4asio6detail15system_category7messageB5cxx11Ei, @function
_ZNK4asio6detail15system_category7messageB5cxx11Ei:
.LFB2389:
	.cfi_startproc
	endbr64
	pushq	%r14
	.cfi_def_cfa_offset 16
	.cfi_offset 14, -16
	pushq	%r13
	.cfi_def_cfa_offset 24
	.cfi_offset 13, -24
	pushq	%r12
	.cfi_def_cfa_offset 32
	.cfi_offset 12, -32
	movq	%rdi, %r12
	pushq	%rbp
	.cfi_def_cfa_offset 40
	.cfi_offset 6, -40
	leaq	16(%rdi), %rbp
	subq	$296, %rsp
	.cfi_def_cfa_offset 336
	movq	%fs:40, %rax
	movq	%rax, 280(%rsp)
	xorl	%eax, %eax
	cmpl	$125, %edx
	je	.L368
	pxor	%xmm0, %xmm0
	movl	%edx, %edi
	leaq	16(%rsp), %rsi
	movl	$256, %edx
	movaps	%xmm0, 16(%rsp)
	movaps	%xmm0, 32(%rsp)
	movaps	%xmm0, 48(%rsp)
	movaps	%xmm0, 64(%rsp)
	movaps	%xmm0, 80(%rsp)
	movaps	%xmm0, 96(%rsp)
	movaps	%xmm0, 112(%rsp)
	movaps	%xmm0, 128(%rsp)
	movaps	%xmm0, 144(%rsp)
	movaps	%xmm0, 160(%rsp)
	movaps	%xmm0, 176(%rsp)
	movaps	%xmm0, 192(%rsp)
	movaps	%xmm0, 208(%rsp)
	movaps	%xmm0, 224(%rsp)
	movaps	%xmm0, 240(%rsp)
	movaps	%xmm0, 256(%rsp)
	call	strerror_r@PLT
	movq	%rbp, (%r12)
	movq	%rax, %r13
	testq	%rax, %rax
	je	.L356
	movq	%rax, %rdi
	call	strlen@PLT
	movq	%rax, 8(%rsp)
	movq	%rax, %r14
	cmpq	$15, %rax
	ja	.L369
	cmpq	$1, %rax
	jne	.L360
	movzbl	0(%r13), %edx
	movb	%dl, 16(%r12)
.L361:
	movq	%rax, 8(%r12)
	movb	$0, 0(%rbp,%rax)
.L353:
	movq	280(%rsp), %rax
	subq	%fs:40, %rax
	jne	.L370
	addq	$296, %rsp
	.cfi_remember_state
	.cfi_def_cfa_offset 40
	movq	%r12, %rax
	popq	%rbp
	.cfi_def_cfa_offset 32
	popq	%r12
	.cfi_def_cfa_offset 24
	popq	%r13
	.cfi_def_cfa_offset 16
	popq	%r14
	.cfi_def_cfa_offset 8
	ret
	.p2align 4,,10
	.p2align 3
.L369:
	.cfi_restore_state
	leaq	8(%rsp), %rsi
	xorl	%edx, %edx
	movq	%r12, %rdi
	call	_ZNSt7__cxx1112basic_stringIcSt11char_traitsIcESaIcEE9_M_createERmm@PLT
	movq	%rax, (%r12)
	movq	%rax, %rbp
	movq	8(%rsp), %rax
	movq	%rax, 16(%r12)
.L359:
	movq	%rbp, %rdi
	movq	%r14, %rdx
	movq	%r13, %rsi
	call	memcpy@PLT
	movq	8(%rsp), %rax
	movq	(%r12), %rbp
	jmp	.L361
	.p2align 4,,10
	.p2align 3
.L368:
	movq	%rbp, (%rdi)
	xorl	%edx, %edx
	leaq	8(%rsp), %rsi
	movq	$18, 8(%rsp)
	call	_ZNSt7__cxx1112basic_stringIcSt11char_traitsIcESaIcEE9_M_createERmm@PLT
	movq	8(%rsp), %rdx
	movdqa	.LC6(%rip), %xmm0
	movq	%rax, (%r12)
	movq	%rdx, 16(%r12)
	movl	$11876, %edx
	movw	%dx, 16(%rax)
	movups	%xmm0, (%rax)
	movq	8(%rsp), %rax
	movq	(%r12), %rdx
	movq	%rax, 8(%r12)
	movb	$0, (%rdx,%rax)
	jmp	.L353
	.p2align 4,,10
	.p2align 3
.L360:
	testq	%rax, %rax
	je	.L361
	jmp	.L359
.L356:
	leaq	.LC5(%rip), %rdi
	call	_ZSt19__throw_logic_errorPKc@PLT
.L370:
	call	__stack_chk_fail@PLT
	.cfi_endproc
.LFE2389:
	.size	_ZNK4asio6detail15system_category7messageB5cxx11Ei, .-_ZNK4asio6detail15system_category7messageB5cxx11Ei
	.section	.text._ZNK4asio5error6detail17addrinfo_category7messageB5cxx11Ei,"axG",@progbits,_ZNK4asio5error6detail17addrinfo_category7messageB5cxx11Ei,comdat
	.align 2
	.p2align 4
	.weak	_ZNK4asio5error6detail17addrinfo_category7messageB5cxx11Ei
	.type	_ZNK4asio5error6detail17addrinfo_category7messageB5cxx11Ei, @function
_ZNK4asio5error6detail17addrinfo_category7messageB5cxx11Ei:
.LFB2435:
	.cfi_startproc
	endbr64
	pushq	%r12
	.cfi_def_cfa_offset 16
	.cfi_offset 12, -16
	movq	%rdi, %r12
	subq	$16, %rsp
	.cfi_def_cfa_offset 32
	movq	%fs:40, %rax
	movq	%rax, 8(%rsp)
	xorl	%eax, %eax
	leaq	16(%rdi), %rax
	movq	%rax, (%rdi)
	cmpl	$-8, %edx
	je	.L377
	cmpl	$-7, %edx
	je	.L378
	xorl	%edx, %edx
	movq	%rsp, %rsi
	movq	$19, (%rsp)
	call	_ZNSt7__cxx1112basic_stringIcSt11char_traitsIcESaIcEE9_M_createERmm@PLT
	movq	(%rsp), %rdx
	movdqa	.LC9(%rip), %xmm0
	movq	%rax, (%r12)
	movq	%rdx, 16(%r12)
	movl	$28530, %edx
	movw	%dx, 16(%rax)
	movb	$114, 18(%rax)
	movups	%xmm0, (%rax)
	movq	(%rsp), %rax
	movq	(%r12), %rdx
	movq	%rax, 8(%r12)
	movb	$0, (%rdx,%rax)
.L371:
	movq	8(%rsp), %rax
	subq	%fs:40, %rax
	jne	.L379
	addq	$16, %rsp
	.cfi_remember_state
	.cfi_def_cfa_offset 16
	movq	%r12, %rax
	popq	%r12
	.cfi_def_cfa_offset 8
	ret
	.p2align 4,,10
	.p2align 3
.L378:
	.cfi_restore_state
	xorl	%edx, %edx
	movq	%rsp, %rsi
	movq	$25, (%rsp)
	call	_ZNSt7__cxx1112basic_stringIcSt11char_traitsIcESaIcEE9_M_createERmm@PLT
	movq	(%rsp), %rdx
	movdqa	.LC8(%rip), %xmm0
	movabsq	$7310593918082512243, %rcx
	movq	%rax, (%r12)
	movq	%rdx, 16(%r12)
	movq	%rcx, 16(%rax)
	movb	$100, 24(%rax)
	movups	%xmm0, (%rax)
	movq	(%rsp), %rax
	movq	(%r12), %rdx
	movq	%rax, 8(%r12)
	movb	$0, (%rdx,%rax)
	jmp	.L371
	.p2align 4,,10
	.p2align 3
.L377:
	xorl	%edx, %edx
	movq	%rsp, %rsi
	movq	$17, (%rsp)
	call	_ZNSt7__cxx1112basic_stringIcSt11char_traitsIcESaIcEE9_M_createERmm@PLT
	movq	(%rsp), %rdx
	movdqa	.LC7(%rip), %xmm0
	movq	%rax, (%r12)
	movq	%rdx, 16(%r12)
	movb	$100, 16(%rax)
	movups	%xmm0, (%rax)
	movq	(%rsp), %rax
	movq	(%r12), %rdx
	movq	%rax, 8(%r12)
	movb	$0, (%rdx,%rax)
	jmp	.L371
.L379:
	call	__stack_chk_fail@PLT
	.cfi_endproc
.LFE2435:
	.size	_ZNK4asio5error6detail17addrinfo_category7messageB5cxx11Ei, .-_ZNK4asio5error6detail17addrinfo_category7messageB5cxx11Ei
	.section	.text.unlikely
	.align 2
	.type	_ZZN7asiopal8Executor4PostERKSt8functionIFvvEEENUlvE_D2Ev, @function
_ZZN7asiopal8Executor4PostERKSt8functionIFvvEEENUlvE_D2Ev:
.LFB7055:
	.cfi_startproc
	.cfi_personality 0x9b,DW.ref.__gxx_personality_v0
	.cfi_lsda 0x1b,.LLSDA7055
	pushq	%r12
	.cfi_def_cfa_offset 16
	.cfi_offset 12, -16
	movq	%rdi, %r12
	pushq	%rbp
	.cfi_def_cfa_offset 24
	.cfi_offset 6, -24
	pushq	%rbx
	.cfi_def_cfa_offset 32
	.cfi_offset 3, -32
	movq	40(%rdi), %rbp
	testq	%rbp, %rbp
	je	.L382
	movq	__libc_single_threaded@GOTPCREL(%rip), %rbx
	cmpb	$0, (%rbx)
	je	.L383
	movl	8(%rbp), %eax
	leal	-1(%rax), %edx
	movl	%edx, 8(%rbp)
	jmp	.L384
.L383:
	orl	$-1, %eax
	lock xaddl	%eax, 8(%rbp)
.L384:
	decl	%eax
	jne	.L382
	movq	0(%rbp), %rax
	movq	%rbp, %rdi
	call	*16(%rax)
	cmpb	$0, (%rbx)
	je	.L386
	movl	12(%rbp), %eax
	leal	-1(%rax), %edx
	movl	%edx, 12(%rbp)
	jmp	.L387
.L386:
	orl	$-1, %eax
	lock xaddl	%eax, 12(%rbp)
.L387:
	decl	%eax
	jne	.L382
	movq	0(%rbp), %rax
	movq	%rbp, %rdi
	call	*24(%rax)
.L382:
	movq	16(%r12), %rax
	testq	%rax, %rax
	je	.L380
	movl	$3, %edx
	movq	%r12, %rsi
	movq	%r12, %rdi
	call	*%rax
.L380:
	popq	%rbx
	.cfi_def_cfa_offset 24
	popq	%rbp
	.cfi_def_cfa_offset 16
	popq	%r12
	.cfi_def_cfa_offset 8
	ret
	.cfi_endproc
.LFE7055:
	.section	.gcc_except_table
.LLSDA7055:
	.byte	0xff
	.byte	0xff
	.byte	0x1
	.uleb128 .LLSDACSE7055-.LLSDACSB7055
.LLSDACSB7055:
.LLSDACSE7055:
	.section	.text.unlikely
	.size	_ZZN7asiopal8Executor4PostERKSt8functionIFvvEEENUlvE_D2Ev, .-_ZZN7asiopal8Executor4PostERKSt8functionIFvvEEENUlvE_D2Ev
	.set	_ZZN7asiopal8Executor4PostERKSt8functionIFvvEEENUlvE_D1Ev,_ZZN7asiopal8Executor4PostERKSt8functionIFvvEEENUlvE_D2Ev
	.section	.text._ZNK4asio5error6detail14netdb_category7messageB5cxx11Ei,"axG",@progbits,_ZNK4asio5error6detail14netdb_category7messageB5cxx11Ei,comdat
	.align 2
	.p2align 4
	.weak	_ZNK4asio5error6detail14netdb_category7messageB5cxx11Ei
	.type	_ZNK4asio5error6detail14netdb_category7messageB5cxx11Ei, @function
_ZNK4asio5error6detail14netdb_category7messageB5cxx11Ei:
.LFB2429:
	.cfi_startproc
	endbr64
	pushq	%r12
	.cfi_def_cfa_offset 16
	.cfi_offset 12, -16
	movq	%rdi, %r12
	subq	$16, %rsp
	.cfi_def_cfa_offset 32
	movq	%fs:40, %rax
	movq	%rax, 8(%rsp)
	xorl	%eax, %eax
	leaq	16(%rdi), %rax
	movq	%rax, (%rdi)
	cmpl	$1, %edx
	je	.L401
	cmpl	$2, %edx
	je	.L402
	cmpl	$4, %edx
	je	.L403
	cmpl	$3, %edx
	je	.L404
	xorl	%edx, %edx
	movq	%rsp, %rsi
	movq	$16, (%rsp)
	call	_ZNSt7__cxx1112basic_stringIcSt11char_traitsIcESaIcEE9_M_createERmm@PLT
	movq	(%rsp), %rdx
	movdqa	.LC19(%rip), %xmm0
	movq	%rax, (%r12)
	movq	%rdx, 16(%r12)
	movups	%xmm0, (%rax)
	movq	(%rsp), %rax
	movq	(%r12), %rdx
	movq	%rax, 8(%r12)
	movb	$0, (%rdx,%rax)
.L393:
	movq	8(%rsp), %rax
	subq	%fs:40, %rax
	jne	.L405
	addq	$16, %rsp
	.cfi_remember_state
	.cfi_def_cfa_offset 16
	movq	%r12, %rax
	popq	%r12
	.cfi_def_cfa_offset 8
	ret
	.p2align 4,,10
	.p2align 3
.L401:
	.cfi_restore_state
	movq	%rsp, %rsi
	xorl	%edx, %edx
	movq	$30, (%rsp)
	call	_ZNSt7__cxx1112basic_stringIcSt11char_traitsIcESaIcEE9_M_createERmm@PLT
	movq	(%rsp), %rdx
	movl	$10597, %esi
	movdqa	.LC10(%rip), %xmm0
	movabsq	$8388361603773658465, %rcx
	movq	%rax, (%r12)
	movq	%rdx, 16(%r12)
	movq	%rcx, 16(%rax)
	movl	$1986622561, 24(%rax)
	movw	%si, 28(%rax)
	movups	%xmm0, (%rax)
	movq	(%rsp), %rax
	movq	(%r12), %rdx
	movq	%rax, 8(%r12)
	movb	$0, (%rdx,%rax)
	jmp	.L393
	.p2align 4,,10
	.p2align 3
.L404:
	xorl	%edx, %edx
	movq	%rsp, %rsi
	movq	$55, (%rsp)
	call	_ZNSt7__cxx1112basic_stringIcSt11char_traitsIcESaIcEE9_M_createERmm@PLT
	movq	(%rsp), %rdx
	movdqa	.LC16(%rip), %xmm0
	movq	%rax, (%r12)
	movq	%rdx, 16(%r12)
	movl	$30059, %edx
	movups	%xmm0, (%rax)
	movdqa	.LC17(%rip), %xmm0
	movl	$1869573152, 48(%rax)
	movups	%xmm0, 16(%rax)
	movdqa	.LC18(%rip), %xmm0
	movw	%dx, 52(%rax)
	movb	$112, 54(%rax)
	movups	%xmm0, 32(%rax)
	movq	(%rsp), %rax
	movq	(%r12), %rdx
	movq	%rax, 8(%r12)
	movb	$0, (%rdx,%rax)
	jmp	.L393
	.p2align 4,,10
	.p2align 3
.L402:
	xorl	%edx, %edx
	movq	%rsp, %rsi
	movq	$51, (%rsp)
	call	_ZNSt7__cxx1112basic_stringIcSt11char_traitsIcESaIcEE9_M_createERmm@PLT
	movq	(%rsp), %rdx
	movl	$25972, %ecx
	movdqa	.LC10(%rip), %xmm0
	movq	%rax, (%r12)
	movq	%rdx, 16(%r12)
	movups	%xmm0, (%rax)
	movdqa	.LC11(%rip), %xmm0
	movw	%cx, 48(%rax)
	movups	%xmm0, 16(%rax)
	movdqa	.LC12(%rip), %xmm0
	movb	$114, 50(%rax)
	movups	%xmm0, 32(%rax)
	movq	(%rsp), %rax
	movq	(%r12), %rdx
	movq	%rax, 8(%r12)
	movb	$0, (%rdx,%rax)
	jmp	.L393
	.p2align 4,,10
	.p2align 3
.L403:
	xorl	%edx, %edx
	movq	%rsp, %rsi
	movq	$56, (%rsp)
	call	_ZNSt7__cxx1112basic_stringIcSt11char_traitsIcESaIcEE9_M_createERmm@PLT
	movq	(%rsp), %rdx
	movdqa	.LC13(%rip), %xmm0
	movabsq	$7022344801645520244, %rcx
	movq	%rax, (%r12)
	movq	%rdx, 16(%r12)
	movups	%xmm0, (%rax)
	movdqa	.LC14(%rip), %xmm0
	movq	%rcx, 48(%rax)
	movups	%xmm0, 16(%rax)
	movdqa	.LC15(%rip), %xmm0
	movups	%xmm0, 32(%rax)
	movq	(%rsp), %rax
	movq	(%r12), %rdx
	movq	%rax, 8(%r12)
	movb	$0, (%rdx,%rax)
	jmp	.L393
.L405:
	call	__stack_chk_fail@PLT
	.cfi_endproc
.LFE2429:
	.size	_ZNK4asio5error6detail14netdb_category7messageB5cxx11Ei, .-_ZNK4asio5error6detail14netdb_category7messageB5cxx11Ei
	.section	.text._ZN7asiopal8ExecutorD2Ev,"axG",@progbits,_ZN7asiopal8ExecutorD5Ev,comdat
	.align 2
	.p2align 4
	.weak	_ZN7asiopal8ExecutorD2Ev
	.type	_ZN7asiopal8ExecutorD2Ev, @function
_ZN7asiopal8ExecutorD2Ev:
.LFB9454:
	.cfi_startproc
	endbr64
	movq	_ZTVN7asiopal8ExecutorE@GOTPCREL(%rip), %rax
	pushq	%r12
	.cfi_def_cfa_offset 16
	.cfi_offset 12, -16
	pushq	%rbp
	.cfi_def_cfa_offset 24
	.cfi_offset 6, -24
	pushq	%rbx
	.cfi_def_cfa_offset 32
	.cfi_offset 3, -32
	movq	32(%rdi), %rbp
	addq	$16, %rax
	movq	%rdi, %rbx
	movq	%rax, (%rdi)
	testq	%rbp, %rbp
	je	.L408
	movq	__libc_single_threaded@GOTPCREL(%rip), %r12
	cmpb	$0, (%r12)
	je	.L409
	movl	8(%rbp), %eax
	leal	-1(%rax), %edx
	movl	%edx, 8(%rbp)
.L410:
	cmpl	$1, %eax
	je	.L420
.L408:
	movq	16(%rbx), %rdi
	testq	%rdi, %rdi
	je	.L406
	movq	__libc_single_threaded@GOTPCREL(%rip), %rax
	cmpb	$0, (%rax)
	je	.L416
	movl	12(%rdi), %eax
	leal	-1(%rax), %edx
	movl	%edx, 12(%rdi)
.L417:
	cmpl	$1, %eax
	je	.L421
.L406:
	popq	%rbx
	.cfi_remember_state
	.cfi_def_cfa_offset 24
	popq	%rbp
	.cfi_def_cfa_offset 16
	popq	%r12
	.cfi_def_cfa_offset 8
	ret
	.p2align 4,,10
	.p2align 3
.L420:
	.cfi_restore_state
	movq	0(%rbp), %rax
	movq	%rbp, %rdi
	call	*16(%rax)
	cmpb	$0, (%r12)
	je	.L412
	movl	12(%rbp), %eax
	leal	-1(%rax), %edx
	movl	%edx, 12(%rbp)
.L413:
	cmpl	$1, %eax
	jne	.L408
	movq	0(%rbp), %rax
	movq	%rbp, %rdi
	call	*24(%rax)
	jmp	.L408
	.p2align 4,,10
	.p2align 3
.L421:
	movq	(%rdi), %rax
	popq	%rbx
	.cfi_remember_state
	.cfi_def_cfa_offset 24
	popq	%rbp
	.cfi_def_cfa_offset 16
	popq	%r12
	.cfi_def_cfa_offset 8
	movq	24(%rax), %rax
	jmp	*%rax
	.p2align 4,,10
	.p2align 3
.L416:
	.cfi_restore_state
	movl	$-1, %eax
	lock xaddl	%eax, 12(%rdi)
	jmp	.L417
	.p2align 4,,10
	.p2align 3
.L409:
	movl	$-1, %eax
	lock xaddl	%eax, 8(%rbp)
	jmp	.L410
	.p2align 4,,10
	.p2align 3
.L412:
	movl	$-1, %eax
	lock xaddl	%eax, 12(%rbp)
	jmp	.L413
	.cfi_endproc
.LFE9454:
	.size	_ZN7asiopal8ExecutorD2Ev, .-_ZN7asiopal8ExecutorD2Ev
	.weak	_ZN7asiopal8ExecutorD1Ev
	.set	_ZN7asiopal8ExecutorD1Ev,_ZN7asiopal8ExecutorD2Ev
	.section	.text._ZN7asiopal8ExecutorD0Ev,"axG",@progbits,_ZN7asiopal8ExecutorD5Ev,comdat
	.align 2
	.p2align 4
	.weak	_ZN7asiopal8ExecutorD0Ev
	.type	_ZN7asiopal8ExecutorD0Ev, @function
_ZN7asiopal8ExecutorD0Ev:
.LFB9456:
	.cfi_startproc
	endbr64
	movq	_ZTVN7asiopal8ExecutorE@GOTPCREL(%rip), %rax
	pushq	%r12
	.cfi_def_cfa_offset 16
	.cfi_offset 12, -16
	pushq	%rbp
	.cfi_def_cfa_offset 24
	.cfi_offset 6, -24
	movq	%rdi, %rbp
	pushq	%rbx
	.cfi_def_cfa_offset 32
	.cfi_offset 3, -32
	movq	32(%rdi), %r12
	addq	$16, %rax
	movq	%rax, (%rdi)
	testq	%r12, %r12
	je	.L424
	movq	__libc_single_threaded@GOTPCREL(%rip), %rbx
	cmpb	$0, (%rbx)
	je	.L425
	movl	8(%r12), %eax
	leal	-1(%rax), %edx
	movl	%edx, 8(%r12)
.L426:
	cmpl	$1, %eax
	je	.L436
.L424:
	movq	16(%rbp), %rdi
	testq	%rdi, %rdi
	je	.L431
	movq	__libc_single_threaded@GOTPCREL(%rip), %rax
	cmpb	$0, (%rax)
	je	.L432
	movl	12(%rdi), %eax
	leal	-1(%rax), %edx
	movl	%edx, 12(%rdi)
.L433:
	cmpl	$1, %eax
	je	.L437
.L431:
	popq	%rbx
	.cfi_remember_state
	.cfi_def_cfa_offset 24
	movq	%rbp, %rdi
	movl	$56, %esi
	popq	%rbp
	.cfi_def_cfa_offset 16
	popq	%r12
	.cfi_def_cfa_offset 8
	jmp	_ZdlPvm@PLT
	.p2align 4,,10
	.p2align 3
.L436:
	.cfi_restore_state
	movq	(%r12), %rax
	movq	%r12, %rdi
	call	*16(%rax)
	cmpb	$0, (%rbx)
	je	.L428
	movl	12(%r12), %eax
	leal	-1(%rax), %edx
	movl	%edx, 12(%r12)
.L429:
	cmpl	$1, %eax
	jne	.L424
	movq	(%r12), %rax
	movq	%r12, %rdi
	call	*24(%rax)
	jmp	.L424
	.p2align 4,,10
	.p2align 3
.L437:
	movq	(%rdi), %rax
	call	*24(%rax)
	jmp	.L431
	.p2align 4,,10
	.p2align 3
.L432:
	movl	$-1, %eax
	lock xaddl	%eax, 12(%rdi)
	jmp	.L433
	.p2align 4,,10
	.p2align 3
.L425:
	movl	$-1, %eax
	lock xaddl	%eax, 8(%r12)
	jmp	.L426
	.p2align 4,,10
	.p2align 3
.L428:
	movl	$-1, %eax
	lock xaddl	%eax, 12(%r12)
	jmp	.L429
	.cfi_endproc
.LFE9456:
	.size	_ZN7asiopal8ExecutorD0Ev, .-_ZN7asiopal8ExecutorD0Ev
	.section	.text._ZNK4asio5error6detail13misc_category7messageB5cxx11Ei,"axG",@progbits,_ZNK4asio5error6detail13misc_category7messageB5cxx11Ei,comdat
	.align 2
	.p2align 4
	.weak	_ZNK4asio5error6detail13misc_category7messageB5cxx11Ei
	.type	_ZNK4asio5error6detail13misc_category7messageB5cxx11Ei, @function
_ZNK4asio5error6detail13misc_category7messageB5cxx11Ei:
.LFB2441:
	.cfi_startproc
	endbr64
	pushq	%r12
	.cfi_def_cfa_offset 16
	.cfi_offset 12, -16
	movq	%rdi, %r12
	subq	$16, %rsp
	.cfi_def_cfa_offset 32
	movq	%fs:40, %rax
	movq	%rax, 8(%rsp)
	xorl	%eax, %eax
	leaq	16(%rdi), %rax
	movq	%rax, (%rdi)
	cmpl	$1, %edx
	je	.L446
	cmpl	$2, %edx
	je	.L447
	cmpl	$3, %edx
	je	.L448
	cmpl	$4, %edx
	je	.L449
	movabsq	$8316298233121436513, %rcx
	movl	$28530, %edx
	movq	%rcx, 16(%rdi)
	movl	$1919230051, 8(%rax)
	movw	%dx, 12(%rax)
	movb	$114, 14(%rax)
	movq	$15, 8(%rdi)
	movb	$0, 31(%rdi)
.L438:
	movq	8(%rsp), %rax
	subq	%fs:40, %rax
	jne	.L450
	addq	$16, %rsp
	.cfi_remember_state
	.cfi_def_cfa_offset 16
	movq	%r12, %rax
	popq	%r12
	.cfi_def_cfa_offset 8
	ret
	.p2align 4,,10
	.p2align 3
.L446:
	.cfi_restore_state
	movabsq	$2340011850872286273, %rcx
	movq	%rcx, 16(%rdi)
	movl	$1852141679, 8(%rax)
	movq	$12, 8(%rdi)
	movb	$0, 28(%rdi)
	jmp	.L438
	.p2align 4,,10
	.p2align 3
.L449:
	movq	%rsp, %rsi
	xorl	%edx, %edx
	movq	$57, (%rsp)
	call	_ZNSt7__cxx1112basic_stringIcSt11char_traitsIcESaIcEE9_M_createERmm@PLT
	movq	(%rsp), %rdx
	movdqa	.LC21(%rip), %xmm0
	movabsq	$7310291504967217959, %rsi
	movq	%rax, (%r12)
	movq	%rdx, 16(%r12)
	movups	%xmm0, (%rax)
	movdqa	.LC22(%rip), %xmm0
	movq	%rsi, 48(%rax)
	movups	%xmm0, 16(%rax)
	movdqa	.LC23(%rip), %xmm0
	movb	$116, 56(%rax)
	movups	%xmm0, 32(%rax)
	movq	(%rsp), %rax
	movq	(%r12), %rdx
	movq	%rax, 8(%r12)
	movb	$0, (%rdx,%rax)
	jmp	.L438
	.p2align 4,,10
	.p2align 3
.L447:
	movabsq	$7358994418594246213, %rcx
	movq	%rcx, 16(%rdi)
	movl	$27753, %ecx
	movw	%cx, 8(%rax)
	movb	$101, 10(%rax)
	movq	$11, 8(%rdi)
	movb	$0, 27(%rdi)
	jmp	.L438
	.p2align 4,,10
	.p2align 3
.L448:
	xorl	%edx, %edx
	movq	%rsp, %rsi
	movq	$17, (%rsp)
	call	_ZNSt7__cxx1112basic_stringIcSt11char_traitsIcESaIcEE9_M_createERmm@PLT
	movq	(%rsp), %rdx
	movdqa	.LC20(%rip), %xmm0
	movq	%rax, (%r12)
	movq	%rdx, 16(%r12)
	movb	$100, 16(%rax)
	movups	%xmm0, (%rax)
	movq	(%rsp), %rax
	movq	(%r12), %rdx
	movq	%rax, 8(%r12)
	movb	$0, (%rdx,%rax)
	jmp	.L438
.L450:
	call	__stack_chk_fail@PLT
	.cfi_endproc
.LFE2441:
	.size	_ZNK4asio5error6detail13misc_category7messageB5cxx11Ei, .-_ZNK4asio5error6detail13misc_category7messageB5cxx11Ei
	.section	.text.unlikely
	.align 2
	.type	_ZZN7asiopal8Executor5StartERKNSt6chrono10time_pointINS1_3_V212steady_clockENS1_8durationIlSt5ratioILl1ELl1000000000EEEEEERKSt8functionIFvvEEENUlRKSt10error_codeE_D2Ev, @function
_ZZN7asiopal8Executor5StartERKNSt6chrono10time_pointINS1_3_V212steady_clockENS1_8durationIlSt5ratioILl1ELl1000000000EEEEEERKSt8functionIFvvEEENUlRKSt10error_codeE_D2Ev:
.LFB7035:
	.cfi_startproc
	.cfi_personality 0x9b,DW.ref.__gxx_personality_v0
	.cfi_lsda 0x1b,.LLSDA7035
	pushq	%r12
	.cfi_def_cfa_offset 16
	.cfi_offset 12, -16
	pushq	%rbp
	.cfi_def_cfa_offset 24
	.cfi_offset 6, -24
	pushq	%rbx
	.cfi_def_cfa_offset 32
	.cfi_offset 3, -32
	movq	56(%rdi), %rbp
	movq	%rdi, %rbx
	testq	%rbp, %rbp
	je	.L453
	movq	__libc_single_threaded@GOTPCREL(%rip), %r12
	cmpb	$0, (%r12)
	je	.L454
	movl	8(%rbp), %eax
	leal	-1(%rax), %edx
	movl	%edx, 8(%rbp)
	jmp	.L455
.L454:
	orl	$-1, %eax
	lock xaddl	%eax, 8(%rbp)
.L455:
	decl	%eax
	jne	.L453
	movq	0(%rbp), %rax
	movq	%rbp, %rdi
	call	*16(%rax)
	cmpb	$0, (%r12)
	je	.L457
	movl	12(%rbp), %eax
	leal	-1(%rax), %edx
	movl	%edx, 12(%rbp)
	jmp	.L458
.L457:
	orl	$-1, %eax
	lock xaddl	%eax, 12(%rbp)
.L458:
	decl	%eax
	jne	.L453
	movq	0(%rbp), %rax
	movq	%rbp, %rdi
	call	*24(%rax)
.L453:
	movq	32(%rbx), %rax
	testq	%rax, %rax
	je	.L459
	leaq	16(%rbx), %rdi
	movl	$3, %edx
	movq	%rdi, %rsi
	call	*%rax
.L459:
	movq	8(%rbx), %rbp
	testq	%rbp, %rbp
	je	.L451
	movq	__libc_single_threaded@GOTPCREL(%rip), %rbx
	cmpb	$0, (%rbx)
	je	.L462
	movl	8(%rbp), %eax
	leal	-1(%rax), %edx
	movl	%edx, 8(%rbp)
	jmp	.L463
.L462:
	orl	$-1, %eax
	lock xaddl	%eax, 8(%rbp)
.L463:
	decl	%eax
	jne	.L451
	movq	0(%rbp), %rax
	movq	%rbp, %rdi
	call	*16(%rax)
	cmpb	$0, (%rbx)
	je	.L465
	movl	12(%rbp), %eax
	leal	-1(%rax), %edx
	movl	%edx, 12(%rbp)
	jmp	.L466
.L465:
	orl	$-1, %eax
	lock xaddl	%eax, 12(%rbp)
.L466:
	decl	%eax
	jne	.L451
	movq	0(%rbp), %rax
	popq	%rbx
	.cfi_remember_state
	.cfi_def_cfa_offset 24
	movq	%rbp, %rdi
	popq	%rbp
	.cfi_def_cfa_offset 16
	popq	%r12
	.cfi_def_cfa_offset 8
	movq	24(%rax), %rax
	jmp	*%rax
.L451:
	.cfi_restore_state
	popq	%rbx
	.cfi_def_cfa_offset 24
	popq	%rbp
	.cfi_def_cfa_offset 16
	popq	%r12
	.cfi_def_cfa_offset 8
	ret
	.cfi_endproc
.LFE7035:
	.section	.gcc_except_table
.LLSDA7035:
	.byte	0xff
	.byte	0xff
	.byte	0x1
	.uleb128 .LLSDACSE7035-.LLSDACSB7035
.LLSDACSB7035:
.LLSDACSE7035:
	.section	.text.unlikely
	.size	_ZZN7asiopal8Executor5StartERKNSt6chrono10time_pointINS1_3_V212steady_clockENS1_8durationIlSt5ratioILl1ELl1000000000EEEEEERKSt8functionIFvvEEENUlRKSt10error_codeE_D2Ev, .-_ZZN7asiopal8Executor5StartERKNSt6chrono10time_pointINS1_3_V212steady_clockENS1_8durationIlSt5ratioILl1ELl1000000000EEEEEERKSt8functionIFvvEEENUlRKSt10error_codeE_D2Ev
	.set	_ZZN7asiopal8Executor5StartERKNSt6chrono10time_pointINS1_3_V212steady_clockENS1_8durationIlSt5ratioILl1ELl1000000000EEEEEERKSt8functionIFvvEEENUlRKSt10error_codeE_D1Ev,_ZZN7asiopal8Executor5StartERKNSt6chrono10time_pointINS1_3_V212steady_clockENS1_8durationIlSt5ratioILl1ELl1000000000EEEEEERKSt8functionIFvvEEENUlRKSt10error_codeE_D2Ev
	.align 2
	.type	_ZN4asio6detail18completion_handlerIZN7asiopal8Executor4PostERKSt8functionIFvvEEEUlvE_E3ptr5resetEv, @function
_ZN4asio6detail18completion_handlerIZN7asiopal8Executor4PostERKSt8functionIFvvEEEUlvE_E3ptr5resetEv:
.LFB8738:
	.cfi_startproc
	.cfi_personality 0x9b,DW.ref.__gxx_personality_v0
	.cfi_lsda 0x1b,.LLSDA8738
	pushq	%r13
	.cfi_def_cfa_offset 16
	.cfi_offset 13, -16
	pushq	%r12
	.cfi_def_cfa_offset 24
	.cfi_offset 12, -24
	movq	%rdi, %r12
	pushq	%rbp
	.cfi_def_cfa_offset 32
	.cfi_offset 6, -32
	pushq	%rbx
	.cfi_def_cfa_offset 40
	.cfi_offset 3, -40
	pushq	%rdx
	.cfi_def_cfa_offset 48
	movq	16(%rdi), %rbx
	testq	%rbx, %rbx
	je	.L472
	movq	64(%rbx), %rbp
	testq	%rbp, %rbp
	je	.L474
	movq	__libc_single_threaded@GOTPCREL(%rip), %r13
	cmpb	$0, 0(%r13)
	je	.L475
	movl	8(%rbp), %eax
	leal	-1(%rax), %edx
	movl	%edx, 8(%rbp)
	jmp	.L476
.L475:
	orl	$-1, %eax
	lock xaddl	%eax, 8(%rbp)
.L476:
	decl	%eax
	jne	.L474
	movq	0(%rbp), %rax
	movq	%rbp, %rdi
	call	*16(%rax)
	cmpb	$0, 0(%r13)
	je	.L478
	movl	12(%rbp), %eax
	leal	-1(%rax), %edx
	movl	%edx, 12(%rbp)
	jmp	.L479
.L478:
	orl	$-1, %eax
	lock xaddl	%eax, 12(%rbp)
.L479:
	decl	%eax
	jne	.L474
	movq	0(%rbp), %rax
	movq	%rbp, %rdi
	call	*24(%rax)
.L474:
	movq	40(%rbx), %rax
	testq	%rax, %rax
	je	.L480
	leaq	24(%rbx), %rdi
	movl	$3, %edx
	movq	%rdi, %rsi
	call	*%rax
.L480:
	movq	$0, 16(%r12)
.L472:
	movq	8(%r12), %rbp
	testq	%rbp, %rbp
	je	.L471
	data16	leaq	_ZN4asio6detail15keyword_tss_ptrINS0_10call_stackINS0_15task_io_serviceENS0_27task_io_service_thread_infoEE7contextEE6value_E@tlsgd(%rip), %rdi
	.value	0x6666
	rex64
	call	__tls_get_addr@PLT
	movq	(%rax), %rax
	testq	%rax, %rax
	je	.L482
	movq	8(%rax), %rax
	testq	%rax, %rax
	je	.L482
	cmpq	$0, (%rax)
	jne	.L482
	movb	72(%rbp), %dl
	movb	%dl, 0(%rbp)
	movq	%rbp, (%rax)
	jmp	.L483
.L482:
	movq	%rbp, %rdi
	call	_ZdlPv@PLT
.L483:
	movq	$0, 8(%r12)
.L471:
	popq	%rax
	.cfi_def_cfa_offset 40
	popq	%rbx
	.cfi_def_cfa_offset 32
	popq	%rbp
	.cfi_def_cfa_offset 24
	popq	%r12
	.cfi_def_cfa_offset 16
	popq	%r13
	.cfi_def_cfa_offset 8
	ret
	.cfi_endproc
.LFE8738:
	.section	.gcc_except_table
.LLSDA8738:
	.byte	0xff
	.byte	0xff
	.byte	0x1
	.uleb128 .LLSDACSE8738-.LLSDACSB8738
.LLSDACSB8738:
.LLSDACSE8738:
	.section	.text.unlikely
	.size	_ZN4asio6detail18completion_handlerIZN7asiopal8Executor4PostERKSt8functionIFvvEEEUlvE_E3ptr5resetEv, .-_ZN4asio6detail18completion_handlerIZN7asiopal8Executor4PostERKSt8functionIFvvEEEUlvE_E3ptr5resetEv
	.align 2
	.type	_ZN4asio6detail18completion_handlerINS0_7binder1IZN7asiopal8Executor5StartERKNSt6chrono10time_pointINS5_3_V212steady_clockENS5_8durationIlSt5ratioILl1ELl1000000000EEEEEERKSt8functionIFvvEEEUlRKSt10error_codeE_SL_EEE3ptr5resetEv, @function
_ZN4asio6detail18completion_handlerINS0_7binder1IZN7asiopal8Executor5StartERKNSt6chrono10time_pointINS5_3_V212steady_clockENS5_8durationIlSt5ratioILl1ELl1000000000EEEEEERKSt8functionIFvvEEEUlRKSt10error_codeE_SL_EEE3ptr5resetEv:
.LFB9440:
	.cfi_startproc
	.cfi_personality 0x9b,DW.ref.__gxx_personality_v0
	.cfi_lsda 0x1b,.LLSDA9440
	pushq	%r13
	.cfi_def_cfa_offset 16
	.cfi_offset 13, -16
	pushq	%r12
	.cfi_def_cfa_offset 24
	.cfi_offset 12, -24
	pushq	%rbp
	.cfi_def_cfa_offset 32
	.cfi_offset 6, -32
	pushq	%rbx
	.cfi_def_cfa_offset 40
	.cfi_offset 3, -40
	movq	%rdi, %rbx
	pushq	%rdx
	.cfi_def_cfa_offset 48
	movq	16(%rdi), %r12
	testq	%r12, %r12
	je	.L501
	movq	80(%r12), %rbp
	testq	%rbp, %rbp
	je	.L503
	movq	__libc_single_threaded@GOTPCREL(%rip), %r13
	cmpb	$0, 0(%r13)
	je	.L504
	movl	8(%rbp), %eax
	leal	-1(%rax), %edx
	movl	%edx, 8(%rbp)
	jmp	.L505
.L504:
	orl	$-1, %eax
	lock xaddl	%eax, 8(%rbp)
.L505:
	decl	%eax
	jne	.L503
	movq	0(%rbp), %rax
	movq	%rbp, %rdi
	call	*16(%rax)
	cmpb	$0, 0(%r13)
	je	.L507
	movl	12(%rbp), %eax
	leal	-1(%rax), %edx
	movl	%edx, 12(%rbp)
	jmp	.L508
.L507:
	orl	$-1, %eax
	lock xaddl	%eax, 12(%rbp)
.L508:
	decl	%eax
	jne	.L503
	movq	0(%rbp), %rax
	movq	%rbp, %rdi
	call	*24(%rax)
.L503:
	movq	56(%r12), %rax
	testq	%rax, %rax
	je	.L509
	leaq	40(%r12), %rdi
	movl	$3, %edx
	movq	%rdi, %rsi
	call	*%rax
.L509:
	movq	32(%r12), %rbp
	testq	%rbp, %rbp
	je	.L511
	movq	__libc_single_threaded@GOTPCREL(%rip), %r12
	cmpb	$0, (%r12)
	je	.L512
	movl	8(%rbp), %eax
	leal	-1(%rax), %edx
	movl	%edx, 8(%rbp)
	jmp	.L513
.L512:
	orl	$-1, %eax
	lock xaddl	%eax, 8(%rbp)
.L513:
	decl	%eax
	jne	.L511
	movq	0(%rbp), %rax
	movq	%rbp, %rdi
	call	*16(%rax)
	cmpb	$0, (%r12)
	je	.L515
	movl	12(%rbp), %eax
	leal	-1(%rax), %edx
	movl	%edx, 12(%rbp)
	jmp	.L516
.L515:
	orl	$-1, %eax
	lock xaddl	%eax, 12(%rbp)
.L516:
	decl	%eax
	jne	.L511
	movq	0(%rbp), %rax
	movq	%rbp, %rdi
	call	*24(%rax)
.L511:
	movq	$0, 16(%rbx)
.L501:
	movq	8(%rbx), %rbp
	testq	%rbp, %rbp
	je	.L500
	data16	leaq	_ZN4asio6detail15keyword_tss_ptrINS0_10call_stackINS0_15task_io_serviceENS0_27task_io_service_thread_infoEE7contextEE6value_E@tlsgd(%rip), %rdi
	.value	0x6666
	rex64
	call	__tls_get_addr@PLT
	movq	(%rax), %rax
	testq	%rax, %rax
	je	.L518
	movq	8(%rax), %rax
	testq	%rax, %rax
	je	.L518
	cmpq	$0, (%rax)
	jne	.L518
	movb	104(%rbp), %dl
	movb	%dl, 0(%rbp)
	movq	%rbp, (%rax)
	jmp	.L519
.L518:
	movq	%rbp, %rdi
	call	_ZdlPv@PLT
.L519:
	movq	$0, 8(%rbx)
.L500:
	popq	%rax
	.cfi_def_cfa_offset 40
	popq	%rbx
	.cfi_def_cfa_offset 32
	popq	%rbp
	.cfi_def_cfa_offset 24
	popq	%r12
	.cfi_def_cfa_offset 16
	popq	%r13
	.cfi_def_cfa_offset 8
	ret
	.cfi_endproc
.LFE9440:
	.section	.gcc_except_table
.LLSDA9440:
	.byte	0xff
	.byte	0xff
	.byte	0x1
	.uleb128 .LLSDACSE9440-.LLSDACSB9440
.LLSDACSB9440:
.LLSDACSE9440:
	.section	.text.unlikely
	.size	_ZN4asio6detail18completion_handlerINS0_7binder1IZN7asiopal8Executor5StartERKNSt6chrono10time_pointINS5_3_V212steady_clockENS5_8durationIlSt5ratioILl1ELl1000000000EEEEEERKSt8functionIFvvEEEUlRKSt10error_codeE_SL_EEE3ptr5resetEv, .-_ZN4asio6detail18completion_handlerINS0_7binder1IZN7asiopal8Executor5StartERKNSt6chrono10time_pointINS5_3_V212steady_clockENS5_8durationIlSt5ratioILl1ELl1000000000EEEEEERKSt8functionIFvvEEEUlRKSt10error_codeE_SL_EEE3ptr5resetEv
	.align 2
	.type	_ZN4asio6detail12wait_handlerINS0_15wrapped_handlerINS_10io_service6strandEZN7asiopal8Executor5StartERKNSt6chrono10time_pointINS7_3_V212steady_clockENS7_8durationIlSt5ratioILl1ELl1000000000EEEEEERKSt8functionIFvvEEEUlRKSt10error_codeE_NS0_26is_continuation_if_runningEEEE3ptr5resetEv, @function
_ZN4asio6detail12wait_handlerINS0_15wrapped_handlerINS_10io_service6strandEZN7asiopal8Executor5StartERKNSt6chrono10time_pointINS7_3_V212steady_clockENS7_8durationIlSt5ratioILl1ELl1000000000EEEEEERKSt8functionIFvvEEEUlRKSt10error_codeE_NS0_26is_continuation_if_runningEEEE3ptr5resetEv:
.LFB8876:
	.cfi_startproc
	.cfi_personality 0x9b,DW.ref.__gxx_personality_v0
	.cfi_lsda 0x1b,.LLSDA8876
	pushq	%r13
	.cfi_def_cfa_offset 16
	.cfi_offset 13, -16
	pushq	%r12
	.cfi_def_cfa_offset 24
	.cfi_offset 12, -24
	pushq	%rbp
	.cfi_def_cfa_offset 32
	.cfi_offset 6, -32
	pushq	%rbx
	.cfi_def_cfa_offset 40
	.cfi_offset 3, -40
	movq	%rdi, %rbx
	pushq	%rdx
	.cfi_def_cfa_offset 48
	movq	16(%rdi), %r12
	testq	%r12, %r12
	je	.L537
	movq	112(%r12), %rbp
	testq	%rbp, %rbp
	je	.L539
	movq	__libc_single_threaded@GOTPCREL(%rip), %r13
	cmpb	$0, 0(%r13)
	je	.L540
	movl	8(%rbp), %eax
	leal	-1(%rax), %edx
	movl	%edx, 8(%rbp)
	jmp	.L541
.L540:
	orl	$-1, %eax
	lock xaddl	%eax, 8(%rbp)
.L541:
	decl	%eax
	jne	.L539
	movq	0(%rbp), %rax
	movq	%rbp, %rdi
	call	*16(%rax)
	cmpb	$0, 0(%r13)
	je	.L543
	movl	12(%rbp), %eax
	leal	-1(%rax), %edx
	movl	%edx, 12(%rbp)
	jmp	.L544
.L543:
	orl	$-1, %eax
	lock xaddl	%eax, 12(%rbp)
.L544:
	decl	%eax
	jne	.L539
	movq	0(%rbp), %rax
	movq	%rbp, %rdi
	call	*24(%rax)
.L539:
	movq	88(%r12), %rax
	testq	%rax, %rax
	je	.L545
	leaq	72(%r12), %rdi
	movl	$3, %edx
	movq	%rdi, %rsi
	call	*%rax
.L545:
	movq	64(%r12), %rbp
	testq	%rbp, %rbp
	je	.L547
	movq	__libc_single_threaded@GOTPCREL(%rip), %r12
	cmpb	$0, (%r12)
	je	.L548
	movl	8(%rbp), %eax
	leal	-1(%rax), %edx
	movl	%edx, 8(%rbp)
	jmp	.L549
.L548:
	orl	$-1, %eax
	lock xaddl	%eax, 8(%rbp)
.L549:
	decl	%eax
	jne	.L547
	movq	0(%rbp), %rax
	movq	%rbp, %rdi
	call	*16(%rax)
	cmpb	$0, (%r12)
	je	.L551
	movl	12(%rbp), %eax
	leal	-1(%rax), %edx
	movl	%edx, 12(%rbp)
	jmp	.L552
.L551:
	orl	$-1, %eax
	lock xaddl	%eax, 12(%rbp)
.L552:
	decl	%eax
	jne	.L547
	movq	0(%rbp), %rax
	movq	%rbp, %rdi
	call	*24(%rax)
.L547:
	movq	$0, 16(%rbx)
.L537:
	movq	8(%rbx), %rbp
	testq	%rbp, %rbp
	je	.L536
	data16	leaq	_ZN4asio6detail15keyword_tss_ptrINS0_10call_stackINS0_15task_io_serviceENS0_27task_io_service_thread_infoEE7contextEE6value_E@tlsgd(%rip), %rdi
	.value	0x6666
	rex64
	call	__tls_get_addr@PLT
	movq	(%rax), %rax
	testq	%rax, %rax
	je	.L554
	movq	8(%rax), %rax
	testq	%rax, %rax
	je	.L554
	cmpq	$0, (%rax)
	jne	.L554
	movb	120(%rbp), %dl
	movb	%dl, 0(%rbp)
	movq	%rbp, (%rax)
	jmp	.L555
.L554:
	movq	%rbp, %rdi
	call	_ZdlPv@PLT
.L555:
	movq	$0, 8(%rbx)
.L536:
	popq	%rax
	.cfi_def_cfa_offset 40
	popq	%rbx
	.cfi_def_cfa_offset 32
	popq	%rbp
	.cfi_def_cfa_offset 24
	popq	%r12
	.cfi_def_cfa_offset 16
	popq	%r13
	.cfi_def_cfa_offset 8
	ret
	.cfi_endproc
.LFE8876:
	.section	.gcc_except_table
.LLSDA8876:
	.byte	0xff
	.byte	0xff
	.byte	0x1
	.uleb128 .LLSDACSE8876-.LLSDACSB8876
.LLSDACSB8876:
.LLSDACSE8876:
	.section	.text.unlikely
	.size	_ZN4asio6detail12wait_handlerINS0_15wrapped_handlerINS_10io_service6strandEZN7asiopal8Executor5StartERKNSt6chrono10time_pointINS7_3_V212steady_clockENS7_8durationIlSt5ratioILl1ELl1000000000EEEEEERKSt8functionIFvvEEEUlRKSt10error_codeE_NS0_26is_continuation_if_runningEEEE3ptr5resetEv, .-_ZN4asio6detail12wait_handlerINS0_15wrapped_handlerINS_10io_service6strandEZN7asiopal8Executor5StartERKNSt6chrono10time_pointINS7_3_V212steady_clockENS7_8durationIlSt5ratioILl1ELl1000000000EEEEEERKSt8functionIFvvEEEUlRKSt10error_codeE_NS0_26is_continuation_if_runningEEEE3ptr5resetEv
.LCOLDB24:
	.text
.LHOTB24:
	.p2align 4
	.type	_ZN4asio6detail18completion_handlerIZN7asiopal8Executor4PostERKSt8functionIFvvEEEUlvE_E11do_completeEPNS0_15task_io_serviceEPNS0_25task_io_service_operationERKSt10error_codem, @function
_ZN4asio6detail18completion_handlerIZN7asiopal8Executor4PostERKSt8functionIFvvEEEUlvE_E11do_completeEPNS0_15task_io_serviceEPNS0_25task_io_service_operationERKSt10error_codem:
.LFB8742:
	.cfi_startproc
	.cfi_personality 0x9b,DW.ref.__gxx_personality_v0
	.cfi_lsda 0x1b,.LLSDA8742
	endbr64
	pushq	%r13
	.cfi_def_cfa_offset 16
	.cfi_offset 13, -16
	leaq	24(%rsi), %r13
	movq	%rsi, %xmm1
	pushq	%r12
	.cfi_def_cfa_offset 24
	.cfi_offset 12, -24
	movq	%r13, %xmm0
	pushq	%rbp
	.cfi_def_cfa_offset 32
	.cfi_offset 6, -32
	punpcklqdq	%xmm1, %xmm0
	movq	%rsi, %rbp
	pushq	%rbx
	.cfi_def_cfa_offset 40
	.cfi_offset 3, -40
	movq	%rdi, %rbx
	subq	$104, %rsp
	.cfi_def_cfa_offset 144
	movq	%fs:40, %rax
	movq	%rax, 88(%rsp)
	xorl	%eax, %eax
	movq	40(%rsi), %rax
	movaps	%xmm0, (%rsp)
	pxor	%xmm0, %xmm0
	movq	%rsi, 16(%rsp)
	movq	$0, 48(%rsp)
	movq	$0, 56(%rsp)
	movaps	%xmm0, 32(%rsp)
	testq	%rax, %rax
	je	.L573
	leaq	32(%rsp), %r12
	movl	$2, %edx
	movq	%r13, %rsi
	movq	%r12, %rdi
.LEHB10:
	call	*%rax
.LEHE10:
	movdqu	40(%rbp), %xmm2
	movdqu	56(%rbp), %xmm3
	movq	%r12, (%rsp)
	movq	40(%rbp), %rax
	movaps	%xmm2, 48(%rsp)
	movaps	%xmm3, 64(%rsp)
	testq	%rax, %rax
	je	.L575
	movl	$3, %edx
	movq	%r13, %rsi
	movq	%r13, %rdi
	call	*%rax
.L575:
	movq	$0, 16(%rsp)
	data16	leaq	_ZN4asio6detail15keyword_tss_ptrINS0_10call_stackINS0_15task_io_serviceENS0_27task_io_service_thread_infoEE7contextEE6value_E@tlsgd(%rip), %rdi
	.value	0x6666
	rex64
	call	__tls_get_addr@PLT
	movq	(%rax), %rax
	testq	%rax, %rax
	je	.L579
	movq	8(%rax), %rax
	testq	%rax, %rax
	je	.L579
	cmpq	$0, (%rax)
	je	.L642
.L579:
	movq	%rbp, %rdi
	call	_ZdlPv@PLT
.L580:
	movq	$0, 8(%rsp)
	testq	%rbx, %rbx
	je	.L581
	cmpq	$0, 48(%rsp)
	je	.L643
	movq	%r12, %rdi
.LEHB11:
	call	*56(%rsp)
.LEHE11:
	sfence
.L581:
	movq	72(%rsp), %rbp
	testq	%rbp, %rbp
	je	.L583
	movq	__libc_single_threaded@GOTPCREL(%rip), %rbx
	cmpb	$0, (%rbx)
	je	.L584
	movl	8(%rbp), %eax
	leal	-1(%rax), %edx
	movl	%edx, 8(%rbp)
	cmpl	$1, %eax
	je	.L586
.L647:
	movq	16(%rsp), %rbp
.L587:
	movq	48(%rsp), %rax
	testq	%rax, %rax
	je	.L590
.L604:
	movl	$3, %edx
	movq	%r12, %rsi
	movq	%r12, %rdi
	call	*%rax
.L590:
	testq	%rbp, %rbp
	je	.L591
	movq	64(%rbp), %r12
	testq	%r12, %r12
	je	.L593
	movq	__libc_single_threaded@GOTPCREL(%rip), %rbx
	cmpb	$0, (%rbx)
	je	.L594
	movl	8(%r12), %eax
	leal	-1(%rax), %edx
	movl	%edx, 8(%r12)
.L595:
	cmpl	$1, %eax
	jne	.L593
	movq	(%r12), %rax
	movq	%r12, %rdi
	call	*16(%rax)
	cmpb	$0, (%rbx)
	je	.L597
	movl	12(%r12), %eax
	leal	-1(%rax), %edx
	movl	%edx, 12(%r12)
.L598:
	cmpl	$1, %eax
	je	.L644
	.p2align 4,,10
	.p2align 3
.L593:
	movq	40(%rbp), %rax
	testq	%rax, %rax
	je	.L599
	leaq	24(%rbp), %rdi
	movl	$3, %edx
	movq	%rdi, %rsi
	call	*%rax
.L599:
	movq	$0, 16(%rsp)
.L591:
	movq	8(%rsp), %rbp
	testq	%rbp, %rbp
	je	.L572
.L646:
	data16	leaq	_ZN4asio6detail15keyword_tss_ptrINS0_10call_stackINS0_15task_io_serviceENS0_27task_io_service_thread_infoEE7contextEE6value_E@tlsgd(%rip), %rdi
	.value	0x6666
	rex64
	call	__tls_get_addr@PLT
	movq	(%rax), %rax
	testq	%rax, %rax
	je	.L601
	movq	8(%rax), %rax
	testq	%rax, %rax
	je	.L601
	cmpq	$0, (%rax)
	je	.L645
.L601:
	movq	88(%rsp), %rax
	subq	%fs:40, %rax
	jne	.L641
	addq	$104, %rsp
	.cfi_remember_state
	.cfi_def_cfa_offset 40
	movq	%rbp, %rdi
	popq	%rbx
	.cfi_def_cfa_offset 32
	popq	%rbp
	.cfi_def_cfa_offset 24
	popq	%r12
	.cfi_def_cfa_offset 16
	popq	%r13
	.cfi_def_cfa_offset 8
	jmp	_ZdlPv@PLT
	.p2align 4,,10
	.p2align 3
.L583:
	.cfi_restore_state
	movq	48(%rsp), %rax
	testq	%rax, %rax
	jne	.L604
	movq	8(%rsp), %rbp
	testq	%rbp, %rbp
	jne	.L646
	.p2align 4,,10
	.p2align 3
.L572:
	movq	88(%rsp), %rax
	subq	%fs:40, %rax
	jne	.L641
	addq	$104, %rsp
	.cfi_remember_state
	.cfi_def_cfa_offset 40
	popq	%rbx
	.cfi_def_cfa_offset 32
	popq	%rbp
	.cfi_def_cfa_offset 24
	popq	%r12
	.cfi_def_cfa_offset 16
	popq	%r13
	.cfi_def_cfa_offset 8
	ret
	.p2align 4,,10
	.p2align 3
.L584:
	.cfi_restore_state
	movl	$-1, %eax
	lock xaddl	%eax, 8(%rbp)
	cmpl	$1, %eax
	jne	.L647
.L586:
	movq	0(%rbp), %rax
	movq	%rbp, %rdi
	call	*16(%rax)
	cmpb	$0, (%rbx)
	je	.L588
	movl	12(%rbp), %eax
	leal	-1(%rax), %edx
	movl	%edx, 12(%rbp)
.L589:
	movq	16(%rsp), %rbx
	cmpl	$1, %eax
	je	.L648
	movq	%rbx, %rbp
	jmp	.L587
	.p2align 4,,10
	.p2align 3
.L594:
	movl	$-1, %eax
	lock xaddl	%eax, 8(%r12)
	jmp	.L595
	.p2align 4,,10
	.p2align 3
.L642:
	movzbl	72(%rbp), %edx
	movb	%dl, 0(%rbp)
	movq	%rbp, (%rax)
	jmp	.L580
	.p2align 4,,10
	.p2align 3
.L573:
	movdqu	56(%rsi), %xmm4
	leaq	32(%rsp), %r12
	movq	%r12, (%rsp)
	movaps	%xmm4, 64(%rsp)
	jmp	.L575
	.p2align 4,,10
	.p2align 3
.L645:
	movzbl	72(%rbp), %edx
	movb	%dl, 0(%rbp)
	movq	%rbp, (%rax)
	jmp	.L572
	.p2align 4,,10
	.p2align 3
.L648:
	movq	0(%rbp), %rax
	movq	%rbp, %rdi
	movq	%rbx, %rbp
	call	*24(%rax)
	jmp	.L587
	.p2align 4,,10
	.p2align 3
.L588:
	movl	$-1, %eax
	lock xaddl	%eax, 12(%rbp)
	jmp	.L589
	.p2align 4,,10
	.p2align 3
.L644:
	movq	(%r12), %rax
	movq	%r12, %rdi
	call	*24(%rax)
	jmp	.L593
	.p2align 4,,10
	.p2align 3
.L597:
	movl	$-1, %eax
	lock xaddl	%eax, 12(%r12)
	jmp	.L598
.L641:
	call	__stack_chk_fail@PLT
.L643:
.LEHB12:
	call	_ZSt25__throw_bad_function_callv@PLT
.LEHE12:
.L609:
	endbr64
	movq	%rax, %rbp
	jmp	.L576
.L608:
	endbr64
	movq	%rax, %rbp
	jmp	.L603
	.section	.gcc_except_table
.LLSDA8742:
	.byte	0xff
	.byte	0xff
	.byte	0x1
	.uleb128 .LLSDACSE8742-.LLSDACSB8742
.LLSDACSB8742:
	.uleb128 .LEHB10-.LFB8742
	.uleb128 .LEHE10-.LEHB10
	.uleb128 .L609-.LFB8742
	.uleb128 0
	.uleb128 .LEHB11-.LFB8742
	.uleb128 .LEHE11-.LEHB11
	.uleb128 .L608-.LFB8742
	.uleb128 0
	.uleb128 .LEHB12-.LFB8742
	.uleb128 .LEHE12-.LEHB12
	.uleb128 .L608-.LFB8742
	.uleb128 0
.LLSDACSE8742:
	.text
	.cfi_endproc
	.section	.text.unlikely
	.cfi_startproc
	.cfi_personality 0x9b,DW.ref.__gxx_personality_v0
	.cfi_lsda 0x1b,.LLSDAC8742
	.type	_ZN4asio6detail18completion_handlerIZN7asiopal8Executor4PostERKSt8functionIFvvEEEUlvE_E11do_completeEPNS0_15task_io_serviceEPNS0_25task_io_service_operationERKSt10error_codem.cold, @function
_ZN4asio6detail18completion_handlerIZN7asiopal8Executor4PostERKSt8functionIFvvEEEUlvE_E11do_completeEPNS0_15task_io_serviceEPNS0_25task_io_service_operationERKSt10error_codem.cold:
.LFSB8742:
.L576:
	.cfi_def_cfa_offset 144
	.cfi_offset 3, -40
	.cfi_offset 6, -32
	.cfi_offset 12, -24
	.cfi_offset 13, -16
	movq	48(%rsp), %rax
	testq	%rax, %rax
	je	.L578
	movl	$3, %edx
	movq	%r12, %rsi
	movq	%r12, %rdi
	call	*%rax
	jmp	.L578
.L603:
	sfence
	movq	%r12, %rdi
	call	_ZZN7asiopal8Executor4PostERKSt8functionIFvvEEENUlvE_D1Ev
.L578:
	movq	%rsp, %rdi
	call	_ZN4asio6detail18completion_handlerIZN7asiopal8Executor4PostERKSt8functionIFvvEEEUlvE_E3ptr5resetEv
	movq	%rbp, %rdi
.LEHB13:
	call	_Unwind_Resume@PLT
.LEHE13:
	.cfi_endproc
.LFE8742:
	.section	.gcc_except_table
.LLSDAC8742:
	.byte	0xff
	.byte	0xff
	.byte	0x1
	.uleb128 .LLSDACSEC8742-.LLSDACSBC8742
.LLSDACSBC8742:
	.uleb128 .LEHB13-.LCOLDB24
	.uleb128 .LEHE13-.LEHB13
	.uleb128 0
	.uleb128 0
.LLSDACSEC8742:
	.section	.text.unlikely
	.text
	.size	_ZN4asio6detail18completion_handlerIZN7asiopal8Executor4PostERKSt8functionIFvvEEEUlvE_E11do_completeEPNS0_15task_io_serviceEPNS0_25task_io_service_operationERKSt10error_codem, .-_ZN4asio6detail18completion_handlerIZN7asiopal8Executor4PostERKSt8functionIFvvEEEUlvE_E11do_completeEPNS0_15task_io_serviceEPNS0_25task_io_service_operationERKSt10error_codem
	.section	.text.unlikely
	.size	_ZN4asio6detail18completion_handlerIZN7asiopal8Executor4PostERKSt8functionIFvvEEEUlvE_E11do_completeEPNS0_15task_io_serviceEPNS0_25task_io_service_operationERKSt10error_codem.cold, .-_ZN4asio6detail18completion_handlerIZN7asiopal8Executor4PostERKSt8functionIFvvEEEUlvE_E11do_completeEPNS0_15task_io_serviceEPNS0_25task_io_service_operationERKSt10error_codem.cold
.LCOLDE24:
	.text
.LHOTE24:
	.section	.text.unlikely
	.align 2
	.type	_ZN4asio6detail18completion_handlerINS0_17rewrapped_handlerINS0_7binder1INS0_15wrapped_handlerINS_10io_service6strandEZN7asiopal8Executor5StartERKNSt6chrono10time_pointINS9_3_V212steady_clockENS9_8durationIlSt5ratioILl1ELl1000000000EEEEEERKSt8functionIFvvEEEUlRKSt10error_codeE_NS0_26is_continuation_if_runningEEESP_EESS_EEE3ptr5resetEv, @function
_ZN4asio6detail18completion_handlerINS0_17rewrapped_handlerINS0_7binder1INS0_15wrapped_handlerINS_10io_service6strandEZN7asiopal8Executor5StartERKNSt6chrono10time_pointINS9_3_V212steady_clockENS9_8durationIlSt5ratioILl1ELl1000000000EEEEEERKSt8functionIFvvEEEUlRKSt10error_codeE_NS0_26is_continuation_if_runningEEESP_EESS_EEE3ptr5resetEv:
.LFB9377:
	.cfi_startproc
	.cfi_personality 0x9b,DW.ref.__gxx_personality_v0
	.cfi_lsda 0x1b,.LLSDA9377
	pushq	%r13
	.cfi_def_cfa_offset 16
	.cfi_offset 13, -16
	pushq	%r12
	.cfi_def_cfa_offset 24
	.cfi_offset 12, -24
	movq	%rdi, %r12
	pushq	%rbp
	.cfi_def_cfa_offset 32
	.cfi_offset 6, -32
	pushq	%rbx
	.cfi_def_cfa_offset 40
	.cfi_offset 3, -40
	pushq	%rdx
	.cfi_def_cfa_offset 48
	movq	16(%rdi), %rbx
	testq	%rbx, %rbx
	je	.L650
	movq	160(%rbx), %rbp
	testq	%rbp, %rbp
	je	.L652
	movq	__libc_single_threaded@GOTPCREL(%rip), %r13
	cmpb	$0, 0(%r13)
	je	.L653
	movl	8(%rbp), %eax
	leal	-1(%rax), %edx
	movl	%edx, 8(%rbp)
	jmp	.L654
.L653:
	orl	$-1, %eax
	lock xaddl	%eax, 8(%rbp)
.L654:
	decl	%eax
	jne	.L652
	movq	0(%rbp), %rax
	movq	%rbp, %rdi
	call	*16(%rax)
	cmpb	$0, 0(%r13)
	je	.L656
	movl	12(%rbp), %eax
	leal	-1(%rax), %edx
	movl	%edx, 12(%rbp)
	jmp	.L657
.L656:
	orl	$-1, %eax
	lock xaddl	%eax, 12(%rbp)
.L657:
	decl	%eax
	jne	.L652
	movq	0(%rbp), %rax
	movq	%rbp, %rdi
	call	*24(%rax)
.L652:
	movq	136(%rbx), %rax
	testq	%rax, %rax
	je	.L658
	leaq	120(%rbx), %rdi
	movl	$3, %edx
	movq	%rdi, %rsi
	call	*%rax
.L658:
	movq	112(%rbx), %rbp
	testq	%rbp, %rbp
	je	.L660
	movq	__libc_single_threaded@GOTPCREL(%rip), %r13
	cmpb	$0, 0(%r13)
	je	.L661
	movl	8(%rbp), %eax
	leal	-1(%rax), %edx
	movl	%edx, 8(%rbp)
	jmp	.L662
.L661:
	orl	$-1, %eax
	lock xaddl	%eax, 8(%rbp)
.L662:
	decl	%eax
	jne	.L660
	movq	0(%rbp), %rax
	movq	%rbp, %rdi
	call	*16(%rax)
	cmpb	$0, 0(%r13)
	je	.L664
	movl	12(%rbp), %eax
	leal	-1(%rax), %edx
	movl	%edx, 12(%rbp)
	jmp	.L665
.L664:
	orl	$-1, %eax
	lock xaddl	%eax, 12(%rbp)
.L665:
	decl	%eax
	jne	.L660
	movq	0(%rbp), %rax
	movq	%rbp, %rdi
	call	*24(%rax)
.L660:
	movq	80(%rbx), %rbp
	testq	%rbp, %rbp
	je	.L667
	movq	__libc_single_threaded@GOTPCREL(%rip), %r13
	cmpb	$0, 0(%r13)
	je	.L668
	movl	8(%rbp), %eax
	leal	-1(%rax), %edx
	movl	%edx, 8(%rbp)
	jmp	.L669
.L668:
	orl	$-1, %eax
	lock xaddl	%eax, 8(%rbp)
.L669:
	decl	%eax
	jne	.L667
	movq	0(%rbp), %rax
	movq	%rbp, %rdi
	call	*16(%rax)
	cmpb	$0, 0(%r13)
	je	.L671
	movl	12(%rbp), %eax
	leal	-1(%rax), %edx
	movl	%edx, 12(%rbp)
	jmp	.L672
.L671:
	orl	$-1, %eax
	lock xaddl	%eax, 12(%rbp)
.L672:
	decl	%eax
	jne	.L667
	movq	0(%rbp), %rax
	movq	%rbp, %rdi
	call	*24(%rax)
.L667:
	movq	56(%rbx), %rax
	testq	%rax, %rax
	je	.L673
	leaq	40(%rbx), %rdi
	movl	$3, %edx
	movq	%rdi, %rsi
	call	*%rax
.L673:
	movq	32(%rbx), %rbp
	testq	%rbp, %rbp
	je	.L675
	movq	__libc_single_threaded@GOTPCREL(%rip), %rbx
	cmpb	$0, (%rbx)
	je	.L676
	movl	8(%rbp), %eax
	leal	-1(%rax), %edx
	movl	%edx, 8(%rbp)
	jmp	.L677
.L676:
	orl	$-1, %eax
	lock xaddl	%eax, 8(%rbp)
.L677:
	decl	%eax
	jne	.L675
	movq	0(%rbp), %rax
	movq	%rbp, %rdi
	call	*16(%rax)
	cmpb	$0, (%rbx)
	je	.L679
	movl	12(%rbp), %eax
	leal	-1(%rax), %edx
	movl	%edx, 12(%rbp)
	jmp	.L680
.L679:
	orl	$-1, %eax
	lock xaddl	%eax, 12(%rbp)
.L680:
	decl	%eax
	jne	.L675
	movq	0(%rbp), %rax
	movq	%rbp, %rdi
	call	*24(%rax)
.L675:
	movq	$0, 16(%r12)
.L650:
	movq	8(%r12), %rbp
	testq	%rbp, %rbp
	je	.L649
	data16	leaq	_ZN4asio6detail15keyword_tss_ptrINS0_10call_stackINS0_15task_io_serviceENS0_27task_io_service_thread_infoEE7contextEE6value_E@tlsgd(%rip), %rdi
	.value	0x6666
	rex64
	call	__tls_get_addr@PLT
	movq	(%rax), %rax
	testq	%rax, %rax
	je	.L682
	movq	8(%rax), %rax
	testq	%rax, %rax
	je	.L682
	cmpq	$0, (%rax)
	jne	.L682
	movb	184(%rbp), %dl
	movb	%dl, 0(%rbp)
	movq	%rbp, (%rax)
	jmp	.L683
.L682:
	movq	%rbp, %rdi
	call	_ZdlPv@PLT
.L683:
	movq	$0, 8(%r12)
.L649:
	popq	%rax
	.cfi_def_cfa_offset 40
	popq	%rbx
	.cfi_def_cfa_offset 32
	popq	%rbp
	.cfi_def_cfa_offset 24
	popq	%r12
	.cfi_def_cfa_offset 16
	popq	%r13
	.cfi_def_cfa_offset 8
	ret
	.cfi_endproc
.LFE9377:
	.section	.gcc_except_table
.LLSDA9377:
	.byte	0xff
	.byte	0xff
	.byte	0x1
	.uleb128 .LLSDACSE9377-.LLSDACSB9377
.LLSDACSB9377:
.LLSDACSE9377:
	.section	.text.unlikely
	.size	_ZN4asio6detail18completion_handlerINS0_17rewrapped_handlerINS0_7binder1INS0_15wrapped_handlerINS_10io_service6strandEZN7asiopal8Executor5StartERKNSt6chrono10time_pointINS9_3_V212steady_clockENS9_8durationIlSt5ratioILl1ELl1000000000EEEEEERKSt8functionIFvvEEEUlRKSt10error_codeE_NS0_26is_continuation_if_runningEEESP_EESS_EEE3ptr5resetEv, .-_ZN4asio6detail18completion_handlerINS0_17rewrapped_handlerINS0_7binder1INS0_15wrapped_handlerINS_10io_service6strandEZN7asiopal8Executor5StartERKNSt6chrono10time_pointINS9_3_V212steady_clockENS9_8durationIlSt5ratioILl1ELl1000000000EEEEEERKSt8functionIFvvEEEUlRKSt10error_codeE_NS0_26is_continuation_if_runningEEESP_EESS_EEE3ptr5resetEv
	.section	.text.unlikely._ZSt20__throw_bad_weak_ptrv,"axG",@progbits,_ZSt20__throw_bad_weak_ptrv,comdat
	.weak	_ZSt20__throw_bad_weak_ptrv
	.type	_ZSt20__throw_bad_weak_ptrv, @function
_ZSt20__throw_bad_weak_ptrv:
.LFB1762:
	.cfi_startproc
	endbr64
	pushq	%rax
	.cfi_def_cfa_offset 16
	popq	%rax
	.cfi_def_cfa_offset 8
	movl	$8, %edi
	pushq	%rax
	.cfi_def_cfa_offset 16
	call	__cxa_allocate_exception@PLT
	movq	_ZNSt12bad_weak_ptrD1Ev@GOTPCREL(%rip), %rdx
	movq	_ZTISt12bad_weak_ptr@GOTPCREL(%rip), %rsi
	movq	%rax, %rdi
	movq	_ZTVSt12bad_weak_ptr@GOTPCREL(%rip), %rax
	addq	$16, %rax
	movq	%rax, (%rdi)
	call	__cxa_throw@PLT
	.cfi_endproc
.LFE1762:
	.size	_ZSt20__throw_bad_weak_ptrv, .-_ZSt20__throw_bad_weak_ptrv
	.section	.text.unlikely
	.align 2
.LCOLDB25:
	.text
.LHOTB25:
	.align 2
	.p2align 4
	.globl	_ZN7asiopal8Executor4PostERKSt8functionIFvvEE
	.type	_ZN7asiopal8Executor4PostERKSt8functionIFvvEE, @function
_ZN7asiopal8Executor4PostERKSt8functionIFvvEE:
.LFB7052:
	.cfi_startproc
	.cfi_personality 0x9b,DW.ref.__gxx_personality_v0
	.cfi_lsda 0x1b,.LLSDA7052
	endbr64
	pushq	%r14
	.cfi_def_cfa_offset 16
	.cfi_offset 14, -16
	pxor	%xmm0, %xmm0
	pushq	%r13
	.cfi_def_cfa_offset 24
	.cfi_offset 13, -24
	pushq	%r12
	.cfi_def_cfa_offset 32
	.cfi_offset 12, -32
	pushq	%rbp
	.cfi_def_cfa_offset 40
	.cfi_offset 6, -40
	pushq	%rbx
	.cfi_def_cfa_offset 48
	.cfi_offset 3, -48
	movq	%rdi, %rbx
	subq	$192, %rsp
	.cfi_def_cfa_offset 240
	movq	%fs:40, %rax
	movq	%rax, 184(%rsp)
	xorl	%eax, %eax
	movq	16(%rsi), %rax
	movaps	%xmm0, 80(%rsp)
	movq	$0, 96(%rsp)
	movq	$0, 104(%rsp)
	testq	%rax, %rax
	je	.L706
	leaq	80(%rsp), %r13
	movq	%rsi, %rbp
	movl	$2, %edx
	movq	%r13, %rdi
.LEHB14:
	call	*%rax
.LEHE14:
	movdqu	16(%rbp), %xmm5
	movaps	%xmm5, 96(%rsp)
.L706:
	movq	16(%rbx), %rax
	movq	%rax, 120(%rsp)
	testq	%rax, %rax
	je	.L818
	leaq	8(%rax), %rdx
	movl	8(%rax), %eax
.L712:
	testl	%eax, %eax
	je	.L707
	leal	1(%rax), %ecx
	lock cmpxchgl	%ecx, (%rdx)
	jne	.L712
	movq	8(%rbx), %rax
	pxor	%xmm0, %xmm0
	movq	96(%rsp), %rcx
	movq	$0, 144(%rsp)
	movaps	%xmm0, 128(%rsp)
	leaq	128(%rsp), %r12
	movq	%rax, 112(%rsp)
	movq	$0, 152(%rsp)
	testq	%rcx, %rcx
	je	.L762
	leaq	80(%rsp), %r13
	leaq	128(%rsp), %r12
	movl	$2, %edx
	movq	%r13, %rsi
	movq	%r12, %rdi
.LEHB15:
	call	*%rcx
.LEHE15:
	movdqa	96(%rsp), %xmm6
	movq	112(%rsp), %rax
	movaps	%xmm6, 144(%rsp)
.L762:
	movq	120(%rsp), %rdx
	movq	%rax, %xmm0
	movq	%rdx, %xmm2
	punpcklqdq	%xmm2, %xmm0
	movaps	%xmm0, 160(%rsp)
	testq	%rdx, %rdx
	je	.L714
	movq	__libc_single_threaded@GOTPCREL(%rip), %rax
	cmpb	$0, (%rax)
	je	.L718
	addl	$1, 8(%rdx)
.L714:
	pxor	%xmm0, %xmm0
	movq	%r12, 48(%rsp)
	movq	40(%rbx), %r13
	movups	%xmm0, 56(%rsp)
	data16	leaq	_ZN4asio6detail15keyword_tss_ptrINS0_10call_stackINS0_15task_io_serviceENS0_27task_io_service_thread_infoEE7contextEE6value_E@tlsgd(%rip), %rdi
	.value	0x6666
	rex64
	call	__tls_get_addr@PLT
	movq	(%rax), %rax
	testq	%rax, %rax
	je	.L719
	movq	8(%rax), %rax
	testq	%rax, %rax
	je	.L719
	movq	(%rax), %rbp
	testq	%rbp, %rbp
	je	.L719
	movq	$0, (%rax)
	movzbl	0(%rbp), %eax
	cmpb	$71, %al
	jbe	.L720
	movb	%al, 72(%rbp)
	jmp	.L721
	.p2align 4,,10
	.p2align 3
.L720:
	movq	%rbp, %rdi
	call	_ZdlPv@PLT
.L719:
	movl	$73, %edi
.LEHB16:
	call	_Znwm@PLT
.LEHE16:
	movb	$72, 72(%rax)
	movq	%rax, %rbp
.L721:
	leaq	_ZN4asio6detail18completion_handlerIZN7asiopal8Executor4PostERKSt8functionIFvvEEEUlvE_E11do_completeEPNS0_15task_io_serviceEPNS0_25task_io_service_operationERKSt10error_codem(%rip), %rax
	pxor	%xmm0, %xmm0
	movq	%rbp, 56(%rsp)
	movq	%rax, 8(%rbp)
	movq	144(%rsp), %rax
	movq	$0, 0(%rbp)
	movl	$0, 16(%rbp)
	movq	$0, 40(%rbp)
	movq	$0, 48(%rbp)
	movups	%xmm0, 24(%rbp)
	testq	%rax, %rax
	je	.L722
	leaq	24(%rbp), %r14
	movl	$2, %edx
	movq	%r12, %rsi
	movq	%r14, %rdi
.LEHB17:
	call	*%rax
.LEHE17:
	movdqa	144(%rsp), %xmm7
	movups	%xmm7, 40(%rbp)
.L722:
	movdqa	160(%rsp), %xmm3
	movq	%rbp, %xmm1
	pxor	%xmm0, %xmm0
	punpcklqdq	%xmm1, %xmm1
	movaps	%xmm0, 160(%rsp)
	movups	%xmm3, 56(%rbp)
	movq	48(%rbx), %rax
	movaps	%xmm1, (%rsp)
	leaq	24(%rax), %rdi
	call	pthread_mutex_lock@PLT
	movq	48(%rbx), %rdi
	cmpb	$0, 64(%rdi)
	je	.L819
	movq	$0, 0(%rbp)
	movq	80(%rdi), %rax
	testq	%rax, %rax
	je	.L728
	movq	%rbp, (%rax)
	movq	%rbp, 80(%rdi)
.L729:
	addq	$24, %rdi
	call	pthread_mutex_unlock@PLT
.L730:
	movq	168(%rsp), %rbp
	testq	%rbp, %rbp
	je	.L744
	movq	__libc_single_threaded@GOTPCREL(%rip), %rbx
	cmpb	$0, (%rbx)
	je	.L745
	movl	8(%rbp), %eax
	leal	-1(%rax), %edx
	movl	%edx, 8(%rbp)
.L746:
	cmpl	$1, %eax
	je	.L820
.L744:
	movq	144(%rsp), %rax
	testq	%rax, %rax
	je	.L750
	movl	$3, %edx
	movq	%r12, %rsi
	movq	%r12, %rdi
	call	*%rax
.L750:
	movq	120(%rsp), %rbp
	testq	%rbp, %rbp
	je	.L752
	movq	__libc_single_threaded@GOTPCREL(%rip), %rbx
	cmpb	$0, (%rbx)
	je	.L753
	movl	8(%rbp), %eax
	leal	-1(%rax), %edx
	movl	%edx, 8(%rbp)
.L754:
	cmpl	$1, %eax
	je	.L821
.L752:
	movq	96(%rsp), %rax
	testq	%rax, %rax
	je	.L705
	leaq	80(%rsp), %rdi
	movl	$3, %edx
	movq	%rdi, %rsi
	call	*%rax
.L705:
	movq	184(%rsp), %rax
	subq	%fs:40, %rax
	jne	.L822
	addq	$192, %rsp
	.cfi_remember_state
	.cfi_def_cfa_offset 48
	popq	%rbx
	.cfi_def_cfa_offset 40
	popq	%rbp
	.cfi_def_cfa_offset 32
	popq	%r12
	.cfi_def_cfa_offset 24
	popq	%r13
	.cfi_def_cfa_offset 16
	popq	%r14
	.cfi_def_cfa_offset 8
	ret
	.p2align 4,,10
	.p2align 3
.L718:
	.cfi_restore_state
	lock addl	$1, 8(%rdx)
	jmp	.L714
	.p2align 4,,10
	.p2align 3
.L728:
	movdqa	(%rsp), %xmm5
	movups	%xmm5, 72(%rdi)
	jmp	.L729
	.p2align 4,,10
	.p2align 3
.L819:
	movb	$1, 64(%rdi)
	addq	$24, %rdi
	call	pthread_mutex_unlock@PLT
	movq	48(%rbx), %r14
	movq	$0, 0(%rbp)
	movq	%r14, %xmm4
	cmpq	$0, 96(%r14)
	punpcklqdq	%xmm4, %xmm4
	movaps	%xmm4, 16(%rsp)
	je	.L731
	movq	96(%r14), %rax
	movq	%rbp, (%rax)
	movq	%rbp, 96(%r14)
.L732:
	movq	40(%r13), %rbx
	cmpb	$0, 40(%rbx)
	jne	.L823
.L733:
	lock addq	$1, 184(%rbx)
	leaq	48(%rbx), %rbp
	movq	%rbp, %rdi
	call	pthread_mutex_lock@PLT
	cmpq	$0, 200(%rbx)
	movq	$0, (%r14)
	je	.L738
	movq	200(%rbx), %rax
	movq	%r14, (%rax)
	movq	%r14, 200(%rbx)
.L739:
	movq	136(%rbx), %rax
	orq	$1, %rax
	movq	%rax, 136(%rbx)
	cmpq	$1, %rax
	je	.L740
	movq	%rbp, %rdi
	call	pthread_mutex_unlock@PLT
	leaq	88(%rbx), %rdi
	call	pthread_cond_signal@PLT
	jmp	.L730
	.p2align 4,,10
	.p2align 3
.L823:
	data16	leaq	_ZN4asio6detail15keyword_tss_ptrINS0_10call_stackINS0_15task_io_serviceENS0_27task_io_service_thread_infoEE7contextEE6value_E@tlsgd(%rip), %rdi
	.value	0x6666
	rex64
	call	__tls_get_addr@PLT
	movq	(%rax), %rax
	testq	%rax, %rax
	jne	.L736
	jmp	.L733
	.p2align 4,,10
	.p2align 3
.L734:
	movq	16(%rax), %rax
	testq	%rax, %rax
	je	.L733
.L736:
	cmpq	(%rax), %rbx
	jne	.L734
	movq	8(%rax), %rax
	testq	%rax, %rax
	je	.L733
	addq	$1, 24(%rax)
	movq	$0, (%r14)
	movq	16(%rax), %rdx
	testq	%rdx, %rdx
	je	.L737
	movq	%r14, (%rdx)
	movq	%r14, 16(%rax)
	jmp	.L730
	.p2align 4,,10
	.p2align 3
.L821:
	movq	0(%rbp), %rax
	movq	%rbp, %rdi
	call	*16(%rax)
	cmpb	$0, (%rbx)
	je	.L756
	movl	12(%rbp), %eax
	leal	-1(%rax), %edx
	movl	%edx, 12(%rbp)
.L757:
	cmpl	$1, %eax
	jne	.L752
	movq	0(%rbp), %rax
	movq	%rbp, %rdi
	call	*24(%rax)
	jmp	.L752
	.p2align 4,,10
	.p2align 3
.L820:
	movq	0(%rbp), %rax
	movq	%rbp, %rdi
	call	*16(%rax)
	cmpb	$0, (%rbx)
	je	.L748
	movl	12(%rbp), %eax
	leal	-1(%rax), %edx
	movl	%edx, 12(%rbp)
.L749:
	cmpl	$1, %eax
	jne	.L744
	movq	0(%rbp), %rax
	movq	%rbp, %rdi
	call	*24(%rax)
	jmp	.L744
	.p2align 4,,10
	.p2align 3
.L753:
	movl	$-1, %eax
	lock xaddl	%eax, 8(%rbp)
	jmp	.L754
	.p2align 4,,10
	.p2align 3
.L745:
	movl	$-1, %eax
	lock xaddl	%eax, 8(%rbp)
	jmp	.L746
	.p2align 4,,10
	.p2align 3
.L740:
	cmpb	$0, 176(%rbx)
	jne	.L742
	movq	144(%rbx), %rax
	testq	%rax, %rax
	je	.L742
	leaq	88(%rax), %rdx
	movb	$1, 176(%rbx)
	movl	96(%rax), %edi
	leaq	36(%rsp), %rcx
	movq	%rdx, 40(%rsp)
	movl	88(%rax), %edx
	movl	$3, %esi
	movl	$-2147483639, 36(%rsp)
	call	epoll_ctl@PLT
.L742:
	movq	%rbp, %rdi
	call	pthread_mutex_unlock@PLT
	jmp	.L730
	.p2align 4,,10
	.p2align 3
.L731:
	movdqa	(%rsp), %xmm6
	movups	%xmm6, 88(%r14)
	jmp	.L732
	.p2align 4,,10
	.p2align 3
.L756:
	movl	$-1, %eax
	lock xaddl	%eax, 12(%rbp)
	jmp	.L757
	.p2align 4,,10
	.p2align 3
.L748:
	movl	$-1, %eax
	lock xaddl	%eax, 12(%rbp)
	jmp	.L749
	.p2align 4,,10
	.p2align 3
.L738:
	movdqa	16(%rsp), %xmm7
	movups	%xmm7, 192(%rbx)
	jmp	.L739
	.p2align 4,,10
	.p2align 3
.L737:
	movdqa	16(%rsp), %xmm7
	movups	%xmm7, 8(%rax)
	jmp	.L730
.L822:
	call	__stack_chk_fail@PLT
.L766:
	endbr64
	movq	%rax, %rbp
	jmp	.L727
.L767:
	endbr64
	movq	%rax, %rbp
	jmp	.L715
.L768:
	endbr64
	movq	%rax, %rbx
	jmp	.L725
.L765:
	endbr64
	movq	%rax, %rbp
	jmp	.L709
.L818:
	jmp	.L707
	.section	.gcc_except_table
.LLSDA7052:
	.byte	0xff
	.byte	0xff
	.byte	0x1
	.uleb128 .LLSDACSE7052-.LLSDACSB7052
.LLSDACSB7052:
	.uleb128 .LEHB14-.LFB7052
	.uleb128 .LEHE14-.LEHB14
	.uleb128 .L765-.LFB7052
	.uleb128 0
	.uleb128 .LEHB15-.LFB7052
	.uleb128 .LEHE15-.LEHB15
	.uleb128 .L767-.LFB7052
	.uleb128 0
	.uleb128 .LEHB16-.LFB7052
	.uleb128 .LEHE16-.LEHB16
	.uleb128 .L766-.LFB7052
	.uleb128 0
	.uleb128 .LEHB17-.LFB7052
	.uleb128 .LEHE17-.LEHB17
	.uleb128 .L768-.LFB7052
	.uleb128 0
.LLSDACSE7052:
	.text
	.cfi_endproc
	.section	.text.unlikely
	.cfi_startproc
	.cfi_personality 0x9b,DW.ref.__gxx_personality_v0
	.cfi_lsda 0x1b,.LLSDAC7052
	.type	_ZN7asiopal8Executor4PostERKSt8functionIFvvEE.cold, @function
_ZN7asiopal8Executor4PostERKSt8functionIFvvEE.cold:
.LFSB7052:
.L725:
	.cfi_def_cfa_offset 240
	.cfi_offset 3, -48
	.cfi_offset 6, -40
	.cfi_offset 12, -32
	.cfi_offset 13, -24
	.cfi_offset 14, -16
	movq	40(%rbp), %rax
	testq	%rax, %rax
	jne	.L824
.L726:
	leaq	48(%rsp), %rdi
	movq	%rbx, %rbp
	call	_ZN4asio6detail18completion_handlerIZN7asiopal8Executor4PostERKSt8functionIFvvEEEUlvE_E3ptr5resetEv
.L727:
	movq	%r12, %rdi
	leaq	80(%rsp), %r13
	call	_ZZN7asiopal8Executor4PostERKSt8functionIFvvEEENUlvE_D1Ev
.L717:
	movq	%r13, %rdi
	call	_ZZN7asiopal8Executor4PostERKSt8functionIFvvEEENUlvE_D1Ev
	movq	%rbp, %rdi
.LEHB18:
	call	_Unwind_Resume@PLT
.LEHE18:
.L715:
	movq	144(%rsp), %rax
	testq	%rax, %rax
	je	.L717
	movl	$3, %edx
	movq	%r12, %rsi
	movq	%r12, %rdi
	call	*%rax
	jmp	.L717
.L709:
	movq	96(%rsp), %rax
	testq	%rax, %rax
	je	.L710
	movl	$3, %edx
	movq	%r13, %rsi
	movq	%r13, %rdi
	call	*%rax
.L710:
	movq	%rbp, %rdi
.LEHB19:
	call	_Unwind_Resume@PLT
.LEHE19:
.L824:
	movl	$3, %edx
	movq	%r14, %rsi
	movq	%r14, %rdi
	call	*%rax
	jmp	.L726
.L707:
.LEHB20:
	call	_ZSt20__throw_bad_weak_ptrv@PLT
.LEHE20:
.L764:
	endbr64
	movq	%rax, %rbp
	movq	96(%rsp), %rax
	testq	%rax, %rax
	je	.L760
	leaq	80(%rsp), %rdi
	movl	$3, %edx
	movq	%rdi, %rsi
	call	*%rax
.L760:
	movq	%rbp, %rdi
.LEHB21:
	call	_Unwind_Resume@PLT
.LEHE21:
	.cfi_endproc
.LFE7052:
	.section	.gcc_except_table
.LLSDAC7052:
	.byte	0xff
	.byte	0xff
	.byte	0x1
	.uleb128 .LLSDACSEC7052-.LLSDACSBC7052
.LLSDACSBC7052:
	.uleb128 .LEHB18-.LCOLDB25
	.uleb128 .LEHE18-.LEHB18
	.uleb128 0
	.uleb128 0
	.uleb128 .LEHB19-.LCOLDB25
	.uleb128 .LEHE19-.LEHB19
	.uleb128 0
	.uleb128 0
	.uleb128 .LEHB20-.LCOLDB25
	.uleb128 .LEHE20-.LEHB20
	.uleb128 .L764-.LCOLDB25
	.uleb128 0
	.uleb128 .LEHB21-.LCOLDB25
	.uleb128 .LEHE21-.LEHB21
	.uleb128 0
	.uleb128 0
.LLSDACSEC7052:
	.section	.text.unlikely
	.text
	.size	_ZN7asiopal8Executor4PostERKSt8functionIFvvEE, .-_ZN7asiopal8Executor4PostERKSt8functionIFvvEE
	.section	.text.unlikely
	.size	_ZN7asiopal8Executor4PostERKSt8functionIFvvEE.cold, .-_ZN7asiopal8Executor4PostERKSt8functionIFvvEE.cold
.LCOLDE25:
	.text
.LHOTE25:
	.section	.rodata._ZNSt12system_errorC2ESt10error_codePKc.str1.1,"aMS",@progbits,1
.LC26:
	.string	": "
	.section	.text._ZNSt12system_errorC2ESt10error_codePKc,"axG",@progbits,_ZNSt12system_errorC5ESt10error_codePKc,comdat
	.align 2
	.p2align 4
	.weak	_ZNSt12system_errorC2ESt10error_codePKc
	.type	_ZNSt12system_errorC2ESt10error_codePKc, @function
_ZNSt12system_errorC2ESt10error_codePKc:
.LFB2339:
	.cfi_startproc
	.cfi_personality 0x9b,DW.ref.__gxx_personality_v0
	.cfi_lsda 0x1b,.LLSDA2339
	endbr64
	pushq	%r14
	.cfi_def_cfa_offset 16
	.cfi_offset 14, -16
	movq	%rcx, %r14
	pushq	%r13
	.cfi_def_cfa_offset 24
	.cfi_offset 13, -24
	pushq	%r12
	.cfi_def_cfa_offset 32
	.cfi_offset 12, -32
	movq	%rsi, %r12
	pushq	%rbp
	.cfi_def_cfa_offset 40
	.cfi_offset 6, -40
	movq	%rdx, %rbp
	pushq	%rbx
	.cfi_def_cfa_offset 48
	.cfi_offset 3, -48
	movq	%rdi, %rbx
	subq	$112, %rsp
	.cfi_def_cfa_offset 160
	movq	%fs:40, %rax
	movq	%rax, 104(%rsp)
	xorl	%eax, %eax
	movq	(%rdx), %rax
	leaq	64(%rsp), %r13
	movl	%esi, %edx
	movq	%r13, %rdi
	movq	%rbp, %rsi
.LEHB22:
	call	*32(%rax)
.LEHE22:
	movl	$2, %r8d
	xorl	%edx, %edx
	xorl	%esi, %esi
	leaq	.LC26(%rip), %rcx
	movq	%r13, %rdi
.LEHB23:
	call	_ZNSt7__cxx1112basic_stringIcSt11char_traitsIcESaIcEE10_M_replaceEmmPKcm@PLT
.LEHE23:
	leaq	48(%rsp), %r13
	leaq	16(%rax), %rdx
	movq	%r13, 32(%rsp)
	movq	(%rax), %rcx
	cmpq	%rdx, %rcx
	je	.L845
	movq	%rcx, 32(%rsp)
	movq	16(%rax), %rcx
	movq	%rcx, 48(%rsp)
.L827:
	movq	8(%rax), %rcx
	movb	$0, 16(%rax)
	movq	%r14, %rdi
	movq	%rcx, 40(%rsp)
	movq	%rdx, (%rax)
	movq	$0, 8(%rax)
	call	strlen@PLT
	leaq	32(%rsp), %rdi
	movq	%r14, %rcx
	xorl	%edx, %edx
	movq	%rax, %r8
	xorl	%esi, %esi
.LEHB24:
	call	_ZNSt7__cxx1112basic_stringIcSt11char_traitsIcESaIcEE10_M_replaceEmmPKcm@PLT
.LEHE24:
	leaq	16(%rsp), %r14
	leaq	16(%rax), %rdx
	movq	%r14, (%rsp)
	movq	(%rax), %rcx
	cmpq	%rdx, %rcx
	je	.L846
	movq	%rcx, (%rsp)
	movq	16(%rax), %rcx
	movq	%rcx, 16(%rsp)
.L829:
	movq	8(%rax), %rcx
	movb	$0, 16(%rax)
	movq	%rsp, %rsi
	movq	%rbx, %rdi
	movq	%rcx, 8(%rsp)
	movq	%rdx, (%rax)
	movq	$0, 8(%rax)
.LEHB25:
	call	_ZNSt13runtime_errorC2ERKNSt7__cxx1112basic_stringIcSt11char_traitsIcESaIcEEE@PLT
.LEHE25:
	movq	(%rsp), %rdi
	cmpq	%r14, %rdi
	je	.L830
	movq	16(%rsp), %rax
	leaq	1(%rax), %rsi
	call	_ZdlPvm@PLT
.L830:
	movq	32(%rsp), %rdi
	cmpq	%r13, %rdi
	je	.L831
	movq	48(%rsp), %rax
	leaq	1(%rax), %rsi
	call	_ZdlPvm@PLT
.L831:
	movq	64(%rsp), %rdi
	leaq	80(%rsp), %rax
	cmpq	%rax, %rdi
	je	.L832
	movq	80(%rsp), %rax
	leaq	1(%rax), %rsi
	call	_ZdlPvm@PLT
.L832:
	movq	_ZTVSt12system_error@GOTPCREL(%rip), %rax
	movq	%r12, 16(%rbx)
	movq	%rbp, 24(%rbx)
	addq	$16, %rax
	movq	%rax, (%rbx)
	movq	104(%rsp), %rax
	subq	%fs:40, %rax
	jne	.L847
	addq	$112, %rsp
	.cfi_remember_state
	.cfi_def_cfa_offset 48
	popq	%rbx
	.cfi_def_cfa_offset 40
	popq	%rbp
	.cfi_def_cfa_offset 32
	popq	%r12
	.cfi_def_cfa_offset 24
	popq	%r13
	.cfi_def_cfa_offset 16
	popq	%r14
	.cfi_def_cfa_offset 8
	ret
	.p2align 4,,10
	.p2align 3
.L845:
	.cfi_restore_state
	movdqu	16(%rax), %xmm0
	movaps	%xmm0, 48(%rsp)
	jmp	.L827
	.p2align 4,,10
	.p2align 3
.L846:
	movdqu	16(%rax), %xmm1
	movaps	%xmm1, 16(%rsp)
	jmp	.L829
.L847:
	call	__stack_chk_fail@PLT
.L842:
	endbr64
	movq	%rax, %rbp
	jmp	.L833
.L840:
	endbr64
	movq	%rax, %rbp
	jmp	.L837
.L841:
	endbr64
	movq	%rax, %rbp
	jmp	.L835
.L833:
	movq	(%rsp), %rdi
	cmpq	%r14, %rdi
	je	.L835
	movq	16(%rsp), %rax
	leaq	1(%rax), %rsi
	call	_ZdlPvm@PLT
.L835:
	movq	32(%rsp), %rdi
	cmpq	%r13, %rdi
	je	.L837
	movq	48(%rsp), %rax
	leaq	1(%rax), %rsi
	call	_ZdlPvm@PLT
.L837:
	movq	64(%rsp), %rdi
	leaq	80(%rsp), %rax
	cmpq	%rax, %rdi
	je	.L838
	movq	80(%rsp), %rax
	leaq	1(%rax), %rsi
	call	_ZdlPvm@PLT
.L838:
	movq	%rbp, %rdi
.LEHB26:
	call	_Unwind_Resume@PLT
.LEHE26:
	.cfi_endproc
.LFE2339:
	.section	.gcc_except_table
.LLSDA2339:
	.byte	0xff
	.byte	0xff
	.byte	0x1
	.uleb128 .LLSDACSE2339-.LLSDACSB2339
.LLSDACSB2339:
	.uleb128 .LEHB22-.LFB2339
	.uleb128 .LEHE22-.LEHB22
	.uleb128 0
	.uleb128 0
	.uleb128 .LEHB23-.LFB2339
	.uleb128 .LEHE23-.LEHB23
	.uleb128 .L840-.LFB2339
	.uleb128 0
	.uleb128 .LEHB24-.LFB2339
	.uleb128 .LEHE24-.LEHB24
	.uleb128 .L841-.LFB2339
	.uleb128 0
	.uleb128 .LEHB25-.LFB2339
	.uleb128 .LEHE25-.LEHB25
	.uleb128 .L842-.LFB2339
	.uleb128 0
	.uleb128 .LEHB26-.LFB2339
	.uleb128 .LEHE26-.LEHB26
	.uleb128 0
	.uleb128 0
.LLSDACSE2339:
	.section	.text._ZNSt12system_errorC2ESt10error_codePKc,"axG",@progbits,_ZNSt12system_errorC5ESt10error_codePKc,comdat
	.size	_ZNSt12system_errorC2ESt10error_codePKc, .-_ZNSt12system_errorC2ESt10error_codePKc
	.weak	_ZNSt12system_errorC1ESt10error_codePKc
	.set	_ZNSt12system_errorC1ESt10error_codePKc,_ZNSt12system_errorC2ESt10error_codePKc
	.section	.text.unlikely._ZN4asio6detail14do_throw_errorERKSt10error_codePKc,"axG",@progbits,_ZN4asio6detail14do_throw_errorERKSt10error_codePKc,comdat
	.weak	_ZN4asio6detail14do_throw_errorERKSt10error_codePKc
	.type	_ZN4asio6detail14do_throw_errorERKSt10error_codePKc, @function
_ZN4asio6detail14do_throw_errorERKSt10error_codePKc:
.LFB2422:
	.cfi_startproc
	.cfi_personality 0x9b,DW.ref.__gxx_personality_v0
	.cfi_lsda 0x1b,.LLSDA2422
	endbr64
	pushq	%r12
	.cfi_def_cfa_offset 16
	.cfi_offset 12, -16
	movq	%rsi, %rcx
	pushq	%rbp
	.cfi_def_cfa_offset 24
	.cfi_offset 6, -24
	subq	$56, %rsp
	.cfi_def_cfa_offset 80
	movq	8(%rdi), %rdx
	movl	(%rdi), %esi
	movq	%fs:40, %rax
	movq	%rax, 40(%rsp)
	xorl	%eax, %eax
	leaq	8(%rsp), %r12
	movq	%r12, %rdi
.LEHB27:
	call	_ZNSt12system_errorC1ESt10error_codePKc@PLT
.LEHE27:
	movl	$32, %edi
	call	__cxa_allocate_exception@PLT
	movq	%r12, %rsi
	movq	%rax, %rdi
	movq	%rax, %rbp
	call	_ZNSt13runtime_errorC2ERKS_@PLT
	movq	_ZTVSt12system_error@GOTPCREL(%rip), %rax
	movq	%rbp, %rdi
	movups	24(%rsp), %xmm0
	movq	_ZNSt12system_errorD1Ev@GOTPCREL(%rip), %rdx
	movq	_ZTISt12system_error@GOTPCREL(%rip), %rsi
	addq	$16, %rax
	movups	%xmm0, 16(%rbp)
	movq	%rax, 0(%rbp)
.LEHB28:
	call	__cxa_throw@PLT
.LEHE28:
.L851:
	endbr64
	movq	%rax, %rbp
.L849:
	movq	%r12, %rdi
	call	_ZNSt12system_errorD1Ev@PLT
	movq	%rbp, %rdi
.LEHB29:
	call	_Unwind_Resume@PLT
.LEHE29:
	.cfi_endproc
.LFE2422:
	.section	.gcc_except_table
.LLSDA2422:
	.byte	0xff
	.byte	0xff
	.byte	0x1
	.uleb128 .LLSDACSE2422-.LLSDACSB2422
.LLSDACSB2422:
	.uleb128 .LEHB27-.LFB2422
	.uleb128 .LEHE27-.LEHB27
	.uleb128 0
	.uleb128 0
	.uleb128 .LEHB28-.LFB2422
	.uleb128 .LEHE28-.LEHB28
	.uleb128 .L851-.LFB2422
	.uleb128 0
	.uleb128 .LEHB29-.LFB2422
	.uleb128 .LEHE29-.LEHB29
	.uleb128 0
	.uleb128 0
.LLSDACSE2422:
	.section	.text.unlikely._ZN4asio6detail14do_throw_errorERKSt10error_codePKc,"axG",@progbits,_ZN4asio6detail14do_throw_errorERKSt10error_codePKc,comdat
	.size	_ZN4asio6detail14do_throw_errorERKSt10error_codePKc, .-_ZN4asio6detail14do_throw_errorERKSt10error_codePKc
	.section	.text._ZN4asio6detail14strand_service16on_dispatch_exitD2Ev,"axG",@progbits,_ZN4asio6detail14strand_service16on_dispatch_exitD5Ev,comdat
	.align 2
	.p2align 4
	.weak	_ZN4asio6detail14strand_service16on_dispatch_exitD2Ev
	.type	_ZN4asio6detail14strand_service16on_dispatch_exitD2Ev, @function
_ZN4asio6detail14strand_service16on_dispatch_exitD2Ev:
.LFB6408:
	.cfi_startproc
	endbr64
	pushq	%r12
	.cfi_def_cfa_offset 16
	.cfi_offset 12, -16
	pushq	%rbp
	.cfi_def_cfa_offset 24
	.cfi_offset 6, -24
	pushq	%rbx
	.cfi_def_cfa_offset 32
	.cfi_offset 3, -32
	movq	%rdi, %rbx
	subq	$48, %rsp
	.cfi_def_cfa_offset 80
	movq	%fs:40, %rax
	movq	%rax, 40(%rsp)
	movq	8(%rdi), %rax
	leaq	24(%rax), %rdi
	call	pthread_mutex_lock@PLT
	movq	8(%rbx), %rdi
	movq	72(%rdi), %rbp
	testq	%rbp, %rbp
	je	.L884
	movq	96(%rdi), %rax
	testq	%rax, %rax
	je	.L856
	movq	%rbp, (%rax)
	movq	88(%rdi), %rbp
.L857:
	movq	80(%rdi), %rax
	pxor	%xmm0, %xmm0
	movups	%xmm0, 72(%rdi)
	movq	%rax, 96(%rdi)
.L855:
	testq	%rbp, %rbp
	setne	64(%rdi)
	addq	$24, %rdi
	call	pthread_mutex_unlock@PLT
	testq	%rbp, %rbp
	jne	.L885
.L853:
	movq	40(%rsp), %rax
	subq	%fs:40, %rax
	jne	.L883
	addq	$48, %rsp
	.cfi_remember_state
	.cfi_def_cfa_offset 32
	popq	%rbx
	.cfi_def_cfa_offset 24
	popq	%rbp
	.cfi_def_cfa_offset 16
	popq	%r12
	.cfi_def_cfa_offset 8
	ret
	.p2align 4,,10
	.p2align 3
.L856:
	.cfi_restore_state
	movq	%rbp, 88(%rdi)
	jmp	.L857
	.p2align 4,,10
	.p2align 3
.L885:
	movdqu	(%rbx), %xmm0
	movq	(%rbx), %rbp
	movdqa	%xmm0, %xmm1
	movhlps	%xmm0, %xmm2
	cmpb	$0, 40(%rbp)
	punpckhqdq	%xmm0, %xmm1
	movq	%xmm2, %rbx
	movaps	%xmm1, (%rsp)
	je	.L859
	data16	leaq	_ZN4asio6detail15keyword_tss_ptrINS0_10call_stackINS0_15task_io_serviceENS0_27task_io_service_thread_infoEE7contextEE6value_E@tlsgd(%rip), %rdi
	.value	0x6666
	rex64
	call	__tls_get_addr@PLT
	movq	(%rax), %rax
	testq	%rax, %rax
	jne	.L862
	jmp	.L859
	.p2align 4,,10
	.p2align 3
.L860:
	movq	16(%rax), %rax
	testq	%rax, %rax
	je	.L859
.L862:
	cmpq	(%rax), %rbp
	jne	.L860
	movq	8(%rax), %rax
	testq	%rax, %rax
	je	.L859
	addq	$1, 24(%rax)
	movq	$0, (%rbx)
	movq	16(%rax), %rdx
	testq	%rdx, %rdx
	je	.L863
	movq	%rbx, (%rdx)
	movq	%rbx, 16(%rax)
	jmp	.L853
	.p2align 4,,10
	.p2align 3
.L859:
	lock addq	$1, 184(%rbp)
	leaq	48(%rbp), %r12
	movq	%r12, %rdi
	call	pthread_mutex_lock@PLT
	cmpq	$0, 200(%rbp)
	movq	$0, (%rbx)
	je	.L864
	movq	200(%rbp), %rax
	movq	%rbx, (%rax)
	movq	%rbx, 200(%rbp)
.L865:
	movq	136(%rbp), %rax
	orq	$1, %rax
	movq	%rax, 136(%rbp)
	cmpq	$1, %rax
	je	.L866
	movq	%r12, %rdi
	call	pthread_mutex_unlock@PLT
	movq	40(%rsp), %rax
	subq	%fs:40, %rax
	jne	.L883
	addq	$48, %rsp
	.cfi_remember_state
	.cfi_def_cfa_offset 32
	leaq	88(%rbp), %rdi
	popq	%rbx
	.cfi_def_cfa_offset 24
	popq	%rbp
	.cfi_def_cfa_offset 16
	popq	%r12
	.cfi_def_cfa_offset 8
	jmp	pthread_cond_signal@PLT
	.p2align 4,,10
	.p2align 3
.L884:
	.cfi_restore_state
	movq	88(%rdi), %rbp
	jmp	.L855
	.p2align 4,,10
	.p2align 3
.L864:
	movdqa	(%rsp), %xmm3
	movups	%xmm3, 192(%rbp)
	jmp	.L865
	.p2align 4,,10
	.p2align 3
.L866:
	cmpb	$0, 176(%rbp)
	jne	.L868
	movq	144(%rbp), %rax
	testq	%rax, %rax
	je	.L868
	leaq	88(%rax), %rdx
	movb	$1, 176(%rbp)
	movl	96(%rax), %edi
	leaq	28(%rsp), %rcx
	movq	%rdx, 32(%rsp)
	movl	88(%rax), %edx
	movl	$3, %esi
	movl	$-2147483639, 28(%rsp)
	call	epoll_ctl@PLT
.L868:
	movq	40(%rsp), %rax
	subq	%fs:40, %rax
	jne	.L883
	addq	$48, %rsp
	.cfi_remember_state
	.cfi_def_cfa_offset 32
	movq	%r12, %rdi
	popq	%rbx
	.cfi_def_cfa_offset 24
	popq	%rbp
	.cfi_def_cfa_offset 16
	popq	%r12
	.cfi_def_cfa_offset 8
	jmp	pthread_mutex_unlock@PLT
	.p2align 4,,10
	.p2align 3
.L863:
	.cfi_restore_state
	movdqa	(%rsp), %xmm4
	movups	%xmm4, 8(%rax)
	jmp	.L853
.L883:
	call	__stack_chk_fail@PLT
	.cfi_endproc
.LFE6408:
	.size	_ZN4asio6detail14strand_service16on_dispatch_exitD2Ev, .-_ZN4asio6detail14strand_service16on_dispatch_exitD2Ev
	.weak	_ZN4asio6detail14strand_service16on_dispatch_exitD1Ev
	.set	_ZN4asio6detail14strand_service16on_dispatch_exitD1Ev,_ZN4asio6detail14strand_service16on_dispatch_exitD2Ev
	.section	.text._ZN4asio6detail14strand_service19on_do_complete_exitD2Ev,"axG",@progbits,_ZN4asio6detail14strand_service19on_do_complete_exitD5Ev,comdat
	.align 2
	.p2align 4
	.weak	_ZN4asio6detail14strand_service19on_do_complete_exitD2Ev
	.type	_ZN4asio6detail14strand_service19on_do_complete_exitD2Ev, @function
_ZN4asio6detail14strand_service19on_do_complete_exitD2Ev:
.LFB6413:
	.cfi_startproc
	endbr64
	pushq	%r12
	.cfi_def_cfa_offset 16
	.cfi_offset 12, -16
	pushq	%rbp
	.cfi_def_cfa_offset 24
	.cfi_offset 6, -24
	pushq	%rbx
	.cfi_def_cfa_offset 32
	.cfi_offset 3, -32
	movq	%rdi, %rbx
	subq	$48, %rsp
	.cfi_def_cfa_offset 80
	movq	%fs:40, %rax
	movq	%rax, 40(%rsp)
	movq	8(%rdi), %rax
	leaq	24(%rax), %rdi
	call	pthread_mutex_lock@PLT
	movq	8(%rbx), %rdi
	movq	72(%rdi), %rbp
	testq	%rbp, %rbp
	je	.L917
	movq	96(%rdi), %rax
	testq	%rax, %rax
	je	.L889
	movq	%rbp, (%rax)
	movq	88(%rdi), %rbp
.L890:
	movq	80(%rdi), %rax
	pxor	%xmm0, %xmm0
	movups	%xmm0, 72(%rdi)
	movq	%rax, 96(%rdi)
.L888:
	testq	%rbp, %rbp
	setne	64(%rdi)
	addq	$24, %rdi
	call	pthread_mutex_unlock@PLT
	testq	%rbp, %rbp
	jne	.L918
.L886:
	movq	40(%rsp), %rax
	subq	%fs:40, %rax
	jne	.L916
	addq	$48, %rsp
	.cfi_remember_state
	.cfi_def_cfa_offset 32
	popq	%rbx
	.cfi_def_cfa_offset 24
	popq	%rbp
	.cfi_def_cfa_offset 16
	popq	%r12
	.cfi_def_cfa_offset 8
	ret
	.p2align 4,,10
	.p2align 3
.L889:
	.cfi_restore_state
	movq	%rbp, 88(%rdi)
	jmp	.L890
	.p2align 4,,10
	.p2align 3
.L918:
	movdqu	(%rbx), %xmm0
	movq	(%rbx), %rbp
	movdqa	%xmm0, %xmm1
	movhlps	%xmm0, %xmm2
	punpckhqdq	%xmm0, %xmm1
	movq	%xmm2, %rbx
	movaps	%xmm1, (%rsp)
	data16	leaq	_ZN4asio6detail15keyword_tss_ptrINS0_10call_stackINS0_15task_io_serviceENS0_27task_io_service_thread_infoEE7contextEE6value_E@tlsgd(%rip), %rdi
	.value	0x6666
	rex64
	call	__tls_get_addr@PLT
	movq	(%rax), %rax
	testq	%rax, %rax
	jne	.L895
	jmp	.L892
	.p2align 4,,10
	.p2align 3
.L893:
	movq	16(%rax), %rax
	testq	%rax, %rax
	je	.L892
.L895:
	cmpq	(%rax), %rbp
	jne	.L893
	movq	8(%rax), %rax
	testq	%rax, %rax
	je	.L892
	addq	$1, 24(%rax)
	movq	$0, (%rbx)
	movq	16(%rax), %rdx
	testq	%rdx, %rdx
	je	.L896
	movq	%rbx, (%rdx)
	movq	%rbx, 16(%rax)
	jmp	.L886
	.p2align 4,,10
	.p2align 3
.L917:
	movq	88(%rdi), %rbp
	jmp	.L888
	.p2align 4,,10
	.p2align 3
.L892:
	lock addq	$1, 184(%rbp)
	leaq	48(%rbp), %r12
	movq	%r12, %rdi
	call	pthread_mutex_lock@PLT
	cmpq	$0, 200(%rbp)
	movq	$0, (%rbx)
	je	.L897
	movq	200(%rbp), %rax
	movq	%rbx, (%rax)
	movq	%rbx, 200(%rbp)
.L898:
	movq	136(%rbp), %rax
	orq	$1, %rax
	movq	%rax, 136(%rbp)
	cmpq	$1, %rax
	je	.L899
	movq	%r12, %rdi
	call	pthread_mutex_unlock@PLT
	movq	40(%rsp), %rax
	subq	%fs:40, %rax
	jne	.L916
	addq	$48, %rsp
	.cfi_remember_state
	.cfi_def_cfa_offset 32
	leaq	88(%rbp), %rdi
	popq	%rbx
	.cfi_def_cfa_offset 24
	popq	%rbp
	.cfi_def_cfa_offset 16
	popq	%r12
	.cfi_def_cfa_offset 8
	jmp	pthread_cond_signal@PLT
	.p2align 4,,10
	.p2align 3
.L899:
	.cfi_restore_state
	cmpb	$0, 176(%rbp)
	jne	.L901
	movq	144(%rbp), %rax
	testq	%rax, %rax
	je	.L901
	leaq	88(%rax), %rdx
	movb	$1, 176(%rbp)
	movl	96(%rax), %edi
	leaq	28(%rsp), %rcx
	movq	%rdx, 32(%rsp)
	movl	88(%rax), %edx
	movl	$3, %esi
	movl	$-2147483639, 28(%rsp)
	call	epoll_ctl@PLT
.L901:
	movq	40(%rsp), %rax
	subq	%fs:40, %rax
	jne	.L916
	addq	$48, %rsp
	.cfi_remember_state
	.cfi_def_cfa_offset 32
	movq	%r12, %rdi
	popq	%rbx
	.cfi_def_cfa_offset 24
	popq	%rbp
	.cfi_def_cfa_offset 16
	popq	%r12
	.cfi_def_cfa_offset 8
	jmp	pthread_mutex_unlock@PLT
	.p2align 4,,10
	.p2align 3
.L896:
	.cfi_restore_state
	movdqa	(%rsp), %xmm3
	movups	%xmm3, 8(%rax)
	jmp	.L886
	.p2align 4,,10
	.p2align 3
.L897:
	movdqa	(%rsp), %xmm4
	movups	%xmm4, 192(%rbp)
	jmp	.L898
.L916:
	call	__stack_chk_fail@PLT
	.cfi_endproc
.LFE6413:
	.size	_ZN4asio6detail14strand_service19on_do_complete_exitD2Ev, .-_ZN4asio6detail14strand_service19on_do_complete_exitD2Ev
	.weak	_ZN4asio6detail14strand_service19on_do_complete_exitD1Ev
	.set	_ZN4asio6detail14strand_service19on_do_complete_exitD1Ev,_ZN4asio6detail14strand_service19on_do_complete_exitD2Ev
	.section	.text._ZN4asio6detail14strand_service11do_completeEPNS0_15task_io_serviceEPNS0_25task_io_service_operationERKSt10error_codem,"axG",@progbits,_ZN4asio6detail14strand_service11do_completeEPNS0_15task_io_serviceEPNS0_25task_io_service_operationERKSt10error_codem,comdat
	.align 2
	.p2align 4
	.weak	_ZN4asio6detail14strand_service11do_completeEPNS0_15task_io_serviceEPNS0_25task_io_service_operationERKSt10error_codem
	.type	_ZN4asio6detail14strand_service11do_completeEPNS0_15task_io_serviceEPNS0_25task_io_service_operationERKSt10error_codem, @function
_ZN4asio6detail14strand_service11do_completeEPNS0_15task_io_serviceEPNS0_25task_io_service_operationERKSt10error_codem:
.LFB6427:
	.cfi_startproc
	.cfi_personality 0x9b,DW.ref.__gxx_personality_v0
	.cfi_lsda 0x1b,.LLSDA6427
	endbr64
	pushq	%r13
	.cfi_def_cfa_offset 16
	.cfi_offset 13, -16
	movq	%rsi, %xmm1
	movq	%rdi, %xmm0
	movq	%rsi, %xmm2
	pushq	%r12
	.cfi_def_cfa_offset 24
	.cfi_offset 12, -24
	punpcklqdq	%xmm1, %xmm1
	punpcklqdq	%xmm2, %xmm0
	pushq	%rbp
	.cfi_def_cfa_offset 32
	.cfi_offset 6, -32
	pushq	%rbx
	.cfi_def_cfa_offset 40
	.cfi_offset 3, -40
	subq	$104, %rsp
	.cfi_def_cfa_offset 144
	movq	%fs:40, %rax
	movq	%rax, 88(%rsp)
	xorl	%eax, %eax
	movaps	%xmm1, 16(%rsp)
	movaps	%xmm0, (%rsp)
	testq	%rdi, %rdi
	je	.L919
	movq	%rdx, %r12
	movq	%rsi, 64(%rsp)
	movq	%rdi, %rbp
	movq	%rsi, %rbx
	data16	leaq	_ZN4asio6detail15keyword_tss_ptrINS0_10call_stackINS0_14strand_service11strand_implEhE7contextEE6value_E@tlsgd(%rip), %rdi
	.value	0x6666
	rex64
	call	__tls_get_addr@PLT
	movdqa	(%rsp), %xmm0
	movaps	%xmm0, 48(%rsp)
	movq	(%rax), %rdx
	movq	%rdx, 80(%rsp)
	leaq	64(%rsp), %rdx
	movq	%rdx, 72(%rsp)
	movq	%rdx, (%rax)
	jmp	.L923
	.p2align 4,,10
	.p2align 3
.L922:
	movq	$0, (%rax)
	xorl	%ecx, %ecx
	movq	%r12, %rdx
	movq	%rax, %rsi
	movq	%rbp, %rdi
.LEHB30:
	call	*8(%rax)
.LEHE30:
.L923:
	movq	88(%rbx), %rax
	testq	%rax, %rax
	je	.L921
	movq	(%rax), %rdx
	movq	%rdx, 88(%rbx)
	testq	%rdx, %rdx
	jne	.L922
	movq	$0, 96(%rbx)
	jmp	.L922
	.p2align 4,,10
	.p2align 3
.L921:
	leaq	24(%rbx), %r13
	movq	%r13, %rdi
	call	pthread_mutex_lock@PLT
	movq	72(%rbx), %r12
	testq	%r12, %r12
	je	.L956
	movq	96(%rbx), %rax
	testq	%rax, %rax
	je	.L926
	movq	%r12, (%rax)
	movq	88(%rbx), %r12
.L927:
	movq	80(%rbx), %rax
	pxor	%xmm0, %xmm0
	movups	%xmm0, 72(%rbx)
	movq	%rax, 96(%rbx)
.L925:
	testq	%r12, %r12
	movq	%r13, %rdi
	setne	64(%rbx)
	call	pthread_mutex_unlock@PLT
	testq	%r12, %r12
	jne	.L957
.L928:
	data16	leaq	_ZN4asio6detail15keyword_tss_ptrINS0_10call_stackINS0_14strand_service11strand_implEhE7contextEE6value_E@tlsgd(%rip), %rdi
	.value	0x6666
	rex64
	call	__tls_get_addr@PLT
	movq	80(%rsp), %rdx
	movq	%rdx, (%rax)
.L919:
	movq	88(%rsp), %rax
	subq	%fs:40, %rax
	jne	.L958
	addq	$104, %rsp
	.cfi_remember_state
	.cfi_def_cfa_offset 40
	popq	%rbx
	.cfi_def_cfa_offset 32
	popq	%rbp
	.cfi_def_cfa_offset 24
	popq	%r12
	.cfi_def_cfa_offset 16
	popq	%r13
	.cfi_def_cfa_offset 8
	ret
	.p2align 4,,10
	.p2align 3
.L956:
	.cfi_restore_state
	movq	88(%rbx), %r12
	jmp	.L925
	.p2align 4,,10
	.p2align 3
.L957:
	data16	leaq	_ZN4asio6detail15keyword_tss_ptrINS0_10call_stackINS0_15task_io_serviceENS0_27task_io_service_thread_infoEE7contextEE6value_E@tlsgd(%rip), %rdi
	.value	0x6666
	rex64
	call	__tls_get_addr@PLT
	movq	(%rax), %rax
	testq	%rax, %rax
	jne	.L932
	jmp	.L929
	.p2align 4,,10
	.p2align 3
.L930:
	movq	16(%rax), %rax
	testq	%rax, %rax
	je	.L929
.L932:
	cmpq	(%rax), %rbp
	jne	.L930
	movq	8(%rax), %rax
	testq	%rax, %rax
	je	.L929
	addq	$1, 24(%rax)
	movq	$0, (%rbx)
	movq	16(%rax), %rdx
	testq	%rdx, %rdx
	je	.L933
	movq	%rbx, (%rdx)
	movq	%rbx, 16(%rax)
	jmp	.L928
	.p2align 4,,10
	.p2align 3
.L926:
	movq	%r12, 88(%rbx)
	jmp	.L927
	.p2align 4,,10
	.p2align 3
.L929:
	lock addq	$1, 184(%rbp)
	leaq	48(%rbp), %r12
	movq	%r12, %rdi
	call	pthread_mutex_lock@PLT
	cmpq	$0, 200(%rbp)
	movq	$0, (%rbx)
	je	.L934
	movq	200(%rbp), %rax
	movq	%rbx, (%rax)
	movq	%rbx, 200(%rbp)
.L935:
	movq	136(%rbp), %rax
	orq	$1, %rax
	movq	%rax, 136(%rbp)
	cmpq	$1, %rax
	je	.L936
	movq	%r12, %rdi
	call	pthread_mutex_unlock@PLT
	leaq	88(%rbp), %rdi
	call	pthread_cond_signal@PLT
	jmp	.L928
.L936:
	cmpb	$0, 176(%rbp)
	jne	.L938
	movq	144(%rbp), %rax
	testq	%rax, %rax
	je	.L938
	leaq	88(%rax), %rdx
	movb	$1, 176(%rbp)
	movl	96(%rax), %edi
	leaq	36(%rsp), %rcx
	movq	%rdx, 40(%rsp)
	movl	88(%rax), %edx
	movl	$3, %esi
	movl	$-2147483639, 36(%rsp)
	call	epoll_ctl@PLT
.L938:
	movq	%r12, %rdi
	call	pthread_mutex_unlock@PLT
	jmp	.L928
.L933:
	movdqa	16(%rsp), %xmm3
	movups	%xmm3, 8(%rax)
	jmp	.L928
.L934:
	movdqa	16(%rsp), %xmm4
	movups	%xmm4, 192(%rbp)
	jmp	.L935
.L958:
	call	__stack_chk_fail@PLT
.L941:
	endbr64
	movq	%rax, %rbp
.L939:
	leaq	48(%rsp), %rdi
	call	_ZN4asio6detail14strand_service19on_do_complete_exitD1Ev@PLT
	data16	leaq	_ZN4asio6detail15keyword_tss_ptrINS0_10call_stackINS0_14strand_service11strand_implEhE7contextEE6value_E@tlsgd(%rip), %rdi
	.value	0x6666
	rex64
	call	__tls_get_addr@PLT
	movq	80(%rsp), %rdx
	movq	%rbp, %rdi
	movq	%rdx, (%rax)
.LEHB31:
	call	_Unwind_Resume@PLT
.LEHE31:
	.cfi_endproc
.LFE6427:
	.section	.gcc_except_table
.LLSDA6427:
	.byte	0xff
	.byte	0xff
	.byte	0x1
	.uleb128 .LLSDACSE6427-.LLSDACSB6427
.LLSDACSB6427:
	.uleb128 .LEHB30-.LFB6427
	.uleb128 .LEHE30-.LEHB30
	.uleb128 .L941-.LFB6427
	.uleb128 0
	.uleb128 .LEHB31-.LFB6427
	.uleb128 .LEHE31-.LEHB31
	.uleb128 0
	.uleb128 0
.LLSDACSE6427:
	.section	.text._ZN4asio6detail14strand_service11do_completeEPNS0_15task_io_serviceEPNS0_25task_io_service_operationERKSt10error_codem,"axG",@progbits,_ZN4asio6detail14strand_service11do_completeEPNS0_15task_io_serviceEPNS0_25task_io_service_operationERKSt10error_codem,comdat
	.size	_ZN4asio6detail14strand_service11do_completeEPNS0_15task_io_serviceEPNS0_25task_io_service_operationERKSt10error_codem, .-_ZN4asio6detail14strand_service11do_completeEPNS0_15task_io_serviceEPNS0_25task_io_service_operationERKSt10error_codem
	.section	.rodata._ZNSt7promiseIbED2Ev.str1.1,"aMS",@progbits,1
.LC27:
	.string	"std::future_error: "
	.section	.text._ZNSt7promiseIbED2Ev,"axG",@progbits,_ZNSt7promiseIbED5Ev,comdat
	.align 2
	.p2align 4
	.weak	_ZNSt7promiseIbED2Ev
	.type	_ZNSt7promiseIbED2Ev, @function
_ZNSt7promiseIbED2Ev:
.LFB7883:
	.cfi_startproc
	.cfi_personality 0x9b,DW.ref.__gxx_personality_v0
	.cfi_lsda 0x1b,.LLSDA7883
	endbr64
	pushq	%r15
	.cfi_def_cfa_offset 16
	.cfi_offset 15, -16
	pushq	%r14
	.cfi_def_cfa_offset 24
	.cfi_offset 14, -24
	pushq	%r13
	.cfi_def_cfa_offset 32
	.cfi_offset 13, -32
	pushq	%r12
	.cfi_def_cfa_offset 40
	.cfi_offset 12, -40
	pushq	%rbp
	.cfi_def_cfa_offset 48
	.cfi_offset 6, -48
	pushq	%rbx
	.cfi_def_cfa_offset 56
	.cfi_offset 3, -56
	movq	%rdi, %rbx
	subq	$136, %rsp
	.cfi_def_cfa_offset 192
	movq	(%rdi), %r12
	movq	%fs:40, %rax
	movq	%rax, 120(%rsp)
	xorl	%eax, %eax
	testq	%r12, %r12
	je	.L1004
	movq	8(%rdi), %rbp
	testq	%rbp, %rbp
	je	.L962
	movl	8(%rbp), %eax
	cmpl	$1, %eax
	je	.L1004
.L962:
	movq	16(%rbx), %r13
	movq	$0, 16(%rbx)
	testq	%r13, %r13
	je	.L964
	call	_ZSt15future_categoryv@PLT
	leaq	48(%rsp), %r14
	movl	$4, %edx
	movq	%rax, %rbp
	movq	(%rax), %rax
	movq	%r14, %rdi
	movq	%rbp, %rsi
	call	*32(%rax)
	movl	$19, %r8d
	xorl	%edx, %edx
	xorl	%esi, %esi
	leaq	.LC27(%rip), %rcx
	movq	%r14, %rdi
.LEHB32:
	call	_ZNSt7__cxx1112basic_stringIcSt11char_traitsIcESaIcEE10_M_replaceEmmPKcm@PLT
.LEHE32:
	leaq	96(%rsp), %r14
	leaq	16(%rax), %rdx
	movq	%r14, 80(%rsp)
	movq	(%rax), %rcx
	cmpq	%rdx, %rcx
	je	.L1007
	movq	%rcx, 80(%rsp)
	movq	16(%rax), %rcx
	movq	%rcx, 96(%rsp)
.L966:
	movq	8(%rax), %rcx
	movb	$0, 16(%rax)
	leaq	16(%rsp), %r15
	leaq	80(%rsp), %rsi
	movq	%r15, %rdi
	movq	%rcx, 88(%rsp)
	movq	%rdx, (%rax)
	movq	$0, 8(%rax)
.LEHB33:
	call	_ZNSt11logic_errorC2ERKNSt7__cxx1112basic_stringIcSt11char_traitsIcESaIcEEE@PLT
.LEHE33:
	movq	80(%rsp), %rdi
	cmpq	%r14, %rdi
	je	.L967
	movq	96(%rsp), %rax
	leaq	1(%rax), %rsi
	call	_ZdlPvm@PLT
.L967:
	movq	48(%rsp), %rdi
	leaq	64(%rsp), %rax
	cmpq	%rax, %rdi
	je	.L968
	movq	64(%rsp), %rax
	leaq	1(%rax), %rsi
	call	_ZdlPvm@PLT
.L968:
	movq	_ZTVSt12future_error@GOTPCREL(%rip), %rax
	movl	$32, %edi
	movq	%rbp, 40(%rsp)
	movl	$4, 32(%rsp)
	leaq	16(%rax), %r14
	movq	%r14, 16(%rsp)
	call	__cxa_allocate_exception@PLT
	movq	_ZNSt15__exception_ptr12__dest_thunkISt12future_errorEEvPv@GOTPCREL(%rip), %rdx
	movq	_ZTISt12future_error@GOTPCREL(%rip), %rsi
	movq	%rax, %rbp
	movq	%rax, %rdi
	call	__cxa_init_primary_exception@PLT
	movq	%r15, %rsi
	movq	%rbp, %rdi
	call	_ZNSt11logic_errorC2ERKS_@PLT
	movq	%r14, 0(%rbp)
	leaq	8(%rsp), %r14
	movq	%rbp, %rsi
	movdqa	32(%rsp), %xmm0
	movq	%r14, %rdi
	movups	%xmm0, 16(%rbp)
	call	_ZNSt15__exception_ptr13exception_ptrC1EPv@PLT
	movq	8(%rsp), %rdx
	movq	8(%r13), %rax
	movq	$0, 8(%rsp)
	movq	%rax, (%rsp)
	movq	%rdx, 8(%r13)
	testq	%rax, %rax
	je	.L970
	movq	%rsp, %rdi
	call	_ZNSt15__exception_ptr13exception_ptr10_M_releaseEv@PLT
	cmpq	$0, 8(%rsp)
	je	.L970
	movq	%r14, %rdi
	call	_ZNSt15__exception_ptr13exception_ptr10_M_releaseEv@PLT
.L970:
	movq	%r15, %rdi
	call	_ZNSt12future_errorD1Ev@PLT
	movq	8(%r12), %rbp
	leaq	16(%r12), %rdi
	movl	$1, %eax
	movq	%r13, 8(%r12)
	xchgl	(%rdi), %eax
	testl	%eax, %eax
	js	.L1008
.L975:
	testq	%rbp, %rbp
	je	.L1004
	movq	0(%rbp), %rax
	movq	%rbp, %rdi
	call	*(%rax)
.L1004:
	movq	16(%rbx), %rbp
	testq	%rbp, %rbp
	je	.L1005
	movq	0(%rbp), %rax
	movq	(%rax), %rdx
	cmpq	_ZNSt13__future_base7_ResultIbE10_M_destroyEv@GOTPCREL(%rip), %rdx
	jne	.L978
	movq	16(%rax), %rax
	cmpq	_ZNSt13__future_base7_ResultIbED0Ev@GOTPCREL(%rip), %rax
	jne	.L979
	movq	_ZTVNSt13__future_base7_ResultIbEE@GOTPCREL(%rip), %rax
	movq	%rbp, %rdi
	addq	$16, %rax
	movq	%rax, 0(%rbp)
	call	_ZNSt13__future_base12_Result_baseD2Ev@PLT
	movq	%rbp, %rdi
	movl	$24, %esi
	call	_ZdlPvm@PLT
	movq	8(%rbx), %rbp
.L964:
	testq	%rbp, %rbp
	je	.L959
	movq	__libc_single_threaded@GOTPCREL(%rip), %rbx
	cmpb	$0, (%rbx)
	je	.L982
	movl	8(%rbp), %eax
	leal	-1(%rax), %edx
	movl	%edx, 8(%rbp)
.L983:
	cmpl	$1, %eax
	je	.L1009
.L959:
	movq	120(%rsp), %rax
	subq	%fs:40, %rax
	jne	.L1006
	addq	$136, %rsp
	.cfi_remember_state
	.cfi_def_cfa_offset 56
	popq	%rbx
	.cfi_def_cfa_offset 48
	popq	%rbp
	.cfi_def_cfa_offset 40
	popq	%r12
	.cfi_def_cfa_offset 32
	popq	%r13
	.cfi_def_cfa_offset 24
	popq	%r14
	.cfi_def_cfa_offset 16
	popq	%r15
	.cfi_def_cfa_offset 8
	ret
	.p2align 4,,10
	.p2align 3
.L978:
	.cfi_restore_state
	movq	%rbp, %rdi
	call	*%rdx
.L1005:
	movq	8(%rbx), %rbp
	jmp	.L964
	.p2align 4,,10
	.p2align 3
.L1009:
	movq	0(%rbp), %rax
	movq	%rbp, %rdi
	call	*16(%rax)
	cmpb	$0, (%rbx)
	je	.L985
	movl	12(%rbp), %eax
	leal	-1(%rax), %edx
	movl	%edx, 12(%rbp)
.L986:
	cmpl	$1, %eax
	jne	.L959
	movq	120(%rsp), %rax
	subq	%fs:40, %rax
	jne	.L1006
	movq	0(%rbp), %rax
	movq	%rbp, %rdi
	movq	24(%rax), %rax
	addq	$136, %rsp
	.cfi_remember_state
	.cfi_def_cfa_offset 56
	popq	%rbx
	.cfi_def_cfa_offset 48
	popq	%rbp
	.cfi_def_cfa_offset 40
	popq	%r12
	.cfi_def_cfa_offset 32
	popq	%r13
	.cfi_def_cfa_offset 24
	popq	%r14
	.cfi_def_cfa_offset 16
	popq	%r15
	.cfi_def_cfa_offset 8
	jmp	*%rax
	.p2align 4,,10
	.p2align 3
.L982:
	.cfi_restore_state
	movl	$-1, %eax
	lock xaddl	%eax, 8(%rbp)
	jmp	.L983
	.p2align 4,,10
	.p2align 3
.L979:
	movq	%rbp, %rdi
	call	*%rax
	movq	8(%rbx), %rbp
	jmp	.L964
	.p2align 4,,10
	.p2align 3
.L1007:
	movdqu	16(%rax), %xmm1
	movaps	%xmm1, 96(%rsp)
	jmp	.L966
	.p2align 4,,10
	.p2align 3
.L1008:
	call	_ZNSt28__atomic_futex_unsigned_base19_M_futex_notify_allEPj@PLT
	jmp	.L975
	.p2align 4,,10
	.p2align 3
.L985:
	movl	$-1, %eax
	lock xaddl	%eax, 12(%rbp)
	jmp	.L986
.L1006:
	call	__stack_chk_fail@PLT
.L990:
	endbr64
	jmp	.L971
.L989:
	endbr64
	jmp	.L973
.L971:
	movq	80(%rsp), %rdi
	cmpq	%r14, %rdi
	je	.L973
	movq	96(%rsp), %rax
	leaq	1(%rax), %rsi
	call	_ZdlPvm@PLT
.L973:
	movq	48(%rsp), %rdi
	leaq	64(%rsp), %rax
	cmpq	%rax, %rdi
	je	.L974
	movq	64(%rsp), %rax
	leaq	1(%rax), %rsi
	call	_ZdlPvm@PLT
.L974:
	call	_ZSt9terminatev@PLT
	.cfi_endproc
.LFE7883:
	.section	.gcc_except_table
.LLSDA7883:
	.byte	0xff
	.byte	0xff
	.byte	0x1
	.uleb128 .LLSDACSE7883-.LLSDACSB7883
.LLSDACSB7883:
	.uleb128 .LEHB32-.LFB7883
	.uleb128 .LEHE32-.LEHB32
	.uleb128 .L989-.LFB7883
	.uleb128 0
	.uleb128 .LEHB33-.LFB7883
	.uleb128 .LEHE33-.LEHB33
	.uleb128 .L990-.LFB7883
	.uleb128 0
.LLSDACSE7883:
	.section	.text._ZNSt7promiseIbED2Ev,"axG",@progbits,_ZNSt7promiseIbED5Ev,comdat
	.size	_ZNSt7promiseIbED2Ev, .-_ZNSt7promiseIbED2Ev
	.weak	_ZNSt7promiseIbED1Ev
	.set	_ZNSt7promiseIbED1Ev,_ZNSt7promiseIbED2Ev
	.section	.text._ZNSt16_Sp_counted_baseILN9__gnu_cxx12_Lock_policyE2EE10_M_releaseEv,"axG",@progbits,_ZNSt16_Sp_counted_baseILN9__gnu_cxx12_Lock_policyE2EE10_M_releaseEv,comdat
	.align 2
	.p2align 4
	.weak	_ZNSt16_Sp_counted_baseILN9__gnu_cxx12_Lock_policyE2EE10_M_releaseEv
	.type	_ZNSt16_Sp_counted_baseILN9__gnu_cxx12_Lock_policyE2EE10_M_releaseEv, @function
_ZNSt16_Sp_counted_baseILN9__gnu_cxx12_Lock_policyE2EE10_M_releaseEv:
.LFB8142:
	.cfi_startproc
	endbr64
	pushq	%rbp
	.cfi_def_cfa_offset 16
	.cfi_offset 6, -16
	movq	%rdi, %rbp
	pushq	%rbx
	.cfi_def_cfa_offset 24
	.cfi_offset 3, -24
	subq	$8, %rsp
	.cfi_def_cfa_offset 32
	movq	__libc_single_threaded@GOTPCREL(%rip), %rbx
	cmpb	$0, (%rbx)
	je	.L1011
	movl	8(%rdi), %eax
	leal	-1(%rax), %edx
	movl	%edx, 8(%rdi)
.L1012:
	cmpl	$1, %eax
	je	.L1019
.L1010:
	addq	$8, %rsp
	.cfi_remember_state
	.cfi_def_cfa_offset 24
	popq	%rbx
	.cfi_def_cfa_offset 16
	popq	%rbp
	.cfi_def_cfa_offset 8
	ret
	.p2align 4,,10
	.p2align 3
.L1019:
	.cfi_restore_state
	movq	0(%rbp), %rax
	movq	%rbp, %rdi
	call	*16(%rax)
	cmpb	$0, (%rbx)
	je	.L1015
	movl	12(%rbp), %eax
	leal	-1(%rax), %edx
	movl	%edx, 12(%rbp)
.L1016:
	cmpl	$1, %eax
	jne	.L1010
	movq	0(%rbp), %rax
	movq	%rbp, %rdi
	movq	24(%rax), %rax
	addq	$8, %rsp
	.cfi_remember_state
	.cfi_def_cfa_offset 24
	popq	%rbx
	.cfi_def_cfa_offset 16
	popq	%rbp
	.cfi_def_cfa_offset 8
	jmp	*%rax
	.p2align 4,,10
	.p2align 3
.L1011:
	.cfi_restore_state
	movl	$-1, %eax
	lock xaddl	%eax, 8(%rdi)
	jmp	.L1012
	.p2align 4,,10
	.p2align 3
.L1015:
	movl	$-1, %eax
	lock xaddl	%eax, 12(%rbp)
	jmp	.L1016
	.cfi_endproc
.LFE8142:
	.size	_ZNSt16_Sp_counted_baseILN9__gnu_cxx12_Lock_policyE2EE10_M_releaseEv, .-_ZNSt16_Sp_counted_baseILN9__gnu_cxx12_Lock_policyE2EE10_M_releaseEv
	.section	.rodata.str1.1,"aMS",@progbits,1
.LC28:
	.string	"mutex"
	.section	.text.unlikely
	.align 2
.LCOLDB29:
	.text
.LHOTB29:
	.align 2
	.p2align 4
	.globl	_ZN7asiopal8ExecutorC2ERKSt10shared_ptrINS_2IOEE
	.type	_ZN7asiopal8ExecutorC2ERKSt10shared_ptrINS_2IOEE, @function
_ZN7asiopal8ExecutorC2ERKSt10shared_ptrINS_2IOEE:
.LFB6997:
	.cfi_startproc
	.cfi_personality 0x9b,DW.ref.__gxx_personality_v0
	.cfi_lsda 0x1b,.LLSDA6997
	endbr64
	pushq	%r15
	.cfi_def_cfa_offset 16
	.cfi_offset 15, -16
	pushq	%r14
	.cfi_def_cfa_offset 24
	.cfi_offset 14, -24
	pushq	%r13
	.cfi_def_cfa_offset 32
	.cfi_offset 13, -32
	pushq	%r12
	.cfi_def_cfa_offset 40
	.cfi_offset 12, -40
	pushq	%rbp
	.cfi_def_cfa_offset 48
	.cfi_offset 6, -48
	pushq	%rbx
	.cfi_def_cfa_offset 56
	.cfi_offset 3, -56
	movq	%rdi, %rbx
	subq	$56, %rsp
	.cfi_def_cfa_offset 112
	movq	%fs:40, %rax
	movq	%rax, 40(%rsp)
	xorl	%eax, %eax
	movq	_ZTVN7asiopal8ExecutorE@GOTPCREL(%rip), %rax
	movq	$0, 8(%rdi)
	movq	$0, 16(%rdi)
	addq	$16, %rax
	movq	%rax, (%rdi)
	movq	(%rsi), %rax
	movq	%rax, 24(%rdi)
	movq	8(%rsi), %rax
	movq	%rax, 32(%rdi)
	testq	%rax, %rax
	je	.L1021
	movq	__libc_single_threaded@GOTPCREL(%rip), %rdx
	cmpb	$0, (%rdx)
	je	.L1022
	addl	$1, 8(%rax)
.L1021:
	movq	(%rsi), %rax
	movq	8(%rax), %r13
	leaq	8(%r13), %r14
	movq	%r14, %rdi
	call	pthread_mutex_lock@PLT
	movq	56(%r13), %r15
	testq	%r15, %r15
	je	.L1023
	.p2align 4,,10
	.p2align 3
.L1027:
	movq	8(%r15), %rax
	testq	%rax, %rax
	je	.L1024
	movq	8(%rax), %rdi
	movq	_ZTSN4asio6detail14typeid_wrapperINS0_14strand_serviceEEE@GOTPCREL(%rip), %rsi
	cmpq	%rsi, %rdi
	je	.L1120
	cmpb	$42, (%rdi)
	je	.L1024
	call	strcmp@PLT
	testl	%eax, %eax
	jne	.L1024
.L1120:
	leaq	48(%r15), %r12
.L1026:
	movq	%r14, %rdi
	call	pthread_mutex_unlock@PLT
	movq	%r15, 40(%rbx)
	movq	%r12, %rdi
	call	pthread_mutex_lock@PLT
	movq	1632(%r15), %rsi
	leaq	1(%rsi), %rax
	movq	%rax, 1632(%r15)
	leaq	48(%rbx), %rax
	movq	%rax, %rdx
	shrq	$3, %rdx
	addq	%rdx, %rax
	movq	%rax, %rdx
	movq	%rax, %rdi
	shrq	$2, %rdi
	salq	$6, %rdx
	addq	%rdi, %rdx
	movl	$2654435769, %edi
	addq	%rdi, %rdx
	addq	%rsi, %rdx
	xorq	%rdx, %rax
	movabsq	$1529263757405973191, %rdx
	movq	%rax, %rsi
	mulq	%rdx
	shrq	$4, %rdx
	leaq	(%rdx,%rdx,2), %rax
	salq	$6, %rax
	addq	%rax, %rdx
	movq	%rsi, %rax
	subq	%rdx, %rax
	leaq	(%r15,%rax,8), %rax
	movq	88(%rax), %rbp
	movq	%rax, (%rsp)
	testq	%rbp, %rbp
	je	.L1124
.L1038:
	movq	%rbp, 48(%rbx)
	movq	40(%rsp), %rax
	subq	%fs:40, %rax
	jne	.L1125
	addq	$56, %rsp
	.cfi_remember_state
	.cfi_def_cfa_offset 56
	movq	%r12, %rdi
	popq	%rbx
	.cfi_def_cfa_offset 48
	popq	%rbp
	.cfi_def_cfa_offset 40
	popq	%r12
	.cfi_def_cfa_offset 32
	popq	%r13
	.cfi_def_cfa_offset 24
	popq	%r14
	.cfi_def_cfa_offset 16
	popq	%r15
	.cfi_def_cfa_offset 8
	jmp	pthread_mutex_unlock@PLT
	.p2align 4,,10
	.p2align 3
.L1024:
	.cfi_restore_state
	movq	32(%r15), %r15
	testq	%r15, %r15
	jne	.L1027
.L1023:
	movq	%r14, %rdi
	call	pthread_mutex_unlock@PLT
	movl	$1640, %edi
	movq	48(%r13), %r12
.LEHB34:
	call	_Znwm@PLT
.LEHE34:
	movq	%r12, 24(%rax)
	movq	%rax, %rbp
	xorl	%esi, %esi
	movq	$0, 8(%rax)
	movq	$0, 16(%rax)
	movq	$0, 32(%rax)
	movq	_ZTVN4asio6detail14strand_serviceE@GOTPCREL(%rip), %rax
	addq	$16, %rax
	movq	%rax, 0(%rbp)
	movq	8(%r12), %rax
	leaq	48(%rbp), %r12
	movq	%r12, %rdi
	movq	%rax, 40(%rbp)
	call	pthread_mutex_init@PLT
	movl	%eax, %r15d
	movq	_ZGVZN4asio15system_categoryEvE8instance@GOTPCREL(%rip), %rax
	movzbl	(%rax), %eax
	testb	%al, %al
	je	.L1028
.L1118:
	movq	_ZZN4asio15system_categoryEvE8instance@GOTPCREL(%rip), %rsi
.L1029:
	movl	%r15d, 16(%rsp)
	movq	%rsi, 24(%rsp)
	testl	%r15d, %r15d
	jne	.L1112
	leaq	96(%rbp), %rdi
	movl	%ebp, %eax
	movq	$0, 88(%rbp)
	movq	$0, 1624(%rbp)
	andq	$-8, %rdi
	subl	%edi, %eax
	leal	1632(%rax), %ecx
	xorl	%eax, %eax
	shrl	$3, %ecx
	rep stosq
	movq	_ZTIN4asio6detail14typeid_wrapperINS0_14strand_serviceEEE@GOTPCREL(%rip), %rax
	movq	$0, 16(%rbp)
	movq	%r14, %rdi
	movq	$0, 1632(%rbp)
	movq	%rax, 8(%rbp)
	call	pthread_mutex_lock@PLT
	movq	56(%r13), %rax
	movq	%rax, (%rsp)
	movq	%rax, %r15
	testq	%rax, %rax
	je	.L1033
	.p2align 4,,10
	.p2align 3
.L1032:
	movq	8(%r15), %rax
	testq	%rax, %rax
	je	.L1036
	movq	8(%rax), %rdi
	movq	_ZTSN4asio6detail14typeid_wrapperINS0_14strand_serviceEEE@GOTPCREL(%rip), %rsi
	cmpq	%rsi, %rdi
	je	.L1037
	cmpb	$42, (%rdi)
	je	.L1036
	call	strcmp@PLT
	testl	%eax, %eax
	jne	.L1036
.L1037:
	movq	0(%rbp), %rax
	movq	%rbp, %rdi
	call	*8(%rax)
	jmp	.L1120
.L1022:
	lock addl	$1, 8(%rax)
	jmp	.L1021
	.p2align 4,,10
	.p2align 3
.L1036:
	movq	32(%r15), %r15
	testq	%r15, %r15
	jne	.L1032
.L1033:
	movq	(%rsp), %rax
	movq	%rbp, %r15
	movq	%rax, 32(%rbp)
	movq	%rbp, 56(%r13)
	jmp	.L1026
.L1124:
	movl	$104, %edi
.LEHB35:
	call	_Znwm@PLT
.LEHE35:
	movq	$0, (%rax)
	movq	%rax, %rbp
	xorl	%esi, %esi
	movq	_ZN4asio6detail14strand_service11do_completeEPNS0_15task_io_serviceEPNS0_25task_io_service_operationERKSt10error_codem@GOTPCREL(%rip), %rax
	movl	$0, 16(%rbp)
	leaq	24(%rbp), %rdi
	movq	%rax, 8(%rbp)
	call	pthread_mutex_init@PLT
	movq	_ZGVZN4asio15system_categoryEvE8instance@GOTPCREL(%rip), %r13
	movl	%eax, %r15d
	movzbl	0(%r13), %eax
	testb	%al, %al
	je	.L1039
.L1121:
	movq	_ZZN4asio15system_categoryEvE8instance@GOTPCREL(%rip), %rsi
.L1040:
	movl	%r15d, 16(%rsp)
	movq	%rsi, 24(%rsp)
	testl	%r15d, %r15d
	jne	.L1113
	movq	(%rsp), %rax
	pxor	%xmm0, %xmm0
	movb	$0, 64(%rbp)
	movups	%xmm0, 72(%rbp)
	movq	88(%rax), %r14
	movups	%xmm0, 88(%rbp)
	testq	%r14, %r14
	je	.L1043
	movq	88(%r14), %rsi
	testq	%rsi, %rsi
	je	.L1048
	movq	%rsi, 8(%rsp)
	leaq	16(%rsp), %r13
	call	_ZNSt3_V215system_categoryEv@PLT
	movq	8(%rsp), %rsi
	movq	%rax, %r15
	jmp	.L1050
	.p2align 4,,10
	.p2align 3
.L1047:
	movq	$0, (%rsi)
	movq	8(%rsi), %rax
	xorl	%ecx, %ecx
	movq	%r13, %rdx
	movl	$0, 16(%rsp)
	xorl	%edi, %edi
	movq	%r15, 24(%rsp)
	call	*%rax
	movq	88(%r14), %rsi
	testq	%rsi, %rsi
	je	.L1048
.L1050:
	movq	(%rsi), %rax
	movq	%rax, 88(%r14)
	testq	%rax, %rax
	jne	.L1047
	movq	$0, 96(%r14)
	jmp	.L1047
.L1045:
	leaq	24(%r14), %rdi
	call	pthread_mutex_destroy@PLT
	movl	$104, %esi
	movq	%r14, %rdi
	call	_ZdlPvm@PLT
.L1043:
	movq	(%rsp), %rax
	movq	%rbp, 88(%rax)
	jmp	.L1038
.L1028:
	movq	_ZGVZN4asio15system_categoryEvE8instance@GOTPCREL(%rip), %rdi
	call	__cxa_guard_acquire@PLT
	testl	%eax, %eax
	je	.L1118
	movq	_ZZN4asio15system_categoryEvE8instance@GOTPCREL(%rip), %rsi
	movq	_ZN4asio6detail15system_categoryD1Ev@GOTPCREL(%rip), %rdi
	leaq	__dso_handle(%rip), %rdx
	movq	%rsi, (%rsp)
	call	__cxa_atexit@PLT
	movq	_ZGVZN4asio15system_categoryEvE8instance@GOTPCREL(%rip), %rdi
	call	__cxa_guard_release@PLT
	movq	(%rsp), %rsi
	jmp	.L1029
.L1048:
	movq	72(%r14), %rsi
	testq	%rsi, %rsi
	je	.L1045
	movq	%rsi, 8(%rsp)
	leaq	16(%rsp), %r13
	call	_ZNSt3_V215system_categoryEv@PLT
	movq	8(%rsp), %rsi
	movq	%rax, %r15
	jmp	.L1053
	.p2align 4,,10
	.p2align 3
.L1051:
	movq	$0, (%rsi)
	movq	8(%rsi), %rax
	xorl	%ecx, %ecx
	movq	%r13, %rdx
	movl	$0, 16(%rsp)
	xorl	%edi, %edi
	movq	%r15, 24(%rsp)
	call	*%rax
	movq	72(%r14), %rsi
	testq	%rsi, %rsi
	je	.L1045
.L1053:
	movq	(%rsi), %rax
	movq	%rax, 72(%r14)
	testq	%rax, %rax
	jne	.L1051
	movq	$0, 80(%r14)
	jmp	.L1051
.L1039:
	movq	%r13, %rdi
	call	__cxa_guard_acquire@PLT
	testl	%eax, %eax
	je	.L1121
	movq	_ZZN4asio15system_categoryEvE8instance@GOTPCREL(%rip), %rsi
	movq	_ZN4asio6detail15system_categoryD1Ev@GOTPCREL(%rip), %rdi
	leaq	__dso_handle(%rip), %rdx
	movq	%rsi, 8(%rsp)
	call	__cxa_atexit@PLT
	movq	%r13, %rdi
	call	__cxa_guard_release@PLT
	movq	8(%rsp), %rsi
	jmp	.L1040
.L1125:
	call	__stack_chk_fail@PLT
.L1067:
	endbr64
	movq	%rax, %rbp
	jmp	.L1056
.L1065:
	endbr64
	movq	%rax, %rbp
	jmp	.L1035
	.section	.gcc_except_table
.LLSDA6997:
	.byte	0xff
	.byte	0xff
	.byte	0x1
	.uleb128 .LLSDACSE6997-.LLSDACSB6997
.LLSDACSB6997:
	.uleb128 .LEHB34-.LFB6997
	.uleb128 .LEHE34-.LEHB34
	.uleb128 .L1065-.LFB6997
	.uleb128 0
	.uleb128 .LEHB35-.LFB6997
	.uleb128 .LEHE35-.LEHB35
	.uleb128 .L1067-.LFB6997
	.uleb128 0
.LLSDACSE6997:
	.text
	.cfi_endproc
	.section	.text.unlikely
	.cfi_startproc
	.cfi_personality 0x9b,DW.ref.__gxx_personality_v0
	.cfi_lsda 0x1b,.LLSDAC6997
	.type	_ZN7asiopal8ExecutorC2ERKSt10shared_ptrINS_2IOEE.cold, @function
_ZN7asiopal8ExecutorC2ERKSt10shared_ptrINS_2IOEE.cold:
.LFSB6997:
.L1113:
	.cfi_def_cfa_offset 112
	.cfi_offset 3, -56
	.cfi_offset 6, -48
	.cfi_offset 12, -40
	.cfi_offset 13, -32
	.cfi_offset 14, -24
	.cfi_offset 15, -16
	leaq	16(%rsp), %rdi
	leaq	.LC28(%rip), %rsi
.LEHB36:
	call	_ZN4asio6detail14do_throw_errorERKSt10error_codePKc@PLT
.LEHE36:
.L1068:
	endbr64
	movq	%rax, %r13
	movq	%rbp, %rdi
	movl	$104, %esi
	call	_ZdlPvm@PLT
	movq	%r13, %rbp
.L1056:
	movq	%r12, %rdi
	call	pthread_mutex_unlock@PLT
.L1035:
	movq	32(%rbx), %rdi
	testq	%rdi, %rdi
	je	.L1057
	call	_ZNSt16_Sp_counted_baseILN9__gnu_cxx12_Lock_policyE2EE10_M_releaseEv@PLT
.L1057:
	movq	16(%rbx), %rdi
	testq	%rdi, %rdi
	je	.L1059
	movq	__libc_single_threaded@GOTPCREL(%rip), %rax
	leaq	12(%rdi), %rdx
	cmpb	$0, (%rax)
	je	.L1060
	movl	12(%rdi), %eax
	leal	-1(%rax), %edx
	movl	%edx, 12(%rdi)
.L1061:
	subl	$1, %eax
	jne	.L1059
	movq	(%rdi), %rax
	call	*24(%rax)
.L1059:
	movq	%rbp, %rdi
.LEHB37:
	call	_Unwind_Resume@PLT
.LEHE37:
.L1112:
	leaq	16(%rsp), %rdi
	leaq	.LC28(%rip), %rsi
.LEHB38:
	call	_ZN4asio6detail14do_throw_errorERKSt10error_codePKc@PLT
.LEHE38:
.L1066:
	endbr64
	movq	%rax, %r12
	movq	%rbp, %rdi
	movl	$1640, %esi
	call	_ZdlPvm@PLT
	movq	%r12, %rbp
	jmp	.L1035
.L1060:
	orl	$-1, %eax
	lock xaddl	%eax, (%rdx)
	jmp	.L1061
	.cfi_endproc
.LFE6997:
	.section	.gcc_except_table
.LLSDAC6997:
	.byte	0xff
	.byte	0xff
	.byte	0x1
	.uleb128 .LLSDACSEC6997-.LLSDACSBC6997
.LLSDACSBC6997:
	.uleb128 .LEHB36-.LCOLDB29
	.uleb128 .LEHE36-.LEHB36
	.uleb128 .L1068-.LCOLDB29
	.uleb128 0
	.uleb128 .LEHB37-.LCOLDB29
	.uleb128 .LEHE37-.LEHB37
	.uleb128 0
	.uleb128 0
	.uleb128 .LEHB38-.LCOLDB29
	.uleb128 .LEHE38-.LEHB38
	.uleb128 .L1066-.LCOLDB29
	.uleb128 0
.LLSDACSEC6997:
	.section	.text.unlikely
	.text
	.size	_ZN7asiopal8ExecutorC2ERKSt10shared_ptrINS_2IOEE, .-_ZN7asiopal8ExecutorC2ERKSt10shared_ptrINS_2IOEE
	.section	.text.unlikely
	.size	_ZN7asiopal8ExecutorC2ERKSt10shared_ptrINS_2IOEE.cold, .-_ZN7asiopal8ExecutorC2ERKSt10shared_ptrINS_2IOEE.cold
.LCOLDE29:
	.text
.LHOTE29:
	.globl	_ZN7asiopal8ExecutorC1ERKSt10shared_ptrINS_2IOEE
	.set	_ZN7asiopal8ExecutorC1ERKSt10shared_ptrINS_2IOEE,_ZN7asiopal8ExecutorC2ERKSt10shared_ptrINS_2IOEE
	.section	.text.unlikely
	.align 2
.LCOLDB31:
	.text
.LHOTB31:
	.align 2
	.p2align 4
	.globl	_ZN7asiopal8Executor10BlockUntilERKSt8functionIFvvEE
	.type	_ZN7asiopal8Executor10BlockUntilERKSt8functionIFvvEE, @function
_ZN7asiopal8Executor10BlockUntilERKSt8functionIFvvEE:
.LFB7060:
	.cfi_startproc
	.cfi_personality 0x9b,DW.ref.__gxx_personality_v0
	.cfi_lsda 0x1b,.LLSDA7060
	endbr64
	pushq	%r15
	.cfi_def_cfa_offset 16
	.cfi_offset 15, -16
	pushq	%r14
	.cfi_def_cfa_offset 24
	.cfi_offset 14, -24
	movq	%rdi, %r14
	pushq	%r13
	.cfi_def_cfa_offset 32
	.cfi_offset 13, -32
	movq	%rsi, %r13
	pushq	%r12
	.cfi_def_cfa_offset 40
	.cfi_offset 12, -40
	pushq	%rbp
	.cfi_def_cfa_offset 48
	.cfi_offset 6, -48
	pushq	%rbx
	.cfi_def_cfa_offset 56
	.cfi_offset 3, -56
	subq	$104, %rsp
	.cfi_def_cfa_offset 160
	movq	48(%rdi), %rbx
	movq	%fs:40, %rax
	movq	%rax, 88(%rsp)
	xorl	%eax, %eax
	data16	leaq	_ZN4asio6detail15keyword_tss_ptrINS0_10call_stackINS0_14strand_service11strand_implEhE7contextEE6value_E@tlsgd(%rip), %rdi
	.value	0x6666
	rex64
	call	__tls_get_addr@PLT
	movq	(%rax), %rax
	testq	%rax, %rax
	jne	.L1130
	jmp	.L1127
	.p2align 4,,10
	.p2align 3
.L1128:
	movq	16(%rax), %rax
	testq	%rax, %rax
	je	.L1127
.L1130:
	cmpq	(%rax), %rbx
	jne	.L1128
	cmpq	$0, 8(%rax)
	je	.L1127
	cmpq	$0, 16(%r13)
	je	.L1214
	movq	88(%rsp), %rax
	subq	%fs:40, %rax
	jne	.L1212
	movq	24(%r13), %rax
	addq	$104, %rsp
	.cfi_remember_state
	.cfi_def_cfa_offset 56
	movq	%r13, %rdi
	popq	%rbx
	.cfi_def_cfa_offset 48
	popq	%rbp
	.cfi_def_cfa_offset 40
	popq	%r12
	.cfi_def_cfa_offset 32
	popq	%r13
	.cfi_def_cfa_offset 24
	popq	%r14
	.cfi_def_cfa_offset 16
	popq	%r15
	.cfi_def_cfa_offset 8
.LEHB39:
	jmp	*%rax
	.p2align 4,,10
	.p2align 3
.L1127:
	.cfi_restore_state
	movq	$0, 64(%rsp)
	movl	$48, %edi
	call	_Znwm@PLT
.LEHE39:
	movq	.LC30(%rip), %rdx
	movl	$24, %edi
	leaq	16(%rax), %rcx
	movl	$0, 32(%rax)
	movq	%rax, %xmm2
	movq	%rdx, 8(%rax)
	movq	_ZTVSt23_Sp_counted_ptr_inplaceINSt13__future_base13_State_baseV2ESaIS1_ELN9__gnu_cxx12_Lock_policyE2EE@GOTPCREL(%rip), %rdx
	movq	%rcx, %xmm0
	movq	$0, 24(%rax)
	punpcklqdq	%xmm2, %xmm0
	addq	$16, %rdx
	movb	$0, 36(%rax)
	movq	%rdx, (%rax)
	movq	_ZTVNSt13__future_base13_State_baseV2E@GOTPCREL(%rip), %rdx
	movl	$0, 40(%rax)
	addq	$16, %rdx
	movaps	%xmm0, 64(%rsp)
	movq	%rdx, 16(%rax)
.LEHB40:
	call	_Znwm@PLT
.LEHE40:
	movq	%rax, %rdi
	movq	%rax, %rbx
	call	_ZNSt13__future_base12_Result_baseC2Ev@PLT
	movq	_ZTVNSt13__future_base7_ResultIbEE@GOTPCREL(%rip), %rax
	movq	72(%rsp), %rbp
	movb	$0, 17(%rbx)
	movq	%rbx, 80(%rsp)
	movq	64(%rsp), %r15
	addq	$16, %rax
	movq	%rax, (%rbx)
	testq	%rbp, %rbp
	je	.L1134
	movq	__libc_single_threaded@GOTPCREL(%rip), %rax
	cmpb	$0, (%rax)
	je	.L1137
	addl	$1, 8(%rbp)
.L1134:
	testq	%r15, %r15
	je	.L1215
	movl	$1, %eax
	xchgb	20(%r15), %al
	testb	%al, %al
	jne	.L1216
	movq	40(%r14), %rax
	movq	%rax, 8(%rsp)
	data16	leaq	_ZN4asio6detail15keyword_tss_ptrINS0_10call_stackINS0_15task_io_serviceENS0_27task_io_service_thread_infoEE7contextEE6value_E@tlsgd(%rip), %rdi
	.value	0x6666
	rex64
	call	__tls_get_addr@PLT
	movq	(%rax), %rax
	testq	%rax, %rax
	je	.L1143
	movq	8(%rax), %rax
	testq	%rax, %rax
	je	.L1143
	movq	(%rax), %rbx
	testq	%rbx, %rbx
	je	.L1143
	movq	$0, (%rax)
	movzbl	(%rbx), %eax
	cmpb	$39, %al
	jbe	.L1144
	movb	%al, 40(%rbx)
	jmp	.L1145
.L1144:
	movq	%rbx, %rdi
	call	_ZdlPv@PLT
.L1143:
	movl	$41, %edi
	leaq	64(%rsp), %r12
.LEHB41:
	call	_Znwm@PLT
	movb	$40, 40(%rax)
	movq	%rax, %rbx
.L1145:
	leaq	_ZN4asio6detail18completion_handlerIZN7asiopal8Executor10BlockUntilERKSt8functionIFvvEEEUlvE_E11do_completeEPNS0_15task_io_serviceEPNS0_25task_io_service_operationERKSt10error_codem(%rip), %rax
	leaq	64(%rsp), %r12
	movq	%r13, 24(%rbx)
	movq	%rbx, %xmm1
	movq	%rax, 8(%rbx)
	movq	48(%r14), %rax
	punpcklqdq	%xmm1, %xmm1
	movq	$0, (%rbx)
	movl	$0, 16(%rbx)
	leaq	24(%rax), %rdi
	movq	%r12, 32(%rbx)
	movaps	%xmm1, 16(%rsp)
	call	pthread_mutex_lock@PLT
	movq	48(%r14), %rax
	cmpb	$0, 64(%rax)
	je	.L1146
	movq	$0, (%rbx)
	movq	80(%rax), %rdx
	testq	%rdx, %rdx
	je	.L1147
	movq	%rbx, (%rdx)
	movq	%rbx, 80(%rax)
.L1148:
	leaq	24(%rax), %rdi
	call	pthread_mutex_unlock@PLT
.L1149:
	movq	(%r15), %rax
	movq	%r15, %rdi
	call	*16(%rax)
	movl	16(%r15), %edx
	leaq	16(%r15), %rbx
	andl	$2147483647, %edx
	cmpl	$1, %edx
	jne	.L1163
	jmp	.L1162
	.p2align 4,,10
	.p2align 3
.L1217:
	cmpb	$1, %al
	jne	.L1162
.L1163:
	lock orl	$-2147483648, (%rbx)
	xorl	%r9d, %r9d
	xorl	%r8d, %r8d
	xorl	%ecx, %ecx
	orl	$-2147483648, %edx
	movq	%rbx, %rsi
	movq	%rbx, %rdi
	call	_ZNSt28__atomic_futex_unsigned_base19_M_futex_wait_untilEPjjbNSt6chrono8durationIlSt5ratioILl1ELl1EEEENS2_IlS3_ILl1ELl1000000000EEEE@PLT
.LEHE41:
	movl	(%rbx), %edx
	andl	$2147483647, %edx
	cmpl	$1, %edx
	jne	.L1217
.L1162:
	testq	%rbp, %rbp
	je	.L1166
	movq	__libc_single_threaded@GOTPCREL(%rip), %rbx
	cmpb	$0, (%rbx)
	je	.L1167
	movl	8(%rbp), %eax
	leal	-1(%rax), %edx
	movl	%edx, 8(%rbp)
.L1168:
	cmpl	$1, %eax
	je	.L1218
.L1166:
	movq	%r12, %rdi
	call	_ZNSt7promiseIbED1Ev@PLT
	movq	88(%rsp), %rax
	subq	%fs:40, %rax
	jne	.L1212
	addq	$104, %rsp
	.cfi_remember_state
	.cfi_def_cfa_offset 56
	popq	%rbx
	.cfi_def_cfa_offset 48
	popq	%rbp
	.cfi_def_cfa_offset 40
	popq	%r12
	.cfi_def_cfa_offset 32
	popq	%r13
	.cfi_def_cfa_offset 24
	popq	%r14
	.cfi_def_cfa_offset 16
	popq	%r15
	.cfi_def_cfa_offset 8
	ret
.L1146:
	.cfi_restore_state
	movb	$1, 64(%rax)
	leaq	24(%rax), %rdi
	call	pthread_mutex_unlock@PLT
	movq	48(%r14), %r13
	movq	$0, (%rbx)
	movq	%r13, %xmm3
	cmpq	$0, 96(%r13)
	punpcklqdq	%xmm3, %xmm3
	movaps	%xmm3, 32(%rsp)
	je	.L1150
	movq	96(%r13), %rax
	movq	%rbx, (%rax)
	movq	%rbx, 96(%r13)
.L1151:
	movq	8(%rsp), %rax
	movq	40(%rax), %rbx
	cmpb	$0, 40(%rbx)
	jne	.L1219
.L1152:
	lock addq	$1, 184(%rbx)
	leaq	48(%rbx), %r14
	movq	%r14, %rdi
	call	pthread_mutex_lock@PLT
	cmpq	$0, 200(%rbx)
	movq	$0, 0(%r13)
	je	.L1157
	movq	200(%rbx), %rax
	movq	%r13, (%rax)
	movq	%r13, 200(%rbx)
.L1158:
	movq	136(%rbx), %rax
	orq	$1, %rax
	movq	%rax, 136(%rbx)
	cmpq	$1, %rax
	je	.L1159
	movq	%r14, %rdi
	call	pthread_mutex_unlock@PLT
	leaq	88(%rbx), %rdi
	call	pthread_cond_signal@PLT
	jmp	.L1149
.L1150:
	movdqa	16(%rsp), %xmm5
	movups	%xmm5, 88(%r13)
	jmp	.L1151
.L1219:
	data16	leaq	_ZN4asio6detail15keyword_tss_ptrINS0_10call_stackINS0_15task_io_serviceENS0_27task_io_service_thread_infoEE7contextEE6value_E@tlsgd(%rip), %rdi
	.value	0x6666
	rex64
	call	__tls_get_addr@PLT
	movq	(%rax), %rax
	testq	%rax, %rax
	jne	.L1155
	jmp	.L1152
	.p2align 4,,10
	.p2align 3
.L1153:
	movq	16(%rax), %rax
	testq	%rax, %rax
	je	.L1152
.L1155:
	cmpq	(%rax), %rbx
	jne	.L1153
	movq	8(%rax), %rax
	testq	%rax, %rax
	je	.L1152
	addq	$1, 24(%rax)
	movq	$0, 0(%r13)
	movq	16(%rax), %rdx
	testq	%rdx, %rdx
	je	.L1156
	movq	%r13, (%rdx)
	movq	%r13, 16(%rax)
	jmp	.L1149
.L1137:
	lock addl	$1, 8(%rbp)
	jmp	.L1134
.L1147:
	movdqa	16(%rsp), %xmm4
	movups	%xmm4, 72(%rax)
	jmp	.L1148
.L1167:
	movl	$-1, %eax
	lock xaddl	%eax, 8(%rbp)
	jmp	.L1168
.L1218:
	movq	0(%rbp), %rax
	movq	%rbp, %rdi
	call	*16(%rax)
	cmpb	$0, (%rbx)
	je	.L1170
	movl	12(%rbp), %eax
	leal	-1(%rax), %edx
	movl	%edx, 12(%rbp)
.L1171:
	cmpl	$1, %eax
	jne	.L1166
	movq	0(%rbp), %rax
	movq	%rbp, %rdi
	call	*24(%rax)
	jmp	.L1166
.L1159:
	cmpb	$0, 176(%rbx)
	jne	.L1161
	movq	144(%rbx), %rax
	testq	%rax, %rax
	je	.L1161
	leaq	88(%rax), %rdx
	movb	$1, 176(%rbx)
	movl	96(%rax), %edi
	leaq	52(%rsp), %rcx
	movq	%rdx, 56(%rsp)
	movl	88(%rax), %edx
	movl	$3, %esi
	movl	$-2147483639, 52(%rsp)
	call	epoll_ctl@PLT
.L1161:
	movq	%r14, %rdi
	call	pthread_mutex_unlock@PLT
	jmp	.L1149
.L1157:
	movdqa	32(%rsp), %xmm7
	movups	%xmm7, 192(%rbx)
	jmp	.L1158
.L1170:
	movl	$-1, %eax
	lock xaddl	%eax, 12(%rbp)
	jmp	.L1171
.L1156:
	movdqa	32(%rsp), %xmm6
	movups	%xmm6, 8(%rax)
	jmp	.L1149
.L1216:
	movl	$1, %edi
.LEHB42:
	call	_ZSt20__throw_future_errori@PLT
.LEHE42:
.L1214:
.LEHB43:
	call	_ZSt25__throw_bad_function_callv@PLT
.LEHE43:
.L1212:
	call	__stack_chk_fail@PLT
.L1215:
	movl	$3, %edi
.LEHB44:
	call	_ZSt20__throw_future_errori@PLT
.LEHE44:
.L1176:
	endbr64
	movq	%rax, %rbx
	jmp	.L1140
.L1175:
	endbr64
	movq	%rax, %rbx
	jmp	.L1172
.L1177:
	endbr64
	movq	%rax, %rbp
	jmp	.L1135
	.section	.gcc_except_table
.LLSDA7060:
	.byte	0xff
	.byte	0xff
	.byte	0x1
	.uleb128 .LLSDACSE7060-.LLSDACSB7060
.LLSDACSB7060:
	.uleb128 .LEHB39-.LFB7060
	.uleb128 .LEHE39-.LEHB39
	.uleb128 0
	.uleb128 0
	.uleb128 .LEHB40-.LFB7060
	.uleb128 .LEHE40-.LEHB40
	.uleb128 .L1177-.LFB7060
	.uleb128 0
	.uleb128 .LEHB41-.LFB7060
	.uleb128 .LEHE41-.LEHB41
	.uleb128 .L1175-.LFB7060
	.uleb128 0
	.uleb128 .LEHB42-.LFB7060
	.uleb128 .LEHE42-.LEHB42
	.uleb128 .L1176-.LFB7060
	.uleb128 0
	.uleb128 .LEHB43-.LFB7060
	.uleb128 .LEHE43-.LEHB43
	.uleb128 0
	.uleb128 0
	.uleb128 .LEHB44-.LFB7060
	.uleb128 .LEHE44-.LEHB44
	.uleb128 .L1176-.LFB7060
	.uleb128 0
.LLSDACSE7060:
	.text
	.cfi_endproc
	.section	.text.unlikely
	.cfi_startproc
	.cfi_personality 0x9b,DW.ref.__gxx_personality_v0
	.cfi_lsda 0x1b,.LLSDAC7060
	.type	_ZN7asiopal8Executor10BlockUntilERKSt8functionIFvvEE.cold, @function
_ZN7asiopal8Executor10BlockUntilERKSt8functionIFvvEE.cold:
.LFSB7060:
.L1140:
	.cfi_def_cfa_offset 160
	.cfi_offset 3, -56
	.cfi_offset 6, -48
	.cfi_offset 12, -40
	.cfi_offset 13, -32
	.cfi_offset 14, -24
	.cfi_offset 15, -16
	testq	%rbp, %rbp
	je	.L1141
	movq	%rbp, %rdi
	call	_ZNSt16_Sp_counted_baseILN9__gnu_cxx12_Lock_policyE2EE10_M_releaseEv@PLT
.L1141:
	leaq	64(%rsp), %r12
.L1142:
	movq	%r12, %rdi
	call	_ZNSt7promiseIbED1Ev@PLT
	movq	%rbx, %rdi
.LEHB45:
	call	_Unwind_Resume@PLT
.L1172:
	testq	%rbp, %rbp
	je	.L1142
	movq	%rbp, %rdi
	call	_ZNSt16_Sp_counted_baseILN9__gnu_cxx12_Lock_policyE2EE10_M_releaseEv@PLT
	jmp	.L1142
.L1135:
	movq	72(%rsp), %rdi
	testq	%rdi, %rdi
	je	.L1136
	call	_ZNSt16_Sp_counted_baseILN9__gnu_cxx12_Lock_policyE2EE10_M_releaseEv@PLT
.L1136:
	movq	%rbp, %rdi
	call	_Unwind_Resume@PLT
.LEHE45:
	.cfi_endproc
.LFE7060:
	.section	.gcc_except_table
.LLSDAC7060:
	.byte	0xff
	.byte	0xff
	.byte	0x1
	.uleb128 .LLSDACSEC7060-.LLSDACSBC7060
.LLSDACSBC7060:
	.uleb128 .LEHB45-.LCOLDB31
	.uleb128 .LEHE45-.LEHB45
	.uleb128 0
	.uleb128 0
.LLSDACSEC7060:
	.section	.text.unlikely
	.text
	.size	_ZN7asiopal8Executor10BlockUntilERKSt8functionIFvvEE, .-_ZN7asiopal8Executor10BlockUntilERKSt8functionIFvvEE
	.section	.text.unlikely
	.size	_ZN7asiopal8Executor10BlockUntilERKSt8functionIFvvEE.cold, .-_ZN7asiopal8Executor10BlockUntilERKSt8functionIFvvEE.cold
.LCOLDE31:
	.text
.LHOTE31:
	.section	.text.unlikely
	.align 2
.LCOLDB32:
	.text
.LHOTB32:
	.align 2
	.p2align 4
	.globl	_ZN7asiopal8Executor18BlockUntilAndFlushERKSt8functionIFvvEE
	.type	_ZN7asiopal8Executor18BlockUntilAndFlushERKSt8functionIFvvEE, @function
_ZN7asiopal8Executor18BlockUntilAndFlushERKSt8functionIFvvEE:
.LFB7075:
	.cfi_startproc
	.cfi_personality 0x9b,DW.ref.__gxx_personality_v0
	.cfi_lsda 0x1b,.LLSDA7075
	endbr64
	pushq	%r12
	.cfi_def_cfa_offset 16
	.cfi_offset 12, -16
	pushq	%rbp
	.cfi_def_cfa_offset 24
	.cfi_offset 6, -24
	movq	%rdi, %rbp
	subq	$56, %rsp
	.cfi_def_cfa_offset 80
	movq	%fs:40, %rax
	movq	%rax, 40(%rsp)
	xorl	%eax, %eax
	movq	%rsp, %r12
.LEHB46:
	call	_ZN7asiopal8Executor10BlockUntilERKSt8functionIFvvEE@PLT
.LEHE46:
	pxor	%xmm0, %xmm0
	movq	%r12, %rsi
	movq	%rbp, %rdi
	leaq	_ZNSt17_Function_handlerIFvvEZN7asiopal8Executor18BlockUntilAndFlushERKSt8functionIS0_EEUlvE_E9_M_invokeERKSt9_Any_data(%rip), %rax
	leaq	_ZNSt17_Function_handlerIFvvEZN7asiopal8Executor18BlockUntilAndFlushERKSt8functionIS0_EEUlvE_E10_M_managerERSt9_Any_dataRKS9_St18_Manager_operation(%rip), %rcx
	movaps	%xmm0, (%rsp)
	movq	%rax, %xmm1
	movq	%rcx, %xmm0
	punpcklqdq	%xmm1, %xmm0
	movaps	%xmm0, 16(%rsp)
.LEHB47:
	call	_ZN7asiopal8Executor10BlockUntilERKSt8functionIFvvEE@PLT
.LEHE47:
	movq	16(%rsp), %rax
	testq	%rax, %rax
	je	.L1220
	movl	$3, %edx
	movq	%r12, %rsi
	movq	%r12, %rdi
	call	*%rax
.L1220:
	movq	40(%rsp), %rax
	subq	%fs:40, %rax
	jne	.L1233
	addq	$56, %rsp
	.cfi_remember_state
	.cfi_def_cfa_offset 24
	popq	%rbp
	.cfi_def_cfa_offset 16
	popq	%r12
	.cfi_def_cfa_offset 8
	ret
.L1233:
	.cfi_restore_state
	call	__stack_chk_fail@PLT
.L1225:
	endbr64
	movq	%rax, %rbp
	jmp	.L1222
	.section	.gcc_except_table
.LLSDA7075:
	.byte	0xff
	.byte	0xff
	.byte	0x1
	.uleb128 .LLSDACSE7075-.LLSDACSB7075
.LLSDACSB7075:
	.uleb128 .LEHB46-.LFB7075
	.uleb128 .LEHE46-.LEHB46
	.uleb128 0
	.uleb128 0
	.uleb128 .LEHB47-.LFB7075
	.uleb128 .LEHE47-.LEHB47
	.uleb128 .L1225-.LFB7075
	.uleb128 0
.LLSDACSE7075:
	.text
	.cfi_endproc
	.section	.text.unlikely
	.cfi_startproc
	.cfi_personality 0x9b,DW.ref.__gxx_personality_v0
	.cfi_lsda 0x1b,.LLSDAC7075
	.type	_ZN7asiopal8Executor18BlockUntilAndFlushERKSt8functionIFvvEE.cold, @function
_ZN7asiopal8Executor18BlockUntilAndFlushERKSt8functionIFvvEE.cold:
.LFSB7075:
.L1222:
	.cfi_def_cfa_offset 80
	.cfi_offset 6, -24
	.cfi_offset 12, -16
	movq	16(%rsp), %rax
	testq	%rax, %rax
	je	.L1223
	movl	$3, %edx
	movq	%r12, %rsi
	movq	%r12, %rdi
	call	*%rax
.L1223:
	movq	%rbp, %rdi
.LEHB48:
	call	_Unwind_Resume@PLT
.LEHE48:
	.cfi_endproc
.LFE7075:
	.section	.gcc_except_table
.LLSDAC7075:
	.byte	0xff
	.byte	0xff
	.byte	0x1
	.uleb128 .LLSDACSEC7075-.LLSDACSBC7075
.LLSDACSBC7075:
	.uleb128 .LEHB48-.LCOLDB32
	.uleb128 .LEHE48-.LEHB48
	.uleb128 0
	.uleb128 0
.LLSDACSEC7075:
	.section	.text.unlikely
	.text
	.size	_ZN7asiopal8Executor18BlockUntilAndFlushERKSt8functionIFvvEE, .-_ZN7asiopal8Executor18BlockUntilAndFlushERKSt8functionIFvvEE
	.section	.text.unlikely
	.size	_ZN7asiopal8Executor18BlockUntilAndFlushERKSt8functionIFvvEE.cold, .-_ZN7asiopal8Executor18BlockUntilAndFlushERKSt8functionIFvvEE.cold
.LCOLDE32:
	.text
.LHOTE32:
	.section	.text.unlikely
.LCOLDB33:
	.text
.LHOTB33:
	.p2align 4
	.type	_ZN4asio6detail18completion_handlerINS0_7binder1IZN7asiopal8Executor5StartERKNSt6chrono10time_pointINS5_3_V212steady_clockENS5_8durationIlSt5ratioILl1ELl1000000000EEEEEERKSt8functionIFvvEEEUlRKSt10error_codeE_SL_EEE11do_completeEPNS0_15task_io_serviceEPNS0_25task_io_service_operationESN_m, @function
_ZN4asio6detail18completion_handlerINS0_7binder1IZN7asiopal8Executor5StartERKNSt6chrono10time_pointINS5_3_V212steady_clockENS5_8durationIlSt5ratioILl1ELl1000000000EEEEEERKSt8functionIFvvEEEUlRKSt10error_codeE_SL_EEE11do_completeEPNS0_15task_io_serviceEPNS0_25task_io_service_operationESN_m:
.LFB9437:
	.cfi_startproc
	.cfi_personality 0x9b,DW.ref.__gxx_personality_v0
	.cfi_lsda 0x1b,.LLSDA9437
	endbr64
	pushq	%r14
	.cfi_def_cfa_offset 16
	.cfi_offset 14, -16
	movq	%rsi, %xmm1
	pushq	%r13
	.cfi_def_cfa_offset 24
	.cfi_offset 13, -24
	pushq	%r12
	.cfi_def_cfa_offset 32
	.cfi_offset 12, -32
	movq	%rdi, %r12
	pushq	%rbp
	.cfi_def_cfa_offset 40
	.cfi_offset 6, -40
	movq	%rsi, %rbp
	subq	$136, %rsp
	.cfi_def_cfa_offset 176
	movdqu	24(%rsi), %xmm2
	movq	%fs:40, %rax
	movq	%rax, 120(%rsp)
	xorl	%eax, %eax
	leaq	24(%rsi), %rax
	movq	%rsi, 16(%rsp)
	movq	%rax, %xmm0
	movq	56(%rsi), %rax
	movaps	%xmm2, 32(%rsp)
	movq	$0, 64(%rsp)
	punpcklqdq	%xmm1, %xmm0
	movaps	%xmm0, (%rsp)
	pxor	%xmm0, %xmm0
	movups	%xmm0, 24(%rsi)
	pxor	%xmm0, %xmm0
	movq	$0, 72(%rsp)
	movaps	%xmm0, 48(%rsp)
	testq	%rax, %rax
	je	.L1235
	leaq	40(%rsi), %r13
	leaq	48(%rsp), %r14
	movl	$2, %edx
	movq	%r13, %rsi
	movq	%r14, %rdi
.LEHB49:
	call	*%rax
.LEHE49:
	movdqu	56(%rbp), %xmm3
	movdqu	72(%rbp), %xmm4
	leaq	32(%rsp), %r14
	movdqu	88(%rbp), %xmm5
	movq	56(%rbp), %rax
	movq	%r14, (%rsp)
	movaps	%xmm3, 64(%rsp)
	movaps	%xmm4, 80(%rsp)
	movaps	%xmm5, 96(%rsp)
	testq	%rax, %rax
	je	.L1237
	movl	$3, %edx
	movq	%r13, %rsi
	movq	%r13, %rdi
	call	*%rax
.L1237:
	movq	32(%rbp), %r13
	testq	%r13, %r13
	je	.L1242
	movq	__libc_single_threaded@GOTPCREL(%rip), %rbp
	cmpb	$0, 0(%rbp)
	je	.L1243
	movl	8(%r13), %eax
	leal	-1(%rax), %edx
	movl	%edx, 8(%r13)
.L1244:
	cmpl	$1, %eax
	je	.L1245
	movq	8(%rsp), %rbp
.L1246:
	movq	$0, 16(%rsp)
	testq	%rbp, %rbp
	jne	.L1290
	jmp	.L1249
	.p2align 4,,10
	.p2align 3
.L1242:
	movq	$0, 16(%rsp)
.L1290:
	data16	leaq	_ZN4asio6detail15keyword_tss_ptrINS0_10call_stackINS0_15task_io_serviceENS0_27task_io_service_thread_infoEE7contextEE6value_E@tlsgd(%rip), %rdi
	.value	0x6666
	rex64
	call	__tls_get_addr@PLT
	movq	(%rax), %rax
	testq	%rax, %rax
	je	.L1250
	movq	8(%rax), %rax
	testq	%rax, %rax
	je	.L1250
	cmpq	$0, (%rax)
	je	.L1332
.L1250:
	movq	%rbp, %rdi
	call	_ZdlPv@PLT
.L1251:
	movq	$0, 8(%rsp)
.L1249:
	testq	%r12, %r12
	je	.L1252
	movl	96(%rsp), %eax
	testl	%eax, %eax
	jne	.L1253
	cmpq	$0, 64(%rsp)
	je	.L1333
	leaq	48(%rsp), %rdi
.LEHB50:
	call	*72(%rsp)
.LEHE50:
.L1253:
	sfence
.L1252:
	movq	88(%rsp), %r12
	testq	%r12, %r12
	je	.L1256
	movq	__libc_single_threaded@GOTPCREL(%rip), %rbp
	cmpb	$0, 0(%rbp)
	je	.L1257
	movl	8(%r12), %eax
	leal	-1(%rax), %edx
	movl	%edx, 8(%r12)
.L1258:
	cmpl	$1, %eax
	je	.L1334
.L1256:
	movq	64(%rsp), %rax
	testq	%rax, %rax
	je	.L1262
	leaq	48(%rsp), %rdi
	movl	$3, %edx
	movq	%rdi, %rsi
	call	*%rax
.L1262:
	movq	40(%rsp), %r12
	testq	%r12, %r12
	je	.L1264
	movq	__libc_single_threaded@GOTPCREL(%rip), %rbp
	cmpb	$0, 0(%rbp)
	je	.L1265
	movl	8(%r12), %eax
	leal	-1(%rax), %edx
	movl	%edx, 8(%r12)
.L1266:
	cmpl	$1, %eax
	je	.L1335
.L1264:
	movq	16(%rsp), %r12
	testq	%r12, %r12
	je	.L1270
	movq	80(%r12), %r13
	testq	%r13, %r13
	je	.L1272
	movq	__libc_single_threaded@GOTPCREL(%rip), %rbp
	cmpb	$0, 0(%rbp)
	je	.L1273
	movl	8(%r13), %eax
	leal	-1(%rax), %edx
	movl	%edx, 8(%r13)
.L1274:
	cmpl	$1, %eax
	jne	.L1272
	movq	0(%r13), %rax
	movq	%r13, %rdi
	call	*16(%rax)
	cmpb	$0, 0(%rbp)
	je	.L1276
	movl	12(%r13), %eax
	leal	-1(%rax), %edx
	movl	%edx, 12(%r13)
.L1277:
	cmpl	$1, %eax
	je	.L1336
	.p2align 4,,10
	.p2align 3
.L1272:
	movq	56(%r12), %rax
	testq	%rax, %rax
	je	.L1278
	leaq	40(%r12), %rdi
	movl	$3, %edx
	movq	%rdi, %rsi
	call	*%rax
.L1278:
	movq	32(%r12), %r12
	testq	%r12, %r12
	je	.L1280
	movq	__libc_single_threaded@GOTPCREL(%rip), %rbp
	cmpb	$0, 0(%rbp)
	je	.L1281
	movl	8(%r12), %eax
	leal	-1(%rax), %edx
	movl	%edx, 8(%r12)
.L1282:
	cmpl	$1, %eax
	jne	.L1280
	movq	(%r12), %rax
	movq	%r12, %rdi
	call	*16(%rax)
	cmpb	$0, 0(%rbp)
	je	.L1284
	movl	12(%r12), %eax
	leal	-1(%rax), %edx
	movl	%edx, 12(%r12)
.L1285:
	cmpl	$1, %eax
	je	.L1337
	.p2align 4,,10
	.p2align 3
.L1280:
	movq	$0, 16(%rsp)
.L1270:
	movq	8(%rsp), %rbp
	testq	%rbp, %rbp
	je	.L1234
	data16	leaq	_ZN4asio6detail15keyword_tss_ptrINS0_10call_stackINS0_15task_io_serviceENS0_27task_io_service_thread_infoEE7contextEE6value_E@tlsgd(%rip), %rdi
	.value	0x6666
	rex64
	call	__tls_get_addr@PLT
	movq	(%rax), %rax
	testq	%rax, %rax
	je	.L1287
	movq	8(%rax), %rax
	testq	%rax, %rax
	je	.L1287
	cmpq	$0, (%rax)
	je	.L1338
.L1287:
	movq	120(%rsp), %rax
	subq	%fs:40, %rax
	jne	.L1331
	addq	$136, %rsp
	.cfi_remember_state
	.cfi_def_cfa_offset 40
	movq	%rbp, %rdi
	popq	%rbp
	.cfi_def_cfa_offset 32
	popq	%r12
	.cfi_def_cfa_offset 24
	popq	%r13
	.cfi_def_cfa_offset 16
	popq	%r14
	.cfi_def_cfa_offset 8
	jmp	_ZdlPv@PLT
	.p2align 4,,10
	.p2align 3
.L1338:
	.cfi_restore_state
	movzbl	104(%rbp), %edx
	movb	%dl, 0(%rbp)
	movq	%rbp, (%rax)
.L1234:
	movq	120(%rsp), %rax
	subq	%fs:40, %rax
	jne	.L1331
	addq	$136, %rsp
	.cfi_remember_state
	.cfi_def_cfa_offset 40
	popq	%rbp
	.cfi_def_cfa_offset 32
	popq	%r12
	.cfi_def_cfa_offset 24
	popq	%r13
	.cfi_def_cfa_offset 16
	popq	%r14
	.cfi_def_cfa_offset 8
	ret
	.p2align 4,,10
	.p2align 3
.L1273:
	.cfi_restore_state
	movl	$-1, %eax
	lock xaddl	%eax, 8(%r13)
	jmp	.L1274
	.p2align 4,,10
	.p2align 3
.L1281:
	movl	$-1, %eax
	lock xaddl	%eax, 8(%r12)
	jmp	.L1282
	.p2align 4,,10
	.p2align 3
.L1243:
	movl	$-1, %eax
	lock xaddl	%eax, 8(%r13)
	jmp	.L1244
	.p2align 4,,10
	.p2align 3
.L1335:
	movq	(%r12), %rax
	movq	%r12, %rdi
	call	*16(%rax)
	cmpb	$0, 0(%rbp)
	je	.L1268
	movl	12(%r12), %eax
	leal	-1(%rax), %edx
	movl	%edx, 12(%r12)
.L1269:
	cmpl	$1, %eax
	jne	.L1264
	movq	(%r12), %rax
	movq	%r12, %rdi
	call	*24(%rax)
	jmp	.L1264
	.p2align 4,,10
	.p2align 3
.L1334:
	movq	(%r12), %rax
	movq	%r12, %rdi
	call	*16(%rax)
	cmpb	$0, 0(%rbp)
	je	.L1260
	movl	12(%r12), %eax
	leal	-1(%rax), %edx
	movl	%edx, 12(%r12)
.L1261:
	cmpl	$1, %eax
	jne	.L1256
	movq	(%r12), %rax
	movq	%r12, %rdi
	call	*24(%rax)
	jmp	.L1256
	.p2align 4,,10
	.p2align 3
.L1265:
	movl	$-1, %eax
	lock xaddl	%eax, 8(%r12)
	jmp	.L1266
	.p2align 4,,10
	.p2align 3
.L1257:
	movl	$-1, %eax
	lock xaddl	%eax, 8(%r12)
	jmp	.L1258
	.p2align 4,,10
	.p2align 3
.L1235:
	movdqu	72(%rsi), %xmm6
	movdqu	88(%rsi), %xmm7
	leaq	32(%rsp), %r14
	movq	%r14, (%rsp)
	movaps	%xmm6, 80(%rsp)
	movaps	%xmm7, 96(%rsp)
	jmp	.L1237
	.p2align 4,,10
	.p2align 3
.L1245:
	movq	0(%r13), %rax
	movq	%r13, %rdi
	call	*16(%rax)
	cmpb	$0, 0(%rbp)
	je	.L1247
	movl	12(%r13), %eax
	leal	-1(%rax), %edx
	movl	%edx, 12(%r13)
.L1248:
	movq	8(%rsp), %rbp
	cmpl	$1, %eax
	jne	.L1246
	movq	0(%r13), %rax
	movq	%r13, %rdi
	call	*24(%rax)
	jmp	.L1246
	.p2align 4,,10
	.p2align 3
.L1332:
	movzbl	104(%rbp), %edx
	movb	%dl, 0(%rbp)
	movq	%rbp, (%rax)
	jmp	.L1251
	.p2align 4,,10
	.p2align 3
.L1260:
	movl	$-1, %eax
	lock xaddl	%eax, 12(%r12)
	jmp	.L1261
	.p2align 4,,10
	.p2align 3
.L1268:
	movl	$-1, %eax
	lock xaddl	%eax, 12(%r12)
	jmp	.L1269
	.p2align 4,,10
	.p2align 3
.L1336:
	movq	0(%r13), %rax
	movq	%r13, %rdi
	call	*24(%rax)
	jmp	.L1272
	.p2align 4,,10
	.p2align 3
.L1337:
	movq	(%r12), %rax
	movq	%r12, %rdi
	call	*24(%rax)
	jmp	.L1280
	.p2align 4,,10
	.p2align 3
.L1284:
	movl	$-1, %eax
	lock xaddl	%eax, 12(%r12)
	jmp	.L1285
	.p2align 4,,10
	.p2align 3
.L1247:
	movl	$-1, %eax
	lock xaddl	%eax, 12(%r13)
	jmp	.L1248
	.p2align 4,,10
	.p2align 3
.L1276:
	movl	$-1, %eax
	lock xaddl	%eax, 12(%r13)
	jmp	.L1277
.L1331:
	call	__stack_chk_fail@PLT
.L1333:
.LEHB51:
	call	_ZSt25__throw_bad_function_callv@PLT
.LEHE51:
.L1292:
	endbr64
	movq	%rax, %rbp
	jmp	.L1289
.L1293:
	endbr64
	movq	%rax, %rbp
	jmp	.L1238
	.section	.gcc_except_table
.LLSDA9437:
	.byte	0xff
	.byte	0xff
	.byte	0x1
	.uleb128 .LLSDACSE9437-.LLSDACSB9437
.LLSDACSB9437:
	.uleb128 .LEHB49-.LFB9437
	.uleb128 .LEHE49-.LEHB49
	.uleb128 .L1293-.LFB9437
	.uleb128 0
	.uleb128 .LEHB50-.LFB9437
	.uleb128 .LEHE50-.LEHB50
	.uleb128 .L1292-.LFB9437
	.uleb128 0
	.uleb128 .LEHB51-.LFB9437
	.uleb128 .LEHE51-.LEHB51
	.uleb128 .L1292-.LFB9437
	.uleb128 0
.LLSDACSE9437:
	.text
	.cfi_endproc
	.section	.text.unlikely
	.cfi_startproc
	.cfi_personality 0x9b,DW.ref.__gxx_personality_v0
	.cfi_lsda 0x1b,.LLSDAC9437
	.type	_ZN4asio6detail18completion_handlerINS0_7binder1IZN7asiopal8Executor5StartERKNSt6chrono10time_pointINS5_3_V212steady_clockENS5_8durationIlSt5ratioILl1ELl1000000000EEEEEERKSt8functionIFvvEEEUlRKSt10error_codeE_SL_EEE11do_completeEPNS0_15task_io_serviceEPNS0_25task_io_service_operationESN_m.cold, @function
_ZN4asio6detail18completion_handlerINS0_7binder1IZN7asiopal8Executor5StartERKNSt6chrono10time_pointINS5_3_V212steady_clockENS5_8durationIlSt5ratioILl1ELl1000000000EEEEEERKSt8functionIFvvEEEUlRKSt10error_codeE_SL_EEE11do_completeEPNS0_15task_io_serviceEPNS0_25task_io_service_operationESN_m.cold:
.LFSB9437:
.L1289:
	.cfi_def_cfa_offset 176
	.cfi_offset 6, -40
	.cfi_offset 12, -32
	.cfi_offset 13, -24
	.cfi_offset 14, -16
	sfence
	movq	%r14, %rdi
	call	_ZZN7asiopal8Executor5StartERKNSt6chrono10time_pointINS1_3_V212steady_clockENS1_8durationIlSt5ratioILl1ELl1000000000EEEEEERKSt8functionIFvvEEENUlRKSt10error_codeE_D1Ev
.L1241:
	movq	%rsp, %rdi
	call	_ZN4asio6detail18completion_handlerINS0_7binder1IZN7asiopal8Executor5StartERKNSt6chrono10time_pointINS5_3_V212steady_clockENS5_8durationIlSt5ratioILl1ELl1000000000EEEEEERKSt8functionIFvvEEEUlRKSt10error_codeE_SL_EEE3ptr5resetEv
	movq	%rbp, %rdi
.LEHB52:
	call	_Unwind_Resume@PLT
.LEHE52:
.L1238:
	movq	64(%rsp), %rax
	testq	%rax, %rax
	je	.L1239
	movl	$3, %edx
	movq	%r14, %rsi
	movq	%r14, %rdi
	call	*%rax
.L1239:
	movq	40(%rsp), %rdi
	testq	%rdi, %rdi
	je	.L1241
	call	_ZNSt16_Sp_counted_baseILN9__gnu_cxx12_Lock_policyE2EE10_M_releaseEv@PLT
	jmp	.L1241
	.cfi_endproc
.LFE9437:
	.section	.gcc_except_table
.LLSDAC9437:
	.byte	0xff
	.byte	0xff
	.byte	0x1
	.uleb128 .LLSDACSEC9437-.LLSDACSBC9437
.LLSDACSBC9437:
	.uleb128 .LEHB52-.LCOLDB33
	.uleb128 .LEHE52-.LEHB52
	.uleb128 0
	.uleb128 0
.LLSDACSEC9437:
	.section	.text.unlikely
	.text
	.size	_ZN4asio6detail18completion_handlerINS0_7binder1IZN7asiopal8Executor5StartERKNSt6chrono10time_pointINS5_3_V212steady_clockENS5_8durationIlSt5ratioILl1ELl1000000000EEEEEERKSt8functionIFvvEEEUlRKSt10error_codeE_SL_EEE11do_completeEPNS0_15task_io_serviceEPNS0_25task_io_service_operationESN_m, .-_ZN4asio6detail18completion_handlerINS0_7binder1IZN7asiopal8Executor5StartERKNSt6chrono10time_pointINS5_3_V212steady_clockENS5_8durationIlSt5ratioILl1ELl1000000000EEEEEERKSt8functionIFvvEEEUlRKSt10error_codeE_SL_EEE11do_completeEPNS0_15task_io_serviceEPNS0_25task_io_service_operationESN_m
	.section	.text.unlikely
	.size	_ZN4asio6detail18completion_handlerINS0_7binder1IZN7asiopal8Executor5StartERKNSt6chrono10time_pointINS5_3_V212steady_clockENS5_8durationIlSt5ratioILl1ELl1000000000EEEEEERKSt8functionIFvvEEEUlRKSt10error_codeE_SL_EEE11do_completeEPNS0_15task_io_serviceEPNS0_25task_io_service_operationESN_m.cold, .-_ZN4asio6detail18completion_handlerINS0_7binder1IZN7asiopal8Executor5StartERKNSt6chrono10time_pointINS5_3_V212steady_clockENS5_8durationIlSt5ratioILl1ELl1000000000EEEEEERKSt8functionIFvvEEEUlRKSt10error_codeE_SL_EEE11do_completeEPNS0_15task_io_serviceEPNS0_25task_io_service_operationESN_m.cold
.LCOLDE33:
	.text
.LHOTE33:
	.section	.text.unlikely
.LCOLDB34:
	.text
.LHOTB34:
	.p2align 4
	.type	_ZN4asio6detail18completion_handlerINS0_17rewrapped_handlerINS0_7binder1INS0_15wrapped_handlerINS_10io_service6strandEZN7asiopal8Executor5StartERKNSt6chrono10time_pointINS9_3_V212steady_clockENS9_8durationIlSt5ratioILl1ELl1000000000EEEEEERKSt8functionIFvvEEEUlRKSt10error_codeE_NS0_26is_continuation_if_runningEEESP_EESS_EEE11do_completeEPNS0_15task_io_serviceEPNS0_25task_io_service_operationESR_m, @function
_ZN4asio6detail18completion_handlerINS0_17rewrapped_handlerINS0_7binder1INS0_15wrapped_handlerINS_10io_service6strandEZN7asiopal8Executor5StartERKNSt6chrono10time_pointINS9_3_V212steady_clockENS9_8durationIlSt5ratioILl1ELl1000000000EEEEEERKSt8functionIFvvEEEUlRKSt10error_codeE_NS0_26is_continuation_if_runningEEESP_EESS_EEE11do_completeEPNS0_15task_io_serviceEPNS0_25task_io_service_operationESR_m:
.LFB9356:
	.cfi_startproc
	.cfi_personality 0x9b,DW.ref.__gxx_personality_v0
	.cfi_lsda 0x1b,.LLSDA9356
	endbr64
	pushq	%r15
	.cfi_def_cfa_offset 16
	.cfi_offset 15, -16
	movq	%rsi, %xmm4
	pushq	%r14
	.cfi_def_cfa_offset 24
	.cfi_offset 14, -24
	pushq	%r13
	.cfi_def_cfa_offset 32
	.cfi_offset 13, -32
	movq	%rdi, %r13
	pushq	%r12
	.cfi_def_cfa_offset 40
	.cfi_offset 12, -40
	pushq	%rbp
	.cfi_def_cfa_offset 48
	.cfi_offset 6, -48
	pushq	%rbx
	.cfi_def_cfa_offset 56
	.cfi_offset 3, -56
	movq	%rsi, %rbx
	subq	$680, %rsp
	.cfi_def_cfa_offset 736
	movdqu	24(%rsi), %xmm5
	movq	%fs:40, %rax
	movq	%rax, 664(%rsp)
	xorl	%eax, %eax
	leaq	24(%rsi), %rax
	movq	%rsi, 64(%rsp)
	movq	%rax, %xmm0
	movq	56(%rsi), %rax
	movq	$0, 528(%rsp)
	punpcklqdq	%xmm4, %xmm0
	movaps	%xmm5, 496(%rsp)
	movaps	%xmm0, 48(%rsp)
	pxor	%xmm0, %xmm0
	movups	%xmm0, 24(%rsi)
	pxor	%xmm0, %xmm0
	movq	$0, 536(%rsp)
	movaps	%xmm0, 512(%rsp)
	testq	%rax, %rax
	je	.L1340
	leaq	512(%rsp), %rbp
	leaq	40(%rsi), %rsi
	movl	$2, %edx
	movq	%rbp, %rdi
.LEHB53:
	call	*%rax
.LEHE53:
	movdqu	56(%rbx), %xmm5
	movaps	%xmm5, 528(%rsp)
.L1340:
	pxor	%xmm0, %xmm0
	movdqu	72(%rbx), %xmm6
	movdqu	104(%rbx), %xmm4
	movq	$0, 608(%rsp)
	movdqu	88(%rbx), %xmm7
	movq	136(%rbx), %rax
	movups	%xmm0, 72(%rbx)
	movups	%xmm0, 104(%rbx)
	pxor	%xmm0, %xmm0
	movq	$0, 616(%rsp)
	movaps	%xmm6, 544(%rsp)
	movaps	%xmm7, 560(%rsp)
	movaps	%xmm4, 576(%rsp)
	movaps	%xmm0, 592(%rsp)
	testq	%rax, %rax
	je	.L1808
	leaq	120(%rbx), %rbp
	leaq	592(%rsp), %r12
	movl	$2, %edx
	movq	%rbp, %rsi
	movq	%r12, %rdi
.LEHB54:
	call	*%rax
.LEHE54:
	movdqu	136(%rbx), %xmm6
	movdqu	152(%rbx), %xmm7
	leaq	496(%rsp), %r12
	movdqu	168(%rbx), %xmm2
	movq	136(%rbx), %rax
	movq	%r12, 48(%rsp)
	movaps	%xmm6, 608(%rsp)
	movaps	%xmm7, 624(%rsp)
	movaps	%xmm2, 640(%rsp)
	testq	%rax, %rax
	je	.L1348
	movl	$3, %edx
	movq	%rbp, %rsi
	movq	%rbp, %rdi
	call	*%rax
.L1348:
	movq	112(%rbx), %r14
	testq	%r14, %r14
	je	.L1353
	movq	__libc_single_threaded@GOTPCREL(%rip), %rbp
	cmpb	$0, 0(%rbp)
	je	.L1354
	movl	8(%r14), %eax
	leal	-1(%rax), %edx
	movl	%edx, 8(%r14)
.L1355:
	cmpl	$1, %eax
	jne	.L1353
	movq	(%r14), %rax
	movq	%r14, %rdi
	call	*16(%rax)
	cmpb	$0, 0(%rbp)
	je	.L1357
	movl	12(%r14), %eax
	leal	-1(%rax), %edx
	movl	%edx, 12(%r14)
.L1358:
	cmpl	$1, %eax
	je	.L1809
	.p2align 4,,10
	.p2align 3
.L1353:
	movq	80(%rbx), %r14
	testq	%r14, %r14
	je	.L1360
	movq	__libc_single_threaded@GOTPCREL(%rip), %rbp
	cmpb	$0, 0(%rbp)
	je	.L1361
	movl	8(%r14), %eax
	leal	-1(%rax), %edx
	movl	%edx, 8(%r14)
.L1362:
	cmpl	$1, %eax
	jne	.L1360
	movq	(%r14), %rax
	movq	%r14, %rdi
	call	*16(%rax)
	cmpb	$0, 0(%rbp)
	je	.L1364
	movl	12(%r14), %eax
	leal	-1(%rax), %edx
	movl	%edx, 12(%r14)
.L1365:
	cmpl	$1, %eax
	je	.L1810
	.p2align 4,,10
	.p2align 3
.L1360:
	movq	56(%rbx), %rax
	testq	%rax, %rax
	je	.L1366
	leaq	40(%rbx), %rdi
	movl	$3, %edx
	movq	%rdi, %rsi
	call	*%rax
.L1366:
	movq	32(%rbx), %r14
	testq	%r14, %r14
	je	.L1368
	movq	__libc_single_threaded@GOTPCREL(%rip), %rbp
	cmpb	$0, 0(%rbp)
	je	.L1369
	movl	8(%r14), %eax
	leal	-1(%rax), %edx
	movl	%edx, 8(%r14)
.L1370:
	cmpl	$1, %eax
	jne	.L1368
	movq	(%r14), %rax
	movq	%r14, %rdi
	call	*16(%rax)
	cmpb	$0, 0(%rbp)
	je	.L1372
	movl	12(%r14), %eax
	leal	-1(%rax), %edx
	movl	%edx, 12(%r14)
.L1373:
	cmpl	$1, %eax
	je	.L1811
	.p2align 4,,10
	.p2align 3
.L1368:
	movq	$0, 64(%rsp)
	movq	56(%rsp), %rbp
	testq	%rbp, %rbp
	je	.L1374
	data16	leaq	_ZN4asio6detail15keyword_tss_ptrINS0_10call_stackINS0_15task_io_serviceENS0_27task_io_service_thread_infoEE7contextEE6value_E@tlsgd(%rip), %rdi
	.value	0x6666
	rex64
	call	__tls_get_addr@PLT
	movq	(%rax), %rax
	testq	%rax, %rax
	je	.L1375
	movq	8(%rax), %rax
	testq	%rax, %rax
	je	.L1375
	cmpq	$0, (%rax)
	je	.L1812
.L1375:
	movq	%rbp, %rdi
	call	_ZdlPv@PLT
.L1376:
	movq	$0, 56(%rsp)
.L1374:
	testq	%r13, %r13
	je	.L1377
	movdqa	576(%rsp), %xmm3
	movq	584(%rsp), %rax
	movaps	%xmm3, 176(%rsp)
	testq	%rax, %rax
	je	.L1378
	movq	__libc_single_threaded@GOTPCREL(%rip), %rdx
	cmpb	$0, (%rdx)
	je	.L1379
	addl	$1, 8(%rax)
.L1378:
	movq	608(%rsp), %rax
	pxor	%xmm0, %xmm0
	movq	$0, 208(%rsp)
	movq	$0, 216(%rsp)
	movaps	%xmm0, 192(%rsp)
	testq	%rax, %rax
	je	.L1380
	leaq	192(%rsp), %rbp
	leaq	592(%rsp), %rsi
	movl	$2, %edx
	movq	%rbp, %rdi
.LEHB55:
	call	*%rax
.LEHE55:
	movdqa	608(%rsp), %xmm3
	movq	608(%rsp), %rax
	movaps	%xmm3, 208(%rsp)
.L1380:
	movdqa	624(%rsp), %xmm5
	movq	632(%rsp), %rdx
	movaps	%xmm5, 224(%rsp)
	testq	%rdx, %rdx
	je	.L1382
	movq	__libc_single_threaded@GOTPCREL(%rip), %rax
	cmpb	$0, (%rax)
	je	.L1387
	addl	$1, 8(%rdx)
	movq	208(%rsp), %rax
.L1382:
	movdqa	176(%rsp), %xmm1
	pxor	%xmm0, %xmm0
	movq	$0, 272(%rsp)
	movaps	%xmm0, 176(%rsp)
	pxor	%xmm0, %xmm0
	movq	$0, 280(%rsp)
	movaps	%xmm1, 240(%rsp)
	movaps	%xmm0, 256(%rsp)
	testq	%rax, %rax
	je	.L1389
	leaq	256(%rsp), %rbp
	leaq	192(%rsp), %rsi
	movl	$2, %edx
	movq	%rbp, %rdi
.LEHB56:
	call	*%rax
.LEHE56:
	movdqa	208(%rsp), %xmm4
	movq	208(%rsp), %rax
	movdqa	240(%rsp), %xmm1
	movaps	%xmm4, 272(%rsp)
.L1389:
	movdqa	224(%rsp), %xmm0
	pxor	%xmm2, %xmm2
	movdqa	640(%rsp), %xmm6
	movaps	%xmm1, 400(%rsp)
	pxor	%xmm1, %xmm1
	movaps	%xmm2, 224(%rsp)
	movq	$0, 432(%rsp)
	movq	$0, 440(%rsp)
	movaps	%xmm0, 288(%rsp)
	movaps	%xmm6, 304(%rsp)
	movaps	%xmm2, 240(%rsp)
	movaps	%xmm1, 416(%rsp)
	testq	%rax, %rax
	je	.L1392
	leaq	416(%rsp), %rbp
	leaq	256(%rsp), %rsi
	movl	$2, %edx
	movq	%rbp, %rdi
.LEHB57:
	call	*%rax
.LEHE57:
	movdqa	272(%rsp), %xmm1
	movdqa	288(%rsp), %xmm0
	movaps	%xmm1, 432(%rsp)
.L1392:
	movaps	%xmm0, 448(%rsp)
	pxor	%xmm0, %xmm0
	movdqa	304(%rsp), %xmm7
	movq	560(%rsp), %rbx
	movaps	%xmm0, 288(%rsp)
	movq	568(%rsp), %rbp
	movaps	%xmm7, 464(%rsp)
	data16	leaq	_ZN4asio6detail15keyword_tss_ptrINS0_10call_stackINS0_14strand_service11strand_implEhE7contextEE6value_E@tlsgd(%rip), %rdi
	.value	0x6666
	rex64
	call	__tls_get_addr@PLT
	movq	(%rax), %rax
	testq	%rax, %rax
	jne	.L1397
	jmp	.L1398
	.p2align 4,,10
	.p2align 3
.L1403:
	movq	16(%rax), %rax
	testq	%rax, %rax
	je	.L1398
.L1397:
	cmpq	(%rax), %rbp
	jne	.L1403
	cmpq	$0, 8(%rax)
	je	.L1398
	lfence
	movl	464(%rsp), %edx
	testl	%edx, %edx
	je	.L1813
.L1405:
	sfence
.L1407:
	movq	456(%rsp), %r12
	testq	%r12, %r12
	je	.L1511
	movq	__libc_single_threaded@GOTPCREL(%rip), %rbp
	cmpb	$0, 0(%rbp)
	je	.L1514
	movl	8(%r12), %eax
	leal	-1(%rax), %edx
	movl	%edx, 8(%r12)
.L1515:
	cmpl	$1, %eax
	je	.L1814
.L1511:
	movq	432(%rsp), %rax
	testq	%rax, %rax
	je	.L1519
	leaq	416(%rsp), %rdi
	movl	$3, %edx
	movq	%rdi, %rsi
	call	*%rax
.L1519:
	movq	408(%rsp), %r12
	testq	%r12, %r12
	je	.L1521
	movq	__libc_single_threaded@GOTPCREL(%rip), %rbp
	cmpb	$0, 0(%rbp)
	je	.L1522
	movl	8(%r12), %eax
	leal	-1(%rax), %edx
	movl	%edx, 8(%r12)
.L1523:
	cmpl	$1, %eax
	je	.L1815
.L1521:
	movq	296(%rsp), %r12
	testq	%r12, %r12
	je	.L1528
	movq	__libc_single_threaded@GOTPCREL(%rip), %rbp
	cmpb	$0, 0(%rbp)
	je	.L1529
	movl	8(%r12), %eax
	leal	-1(%rax), %edx
	movl	%edx, 8(%r12)
.L1530:
	cmpl	$1, %eax
	je	.L1816
.L1528:
	movq	272(%rsp), %rax
	testq	%rax, %rax
	je	.L1534
	leaq	256(%rsp), %rdi
	movl	$3, %edx
	movq	%rdi, %rsi
	call	*%rax
.L1534:
	movq	248(%rsp), %r12
	testq	%r12, %r12
	je	.L1536
	movq	__libc_single_threaded@GOTPCREL(%rip), %rbp
	cmpb	$0, 0(%rbp)
	je	.L1537
	movl	8(%r12), %eax
	leal	-1(%rax), %edx
	movl	%edx, 8(%r12)
.L1538:
	cmpl	$1, %eax
	je	.L1817
.L1536:
	movq	232(%rsp), %r12
	testq	%r12, %r12
	je	.L1543
	movq	__libc_single_threaded@GOTPCREL(%rip), %rbp
	cmpb	$0, 0(%rbp)
	je	.L1544
	movl	8(%r12), %eax
	leal	-1(%rax), %edx
	movl	%edx, 8(%r12)
.L1545:
	cmpl	$1, %eax
	je	.L1818
.L1543:
	movq	208(%rsp), %rax
	testq	%rax, %rax
	je	.L1549
	leaq	192(%rsp), %rdi
	movl	$3, %edx
	movq	%rdi, %rsi
	call	*%rax
.L1549:
	movq	184(%rsp), %r12
	testq	%r12, %r12
	je	.L1551
	movq	__libc_single_threaded@GOTPCREL(%rip), %rbp
	cmpb	$0, 0(%rbp)
	je	.L1552
	movl	8(%r12), %eax
	leal	-1(%rax), %edx
	movl	%edx, 8(%r12)
.L1553:
	cmpl	$1, %eax
	je	.L1819
.L1551:
	sfence
.L1377:
	movq	632(%rsp), %r12
	testq	%r12, %r12
	je	.L1558
	movq	__libc_single_threaded@GOTPCREL(%rip), %rbp
	cmpb	$0, 0(%rbp)
	je	.L1559
	movl	8(%r12), %eax
	leal	-1(%rax), %edx
	movl	%edx, 8(%r12)
.L1560:
	cmpl	$1, %eax
	je	.L1820
.L1558:
	movq	608(%rsp), %rax
	testq	%rax, %rax
	je	.L1564
	leaq	592(%rsp), %rdi
	movl	$3, %edx
	movq	%rdi, %rsi
	call	*%rax
.L1564:
	movq	584(%rsp), %r12
	testq	%r12, %r12
	je	.L1566
	movq	__libc_single_threaded@GOTPCREL(%rip), %rbp
	cmpb	$0, 0(%rbp)
	je	.L1567
	movl	8(%r12), %eax
	leal	-1(%rax), %edx
	movl	%edx, 8(%r12)
.L1568:
	cmpl	$1, %eax
	je	.L1821
.L1566:
	movq	552(%rsp), %r12
	testq	%r12, %r12
	je	.L1573
	movq	__libc_single_threaded@GOTPCREL(%rip), %rbp
	cmpb	$0, 0(%rbp)
	je	.L1574
	movl	8(%r12), %eax
	leal	-1(%rax), %edx
	movl	%edx, 8(%r12)
.L1575:
	cmpl	$1, %eax
	je	.L1822
.L1573:
	movq	528(%rsp), %rax
	testq	%rax, %rax
	je	.L1579
	leaq	512(%rsp), %rdi
	movl	$3, %edx
	movq	%rdi, %rsi
	call	*%rax
.L1579:
	movq	504(%rsp), %r12
	testq	%r12, %r12
	je	.L1581
	movq	__libc_single_threaded@GOTPCREL(%rip), %rbp
	cmpb	$0, 0(%rbp)
	je	.L1582
	movl	8(%r12), %eax
	leal	-1(%rax), %edx
	movl	%edx, 8(%r12)
.L1583:
	cmpl	$1, %eax
	je	.L1823
.L1581:
	movq	64(%rsp), %rbx
	testq	%rbx, %rbx
	je	.L1587
	movq	160(%rbx), %r12
	testq	%r12, %r12
	je	.L1589
	movq	__libc_single_threaded@GOTPCREL(%rip), %rbp
	cmpb	$0, 0(%rbp)
	je	.L1590
	movl	8(%r12), %eax
	leal	-1(%rax), %edx
	movl	%edx, 8(%r12)
.L1591:
	cmpl	$1, %eax
	jne	.L1589
	movq	(%r12), %rax
	movq	%r12, %rdi
	call	*16(%rax)
	cmpb	$0, 0(%rbp)
	je	.L1593
	movl	12(%r12), %eax
	leal	-1(%rax), %edx
	movl	%edx, 12(%r12)
.L1594:
	cmpl	$1, %eax
	je	.L1824
	.p2align 4,,10
	.p2align 3
.L1589:
	movq	136(%rbx), %rax
	testq	%rax, %rax
	je	.L1595
	leaq	120(%rbx), %rdi
	movl	$3, %edx
	movq	%rdi, %rsi
	call	*%rax
.L1595:
	movq	112(%rbx), %r12
	testq	%r12, %r12
	je	.L1597
	movq	__libc_single_threaded@GOTPCREL(%rip), %rbp
	cmpb	$0, 0(%rbp)
	je	.L1598
	movl	8(%r12), %eax
	leal	-1(%rax), %edx
	movl	%edx, 8(%r12)
.L1599:
	cmpl	$1, %eax
	jne	.L1597
	movq	(%r12), %rax
	movq	%r12, %rdi
	call	*16(%rax)
	cmpb	$0, 0(%rbp)
	je	.L1601
	movl	12(%r12), %eax
	leal	-1(%rax), %edx
	movl	%edx, 12(%r12)
.L1602:
	cmpl	$1, %eax
	je	.L1825
	.p2align 4,,10
	.p2align 3
.L1597:
	movq	80(%rbx), %r12
	testq	%r12, %r12
	je	.L1604
	movq	__libc_single_threaded@GOTPCREL(%rip), %rbp
	cmpb	$0, 0(%rbp)
	je	.L1605
	movl	8(%r12), %eax
	leal	-1(%rax), %edx
	movl	%edx, 8(%r12)
.L1606:
	cmpl	$1, %eax
	jne	.L1604
	movq	(%r12), %rax
	movq	%r12, %rdi
	call	*16(%rax)
	cmpb	$0, 0(%rbp)
	je	.L1608
	movl	12(%r12), %eax
	leal	-1(%rax), %edx
	movl	%edx, 12(%r12)
.L1609:
	cmpl	$1, %eax
	je	.L1826
	.p2align 4,,10
	.p2align 3
.L1604:
	movq	56(%rbx), %rax
	testq	%rax, %rax
	je	.L1610
	leaq	40(%rbx), %rdi
	movl	$3, %edx
	movq	%rdi, %rsi
	call	*%rax
.L1610:
	movq	32(%rbx), %r12
	testq	%r12, %r12
	je	.L1612
	movq	__libc_single_threaded@GOTPCREL(%rip), %rbp
	cmpb	$0, 0(%rbp)
	je	.L1613
	movl	8(%r12), %eax
	leal	-1(%rax), %edx
	movl	%edx, 8(%r12)
.L1614:
	cmpl	$1, %eax
	jne	.L1612
	movq	(%r12), %rax
	movq	%r12, %rdi
	call	*16(%rax)
	cmpb	$0, 0(%rbp)
	je	.L1616
	movl	12(%r12), %eax
	leal	-1(%rax), %edx
	movl	%edx, 12(%r12)
.L1617:
	cmpl	$1, %eax
	je	.L1827
	.p2align 4,,10
	.p2align 3
.L1612:
	movq	$0, 64(%rsp)
.L1587:
	movq	56(%rsp), %rbp
	testq	%rbp, %rbp
	je	.L1339
	data16	leaq	_ZN4asio6detail15keyword_tss_ptrINS0_10call_stackINS0_15task_io_serviceENS0_27task_io_service_thread_infoEE7contextEE6value_E@tlsgd(%rip), %rdi
	.value	0x6666
	rex64
	call	__tls_get_addr@PLT
	movq	(%rax), %rax
	testq	%rax, %rax
	je	.L1619
	movq	8(%rax), %rax
	testq	%rax, %rax
	je	.L1619
	cmpq	$0, (%rax)
	je	.L1828
.L1619:
	movq	664(%rsp), %rax
	subq	%fs:40, %rax
	jne	.L1807
	addq	$680, %rsp
	.cfi_remember_state
	.cfi_def_cfa_offset 56
	movq	%rbp, %rdi
	popq	%rbx
	.cfi_def_cfa_offset 48
	popq	%rbp
	.cfi_def_cfa_offset 40
	popq	%r12
	.cfi_def_cfa_offset 32
	popq	%r13
	.cfi_def_cfa_offset 24
	popq	%r14
	.cfi_def_cfa_offset 16
	popq	%r15
	.cfi_def_cfa_offset 8
	jmp	_ZdlPv@PLT
	.p2align 4,,10
	.p2align 3
.L1398:
	.cfi_restore_state
	pxor	%xmm0, %xmm0
	leaq	400(%rsp), %r15
	movq	%r15, 80(%rsp)
	movups	%xmm0, 88(%rsp)
	data16	leaq	_ZN4asio6detail15keyword_tss_ptrINS0_10call_stackINS0_15task_io_serviceENS0_27task_io_service_thread_infoEE7contextEE6value_E@tlsgd(%rip), %rdi
	.value	0x6666
	rex64
	call	__tls_get_addr@PLT
	movq	(%rax), %rax
	testq	%rax, %rax
	je	.L1408
	movq	8(%rax), %rax
	testq	%rax, %rax
	je	.L1408
	movq	(%rax), %rbp
	testq	%rbp, %rbp
	je	.L1408
	movq	$0, (%rax)
	movzbl	0(%rbp), %eax
	cmpb	$103, %al
	jbe	.L1409
	movb	%al, 104(%rbp)
	jmp	.L1410
	.p2align 4,,10
	.p2align 3
.L1828:
	movzbl	184(%rbp), %edx
	movb	%dl, 0(%rbp)
	movq	%rbp, (%rax)
.L1339:
	movq	664(%rsp), %rax
	subq	%fs:40, %rax
	jne	.L1807
	addq	$680, %rsp
	.cfi_remember_state
	.cfi_def_cfa_offset 56
	popq	%rbx
	.cfi_def_cfa_offset 48
	popq	%rbp
	.cfi_def_cfa_offset 40
	popq	%r12
	.cfi_def_cfa_offset 32
	popq	%r13
	.cfi_def_cfa_offset 24
	popq	%r14
	.cfi_def_cfa_offset 16
	popq	%r15
	.cfi_def_cfa_offset 8
	ret
	.p2align 4,,10
	.p2align 3
.L1409:
	.cfi_restore_state
	movq	%rbp, %rdi
	call	_ZdlPv@PLT
.L1408:
	movl	$105, %edi
.LEHB58:
	call	_Znwm@PLT
.LEHE58:
	movb	$104, 104(%rax)
	movq	%rax, %rbp
.L1410:
	movq	%rbp, %xmm3
	leaq	_ZN4asio6detail18completion_handlerINS0_7binder1IZN7asiopal8Executor5StartERKNSt6chrono10time_pointINS5_3_V212steady_clockENS5_8durationIlSt5ratioILl1ELl1000000000EEEEEERKSt8functionIFvvEEEUlRKSt10error_codeE_SL_EEE11do_completeEPNS0_15task_io_serviceEPNS0_25task_io_service_operationESN_m(%rip), %rax
	pxor	%xmm0, %xmm0
	movq	$0, 0(%rbp)
	punpcklqdq	%xmm3, %xmm3
	movq	%rax, 8(%rbp)
	leaq	24(%rbp), %rax
	leaq	40(%rbp), %r14
	movaps	%xmm3, 16(%rsp)
	movdqa	400(%rsp), %xmm3
	movq	%rax, (%rsp)
	movups	%xmm3, 24(%rbp)
	movq	432(%rsp), %rax
	movaps	%xmm0, 400(%rsp)
	pxor	%xmm0, %xmm0
	movq	%rbp, 88(%rsp)
	movl	$0, 16(%rbp)
	movq	$0, 56(%rbp)
	movq	$0, 64(%rbp)
	movups	%xmm0, 40(%rbp)
	testq	%rax, %rax
	je	.L1411
	leaq	416(%rsp), %rsi
	movl	$2, %edx
	movq	%r14, %rdi
.LEHB59:
	call	*%rax
.LEHE59:
	movdqa	432(%rsp), %xmm7
	movups	%xmm7, 56(%rbp)
.L1411:
	movdqa	448(%rsp), %xmm2
	pxor	%xmm0, %xmm0
	movaps	%xmm0, 448(%rsp)
	movups	%xmm2, 72(%rbp)
	movq	40(%rbx), %r13
	movdqa	464(%rsp), %xmm5
	movups	%xmm5, 88(%rbp)
	data16	leaq	_ZN4asio6detail15keyword_tss_ptrINS0_10call_stackINS0_15task_io_serviceENS0_27task_io_service_thread_infoEE7contextEE6value_E@tlsgd(%rip), %rdi
	.value	0x6666
	rex64
	call	__tls_get_addr@PLT
	movq	(%rax), %rax
	testq	%rax, %rax
	jne	.L1412
	jmp	.L1413
	.p2align 4,,10
	.p2align 3
.L1418:
	movq	16(%rax), %rax
	testq	%rax, %rax
	je	.L1413
.L1412:
	cmpq	(%rax), %r13
	jne	.L1418
	movq	8(%rax), %r13
	movq	568(%rsp), %rax
	leaq	24(%rax), %rdi
	call	pthread_mutex_lock@PLT
	testq	%r13, %r13
	je	.L1420
	movq	568(%rsp), %rax
	cmpb	$0, 64(%rax)
	leaq	24(%rax), %rdi
	je	.L1829
.L1421:
	movq	$0, 0(%rbp)
	movq	80(%rax), %rdx
	testq	%rdx, %rdx
	je	.L1425
	movq	%rbp, (%rdx)
	movq	%rbp, 80(%rax)
.L1805:
	call	pthread_mutex_unlock@PLT
	jmp	.L1407
.L1829:
	movb	$1, 64(%rax)
	call	pthread_mutex_unlock@PLT
	movq	568(%rsp), %rdx
	movq	$0, 88(%rsp)
	movq	%rdx, 112(%rsp)
	movq	%rdx, 16(%rsp)
	data16	leaq	_ZN4asio6detail15keyword_tss_ptrINS0_10call_stackINS0_14strand_service11strand_implEhE7contextEE6value_E@tlsgd(%rip), %rdi
	.value	0x6666
	rex64
	call	__tls_get_addr@PLT
	movq	40(%rbx), %rbx
	movq	16(%rsp), %rdx
	movq	%rbp, %xmm1
	movq	%rbp, 160(%rsp)
	movq	%rdx, %xmm4
	movq	%rbx, %xmm0
	punpcklqdq	%xmm4, %xmm0
	movaps	%xmm0, 32(%rsp)
	movq	(%rsp), %xmm0
	movq	(%rax), %rcx
	punpcklqdq	%xmm1, %xmm0
	movaps	%xmm0, 144(%rsp)
	pxor	%xmm0, %xmm0
	movdqu	24(%rbp), %xmm4
	movq	%rcx, 128(%rsp)
	leaq	112(%rsp), %rcx
	movq	%rcx, (%rax)
	movq	56(%rbp), %rax
	movups	%xmm0, 24(%rbp)
	pxor	%xmm0, %xmm0
	movq	%rcx, 120(%rsp)
	movq	$0, 352(%rsp)
	movq	$0, 360(%rsp)
	movaps	%xmm4, 320(%rsp)
	movaps	%xmm0, 336(%rsp)
	testq	%rax, %rax
	je	.L1830
	leaq	336(%rsp), %r13
	movl	$2, %edx
	movq	%r14, %rsi
	movq	%r13, %rdi
.LEHB60:
	call	*%rax
.LEHE60:
	movdqu	56(%rbp), %xmm6
	movq	56(%rbp), %rax
	leaq	320(%rsp), %r13
	movdqu	72(%rbp), %xmm3
	movdqu	88(%rbp), %xmm2
	movq	%r13, 144(%rsp)
	movaps	%xmm6, 352(%rsp)
	movaps	%xmm3, 368(%rsp)
	movaps	%xmm2, 384(%rsp)
	testq	%rax, %rax
	je	.L1441
	movl	$3, %edx
	movq	%r14, %rsi
	movq	%r14, %rdi
	call	*%rax
.L1441:
	movq	32(%rbp), %r14
	testq	%r14, %r14
	je	.L1446
	movq	__libc_single_threaded@GOTPCREL(%rip), %rbp
	cmpb	$0, 0(%rbp)
	je	.L1447
	movl	8(%r14), %eax
	leal	-1(%rax), %edx
	movl	%edx, 8(%r14)
.L1448:
	cmpl	$1, %eax
	je	.L1449
	movq	152(%rsp), %rbp
.L1450:
	movq	$0, 160(%rsp)
	testq	%rbp, %rbp
	jne	.L1621
	jmp	.L1453
	.p2align 4,,10
	.p2align 3
.L1820:
	movq	(%r12), %rax
	movq	%r12, %rdi
	call	*16(%rax)
	cmpb	$0, 0(%rbp)
	je	.L1562
	movl	12(%r12), %eax
	leal	-1(%rax), %edx
	movl	%edx, 12(%r12)
.L1563:
	cmpl	$1, %eax
	jne	.L1558
	movq	(%r12), %rax
	movq	%r12, %rdi
	call	*24(%rax)
	jmp	.L1558
	.p2align 4,,10
	.p2align 3
.L1821:
	movq	(%r12), %rax
	movq	%r12, %rdi
	call	*16(%rax)
	cmpb	$0, 0(%rbp)
	je	.L1570
	movl	12(%r12), %eax
	leal	-1(%rax), %edx
	movl	%edx, 12(%r12)
.L1571:
	cmpl	$1, %eax
	jne	.L1566
	movq	(%r12), %rax
	movq	%r12, %rdi
	call	*24(%rax)
	jmp	.L1566
	.p2align 4,,10
	.p2align 3
.L1822:
	movq	(%r12), %rax
	movq	%r12, %rdi
	call	*16(%rax)
	cmpb	$0, 0(%rbp)
	je	.L1577
	movl	12(%r12), %eax
	leal	-1(%rax), %edx
	movl	%edx, 12(%r12)
.L1578:
	cmpl	$1, %eax
	jne	.L1573
	movq	(%r12), %rax
	movq	%r12, %rdi
	call	*24(%rax)
	jmp	.L1573
	.p2align 4,,10
	.p2align 3
.L1823:
	movq	(%r12), %rax
	movq	%r12, %rdi
	call	*16(%rax)
	cmpb	$0, 0(%rbp)
	je	.L1585
	movl	12(%r12), %eax
	leal	-1(%rax), %edx
	movl	%edx, 12(%r12)
.L1586:
	cmpl	$1, %eax
	jne	.L1581
	movq	(%r12), %rax
	movq	%r12, %rdi
	call	*24(%rax)
	jmp	.L1581
	.p2align 4,,10
	.p2align 3
.L1559:
	movl	$-1, %eax
	lock xaddl	%eax, 8(%r12)
	jmp	.L1560
	.p2align 4,,10
	.p2align 3
.L1567:
	movl	$-1, %eax
	lock xaddl	%eax, 8(%r12)
	jmp	.L1568
	.p2align 4,,10
	.p2align 3
.L1574:
	movl	$-1, %eax
	lock xaddl	%eax, 8(%r12)
	jmp	.L1575
	.p2align 4,,10
	.p2align 3
.L1582:
	movl	$-1, %eax
	lock xaddl	%eax, 8(%r12)
	jmp	.L1583
	.p2align 4,,10
	.p2align 3
.L1813:
	cmpq	$0, 432(%rsp)
	je	.L1831
	leaq	416(%rsp), %rdi
.LEHB61:
	call	*440(%rsp)
.LEHE61:
	jmp	.L1405
	.p2align 4,,10
	.p2align 3
.L1598:
	movl	$-1, %eax
	lock xaddl	%eax, 8(%r12)
	jmp	.L1599
	.p2align 4,,10
	.p2align 3
.L1361:
	movl	$-1, %eax
	lock xaddl	%eax, 8(%r14)
	jmp	.L1362
	.p2align 4,,10
	.p2align 3
.L1369:
	movl	$-1, %eax
	lock xaddl	%eax, 8(%r14)
	jmp	.L1370
	.p2align 4,,10
	.p2align 3
.L1613:
	movl	$-1, %eax
	lock xaddl	%eax, 8(%r12)
	jmp	.L1614
	.p2align 4,,10
	.p2align 3
.L1354:
	movl	$-1, %eax
	lock xaddl	%eax, 8(%r14)
	jmp	.L1355
	.p2align 4,,10
	.p2align 3
.L1605:
	movl	$-1, %eax
	lock xaddl	%eax, 8(%r12)
	jmp	.L1606
	.p2align 4,,10
	.p2align 3
.L1590:
	movl	$-1, %eax
	lock xaddl	%eax, 8(%r12)
	jmp	.L1591
	.p2align 4,,10
	.p2align 3
.L1812:
	movzbl	184(%rbp), %edx
	movb	%dl, 0(%rbp)
	movq	%rbp, (%rax)
	jmp	.L1376
	.p2align 4,,10
	.p2align 3
.L1425:
	movdqa	16(%rsp), %xmm5
	movups	%xmm5, 72(%rax)
	jmp	.L1805
	.p2align 4,,10
	.p2align 3
.L1387:
	lock addl	$1, 8(%rdx)
	movq	208(%rsp), %rax
	jmp	.L1382
	.p2align 4,,10
	.p2align 3
.L1379:
	lock addl	$1, 8(%rax)
	jmp	.L1378
	.p2align 4,,10
	.p2align 3
.L1808:
	movdqu	152(%rbx), %xmm1
	movdqu	168(%rbx), %xmm7
	leaq	496(%rsp), %r12
	movq	%r12, 48(%rsp)
	movaps	%xmm1, 624(%rsp)
	movaps	%xmm7, 640(%rsp)
	jmp	.L1348
	.p2align 4,,10
	.p2align 3
.L1413:
	movq	568(%rsp), %rax
	leaq	24(%rax), %rdi
	call	pthread_mutex_lock@PLT
.L1420:
	movq	568(%rsp), %rax
	cmpb	$0, 64(%rax)
	leaq	24(%rax), %rdi
	jne	.L1421
	movb	$1, 64(%rax)
	call	pthread_mutex_unlock@PLT
	movq	568(%rsp), %r12
	movq	$0, 0(%rbp)
	movq	%r12, %xmm6
	cmpq	$0, 96(%r12)
	punpcklqdq	%xmm6, %xmm6
	movaps	%xmm6, (%rsp)
	je	.L1428
	movq	96(%r12), %rax
	movq	%rbp, (%rax)
	movq	%rbp, 96(%r12)
.L1429:
	movq	40(%rbx), %rbx
	cmpb	$0, 40(%rbx)
	je	.L1430
	data16	leaq	_ZN4asio6detail15keyword_tss_ptrINS0_10call_stackINS0_15task_io_serviceENS0_27task_io_service_thread_infoEE7contextEE6value_E@tlsgd(%rip), %rdi
	.value	0x6666
	rex64
	call	__tls_get_addr@PLT
	movq	(%rax), %rax
	testq	%rax, %rax
	jne	.L1433
	jmp	.L1430
	.p2align 4,,10
	.p2align 3
.L1431:
	movq	16(%rax), %rax
	testq	%rax, %rax
	je	.L1430
.L1433:
	cmpq	(%rax), %rbx
	jne	.L1431
	movq	8(%rax), %rax
	testq	%rax, %rax
	je	.L1430
	addq	$1, 24(%rax)
	movq	$0, (%r12)
	movq	16(%rax), %rdx
	testq	%rdx, %rdx
	je	.L1434
	movq	%r12, (%rdx)
	movq	%r12, 16(%rax)
	jmp	.L1407
	.p2align 4,,10
	.p2align 3
.L1814:
	movq	(%r12), %rax
	movq	%r12, %rdi
	call	*16(%rax)
	cmpb	$0, 0(%rbp)
	je	.L1517
	movl	12(%r12), %eax
	leal	-1(%rax), %edx
	movl	%edx, 12(%r12)
.L1518:
	cmpl	$1, %eax
	jne	.L1511
	movq	(%r12), %rax
	movq	%r12, %rdi
	call	*24(%rax)
	jmp	.L1511
	.p2align 4,,10
	.p2align 3
.L1819:
	movq	(%r12), %rax
	movq	%r12, %rdi
	call	*16(%rax)
	cmpb	$0, 0(%rbp)
	je	.L1555
	movl	12(%r12), %eax
	leal	-1(%rax), %edx
	movl	%edx, 12(%r12)
.L1556:
	cmpl	$1, %eax
	jne	.L1551
	movq	(%r12), %rax
	movq	%r12, %rdi
	call	*24(%rax)
	jmp	.L1551
	.p2align 4,,10
	.p2align 3
.L1818:
	movq	(%r12), %rax
	movq	%r12, %rdi
	call	*16(%rax)
	cmpb	$0, 0(%rbp)
	je	.L1547
	movl	12(%r12), %eax
	leal	-1(%rax), %edx
	movl	%edx, 12(%r12)
.L1548:
	cmpl	$1, %eax
	jne	.L1543
	movq	(%r12), %rax
	movq	%r12, %rdi
	call	*24(%rax)
	jmp	.L1543
	.p2align 4,,10
	.p2align 3
.L1817:
	movq	(%r12), %rax
	movq	%r12, %rdi
	call	*16(%rax)
	cmpb	$0, 0(%rbp)
	je	.L1540
	movl	12(%r12), %eax
	leal	-1(%rax), %edx
	movl	%edx, 12(%r12)
.L1541:
	cmpl	$1, %eax
	jne	.L1536
	movq	(%r12), %rax
	movq	%r12, %rdi
	call	*24(%rax)
	jmp	.L1536
	.p2align 4,,10
	.p2align 3
.L1816:
	movq	(%r12), %rax
	movq	%r12, %rdi
	call	*16(%rax)
	cmpb	$0, 0(%rbp)
	je	.L1532
	movl	12(%r12), %eax
	leal	-1(%rax), %edx
	movl	%edx, 12(%r12)
.L1533:
	cmpl	$1, %eax
	jne	.L1528
	movq	(%r12), %rax
	movq	%r12, %rdi
	call	*24(%rax)
	jmp	.L1528
	.p2align 4,,10
	.p2align 3
.L1815:
	movq	(%r12), %rax
	movq	%r12, %rdi
	call	*16(%rax)
	cmpb	$0, 0(%rbp)
	je	.L1525
	movl	12(%r12), %eax
	leal	-1(%rax), %edx
	movl	%edx, 12(%r12)
.L1526:
	cmpl	$1, %eax
	jne	.L1521
	movq	(%r12), %rax
	movq	%r12, %rdi
	call	*24(%rax)
	jmp	.L1521
	.p2align 4,,10
	.p2align 3
.L1537:
	movl	$-1, %eax
	lock xaddl	%eax, 8(%r12)
	jmp	.L1538
	.p2align 4,,10
	.p2align 3
.L1529:
	movl	$-1, %eax
	lock xaddl	%eax, 8(%r12)
	jmp	.L1530
	.p2align 4,,10
	.p2align 3
.L1552:
	movl	$-1, %eax
	lock xaddl	%eax, 8(%r12)
	jmp	.L1553
	.p2align 4,,10
	.p2align 3
.L1544:
	movl	$-1, %eax
	lock xaddl	%eax, 8(%r12)
	jmp	.L1545
	.p2align 4,,10
	.p2align 3
.L1514:
	movl	$-1, %eax
	lock xaddl	%eax, 8(%r12)
	jmp	.L1515
	.p2align 4,,10
	.p2align 3
.L1522:
	movl	$-1, %eax
	lock xaddl	%eax, 8(%r12)
	jmp	.L1523
	.p2align 4,,10
	.p2align 3
.L1430:
	lock addq	$1, 184(%rbx)
	leaq	48(%rbx), %rbp
	movq	%rbp, %rdi
	call	pthread_mutex_lock@PLT
	cmpq	$0, 200(%rbx)
	movq	$0, (%r12)
	je	.L1435
	movq	200(%rbx), %rax
	movq	%r12, (%rax)
	movq	%r12, 200(%rbx)
.L1436:
	movq	136(%rbx), %rax
	orq	$1, %rax
	movq	%rax, 136(%rbx)
	cmpq	$1, %rax
	je	.L1437
	movq	%rbp, %rdi
	call	pthread_mutex_unlock@PLT
	leaq	88(%rbx), %rdi
	call	pthread_cond_signal@PLT
	jmp	.L1407
.L1437:
	cmpb	$0, 176(%rbx)
	jne	.L1439
	movq	144(%rbx), %rax
	testq	%rax, %rax
	je	.L1439
	movb	$1, 176(%rbx)
	leaq	88(%rax), %rdx
	movl	$3, %esi
	leaq	144(%rsp), %rcx
	movq	%rdx, 148(%rsp)
	movl	88(%rax), %edx
	movl	$-2147483639, 144(%rsp)
	movl	96(%rax), %edi
	call	epoll_ctl@PLT
.L1439:
	movq	%rbp, %rdi
	jmp	.L1805
.L1562:
	movl	$-1, %eax
	lock xaddl	%eax, 12(%r12)
	jmp	.L1563
.L1585:
	movl	$-1, %eax
	lock xaddl	%eax, 12(%r12)
	jmp	.L1586
.L1570:
	movl	$-1, %eax
	lock xaddl	%eax, 12(%r12)
	jmp	.L1571
.L1577:
	movl	$-1, %eax
	lock xaddl	%eax, 12(%r12)
	jmp	.L1578
.L1446:
	movq	$0, 160(%rsp)
.L1621:
	data16	leaq	_ZN4asio6detail15keyword_tss_ptrINS0_10call_stackINS0_15task_io_serviceENS0_27task_io_service_thread_infoEE7contextEE6value_E@tlsgd(%rip), %rdi
	.value	0x6666
	rex64
	call	__tls_get_addr@PLT
	movq	(%rax), %rax
	testq	%rax, %rax
	je	.L1454
	movq	8(%rax), %rax
	testq	%rax, %rax
	je	.L1454
	cmpq	$0, (%rax)
	je	.L1832
.L1454:
	movq	%rbp, %rdi
	call	_ZdlPv@PLT
.L1455:
	movq	$0, 152(%rsp)
.L1453:
	testq	%rbx, %rbx
	je	.L1456
	movl	384(%rsp), %eax
	testl	%eax, %eax
	jne	.L1457
	cmpq	$0, 352(%rsp)
	je	.L1833
	leaq	336(%rsp), %rdi
.LEHB62:
	call	*360(%rsp)
.LEHE62:
.L1457:
	sfence
.L1456:
	movq	376(%rsp), %r12
	testq	%r12, %r12
	je	.L1460
	movq	__libc_single_threaded@GOTPCREL(%rip), %rbp
	cmpb	$0, 0(%rbp)
	je	.L1461
	movl	8(%r12), %eax
	leal	-1(%rax), %edx
	movl	%edx, 8(%r12)
.L1462:
	cmpl	$1, %eax
	je	.L1834
.L1460:
	movq	352(%rsp), %rax
	testq	%rax, %rax
	je	.L1466
	leaq	336(%rsp), %rdi
	movl	$3, %edx
	movq	%rdi, %rsi
	call	*%rax
.L1466:
	movq	328(%rsp), %r12
	testq	%r12, %r12
	je	.L1468
	movq	__libc_single_threaded@GOTPCREL(%rip), %rbp
	cmpb	$0, 0(%rbp)
	je	.L1469
	movl	8(%r12), %eax
	leal	-1(%rax), %edx
	movl	%edx, 8(%r12)
.L1470:
	cmpl	$1, %eax
	je	.L1835
.L1468:
	movq	160(%rsp), %rbx
	testq	%rbx, %rbx
	je	.L1474
	movq	80(%rbx), %r12
	testq	%r12, %r12
	je	.L1476
	movq	__libc_single_threaded@GOTPCREL(%rip), %rbp
	cmpb	$0, 0(%rbp)
	je	.L1477
	movl	8(%r12), %eax
	leal	-1(%rax), %edx
	movl	%edx, 8(%r12)
.L1478:
	cmpl	$1, %eax
	jne	.L1476
	movq	(%r12), %rax
	movq	%r12, %rdi
	call	*16(%rax)
	cmpb	$0, 0(%rbp)
	je	.L1480
	movl	12(%r12), %eax
	leal	-1(%rax), %edx
	movl	%edx, 12(%r12)
.L1481:
	cmpl	$1, %eax
	jne	.L1476
	movq	(%r12), %rax
	movq	%r12, %rdi
	call	*24(%rax)
	.p2align 4,,10
	.p2align 3
.L1476:
	movq	56(%rbx), %rax
	testq	%rax, %rax
	je	.L1482
	leaq	40(%rbx), %rdi
	movl	$3, %edx
	movq	%rdi, %rsi
	call	*%rax
.L1482:
	movq	32(%rbx), %r12
	testq	%r12, %r12
	je	.L1484
	movq	__libc_single_threaded@GOTPCREL(%rip), %rbp
	cmpb	$0, 0(%rbp)
	je	.L1485
	movl	8(%r12), %eax
	leal	-1(%rax), %edx
	movl	%edx, 8(%r12)
.L1486:
	cmpl	$1, %eax
	jne	.L1484
	movq	(%r12), %rax
	movq	%r12, %rdi
	call	*16(%rax)
	cmpb	$0, 0(%rbp)
	je	.L1488
	movl	12(%r12), %eax
	leal	-1(%rax), %edx
	movl	%edx, 12(%r12)
.L1489:
	cmpl	$1, %eax
	jne	.L1484
	movq	(%r12), %rax
	movq	%r12, %rdi
	call	*24(%rax)
	.p2align 4,,10
	.p2align 3
.L1484:
	movq	$0, 160(%rsp)
.L1474:
	movq	152(%rsp), %rbp
	testq	%rbp, %rbp
	je	.L1490
	data16	leaq	_ZN4asio6detail15keyword_tss_ptrINS0_10call_stackINS0_15task_io_serviceENS0_27task_io_service_thread_infoEE7contextEE6value_E@tlsgd(%rip), %rdi
	.value	0x6666
	rex64
	call	__tls_get_addr@PLT
	movq	(%rax), %rax
	testq	%rax, %rax
	je	.L1491
	movq	8(%rax), %rax
	testq	%rax, %rax
	je	.L1491
	cmpq	$0, (%rax)
	je	.L1836
.L1491:
	movq	%rbp, %rdi
	call	_ZdlPv@PLT
.L1490:
	movq	40(%rsp), %rbx
	movq	%rbx, %xmm2
	leaq	24(%rbx), %r12
	punpcklqdq	%xmm2, %xmm2
	movq	%r12, %rdi
	movaps	%xmm2, (%rsp)
	call	pthread_mutex_lock@PLT
	movq	72(%rbx), %rbp
	testq	%rbp, %rbp
	je	.L1837
	movq	96(%rbx), %rax
	testq	%rax, %rax
	je	.L1495
	movq	%rbp, (%rax)
	movq	88(%rbx), %rbp
.L1496:
	movq	80(%rbx), %rax
	pxor	%xmm0, %xmm0
	movups	%xmm0, 72(%rbx)
	movq	%rax, 96(%rbx)
.L1493:
	testq	%rbp, %rbp
	movq	%r12, %rdi
	setne	64(%rbx)
	call	pthread_mutex_unlock@PLT
	testq	%rbp, %rbp
	jne	.L1838
.L1497:
	data16	leaq	_ZN4asio6detail15keyword_tss_ptrINS0_10call_stackINS0_14strand_service11strand_implEhE7contextEE6value_E@tlsgd(%rip), %rdi
	.value	0x6666
	rex64
	call	__tls_get_addr@PLT
	movq	128(%rsp), %rdx
	movq	88(%rsp), %rbp
	movq	%rdx, (%rax)
	testq	%rbp, %rbp
	je	.L1407
	data16	leaq	_ZN4asio6detail15keyword_tss_ptrINS0_10call_stackINS0_15task_io_serviceENS0_27task_io_service_thread_infoEE7contextEE6value_E@tlsgd(%rip), %rdi
	.value	0x6666
	rex64
	call	__tls_get_addr@PLT
	movq	(%rax), %rax
	testq	%rax, %rax
	je	.L1509
	movq	8(%rax), %rax
	testq	%rax, %rax
	je	.L1509
	cmpq	$0, (%rax)
	je	.L1839
.L1509:
	movq	%rbp, %rdi
	call	_ZdlPv@PLT
	jmp	.L1407
	.p2align 4,,10
	.p2align 3
.L1838:
	movq	32(%rsp), %rbp
	cmpb	$0, 40(%rbp)
	je	.L1498
	data16	leaq	_ZN4asio6detail15keyword_tss_ptrINS0_10call_stackINS0_15task_io_serviceENS0_27task_io_service_thread_infoEE7contextEE6value_E@tlsgd(%rip), %rdi
	.value	0x6666
	rex64
	call	__tls_get_addr@PLT
	movq	(%rax), %rax
	testq	%rax, %rax
	jne	.L1501
	jmp	.L1498
	.p2align 4,,10
	.p2align 3
.L1499:
	movq	16(%rax), %rax
	testq	%rax, %rax
	je	.L1498
.L1501:
	cmpq	(%rax), %rbp
	jne	.L1499
	movq	8(%rax), %rax
	testq	%rax, %rax
	je	.L1498
	addq	$1, 24(%rax)
	movq	$0, (%rbx)
	movq	16(%rax), %rdx
	testq	%rdx, %rdx
	je	.L1502
	movq	%rbx, (%rdx)
	movq	%rbx, 16(%rax)
	jmp	.L1497
.L1498:
	lock addq	$1, 184(%rbp)
	leaq	48(%rbp), %r12
	movq	%r12, %rdi
	call	pthread_mutex_lock@PLT
	cmpq	$0, 200(%rbp)
	movq	$0, (%rbx)
	je	.L1503
	movq	200(%rbp), %rax
	movq	%rbx, (%rax)
	movq	%rbx, 200(%rbp)
.L1504:
	movq	136(%rbp), %rax
	orq	$1, %rax
	movq	%rax, 136(%rbp)
	cmpq	$1, %rax
	je	.L1505
	movq	%r12, %rdi
	call	pthread_mutex_unlock@PLT
	leaq	88(%rbp), %rdi
	call	pthread_cond_signal@PLT
	jmp	.L1497
	.p2align 4,,10
	.p2align 3
.L1837:
	movq	88(%rbx), %rbp
	jmp	.L1493
	.p2align 4,,10
	.p2align 3
.L1830:
	movdqu	72(%rbp), %xmm6
	movdqu	88(%rbp), %xmm7
	leaq	320(%rsp), %r13
	movq	%r13, 144(%rsp)
	movaps	%xmm6, 368(%rsp)
	movaps	%xmm7, 384(%rsp)
	jmp	.L1441
.L1824:
	movq	(%r12), %rax
	movq	%r12, %rdi
	call	*24(%rax)
	jmp	.L1589
.L1826:
	movq	(%r12), %rax
	movq	%r12, %rdi
	call	*24(%rax)
	jmp	.L1604
.L1825:
	movq	(%r12), %rax
	movq	%r12, %rdi
	call	*24(%rax)
	jmp	.L1597
.L1811:
	movq	(%r14), %rax
	movq	%r14, %rdi
	call	*24(%rax)
	jmp	.L1368
.L1810:
	movq	(%r14), %rax
	movq	%r14, %rdi
	call	*24(%rax)
	jmp	.L1360
.L1809:
	movq	(%r14), %rax
	movq	%r14, %rdi
	call	*24(%rax)
	jmp	.L1353
.L1827:
	movq	(%r12), %rax
	movq	%r12, %rdi
	call	*24(%rax)
	jmp	.L1612
.L1447:
	movl	$-1, %eax
	lock xaddl	%eax, 8(%r14)
	jmp	.L1448
.L1477:
	movl	$-1, %eax
	lock xaddl	%eax, 8(%r12)
	jmp	.L1478
.L1485:
	movl	$-1, %eax
	lock xaddl	%eax, 8(%r12)
	jmp	.L1486
.L1503:
	movdqa	(%rsp), %xmm2
	movups	%xmm2, 192(%rbp)
	jmp	.L1504
.L1495:
	movq	%rbp, 88(%rbx)
	jmp	.L1496
.L1525:
	movl	$-1, %eax
	lock xaddl	%eax, 12(%r12)
	jmp	.L1526
.L1532:
	movl	$-1, %eax
	lock xaddl	%eax, 12(%r12)
	jmp	.L1533
.L1540:
	movl	$-1, %eax
	lock xaddl	%eax, 12(%r12)
	jmp	.L1541
.L1547:
	movl	$-1, %eax
	lock xaddl	%eax, 12(%r12)
	jmp	.L1548
.L1555:
	movl	$-1, %eax
	lock xaddl	%eax, 12(%r12)
	jmp	.L1556
.L1517:
	movl	$-1, %eax
	lock xaddl	%eax, 12(%r12)
	jmp	.L1518
.L1835:
	movq	(%r12), %rax
	movq	%r12, %rdi
	call	*16(%rax)
	cmpb	$0, 0(%rbp)
	je	.L1472
	movl	12(%r12), %eax
	leal	-1(%rax), %edx
	movl	%edx, 12(%r12)
.L1473:
	cmpl	$1, %eax
	jne	.L1468
	movq	(%r12), %rax
	movq	%r12, %rdi
	call	*24(%rax)
	jmp	.L1468
.L1834:
	movq	(%r12), %rax
	movq	%r12, %rdi
	call	*16(%rax)
	cmpb	$0, 0(%rbp)
	je	.L1464
	movl	12(%r12), %eax
	leal	-1(%rax), %edx
	movl	%edx, 12(%r12)
.L1465:
	cmpl	$1, %eax
	jne	.L1460
	movq	(%r12), %rax
	movq	%r12, %rdi
	call	*24(%rax)
	jmp	.L1460
.L1839:
	movzbl	104(%rbp), %edx
	movb	%dl, 0(%rbp)
	movq	%rbp, (%rax)
	jmp	.L1407
.L1505:
	cmpb	$0, 176(%rbp)
	jne	.L1507
	movq	144(%rbp), %rax
	testq	%rax, %rax
	je	.L1507
	movb	$1, 176(%rbp)
	leaq	88(%rax), %rdx
	movl	$3, %esi
	leaq	144(%rsp), %rcx
	movq	%rdx, 148(%rsp)
	movl	88(%rax), %edx
	movl	$-2147483639, 144(%rsp)
	movl	96(%rax), %edi
	call	epoll_ctl@PLT
.L1507:
	movq	%r12, %rdi
	call	pthread_mutex_unlock@PLT
	jmp	.L1497
.L1469:
	movl	$-1, %eax
	lock xaddl	%eax, 8(%r12)
	jmp	.L1470
.L1461:
	movl	$-1, %eax
	lock xaddl	%eax, 8(%r12)
	jmp	.L1462
.L1428:
	movdqa	16(%rsp), %xmm1
	movups	%xmm1, 88(%r12)
	jmp	.L1429
.L1357:
	movl	$-1, %eax
	lock xaddl	%eax, 12(%r14)
	jmp	.L1358
.L1616:
	movl	$-1, %eax
	lock xaddl	%eax, 12(%r12)
	jmp	.L1617
.L1372:
	movl	$-1, %eax
	lock xaddl	%eax, 12(%r14)
	jmp	.L1373
.L1364:
	movl	$-1, %eax
	lock xaddl	%eax, 12(%r14)
	jmp	.L1365
.L1593:
	movl	$-1, %eax
	lock xaddl	%eax, 12(%r12)
	jmp	.L1594
.L1608:
	movl	$-1, %eax
	lock xaddl	%eax, 12(%r12)
	jmp	.L1609
.L1601:
	movl	$-1, %eax
	lock xaddl	%eax, 12(%r12)
	jmp	.L1602
.L1435:
	movdqa	(%rsp), %xmm3
	movups	%xmm3, 192(%rbx)
	jmp	.L1436
.L1449:
	movq	(%r14), %rax
	movq	%r14, %rdi
	call	*16(%rax)
	cmpb	$0, 0(%rbp)
	je	.L1451
	movl	12(%r14), %eax
	leal	-1(%rax), %edx
	movl	%edx, 12(%r14)
.L1452:
	movq	152(%rsp), %rbp
	cmpl	$1, %eax
	jne	.L1450
	movq	(%r14), %rax
	movq	%r14, %rdi
	call	*24(%rax)
	jmp	.L1450
.L1832:
	movzbl	104(%rbp), %edx
	movb	%dl, 0(%rbp)
	movq	%rbp, (%rax)
	jmp	.L1455
.L1836:
	movzbl	104(%rbp), %edx
	movb	%dl, 0(%rbp)
	movq	%rbp, (%rax)
	jmp	.L1490
.L1464:
	movl	$-1, %eax
	lock xaddl	%eax, 12(%r12)
	jmp	.L1465
.L1472:
	movl	$-1, %eax
	lock xaddl	%eax, 12(%r12)
	jmp	.L1473
.L1434:
	movdqa	(%rsp), %xmm1
	movups	%xmm1, 8(%rax)
	jmp	.L1407
.L1451:
	movl	$-1, %eax
	lock xaddl	%eax, 12(%r14)
	jmp	.L1452
.L1488:
	movl	$-1, %eax
	lock xaddl	%eax, 12(%r12)
	jmp	.L1489
.L1480:
	movl	$-1, %eax
	lock xaddl	%eax, 12(%r12)
	jmp	.L1481
.L1502:
	movdqa	(%rsp), %xmm1
	movups	%xmm1, 8(%rax)
	jmp	.L1497
.L1807:
	call	__stack_chk_fail@PLT
.L1833:
.LEHB63:
	call	_ZSt25__throw_bad_function_callv@PLT
.LEHE63:
.L1831:
.LEHB64:
	call	_ZSt25__throw_bad_function_callv@PLT
.LEHE64:
.L1632:
	endbr64
	movq	%rax, %rbx
	jmp	.L1442
.L1629:
	endbr64
	movq	%rax, %rbx
	jmp	.L1512
.L1631:
	endbr64
	movq	%rax, %rbx
	jmp	.L1494
.L1624:
	endbr64
	movq	%rax, %rbp
	jmp	.L1349
.L1623:
	endbr64
	movq	%rax, %rbx
	jmp	.L1343
.L1628:
	endbr64
	movq	%rax, %rbx
	jmp	.L1399
.L1627:
	endbr64
	movq	%rax, %rbx
	jmp	.L1513
.L1630:
	endbr64
	movq	%rax, %rbx
	jmp	.L1414
.L1625:
	endbr64
	movq	%rax, %rbx
	jmp	.L1383
.L1626:
	endbr64
	movq	%rax, %rbx
	jmp	.L1393
	.section	.gcc_except_table
.LLSDA9356:
	.byte	0xff
	.byte	0xff
	.byte	0x1
	.uleb128 .LLSDACSE9356-.LLSDACSB9356
.LLSDACSB9356:
	.uleb128 .LEHB53-.LFB9356
	.uleb128 .LEHE53-.LEHB53
	.uleb128 .L1623-.LFB9356
	.uleb128 0
	.uleb128 .LEHB54-.LFB9356
	.uleb128 .LEHE54-.LEHB54
	.uleb128 .L1624-.LFB9356
	.uleb128 0
	.uleb128 .LEHB55-.LFB9356
	.uleb128 .LEHE55-.LEHB55
	.uleb128 .L1625-.LFB9356
	.uleb128 0
	.uleb128 .LEHB56-.LFB9356
	.uleb128 .LEHE56-.LEHB56
	.uleb128 .L1626-.LFB9356
	.uleb128 0
	.uleb128 .LEHB57-.LFB9356
	.uleb128 .LEHE57-.LEHB57
	.uleb128 .L1628-.LFB9356
	.uleb128 0
	.uleb128 .LEHB58-.LFB9356
	.uleb128 .LEHE58-.LEHB58
	.uleb128 .L1627-.LFB9356
	.uleb128 0
	.uleb128 .LEHB59-.LFB9356
	.uleb128 .LEHE59-.LEHB59
	.uleb128 .L1630-.LFB9356
	.uleb128 0
	.uleb128 .LEHB60-.LFB9356
	.uleb128 .LEHE60-.LEHB60
	.uleb128 .L1632-.LFB9356
	.uleb128 0
	.uleb128 .LEHB61-.LFB9356
	.uleb128 .LEHE61-.LEHB61
	.uleb128 .L1629-.LFB9356
	.uleb128 0
	.uleb128 .LEHB62-.LFB9356
	.uleb128 .LEHE62-.LEHB62
	.uleb128 .L1631-.LFB9356
	.uleb128 0
	.uleb128 .LEHB63-.LFB9356
	.uleb128 .LEHE63-.LEHB63
	.uleb128 .L1631-.LFB9356
	.uleb128 0
	.uleb128 .LEHB64-.LFB9356
	.uleb128 .LEHE64-.LEHB64
	.uleb128 .L1629-.LFB9356
	.uleb128 0
.LLSDACSE9356:
	.text
	.cfi_endproc
	.section	.text.unlikely
	.cfi_startproc
	.cfi_personality 0x9b,DW.ref.__gxx_personality_v0
	.cfi_lsda 0x1b,.LLSDAC9356
	.type	_ZN4asio6detail18completion_handlerINS0_17rewrapped_handlerINS0_7binder1INS0_15wrapped_handlerINS_10io_service6strandEZN7asiopal8Executor5StartERKNSt6chrono10time_pointINS9_3_V212steady_clockENS9_8durationIlSt5ratioILl1ELl1000000000EEEEEERKSt8functionIFvvEEEUlRKSt10error_codeE_NS0_26is_continuation_if_runningEEESP_EESS_EEE11do_completeEPNS0_15task_io_serviceEPNS0_25task_io_service_operationESR_m.cold, @function
_ZN4asio6detail18completion_handlerINS0_17rewrapped_handlerINS0_7binder1INS0_15wrapped_handlerINS_10io_service6strandEZN7asiopal8Executor5StartERKNSt6chrono10time_pointINS9_3_V212steady_clockENS9_8durationIlSt5ratioILl1ELl1000000000EEEEEERKSt8functionIFvvEEEUlRKSt10error_codeE_NS0_26is_continuation_if_runningEEESP_EESS_EEE11do_completeEPNS0_15task_io_serviceEPNS0_25task_io_service_operationESR_m.cold:
.LFSB9356:
.L1442:
	.cfi_def_cfa_offset 736
	.cfi_offset 3, -56
	.cfi_offset 6, -48
	.cfi_offset 12, -40
	.cfi_offset 13, -32
	.cfi_offset 14, -24
	.cfi_offset 15, -16
	movq	352(%rsp), %rax
	testq	%rax, %rax
	je	.L1443
	movl	$3, %edx
	movq	%r13, %rsi
	movq	%r13, %rdi
	call	*%rax
.L1443:
	movq	328(%rsp), %rdi
	testq	%rdi, %rdi
	je	.L1445
	call	_ZNSt16_Sp_counted_baseILN9__gnu_cxx12_Lock_policyE2EE10_M_releaseEv@PLT
.L1445:
	leaq	144(%rsp), %rdi
	call	_ZN4asio6detail18completion_handlerINS0_7binder1IZN7asiopal8Executor5StartERKNSt6chrono10time_pointINS5_3_V212steady_clockENS5_8durationIlSt5ratioILl1ELl1000000000EEEEEERKSt8functionIFvvEEEUlRKSt10error_codeE_SL_EEE3ptr5resetEv
	leaq	32(%rsp), %rdi
	call	_ZN4asio6detail14strand_service16on_dispatch_exitD1Ev@PLT
	data16	leaq	_ZN4asio6detail15keyword_tss_ptrINS0_10call_stackINS0_14strand_service11strand_implEhE7contextEE6value_E@tlsgd(%rip), %rdi
	.value	0x6666
	rex64
	call	__tls_get_addr@PLT
	movq	128(%rsp), %rdx
	movq	%rdx, (%rax)
.L1417:
	leaq	80(%rsp), %rdi
	call	_ZN4asio6detail18completion_handlerINS0_7binder1IZN7asiopal8Executor5StartERKNSt6chrono10time_pointINS5_3_V212steady_clockENS5_8durationIlSt5ratioILl1ELl1000000000EEEEEERKSt8functionIFvvEEEUlRKSt10error_codeE_SL_EEE3ptr5resetEv
.L1513:
	movq	%r15, %rdi
	call	_ZZN7asiopal8Executor5StartERKNSt6chrono10time_pointINS1_3_V212steady_clockENS1_8durationIlSt5ratioILl1ELl1000000000EEEEEERKSt8functionIFvvEEENUlRKSt10error_codeE_D1Ev
.L1402:
	leaq	240(%rsp), %rdi
	call	_ZZN7asiopal8Executor5StartERKNSt6chrono10time_pointINS1_3_V212steady_clockENS1_8durationIlSt5ratioILl1ELl1000000000EEEEEERKSt8functionIFvvEEENUlRKSt10error_codeE_D1Ev
.L1806:
	leaq	176(%rsp), %rdi
	movq	%rbx, %rbp
	call	_ZZN7asiopal8Executor5StartERKNSt6chrono10time_pointINS1_3_V212steady_clockENS1_8durationIlSt5ratioILl1ELl1000000000EEEEEERKSt8functionIFvvEEENUlRKSt10error_codeE_D1Ev
.L1390:
	sfence
	leaq	576(%rsp), %rdi
	call	_ZZN7asiopal8Executor5StartERKNSt6chrono10time_pointINS1_3_V212steady_clockENS1_8durationIlSt5ratioILl1ELl1000000000EEEEEERKSt8functionIFvvEEENUlRKSt10error_codeE_D1Ev
	movq	%r12, %rdi
	call	_ZZN7asiopal8Executor5StartERKNSt6chrono10time_pointINS1_3_V212steady_clockENS1_8durationIlSt5ratioILl1ELl1000000000EEEEEERKSt8functionIFvvEEENUlRKSt10error_codeE_D1Ev
.L1346:
	leaq	48(%rsp), %rdi
	call	_ZN4asio6detail18completion_handlerINS0_17rewrapped_handlerINS0_7binder1INS0_15wrapped_handlerINS_10io_service6strandEZN7asiopal8Executor5StartERKNSt6chrono10time_pointINS9_3_V212steady_clockENS9_8durationIlSt5ratioILl1ELl1000000000EEEEEERKSt8functionIFvvEEEUlRKSt10error_codeE_NS0_26is_continuation_if_runningEEESP_EESS_EEE3ptr5resetEv
	movq	%rbp, %rdi
.LEHB65:
	call	_Unwind_Resume@PLT
.LEHE65:
.L1512:
	sfence
	leaq	400(%rsp), %r15
	jmp	.L1513
.L1494:
	sfence
	movq	%r13, %rdi
	call	_ZZN7asiopal8Executor5StartERKNSt6chrono10time_pointINS1_3_V212steady_clockENS1_8durationIlSt5ratioILl1ELl1000000000EEEEEERKSt8functionIFvvEEENUlRKSt10error_codeE_D1Ev
	jmp	.L1445
.L1349:
	movq	608(%rsp), %rax
	testq	%rax, %rax
	je	.L1350
	movl	$3, %edx
	movq	%r12, %rsi
	movq	%r12, %rdi
	call	*%rax
.L1350:
	movq	584(%rsp), %rdi
	testq	%rdi, %rdi
	je	.L1351
	call	_ZNSt16_Sp_counted_baseILN9__gnu_cxx12_Lock_policyE2EE10_M_releaseEv@PLT
.L1351:
	leaq	496(%rsp), %rdi
	call	_ZZN7asiopal8Executor5StartERKNSt6chrono10time_pointINS1_3_V212steady_clockENS1_8durationIlSt5ratioILl1ELl1000000000EEEEEERKSt8functionIFvvEEENUlRKSt10error_codeE_D1Ev
	jmp	.L1346
.L1343:
	movq	528(%rsp), %rax
	testq	%rax, %rax
	je	.L1344
	movl	$3, %edx
	movq	%rbp, %rsi
	movq	%rbp, %rdi
	call	*%rax
.L1344:
	movq	504(%rsp), %rdi
	testq	%rdi, %rdi
	je	.L1345
	call	_ZNSt16_Sp_counted_baseILN9__gnu_cxx12_Lock_policyE2EE10_M_releaseEv@PLT
.L1345:
	movq	%rbx, %rbp
	jmp	.L1346
.L1399:
	movq	432(%rsp), %rax
	testq	%rax, %rax
	je	.L1400
	movl	$3, %edx
	movq	%rbp, %rsi
	movq	%rbp, %rdi
	call	*%rax
.L1400:
	movq	408(%rsp), %rdi
	testq	%rdi, %rdi
	je	.L1402
	call	_ZNSt16_Sp_counted_baseILN9__gnu_cxx12_Lock_policyE2EE10_M_releaseEv@PLT
	jmp	.L1402
.L1414:
	movq	56(%rbp), %rax
	testq	%rax, %rax
	je	.L1415
	movl	$3, %edx
	movq	%r14, %rsi
	movq	%r14, %rdi
	call	*%rax
.L1415:
	movq	32(%rbp), %rdi
	testq	%rdi, %rdi
	je	.L1417
	call	_ZNSt16_Sp_counted_baseILN9__gnu_cxx12_Lock_policyE2EE10_M_releaseEv@PLT
	jmp	.L1417
.L1383:
	movq	208(%rsp), %rax
	testq	%rax, %rax
	je	.L1384
	movl	$3, %edx
	movq	%rbp, %rsi
	movq	%rbp, %rdi
	call	*%rax
.L1384:
	movq	184(%rsp), %rdi
	testq	%rdi, %rdi
	je	.L1386
	call	_ZNSt16_Sp_counted_baseILN9__gnu_cxx12_Lock_policyE2EE10_M_releaseEv@PLT
.L1386:
	movq	%rbx, %rbp
	jmp	.L1390
.L1393:
	movq	272(%rsp), %rax
	testq	%rax, %rax
	je	.L1394
	movl	$3, %edx
	movq	%rbp, %rsi
	movq	%rbp, %rdi
	call	*%rax
.L1394:
	movq	248(%rsp), %rdi
	testq	%rdi, %rdi
	je	.L1806
	call	_ZNSt16_Sp_counted_baseILN9__gnu_cxx12_Lock_policyE2EE10_M_releaseEv@PLT
	jmp	.L1806
	.cfi_endproc
.LFE9356:
	.section	.gcc_except_table
.LLSDAC9356:
	.byte	0xff
	.byte	0xff
	.byte	0x1
	.uleb128 .LLSDACSEC9356-.LLSDACSBC9356
.LLSDACSBC9356:
	.uleb128 .LEHB65-.LCOLDB34
	.uleb128 .LEHE65-.LEHB65
	.uleb128 0
	.uleb128 0
.LLSDACSEC9356:
	.section	.text.unlikely
	.text
	.size	_ZN4asio6detail18completion_handlerINS0_17rewrapped_handlerINS0_7binder1INS0_15wrapped_handlerINS_10io_service6strandEZN7asiopal8Executor5StartERKNSt6chrono10time_pointINS9_3_V212steady_clockENS9_8durationIlSt5ratioILl1ELl1000000000EEEEEERKSt8functionIFvvEEEUlRKSt10error_codeE_NS0_26is_continuation_if_runningEEESP_EESS_EEE11do_completeEPNS0_15task_io_serviceEPNS0_25task_io_service_operationESR_m, .-_ZN4asio6detail18completion_handlerINS0_17rewrapped_handlerINS0_7binder1INS0_15wrapped_handlerINS_10io_service6strandEZN7asiopal8Executor5StartERKNSt6chrono10time_pointINS9_3_V212steady_clockENS9_8durationIlSt5ratioILl1ELl1000000000EEEEEERKSt8functionIFvvEEEUlRKSt10error_codeE_NS0_26is_continuation_if_runningEEESP_EESS_EEE11do_completeEPNS0_15task_io_serviceEPNS0_25task_io_service_operationESR_m
	.section	.text.unlikely
	.size	_ZN4asio6detail18completion_handlerINS0_17rewrapped_handlerINS0_7binder1INS0_15wrapped_handlerINS_10io_service6strandEZN7asiopal8Executor5StartERKNSt6chrono10time_pointINS9_3_V212steady_clockENS9_8durationIlSt5ratioILl1ELl1000000000EEEEEERKSt8functionIFvvEEEUlRKSt10error_codeE_NS0_26is_continuation_if_runningEEESP_EESS_EEE11do_completeEPNS0_15task_io_serviceEPNS0_25task_io_service_operationESR_m.cold, .-_ZN4asio6detail18completion_handlerINS0_17rewrapped_handlerINS0_7binder1INS0_15wrapped_handlerINS_10io_service6strandEZN7asiopal8Executor5StartERKNSt6chrono10time_pointINS9_3_V212steady_clockENS9_8durationIlSt5ratioILl1ELl1000000000EEEEEERKSt8functionIFvvEEEUlRKSt10error_codeE_NS0_26is_continuation_if_runningEEESP_EESS_EEE11do_completeEPNS0_15task_io_serviceEPNS0_25task_io_service_operationESR_m.cold
.LCOLDE34:
	.text
.LHOTE34:
	.section	.text.unlikely
.LCOLDB35:
	.text
.LHOTB35:
	.p2align 4
	.type	_ZN4asio6detail12wait_handlerINS0_15wrapped_handlerINS_10io_service6strandEZN7asiopal8Executor5StartERKNSt6chrono10time_pointINS7_3_V212steady_clockENS7_8durationIlSt5ratioILl1ELl1000000000EEEEEERKSt8functionIFvvEEEUlRKSt10error_codeE_NS0_26is_continuation_if_runningEEEE11do_completeEPNS0_15task_io_serviceEPNS0_25task_io_service_operationESP_m, @function
_ZN4asio6detail12wait_handlerINS0_15wrapped_handlerINS_10io_service6strandEZN7asiopal8Executor5StartERKNSt6chrono10time_pointINS7_3_V212steady_clockENS7_8durationIlSt5ratioILl1ELl1000000000EEEEEERKSt8functionIFvvEEEUlRKSt10error_codeE_NS0_26is_continuation_if_runningEEEE11do_completeEPNS0_15task_io_serviceEPNS0_25task_io_service_operationESP_m:
.LFB8880:
	.cfi_startproc
	.cfi_personality 0x9b,DW.ref.__gxx_personality_v0
	.cfi_lsda 0x1b,.LLSDA8880
	endbr64
	pushq	%r15
	.cfi_def_cfa_offset 16
	.cfi_offset 15, -16
	movq	%rsi, %xmm4
	pushq	%r14
	.cfi_def_cfa_offset 24
	.cfi_offset 14, -24
	pushq	%r13
	.cfi_def_cfa_offset 32
	.cfi_offset 13, -32
	pushq	%r12
	.cfi_def_cfa_offset 40
	.cfi_offset 12, -40
	pushq	%rbp
	.cfi_def_cfa_offset 48
	.cfi_offset 6, -48
	movq	%rsi, %rbp
	pushq	%rbx
	.cfi_def_cfa_offset 56
	.cfi_offset 3, -56
	movq	%rdi, %rbx
	subq	$936, %rsp
	.cfi_def_cfa_offset 992
	movdqu	56(%rsi), %xmm6
	movdqu	40(%rsi), %xmm5
	movq	%fs:40, %rax
	movq	%rax, 920(%rsp)
	xorl	%eax, %eax
	leaq	40(%rsi), %rax
	movq	%rsi, 64(%rsp)
	movq	%rax, %xmm0
	movq	88(%rsi), %rax
	movq	$0, 544(%rsp)
	punpcklqdq	%xmm4, %xmm0
	movaps	%xmm5, 496(%rsp)
	movaps	%xmm0, 48(%rsp)
	pxor	%xmm0, %xmm0
	movups	%xmm0, 56(%rsi)
	pxor	%xmm0, %xmm0
	movq	$0, 552(%rsp)
	movaps	%xmm6, 512(%rsp)
	movaps	%xmm0, 528(%rsp)
	testq	%rax, %rax
	je	.L1841
	leaq	72(%rsi), %r12
	leaq	528(%rsp), %r13
	movl	$2, %edx
	movq	%r12, %rsi
	movq	%r13, %rdi
.LEHB66:
	call	*%rax
.LEHE66:
	movdqu	88(%rbp), %xmm7
	movdqu	104(%rbp), %xmm2
	leaq	496(%rsp), %rdx
	movq	88(%rbp), %rax
	movq	%rdx, 48(%rsp)
	movaps	%xmm7, 544(%rsp)
	movdqu	24(%rbp), %xmm7
	movaps	%xmm2, 560(%rsp)
	movaps	%xmm7, 576(%rsp)
	testq	%rax, %rax
	je	.L1843
	movl	$3, %edx
	movq	%r12, %rsi
	movq	%r12, %rdi
	call	*%rax
.L1843:
	movq	64(%rbp), %r12
	testq	%r12, %r12
	je	.L1848
	movq	__libc_single_threaded@GOTPCREL(%rip), %rbp
	cmpb	$0, 0(%rbp)
	je	.L1849
	movl	8(%r12), %eax
	leal	-1(%rax), %edx
	movl	%edx, 8(%r12)
.L1850:
	cmpl	$1, %eax
	je	.L1851
	movq	56(%rsp), %rbp
.L1852:
	movq	$0, 64(%rsp)
	testq	%rbp, %rbp
	jne	.L2221
	testq	%rbx, %rbx
	jne	.L2490
	.p2align 4,,10
	.p2align 3
.L1858:
	movq	568(%rsp), %r12
	testq	%r12, %r12
	je	.L2187
	movq	__libc_single_threaded@GOTPCREL(%rip), %rbp
	cmpb	$0, 0(%rbp)
	je	.L2188
	movl	8(%r12), %eax
	leal	-1(%rax), %edx
	movl	%edx, 8(%r12)
.L2189:
	cmpl	$1, %eax
	je	.L2491
.L2187:
	movq	544(%rsp), %rax
	testq	%rax, %rax
	je	.L2193
	leaq	528(%rsp), %rdi
	movl	$3, %edx
	movq	%rdi, %rsi
	call	*%rax
.L2193:
	movq	520(%rsp), %r12
	testq	%r12, %r12
	je	.L2195
	movq	__libc_single_threaded@GOTPCREL(%rip), %rbp
	cmpb	$0, 0(%rbp)
	je	.L2196
	movl	8(%r12), %eax
	leal	-1(%rax), %edx
	movl	%edx, 8(%r12)
.L2197:
	cmpl	$1, %eax
	je	.L2492
.L2195:
	movq	64(%rsp), %rbx
	testq	%rbx, %rbx
	je	.L2201
	movq	112(%rbx), %r12
	testq	%r12, %r12
	je	.L2203
	movq	__libc_single_threaded@GOTPCREL(%rip), %rbp
	cmpb	$0, 0(%rbp)
	je	.L2204
	movl	8(%r12), %eax
	leal	-1(%rax), %edx
	movl	%edx, 8(%r12)
.L2205:
	cmpl	$1, %eax
	jne	.L2203
	movq	(%r12), %rax
	movq	%r12, %rdi
	call	*16(%rax)
	cmpb	$0, 0(%rbp)
	je	.L2207
	movl	12(%r12), %eax
	leal	-1(%rax), %edx
	movl	%edx, 12(%r12)
.L2208:
	cmpl	$1, %eax
	je	.L2493
	.p2align 4,,10
	.p2align 3
.L2203:
	movq	88(%rbx), %rax
	testq	%rax, %rax
	je	.L2209
	leaq	72(%rbx), %rdi
	movl	$3, %edx
	movq	%rdi, %rsi
	call	*%rax
.L2209:
	movq	64(%rbx), %r12
	testq	%r12, %r12
	je	.L2211
	movq	__libc_single_threaded@GOTPCREL(%rip), %rbp
	cmpb	$0, 0(%rbp)
	je	.L2212
	movl	8(%r12), %eax
	leal	-1(%rax), %edx
	movl	%edx, 8(%r12)
.L2213:
	cmpl	$1, %eax
	jne	.L2211
	movq	(%r12), %rax
	movq	%r12, %rdi
	call	*16(%rax)
	cmpb	$0, 0(%rbp)
	je	.L2215
	movl	12(%r12), %eax
	leal	-1(%rax), %edx
	movl	%edx, 12(%r12)
.L2216:
	cmpl	$1, %eax
	je	.L2494
	.p2align 4,,10
	.p2align 3
.L2211:
	movq	$0, 64(%rsp)
.L2201:
	movq	56(%rsp), %rbp
	testq	%rbp, %rbp
	je	.L1840
	data16	leaq	_ZN4asio6detail15keyword_tss_ptrINS0_10call_stackINS0_15task_io_serviceENS0_27task_io_service_thread_infoEE7contextEE6value_E@tlsgd(%rip), %rdi
	.value	0x6666
	rex64
	call	__tls_get_addr@PLT
	movq	(%rax), %rax
	testq	%rax, %rax
	je	.L2218
	movq	8(%rax), %rax
	testq	%rax, %rax
	je	.L2218
	cmpq	$0, (%rax)
	je	.L2495
.L2218:
	movq	920(%rsp), %rax
	subq	%fs:40, %rax
	jne	.L2488
	addq	$936, %rsp
	.cfi_remember_state
	.cfi_def_cfa_offset 56
	movq	%rbp, %rdi
	popq	%rbx
	.cfi_def_cfa_offset 48
	popq	%rbp
	.cfi_def_cfa_offset 40
	popq	%r12
	.cfi_def_cfa_offset 32
	popq	%r13
	.cfi_def_cfa_offset 24
	popq	%r14
	.cfi_def_cfa_offset 16
	popq	%r15
	.cfi_def_cfa_offset 8
	jmp	_ZdlPv@PLT
	.p2align 4,,10
	.p2align 3
.L1848:
	.cfi_restore_state
	movq	$0, 64(%rsp)
.L2221:
	data16	leaq	_ZN4asio6detail15keyword_tss_ptrINS0_10call_stackINS0_15task_io_serviceENS0_27task_io_service_thread_infoEE7contextEE6value_E@tlsgd(%rip), %rdi
	.value	0x6666
	rex64
	call	__tls_get_addr@PLT
	movq	(%rax), %rax
	testq	%rax, %rax
	je	.L1856
	movq	8(%rax), %rax
	testq	%rax, %rax
	je	.L1856
	cmpq	$0, (%rax)
	je	.L2496
.L1856:
	movq	%rbp, %rdi
	call	_ZdlPv@PLT
.L1857:
	movq	$0, 56(%rsp)
	testq	%rbx, %rbx
	je	.L1858
.L2490:
	movdqa	512(%rsp), %xmm1
	movq	520(%rsp), %rax
	movaps	%xmm1, 592(%rsp)
	testq	%rax, %rax
	je	.L1859
	movq	__libc_single_threaded@GOTPCREL(%rip), %rdx
	cmpb	$0, (%rdx)
	je	.L1860
	addl	$1, 8(%rax)
.L1859:
	movq	544(%rsp), %rax
	pxor	%xmm0, %xmm0
	movq	$0, 624(%rsp)
	movq	$0, 632(%rsp)
	movaps	%xmm0, 608(%rsp)
	testq	%rax, %rax
	je	.L1861
	leaq	608(%rsp), %rbp
	leaq	528(%rsp), %rsi
	movl	$2, %edx
	movq	%rbp, %rdi
.LEHB67:
	call	*%rax
.LEHE67:
	movdqa	544(%rsp), %xmm7
	movq	544(%rsp), %rax
	movaps	%xmm7, 624(%rsp)
.L1861:
	movdqa	560(%rsp), %xmm4
	movq	568(%rsp), %rdx
	movaps	%xmm4, 640(%rsp)
	testq	%rdx, %rdx
	je	.L1863
	movq	__libc_single_threaded@GOTPCREL(%rip), %rax
	cmpb	$0, (%rax)
	je	.L1868
	addl	$1, 8(%rdx)
	movq	544(%rsp), %rax
.L1863:
	movdqa	512(%rsp), %xmm6
	pxor	%xmm0, %xmm0
	movdqa	496(%rsp), %xmm5
	movq	$0, 704(%rsp)
	movaps	%xmm0, 512(%rsp)
	pxor	%xmm0, %xmm0
	movq	$0, 712(%rsp)
	movaps	%xmm5, 656(%rsp)
	movaps	%xmm6, 672(%rsp)
	movaps	%xmm0, 688(%rsp)
	testq	%rax, %rax
	je	.L1870
	leaq	688(%rsp), %rbp
	leaq	528(%rsp), %rsi
	movl	$2, %edx
	movq	%rbp, %rdi
.LEHB68:
	call	*%rax
.LEHE68:
	movdqa	544(%rsp), %xmm1
	movq	544(%rsp), %rax
	movaps	%xmm1, 704(%rsp)
.L1870:
	pxor	%xmm0, %xmm0
	movdqa	560(%rsp), %xmm2
	movdqa	592(%rsp), %xmm7
	movq	$0, 784(%rsp)
	movq	624(%rsp), %rcx
	movaps	%xmm0, 560(%rsp)
	movdqa	576(%rsp), %xmm3
	movaps	%xmm0, 592(%rsp)
	pxor	%xmm0, %xmm0
	movq	$0, 792(%rsp)
	movaps	%xmm2, 720(%rsp)
	movaps	%xmm3, 736(%rsp)
	movaps	%xmm7, 752(%rsp)
	movaps	%xmm0, 768(%rsp)
	testq	%rcx, %rcx
	je	.L1873
	leaq	768(%rsp), %rbp
	leaq	608(%rsp), %rsi
	movl	$2, %edx
	movq	%rbp, %rdi
.LEHB69:
	call	*%rcx
.LEHE69:
	movdqa	624(%rsp), %xmm3
	movq	704(%rsp), %rax
	movaps	%xmm3, 784(%rsp)
.L1873:
	movdqa	640(%rsp), %xmm1
	pxor	%xmm0, %xmm0
	movdqa	672(%rsp), %xmm5
	movq	$0, 864(%rsp)
	movdqa	656(%rsp), %xmm4
	movaps	%xmm0, 640(%rsp)
	movaps	%xmm0, 672(%rsp)
	pxor	%xmm0, %xmm0
	movq	$0, 872(%rsp)
	movaps	%xmm1, 800(%rsp)
	movaps	%xmm4, 816(%rsp)
	movaps	%xmm5, 832(%rsp)
	movaps	%xmm0, 848(%rsp)
	testq	%rax, %rax
	je	.L1878
	leaq	848(%rsp), %rbp
	leaq	688(%rsp), %rsi
	movl	$2, %edx
	movq	%rbp, %rdi
.LEHB70:
	call	*%rax
.LEHE70:
	movdqa	704(%rsp), %xmm4
	movaps	%xmm4, 864(%rsp)
.L1878:
	movdqa	720(%rsp), %xmm6
	pxor	%xmm0, %xmm0
	movdqa	736(%rsp), %xmm2
	movaps	%xmm0, 720(%rsp)
	movq	496(%rsp), %r12
	movq	504(%rsp), %rbp
	movaps	%xmm6, 880(%rsp)
	movaps	%xmm2, 896(%rsp)
	data16	leaq	_ZN4asio6detail15keyword_tss_ptrINS0_10call_stackINS0_14strand_service11strand_implEhE7contextEE6value_E@tlsgd(%rip), %rdi
	.value	0x6666
	rex64
	call	__tls_get_addr@PLT
	movq	(%rax), %rax
	testq	%rax, %rax
	jne	.L1883
	jmp	.L1884
	.p2align 4,,10
	.p2align 3
.L1888:
	movq	16(%rax), %rax
	testq	%rax, %rax
	je	.L1884
.L1883:
	cmpq	(%rax), %rbp
	jne	.L1888
	cmpq	$0, 8(%rax)
	je	.L1884
	lfence
	movq	840(%rsp), %rax
	movdqa	832(%rsp), %xmm7
	movaps	%xmm7, 176(%rsp)
	testq	%rax, %rax
	je	.L1890
	movq	__libc_single_threaded@GOTPCREL(%rip), %rdx
	cmpb	$0, (%rdx)
	je	.L1891
	addl	$1, 8(%rax)
.L1890:
	movq	864(%rsp), %rax
	pxor	%xmm0, %xmm0
	movq	$0, 208(%rsp)
	movq	$0, 216(%rsp)
	movaps	%xmm0, 192(%rsp)
	testq	%rax, %rax
	je	.L1892
	leaq	192(%rsp), %rbp
	leaq	848(%rsp), %rsi
	movl	$2, %edx
	movq	%rbp, %rdi
.LEHB71:
	call	*%rax
.LEHE71:
	movdqa	864(%rsp), %xmm3
	movq	864(%rsp), %rax
	movaps	%xmm3, 208(%rsp)
.L1892:
	movdqa	880(%rsp), %xmm1
	movq	888(%rsp), %rdx
	movaps	%xmm1, 224(%rsp)
	testq	%rdx, %rdx
	je	.L1894
	movq	__libc_single_threaded@GOTPCREL(%rip), %rax
	cmpb	$0, (%rax)
	je	.L1899
	addl	$1, 8(%rdx)
	movq	208(%rsp), %rax
.L1894:
	movdqa	176(%rsp), %xmm1
	pxor	%xmm0, %xmm0
	movq	$0, 272(%rsp)
	movaps	%xmm0, 176(%rsp)
	pxor	%xmm0, %xmm0
	movq	$0, 280(%rsp)
	movaps	%xmm1, 240(%rsp)
	movaps	%xmm0, 256(%rsp)
	testq	%rax, %rax
	je	.L1901
	leaq	256(%rsp), %rbp
	leaq	192(%rsp), %rsi
	movl	$2, %edx
	movq	%rbp, %rdi
.LEHB72:
	call	*%rax
.LEHE72:
	movdqa	208(%rsp), %xmm7
	movq	208(%rsp), %rax
	movdqa	240(%rsp), %xmm1
	movaps	%xmm7, 272(%rsp)
.L1901:
	movdqa	224(%rsp), %xmm0
	pxor	%xmm2, %xmm2
	movdqa	896(%rsp), %xmm6
	movaps	%xmm1, 400(%rsp)
	pxor	%xmm1, %xmm1
	movaps	%xmm2, 224(%rsp)
	movq	$0, 432(%rsp)
	movq	$0, 440(%rsp)
	movaps	%xmm0, 288(%rsp)
	movaps	%xmm6, 304(%rsp)
	movaps	%xmm2, 240(%rsp)
	movaps	%xmm1, 416(%rsp)
	testq	%rax, %rax
	je	.L1904
	leaq	416(%rsp), %rbp
	leaq	256(%rsp), %rsi
	movl	$2, %edx
	movq	%rbp, %rdi
.LEHB73:
	call	*%rax
.LEHE73:
	movdqa	272(%rsp), %xmm1
	movdqa	288(%rsp), %xmm0
	movaps	%xmm1, 432(%rsp)
.L1904:
	movaps	%xmm0, 448(%rsp)
	pxor	%xmm0, %xmm0
	movdqa	304(%rsp), %xmm4
	movq	816(%rsp), %r12
	movaps	%xmm0, 288(%rsp)
	movq	824(%rsp), %rbx
	movaps	%xmm4, 464(%rsp)
	data16	leaq	_ZN4asio6detail15keyword_tss_ptrINS0_10call_stackINS0_14strand_service11strand_implEhE7contextEE6value_E@tlsgd(%rip), %rdi
	.value	0x6666
	rex64
	call	__tls_get_addr@PLT
	movq	(%rax), %rax
	testq	%rax, %rax
	jne	.L1909
	jmp	.L1910
	.p2align 4,,10
	.p2align 3
.L1915:
	movq	16(%rax), %rax
	testq	%rax, %rax
	je	.L1910
.L1909:
	cmpq	(%rax), %rbx
	jne	.L1915
	cmpq	$0, 8(%rax)
	je	.L1910
	lfence
	movl	464(%rsp), %edx
	testl	%edx, %edx
	je	.L2497
.L1917:
	sfence
.L1919:
	movq	456(%rsp), %r12
	testq	%r12, %r12
	je	.L2023
	movq	__libc_single_threaded@GOTPCREL(%rip), %rbp
	cmpb	$0, 0(%rbp)
	je	.L2026
	movl	8(%r12), %eax
	leal	-1(%rax), %edx
	movl	%edx, 8(%r12)
.L2027:
	cmpl	$1, %eax
	je	.L2498
.L2023:
	movq	432(%rsp), %rax
	testq	%rax, %rax
	je	.L2031
	leaq	416(%rsp), %rdi
	movl	$3, %edx
	movq	%rdi, %rsi
	call	*%rax
.L2031:
	movq	408(%rsp), %r12
	testq	%r12, %r12
	je	.L2033
	movq	__libc_single_threaded@GOTPCREL(%rip), %rbp
	cmpb	$0, 0(%rbp)
	je	.L2034
	movl	8(%r12), %eax
	leal	-1(%rax), %edx
	movl	%edx, 8(%r12)
.L2035:
	cmpl	$1, %eax
	je	.L2499
.L2033:
	movq	296(%rsp), %r12
	testq	%r12, %r12
	je	.L2040
	movq	__libc_single_threaded@GOTPCREL(%rip), %rbp
	cmpb	$0, 0(%rbp)
	je	.L2041
	movl	8(%r12), %eax
	leal	-1(%rax), %edx
	movl	%edx, 8(%r12)
.L2042:
	cmpl	$1, %eax
	je	.L2500
.L2040:
	movq	272(%rsp), %rax
	testq	%rax, %rax
	je	.L2046
	leaq	256(%rsp), %rdi
	movl	$3, %edx
	movq	%rdi, %rsi
	call	*%rax
.L2046:
	movq	248(%rsp), %r12
	testq	%r12, %r12
	je	.L2048
	movq	__libc_single_threaded@GOTPCREL(%rip), %rbp
	cmpb	$0, 0(%rbp)
	je	.L2049
	movl	8(%r12), %eax
	leal	-1(%rax), %edx
	movl	%edx, 8(%r12)
.L2050:
	cmpl	$1, %eax
	je	.L2501
.L2048:
	movq	232(%rsp), %r12
	testq	%r12, %r12
	je	.L2055
	movq	__libc_single_threaded@GOTPCREL(%rip), %rbp
	cmpb	$0, 0(%rbp)
	je	.L2056
	movl	8(%r12), %eax
	leal	-1(%rax), %edx
	movl	%edx, 8(%r12)
.L2057:
	cmpl	$1, %eax
	je	.L2502
.L2055:
	movq	208(%rsp), %rax
	testq	%rax, %rax
	je	.L2061
	leaq	192(%rsp), %rdi
	movl	$3, %edx
	movq	%rdi, %rsi
	call	*%rax
.L2061:
	movq	184(%rsp), %r12
	testq	%r12, %r12
	je	.L2063
	movq	__libc_single_threaded@GOTPCREL(%rip), %rbp
	cmpb	$0, 0(%rbp)
	je	.L2064
	movl	8(%r12), %eax
	leal	-1(%rax), %edx
	movl	%edx, 8(%r12)
.L2065:
	cmpl	$1, %eax
	je	.L2503
.L2063:
	sfence
	jmp	.L2069
	.p2align 4,,10
	.p2align 3
.L1884:
	pxor	%xmm0, %xmm0
	leaq	752(%rsp), %r13
	movq	%r13, 112(%rsp)
	movups	%xmm0, 120(%rsp)
	data16	leaq	_ZN4asio6detail15keyword_tss_ptrINS0_10call_stackINS0_15task_io_serviceENS0_27task_io_service_thread_infoEE7contextEE6value_E@tlsgd(%rip), %rdi
	.value	0x6666
	rex64
	call	__tls_get_addr@PLT
	movq	(%rax), %rax
	testq	%rax, %rax
	je	.L2070
	movq	8(%rax), %rax
	testq	%rax, %rax
	je	.L2070
	movq	(%rax), %rbp
	testq	%rbp, %rbp
	je	.L2070
	movq	$0, (%rax)
	movzbl	0(%rbp), %eax
	cmpb	$-73, %al
	jbe	.L2071
	movb	%al, 184(%rbp)
	jmp	.L2072
	.p2align 4,,10
	.p2align 3
.L2495:
	movzbl	120(%rbp), %edx
	movb	%dl, 0(%rbp)
	movq	%rbp, (%rax)
.L1840:
	movq	920(%rsp), %rax
	subq	%fs:40, %rax
	jne	.L2488
	addq	$936, %rsp
	.cfi_remember_state
	.cfi_def_cfa_offset 56
	popq	%rbx
	.cfi_def_cfa_offset 48
	popq	%rbp
	.cfi_def_cfa_offset 40
	popq	%r12
	.cfi_def_cfa_offset 32
	popq	%r13
	.cfi_def_cfa_offset 24
	popq	%r14
	.cfi_def_cfa_offset 16
	popq	%r15
	.cfi_def_cfa_offset 8
	ret
	.p2align 4,,10
	.p2align 3
.L2071:
	.cfi_restore_state
	movq	%rbp, %rdi
	call	_ZdlPv@PLT
.L2070:
	movl	$185, %edi
.LEHB74:
	call	_Znwm@PLT
.LEHE74:
	movb	$-72, 184(%rax)
	movq	%rax, %rbp
.L2072:
	leaq	_ZN4asio6detail18completion_handlerINS0_17rewrapped_handlerINS0_7binder1INS0_15wrapped_handlerINS_10io_service6strandEZN7asiopal8Executor5StartERKNSt6chrono10time_pointINS9_3_V212steady_clockENS9_8durationIlSt5ratioILl1ELl1000000000EEEEEERKSt8functionIFvvEEEUlRKSt10error_codeE_NS0_26is_continuation_if_runningEEESP_EESS_EEE11do_completeEPNS0_15task_io_serviceEPNS0_25task_io_service_operationESR_m(%rip), %rax
	movq	%rbp, 120(%rsp)
	pxor	%xmm0, %xmm0
	movq	%rbp, %xmm3
	movq	%rax, 8(%rbp)
	punpcklqdq	%xmm3, %xmm3
	leaq	24(%rbp), %r14
	movq	$0, 0(%rbp)
	movdqa	752(%rsp), %xmm5
	movaps	%xmm0, 752(%rsp)
	pxor	%xmm0, %xmm0
	movups	%xmm5, 24(%rbp)
	movq	784(%rsp), %rax
	movl	$0, 16(%rbp)
	movq	$0, 56(%rbp)
	movq	$0, 64(%rbp)
	movaps	%xmm3, (%rsp)
	movups	%xmm0, 40(%rbp)
	testq	%rax, %rax
	je	.L2073
	leaq	40(%rbp), %r15
	leaq	768(%rsp), %rsi
	movl	$2, %edx
	movq	%r15, %rdi
.LEHB75:
	call	*%rax
.LEHE75:
	movdqa	784(%rsp), %xmm4
	movups	%xmm4, 56(%rbp)
.L2073:
	movdqa	800(%rsp), %xmm6
	pxor	%xmm0, %xmm0
	movq	$0, 136(%rbp)
	movaps	%xmm0, 800(%rsp)
	movups	%xmm6, 72(%rbp)
	movdqa	816(%rsp), %xmm2
	movq	$0, 144(%rbp)
	movups	%xmm2, 88(%rbp)
	movdqa	832(%rsp), %xmm7
	movaps	%xmm0, 832(%rsp)
	pxor	%xmm0, %xmm0
	movups	%xmm7, 104(%rbp)
	movq	864(%rsp), %rax
	movups	%xmm0, 120(%rbp)
	testq	%rax, %rax
	je	.L2075
	leaq	120(%rbp), %r15
	leaq	848(%rsp), %rsi
	movl	$2, %edx
	movq	%r15, %rdi
.LEHB76:
	call	*%rax
.LEHE76:
	movdqa	864(%rsp), %xmm2
	movups	%xmm2, 136(%rbp)
.L2075:
	movdqa	880(%rsp), %xmm1
	pxor	%xmm0, %xmm0
	movaps	%xmm0, 880(%rsp)
	movups	%xmm1, 152(%rbp)
	movq	40(%r12), %rbx
	movdqa	896(%rsp), %xmm3
	movups	%xmm3, 168(%rbp)
	data16	leaq	_ZN4asio6detail15keyword_tss_ptrINS0_10call_stackINS0_15task_io_serviceENS0_27task_io_service_thread_infoEE7contextEE6value_E@tlsgd(%rip), %rdi
	.value	0x6666
	rex64
	call	__tls_get_addr@PLT
	movq	(%rax), %rax
	testq	%rax, %rax
	jne	.L2080
	jmp	.L2081
	.p2align 4,,10
	.p2align 3
.L2085:
	movq	16(%rax), %rax
	testq	%rax, %rax
	je	.L2081
.L2080:
	cmpq	(%rax), %rbx
	jne	.L2085
	movq	8(%rax), %rbx
	movq	504(%rsp), %rax
	leaq	24(%rax), %rdi
	call	pthread_mutex_lock@PLT
	testq	%rbx, %rbx
	je	.L2087
	movq	504(%rsp), %rax
	cmpb	$0, 64(%rax)
	leaq	24(%rax), %rdi
	je	.L2504
.L2088:
	movq	$0, 0(%rbp)
	movq	80(%rax), %rdx
	testq	%rdx, %rdx
	je	.L2091
	movq	%rbp, (%rdx)
	movq	%rbp, 80(%rax)
.L2486:
	call	pthread_mutex_unlock@PLT
.L2069:
	movq	888(%rsp), %r12
	testq	%r12, %r12
	je	.L2125
	movq	__libc_single_threaded@GOTPCREL(%rip), %rbp
	cmpb	$0, 0(%rbp)
	je	.L2128
	movl	8(%r12), %eax
	leal	-1(%rax), %edx
	movl	%edx, 8(%r12)
.L2129:
	cmpl	$1, %eax
	je	.L2505
.L2125:
	movq	864(%rsp), %rax
	testq	%rax, %rax
	je	.L2133
	leaq	848(%rsp), %rdi
	movl	$3, %edx
	movq	%rdi, %rsi
	call	*%rax
.L2133:
	movq	840(%rsp), %r12
	testq	%r12, %r12
	je	.L2135
	movq	__libc_single_threaded@GOTPCREL(%rip), %rbp
	cmpb	$0, 0(%rbp)
	je	.L2136
	movl	8(%r12), %eax
	leal	-1(%rax), %edx
	movl	%edx, 8(%r12)
.L2137:
	cmpl	$1, %eax
	je	.L2506
.L2135:
	movq	808(%rsp), %r12
	testq	%r12, %r12
	je	.L2142
	movq	__libc_single_threaded@GOTPCREL(%rip), %rbp
	cmpb	$0, 0(%rbp)
	je	.L2143
	movl	8(%r12), %eax
	leal	-1(%rax), %edx
	movl	%edx, 8(%r12)
.L2144:
	cmpl	$1, %eax
	je	.L2507
.L2142:
	movq	784(%rsp), %rax
	testq	%rax, %rax
	je	.L2148
	leaq	768(%rsp), %rdi
	movl	$3, %edx
	movq	%rdi, %rsi
	call	*%rax
.L2148:
	movq	760(%rsp), %r12
	testq	%r12, %r12
	je	.L2150
	movq	__libc_single_threaded@GOTPCREL(%rip), %rbp
	cmpb	$0, 0(%rbp)
	je	.L2151
	movl	8(%r12), %eax
	leal	-1(%rax), %edx
	movl	%edx, 8(%r12)
.L2152:
	cmpl	$1, %eax
	je	.L2508
.L2150:
	movq	728(%rsp), %r12
	testq	%r12, %r12
	je	.L2157
	movq	__libc_single_threaded@GOTPCREL(%rip), %rbp
	cmpb	$0, 0(%rbp)
	je	.L2158
	movl	8(%r12), %eax
	leal	-1(%rax), %edx
	movl	%edx, 8(%r12)
.L2159:
	cmpl	$1, %eax
	je	.L2509
.L2157:
	movq	704(%rsp), %rax
	testq	%rax, %rax
	je	.L2163
	leaq	688(%rsp), %rdi
	movl	$3, %edx
	movq	%rdi, %rsi
	call	*%rax
.L2163:
	movq	680(%rsp), %r12
	testq	%r12, %r12
	je	.L2165
	movq	__libc_single_threaded@GOTPCREL(%rip), %rbp
	cmpb	$0, 0(%rbp)
	je	.L2166
	movl	8(%r12), %eax
	leal	-1(%rax), %edx
	movl	%edx, 8(%r12)
.L2167:
	cmpl	$1, %eax
	je	.L2510
.L2165:
	movq	648(%rsp), %r12
	testq	%r12, %r12
	je	.L2172
	movq	__libc_single_threaded@GOTPCREL(%rip), %rbp
	cmpb	$0, 0(%rbp)
	je	.L2173
	movl	8(%r12), %eax
	leal	-1(%rax), %edx
	movl	%edx, 8(%r12)
.L2174:
	cmpl	$1, %eax
	je	.L2511
.L2172:
	movq	624(%rsp), %rax
	testq	%rax, %rax
	je	.L2178
	leaq	608(%rsp), %rdi
	movl	$3, %edx
	movq	%rdi, %rsi
	call	*%rax
.L2178:
	movq	600(%rsp), %r12
	testq	%r12, %r12
	je	.L2180
	movq	__libc_single_threaded@GOTPCREL(%rip), %rbp
	cmpb	$0, 0(%rbp)
	je	.L2181
	movl	8(%r12), %eax
	leal	-1(%rax), %edx
	movl	%edx, 8(%r12)
.L2182:
	cmpl	$1, %eax
	je	.L2512
.L2180:
	sfence
	jmp	.L1858
.L2504:
	movb	$1, 64(%rax)
	leaq	80(%rsp), %r14
	call	pthread_mutex_unlock@PLT
	movq	504(%rsp), %rbx
	movq	$0, 120(%rsp)
	movq	%rbx, %xmm3
	movq	%rbx, 144(%rsp)
	punpcklqdq	%xmm3, %xmm3
	movaps	%xmm3, (%rsp)
	data16	leaq	_ZN4asio6detail15keyword_tss_ptrINS0_10call_stackINS0_14strand_service11strand_implEhE7contextEE6value_E@tlsgd(%rip), %rdi
	.value	0x6666
	rex64
	call	__tls_get_addr@PLT
	movq	40(%r12), %r12
	xorl	%ecx, %ecx
	movq	%rbp, %rsi
	movq	%rbx, %xmm2
	movq	%r12, %xmm0
	movq	%r12, %rdi
	punpcklqdq	%xmm2, %xmm0
	movaps	%xmm0, 32(%rsp)
	movq	(%rax), %rdx
