	.file	"SerialChannel.cpp"
	.text
	.section	.rodata._ZNK4asio6detail15system_category4nameEv.str1.1,"aMS",@progbits,1
.LC0:
	.string	"asio.system"
	.section	.text._ZNK4asio6detail15system_category4nameEv,"axG",@progbits,_ZNK4asio6detail15system_category4nameEv,comdat
	.align 2
	.p2align 4
	.weak	_ZNK4asio6detail15system_category4nameEv
	.type	_ZNK4asio6detail15system_category4nameEv, @function
_ZNK4asio6detail15system_category4nameEv:
.LFB2395:
	.cfi_startproc
	endbr64
	leaq	.LC0(%rip), %rax
	ret
	.cfi_endproc
.LFE2395:
	.size	_ZNK4asio6detail15system_category4nameEv, .-_ZNK4asio6detail15system_category4nameEv
	.section	.rodata._ZNK4asio5error6detail14netdb_category4nameEv.str1.1,"aMS",@progbits,1
.LC1:
	.string	"asio.netdb"
	.section	.text._ZNK4asio5error6detail14netdb_category4nameEv,"axG",@progbits,_ZNK4asio5error6detail14netdb_category4nameEv,comdat
	.align 2
	.p2align 4
	.weak	_ZNK4asio5error6detail14netdb_category4nameEv
	.type	_ZNK4asio5error6detail14netdb_category4nameEv, @function
_ZNK4asio5error6detail14netdb_category4nameEv:
.LFB2435:
	.cfi_startproc
	endbr64
	leaq	.LC1(%rip), %rax
	ret
	.cfi_endproc
.LFE2435:
	.size	_ZNK4asio5error6detail14netdb_category4nameEv, .-_ZNK4asio5error6detail14netdb_category4nameEv
	.section	.rodata._ZNK4asio5error6detail17addrinfo_category4nameEv.str1.1,"aMS",@progbits,1
.LC2:
	.string	"asio.addrinfo"
	.section	.text._ZNK4asio5error6detail17addrinfo_category4nameEv,"axG",@progbits,_ZNK4asio5error6detail17addrinfo_category4nameEv,comdat
	.align 2
	.p2align 4
	.weak	_ZNK4asio5error6detail17addrinfo_category4nameEv
	.type	_ZNK4asio5error6detail17addrinfo_category4nameEv, @function
_ZNK4asio5error6detail17addrinfo_category4nameEv:
.LFB2441:
	.cfi_startproc
	endbr64
	leaq	.LC2(%rip), %rax
	ret
	.cfi_endproc
.LFE2441:
	.size	_ZNK4asio5error6detail17addrinfo_category4nameEv, .-_ZNK4asio5error6detail17addrinfo_category4nameEv
	.section	.rodata._ZNK4asio5error6detail13misc_category4nameEv.str1.1,"aMS",@progbits,1
.LC3:
	.string	"asio.misc"
	.section	.text._ZNK4asio5error6detail13misc_category4nameEv,"axG",@progbits,_ZNK4asio5error6detail13misc_category4nameEv,comdat
	.align 2
	.p2align 4
	.weak	_ZNK4asio5error6detail13misc_category4nameEv
	.type	_ZNK4asio5error6detail13misc_category4nameEv, @function
_ZNK4asio5error6detail13misc_category4nameEv:
.LFB2447:
	.cfi_startproc
	endbr64
	leaq	.LC3(%rip), %rax
	ret
	.cfi_endproc
.LFE2447:
	.size	_ZNK4asio5error6detail13misc_category4nameEv, .-_ZNK4asio5error6detail13misc_category4nameEv
	.section	.text._ZN4asio10io_service7service12fork_serviceENS0_10fork_eventE,"axG",@progbits,_ZN4asio10io_service7service12fork_serviceENS0_10fork_eventE,comdat
	.align 2
	.p2align 4
	.weak	_ZN4asio10io_service7service12fork_serviceENS0_10fork_eventE
	.type	_ZN4asio10io_service7service12fork_serviceENS0_10fork_eventE, @function
_ZN4asio10io_service7service12fork_serviceENS0_10fork_eventE:
.LFB3429:
	.cfi_startproc
	endbr64
	ret
	.cfi_endproc
.LFE3429:
	.size	_ZN4asio10io_service7service12fork_serviceENS0_10fork_eventE, .-_ZN4asio10io_service7service12fork_serviceENS0_10fork_eventE
	.section	.text._ZN4asio19serial_port_service16shutdown_serviceEv,"axG",@progbits,_ZN4asio19serial_port_service16shutdown_serviceEv,comdat
	.align 2
	.p2align 4
	.weak	_ZN4asio19serial_port_service16shutdown_serviceEv
	.type	_ZN4asio19serial_port_service16shutdown_serviceEv, @function
_ZN4asio19serial_port_service16shutdown_serviceEv:
.LFB4224:
	.cfi_startproc
	endbr64
	ret
	.cfi_endproc
.LFE4224:
	.size	_ZN4asio19serial_port_service16shutdown_serviceEv, .-_ZN4asio19serial_port_service16shutdown_serviceEv
	.section	.text._ZN4asio19serial_port_serviceD2Ev,"axG",@progbits,_ZN4asio19serial_port_serviceD5Ev,comdat
	.align 2
	.p2align 4
	.weak	_ZN4asio19serial_port_serviceD2Ev
	.type	_ZN4asio19serial_port_serviceD2Ev, @function
_ZN4asio19serial_port_serviceD2Ev:
.LFB9467:
	.cfi_startproc
	endbr64
	ret
	.cfi_endproc
.LFE9467:
	.size	_ZN4asio19serial_port_serviceD2Ev, .-_ZN4asio19serial_port_serviceD2Ev
	.weak	_ZN4asio19serial_port_serviceD1Ev
	.set	_ZN4asio19serial_port_serviceD1Ev,_ZN4asio19serial_port_serviceD2Ev
	.section	.text._ZN4asio6detail7tss_ptrINS0_10call_stackINS0_15task_io_serviceENS0_27task_io_service_thread_infoEE7contextEED2Ev,"axG",@progbits,_ZN4asio6detail7tss_ptrINS0_10call_stackINS0_15task_io_serviceENS0_27task_io_service_thread_infoEE7contextEED5Ev,comdat
	.align 2
	.p2align 4
	.weak	_ZN4asio6detail7tss_ptrINS0_10call_stackINS0_15task_io_serviceENS0_27task_io_service_thread_infoEE7contextEED2Ev
	.type	_ZN4asio6detail7tss_ptrINS0_10call_stackINS0_15task_io_serviceENS0_27task_io_service_thread_infoEE7contextEED2Ev, @function
_ZN4asio6detail7tss_ptrINS0_10call_stackINS0_15task_io_serviceENS0_27task_io_service_thread_infoEE7contextEED2Ev:
.LFB9516:
	.cfi_startproc
	endbr64
	ret
	.cfi_endproc
.LFE9516:
	.size	_ZN4asio6detail7tss_ptrINS0_10call_stackINS0_15task_io_serviceENS0_27task_io_service_thread_infoEE7contextEED2Ev, .-_ZN4asio6detail7tss_ptrINS0_10call_stackINS0_15task_io_serviceENS0_27task_io_service_thread_infoEE7contextEED2Ev
	.weak	_ZN4asio6detail7tss_ptrINS0_10call_stackINS0_15task_io_serviceENS0_27task_io_service_thread_infoEE7contextEED1Ev
	.set	_ZN4asio6detail7tss_ptrINS0_10call_stackINS0_15task_io_serviceENS0_27task_io_service_thread_infoEE7contextEED1Ev,_ZN4asio6detail7tss_ptrINS0_10call_stackINS0_15task_io_serviceENS0_27task_io_service_thread_infoEE7contextEED2Ev
	.section	.text._ZN4asio6detail10service_idINS0_13epoll_reactorEED2Ev,"axG",@progbits,_ZN4asio6detail10service_idINS0_13epoll_reactorEED5Ev,comdat
	.align 2
	.p2align 4
	.weak	_ZN4asio6detail10service_idINS0_13epoll_reactorEED2Ev
	.type	_ZN4asio6detail10service_idINS0_13epoll_reactorEED2Ev, @function
_ZN4asio6detail10service_idINS0_13epoll_reactorEED2Ev:
.LFB9519:
	.cfi_startproc
	endbr64
	ret
	.cfi_endproc
.LFE9519:
	.size	_ZN4asio6detail10service_idINS0_13epoll_reactorEED2Ev, .-_ZN4asio6detail10service_idINS0_13epoll_reactorEED2Ev
	.weak	_ZN4asio6detail10service_idINS0_13epoll_reactorEED1Ev
	.set	_ZN4asio6detail10service_idINS0_13epoll_reactorEED1Ev,_ZN4asio6detail10service_idINS0_13epoll_reactorEED2Ev
	.section	.text._ZN4asio6detail10service_idINS0_15task_io_serviceEED2Ev,"axG",@progbits,_ZN4asio6detail10service_idINS0_15task_io_serviceEED5Ev,comdat
	.align 2
	.p2align 4
	.weak	_ZN4asio6detail10service_idINS0_15task_io_serviceEED2Ev
	.type	_ZN4asio6detail10service_idINS0_15task_io_serviceEED2Ev, @function
_ZN4asio6detail10service_idINS0_15task_io_serviceEED2Ev:
.LFB9522:
	.cfi_startproc
	endbr64
	ret
	.cfi_endproc
.LFE9522:
	.size	_ZN4asio6detail10service_idINS0_15task_io_serviceEED2Ev, .-_ZN4asio6detail10service_idINS0_15task_io_serviceEED2Ev
	.weak	_ZN4asio6detail10service_idINS0_15task_io_serviceEED1Ev
	.set	_ZN4asio6detail10service_idINS0_15task_io_serviceEED1Ev,_ZN4asio6detail10service_idINS0_15task_io_serviceEED2Ev
	.section	.text._ZN4asio6detail7tss_ptrINS0_10call_stackINS0_14strand_service11strand_implEhE7contextEED2Ev,"axG",@progbits,_ZN4asio6detail7tss_ptrINS0_10call_stackINS0_14strand_service11strand_implEhE7contextEED5Ev,comdat
	.align 2
	.p2align 4
	.weak	_ZN4asio6detail7tss_ptrINS0_10call_stackINS0_14strand_service11strand_implEhE7contextEED2Ev
	.type	_ZN4asio6detail7tss_ptrINS0_10call_stackINS0_14strand_service11strand_implEhE7contextEED2Ev, @function
_ZN4asio6detail7tss_ptrINS0_10call_stackINS0_14strand_service11strand_implEhE7contextEED2Ev:
.LFB9525:
	.cfi_startproc
	endbr64
	ret
	.cfi_endproc
.LFE9525:
	.size	_ZN4asio6detail7tss_ptrINS0_10call_stackINS0_14strand_service11strand_implEhE7contextEED2Ev, .-_ZN4asio6detail7tss_ptrINS0_10call_stackINS0_14strand_service11strand_implEhE7contextEED2Ev
	.weak	_ZN4asio6detail7tss_ptrINS0_10call_stackINS0_14strand_service11strand_implEhE7contextEED1Ev
	.set	_ZN4asio6detail7tss_ptrINS0_10call_stackINS0_14strand_service11strand_implEhE7contextEED1Ev,_ZN4asio6detail7tss_ptrINS0_10call_stackINS0_14strand_service11strand_implEhE7contextEED2Ev
	.section	.text._ZN4asio6detail10service_idINS0_14strand_serviceEED2Ev,"axG",@progbits,_ZN4asio6detail10service_idINS0_14strand_serviceEED5Ev,comdat
	.align 2
	.p2align 4
	.weak	_ZN4asio6detail10service_idINS0_14strand_serviceEED2Ev
	.type	_ZN4asio6detail10service_idINS0_14strand_serviceEED2Ev, @function
_ZN4asio6detail10service_idINS0_14strand_serviceEED2Ev:
.LFB9528:
	.cfi_startproc
	endbr64
	ret
	.cfi_endproc
.LFE9528:
	.size	_ZN4asio6detail10service_idINS0_14strand_serviceEED2Ev, .-_ZN4asio6detail10service_idINS0_14strand_serviceEED2Ev
	.weak	_ZN4asio6detail10service_idINS0_14strand_serviceEED1Ev
	.set	_ZN4asio6detail10service_idINS0_14strand_serviceEED1Ev,_ZN4asio6detail10service_idINS0_14strand_serviceEED2Ev
	.section	.text._ZN4asio6detail10service_idINS_19serial_port_serviceEED2Ev,"axG",@progbits,_ZN4asio6detail10service_idINS_19serial_port_serviceEED5Ev,comdat
	.align 2
	.p2align 4
	.weak	_ZN4asio6detail10service_idINS_19serial_port_serviceEED2Ev
	.type	_ZN4asio6detail10service_idINS_19serial_port_serviceEED2Ev, @function
_ZN4asio6detail10service_idINS_19serial_port_serviceEED2Ev:
.LFB9531:
	.cfi_startproc
	endbr64
	ret
	.cfi_endproc
.LFE9531:
	.size	_ZN4asio6detail10service_idINS_19serial_port_serviceEED2Ev, .-_ZN4asio6detail10service_idINS_19serial_port_serviceEED2Ev
	.weak	_ZN4asio6detail10service_idINS_19serial_port_serviceEED1Ev
	.set	_ZN4asio6detail10service_idINS_19serial_port_serviceEED1Ev,_ZN4asio6detail10service_idINS_19serial_port_serviceEED2Ev
	.section	.text._ZN4asio19serial_port_serviceD0Ev,"axG",@progbits,_ZN4asio19serial_port_serviceD5Ev,comdat
	.align 2
	.p2align 4
	.weak	_ZN4asio19serial_port_serviceD0Ev
	.type	_ZN4asio19serial_port_serviceD0Ev, @function
_ZN4asio19serial_port_serviceD0Ev:
.LFB9469:
	.cfi_startproc
	endbr64
	movl	$48, %esi
	jmp	_ZdlPvm@PLT
	.cfi_endproc
.LFE9469:
	.size	_ZN4asio19serial_port_serviceD0Ev, .-_ZN4asio19serial_port_serviceD0Ev
	.section	.text._ZN4asio6detail15system_categoryD2Ev,"axG",@progbits,_ZN4asio6detail15system_categoryD5Ev,comdat
	.align 2
	.p2align 4
	.weak	_ZN4asio6detail15system_categoryD2Ev
	.type	_ZN4asio6detail15system_categoryD2Ev, @function
_ZN4asio6detail15system_categoryD2Ev:
.LFB9495:
	.cfi_startproc
	endbr64
	movq	_ZTVN4asio6detail15system_categoryE@GOTPCREL(%rip), %rax
	addq	$16, %rax
	movq	%rax, (%rdi)
	jmp	_ZNSt3_V214error_categoryD2Ev@PLT
	.cfi_endproc
.LFE9495:
	.size	_ZN4asio6detail15system_categoryD2Ev, .-_ZN4asio6detail15system_categoryD2Ev
	.weak	_ZN4asio6detail15system_categoryD1Ev
	.set	_ZN4asio6detail15system_categoryD1Ev,_ZN4asio6detail15system_categoryD2Ev
	.section	.text._ZN4asio6detail15system_categoryD0Ev,"axG",@progbits,_ZN4asio6detail15system_categoryD5Ev,comdat
	.align 2
	.p2align 4
	.weak	_ZN4asio6detail15system_categoryD0Ev
	.type	_ZN4asio6detail15system_categoryD0Ev, @function
_ZN4asio6detail15system_categoryD0Ev:
.LFB9497:
	.cfi_startproc
	endbr64
	movq	_ZTVN4asio6detail15system_categoryE@GOTPCREL(%rip), %rax
	pushq	%rbp
	.cfi_def_cfa_offset 16
	.cfi_offset 6, -16
	movq	%rdi, %rbp
	addq	$16, %rax
	movq	%rax, (%rdi)
	call	_ZNSt3_V214error_categoryD2Ev@PLT
	movq	%rbp, %rdi
	movl	$8, %esi
	popq	%rbp
	.cfi_def_cfa_offset 8
	jmp	_ZdlPvm@PLT
	.cfi_endproc
.LFE9497:
	.size	_ZN4asio6detail15system_categoryD0Ev, .-_ZN4asio6detail15system_categoryD0Ev
	.section	.text._ZN4asio5error6detail13misc_categoryD2Ev,"axG",@progbits,_ZN4asio5error6detail13misc_categoryD5Ev,comdat
	.align 2
	.p2align 4
	.weak	_ZN4asio5error6detail13misc_categoryD2Ev
	.type	_ZN4asio5error6detail13misc_categoryD2Ev, @function
_ZN4asio5error6detail13misc_categoryD2Ev:
.LFB9475:
	.cfi_startproc
	endbr64
	movq	_ZTVN4asio5error6detail13misc_categoryE@GOTPCREL(%rip), %rax
	addq	$16, %rax
	movq	%rax, (%rdi)
	jmp	_ZNSt3_V214error_categoryD2Ev@PLT
	.cfi_endproc
.LFE9475:
	.size	_ZN4asio5error6detail13misc_categoryD2Ev, .-_ZN4asio5error6detail13misc_categoryD2Ev
	.weak	_ZN4asio5error6detail13misc_categoryD1Ev
	.set	_ZN4asio5error6detail13misc_categoryD1Ev,_ZN4asio5error6detail13misc_categoryD2Ev
	.section	.text._ZN4asio5error6detail13misc_categoryD0Ev,"axG",@progbits,_ZN4asio5error6detail13misc_categoryD5Ev,comdat
	.align 2
	.p2align 4
	.weak	_ZN4asio5error6detail13misc_categoryD0Ev
	.type	_ZN4asio5error6detail13misc_categoryD0Ev, @function
_ZN4asio5error6detail13misc_categoryD0Ev:
.LFB9477:
	.cfi_startproc
	endbr64
	movq	_ZTVN4asio5error6detail13misc_categoryE@GOTPCREL(%rip), %rax
	pushq	%rbp
	.cfi_def_cfa_offset 16
	.cfi_offset 6, -16
	movq	%rdi, %rbp
	addq	$16, %rax
	movq	%rax, (%rdi)
	call	_ZNSt3_V214error_categoryD2Ev@PLT
	movq	%rbp, %rdi
	movl	$8, %esi
	popq	%rbp
	.cfi_def_cfa_offset 8
	jmp	_ZdlPvm@PLT
	.cfi_endproc
.LFE9477:
	.size	_ZN4asio5error6detail13misc_categoryD0Ev, .-_ZN4asio5error6detail13misc_categoryD0Ev
	.section	.text._ZN4asio5error6detail14netdb_categoryD2Ev,"axG",@progbits,_ZN4asio5error6detail14netdb_categoryD5Ev,comdat
	.align 2
	.p2align 4
	.weak	_ZN4asio5error6detail14netdb_categoryD2Ev
	.type	_ZN4asio5error6detail14netdb_categoryD2Ev, @function
_ZN4asio5error6detail14netdb_categoryD2Ev:
.LFB9483:
	.cfi_startproc
	endbr64
	movq	_ZTVN4asio5error6detail14netdb_categoryE@GOTPCREL(%rip), %rax
	addq	$16, %rax
	movq	%rax, (%rdi)
	jmp	_ZNSt3_V214error_categoryD2Ev@PLT
	.cfi_endproc
.LFE9483:
	.size	_ZN4asio5error6detail14netdb_categoryD2Ev, .-_ZN4asio5error6detail14netdb_categoryD2Ev
	.weak	_ZN4asio5error6detail14netdb_categoryD1Ev
	.set	_ZN4asio5error6detail14netdb_categoryD1Ev,_ZN4asio5error6detail14netdb_categoryD2Ev
	.section	.text._ZN4asio5error6detail14netdb_categoryD0Ev,"axG",@progbits,_ZN4asio5error6detail14netdb_categoryD5Ev,comdat
	.align 2
	.p2align 4
	.weak	_ZN4asio5error6detail14netdb_categoryD0Ev
	.type	_ZN4asio5error6detail14netdb_categoryD0Ev, @function
_ZN4asio5error6detail14netdb_categoryD0Ev:
.LFB9485:
	.cfi_startproc
	endbr64
	movq	_ZTVN4asio5error6detail14netdb_categoryE@GOTPCREL(%rip), %rax
	pushq	%rbp
	.cfi_def_cfa_offset 16
	.cfi_offset 6, -16
	movq	%rdi, %rbp
	addq	$16, %rax
	movq	%rax, (%rdi)
	call	_ZNSt3_V214error_categoryD2Ev@PLT
	movq	%rbp, %rdi
	movl	$8, %esi
	popq	%rbp
	.cfi_def_cfa_offset 8
	jmp	_ZdlPvm@PLT
	.cfi_endproc
.LFE9485:
	.size	_ZN4asio5error6detail14netdb_categoryD0Ev, .-_ZN4asio5error6detail14netdb_categoryD0Ev
	.section	.text._ZN4asio5error6detail17addrinfo_categoryD2Ev,"axG",@progbits,_ZN4asio5error6detail17addrinfo_categoryD5Ev,comdat
	.align 2
	.p2align 4
	.weak	_ZN4asio5error6detail17addrinfo_categoryD2Ev
	.type	_ZN4asio5error6detail17addrinfo_categoryD2Ev, @function
_ZN4asio5error6detail17addrinfo_categoryD2Ev:
.LFB9479:
	.cfi_startproc
	endbr64
	movq	_ZTVN4asio5error6detail17addrinfo_categoryE@GOTPCREL(%rip), %rax
	addq	$16, %rax
	movq	%rax, (%rdi)
	jmp	_ZNSt3_V214error_categoryD2Ev@PLT
	.cfi_endproc
.LFE9479:
	.size	_ZN4asio5error6detail17addrinfo_categoryD2Ev, .-_ZN4asio5error6detail17addrinfo_categoryD2Ev
	.weak	_ZN4asio5error6detail17addrinfo_categoryD1Ev
	.set	_ZN4asio5error6detail17addrinfo_categoryD1Ev,_ZN4asio5error6detail17addrinfo_categoryD2Ev
	.section	.text._ZN4asio5error6detail17addrinfo_categoryD0Ev,"axG",@progbits,_ZN4asio5error6detail17addrinfo_categoryD5Ev,comdat
	.align 2
	.p2align 4
	.weak	_ZN4asio5error6detail17addrinfo_categoryD0Ev
	.type	_ZN4asio5error6detail17addrinfo_categoryD0Ev, @function
_ZN4asio5error6detail17addrinfo_categoryD0Ev:
.LFB9481:
	.cfi_startproc
	endbr64
	movq	_ZTVN4asio5error6detail17addrinfo_categoryE@GOTPCREL(%rip), %rax
	pushq	%rbp
	.cfi_def_cfa_offset 16
	.cfi_offset 6, -16
	movq	%rdi, %rbp
	addq	$16, %rax
	movq	%rax, (%rdi)
	call	_ZNSt3_V214error_categoryD2Ev@PLT
	movq	%rbp, %rdi
	movl	$8, %esi
	popq	%rbp
	.cfi_def_cfa_offset 8
	jmp	_ZdlPvm@PLT
	.cfi_endproc
.LFE9481:
	.size	_ZN4asio5error6detail17addrinfo_categoryD0Ev, .-_ZN4asio5error6detail17addrinfo_categoryD0Ev
	.section	.text.unlikely,"ax",@progbits
	.align 2
	.type	_ZN4asio6detail18completion_handlerINS0_7binder2IZN7asiopal13SerialChannel14BeginWriteImplERKN7openpal6RSliceEEUlRKSt10error_codemE_S9_mEEE3ptr5resetEv, @function
_ZN4asio6detail18completion_handlerINS0_7binder2IZN7asiopal13SerialChannel14BeginWriteImplERKN7openpal6RSliceEEUlRKSt10error_codemE_S9_mEEE3ptr5resetEv:
.LFB9190:
	.cfi_startproc
	pushq	%rbp
	.cfi_def_cfa_offset 16
	.cfi_offset 6, -16
	pushq	%rbx
	.cfi_def_cfa_offset 24
	.cfi_offset 3, -24
	movq	%rdi, %rbx
	pushq	%rdx
	.cfi_def_cfa_offset 32
	cmpq	$0, 16(%rdi)
	je	.L29
	movq	$0, 16(%rdi)
.L29:
	movq	8(%rbx), %rbp
	testq	%rbp, %rbp
	je	.L28
	data16	leaq	_ZN4asio6detail15keyword_tss_ptrINS0_10call_stackINS0_15task_io_serviceENS0_27task_io_service_thread_infoEE7contextEE6value_E@tlsgd(%rip), %rdi
	.value	0x6666
	rex64
	call	__tls_get_addr@PLT
	movq	(%rax), %rax
	testq	%rax, %rax
	je	.L31
	movq	8(%rax), %rax
	testq	%rax, %rax
	je	.L31
	cmpq	$0, (%rax)
	jne	.L31
	movb	56(%rbp), %dl
	movb	%dl, 0(%rbp)
	movq	%rbp, (%rax)
	jmp	.L32
.L31:
	movq	%rbp, %rdi
	call	_ZdlPv@PLT
.L32:
	movq	$0, 8(%rbx)
.L28:
	popq	%rax
	.cfi_def_cfa_offset 24
	popq	%rbx
	.cfi_def_cfa_offset 16
	popq	%rbp
	.cfi_def_cfa_offset 8
	ret
	.cfi_endproc
.LFE9190:
	.size	_ZN4asio6detail18completion_handlerINS0_7binder2IZN7asiopal13SerialChannel14BeginWriteImplERKN7openpal6RSliceEEUlRKSt10error_codemE_S9_mEEE3ptr5resetEv, .-_ZN4asio6detail18completion_handlerINS0_7binder2IZN7asiopal13SerialChannel14BeginWriteImplERKN7openpal6RSliceEEUlRKSt10error_codemE_S9_mEEE3ptr5resetEv
	.align 2
	.type	_ZN4asio6detail19descriptor_write_opINS_15const_buffers_1ENS0_8write_opINS_17basic_serial_portINS_19serial_port_serviceEEES2_NS0_14transfer_all_tENS0_15wrapped_handlerINS_10io_service6strandEZN7asiopal13SerialChannel14BeginWriteImplERKN7openpal6RSliceEEUlRKSt10error_codemE_NS0_26is_continuation_if_runningEEEEEE3ptr5resetEv, @function
_ZN4asio6detail19descriptor_write_opINS_15const_buffers_1ENS0_8write_opINS_17basic_serial_portINS_19serial_port_serviceEEES2_NS0_14transfer_all_tENS0_15wrapped_handlerINS_10io_service6strandEZN7asiopal13SerialChannel14BeginWriteImplERKN7openpal6RSliceEEUlRKSt10error_codemE_NS0_26is_continuation_if_runningEEEEEE3ptr5resetEv:
.LFB9255:
	.cfi_startproc
	pushq	%rbp
	.cfi_def_cfa_offset 16
	.cfi_offset 6, -16
	pushq	%rbx
	.cfi_def_cfa_offset 24
	.cfi_offset 3, -24
	movq	%rdi, %rbx
	pushq	%rdx
	.cfi_def_cfa_offset 32
	cmpq	$0, 16(%rdi)
	je	.L44
	movq	$0, 16(%rdi)
.L44:
	movq	8(%rbx), %rbp
	testq	%rbp, %rbp
	je	.L43
	data16	leaq	_ZN4asio6detail15keyword_tss_ptrINS0_10call_stackINS0_15task_io_serviceENS0_27task_io_service_thread_infoEE7contextEE6value_E@tlsgd(%rip), %rdi
	.value	0x6666
	rex64
	call	__tls_get_addr@PLT
	movq	(%rax), %rax
	testq	%rax, %rax
	je	.L46
	movq	8(%rax), %rax
	testq	%rax, %rax
	je	.L46
	cmpq	$0, (%rax)
	jne	.L46
	movb	144(%rbp), %dl
	movb	%dl, 0(%rbp)
	movq	%rbp, (%rax)
	jmp	.L47
.L46:
	movq	%rbp, %rdi
	call	_ZdlPv@PLT
.L47:
	movq	$0, 8(%rbx)
.L43:
	popq	%rax
	.cfi_def_cfa_offset 24
	popq	%rbx
	.cfi_def_cfa_offset 16
	popq	%rbp
	.cfi_def_cfa_offset 8
	ret
	.cfi_endproc
.LFE9255:
	.size	_ZN4asio6detail19descriptor_write_opINS_15const_buffers_1ENS0_8write_opINS_17basic_serial_portINS_19serial_port_serviceEEES2_NS0_14transfer_all_tENS0_15wrapped_handlerINS_10io_service6strandEZN7asiopal13SerialChannel14BeginWriteImplERKN7openpal6RSliceEEUlRKSt10error_codemE_NS0_26is_continuation_if_runningEEEEEE3ptr5resetEv, .-_ZN4asio6detail19descriptor_write_opINS_15const_buffers_1ENS0_8write_opINS_17basic_serial_portINS_19serial_port_serviceEEES2_NS0_14transfer_all_tENS0_15wrapped_handlerINS_10io_service6strandEZN7asiopal13SerialChannel14BeginWriteImplERKN7openpal6RSliceEEUlRKSt10error_codemE_NS0_26is_continuation_if_runningEEEEEE3ptr5resetEv
	.align 2
	.type	_ZN4asio6detail18descriptor_read_opINS_17mutable_buffers_1ENS0_15wrapped_handlerINS_10io_service6strandEZN7asiopal13SerialChannel13BeginReadImplEN7openpal6WSliceEEUlRKSt10error_codemE_NS0_26is_continuation_if_runningEEEE3ptr5resetEv, @function
_ZN4asio6detail18descriptor_read_opINS_17mutable_buffers_1ENS0_15wrapped_handlerINS_10io_service6strandEZN7asiopal13SerialChannel13BeginReadImplEN7openpal6WSliceEEUlRKSt10error_codemE_NS0_26is_continuation_if_runningEEEE3ptr5resetEv:
.LFB9027:
	.cfi_startproc
	pushq	%rbp
	.cfi_def_cfa_offset 16
	.cfi_offset 6, -16
	pushq	%rbx
	.cfi_def_cfa_offset 24
	.cfi_offset 3, -24
	movq	%rdi, %rbx
	pushq	%rdx
	.cfi_def_cfa_offset 32
	cmpq	$0, 16(%rdi)
	je	.L59
	movq	$0, 16(%rdi)
.L59:
	movq	8(%rbx), %rbp
	testq	%rbp, %rbp
	je	.L58
	data16	leaq	_ZN4asio6detail15keyword_tss_ptrINS0_10call_stackINS0_15task_io_serviceENS0_27task_io_service_thread_infoEE7contextEE6value_E@tlsgd(%rip), %rdi
	.value	0x6666
	rex64
	call	__tls_get_addr@PLT
	movq	(%rax), %rax
	testq	%rax, %rax
	je	.L61
	movq	8(%rax), %rax
	testq	%rax, %rax
	je	.L61
	cmpq	$0, (%rax)
	jne	.L61
	movb	104(%rbp), %dl
	movb	%dl, 0(%rbp)
	movq	%rbp, (%rax)
	jmp	.L62
.L61:
	movq	%rbp, %rdi
	call	_ZdlPv@PLT
.L62:
	movq	$0, 8(%rbx)
.L58:
	popq	%rax
	.cfi_def_cfa_offset 24
	popq	%rbx
	.cfi_def_cfa_offset 16
	popq	%rbp
	.cfi_def_cfa_offset 8
	ret
	.cfi_endproc
.LFE9027:
	.size	_ZN4asio6detail18descriptor_read_opINS_17mutable_buffers_1ENS0_15wrapped_handlerINS_10io_service6strandEZN7asiopal13SerialChannel13BeginReadImplEN7openpal6WSliceEEUlRKSt10error_codemE_NS0_26is_continuation_if_runningEEEE3ptr5resetEv, .-_ZN4asio6detail18descriptor_read_opINS_17mutable_buffers_1ENS0_15wrapped_handlerINS_10io_service6strandEZN7asiopal13SerialChannel13BeginReadImplEN7openpal6WSliceEEUlRKSt10error_codemE_NS0_26is_continuation_if_runningEEEE3ptr5resetEv
	.align 2
	.type	_ZN4asio6detail18completion_handlerINS0_17rewrapped_handlerINS0_7binder2INS0_15wrapped_handlerINS_10io_service6strandEZN7asiopal13SerialChannel13BeginReadImplEN7openpal6WSliceEEUlRKSt10error_codemE_NS0_26is_continuation_if_runningEEESB_mEESE_EEE3ptr5resetEv, @function
_ZN4asio6detail18completion_handlerINS0_17rewrapped_handlerINS0_7binder2INS0_15wrapped_handlerINS_10io_service6strandEZN7asiopal13SerialChannel13BeginReadImplEN7openpal6WSliceEEUlRKSt10error_codemE_NS0_26is_continuation_if_runningEEESB_mEESE_EEE3ptr5resetEv:
.LFB9343:
	.cfi_startproc
	pushq	%rbp
	.cfi_def_cfa_offset 16
	.cfi_offset 6, -16
	pushq	%rbx
	.cfi_def_cfa_offset 24
	.cfi_offset 3, -24
	movq	%rdi, %rbx
	pushq	%rdx
	.cfi_def_cfa_offset 32
	cmpq	$0, 16(%rdi)
	je	.L74
	movq	$0, 16(%rdi)
.L74:
	movq	8(%rbx), %rbp
	testq	%rbp, %rbp
	je	.L73
	data16	leaq	_ZN4asio6detail15keyword_tss_ptrINS0_10call_stackINS0_15task_io_serviceENS0_27task_io_service_thread_infoEE7contextEE6value_E@tlsgd(%rip), %rdi
	.value	0x6666
	rex64
	call	__tls_get_addr@PLT
	movq	(%rax), %rax
	testq	%rax, %rax
	je	.L76
	movq	8(%rax), %rax
	testq	%rax, %rax
	je	.L76
	cmpq	$0, (%rax)
	jne	.L76
	movb	80(%rbp), %dl
	movb	%dl, 0(%rbp)
	movq	%rbp, (%rax)
	jmp	.L77
.L76:
	movq	%rbp, %rdi
	call	_ZdlPv@PLT
.L77:
	movq	$0, 8(%rbx)
.L73:
	popq	%rax
	.cfi_def_cfa_offset 24
	popq	%rbx
	.cfi_def_cfa_offset 16
	popq	%rbp
	.cfi_def_cfa_offset 8
	ret
	.cfi_endproc
.LFE9343:
	.size	_ZN4asio6detail18completion_handlerINS0_17rewrapped_handlerINS0_7binder2INS0_15wrapped_handlerINS_10io_service6strandEZN7asiopal13SerialChannel13BeginReadImplEN7openpal6WSliceEEUlRKSt10error_codemE_NS0_26is_continuation_if_runningEEESB_mEESE_EEE3ptr5resetEv, .-_ZN4asio6detail18completion_handlerINS0_17rewrapped_handlerINS0_7binder2INS0_15wrapped_handlerINS_10io_service6strandEZN7asiopal13SerialChannel13BeginReadImplEN7openpal6WSliceEEUlRKSt10error_codemE_NS0_26is_continuation_if_runningEEESB_mEESE_EEE3ptr5resetEv
	.align 2
	.type	_ZN4asio6detail18completion_handlerINS0_7binder2IZN7asiopal13SerialChannel13BeginReadImplEN7openpal6WSliceEEUlRKSt10error_codemE_S7_mEEE3ptr5resetEv, @function
_ZN4asio6detail18completion_handlerINS0_7binder2IZN7asiopal13SerialChannel13BeginReadImplEN7openpal6WSliceEEUlRKSt10error_codemE_S7_mEEE3ptr5resetEv:
.LFB9429:
	.cfi_startproc
	pushq	%rbp
	.cfi_def_cfa_offset 16
	.cfi_offset 6, -16
	pushq	%rbx
	.cfi_def_cfa_offset 24
	.cfi_offset 3, -24
	movq	%rdi, %rbx
	pushq	%rdx
	.cfi_def_cfa_offset 32
	cmpq	$0, 16(%rdi)
	je	.L89
	movq	$0, 16(%rdi)
.L89:
	movq	8(%rbx), %rbp
	testq	%rbp, %rbp
	je	.L88
	data16	leaq	_ZN4asio6detail15keyword_tss_ptrINS0_10call_stackINS0_15task_io_serviceENS0_27task_io_service_thread_infoEE7contextEE6value_E@tlsgd(%rip), %rdi
	.value	0x6666
	rex64
	call	__tls_get_addr@PLT
	movq	(%rax), %rax
	testq	%rax, %rax
	je	.L91
	movq	8(%rax), %rax
	testq	%rax, %rax
	je	.L91
	cmpq	$0, (%rax)
	jne	.L91
	movb	56(%rbp), %dl
	movb	%dl, 0(%rbp)
	movq	%rbp, (%rax)
	jmp	.L92
.L91:
	movq	%rbp, %rdi
	call	_ZdlPv@PLT
.L92:
	movq	$0, 8(%rbx)
.L88:
	popq	%rax
	.cfi_def_cfa_offset 24
	popq	%rbx
	.cfi_def_cfa_offset 16
	popq	%rbp
	.cfi_def_cfa_offset 8
	ret
	.cfi_endproc
.LFE9429:
	.size	_ZN4asio6detail18completion_handlerINS0_7binder2IZN7asiopal13SerialChannel13BeginReadImplEN7openpal6WSliceEEUlRKSt10error_codemE_S7_mEEE3ptr5resetEv, .-_ZN4asio6detail18completion_handlerINS0_7binder2IZN7asiopal13SerialChannel13BeginReadImplEN7openpal6WSliceEEUlRKSt10error_codemE_S7_mEEE3ptr5resetEv
	.section	.text._ZN4asio6detail13epoll_reactorD2Ev,"axG",@progbits,_ZN4asio6detail13epoll_reactorD5Ev,comdat
	.align 2
	.p2align 4
	.weak	_ZN4asio6detail13epoll_reactorD2Ev
	.type	_ZN4asio6detail13epoll_reactorD2Ev, @function
_ZN4asio6detail13epoll_reactorD2Ev:
.LFB3306:
	.cfi_startproc
	.cfi_personality 0x9b,DW.ref.__gxx_personality_v0
	.cfi_lsda 0x1b,.LLSDA3306
	endbr64
	pushq	%r15
	.cfi_def_cfa_offset 16
	.cfi_offset 15, -16
	pushq	%r14
	.cfi_def_cfa_offset 24
	.cfi_offset 14, -24
	pushq	%r13
	.cfi_def_cfa_offset 32
	.cfi_offset 13, -32
	pushq	%r12
	.cfi_def_cfa_offset 40
	.cfi_offset 12, -40
	pushq	%rbp
	.cfi_def_cfa_offset 48
	.cfi_offset 6, -48
	pushq	%rbx
	.cfi_def_cfa_offset 56
	.cfi_offset 3, -56
	subq	$56, %rsp
	.cfi_def_cfa_offset 112
	movq	%rdi, 8(%rsp)
	movq	%fs:40, %rax
	movq	%rax, 40(%rsp)
	movq	_ZTVN4asio6detail13epoll_reactorE@GOTPCREL(%rip), %rax
	addq	$16, %rax
	movq	%rax, (%rdi)
	movl	96(%rdi), %edi
	cmpl	$-1, %edi
	je	.L104
	call	close@PLT
.L104:
	movq	8(%rsp), %rax
	movl	100(%rax), %edi
	cmpl	$-1, %edi
	je	.L105
	call	close@PLT
.L105:
	movq	8(%rsp), %rax
	leaq	16(%rsp), %rbp
	movq	160(%rax), %r13
	testq	%r13, %r13
	je	.L116
	.p2align 4,,10
	.p2align 3
.L106:
	movq	%r13, %r12
	movq	24(%r13), %r13
	leaq	128(%r12), %r15
	leaq	80(%r12), %r14
.L111:
	movq	(%r15), %rsi
	testq	%rsi, %rsi
	je	.L113
	movq	%rsi, (%rsp)
	call	_ZNSt3_V215system_categoryEv@PLT
	movq	(%rsp), %rsi
	movq	%rax, %rbx
	jmp	.L115
	.p2align 4,,10
	.p2align 3
.L112:
	movq	$0, (%rsi)
	movq	8(%rsi), %rax
	xorl	%ecx, %ecx
	movq	%rbp, %rdx
	movl	$0, 16(%rsp)
	xorl	%edi, %edi
	movq	%rbx, 24(%rsp)
	call	*%rax
	movq	(%r15), %rsi
	testq	%rsi, %rsi
	je	.L113
.L115:
	movq	(%rsi), %rax
	movq	%rax, (%r15)
	testq	%rax, %rax
	jne	.L112
	movq	$0, 8(%r15)
	jmp	.L112
	.p2align 4,,10
	.p2align 3
.L113:
	subq	$16, %r15
	cmpq	%r14, %r15
	jne	.L111
	leaq	40(%r12), %rdi
	call	pthread_mutex_destroy@PLT
	movl	$152, %esi
	movq	%r12, %rdi
	call	_ZdlPvm@PLT
	testq	%r13, %r13
	jne	.L106
.L116:
	movq	8(%rsp), %rax
	leaq	16(%rsp), %rbp
	movq	168(%rax), %r13
	testq	%r13, %r13
	je	.L108
	.p2align 4,,10
	.p2align 3
.L107:
	movq	%r13, %r12
	movq	24(%r13), %r13
	leaq	128(%r12), %r15
	leaq	80(%r12), %r14
.L121:
	movq	(%r15), %rsi
	testq	%rsi, %rsi
	je	.L123
	movq	%rsi, (%rsp)
	call	_ZNSt3_V215system_categoryEv@PLT
	movq	(%rsp), %rsi
	movq	%rax, %rbx
	jmp	.L125
	.p2align 4,,10
	.p2align 3
.L122:
	movq	$0, (%rsi)
	movq	8(%rsi), %rax
	xorl	%ecx, %ecx
	movq	%rbp, %rdx
	movl	$0, 16(%rsp)
	xorl	%edi, %edi
	movq	%rbx, 24(%rsp)
	call	*%rax
	movq	(%r15), %rsi
	testq	%rsi, %rsi
	je	.L123
.L125:
	movq	(%rsi), %rax
	movq	%rax, (%r15)
	testq	%rax, %rax
	jne	.L122
	movq	$0, 8(%r15)
	jmp	.L122
	.p2align 4,,10
	.p2align 3
.L123:
	subq	$16, %r15
	cmpq	%r14, %r15
	jne	.L121
	leaq	40(%r12), %rdi
	call	pthread_mutex_destroy@PLT
	movl	$152, %esi
	movq	%r12, %rdi
	call	_ZdlPvm@PLT
	testq	%r13, %r13
	jne	.L107
.L108:
	movq	8(%rsp), %rbx
	leaq	120(%rbx), %rdi
	call	pthread_mutex_destroy@PLT
	movl	92(%rbx), %r8d
	cmpl	$-1, %r8d
	je	.L160
	movq	8(%rsp), %rbx
	movl	88(%rbx), %edi
	cmpl	%edi, %r8d
	jne	.L161
.L127:
	call	close@PLT
.L128:
	movq	40(%rsp), %rax
	subq	%fs:40, %rax
	jne	.L162
	movq	8(%rsp), %rdi
	addq	$56, %rsp
	.cfi_remember_state
	.cfi_def_cfa_offset 56
	popq	%rbx
	.cfi_def_cfa_offset 48
	popq	%rbp
	.cfi_def_cfa_offset 40
	addq	$48, %rdi
	popq	%r12
	.cfi_def_cfa_offset 32
	popq	%r13
	.cfi_def_cfa_offset 24
	popq	%r14
	.cfi_def_cfa_offset 16
	popq	%r15
	.cfi_def_cfa_offset 8
	jmp	pthread_mutex_destroy@PLT
.L161:
	.cfi_restore_state
	movl	%r8d, %edi
	call	close@PLT
	movl	88(%rbx), %edi
.L126:
	cmpl	$-1, %edi
	je	.L128
	jmp	.L127
.L160:
	movq	8(%rsp), %rax
	movl	88(%rax), %edi
	jmp	.L126
.L162:
	call	__stack_chk_fail@PLT
	.cfi_endproc
.LFE3306:
	.globl	__gxx_personality_v0
	.section	.gcc_except_table._ZN4asio6detail13epoll_reactorD2Ev,"aG",@progbits,_ZN4asio6detail13epoll_reactorD5Ev,comdat
.LLSDA3306:
	.byte	0xff
	.byte	0xff
	.byte	0x1
	.uleb128 .LLSDACSE3306-.LLSDACSB3306
.LLSDACSB3306:
.LLSDACSE3306:
	.section	.text._ZN4asio6detail13epoll_reactorD2Ev,"axG",@progbits,_ZN4asio6detail13epoll_reactorD5Ev,comdat
	.size	_ZN4asio6detail13epoll_reactorD2Ev, .-_ZN4asio6detail13epoll_reactorD2Ev
	.weak	_ZN4asio6detail13epoll_reactorD1Ev
	.set	_ZN4asio6detail13epoll_reactorD1Ev,_ZN4asio6detail13epoll_reactorD2Ev
	.section	.text._ZN4asio6detail13epoll_reactorD0Ev,"axG",@progbits,_ZN4asio6detail13epoll_reactorD5Ev,comdat
	.align 2
	.p2align 4
	.weak	_ZN4asio6detail13epoll_reactorD0Ev
	.type	_ZN4asio6detail13epoll_reactorD0Ev, @function
_ZN4asio6detail13epoll_reactorD0Ev:
.LFB3308:
	.cfi_startproc
	.cfi_personality 0x9b,DW.ref.__gxx_personality_v0
	.cfi_lsda 0x1b,.LLSDA3308
	endbr64
	pushq	%r15
	.cfi_def_cfa_offset 16
	.cfi_offset 15, -16
	pushq	%r14
	.cfi_def_cfa_offset 24
	.cfi_offset 14, -24
	pushq	%r13
	.cfi_def_cfa_offset 32
	.cfi_offset 13, -32
	pushq	%r12
	.cfi_def_cfa_offset 40
	.cfi_offset 12, -40
	pushq	%rbp
	.cfi_def_cfa_offset 48
	.cfi_offset 6, -48
	pushq	%rbx
	.cfi_def_cfa_offset 56
	.cfi_offset 3, -56
	subq	$56, %rsp
	.cfi_def_cfa_offset 112
	movq	%rdi, 8(%rsp)
	movq	%fs:40, %rax
	movq	%rax, 40(%rsp)
	movq	_ZTVN4asio6detail13epoll_reactorE@GOTPCREL(%rip), %rax
	addq	$16, %rax
	movq	%rax, (%rdi)
	movl	96(%rdi), %edi
	cmpl	$-1, %edi
	je	.L164
	call	close@PLT
.L164:
	movq	8(%rsp), %rax
	movl	100(%rax), %edi
	cmpl	$-1, %edi
	je	.L165
	call	close@PLT
.L165:
	movq	8(%rsp), %rax
	leaq	16(%rsp), %rbp
	movq	160(%rax), %r13
	testq	%r13, %r13
	je	.L176
	.p2align 4,,10
	.p2align 3
.L166:
	movq	%r13, %r12
	movq	24(%r13), %r13
	leaq	144(%r12), %r15
	leaq	96(%r12), %r14
.L171:
	movq	-16(%r15), %rsi
	subq	$16, %r15
	testq	%rsi, %rsi
	je	.L173
	movq	%rsi, (%rsp)
	call	_ZNSt3_V215system_categoryEv@PLT
	movq	(%rsp), %rsi
	movq	%rax, %rbx
	jmp	.L175
	.p2align 4,,10
	.p2align 3
.L172:
	movq	$0, (%rsi)
	movq	8(%rsi), %rax
	xorl	%ecx, %ecx
	movq	%rbp, %rdx
	movl	$0, 16(%rsp)
	xorl	%edi, %edi
	movq	%rbx, 24(%rsp)
	call	*%rax
	movq	(%r15), %rsi
	testq	%rsi, %rsi
	je	.L173
.L175:
	movq	(%rsi), %rax
	movq	%rax, (%r15)
	testq	%rax, %rax
	jne	.L172
	movq	$0, 8(%r15)
	jmp	.L172
	.p2align 4,,10
	.p2align 3
.L173:
	cmpq	%r14, %r15
	jne	.L171
	leaq	40(%r12), %rdi
	call	pthread_mutex_destroy@PLT
	movl	$152, %esi
	movq	%r12, %rdi
	call	_ZdlPvm@PLT
	testq	%r13, %r13
	jne	.L166
.L176:
	movq	8(%rsp), %rax
	leaq	16(%rsp), %rbp
	movq	168(%rax), %r13
	testq	%r13, %r13
	je	.L168
	.p2align 4,,10
	.p2align 3
.L167:
	movq	%r13, %r12
	movq	24(%r13), %r13
	leaq	128(%r12), %r15
	leaq	80(%r12), %r14
.L181:
	movq	(%r15), %rsi
	testq	%rsi, %rsi
	je	.L183
	movq	%rsi, (%rsp)
	call	_ZNSt3_V215system_categoryEv@PLT
	movq	(%rsp), %rsi
	movq	%rax, %rbx
	jmp	.L185
	.p2align 4,,10
	.p2align 3
.L182:
	movq	$0, (%rsi)
	movq	8(%rsi), %rax
	xorl	%ecx, %ecx
	movq	%rbp, %rdx
	movl	$0, 16(%rsp)
	xorl	%edi, %edi
	movq	%rbx, 24(%rsp)
	call	*%rax
	movq	(%r15), %rsi
	testq	%rsi, %rsi
	je	.L183
.L185:
	movq	(%rsi), %rax
	movq	%rax, (%r15)
	testq	%rax, %rax
	jne	.L182
	movq	$0, 8(%r15)
	jmp	.L182
	.p2align 4,,10
	.p2align 3
.L183:
	subq	$16, %r15
	cmpq	%r14, %r15
	jne	.L181
	leaq	40(%r12), %rdi
	call	pthread_mutex_destroy@PLT
	movl	$152, %esi
	movq	%r12, %rdi
	call	_ZdlPvm@PLT
	testq	%r13, %r13
	jne	.L167
.L168:
	movq	8(%rsp), %rbx
	leaq	120(%rbx), %rdi
	call	pthread_mutex_destroy@PLT
	movl	92(%rbx), %r8d
	cmpl	$-1, %r8d
	je	.L220
	movq	8(%rsp), %rbx
	movl	88(%rbx), %edi
	cmpl	%edi, %r8d
	jne	.L221
.L187:
	call	close@PLT
.L188:
	movq	8(%rsp), %rax
	leaq	48(%rax), %rdi
	call	pthread_mutex_destroy@PLT
	movq	40(%rsp), %rax
	subq	%fs:40, %rax
	jne	.L222
	movq	8(%rsp), %rdi
	addq	$56, %rsp
	.cfi_remember_state
	.cfi_def_cfa_offset 56
	movl	$176, %esi
	popq	%rbx
	.cfi_def_cfa_offset 48
	popq	%rbp
	.cfi_def_cfa_offset 40
	popq	%r12
	.cfi_def_cfa_offset 32
	popq	%r13
	.cfi_def_cfa_offset 24
	popq	%r14
	.cfi_def_cfa_offset 16
	popq	%r15
	.cfi_def_cfa_offset 8
	jmp	_ZdlPvm@PLT
.L221:
	.cfi_restore_state
	movl	%r8d, %edi
	call	close@PLT
	movl	88(%rbx), %edi
.L186:
	cmpl	$-1, %edi
	je	.L188
	jmp	.L187
.L220:
	movq	8(%rsp), %rax
	movl	88(%rax), %edi
	jmp	.L186
.L222:
	call	__stack_chk_fail@PLT
	.cfi_endproc
.LFE3308:
	.section	.gcc_except_table._ZN4asio6detail13epoll_reactorD0Ev,"aG",@progbits,_ZN4asio6detail13epoll_reactorD5Ev,comdat
.LLSDA3308:
	.byte	0xff
	.byte	0xff
	.byte	0x1
	.uleb128 .LLSDACSE3308-.LLSDACSB3308
.LLSDACSB3308:
.LLSDACSE3308:
	.section	.text._ZN4asio6detail13epoll_reactorD0Ev,"axG",@progbits,_ZN4asio6detail13epoll_reactorD5Ev,comdat
	.size	_ZN4asio6detail13epoll_reactorD0Ev, .-_ZN4asio6detail13epoll_reactorD0Ev
	.section	.text.unlikely
.LCOLDB4:
	.text
.LHOTB4:
	.p2align 4
	.type	_ZN4asio6detail18completion_handlerINS0_7binder2IZN7asiopal13SerialChannel14BeginWriteImplERKN7openpal6RSliceEEUlRKSt10error_codemE_S9_mEEE11do_completeEPNS0_15task_io_serviceEPNS0_25task_io_service_operationESB_m, @function
_ZN4asio6detail18completion_handlerINS0_7binder2IZN7asiopal13SerialChannel14BeginWriteImplERKN7openpal6RSliceEEUlRKSt10error_codemE_S9_mEEE11do_completeEPNS0_15task_io_serviceEPNS0_25task_io_service_operationESB_m:
.LFB9058:
	.cfi_startproc
	.cfi_personality 0x9b,DW.ref.__gxx_personality_v0
	.cfi_lsda 0x1b,.LLSDA9058
	endbr64
	pushq	%rbp
	.cfi_def_cfa_offset 16
	.cfi_offset 6, -16
	movq	%rsi, %rbp
	pushq	%rbx
	.cfi_def_cfa_offset 24
	.cfi_offset 3, -24
	movq	%rdi, %rbx
	subq	$88, %rsp
	.cfi_def_cfa_offset 112
	movdqu	24(%rsi), %xmm0
	movdqu	40(%rsi), %xmm1
	movq	%fs:40, %rax
	movq	%rax, 72(%rsp)
	xorl	%eax, %eax
	leaq	32(%rsp), %rax
	movq	%rsi, 8(%rsp)
	movq	%rax, (%rsp)
	movq	$0, 16(%rsp)
	movaps	%xmm0, 32(%rsp)
	movaps	%xmm1, 48(%rsp)
	data16	leaq	_ZN4asio6detail15keyword_tss_ptrINS0_10call_stackINS0_15task_io_serviceENS0_27task_io_service_thread_infoEE7contextEE6value_E@tlsgd(%rip), %rdi
	.value	0x6666
	rex64
	call	__tls_get_addr@PLT
	movq	(%rax), %rax
	testq	%rax, %rax
	je	.L224
	movq	8(%rax), %rax
	testq	%rax, %rax
	je	.L224
	cmpq	$0, (%rax)
	je	.L242
.L224:
	movq	%rbp, %rdi
	call	_ZdlPv@PLT
.L225:
	movq	$0, 8(%rsp)
	testq	%rbx, %rbx
	je	.L223
	movq	32(%rsp), %rax
	movq	56(%rsp), %rdx
	movq	40(%rax), %rdi
	movb	$0, 58(%rax)
	testq	%rdi, %rdi
	je	.L228
	cmpb	$0, 56(%rax)
	je	.L243
.L228:
	sfence
.L223:
	movq	72(%rsp), %rax
	subq	%fs:40, %rax
	jne	.L244
	addq	$88, %rsp
	.cfi_remember_state
	.cfi_def_cfa_offset 24
	popq	%rbx
	.cfi_def_cfa_offset 16
	popq	%rbp
	.cfi_def_cfa_offset 8
	ret
	.p2align 4,,10
	.p2align 3
.L243:
	.cfi_restore_state
	movq	(%rdi), %rax
	leaq	40(%rsp), %rsi
.LEHB0:
	call	*24(%rax)
.LEHE0:
	jmp	.L228
	.p2align 4,,10
	.p2align 3
.L242:
	movzbl	56(%rbp), %edx
	movb	%dl, 0(%rbp)
	movq	%rbp, (%rax)
	jmp	.L225
.L244:
	call	__stack_chk_fail@PLT
.L231:
	endbr64
	movq	%rax, %rbp
	jmp	.L229
	.section	.gcc_except_table,"a",@progbits
.LLSDA9058:
	.byte	0xff
	.byte	0xff
	.byte	0x1
	.uleb128 .LLSDACSE9058-.LLSDACSB9058
.LLSDACSB9058:
	.uleb128 .LEHB0-.LFB9058
	.uleb128 .LEHE0-.LEHB0
	.uleb128 .L231-.LFB9058
	.uleb128 0
.LLSDACSE9058:
	.text
	.cfi_endproc
	.section	.text.unlikely
	.cfi_startproc
	.cfi_personality 0x9b,DW.ref.__gxx_personality_v0
	.cfi_lsda 0x1b,.LLSDAC9058
	.type	_ZN4asio6detail18completion_handlerINS0_7binder2IZN7asiopal13SerialChannel14BeginWriteImplERKN7openpal6RSliceEEUlRKSt10error_codemE_S9_mEEE11do_completeEPNS0_15task_io_serviceEPNS0_25task_io_service_operationESB_m.cold, @function
_ZN4asio6detail18completion_handlerINS0_7binder2IZN7asiopal13SerialChannel14BeginWriteImplERKN7openpal6RSliceEEUlRKSt10error_codemE_S9_mEEE11do_completeEPNS0_15task_io_serviceEPNS0_25task_io_service_operationESB_m.cold:
.LFSB9058:
.L229:
	.cfi_def_cfa_offset 112
	.cfi_offset 3, -24
	.cfi_offset 6, -16
	sfence
	movq	%rsp, %rdi
	call	_ZN4asio6detail18completion_handlerINS0_7binder2IZN7asiopal13SerialChannel14BeginWriteImplERKN7openpal6RSliceEEUlRKSt10error_codemE_S9_mEEE3ptr5resetEv
	movq	%rbp, %rdi
.LEHB1:
	call	_Unwind_Resume@PLT
.LEHE1:
	.cfi_endproc
.LFE9058:
	.section	.gcc_except_table
.LLSDAC9058:
	.byte	0xff
	.byte	0xff
	.byte	0x1
	.uleb128 .LLSDACSEC9058-.LLSDACSBC9058
.LLSDACSBC9058:
	.uleb128 .LEHB1-.LCOLDB4
	.uleb128 .LEHE1-.LEHB1
	.uleb128 0
	.uleb128 0
.LLSDACSEC9058:
	.section	.text.unlikely
	.text
	.size	_ZN4asio6detail18completion_handlerINS0_7binder2IZN7asiopal13SerialChannel14BeginWriteImplERKN7openpal6RSliceEEUlRKSt10error_codemE_S9_mEEE11do_completeEPNS0_15task_io_serviceEPNS0_25task_io_service_operationESB_m, .-_ZN4asio6detail18completion_handlerINS0_7binder2IZN7asiopal13SerialChannel14BeginWriteImplERKN7openpal6RSliceEEUlRKSt10error_codemE_S9_mEEE11do_completeEPNS0_15task_io_serviceEPNS0_25task_io_service_operationESB_m
	.section	.text.unlikely
	.size	_ZN4asio6detail18completion_handlerINS0_7binder2IZN7asiopal13SerialChannel14BeginWriteImplERKN7openpal6RSliceEEUlRKSt10error_codemE_S9_mEEE11do_completeEPNS0_15task_io_serviceEPNS0_25task_io_service_operationESB_m.cold, .-_ZN4asio6detail18completion_handlerINS0_7binder2IZN7asiopal13SerialChannel14BeginWriteImplERKN7openpal6RSliceEEUlRKSt10error_codemE_S9_mEEE11do_completeEPNS0_15task_io_serviceEPNS0_25task_io_service_operationESB_m.cold
.LCOLDE4:
	.text
.LHOTE4:
	.section	.text.unlikely
.LCOLDB5:
	.text
.LHOTB5:
	.p2align 4
	.type	_ZN4asio6detail18completion_handlerINS0_7binder2IZN7asiopal13SerialChannel13BeginReadImplEN7openpal6WSliceEEUlRKSt10error_codemE_S7_mEEE11do_completeEPNS0_15task_io_serviceEPNS0_25task_io_service_operationES9_m, @function
_ZN4asio6detail18completion_handlerINS0_7binder2IZN7asiopal13SerialChannel13BeginReadImplEN7openpal6WSliceEEUlRKSt10error_codemE_S7_mEEE11do_completeEPNS0_15task_io_serviceEPNS0_25task_io_service_operationES9_m:
.LFB9425:
	.cfi_startproc
	.cfi_personality 0x9b,DW.ref.__gxx_personality_v0
	.cfi_lsda 0x1b,.LLSDA9425
	endbr64
	pushq	%rbp
	.cfi_def_cfa_offset 16
	.cfi_offset 6, -16
	movq	%rsi, %rbp
	pushq	%rbx
	.cfi_def_cfa_offset 24
	.cfi_offset 3, -24
	movq	%rdi, %rbx
	subq	$88, %rsp
	.cfi_def_cfa_offset 112
	movdqu	24(%rsi), %xmm0
	movdqu	40(%rsi), %xmm1
	movq	%fs:40, %rax
	movq	%rax, 72(%rsp)
	xorl	%eax, %eax
	leaq	32(%rsp), %rax
	movq	%rsi, 8(%rsp)
	movq	%rax, (%rsp)
	movq	$0, 16(%rsp)
	movaps	%xmm0, 32(%rsp)
	movaps	%xmm1, 48(%rsp)
	data16	leaq	_ZN4asio6detail15keyword_tss_ptrINS0_10call_stackINS0_15task_io_serviceENS0_27task_io_service_thread_infoEE7contextEE6value_E@tlsgd(%rip), %rdi
	.value	0x6666
	rex64
	call	__tls_get_addr@PLT
	movq	(%rax), %rax
	testq	%rax, %rax
	je	.L246
	movq	8(%rax), %rax
	testq	%rax, %rax
	je	.L246
	cmpq	$0, (%rax)
	je	.L264
.L246:
	movq	%rbp, %rdi
	call	_ZdlPv@PLT
.L247:
	movq	$0, 8(%rsp)
	testq	%rbx, %rbx
	je	.L245
	movq	32(%rsp), %rax
	movq	56(%rsp), %rdx
	movq	40(%rax), %rdi
	movb	$0, 57(%rax)
	testq	%rdi, %rdi
	je	.L250
	cmpb	$0, 56(%rax)
	je	.L265
.L250:
	sfence
.L245:
	movq	72(%rsp), %rax
	subq	%fs:40, %rax
	jne	.L266
	addq	$88, %rsp
	.cfi_remember_state
	.cfi_def_cfa_offset 24
	popq	%rbx
	.cfi_def_cfa_offset 16
	popq	%rbp
	.cfi_def_cfa_offset 8
	ret
	.p2align 4,,10
	.p2align 3
.L265:
	.cfi_restore_state
	movq	(%rdi), %rax
	leaq	40(%rsp), %rsi
.LEHB2:
	call	*16(%rax)
.LEHE2:
	jmp	.L250
	.p2align 4,,10
	.p2align 3
.L264:
	movzbl	56(%rbp), %edx
	movb	%dl, 0(%rbp)
	movq	%rbp, (%rax)
	jmp	.L247
.L266:
	call	__stack_chk_fail@PLT
.L253:
	endbr64
	movq	%rax, %rbp
	jmp	.L251
	.section	.gcc_except_table
.LLSDA9425:
	.byte	0xff
	.byte	0xff
	.byte	0x1
	.uleb128 .LLSDACSE9425-.LLSDACSB9425
.LLSDACSB9425:
	.uleb128 .LEHB2-.LFB9425
	.uleb128 .LEHE2-.LEHB2
	.uleb128 .L253-.LFB9425
	.uleb128 0
.LLSDACSE9425:
	.text
	.cfi_endproc
	.section	.text.unlikely
	.cfi_startproc
	.cfi_personality 0x9b,DW.ref.__gxx_personality_v0
	.cfi_lsda 0x1b,.LLSDAC9425
	.type	_ZN4asio6detail18completion_handlerINS0_7binder2IZN7asiopal13SerialChannel13BeginReadImplEN7openpal6WSliceEEUlRKSt10error_codemE_S7_mEEE11do_completeEPNS0_15task_io_serviceEPNS0_25task_io_service_operationES9_m.cold, @function
_ZN4asio6detail18completion_handlerINS0_7binder2IZN7asiopal13SerialChannel13BeginReadImplEN7openpal6WSliceEEUlRKSt10error_codemE_S7_mEEE11do_completeEPNS0_15task_io_serviceEPNS0_25task_io_service_operationES9_m.cold:
.LFSB9425:
.L251:
	.cfi_def_cfa_offset 112
	.cfi_offset 3, -24
	.cfi_offset 6, -16
	sfence
	movq	%rsp, %rdi
	call	_ZN4asio6detail18completion_handlerINS0_7binder2IZN7asiopal13SerialChannel13BeginReadImplEN7openpal6WSliceEEUlRKSt10error_codemE_S7_mEEE3ptr5resetEv
	movq	%rbp, %rdi
.LEHB3:
	call	_Unwind_Resume@PLT
.LEHE3:
	.cfi_endproc
.LFE9425:
	.section	.gcc_except_table
.LLSDAC9425:
	.byte	0xff
	.byte	0xff
	.byte	0x1
	.uleb128 .LLSDACSEC9425-.LLSDACSBC9425
.LLSDACSBC9425:
	.uleb128 .LEHB3-.LCOLDB5
	.uleb128 .LEHE3-.LEHB3
	.uleb128 0
	.uleb128 0
.LLSDACSEC9425:
	.section	.text.unlikely
	.text
	.size	_ZN4asio6detail18completion_handlerINS0_7binder2IZN7asiopal13SerialChannel13BeginReadImplEN7openpal6WSliceEEUlRKSt10error_codemE_S7_mEEE11do_completeEPNS0_15task_io_serviceEPNS0_25task_io_service_operationES9_m, .-_ZN4asio6detail18completion_handlerINS0_7binder2IZN7asiopal13SerialChannel13BeginReadImplEN7openpal6WSliceEEUlRKSt10error_codemE_S7_mEEE11do_completeEPNS0_15task_io_serviceEPNS0_25task_io_service_operationES9_m
	.section	.text.unlikely
	.size	_ZN4asio6detail18completion_handlerINS0_7binder2IZN7asiopal13SerialChannel13BeginReadImplEN7openpal6WSliceEEUlRKSt10error_codemE_S7_mEEE11do_completeEPNS0_15task_io_serviceEPNS0_25task_io_service_operationES9_m.cold, .-_ZN4asio6detail18completion_handlerINS0_7binder2IZN7asiopal13SerialChannel13BeginReadImplEN7openpal6WSliceEEUlRKSt10error_codemE_S7_mEEE11do_completeEPNS0_15task_io_serviceEPNS0_25task_io_service_operationES9_m.cold
.LCOLDE5:
	.text
.LHOTE5:
	.section	.text._ZN4asio6detail13epoll_reactor16shutdown_serviceEv,"axG",@progbits,_ZN4asio6detail13epoll_reactor16shutdown_serviceEv,comdat
	.align 2
	.p2align 4
	.weak	_ZN4asio6detail13epoll_reactor16shutdown_serviceEv
	.type	_ZN4asio6detail13epoll_reactor16shutdown_serviceEv, @function
_ZN4asio6detail13epoll_reactor16shutdown_serviceEv:
.LFB3309:
	.cfi_startproc
	.cfi_personality 0x9b,DW.ref.__gxx_personality_v0
	.cfi_lsda 0x1b,.LLSDA3309
	endbr64
	pushq	%r13
	.cfi_def_cfa_offset 16
	.cfi_offset 13, -16
	pushq	%r12
	.cfi_def_cfa_offset 24
	.cfi_offset 12, -24
	pushq	%rbp
	.cfi_def_cfa_offset 32
	.cfi_offset 6, -32
	leaq	48(%rdi), %rbp
	pushq	%rbx
	.cfi_def_cfa_offset 40
	.cfi_offset 3, -40
	movq	%rdi, %rbx
	movq	%rbp, %rdi
	subq	$72, %rsp
	.cfi_def_cfa_offset 112
	movq	%fs:40, %rax
	movq	%rax, 56(%rsp)
	xorl	%eax, %eax
	call	pthread_mutex_lock@PLT
	movb	$1, 112(%rbx)
	movq	%rbp, %rdi
	call	pthread_mutex_unlock@PLT
	movq	160(%rbx), %rax
	pxor	%xmm0, %xmm0
	movaps	%xmm0, 16(%rsp)
	testq	%rax, %rax
	jne	.L268
	jmp	.L285
	.p2align 4,,10
	.p2align 3
.L272:
	movq	%rdx, (%rcx)
.L274:
	movq	104(%rax), %rdx
	movups	%xmm0, 96(%rax)
	movq	%rdx, 24(%rsp)
.L271:
	movq	112(%rax), %rdx
	testq	%rdx, %rdx
	je	.L275
	movq	24(%rsp), %rcx
	testq	%rcx, %rcx
	je	.L335
	movq	%rdx, (%rcx)
.L278:
	movq	120(%rax), %rdx
	movups	%xmm0, 112(%rax)
	movq	%rdx, 24(%rsp)
.L275:
	movq	128(%rax), %rdx
	testq	%rdx, %rdx
	je	.L279
	movq	24(%rsp), %rcx
	testq	%rcx, %rcx
	je	.L336
	movq	%rdx, (%rcx)
.L282:
	movq	136(%rax), %rdx
	movups	%xmm0, 128(%rax)
	movq	%rdx, 24(%rsp)
.L279:
	movq	24(%rax), %rdx
	movb	$1, 144(%rax)
	movq	%rdx, 160(%rbx)
	movq	32(%rax), %rdx
	testq	%rdx, %rdx
	je	.L283
	movq	24(%rax), %rcx
	movq	%rcx, 24(%rdx)
.L283:
	movq	24(%rax), %rdx
	testq	%rdx, %rdx
	je	.L284
	movq	32(%rax), %rcx
	movq	%rcx, 32(%rdx)
.L284:
	movq	168(%rbx), %rdx
	movq	$0, 32(%rax)
	movq	%rdx, 24(%rax)
	movq	%rax, 168(%rbx)
	movq	160(%rbx), %rax
	testq	%rax, %rax
	je	.L285
.L268:
	movq	96(%rax), %rdx
	testq	%rdx, %rdx
	je	.L271
	movq	24(%rsp), %rcx
	testq	%rcx, %rcx
	jne	.L272
	movq	%rdx, 16(%rsp)
	jmp	.L274
	.p2align 4,,10
	.p2align 3
.L335:
	movq	%rdx, 16(%rsp)
	jmp	.L278
	.p2align 4,,10
	.p2align 3
.L336:
	movq	%rdx, 16(%rsp)
	jmp	.L282
	.p2align 4,,10
	.p2align 3
.L285:
	movq	104(%rbx), %rbx
	leaq	16(%rsp), %rbp
	testq	%rbx, %rbx
	je	.L270
	.p2align 4,,10
	.p2align 3
.L269:
	movq	(%rbx), %rax
	movq	%rbp, %rsi
	movq	%rbx, %rdi
.LEHB4:
	call	*48(%rax)
.LEHE4:
	movq	8(%rbx), %rbx
	testq	%rbx, %rbx
	jne	.L269
.L270:
	movq	16(%rsp), %rbx
	testq	%rbx, %rbx
	je	.L267
	pxor	%xmm0, %xmm0
	leaq	32(%rsp), %rbp
	movaps	%xmm0, 16(%rsp)
	call	_ZNSt3_V215system_categoryEv@PLT
	movq	%rax, %r12
	.p2align 4,,10
	.p2align 3
.L289:
	movq	%rbx, %rsi
	movq	(%rbx), %rbx
	xorl	%ecx, %ecx
	xorl	%edi, %edi
	movq	$0, (%rsi)
	movq	8(%rsi), %rax
	movq	%rbp, %rdx
	movl	$0, 32(%rsp)
	movq	%r12, 40(%rsp)
	call	*%rax
	testq	%rbx, %rbx
	jne	.L289
	movq	16(%rsp), %rsi
	testq	%rsi, %rsi
	movq	%rsi, 8(%rsp)
	je	.L267
	call	_ZNSt3_V215system_categoryEv@PLT
	movq	8(%rsp), %rsi
	movq	%rax, %rbx
	jmp	.L294
	.p2align 4,,10
	.p2align 3
.L291:
	movq	$0, (%rsi)
	movq	8(%rsi), %rax
	xorl	%ecx, %ecx
	movq	%rbp, %rdx
	movl	$0, 32(%rsp)
	xorl	%edi, %edi
	movq	%rbx, 40(%rsp)
	call	*%rax
	movq	16(%rsp), %rsi
	testq	%rsi, %rsi
	je	.L267
.L294:
	movq	(%rsi), %rax
	movq	%rax, 16(%rsp)
	testq	%rax, %rax
	jne	.L291
	movq	$0, 24(%rsp)
	jmp	.L291
	.p2align 4,,10
	.p2align 3
.L267:
	movq	56(%rsp), %rax
	subq	%fs:40, %rax
	jne	.L337
	addq	$72, %rsp
	.cfi_remember_state
	.cfi_def_cfa_offset 40
	popq	%rbx
	.cfi_def_cfa_offset 32
	popq	%rbp
	.cfi_def_cfa_offset 24
	popq	%r12
	.cfi_def_cfa_offset 16
	popq	%r13
	.cfi_def_cfa_offset 8
	ret
.L337:
	.cfi_restore_state
	call	__stack_chk_fail@PLT
.L299:
	endbr64
	movq	%rax, %r12
	leaq	32(%rsp), %rbx
.L295:
	movq	16(%rsp), %rbp
	testq	%rbp, %rbp
	jne	.L338
	movq	%r12, %rdi
.LEHB5:
	call	_Unwind_Resume@PLT
.LEHE5:
.L338:
	movq	0(%rbp), %rax
	movq	%rax, 16(%rsp)
	testq	%rax, %rax
	jne	.L297
	movq	$0, 24(%rsp)
.L297:
	movq	$0, 0(%rbp)
	movq	8(%rbp), %r13
	movl	$0, 32(%rsp)
	call	_ZNSt3_V215system_categoryEv@PLT
	xorl	%ecx, %ecx
	movq	%rbx, %rdx
	movq	%rbp, %rsi
	movq	%rax, 40(%rsp)
	xorl	%edi, %edi
	call	*%r13
	jmp	.L295
	.cfi_endproc
.LFE3309:
	.section	.gcc_except_table
.LLSDA3309:
	.byte	0xff
	.byte	0xff
	.byte	0x1
	.uleb128 .LLSDACSE3309-.LLSDACSB3309
.LLSDACSB3309:
	.uleb128 .LEHB4-.LFB3309
	.uleb128 .LEHE4-.LEHB4
	.uleb128 .L299-.LFB3309
	.uleb128 0
	.uleb128 .LEHB5-.LFB3309
	.uleb128 .LEHE5-.LEHB5
	.uleb128 0
	.uleb128 0
.LLSDACSE3309:
	.section	.text._ZN4asio6detail13epoll_reactor16shutdown_serviceEv,"axG",@progbits,_ZN4asio6detail13epoll_reactor16shutdown_serviceEv,comdat
	.size	_ZN4asio6detail13epoll_reactor16shutdown_serviceEv, .-_ZN4asio6detail13epoll_reactor16shutdown_serviceEv
	.section	.rodata._ZNK4asio6detail15system_category7messageB5cxx11Ei.str1.8,"aMS",@progbits,1
	.align 8
.LC6:
	.string	"basic_string::_M_construct null not valid"
	.section	.text._ZNK4asio6detail15system_category7messageB5cxx11Ei,"axG",@progbits,_ZNK4asio6detail15system_category7messageB5cxx11Ei,comdat
	.align 2
	.p2align 4
	.weak	_ZNK4asio6detail15system_category7messageB5cxx11Ei
	.type	_ZNK4asio6detail15system_category7messageB5cxx11Ei, @function
_ZNK4asio6detail15system_category7messageB5cxx11Ei:
.LFB2396:
	.cfi_startproc
	endbr64
	pushq	%r14
	.cfi_def_cfa_offset 16
	.cfi_offset 14, -16
	pushq	%r13
	.cfi_def_cfa_offset 24
	.cfi_offset 13, -24
	pushq	%r12
	.cfi_def_cfa_offset 32
	.cfi_offset 12, -32
	movq	%rdi, %r12
	pushq	%rbp
	.cfi_def_cfa_offset 40
	.cfi_offset 6, -40
	leaq	16(%rdi), %rbp
	subq	$296, %rsp
	.cfi_def_cfa_offset 336
	movq	%fs:40, %rax
	movq	%rax, 280(%rsp)
	xorl	%eax, %eax
	cmpl	$125, %edx
	je	.L354
	pxor	%xmm0, %xmm0
	movl	%edx, %edi
	leaq	16(%rsp), %rsi
	movl	$256, %edx
	movaps	%xmm0, 16(%rsp)
	movaps	%xmm0, 32(%rsp)
	movaps	%xmm0, 48(%rsp)
	movaps	%xmm0, 64(%rsp)
	movaps	%xmm0, 80(%rsp)
	movaps	%xmm0, 96(%rsp)
	movaps	%xmm0, 112(%rsp)
	movaps	%xmm0, 128(%rsp)
	movaps	%xmm0, 144(%rsp)
	movaps	%xmm0, 160(%rsp)
	movaps	%xmm0, 176(%rsp)
	movaps	%xmm0, 192(%rsp)
	movaps	%xmm0, 208(%rsp)
	movaps	%xmm0, 224(%rsp)
	movaps	%xmm0, 240(%rsp)
	movaps	%xmm0, 256(%rsp)
	call	strerror_r@PLT
	movq	%rbp, (%r12)
	movq	%rax, %r13
	testq	%rax, %rax
	je	.L342
	movq	%rax, %rdi
	call	strlen@PLT
	movq	%rax, 8(%rsp)
	movq	%rax, %r14
	cmpq	$15, %rax
	ja	.L355
	cmpq	$1, %rax
	jne	.L346
	movzbl	0(%r13), %edx
	movb	%dl, 16(%r12)
.L347:
	movq	%rax, 8(%r12)
	movb	$0, 0(%rbp,%rax)
.L339:
	movq	280(%rsp), %rax
	subq	%fs:40, %rax
	jne	.L356
	addq	$296, %rsp
	.cfi_remember_state
	.cfi_def_cfa_offset 40
	movq	%r12, %rax
	popq	%rbp
	.cfi_def_cfa_offset 32
	popq	%r12
	.cfi_def_cfa_offset 24
	popq	%r13
	.cfi_def_cfa_offset 16
	popq	%r14
	.cfi_def_cfa_offset 8
	ret
	.p2align 4,,10
	.p2align 3
.L355:
	.cfi_restore_state
	leaq	8(%rsp), %rsi
	xorl	%edx, %edx
	movq	%r12, %rdi
	call	_ZNSt7__cxx1112basic_stringIcSt11char_traitsIcESaIcEE9_M_createERmm@PLT
	movq	%rax, (%r12)
	movq	%rax, %rbp
	movq	8(%rsp), %rax
	movq	%rax, 16(%r12)
.L345:
	movq	%rbp, %rdi
	movq	%r14, %rdx
	movq	%r13, %rsi
	call	memcpy@PLT
	movq	8(%rsp), %rax
	movq	(%r12), %rbp
	jmp	.L347
	.p2align 4,,10
	.p2align 3
.L354:
	movq	%rbp, (%rdi)
	xorl	%edx, %edx
	leaq	8(%rsp), %rsi
	movq	$18, 8(%rsp)
	call	_ZNSt7__cxx1112basic_stringIcSt11char_traitsIcESaIcEE9_M_createERmm@PLT
	movq	8(%rsp), %rdx
	movdqa	.LC7(%rip), %xmm0
	movq	%rax, (%r12)
	movq	%rdx, 16(%r12)
	movl	$11876, %edx
	movw	%dx, 16(%rax)
	movups	%xmm0, (%rax)
	movq	8(%rsp), %rax
	movq	(%r12), %rdx
	movq	%rax, 8(%r12)
	movb	$0, (%rdx,%rax)
	jmp	.L339
	.p2align 4,,10
	.p2align 3
.L346:
	testq	%rax, %rax
	je	.L347
	jmp	.L345
.L342:
	leaq	.LC6(%rip), %rdi
	call	_ZSt19__throw_logic_errorPKc@PLT
.L356:
	call	__stack_chk_fail@PLT
	.cfi_endproc
.LFE2396:
	.size	_ZNK4asio6detail15system_category7messageB5cxx11Ei, .-_ZNK4asio6detail15system_category7messageB5cxx11Ei
	.section	.text._ZN4asio6detail24descriptor_write_op_baseINS_15const_buffers_1EE10do_performEPNS0_10reactor_opE,"axG",@progbits,_ZN4asio6detail24descriptor_write_op_baseINS_15const_buffers_1EE10do_performEPNS0_10reactor_opE,comdat
	.p2align 4
	.weak	_ZN4asio6detail24descriptor_write_op_baseINS_15const_buffers_1EE10do_performEPNS0_10reactor_opE
	.type	_ZN4asio6detail24descriptor_write_op_baseINS_15const_buffers_1EE10do_performEPNS0_10reactor_opE, @function
_ZN4asio6detail24descriptor_write_op_baseINS_15const_buffers_1EE10do_performEPNS0_10reactor_opE:
.LFB9296:
	.cfi_startproc
	endbr64
	pushq	%r15
	.cfi_def_cfa_offset 16
	.cfi_offset 15, -16
	movq	%rdi, %r15
	pushq	%r14
	.cfi_def_cfa_offset 24
	.cfi_offset 14, -24
	pushq	%r13
	.cfi_def_cfa_offset 32
	.cfi_offset 13, -32
	pushq	%r12
	.cfi_def_cfa_offset 40
	.cfi_offset 12, -40
	pushq	%rbp
	.cfi_def_cfa_offset 48
	.cfi_offset 6, -48
	pushq	%rbx
	.cfi_def_cfa_offset 56
	.cfi_offset 3, -56
	subq	$56, %rsp
	.cfi_def_cfa_offset 112
	movq	72(%rdi), %xmm0
	movl	56(%rdi), %r14d
	movq	%fs:40, %rax
	movq	%rax, 40(%rsp)
	movq	64(%rdi), %rax
	leaq	16(%rsp), %r13
	punpcklqdq	%xmm0, %xmm0
	movups	%xmm0, 24(%rsp)
	movq	%rax, 16(%rsp)
	call	__errno_location@PLT
	movq	_ZGVZN4asio15system_categoryEvE8instance@GOTPCREL(%rip), %rbp
	movq	_ZZN4asio15system_categoryEvE8instance@GOTPCREL(%rip), %rbx
	movq	%rax, %r12
.L365:
	movl	$0, (%r12)
	movl	$1, %edx
	movq	%r13, %rsi
	movl	%r14d, %edi
	call	writev@PLT
	movq	%rax, 8(%rsp)
	movzbl	0(%rbp), %eax
	testb	%al, %al
	je	.L393
.L359:
	movl	(%r12), %eax
	movq	%rbx, 32(%r15)
	movl	%eax, 24(%r15)
	movzbl	0(%rbp), %eax
	testb	%al, %al
	je	.L394
.L362:
	cmpq	%rbx, 32(%r15)
	je	.L395
.L364:
	movzbl	0(%rbp), %eax
	testb	%al, %al
	je	.L396
.L367:
	cmpq	%rbx, 32(%r15)
	je	.L397
.L369:
	movzbl	0(%rbp), %eax
	testb	%al, %al
	je	.L398
.L372:
	cmpq	%rbx, 32(%r15)
	je	.L399
.L374:
	movq	8(%rsp), %rbx
	testq	%rbx, %rbx
	js	.L376
	call	_ZNSt3_V215system_categoryEv@PLT
	movl	$0, 24(%r15)
	movq	%rbx, 40(%r15)
	movq	%rax, 32(%r15)
	movl	$1, %eax
.L357:
	movq	40(%rsp), %rdx
	subq	%fs:40, %rdx
	jne	.L400
	addq	$56, %rsp
	.cfi_remember_state
	.cfi_def_cfa_offset 56
	popq	%rbx
	.cfi_def_cfa_offset 48
	popq	%rbp
	.cfi_def_cfa_offset 40
	popq	%r12
	.cfi_def_cfa_offset 32
	popq	%r13
	.cfi_def_cfa_offset 24
	popq	%r14
	.cfi_def_cfa_offset 16
	popq	%r15
	.cfi_def_cfa_offset 8
	ret
	.p2align 4,,10
	.p2align 3
.L376:
	.cfi_restore_state
	movq	$0, 40(%r15)
	movl	$1, %eax
	jmp	.L357
	.p2align 4,,10
	.p2align 3
.L393:
	movq	%rbp, %rdi
	call	__cxa_guard_acquire@PLT
	testl	%eax, %eax
	je	.L359
	movq	_ZN4asio6detail15system_categoryD1Ev@GOTPCREL(%rip), %rdi
	leaq	__dso_handle(%rip), %rdx
	movq	%rbx, %rsi
	call	__cxa_atexit@PLT
	movq	%rbp, %rdi
	call	__cxa_guard_release@PLT
	jmp	.L359
	.p2align 4,,10
	.p2align 3
.L394:
	movq	%rbp, %rdi
	call	__cxa_guard_acquire@PLT
	testl	%eax, %eax
	je	.L362
	movq	_ZN4asio6detail15system_categoryD1Ev@GOTPCREL(%rip), %rdi
	leaq	__dso_handle(%rip), %rdx
	movq	%rbx, %rsi
	call	__cxa_atexit@PLT
	movq	%rbp, %rdi
	call	__cxa_guard_release@PLT
	cmpq	%rbx, 32(%r15)
	jne	.L364
	.p2align 4,,10
	.p2align 3
.L395:
	cmpl	$4, 24(%r15)
	je	.L365
	movzbl	0(%rbp), %eax
	testb	%al, %al
	jne	.L367
.L396:
	movq	%rbp, %rdi
	call	__cxa_guard_acquire@PLT
	testl	%eax, %eax
	je	.L367
	movq	_ZN4asio6detail15system_categoryD1Ev@GOTPCREL(%rip), %rdi
	leaq	__dso_handle(%rip), %rdx
	movq	%rbx, %rsi
	call	__cxa_atexit@PLT
	movq	%rbp, %rdi
	call	__cxa_guard_release@PLT
	cmpq	%rbx, 32(%r15)
	jne	.L369
	.p2align 4,,10
	.p2align 3
.L397:
	cmpl	$11, 24(%r15)
	jne	.L369
	xorl	%eax, %eax
	jmp	.L357
	.p2align 4,,10
	.p2align 3
.L398:
	movq	%rbp, %rdi
	call	__cxa_guard_acquire@PLT
	testl	%eax, %eax
	je	.L372
	movq	_ZN4asio6detail15system_categoryD1Ev@GOTPCREL(%rip), %rdi
	leaq	__dso_handle(%rip), %rdx
	movq	%rbx, %rsi
	call	__cxa_atexit@PLT
	movq	%rbp, %rdi
	call	__cxa_guard_release@PLT
	jmp	.L372
	.p2align 4,,10
	.p2align 3
.L399:
	cmpl	$11, 24(%r15)
	jne	.L374
	xorl	%eax, %eax
	jmp	.L357
.L400:
	call	__stack_chk_fail@PLT
	.cfi_endproc
.LFE9296:
	.size	_ZN4asio6detail24descriptor_write_op_baseINS_15const_buffers_1EE10do_performEPNS0_10reactor_opE, .-_ZN4asio6detail24descriptor_write_op_baseINS_15const_buffers_1EE10do_performEPNS0_10reactor_opE
	.section	.text._ZN4asio6detail23descriptor_read_op_baseINS_17mutable_buffers_1EE10do_performEPNS0_10reactor_opE,"axG",@progbits,_ZN4asio6detail23descriptor_read_op_baseINS_17mutable_buffers_1EE10do_performEPNS0_10reactor_opE,comdat
	.p2align 4
	.weak	_ZN4asio6detail23descriptor_read_op_baseINS_17mutable_buffers_1EE10do_performEPNS0_10reactor_opE
	.type	_ZN4asio6detail23descriptor_read_op_baseINS_17mutable_buffers_1EE10do_performEPNS0_10reactor_opE, @function
_ZN4asio6detail23descriptor_read_op_baseINS_17mutable_buffers_1EE10do_performEPNS0_10reactor_opE:
.LFB9173:
	.cfi_startproc
	endbr64
	pushq	%r15
	.cfi_def_cfa_offset 16
	.cfi_offset 15, -16
	movq	%rdi, %r15
	pushq	%r14
	.cfi_def_cfa_offset 24
	.cfi_offset 14, -24
	pushq	%r13
	.cfi_def_cfa_offset 32
	.cfi_offset 13, -32
	pushq	%r12
	.cfi_def_cfa_offset 40
	.cfi_offset 12, -40
	pushq	%rbp
	.cfi_def_cfa_offset 48
	.cfi_offset 6, -48
	pushq	%rbx
	.cfi_def_cfa_offset 56
	.cfi_offset 3, -56
	subq	$56, %rsp
	.cfi_def_cfa_offset 112
	movq	72(%rdi), %xmm0
	movl	56(%rdi), %r14d
	movq	%fs:40, %rax
	movq	%rax, 40(%rsp)
	movq	64(%rdi), %rax
	punpcklqdq	%xmm0, %xmm0
	movups	%xmm0, 24(%rsp)
	movq	%rax, 16(%rsp)
	call	__errno_location@PLT
	movq	_ZGVZN4asio15system_categoryEvE8instance@GOTPCREL(%rip), %rbp
	movq	_ZZN4asio15system_categoryEvE8instance@GOTPCREL(%rip), %r12
	movq	%rax, %r13
	leaq	16(%rsp), %rax
	movq	%rax, 8(%rsp)
.L414:
	movl	$0, 0(%r13)
	movq	8(%rsp), %rsi
	movl	$1, %edx
	movl	%r14d, %edi
	call	readv@PLT
	movq	%rax, %rbx
	movzbl	0(%rbp), %eax
	testb	%al, %al
	je	.L445
.L403:
	movl	0(%r13), %eax
	movq	%r12, 32(%r15)
	movl	%eax, 24(%r15)
	testq	%rbx, %rbx
	je	.L446
	movzbl	0(%rbp), %eax
	testb	%al, %al
	je	.L447
.L411:
	cmpq	%r12, 32(%r15)
	je	.L448
.L413:
	movzbl	0(%rbp), %eax
	testb	%al, %al
	je	.L449
.L416:
	cmpq	%r12, 32(%r15)
	je	.L450
.L418:
	movzbl	0(%rbp), %eax
	testb	%al, %al
	je	.L451
.L420:
	cmpq	%r12, 32(%r15)
	je	.L452
.L422:
	testq	%rbx, %rbx
	jle	.L424
	call	_ZNSt3_V215system_categoryEv@PLT
	movl	$0, 24(%r15)
	movq	%rbx, 40(%r15)
	movq	%rax, 32(%r15)
	movl	$1, %eax
.L401:
	movq	40(%rsp), %rdx
	subq	%fs:40, %rdx
	jne	.L453
	addq	$56, %rsp
	.cfi_remember_state
	.cfi_def_cfa_offset 56
	popq	%rbx
	.cfi_def_cfa_offset 48
	popq	%rbp
	.cfi_def_cfa_offset 40
	popq	%r12
	.cfi_def_cfa_offset 32
	popq	%r13
	.cfi_def_cfa_offset 24
	popq	%r14
	.cfi_def_cfa_offset 16
	popq	%r15
	.cfi_def_cfa_offset 8
	ret
	.p2align 4,,10
	.p2align 3
.L424:
	.cfi_restore_state
	movq	$0, 40(%r15)
	movl	$1, %eax
	jmp	.L401
	.p2align 4,,10
	.p2align 3
.L445:
	movq	%rbp, %rdi
	call	__cxa_guard_acquire@PLT
	testl	%eax, %eax
	je	.L403
	movq	_ZN4asio6detail15system_categoryD1Ev@GOTPCREL(%rip), %rdi
	leaq	__dso_handle(%rip), %rdx
	movq	%r12, %rsi
	call	__cxa_atexit@PLT
	movq	%rbp, %rdi
	call	__cxa_guard_release@PLT
	jmp	.L403
	.p2align 4,,10
	.p2align 3
.L447:
	movq	%rbp, %rdi
	call	__cxa_guard_acquire@PLT
	testl	%eax, %eax
	je	.L411
	movq	_ZN4asio6detail15system_categoryD1Ev@GOTPCREL(%rip), %rdi
	leaq	__dso_handle(%rip), %rdx
	movq	%r12, %rsi
	call	__cxa_atexit@PLT
	movq	%rbp, %rdi
	call	__cxa_guard_release@PLT
	cmpq	%r12, 32(%r15)
	jne	.L413
	.p2align 4,,10
	.p2align 3
.L448:
	cmpl	$4, 24(%r15)
	je	.L414
	movzbl	0(%rbp), %eax
	testb	%al, %al
	jne	.L416
.L449:
	movq	%rbp, %rdi
	call	__cxa_guard_acquire@PLT
	testl	%eax, %eax
	je	.L416
	movq	_ZN4asio6detail15system_categoryD1Ev@GOTPCREL(%rip), %rdi
	leaq	__dso_handle(%rip), %rdx
	movq	%r12, %rsi
	call	__cxa_atexit@PLT
	movq	%rbp, %rdi
	call	__cxa_guard_release@PLT
	cmpq	%r12, 32(%r15)
	jne	.L418
	.p2align 4,,10
	.p2align 3
.L450:
	cmpl	$11, 24(%r15)
	jne	.L418
	xorl	%eax, %eax
	jmp	.L401
	.p2align 4,,10
	.p2align 3
.L451:
	movq	%rbp, %rdi
	call	__cxa_guard_acquire@PLT
	testl	%eax, %eax
	je	.L420
	movq	_ZN4asio6detail15system_categoryD1Ev@GOTPCREL(%rip), %rdi
	leaq	__dso_handle(%rip), %rdx
	movq	%r12, %rsi
	call	__cxa_atexit@PLT
	movq	%rbp, %rdi
	call	__cxa_guard_release@PLT
	jmp	.L420
	.p2align 4,,10
	.p2align 3
.L452:
	cmpl	$11, 24(%r15)
	jne	.L422
	xorl	%eax, %eax
	jmp	.L401
	.p2align 4,,10
	.p2align 3
.L446:
	movq	_ZGVZN4asio5error17get_misc_categoryEvE8instance@GOTPCREL(%rip), %rbp
	movzbl	0(%rbp), %eax
	testb	%al, %al
	je	.L406
.L443:
	movq	_ZZN4asio5error17get_misc_categoryEvE8instance@GOTPCREL(%rip), %rbx
.L407:
	movl	$2, 24(%r15)
	movl	$1, %eax
	movq	%rbx, 32(%r15)
	jmp	.L401
	.p2align 4,,10
	.p2align 3
.L406:
	movq	%rbp, %rdi
	call	__cxa_guard_acquire@PLT
	testl	%eax, %eax
	je	.L443
	movq	_ZZN4asio5error17get_misc_categoryEvE8instance@GOTPCREL(%rip), %rbx
	movq	_ZN4asio5error6detail13misc_categoryD1Ev@GOTPCREL(%rip), %rdi
	leaq	__dso_handle(%rip), %rdx
	movq	%rbx, %rsi
	call	__cxa_atexit@PLT
	movq	%rbp, %rdi
	call	__cxa_guard_release@PLT
	jmp	.L407
.L453:
	call	__stack_chk_fail@PLT
	.cfi_endproc
.LFE9173:
	.size	_ZN4asio6detail23descriptor_read_op_baseINS_17mutable_buffers_1EE10do_performEPNS0_10reactor_opE, .-_ZN4asio6detail23descriptor_read_op_baseINS_17mutable_buffers_1EE10do_performEPNS0_10reactor_opE
	.section	.text._ZNK4asio5error6detail17addrinfo_category7messageB5cxx11Ei,"axG",@progbits,_ZNK4asio5error6detail17addrinfo_category7messageB5cxx11Ei,comdat
	.align 2
	.p2align 4
	.weak	_ZNK4asio5error6detail17addrinfo_category7messageB5cxx11Ei
	.type	_ZNK4asio5error6detail17addrinfo_category7messageB5cxx11Ei, @function
_ZNK4asio5error6detail17addrinfo_category7messageB5cxx11Ei:
.LFB2442:
	.cfi_startproc
	endbr64
	pushq	%r12
	.cfi_def_cfa_offset 16
	.cfi_offset 12, -16
	movq	%rdi, %r12
	subq	$16, %rsp
	.cfi_def_cfa_offset 32
	movq	%fs:40, %rax
	movq	%rax, 8(%rsp)
	xorl	%eax, %eax
	leaq	16(%rdi), %rax
	movq	%rax, (%rdi)
	cmpl	$-8, %edx
	je	.L460
	cmpl	$-7, %edx
	je	.L461
	xorl	%edx, %edx
	movq	%rsp, %rsi
	movq	$19, (%rsp)
	call	_ZNSt7__cxx1112basic_stringIcSt11char_traitsIcESaIcEE9_M_createERmm@PLT
	movq	(%rsp), %rdx
	movdqa	.LC10(%rip), %xmm0
	movq	%rax, (%r12)
	movq	%rdx, 16(%r12)
	movl	$28530, %edx
	movw	%dx, 16(%rax)
	movb	$114, 18(%rax)
	movups	%xmm0, (%rax)
	movq	(%rsp), %rax
	movq	(%r12), %rdx
	movq	%rax, 8(%r12)
	movb	$0, (%rdx,%rax)
.L454:
	movq	8(%rsp), %rax
	subq	%fs:40, %rax
	jne	.L462
	addq	$16, %rsp
	.cfi_remember_state
	.cfi_def_cfa_offset 16
	movq	%r12, %rax
	popq	%r12
	.cfi_def_cfa_offset 8
	ret
	.p2align 4,,10
	.p2align 3
.L461:
	.cfi_restore_state
	xorl	%edx, %edx
	movq	%rsp, %rsi
	movq	$25, (%rsp)
	call	_ZNSt7__cxx1112basic_stringIcSt11char_traitsIcESaIcEE9_M_createERmm@PLT
	movq	(%rsp), %rdx
	movdqa	.LC9(%rip), %xmm0
	movabsq	$7310593918082512243, %rcx
	movq	%rax, (%r12)
	movq	%rdx, 16(%r12)
	movq	%rcx, 16(%rax)
	movb	$100, 24(%rax)
	movups	%xmm0, (%rax)
	movq	(%rsp), %rax
	movq	(%r12), %rdx
	movq	%rax, 8(%r12)
	movb	$0, (%rdx,%rax)
	jmp	.L454
	.p2align 4,,10
	.p2align 3
.L460:
	xorl	%edx, %edx
	movq	%rsp, %rsi
	movq	$17, (%rsp)
	call	_ZNSt7__cxx1112basic_stringIcSt11char_traitsIcESaIcEE9_M_createERmm@PLT
	movq	(%rsp), %rdx
	movdqa	.LC8(%rip), %xmm0
	movq	%rax, (%r12)
	movq	%rdx, 16(%r12)
	movb	$100, 16(%rax)
	movups	%xmm0, (%rax)
	movq	(%rsp), %rax
	movq	(%r12), %rdx
	movq	%rax, 8(%r12)
	movb	$0, (%rdx,%rax)
	jmp	.L454
.L462:
	call	__stack_chk_fail@PLT
	.cfi_endproc
.LFE2442:
	.size	_ZNK4asio5error6detail17addrinfo_category7messageB5cxx11Ei, .-_ZNK4asio5error6detail17addrinfo_category7messageB5cxx11Ei
	.section	.text._ZNK4asio5error6detail14netdb_category7messageB5cxx11Ei,"axG",@progbits,_ZNK4asio5error6detail14netdb_category7messageB5cxx11Ei,comdat
	.align 2
	.p2align 4
	.weak	_ZNK4asio5error6detail14netdb_category7messageB5cxx11Ei
	.type	_ZNK4asio5error6detail14netdb_category7messageB5cxx11Ei, @function
_ZNK4asio5error6detail14netdb_category7messageB5cxx11Ei:
.LFB2436:
	.cfi_startproc
	endbr64
	pushq	%r12
	.cfi_def_cfa_offset 16
	.cfi_offset 12, -16
	movq	%rdi, %r12
	subq	$16, %rsp
	.cfi_def_cfa_offset 32
	movq	%fs:40, %rax
	movq	%rax, 8(%rsp)
	xorl	%eax, %eax
	leaq	16(%rdi), %rax
	movq	%rax, (%rdi)
	cmpl	$1, %edx
	je	.L471
	cmpl	$2, %edx
	je	.L472
	cmpl	$4, %edx
	je	.L473
	cmpl	$3, %edx
	je	.L474
	xorl	%edx, %edx
	movq	%rsp, %rsi
	movq	$16, (%rsp)
	call	_ZNSt7__cxx1112basic_stringIcSt11char_traitsIcESaIcEE9_M_createERmm@PLT
	movq	(%rsp), %rdx
	movdqa	.LC20(%rip), %xmm0
	movq	%rax, (%r12)
	movq	%rdx, 16(%r12)
	movups	%xmm0, (%rax)
	movq	(%rsp), %rax
	movq	(%r12), %rdx
	movq	%rax, 8(%r12)
	movb	$0, (%rdx,%rax)
.L463:
	movq	8(%rsp), %rax
	subq	%fs:40, %rax
	jne	.L475
	addq	$16, %rsp
	.cfi_remember_state
	.cfi_def_cfa_offset 16
	movq	%r12, %rax
	popq	%r12
	.cfi_def_cfa_offset 8
	ret
	.p2align 4,,10
	.p2align 3
.L471:
	.cfi_restore_state
	movq	%rsp, %rsi
	xorl	%edx, %edx
	movq	$30, (%rsp)
	call	_ZNSt7__cxx1112basic_stringIcSt11char_traitsIcESaIcEE9_M_createERmm@PLT
	movq	(%rsp), %rdx
	movl	$10597, %esi
	movdqa	.LC11(%rip), %xmm0
	movabsq	$8388361603773658465, %rcx
	movq	%rax, (%r12)
	movq	%rdx, 16(%r12)
	movq	%rcx, 16(%rax)
	movl	$1986622561, 24(%rax)
	movw	%si, 28(%rax)
	movups	%xmm0, (%rax)
	movq	(%rsp), %rax
	movq	(%r12), %rdx
	movq	%rax, 8(%r12)
	movb	$0, (%rdx,%rax)
	jmp	.L463
	.p2align 4,,10
	.p2align 3
.L474:
	xorl	%edx, %edx
	movq	%rsp, %rsi
	movq	$55, (%rsp)
	call	_ZNSt7__cxx1112basic_stringIcSt11char_traitsIcESaIcEE9_M_createERmm@PLT
	movq	(%rsp), %rdx
	movdqa	.LC17(%rip), %xmm0
	movq	%rax, (%r12)
	movq	%rdx, 16(%r12)
	movl	$30059, %edx
	movups	%xmm0, (%rax)
	movdqa	.LC18(%rip), %xmm0
	movl	$1869573152, 48(%rax)
	movups	%xmm0, 16(%rax)
	movdqa	.LC19(%rip), %xmm0
	movw	%dx, 52(%rax)
	movb	$112, 54(%rax)
	movups	%xmm0, 32(%rax)
	movq	(%rsp), %rax
	movq	(%r12), %rdx
	movq	%rax, 8(%r12)
	movb	$0, (%rdx,%rax)
	jmp	.L463
	.p2align 4,,10
	.p2align 3
.L472:
	xorl	%edx, %edx
	movq	%rsp, %rsi
	movq	$51, (%rsp)
	call	_ZNSt7__cxx1112basic_stringIcSt11char_traitsIcESaIcEE9_M_createERmm@PLT
	movq	(%rsp), %rdx
	movl	$25972, %ecx
	movdqa	.LC11(%rip), %xmm0
	movq	%rax, (%r12)
	movq	%rdx, 16(%r12)
	movups	%xmm0, (%rax)
	movdqa	.LC12(%rip), %xmm0
	movw	%cx, 48(%rax)
	movups	%xmm0, 16(%rax)
	movdqa	.LC13(%rip), %xmm0
	movb	$114, 50(%rax)
	movups	%xmm0, 32(%rax)
	movq	(%rsp), %rax
	movq	(%r12), %rdx
	movq	%rax, 8(%r12)
	movb	$0, (%rdx,%rax)
	jmp	.L463
	.p2align 4,,10
	.p2align 3
.L473:
	xorl	%edx, %edx
	movq	%rsp, %rsi
	movq	$56, (%rsp)
	call	_ZNSt7__cxx1112basic_stringIcSt11char_traitsIcESaIcEE9_M_createERmm@PLT
	movq	(%rsp), %rdx
	movdqa	.LC14(%rip), %xmm0
	movabsq	$7022344801645520244, %rcx
	movq	%rax, (%r12)
	movq	%rdx, 16(%r12)
	movups	%xmm0, (%rax)
	movdqa	.LC15(%rip), %xmm0
	movq	%rcx, 48(%rax)
	movups	%xmm0, 16(%rax)
	movdqa	.LC16(%rip), %xmm0
	movups	%xmm0, 32(%rax)
	movq	(%rsp), %rax
	movq	(%r12), %rdx
	movq	%rax, 8(%r12)
	movb	$0, (%rdx,%rax)
	jmp	.L463
.L475:
	call	__stack_chk_fail@PLT
	.cfi_endproc
.LFE2436:
	.size	_ZNK4asio5error6detail14netdb_category7messageB5cxx11Ei, .-_ZNK4asio5error6detail14netdb_category7messageB5cxx11Ei
	.section	.text._ZNK4asio5error6detail13misc_category7messageB5cxx11Ei,"axG",@progbits,_ZNK4asio5error6detail13misc_category7messageB5cxx11Ei,comdat
	.align 2
	.p2align 4
	.weak	_ZNK4asio5error6detail13misc_category7messageB5cxx11Ei
	.type	_ZNK4asio5error6detail13misc_category7messageB5cxx11Ei, @function
_ZNK4asio5error6detail13misc_category7messageB5cxx11Ei:
.LFB2448:
	.cfi_startproc
	endbr64
	pushq	%r12
	.cfi_def_cfa_offset 16
	.cfi_offset 12, -16
	movq	%rdi, %r12
	subq	$16, %rsp
	.cfi_def_cfa_offset 32
	movq	%fs:40, %rax
	movq	%rax, 8(%rsp)
	xorl	%eax, %eax
	leaq	16(%rdi), %rax
	movq	%rax, (%rdi)
	cmpl	$1, %edx
	je	.L484
	cmpl	$2, %edx
	je	.L485
	cmpl	$3, %edx
	je	.L486
	cmpl	$4, %edx
	je	.L487
	movabsq	$8316298233121436513, %rcx
	movl	$28530, %edx
	movq	%rcx, 16(%rdi)
	movl	$1919230051, 8(%rax)
	movw	%dx, 12(%rax)
	movb	$114, 14(%rax)
	movq	$15, 8(%rdi)
	movb	$0, 31(%rdi)
.L476:
	movq	8(%rsp), %rax
	subq	%fs:40, %rax
	jne	.L488
	addq	$16, %rsp
	.cfi_remember_state
	.cfi_def_cfa_offset 16
	movq	%r12, %rax
	popq	%r12
	.cfi_def_cfa_offset 8
	ret
	.p2align 4,,10
	.p2align 3
.L484:
	.cfi_restore_state
	movabsq	$2340011850872286273, %rcx
	movq	%rcx, 16(%rdi)
	movl	$1852141679, 8(%rax)
	movq	$12, 8(%rdi)
	movb	$0, 28(%rdi)
	jmp	.L476
	.p2align 4,,10
	.p2align 3
.L487:
	movq	%rsp, %rsi
	xorl	%edx, %edx
	movq	$57, (%rsp)
	call	_ZNSt7__cxx1112basic_stringIcSt11char_traitsIcESaIcEE9_M_createERmm@PLT
	movq	(%rsp), %rdx
	movdqa	.LC22(%rip), %xmm0
	movabsq	$7310291504967217959, %rsi
	movq	%rax, (%r12)
	movq	%rdx, 16(%r12)
	movups	%xmm0, (%rax)
	movdqa	.LC23(%rip), %xmm0
	movq	%rsi, 48(%rax)
	movups	%xmm0, 16(%rax)
	movdqa	.LC24(%rip), %xmm0
	movb	$116, 56(%rax)
	movups	%xmm0, 32(%rax)
	movq	(%rsp), %rax
	movq	(%r12), %rdx
	movq	%rax, 8(%r12)
	movb	$0, (%rdx,%rax)
	jmp	.L476
	.p2align 4,,10
	.p2align 3
.L485:
	movabsq	$7358994418594246213, %rcx
	movq	%rcx, 16(%rdi)
	movl	$27753, %ecx
	movw	%cx, 8(%rax)
	movb	$101, 10(%rax)
	movq	$11, 8(%rdi)
	movb	$0, 27(%rdi)
	jmp	.L476
	.p2align 4,,10
	.p2align 3
.L486:
	xorl	%edx, %edx
	movq	%rsp, %rsi
	movq	$17, (%rsp)
	call	_ZNSt7__cxx1112basic_stringIcSt11char_traitsIcESaIcEE9_M_createERmm@PLT
	movq	(%rsp), %rdx
	movdqa	.LC21(%rip), %xmm0
	movq	%rax, (%r12)
	movq	%rdx, 16(%r12)
	movb	$100, 16(%rax)
	movups	%xmm0, (%rax)
	movq	(%rsp), %rax
	movq	(%r12), %rdx
	movq	%rax, 8(%r12)
	movb	$0, (%rdx,%rax)
	jmp	.L476
.L488:
	call	__stack_chk_fail@PLT
	.cfi_endproc
.LFE2448:
	.size	_ZNK4asio5error6detail13misc_category7messageB5cxx11Ei, .-_ZNK4asio5error6detail13misc_category7messageB5cxx11Ei
	.text
	.align 2
	.p2align 4
	.globl	_ZN7asiopal13SerialChannel12ShutdownImplEv
	.type	_ZN7asiopal13SerialChannel12ShutdownImplEv, @function
_ZN7asiopal13SerialChannel12ShutdownImplEv:
.LFB7064:
	.cfi_startproc
	endbr64
	pushq	%r15
	.cfi_def_cfa_offset 16
	.cfi_offset 15, -16
	movq	%rdi, %r15
	pushq	%r14
	.cfi_def_cfa_offset 24
	.cfi_offset 14, -24
	pushq	%r13
	.cfi_def_cfa_offset 32
	.cfi_offset 13, -32
	pushq	%r12
	.cfi_def_cfa_offset 40
	.cfi_offset 12, -40
	pushq	%rbp
	.cfi_def_cfa_offset 48
	.cfi_offset 6, -48
	pushq	%rbx
	.cfi_def_cfa_offset 56
	.cfi_offset 3, -56
	subq	$72, %rsp
	.cfi_def_cfa_offset 128
	movl	64(%rdi), %r12d
	movq	%fs:40, %rax
	movq	%rax, 56(%rsp)
	movq	80(%rdi), %rax
	cmpl	$-1, %r12d
	jne	.L587
.L491:
	movl	$-1, 64(%r15)
	movb	$0, 68(%r15)
	movq	56(%rsp), %rax
	subq	%fs:40, %rax
	jne	.L588
	addq	$72, %rsp
	.cfi_remember_state
	.cfi_def_cfa_offset 56
	popq	%rbx
	.cfi_def_cfa_offset 48
	popq	%rbp
	.cfi_def_cfa_offset 40
	popq	%r12
	.cfi_def_cfa_offset 32
	popq	%r13
	.cfi_def_cfa_offset 24
	popq	%r14
	.cfi_def_cfa_offset 16
	popq	%r15
	.cfi_def_cfa_offset 8
	ret
	.p2align 4,,10
	.p2align 3
.L587:
	.cfi_restore_state
	movq	40(%rax), %rax
	movq	72(%rdi), %rbp
	movzbl	68(%rdi), %ebx
	movq	%rax, 16(%rsp)
	testq	%rbp, %rbp
	je	.L492
	leaq	40(%rbp), %rax
	movq	%rax, %rdi
	movq	%rax, 24(%rsp)
	call	pthread_mutex_lock@PLT
	movq	72(%r15), %rdi
	cmpb	$0, 144(%rdi)
	jne	.L493
	andl	$4, %ebx
	jne	.L589
.L494:
	movq	$0, 8(%rsp)
	xorl	%ebp, %ebp
	movl	$0, 4(%rsp)
.L495:
	movslq	4(%rsp), %r12
	movq	%r12, %rax
	salq	$4, %rax
	movq	96(%rax,%rdi), %rbx
	testq	%rbx, %rbx
	je	.L535
	movq	_ZGVZN4asio15system_categoryEvE8instance@GOTPCREL(%rip), %r14
	movq	_ZZN4asio15system_categoryEvE8instance@GOTPCREL(%rip), %r13
	movzbl	(%r14), %eax
	testb	%al, %al
	je	.L590
	.p2align 4,,10
	.p2align 3
.L497:
	movq	72(%r15), %rdi
	movq	%r12, %rax
	movl	$125, 24(%rbx)
	salq	$4, %rax
	movq	%r13, 32(%rbx)
	addq	%rdi, %rax
	movq	96(%rax), %rdx
	testq	%rdx, %rdx
	je	.L499
	movq	(%rdx), %r11
	movq	%r11, 96(%rax)
	testq	%r11, %r11
	je	.L591
	movq	$0, (%rdx)
	movq	$0, (%rbx)
	testq	%rbp, %rbp
	je	.L592
.L532:
	movq	%rbx, 0(%rbp)
	testq	%r11, %r11
	je	.L501
.L502:
	movzbl	(%r14), %eax
	movq	%rbx, %rbp
	movq	%r11, %rbx
	testb	%al, %al
	jne	.L497
.L590:
	movq	%r14, %rdi
	call	__cxa_guard_acquire@PLT
	testl	%eax, %eax
	je	.L497
	movq	_ZN4asio6detail15system_categoryD1Ev@GOTPCREL(%rip), %rdi
	leaq	__dso_handle(%rip), %rdx
	movq	%r13, %rsi
	call	__cxa_atexit@PLT
	movq	%r14, %rdi
	call	__cxa_guard_release@PLT
	jmp	.L497
	.p2align 4,,10
	.p2align 3
.L493:
	movq	24(%rsp), %rdi
	call	pthread_mutex_unlock@PLT
.L515:
	movl	64(%r15), %r12d
	cmpl	$-1, %r12d
	je	.L491
.L492:
	call	__errno_location@PLT
	movl	%r12d, %edi
	movl	$0, (%rax)
	movq	%rax, %rbx
	call	close@PLT
	movq	_ZGVZN4asio15system_categoryEvE8instance@GOTPCREL(%rip), %r14
	movl	%eax, %ebp
	movzbl	(%r14), %eax
	testb	%al, %al
	je	.L593
.L523:
	movl	(%rbx), %r13d
	testl	%ebp, %ebp
	je	.L491
	movzbl	(%r14), %eax
	testb	%al, %al
	je	.L594
.L526:
	cmpl	$11, %r13d
	je	.L528
.L586:
	movzbl	(%r14), %eax
	testb	%al, %al
	jne	.L491
	movq	%r14, %rdi
	call	__cxa_guard_acquire@PLT
	testl	%eax, %eax
	je	.L491
	movq	_ZZN4asio15system_categoryEvE8instance@GOTPCREL(%rip), %rsi
	movq	_ZN4asio6detail15system_categoryD1Ev@GOTPCREL(%rip), %rdi
	leaq	__dso_handle(%rip), %rdx
	call	__cxa_atexit@PLT
	movq	%r14, %rdi
	call	__cxa_guard_release@PLT
	jmp	.L491
	.p2align 4,,10
	.p2align 3
.L499:
	movq	$0, (%rbx)
	testq	%rbp, %rbp
	je	.L536
	movq	%rbx, 0(%rbp)
.L501:
	addl	$1, 4(%rsp)
	movl	4(%rsp), %eax
	cmpl	$3, %eax
	je	.L503
.L595:
	movq	%rbx, %rbp
	jmp	.L495
	.p2align 4,,10
	.p2align 3
.L591:
	movq	$0, 104(%rax)
	movq	$0, (%rdx)
	movq	$0, (%rbx)
	testq	%rbp, %rbp
	jne	.L532
	.p2align 4,,10
	.p2align 3
.L536:
	addl	$1, 4(%rsp)
	movl	4(%rsp), %eax
	movq	%rbx, 8(%rsp)
	cmpl	$3, %eax
	jne	.L595
.L503:
	movl	$-1, 88(%rdi)
	movb	$1, 144(%rdi)
	movq	24(%rsp), %rdi
	call	pthread_mutex_unlock@PLT
	movq	16(%rsp), %r14
	movq	72(%r15), %rbp
	leaq	120(%r14), %r12
	movq	%r12, %rdi
	call	pthread_mutex_lock@PLT
	cmpq	160(%r14), %rbp
	je	.L596
.L505:
	movq	32(%rbp), %rax
	testq	%rax, %rax
	je	.L506
	movq	24(%rbp), %rdx
	movq	%rdx, 24(%rax)
.L506:
	movq	24(%rbp), %rax
	testq	%rax, %rax
	je	.L507
	movq	32(%rbp), %rdx
	movq	%rdx, 32(%rax)
.L507:
	movq	16(%rsp), %r14
	movq	%r12, %rdi
	movq	168(%r14), %rax
	movq	$0, 32(%rbp)
	movq	%rax, 24(%rbp)
	movq	%rbp, 168(%r14)
	call	pthread_mutex_unlock@PLT
	cmpq	$0, 8(%rsp)
	movq	$0, 72(%r15)
	je	.L515
	movq	40(%r14), %rbp
	cmpb	$0, 40(%rbp)
	je	.L509
	data16	leaq	_ZN4asio6detail15keyword_tss_ptrINS0_10call_stackINS0_15task_io_serviceENS0_27task_io_service_thread_infoEE7contextEE6value_E@tlsgd(%rip), %rdi
	.value	0x6666
	rex64
	call	__tls_get_addr@PLT
	movq	(%rax), %rax
	testq	%rax, %rax
	jne	.L512
	jmp	.L509
	.p2align 4,,10
	.p2align 3
.L510:
	movq	16(%rax), %rax
	testq	%rax, %rax
	je	.L509
.L512:
	cmpq	(%rax), %rbp
	jne	.L510
	movq	8(%rax), %rax
	testq	%rax, %rax
	je	.L509
	movq	16(%rax), %rdx
	movq	8(%rsp), %rcx
	testq	%rdx, %rdx
	je	.L513
	movq	%rcx, (%rdx)
.L514:
	movq	%rbx, 16(%rax)
	jmp	.L515
	.p2align 4,,10
	.p2align 3
.L592:
	movq	%rbx, 8(%rsp)
	jmp	.L502
	.p2align 4,,10
	.p2align 3
.L593:
	movq	%r14, %rdi
	call	__cxa_guard_acquire@PLT
	testl	%eax, %eax
	je	.L523
	movq	_ZZN4asio15system_categoryEvE8instance@GOTPCREL(%rip), %rsi
	movq	_ZN4asio6detail15system_categoryD1Ev@GOTPCREL(%rip), %rdi
	leaq	__dso_handle(%rip), %rdx
	call	__cxa_atexit@PLT
	movq	%r14, %rdi
	call	__cxa_guard_release@PLT
	jmp	.L523
	.p2align 4,,10
	.p2align 3
.L509:
	leaq	48(%rbp), %r12
	movq	%r12, %rdi
	call	pthread_mutex_lock@PLT
	movq	200(%rbp), %rax
	testq	%rax, %rax
	je	.L516
	movq	8(%rsp), %rcx
	movq	%rcx, (%rax)
.L517:
	movq	136(%rbp), %rax
	movq	%rbx, 200(%rbp)
	orq	$1, %rax
	movq	%rax, 136(%rbp)
	cmpq	$1, %rax
	je	.L518
	movq	%r12, %rdi
	call	pthread_mutex_unlock@PLT
	leaq	88(%rbp), %rdi
	call	pthread_cond_signal@PLT
	jmp	.L515
.L518:
	cmpb	$0, 176(%rbp)
	jne	.L520
	movq	144(%rbp), %rax
	testq	%rax, %rax
	je	.L520
	movb	$1, 176(%rbp)
	leaq	88(%rax), %rdx
	leaq	44(%rsp), %rcx
	movl	$3, %esi
	movq	%rdx, 48(%rsp)
	movl	88(%rax), %edx
	movl	$-2147483639, 44(%rsp)
	movl	96(%rax), %edi
	call	epoll_ctl@PLT
.L520:
	movq	%r12, %rdi
	call	pthread_mutex_unlock@PLT
	jmp	.L515
	.p2align 4,,10
	.p2align 3
.L535:
	movq	%rbp, %rbx
	jmp	.L501
	.p2align 4,,10
	.p2align 3
.L589:
	movq	16(%rsp), %rax
	movl	$0, 44(%rsp)
	leaq	44(%rsp), %rcx
	movl	%r12d, %edx
	movq	$0, 48(%rsp)
	movl	$2, %esi
	movl	96(%rax), %edi
	call	epoll_ctl@PLT
	movq	72(%r15), %rdi
	jmp	.L494
	.p2align 4,,10
	.p2align 3
.L594:
	movq	%r14, %rdi
	call	__cxa_guard_acquire@PLT
	testl	%eax, %eax
	je	.L526
	movq	_ZZN4asio15system_categoryEvE8instance@GOTPCREL(%rip), %rsi
	movq	_ZN4asio6detail15system_categoryD1Ev@GOTPCREL(%rip), %rdi
	leaq	__dso_handle(%rip), %rdx
	call	__cxa_atexit@PLT
	movq	%r14, %rdi
	call	__cxa_guard_release@PLT
	jmp	.L526
	.p2align 4,,10
	.p2align 3
.L596:
	movq	24(%rbp), %rax
	movq	16(%rsp), %rcx
	movq	%rax, 160(%rcx)
	jmp	.L505
	.p2align 4,,10
	.p2align 3
.L528:
	movl	%r12d, %edi
	leaq	44(%rsp), %rdx
	movl	$21537, %esi
	xorl	%eax, %eax
	movl	$0, 44(%rsp)
	call	ioctl@PLT
	andb	$-4, 68(%r15)
	movl	%r12d, %edi
	movl	$0, (%rbx)
	call	close@PLT
	jmp	.L586
.L516:
	movq	8(%rsp), %rax
	movq	%rax, 192(%rbp)
	jmp	.L517
.L513:
	movq	%rcx, 8(%rax)
	jmp	.L514
.L588:
	call	__stack_chk_fail@PLT
	.cfi_endproc
.LFE7064:
	.size	_ZN7asiopal13SerialChannel12ShutdownImplEv, .-_ZN7asiopal13SerialChannel12ShutdownImplEv
	.section	.text._ZN7asiopal13SerialChannelD2Ev,"axG",@progbits,_ZN7asiopal13SerialChannelD5Ev,comdat
	.align 2
	.p2align 4
	.weak	_ZN7asiopal13SerialChannelD2Ev
	.type	_ZN7asiopal13SerialChannelD2Ev, @function
_ZN7asiopal13SerialChannelD2Ev:
.LFB9443:
	.cfi_startproc
	.cfi_personality 0x9b,DW.ref.__gxx_personality_v0
	.cfi_lsda 0x1b,.LLSDA9443
	endbr64
	pushq	%r15
	.cfi_def_cfa_offset 16
	.cfi_offset 15, -16
	movq	%rdi, %r15
	pushq	%r14
	.cfi_def_cfa_offset 24
	.cfi_offset 14, -24
	pushq	%r13
	.cfi_def_cfa_offset 32
	.cfi_offset 13, -32
	pushq	%r12
	.cfi_def_cfa_offset 40
	.cfi_offset 12, -40
	pushq	%rbp
	.cfi_def_cfa_offset 48
	.cfi_offset 6, -48
	pushq	%rbx
	.cfi_def_cfa_offset 56
	.cfi_offset 3, -56
	subq	$72, %rsp
	.cfi_def_cfa_offset 128
	movl	64(%rdi), %r12d
	movq	%fs:40, %rax
	movq	%rax, 56(%rsp)
	movq	_ZTVN7asiopal13SerialChannelE@GOTPCREL(%rip), %rax
	addq	$16, %rax
	movq	%rax, (%rdi)
	cmpl	$-1, %r12d
	jne	.L716
.L629:
	movq	_ZTVN7asiopal13IAsyncChannelE@GOTPCREL(%rip), %rax
	movq	48(%r15), %rbp
	addq	$16, %rax
	movq	%rax, (%r15)
	testq	%rbp, %rbp
	je	.L641
	movq	__libc_single_threaded@GOTPCREL(%rip), %rbx
	cmpb	$0, (%rbx)
	je	.L642
	movl	8(%rbp), %eax
	leal	-1(%rax), %edx
	movl	%edx, 8(%rbp)
.L643:
	cmpl	$1, %eax
	je	.L717
.L641:
	movq	32(%r15), %rbp
	testq	%rbp, %rbp
	je	.L648
	movq	__libc_single_threaded@GOTPCREL(%rip), %rbx
	cmpb	$0, (%rbx)
	je	.L649
	movl	8(%rbp), %eax
	leal	-1(%rax), %edx
	movl	%edx, 8(%rbp)
.L650:
	cmpl	$1, %eax
	je	.L718
.L648:
	movq	16(%r15), %rdi
	testq	%rdi, %rdi
	je	.L597
	movq	__libc_single_threaded@GOTPCREL(%rip), %rax
	cmpb	$0, (%rax)
	je	.L656
	movl	12(%rdi), %eax
	leal	-1(%rax), %edx
	movl	%edx, 12(%rdi)
.L657:
	cmpl	$1, %eax
	je	.L719
.L597:
	movq	56(%rsp), %rax
	subq	%fs:40, %rax
	jne	.L711
	addq	$72, %rsp
	.cfi_remember_state
	.cfi_def_cfa_offset 56
	popq	%rbx
	.cfi_def_cfa_offset 48
	popq	%rbp
	.cfi_def_cfa_offset 40
	popq	%r12
	.cfi_def_cfa_offset 32
	popq	%r13
	.cfi_def_cfa_offset 24
	popq	%r14
	.cfi_def_cfa_offset 16
	popq	%r15
	.cfi_def_cfa_offset 8
	ret
	.p2align 4,,10
	.p2align 3
.L716:
	.cfi_restore_state
	movq	72(%rdi), %rbp
	testq	%rbp, %rbp
	je	.L628
	movq	80(%rdi), %rax
	movzbl	68(%rdi), %ebx
	movq	40(%rax), %rax
	movq	%rax, 16(%rsp)
	leaq	40(%rbp), %rax
	movq	%rax, %rdi
	movq	%rax, 24(%rsp)
	call	pthread_mutex_lock@PLT
	movq	72(%r15), %rdi
	cmpb	$0, 144(%rdi)
	jne	.L600
	andl	$4, %ebx
	jne	.L720
.L601:
	movq	$0, 8(%rsp)
	xorl	%ebp, %ebp
	movl	$0, 4(%rsp)
.L602:
	movslq	4(%rsp), %r12
	movq	%r12, %rax
	salq	$4, %rax
	movq	96(%rax,%rdi), %rbx
	testq	%rbx, %rbx
	je	.L663
	movq	_ZGVZN4asio15system_categoryEvE8instance@GOTPCREL(%rip), %r14
	movq	_ZZN4asio15system_categoryEvE8instance@GOTPCREL(%rip), %r13
	movzbl	(%r14), %eax
	testb	%al, %al
	je	.L721
	.p2align 4,,10
	.p2align 3
.L604:
	movq	72(%r15), %rdi
	movq	%r12, %rax
	movl	$125, 24(%rbx)
	salq	$4, %rax
	movq	%r13, 32(%rbx)
	addq	%rdi, %rax
	movq	96(%rax), %rdx
	testq	%rdx, %rdx
	je	.L606
	movq	(%rdx), %r11
	movq	%r11, 96(%rax)
	testq	%r11, %r11
	je	.L722
	movq	$0, (%rdx)
	movq	$0, (%rbx)
	testq	%rbp, %rbp
	je	.L723
.L660:
	movq	%rbx, 0(%rbp)
	testq	%r11, %r11
	je	.L608
.L609:
	movzbl	(%r14), %eax
	movq	%rbx, %rbp
	movq	%r11, %rbx
	testb	%al, %al
	jne	.L604
.L721:
	movq	%r14, %rdi
	call	__cxa_guard_acquire@PLT
	testl	%eax, %eax
	je	.L604
	movq	_ZN4asio6detail15system_categoryD1Ev@GOTPCREL(%rip), %rdi
	leaq	__dso_handle(%rip), %rdx
	movq	%r13, %rsi
	call	__cxa_atexit@PLT
	movq	%r14, %rdi
	call	__cxa_guard_release@PLT
	jmp	.L604
	.p2align 4,,10
	.p2align 3
.L600:
	movq	24(%rsp), %rdi
	call	pthread_mutex_unlock@PLT
.L709:
	movl	64(%r15), %r12d
	cmpl	$-1, %r12d
	je	.L629
.L628:
	call	__errno_location@PLT
	movl	%r12d, %edi
	movl	$0, (%rax)
	movq	%rax, %rbx
	call	close@PLT
	movq	_ZGVZN4asio15system_categoryEvE8instance@GOTPCREL(%rip), %r14
	movl	%eax, %ebp
	movzbl	(%r14), %eax
	testb	%al, %al
	je	.L724
.L631:
	movl	(%rbx), %r13d
	testl	%ebp, %ebp
	je	.L629
	movzbl	(%r14), %eax
	testb	%al, %al
	je	.L725
.L634:
	cmpl	$11, %r13d
	je	.L636
.L715:
	movzbl	(%r14), %eax
	testb	%al, %al
	jne	.L629
	movq	%r14, %rdi
	call	__cxa_guard_acquire@PLT
	testl	%eax, %eax
	je	.L629
	movq	_ZZN4asio15system_categoryEvE8instance@GOTPCREL(%rip), %rsi
	movq	_ZN4asio6detail15system_categoryD1Ev@GOTPCREL(%rip), %rdi
	leaq	__dso_handle(%rip), %rdx
	call	__cxa_atexit@PLT
	movq	%r14, %rdi
	call	__cxa_guard_release@PLT
	jmp	.L629
	.p2align 4,,10
	.p2align 3
.L717:
	movq	0(%rbp), %rax
	movq	%rbp, %rdi
	call	*16(%rax)
	cmpb	$0, (%rbx)
	je	.L645
	movl	12(%rbp), %eax
	leal	-1(%rax), %edx
	movl	%edx, 12(%rbp)
.L646:
	cmpl	$1, %eax
	jne	.L641
	movq	0(%rbp), %rax
	movq	%rbp, %rdi
	call	*24(%rax)
	jmp	.L641
	.p2align 4,,10
	.p2align 3
.L718:
	movq	0(%rbp), %rax
	movq	%rbp, %rdi
	call	*16(%rax)
	cmpb	$0, (%rbx)
	je	.L652
	movl	12(%rbp), %eax
	leal	-1(%rax), %edx
	movl	%edx, 12(%rbp)
.L653:
	cmpl	$1, %eax
	jne	.L648
	movq	0(%rbp), %rax
	movq	%rbp, %rdi
	call	*24(%rax)
	jmp	.L648
	.p2align 4,,10
	.p2align 3
.L719:
	movq	56(%rsp), %rax
	subq	%fs:40, %rax
	jne	.L711
	movq	(%rdi), %rax
	movq	24(%rax), %rax
	addq	$72, %rsp
	.cfi_remember_state
	.cfi_def_cfa_offset 56
	popq	%rbx
	.cfi_def_cfa_offset 48
	popq	%rbp
	.cfi_def_cfa_offset 40
	popq	%r12
	.cfi_def_cfa_offset 32
	popq	%r13
	.cfi_def_cfa_offset 24
	popq	%r14
	.cfi_def_cfa_offset 16
	popq	%r15
	.cfi_def_cfa_offset 8
	jmp	*%rax
	.p2align 4,,10
	.p2align 3
.L656:
	.cfi_restore_state
	movl	$-1, %eax
	lock xaddl	%eax, 12(%rdi)
	jmp	.L657
	.p2align 4,,10
	.p2align 3
.L642:
	movl	$-1, %eax
	lock xaddl	%eax, 8(%rbp)
	jmp	.L643
	.p2align 4,,10
	.p2align 3
.L649:
	movl	$-1, %eax
	lock xaddl	%eax, 8(%rbp)
	jmp	.L650
	.p2align 4,,10
	.p2align 3
.L606:
	movq	$0, (%rbx)
	testq	%rbp, %rbp
	je	.L664
	movq	%rbx, 0(%rbp)
.L608:
	addl	$1, 4(%rsp)
	movl	4(%rsp), %eax
	cmpl	$3, %eax
	je	.L610
.L726:
	movq	%rbx, %rbp
	jmp	.L602
	.p2align 4,,10
	.p2align 3
.L722:
	movq	$0, 104(%rax)
	movq	$0, (%rdx)
	movq	$0, (%rbx)
	testq	%rbp, %rbp
	jne	.L660
	.p2align 4,,10
	.p2align 3
.L664:
	addl	$1, 4(%rsp)
	movl	4(%rsp), %eax
	movq	%rbx, 8(%rsp)
	cmpl	$3, %eax
	jne	.L726
.L610:
	movl	$-1, 88(%rdi)
	movb	$1, 144(%rdi)
	movq	24(%rsp), %rdi
	call	pthread_mutex_unlock@PLT
	movq	16(%rsp), %r14
	movq	72(%r15), %rbp
	leaq	120(%r14), %r12
	movq	%r12, %rdi
	call	pthread_mutex_lock@PLT
	cmpq	160(%r14), %rbp
	je	.L727
.L612:
	movq	32(%rbp), %rax
	testq	%rax, %rax
	je	.L613
	movq	24(%rbp), %rdx
	movq	%rdx, 24(%rax)
.L613:
	movq	24(%rbp), %rax
	testq	%rax, %rax
	je	.L614
	movq	32(%rbp), %rdx
	movq	%rdx, 32(%rax)
.L614:
	movq	16(%rsp), %r14
	movq	%r12, %rdi
	movq	168(%r14), %rax
	movq	$0, 32(%rbp)
	movq	%rax, 24(%rbp)
	movq	%rbp, 168(%r14)
	call	pthread_mutex_unlock@PLT
	cmpq	$0, 8(%rsp)
	movq	$0, 72(%r15)
	je	.L709
	movq	40(%r14), %rbp
	cmpb	$0, 40(%rbp)
	je	.L616
	data16	leaq	_ZN4asio6detail15keyword_tss_ptrINS0_10call_stackINS0_15task_io_serviceENS0_27task_io_service_thread_infoEE7contextEE6value_E@tlsgd(%rip), %rdi
	.value	0x6666
	rex64
	call	__tls_get_addr@PLT
	movq	(%rax), %rax
	testq	%rax, %rax
	jne	.L619
	jmp	.L616
	.p2align 4,,10
	.p2align 3
.L617:
	movq	16(%rax), %rax
	testq	%rax, %rax
	je	.L616
.L619:
	cmpq	(%rax), %rbp
	jne	.L617
	movq	8(%rax), %rax
	testq	%rax, %rax
	je	.L616
	movq	16(%rax), %rdx
	movq	8(%rsp), %rcx
	testq	%rdx, %rdx
	je	.L620
	movq	%rcx, (%rdx)
.L621:
	movq	%rbx, 16(%rax)
	jmp	.L709
	.p2align 4,,10
	.p2align 3
.L723:
	movq	%rbx, 8(%rsp)
	jmp	.L609
	.p2align 4,,10
	.p2align 3
.L724:
	movq	%r14, %rdi
	call	__cxa_guard_acquire@PLT
	testl	%eax, %eax
	je	.L631
	movq	_ZZN4asio15system_categoryEvE8instance@GOTPCREL(%rip), %rsi
	movq	_ZN4asio6detail15system_categoryD1Ev@GOTPCREL(%rip), %rdi
	leaq	__dso_handle(%rip), %rdx
	call	__cxa_atexit@PLT
	movq	%r14, %rdi
	call	__cxa_guard_release@PLT
	jmp	.L631
	.p2align 4,,10
	.p2align 3
.L616:
	leaq	48(%rbp), %r12
	movq	%r12, %rdi
	call	pthread_mutex_lock@PLT
	movq	200(%rbp), %rax
	testq	%rax, %rax
	je	.L623
	movq	8(%rsp), %rcx
	movq	%rcx, (%rax)
.L624:
	movq	136(%rbp), %rax
	movq	%rbx, 200(%rbp)
	orq	$1, %rax
	movq	%rax, 136(%rbp)
	cmpq	$1, %rax
	je	.L625
	movq	%r12, %rdi
	call	pthread_mutex_unlock@PLT
	leaq	88(%rbp), %rdi
	call	pthread_cond_signal@PLT
	jmp	.L709
.L625:
	cmpb	$0, 176(%rbp)
	jne	.L627
	movq	144(%rbp), %rax
	testq	%rax, %rax
	je	.L627
	movb	$1, 176(%rbp)
	leaq	88(%rax), %rdx
	leaq	44(%rsp), %rcx
	movl	$3, %esi
	movq	%rdx, 48(%rsp)
	movl	88(%rax), %edx
	movl	$-2147483639, 44(%rsp)
	movl	96(%rax), %edi
	call	epoll_ctl@PLT
.L627:
	movq	%r12, %rdi
	call	pthread_mutex_unlock@PLT
	jmp	.L709
	.p2align 4,,10
	.p2align 3
.L645:
	movl	$-1, %eax
	lock xaddl	%eax, 12(%rbp)
	jmp	.L646
	.p2align 4,,10
	.p2align 3
.L652:
	movl	$-1, %eax
	lock xaddl	%eax, 12(%rbp)
	jmp	.L653
	.p2align 4,,10
	.p2align 3
.L663:
	movq	%rbp, %rbx
	jmp	.L608
	.p2align 4,,10
	.p2align 3
.L720:
	movq	16(%rsp), %rax
	movl	$0, 44(%rsp)
	leaq	44(%rsp), %rcx
	movl	%r12d, %edx
	movq	$0, 48(%rsp)
	movl	$2, %esi
	movl	96(%rax), %edi
	call	epoll_ctl@PLT
	movq	72(%r15), %rdi
	jmp	.L601
	.p2align 4,,10
	.p2align 3
.L725:
	movq	%r14, %rdi
	call	__cxa_guard_acquire@PLT
	testl	%eax, %eax
	je	.L634
	movq	_ZZN4asio15system_categoryEvE8instance@GOTPCREL(%rip), %rsi
	movq	_ZN4asio6detail15system_categoryD1Ev@GOTPCREL(%rip), %rdi
	leaq	__dso_handle(%rip), %rdx
	call	__cxa_atexit@PLT
	movq	%r14, %rdi
	call	__cxa_guard_release@PLT
	jmp	.L634
	.p2align 4,,10
	.p2align 3
.L727:
	movq	24(%rbp), %rax
	movq	16(%rsp), %rcx
	movq	%rax, 160(%rcx)
	jmp	.L612
	.p2align 4,,10
	.p2align 3
.L636:
	movl	%r12d, %edi
	leaq	44(%rsp), %rdx
	movl	$21537, %esi
	xorl	%eax, %eax
	movl	$0, 44(%rsp)
	call	ioctl@PLT
	andb	$-4, 68(%r15)
	movl	%r12d, %edi
	movl	$0, (%rbx)
	call	close@PLT
	jmp	.L715
.L623:
	movq	8(%rsp), %rax
	movq	%rax, 192(%rbp)
	jmp	.L624
.L620:
	movq	%rcx, 8(%rax)
	jmp	.L621
.L711:
	call	__stack_chk_fail@PLT
	.cfi_endproc
.LFE9443:
	.section	.gcc_except_table
.LLSDA9443:
	.byte	0xff
	.byte	0xff
	.byte	0x1
	.uleb128 .LLSDACSE9443-.LLSDACSB9443
.LLSDACSB9443:
.LLSDACSE9443:
	.section	.text._ZN7asiopal13SerialChannelD2Ev,"axG",@progbits,_ZN7asiopal13SerialChannelD5Ev,comdat
	.size	_ZN7asiopal13SerialChannelD2Ev, .-_ZN7asiopal13SerialChannelD2Ev
	.weak	_ZN7asiopal13SerialChannelD1Ev
	.set	_ZN7asiopal13SerialChannelD1Ev,_ZN7asiopal13SerialChannelD2Ev
	.section	.text._ZN7asiopal13SerialChannelD0Ev,"axG",@progbits,_ZN7asiopal13SerialChannelD5Ev,comdat
	.align 2
	.p2align 4
	.weak	_ZN7asiopal13SerialChannelD0Ev
	.type	_ZN7asiopal13SerialChannelD0Ev, @function
_ZN7asiopal13SerialChannelD0Ev:
.LFB9445:
	.cfi_startproc
	.cfi_personality 0x9b,DW.ref.__gxx_personality_v0
	.cfi_lsda 0x1b,.LLSDA9445
	endbr64
	pushq	%r15
	.cfi_def_cfa_offset 16
	.cfi_offset 15, -16
	movq	%rdi, %r15
	pushq	%r14
	.cfi_def_cfa_offset 24
	.cfi_offset 14, -24
	pushq	%r13
	.cfi_def_cfa_offset 32
	.cfi_offset 13, -32
	pushq	%r12
	.cfi_def_cfa_offset 40
	.cfi_offset 12, -40
	pushq	%rbp
	.cfi_def_cfa_offset 48
	.cfi_offset 6, -48
	pushq	%rbx
	.cfi_def_cfa_offset 56
	.cfi_offset 3, -56
	subq	$72, %rsp
	.cfi_def_cfa_offset 128
	movl	64(%rdi), %r12d
	movq	%fs:40, %rax
	movq	%rax, 56(%rsp)
	movq	_ZTVN7asiopal13SerialChannelE@GOTPCREL(%rip), %rax
	addq	$16, %rax
	movq	%rax, (%rdi)
	cmpl	$-1, %r12d
	jne	.L846
.L760:
	movq	_ZTVN7asiopal13IAsyncChannelE@GOTPCREL(%rip), %rax
	movq	48(%r15), %rbp
	addq	$16, %rax
	movq	%rax, (%r15)
	testq	%rbp, %rbp
	je	.L772
	movq	__libc_single_threaded@GOTPCREL(%rip), %rbx
	cmpb	$0, (%rbx)
	je	.L773
	movl	8(%rbp), %eax
	leal	-1(%rax), %edx
	movl	%edx, 8(%rbp)
.L774:
	cmpl	$1, %eax
	je	.L847
.L772:
	movq	32(%r15), %rbp
	testq	%rbp, %rbp
	je	.L779
	movq	__libc_single_threaded@GOTPCREL(%rip), %rbx
	cmpb	$0, (%rbx)
	je	.L780
	movl	8(%rbp), %eax
	leal	-1(%rax), %edx
	movl	%edx, 8(%rbp)
.L781:
	cmpl	$1, %eax
	je	.L848
.L779:
	movq	16(%r15), %rdi
	testq	%rdi, %rdi
	je	.L786
	movq	__libc_single_threaded@GOTPCREL(%rip), %rax
	cmpb	$0, (%rax)
	je	.L787
	movl	12(%rdi), %eax
	leal	-1(%rax), %edx
	movl	%edx, 12(%rdi)
.L788:
	cmpl	$1, %eax
	je	.L849
.L786:
	movq	56(%rsp), %rax
	subq	%fs:40, %rax
	jne	.L850
	addq	$72, %rsp
	.cfi_remember_state
	.cfi_def_cfa_offset 56
	movq	%r15, %rdi
	movl	$88, %esi
	popq	%rbx
	.cfi_def_cfa_offset 48
	popq	%rbp
	.cfi_def_cfa_offset 40
	popq	%r12
	.cfi_def_cfa_offset 32
	popq	%r13
	.cfi_def_cfa_offset 24
	popq	%r14
	.cfi_def_cfa_offset 16
	popq	%r15
	.cfi_def_cfa_offset 8
	jmp	_ZdlPvm@PLT
	.p2align 4,,10
	.p2align 3
.L846:
	.cfi_restore_state
	movq	72(%rdi), %rbp
	testq	%rbp, %rbp
	je	.L759
	movq	80(%rdi), %rax
	movzbl	68(%rdi), %ebx
	movq	40(%rax), %rax
	movq	%rax, 16(%rsp)
	leaq	40(%rbp), %rax
	movq	%rax, %rdi
	movq	%rax, 24(%rsp)
	call	pthread_mutex_lock@PLT
	movq	72(%r15), %rdi
	cmpb	$0, 144(%rdi)
	jne	.L731
	andl	$4, %ebx
	jne	.L851
.L732:
	movq	$0, 8(%rsp)
	xorl	%ebp, %ebp
	movl	$0, 4(%rsp)
.L733:
	movslq	4(%rsp), %r12
	movq	%r12, %rax
	salq	$4, %rax
	movq	96(%rax,%rdi), %rbx
	testq	%rbx, %rbx
	je	.L794
	movq	_ZGVZN4asio15system_categoryEvE8instance@GOTPCREL(%rip), %r14
	movq	_ZZN4asio15system_categoryEvE8instance@GOTPCREL(%rip), %r13
	movzbl	(%r14), %eax
	testb	%al, %al
	je	.L852
	.p2align 4,,10
	.p2align 3
.L735:
	movq	72(%r15), %rdi
	movq	%r12, %rax
	movl	$125, 24(%rbx)
	salq	$4, %rax
	movq	%r13, 32(%rbx)
	addq	%rdi, %rax
	movq	96(%rax), %rdx
	testq	%rdx, %rdx
	je	.L737
	movq	(%rdx), %r11
	movq	%r11, 96(%rax)
	testq	%r11, %r11
	je	.L853
	movq	$0, (%rdx)
	movq	$0, (%rbx)
	testq	%rbp, %rbp
	je	.L854
.L791:
	movq	%rbx, 0(%rbp)
	testq	%r11, %r11
	je	.L739
.L740:
	movzbl	(%r14), %eax
	movq	%rbx, %rbp
	movq	%r11, %rbx
	testb	%al, %al
	jne	.L735
.L852:
	movq	%r14, %rdi
	call	__cxa_guard_acquire@PLT
	testl	%eax, %eax
	je	.L735
	movq	_ZN4asio6detail15system_categoryD1Ev@GOTPCREL(%rip), %rdi
	leaq	__dso_handle(%rip), %rdx
	movq	%r13, %rsi
	call	__cxa_atexit@PLT
	movq	%r14, %rdi
	call	__cxa_guard_release@PLT
	jmp	.L735
	.p2align 4,,10
	.p2align 3
.L731:
	movq	24(%rsp), %rdi
	call	pthread_mutex_unlock@PLT
.L840:
	movl	64(%r15), %r12d
	cmpl	$-1, %r12d
	je	.L760
.L759:
	call	__errno_location@PLT
	movl	%r12d, %edi
	movl	$0, (%rax)
	movq	%rax, %rbx
	call	close@PLT
	movq	_ZGVZN4asio15system_categoryEvE8instance@GOTPCREL(%rip), %r14
	movl	%eax, %ebp
	movzbl	(%r14), %eax
	testb	%al, %al
	je	.L855
.L762:
	movl	(%rbx), %r13d
	testl	%ebp, %ebp
	je	.L760
	movzbl	(%r14), %eax
	testb	%al, %al
	je	.L856
.L765:
	cmpl	$11, %r13d
	je	.L767
.L845:
	movzbl	(%r14), %eax
	testb	%al, %al
	jne	.L760
	movq	%r14, %rdi
	call	__cxa_guard_acquire@PLT
	testl	%eax, %eax
	je	.L760
	movq	_ZZN4asio15system_categoryEvE8instance@GOTPCREL(%rip), %rsi
	movq	_ZN4asio6detail15system_categoryD1Ev@GOTPCREL(%rip), %rdi
	leaq	__dso_handle(%rip), %rdx
	call	__cxa_atexit@PLT
	movq	%r14, %rdi
	call	__cxa_guard_release@PLT
	jmp	.L760
	.p2align 4,,10
	.p2align 3
.L847:
	movq	0(%rbp), %rax
	movq	%rbp, %rdi
	call	*16(%rax)
	cmpb	$0, (%rbx)
	je	.L776
	movl	12(%rbp), %eax
	leal	-1(%rax), %edx
	movl	%edx, 12(%rbp)
.L777:
	cmpl	$1, %eax
	jne	.L772
	movq	0(%rbp), %rax
	movq	%rbp, %rdi
	call	*24(%rax)
	jmp	.L772
	.p2align 4,,10
	.p2align 3
.L848:
	movq	0(%rbp), %rax
	movq	%rbp, %rdi
	call	*16(%rax)
	cmpb	$0, (%rbx)
	je	.L783
	movl	12(%rbp), %eax
	leal	-1(%rax), %edx
	movl	%edx, 12(%rbp)
.L784:
	cmpl	$1, %eax
	jne	.L779
	movq	0(%rbp), %rax
	movq	%rbp, %rdi
	call	*24(%rax)
	jmp	.L779
	.p2align 4,,10
	.p2align 3
.L849:
	movq	(%rdi), %rax
	call	*24(%rax)
	jmp	.L786
	.p2align 4,,10
	.p2align 3
.L787:
	movl	$-1, %eax
	lock xaddl	%eax, 12(%rdi)
	jmp	.L788
	.p2align 4,,10
	.p2align 3
.L773:
	movl	$-1, %eax
	lock xaddl	%eax, 8(%rbp)
	jmp	.L774
	.p2align 4,,10
	.p2align 3
.L780:
	movl	$-1, %eax
	lock xaddl	%eax, 8(%rbp)
	jmp	.L781
	.p2align 4,,10
	.p2align 3
.L737:
	movq	$0, (%rbx)
	testq	%rbp, %rbp
	je	.L795
	movq	%rbx, 0(%rbp)
.L739:
	addl	$1, 4(%rsp)
	movl	4(%rsp), %eax
	cmpl	$3, %eax
	je	.L741
.L857:
	movq	%rbx, %rbp
	jmp	.L733
	.p2align 4,,10
	.p2align 3
.L853:
	movq	$0, 104(%rax)
	movq	$0, (%rdx)
	movq	$0, (%rbx)
	testq	%rbp, %rbp
	jne	.L791
	.p2align 4,,10
	.p2align 3
.L795:
	addl	$1, 4(%rsp)
	movl	4(%rsp), %eax
	movq	%rbx, 8(%rsp)
	cmpl	$3, %eax
	jne	.L857
.L741:
	movl	$-1, 88(%rdi)
	movb	$1, 144(%rdi)
	movq	24(%rsp), %rdi
	call	pthread_mutex_unlock@PLT
	movq	16(%rsp), %r14
	movq	72(%r15), %rbp
	leaq	120(%r14), %r12
	movq	%r12, %rdi
	call	pthread_mutex_lock@PLT
	cmpq	160(%r14), %rbp
	je	.L858
.L743:
	movq	32(%rbp), %rax
	testq	%rax, %rax
	je	.L744
	movq	24(%rbp), %rdx
	movq	%rdx, 24(%rax)
.L744:
	movq	24(%rbp), %rax
	testq	%rax, %rax
	je	.L745
	movq	32(%rbp), %rdx
	movq	%rdx, 32(%rax)
.L745:
	movq	16(%rsp), %r14
	movq	%r12, %rdi
	movq	168(%r14), %rax
	movq	$0, 32(%rbp)
	movq	%rax, 24(%rbp)
	movq	%rbp, 168(%r14)
	call	pthread_mutex_unlock@PLT
	cmpq	$0, 8(%rsp)
	movq	$0, 72(%r15)
	je	.L840
	movq	40(%r14), %rbp
	cmpb	$0, 40(%rbp)
	je	.L747
	data16	leaq	_ZN4asio6detail15keyword_tss_ptrINS0_10call_stackINS0_15task_io_serviceENS0_27task_io_service_thread_infoEE7contextEE6value_E@tlsgd(%rip), %rdi
	.value	0x6666
	rex64
	call	__tls_get_addr@PLT
	movq	(%rax), %rax
	testq	%rax, %rax
	jne	.L750
	jmp	.L747
	.p2align 4,,10
	.p2align 3
.L748:
	movq	16(%rax), %rax
	testq	%rax, %rax
	je	.L747
.L750:
	cmpq	(%rax), %rbp
	jne	.L748
	movq	8(%rax), %rax
	testq	%rax, %rax
	je	.L747
	movq	16(%rax), %rdx
	movq	8(%rsp), %rcx
	testq	%rdx, %rdx
	je	.L751
	movq	%rcx, (%rdx)
.L752:
	movq	%rbx, 16(%rax)
	jmp	.L840
	.p2align 4,,10
	.p2align 3
.L854:
	movq	%rbx, 8(%rsp)
	jmp	.L740
	.p2align 4,,10
	.p2align 3
.L855:
	movq	%r14, %rdi
	call	__cxa_guard_acquire@PLT
	testl	%eax, %eax
	je	.L762
	movq	_ZZN4asio15system_categoryEvE8instance@GOTPCREL(%rip), %rsi
	movq	_ZN4asio6detail15system_categoryD1Ev@GOTPCREL(%rip), %rdi
	leaq	__dso_handle(%rip), %rdx
	call	__cxa_atexit@PLT
	movq	%r14, %rdi
	call	__cxa_guard_release@PLT
	jmp	.L762
	.p2align 4,,10
	.p2align 3
.L747:
	leaq	48(%rbp), %r12
	movq	%r12, %rdi
	call	pthread_mutex_lock@PLT
	movq	200(%rbp), %rax
	testq	%rax, %rax
	je	.L754
	movq	8(%rsp), %rcx
	movq	%rcx, (%rax)
.L755:
	movq	136(%rbp), %rax
	movq	%rbx, 200(%rbp)
	orq	$1, %rax
	movq	%rax, 136(%rbp)
	cmpq	$1, %rax
	je	.L756
	movq	%r12, %rdi
	call	pthread_mutex_unlock@PLT
	leaq	88(%rbp), %rdi
	call	pthread_cond_signal@PLT
	jmp	.L840
.L756:
	cmpb	$0, 176(%rbp)
	jne	.L758
	movq	144(%rbp), %rax
	testq	%rax, %rax
	je	.L758
	movb	$1, 176(%rbp)
	leaq	88(%rax), %rdx
	leaq	44(%rsp), %rcx
	movl	$3, %esi
	movq	%rdx, 48(%rsp)
	movl	88(%rax), %edx
	movl	$-2147483639, 44(%rsp)
	movl	96(%rax), %edi
	call	epoll_ctl@PLT
.L758:
	movq	%r12, %rdi
	call	pthread_mutex_unlock@PLT
	jmp	.L840
	.p2align 4,,10
	.p2align 3
.L776:
	movl	$-1, %eax
	lock xaddl	%eax, 12(%rbp)
	jmp	.L777
	.p2align 4,,10
	.p2align 3
.L783:
	movl	$-1, %eax
	lock xaddl	%eax, 12(%rbp)
	jmp	.L784
	.p2align 4,,10
	.p2align 3
.L794:
	movq	%rbp, %rbx
	jmp	.L739
	.p2align 4,,10
	.p2align 3
.L851:
	movq	16(%rsp), %rax
	movl	$0, 44(%rsp)
	leaq	44(%rsp), %rcx
	movl	%r12d, %edx
	movq	$0, 48(%rsp)
	movl	$2, %esi
	movl	96(%rax), %edi
	call	epoll_ctl@PLT
	movq	72(%r15), %rdi
	jmp	.L732
	.p2align 4,,10
	.p2align 3
.L856:
	movq	%r14, %rdi
	call	__cxa_guard_acquire@PLT
	testl	%eax, %eax
	je	.L765
	movq	_ZZN4asio15system_categoryEvE8instance@GOTPCREL(%rip), %rsi
	movq	_ZN4asio6detail15system_categoryD1Ev@GOTPCREL(%rip), %rdi
	leaq	__dso_handle(%rip), %rdx
	call	__cxa_atexit@PLT
	movq	%r14, %rdi
	call	__cxa_guard_release@PLT
	jmp	.L765
	.p2align 4,,10
	.p2align 3
.L858:
	movq	24(%rbp), %rax
	movq	16(%rsp), %rcx
	movq	%rax, 160(%rcx)
	jmp	.L743
	.p2align 4,,10
	.p2align 3
.L767:
	movl	%r12d, %edi
	leaq	44(%rsp), %rdx
	movl	$21537, %esi
	xorl	%eax, %eax
	movl	$0, 44(%rsp)
	call	ioctl@PLT
	andb	$-4, 68(%r15)
	movl	%r12d, %edi
	movl	$0, (%rbx)
	call	close@PLT
	jmp	.L845
.L754:
	movq	8(%rsp), %rax
	movq	%rax, 192(%rbp)
	jmp	.L755
.L751:
	movq	%rcx, 8(%rax)
	jmp	.L752
.L850:
	call	__stack_chk_fail@PLT
	.cfi_endproc
.LFE9445:
	.section	.gcc_except_table
.LLSDA9445:
	.byte	0xff
	.byte	0xff
	.byte	0x1
	.uleb128 .LLSDACSE9445-.LLSDACSB9445
.LLSDACSB9445:
.LLSDACSE9445:
	.section	.text._ZN7asiopal13SerialChannelD0Ev,"axG",@progbits,_ZN7asiopal13SerialChannelD5Ev,comdat
	.size	_ZN7asiopal13SerialChannelD0Ev, .-_ZN7asiopal13SerialChannelD0Ev
	.section	.text.unlikely
	.align 2
.LCOLDB25:
	.text
.LHOTB25:
	.align 2
	.p2align 4
	.globl	_ZN7asiopal13SerialChannel13BeginReadImplEN7openpal6WSliceE
	.type	_ZN7asiopal13SerialChannel13BeginReadImplEN7openpal6WSliceE, @function
_ZN7asiopal13SerialChannel13BeginReadImplEN7openpal6WSliceE:
.LFB7054:
	.cfi_startproc
	.cfi_personality 0x9b,DW.ref.__gxx_personality_v0
	.cfi_lsda 0x1b,.LLSDA7054
	endbr64
	pushq	%r15
	.cfi_def_cfa_offset 16
	.cfi_offset 15, -16
	pushq	%r14
	.cfi_def_cfa_offset 24
	.cfi_offset 14, -24
	movq	%rdx, %r14
	pushq	%r13
	.cfi_def_cfa_offset 32
	.cfi_offset 13, -32
	movl	%esi, %r13d
	pushq	%r12
	.cfi_def_cfa_offset 40
	.cfi_offset 12, -40
	movq	%rdi, %r12
	pushq	%rbp
	.cfi_def_cfa_offset 48
	.cfi_offset 6, -48
	pushq	%rbx
	.cfi_def_cfa_offset 56
	.cfi_offset 3, -56
	subq	$152, %rsp
	.cfi_def_cfa_offset 208
	movq	%fs:40, %rax
	movq	%rax, 136(%rsp)
	movq	24(%rdi), %rax
	movq	%rdi, 112(%rsp)
	movdqu	40(%rax), %xmm0
	movq	80(%rdi), %rax
	movhlps	%xmm0, %xmm2
	movq	%rax, 8(%rsp)
	movq	%xmm2, %rbp
	movaps	%xmm0, 96(%rsp)
	data16	leaq	_ZN4asio6detail15keyword_tss_ptrINS0_10call_stackINS0_14strand_service11strand_implEhE7contextEE6value_E@tlsgd(%rip), %rdi
	.value	0x6666
	rex64
	call	__tls_get_addr@PLT
	movq	(%rax), %rbx
	testq	%rbx, %rbx
	jne	.L862
	jmp	.L860
	.p2align 4,,10
	.p2align 3
.L861:
	movq	16(%rbx), %rbx
	testq	%rbx, %rbx
	je	.L860
.L862:
	cmpq	%rbp, (%rbx)
	jne	.L861
	movq	8(%rbx), %rbx
.L860:
	pxor	%xmm0, %xmm0
	leaq	96(%rsp), %rax
	movq	%rax, 64(%rsp)
	movups	%xmm0, 72(%rsp)
	data16	leaq	_ZN4asio6detail15keyword_tss_ptrINS0_10call_stackINS0_15task_io_serviceENS0_27task_io_service_thread_infoEE7contextEE6value_E@tlsgd(%rip), %rdi
	.value	0x6666
	rex64
	call	__tls_get_addr@PLT
	movq	(%rax), %rax
	testq	%rax, %rax
	je	.L863
	movq	8(%rax), %rax
	testq	%rax, %rax
	je	.L863
	movq	(%rax), %rbp
	testq	%rbp, %rbp
	je	.L863
	movq	$0, (%rax)
	movzbl	0(%rbp), %eax
	cmpb	$103, %al
	jbe	.L864
	movb	%al, 104(%rbp)
	jmp	.L865
	.p2align 4,,10
	.p2align 3
.L864:
	movq	%rbp, %rdi
	call	_ZdlPv@PLT
.L863:
	movl	$105, %edi
.LEHB6:
	call	_Znwm@PLT
.LEHE6:
	movb	$104, 104(%rax)
	movq	%rax, %rbp
.L865:
	movl	64(%r12), %r15d
	leaq	_ZN4asio6detail18descriptor_read_opINS_17mutable_buffers_1ENS0_15wrapped_handlerINS_10io_service6strandEZN7asiopal13SerialChannel13BeginReadImplEN7openpal6WSliceEEUlRKSt10error_codemE_NS0_26is_continuation_if_runningEEEE11do_completeEPNS0_15task_io_serviceEPNS0_25task_io_service_operationESC_m(%rip), %rax
	movq	$0, 0(%rbp)
	movq	%rbp, %xmm1
	movq	%rax, 8(%rbp)
	punpcklqdq	%xmm1, %xmm1
	movl	$0, 16(%rbp)
	movl	$0, 24(%rbp)
	movq	%rbp, 72(%rsp)
	movaps	%xmm1, 16(%rsp)
	call	_ZNSt3_V215system_categoryEv@PLT
	movdqa	96(%rsp), %xmm3
	movl	%r15d, 56(%rbp)
	movq	%rax, 32(%rbp)
	movq	%rax, %rcx
	movq	_ZN4asio6detail23descriptor_read_op_baseINS_17mutable_buffers_1EE10do_performEPNS0_10reactor_opE@GOTPCREL(%rip), %rax
	movq	$0, 40(%rbp)
	movq	%rax, 48(%rbp)
	movq	112(%rsp), %rax
	movq	%r14, 64(%rbp)
	movq	%r13, 72(%rbp)
	movq	%rax, 96(%rbp)
	movq	%rbp, 80(%rsp)
	movups	%xmm3, 80(%rbp)
	testq	%r13, %r13
	je	.L866
	testb	$3, 68(%r12)
	jne	.L867
	cmpl	$-1, %r15d
	je	.L1018
	movq	%rcx, 32(%rsp)
	call	__errno_location@PLT
	movl	%r15d, %edi
	leaq	52(%rsp), %rdx
	movl	$21537, %esi
	movl	$0, (%rax)
	movq	%rax, %r14
	xorl	%eax, %eax
	movl	$1, 52(%rsp)
	call	ioctl@PLT
	movq	_ZGVZN4asio15system_categoryEvE8instance@GOTPCREL(%rip), %r13
	movl	%eax, %r15d
	movzbl	0(%r13), %eax
	testb	%al, %al
	movq	32(%rsp), %rcx
	je	.L872
.L1000:
	movq	_ZZN4asio15system_categoryEvE8instance@GOTPCREL(%rip), %rsi
.L873:
	movl	(%r14), %eax
	movq	%rsi, 32(%rbp)
	movl	%eax, 24(%rbp)
	testl	%r15d, %r15d
	jns	.L1019
.L866:
	movq	8(%rsp), %rax
	movq	40(%rax), %rax
	movq	40(%rax), %r12
	testq	%rbx, %rbx
	jne	.L938
	cmpb	$0, 40(%r12)
	je	.L922
.L938:
	data16	leaq	_ZN4asio6detail15keyword_tss_ptrINS0_10call_stackINS0_15task_io_serviceENS0_27task_io_service_thread_infoEE7contextEE6value_E@tlsgd(%rip), %rdi
	.value	0x6666
	rex64
	call	__tls_get_addr@PLT
	movq	(%rax), %rax
	testq	%rax, %rax
	jne	.L926
	jmp	.L922
	.p2align 4,,10
	.p2align 3
.L924:
	movq	16(%rax), %rax
	testq	%rax, %rax
	je	.L922
.L926:
	cmpq	(%rax), %r12
	jne	.L924
	movq	8(%rax), %rax
	testq	%rax, %rax
	je	.L922
	addq	$1, 24(%rax)
	movq	$0, 0(%rbp)
	movq	16(%rax), %rdx
	testq	%rdx, %rdx
	je	.L927
.L1005:
	movq	%rbp, (%rdx)
	movq	%rbp, 16(%rax)
	jmp	.L859
	.p2align 4,,10
	.p2align 3
.L1019:
	movl	$0, 24(%rbp)
	movl	64(%r12), %r15d
	movq	%rcx, 32(%rbp)
	orb	$2, 68(%r12)
.L867:
	movq	8(%rsp), %rax
	movq	72(%r12), %r13
	movq	40(%rax), %r14
	testq	%r13, %r13
	je	.L1020
	addq	$40, %r13
	movq	%r13, %rdi
	call	pthread_mutex_lock@PLT
	movq	72(%r12), %rax
	cmpb	$0, 144(%rax)
	jne	.L1021
	cmpq	$0, 96(%rax)
	je	.L1022
.L905:
	movq	104(%rax), %rdx
	movq	$0, 0(%rbp)
	testq	%rdx, %rdx
	je	.L919
	movq	%rbp, (%rdx)
	movq	%rbp, 104(%rax)
.L920:
	movq	40(%r14), %rax
	lock addq	$1, 184(%rax)
	movq	%r13, %rdi
	call	pthread_mutex_unlock@PLT
	jmp	.L859
	.p2align 4,,10
	.p2align 3
.L922:
	lock addq	$1, 184(%r12)
	leaq	48(%r12), %r13
	movq	%r13, %rdi
	call	pthread_mutex_lock@PLT
	movq	$0, 0(%rbp)
	cmpq	$0, 200(%r12)
	je	.L928
.L1015:
	movq	200(%r12), %rax
	movq	%rbp, (%rax)
	movq	%rbp, 200(%r12)
.L929:
	movq	136(%r12), %rax
	orq	$1, %rax
	movq	%rax, 136(%r12)
	cmpq	$1, %rax
	je	.L930
	movq	%r13, %rdi
	call	pthread_mutex_unlock@PLT
	leaq	88(%r12), %rdi
	call	pthread_cond_signal@PLT
	.p2align 4,,10
	.p2align 3
.L859:
	movq	136(%rsp), %rax
	subq	%fs:40, %rax
	jne	.L1023
	addq	$152, %rsp
	.cfi_remember_state
	.cfi_def_cfa_offset 56
	popq	%rbx
	.cfi_def_cfa_offset 48
	popq	%rbp
	.cfi_def_cfa_offset 40
	popq	%r12
	.cfi_def_cfa_offset 32
	popq	%r13
	.cfi_def_cfa_offset 24
	popq	%r14
	.cfi_def_cfa_offset 16
	popq	%r15
	.cfi_def_cfa_offset 8
	ret
	.p2align 4,,10
	.p2align 3
.L930:
	.cfi_restore_state
	cmpb	$0, 176(%r12)
	jne	.L899
	movq	144(%r12), %rax
	testq	%rax, %rax
	je	.L899
	leaq	88(%rax), %rdx
	leaq	52(%rsp), %rcx
	movl	$3, %esi
	movb	$1, 176(%r12)
	movl	$-2147483639, 52(%rsp)
	movq	%rdx, 56(%rsp)
	movl	88(%rax), %edx
	movl	96(%rax), %edi
	call	epoll_ctl@PLT
.L899:
	movq	%r13, %rdi
	call	pthread_mutex_unlock@PLT
	jmp	.L859
.L927:
	movdqa	16(%rsp), %xmm5
	movups	%xmm5, 8(%rax)
	jmp	.L859
.L919:
	movdqa	16(%rsp), %xmm6
	movups	%xmm6, 96(%rax)
	jmp	.L920
	.p2align 4,,10
	.p2align 3
.L872:
	movq	%r13, %rdi
	movq	%rcx, 32(%rsp)
	call	__cxa_guard_acquire@PLT
	movq	32(%rsp), %rcx
	testl	%eax, %eax
	je	.L1000
	movq	_ZZN4asio15system_categoryEvE8instance@GOTPCREL(%rip), %rsi
	movq	_ZN4asio6detail15system_categoryD1Ev@GOTPCREL(%rip), %rdi
	movq	%rcx, 40(%rsp)
	leaq	__dso_handle(%rip), %rdx
	movq	%rsi, 32(%rsp)
	call	__cxa_atexit@PLT
	movq	%r13, %rdi
	call	__cxa_guard_release@PLT
	movq	40(%rsp), %rcx
	movq	32(%rsp), %rsi
	jmp	.L873
	.p2align 4,,10
	.p2align 3
.L928:
	movdqa	16(%rsp), %xmm4
	movups	%xmm4, 192(%r12)
	jmp	.L929
.L1020:
	movq	_ZGVZN4asio15system_categoryEvE8instance@GOTPCREL(%rip), %r12
	movzbl	(%r12), %eax
	testb	%al, %al
	je	.L877
.L1001:
	movq	_ZZN4asio15system_categoryEvE8instance@GOTPCREL(%rip), %rsi
.L878:
	movq	40(%r14), %r12
	movl	$9, 24(%rbp)
	movq	%rsi, 32(%rbp)
	cmpb	$0, 40(%r12)
	jne	.L935
	testq	%rbx, %rbx
	jne	.L935
.L908:
	lock addq	$1, 184(%r12)
	leaq	48(%r12), %r13
	movq	%r13, %rdi
	call	pthread_mutex_lock@PLT
	movq	$0, 0(%rbp)
	cmpq	$0, 200(%r12)
	jne	.L1015
	movdqa	16(%rsp), %xmm7
	movups	%xmm7, 192(%r12)
	jmp	.L929
.L935:
	data16	leaq	_ZN4asio6detail15keyword_tss_ptrINS0_10call_stackINS0_15task_io_serviceENS0_27task_io_service_thread_infoEE7contextEE6value_E@tlsgd(%rip), %rdi
	.value	0x6666
	rex64
	call	__tls_get_addr@PLT
	movq	(%rax), %rax
	testq	%rax, %rax
	jne	.L884
	jmp	.L908
	.p2align 4,,10
	.p2align 3
.L882:
	movq	16(%rax), %rax
	testq	%rax, %rax
	je	.L908
.L884:
	cmpq	(%rax), %r12
	jne	.L882
.L1017:
	movq	8(%rax), %rax
	testq	%rax, %rax
	je	.L908
	addq	$1, 24(%rax)
	movq	$0, 0(%rbp)
	movq	16(%rax), %rdx
	testq	%rdx, %rdx
	jne	.L1005
	movdqa	16(%rsp), %xmm7
	movups	%xmm7, 8(%rax)
	jmp	.L859
.L1021:
	movq	40(%r14), %r12
	cmpb	$0, 40(%r12)
	jne	.L936
	testq	%rbx, %rbx
	je	.L893
.L936:
	data16	leaq	_ZN4asio6detail15keyword_tss_ptrINS0_10call_stackINS0_15task_io_serviceENS0_27task_io_service_thread_infoEE7contextEE6value_E@tlsgd(%rip), %rdi
	.value	0x6666
	rex64
	call	__tls_get_addr@PLT
	movq	(%rax), %rax
	testq	%rax, %rax
	jne	.L897
	jmp	.L893
	.p2align 4,,10
	.p2align 3
.L895:
	movq	16(%rax), %rax
	testq	%rax, %rax
	je	.L893
.L897:
	cmpq	(%rax), %r12
	jne	.L895
	movq	8(%rax), %rax
	testq	%rax, %rax
	je	.L893
	addq	$1, 24(%rax)
	movq	$0, 0(%rbp)
	movq	16(%rax), %rdx
	testq	%rdx, %rdx
	je	.L898
	movq	%rbp, (%rdx)
	movq	%rbp, 16(%rax)
	jmp	.L899
.L1018:
	movq	_ZGVZN4asio15system_categoryEvE8instance@GOTPCREL(%rip), %r12
	movzbl	(%r12), %eax
	testb	%al, %al
	je	.L869
.L999:
	movq	_ZZN4asio15system_categoryEvE8instance@GOTPCREL(%rip), %rsi
.L870:
	movl	$9, 24(%rbp)
	movq	%rsi, 32(%rbp)
	jmp	.L866
.L1022:
	cmpq	$0, 128(%rax)
	je	.L1024
	movl	92(%rax), %edx
	movq	%rax, 56(%rsp)
	leaq	52(%rsp), %rcx
	movl	$3, %esi
	movl	%edx, 52(%rsp)
	movl	96(%r14), %edi
	movl	%r15d, %edx
	call	epoll_ctl@PLT
.L1002:
	movq	72(%r12), %rax
	jmp	.L905
.L877:
	movq	%r12, %rdi
	call	__cxa_guard_acquire@PLT
	testl	%eax, %eax
	je	.L1001
	movq	_ZZN4asio15system_categoryEvE8instance@GOTPCREL(%rip), %rsi
	movq	_ZN4asio6detail15system_categoryD1Ev@GOTPCREL(%rip), %rdi
	leaq	__dso_handle(%rip), %rdx
	movq	%rsi, 8(%rsp)
	call	__cxa_atexit@PLT
	movq	%r12, %rdi
	call	__cxa_guard_release@PLT
	movq	8(%rsp), %rsi
	jmp	.L878
.L869:
	movq	%r12, %rdi
	call	__cxa_guard_acquire@PLT
	testl	%eax, %eax
	je	.L999
	movq	_ZZN4asio15system_categoryEvE8instance@GOTPCREL(%rip), %rsi
	movq	_ZN4asio6detail15system_categoryD1Ev@GOTPCREL(%rip), %rdi
	leaq	__dso_handle(%rip), %rdx
	movq	%rsi, 32(%rsp)
	call	__cxa_atexit@PLT
	movq	%r12, %rdi
	call	__cxa_guard_release@PLT
	movq	32(%rsp), %rsi
	jmp	.L870
.L893:
	lock addq	$1, 184(%r12)
	leaq	48(%r12), %r14
	movq	%r14, %rdi
	call	pthread_mutex_lock@PLT
	movq	$0, 0(%rbp)
	cmpq	$0, 200(%r12)
	je	.L900
	movq	200(%r12), %rax
	movq	%rbp, (%rax)
	movq	%rbp, 200(%r12)
.L901:
	movq	136(%r12), %rax
	orq	$1, %rax
	movq	%rax, 136(%r12)
	cmpq	$1, %rax
	je	.L902
	movq	%r14, %rdi
	call	pthread_mutex_unlock@PLT
	leaq	88(%r12), %rdi
	call	pthread_cond_signal@PLT
	jmp	.L899
.L902:
	cmpb	$0, 176(%r12)
	jne	.L904
	movq	144(%r12), %rax
	testq	%rax, %rax
	je	.L904
	leaq	88(%rax), %rdx
	leaq	52(%rsp), %rcx
	movl	$3, %esi
	movb	$1, 176(%r12)
	movq	%rdx, 56(%rsp)
	movl	88(%rax), %edx
	movl	$-2147483639, 52(%rsp)
	movl	96(%rax), %edi
	call	epoll_ctl@PLT
.L904:
	movq	%r14, %rdi
	call	pthread_mutex_unlock@PLT
	jmp	.L899
.L900:
	movdqa	16(%rsp), %xmm7
	movups	%xmm7, 192(%r12)
	jmp	.L901
.L1024:
	movq	%rbp, %rdi
.LEHB7:
	call	*48(%rbp)
.LEHE7:
	testb	%al, %al
	je	.L1002
	movq	%r13, %rdi
	call	pthread_mutex_unlock@PLT
	movq	40(%r14), %r12
	testq	%rbx, %rbx
	jne	.L937
	cmpb	$0, 40(%r12)
	je	.L908
.L937:
	data16	leaq	_ZN4asio6detail15keyword_tss_ptrINS0_10call_stackINS0_15task_io_serviceENS0_27task_io_service_thread_infoEE7contextEE6value_E@tlsgd(%rip), %rdi
	.value	0x6666
	rex64
	call	__tls_get_addr@PLT
	movq	(%rax), %rax
	testq	%rax, %rax
	jne	.L912
	jmp	.L908
	.p2align 4,,10
	.p2align 3
.L910:
	movq	16(%rax), %rax
	testq	%rax, %rax
	je	.L908
.L912:
	cmpq	(%rax), %r12
	jne	.L910
	jmp	.L1017
.L898:
	movdqa	16(%rsp), %xmm7
	movups	%xmm7, 8(%rax)
	jmp	.L899
.L1023:
	call	__stack_chk_fail@PLT
.L934:
	endbr64
	movq	%rax, %rbp
	jmp	.L921
	.section	.gcc_except_table
.LLSDA7054:
	.byte	0xff
	.byte	0xff
	.byte	0x1
	.uleb128 .LLSDACSE7054-.LLSDACSB7054
.LLSDACSB7054:
	.uleb128 .LEHB6-.LFB7054
	.uleb128 .LEHE6-.LEHB6
	.uleb128 0
	.uleb128 0
	.uleb128 .LEHB7-.LFB7054
	.uleb128 .LEHE7-.LEHB7
	.uleb128 .L934-.LFB7054
	.uleb128 0
.LLSDACSE7054:
	.text
	.cfi_endproc
	.section	.text.unlikely
	.cfi_startproc
	.cfi_personality 0x9b,DW.ref.__gxx_personality_v0
	.cfi_lsda 0x1b,.LLSDAC7054
	.type	_ZN7asiopal13SerialChannel13BeginReadImplEN7openpal6WSliceE.cold, @function
_ZN7asiopal13SerialChannel13BeginReadImplEN7openpal6WSliceE.cold:
.LFSB7054:
.L921:
	.cfi_def_cfa_offset 208
	.cfi_offset 3, -56
	.cfi_offset 6, -48
	.cfi_offset 12, -40
	.cfi_offset 13, -32
	.cfi_offset 14, -24
	.cfi_offset 15, -16
	movq	%r13, %rdi
	call	pthread_mutex_unlock@PLT
	leaq	64(%rsp), %rdi
	call	_ZN4asio6detail18descriptor_read_opINS_17mutable_buffers_1ENS0_15wrapped_handlerINS_10io_service6strandEZN7asiopal13SerialChannel13BeginReadImplEN7openpal6WSliceEEUlRKSt10error_codemE_NS0_26is_continuation_if_runningEEEE3ptr5resetEv
	movq	%rbp, %rdi
.LEHB8:
	call	_Unwind_Resume@PLT
.LEHE8:
	.cfi_endproc
.LFE7054:
	.section	.gcc_except_table
.LLSDAC7054:
	.byte	0xff
	.byte	0xff
	.byte	0x1
	.uleb128 .LLSDACSEC7054-.LLSDACSBC7054
.LLSDACSBC7054:
	.uleb128 .LEHB8-.LCOLDB25
	.uleb128 .LEHE8-.LEHB8
	.uleb128 0
	.uleb128 0
.LLSDACSEC7054:
	.section	.text.unlikely
	.text
	.size	_ZN7asiopal13SerialChannel13BeginReadImplEN7openpal6WSliceE, .-_ZN7asiopal13SerialChannel13BeginReadImplEN7openpal6WSliceE
	.section	.text.unlikely
	.size	_ZN7asiopal13SerialChannel13BeginReadImplEN7openpal6WSliceE.cold, .-_ZN7asiopal13SerialChannel13BeginReadImplEN7openpal6WSliceE.cold
.LCOLDE25:
	.text
.LHOTE25:
	.section	.rodata._ZNSt12system_errorC2ESt10error_codePKc.str1.1,"aMS",@progbits,1
.LC26:
	.string	": "
	.section	.text._ZNSt12system_errorC2ESt10error_codePKc,"axG",@progbits,_ZNSt12system_errorC5ESt10error_codePKc,comdat
	.align 2
	.p2align 4
	.weak	_ZNSt12system_errorC2ESt10error_codePKc
	.type	_ZNSt12system_errorC2ESt10error_codePKc, @function
_ZNSt12system_errorC2ESt10error_codePKc:
.LFB2346:
	.cfi_startproc
	.cfi_personality 0x9b,DW.ref.__gxx_personality_v0
	.cfi_lsda 0x1b,.LLSDA2346
	endbr64
	pushq	%r14
	.cfi_def_cfa_offset 16
	.cfi_offset 14, -16
	movq	%rcx, %r14
	pushq	%r13
	.cfi_def_cfa_offset 24
	.cfi_offset 13, -24
	pushq	%r12
	.cfi_def_cfa_offset 32
	.cfi_offset 12, -32
	movq	%rsi, %r12
	pushq	%rbp
	.cfi_def_cfa_offset 40
	.cfi_offset 6, -40
	movq	%rdx, %rbp
	pushq	%rbx
	.cfi_def_cfa_offset 48
	.cfi_offset 3, -48
	movq	%rdi, %rbx
	subq	$112, %rsp
	.cfi_def_cfa_offset 160
	movq	%fs:40, %rax
	movq	%rax, 104(%rsp)
	xorl	%eax, %eax
	movq	(%rdx), %rax
	leaq	64(%rsp), %r13
	movl	%esi, %edx
	movq	%r13, %rdi
	movq	%rbp, %rsi
.LEHB9:
	call	*32(%rax)
.LEHE9:
	movl	$2, %r8d
	xorl	%edx, %edx
	xorl	%esi, %esi
	leaq	.LC26(%rip), %rcx
	movq	%r13, %rdi
.LEHB10:
	call	_ZNSt7__cxx1112basic_stringIcSt11char_traitsIcESaIcEE10_M_replaceEmmPKcm@PLT
.LEHE10:
	leaq	48(%rsp), %r13
	leaq	16(%rax), %rdx
	movq	%r13, 32(%rsp)
	movq	(%rax), %rcx
	cmpq	%rdx, %rcx
	je	.L1045
	movq	%rcx, 32(%rsp)
	movq	16(%rax), %rcx
	movq	%rcx, 48(%rsp)
.L1027:
	movq	8(%rax), %rcx
	movb	$0, 16(%rax)
	movq	%r14, %rdi
	movq	%rcx, 40(%rsp)
	movq	%rdx, (%rax)
	movq	$0, 8(%rax)
	call	strlen@PLT
	leaq	32(%rsp), %rdi
	movq	%r14, %rcx
	xorl	%edx, %edx
	movq	%rax, %r8
	xorl	%esi, %esi
.LEHB11:
	call	_ZNSt7__cxx1112basic_stringIcSt11char_traitsIcESaIcEE10_M_replaceEmmPKcm@PLT
.LEHE11:
	leaq	16(%rsp), %r14
	leaq	16(%rax), %rdx
	movq	%r14, (%rsp)
	movq	(%rax), %rcx
	cmpq	%rdx, %rcx
	je	.L1046
	movq	%rcx, (%rsp)
	movq	16(%rax), %rcx
	movq	%rcx, 16(%rsp)
.L1029:
	movq	8(%rax), %rcx
	movb	$0, 16(%rax)
	movq	%rsp, %rsi
	movq	%rbx, %rdi
	movq	%rcx, 8(%rsp)
	movq	%rdx, (%rax)
	movq	$0, 8(%rax)
.LEHB12:
	call	_ZNSt13runtime_errorC2ERKNSt7__cxx1112basic_stringIcSt11char_traitsIcESaIcEEE@PLT
.LEHE12:
	movq	(%rsp), %rdi
	cmpq	%r14, %rdi
	je	.L1030
	movq	16(%rsp), %rax
	leaq	1(%rax), %rsi
	call	_ZdlPvm@PLT
.L1030:
	movq	32(%rsp), %rdi
	cmpq	%r13, %rdi
	je	.L1031
	movq	48(%rsp), %rax
	leaq	1(%rax), %rsi
	call	_ZdlPvm@PLT
.L1031:
	movq	64(%rsp), %rdi
	leaq	80(%rsp), %rax
	cmpq	%rax, %rdi
	je	.L1032
	movq	80(%rsp), %rax
	leaq	1(%rax), %rsi
	call	_ZdlPvm@PLT
.L1032:
	movq	_ZTVSt12system_error@GOTPCREL(%rip), %rax
	movq	%r12, 16(%rbx)
	movq	%rbp, 24(%rbx)
	addq	$16, %rax
	movq	%rax, (%rbx)
	movq	104(%rsp), %rax
	subq	%fs:40, %rax
	jne	.L1047
	addq	$112, %rsp
	.cfi_remember_state
	.cfi_def_cfa_offset 48
	popq	%rbx
	.cfi_def_cfa_offset 40
	popq	%rbp
	.cfi_def_cfa_offset 32
	popq	%r12
	.cfi_def_cfa_offset 24
	popq	%r13
	.cfi_def_cfa_offset 16
	popq	%r14
	.cfi_def_cfa_offset 8
	ret
	.p2align 4,,10
	.p2align 3
.L1045:
	.cfi_restore_state
	movdqu	16(%rax), %xmm0
	movaps	%xmm0, 48(%rsp)
	jmp	.L1027
	.p2align 4,,10
	.p2align 3
.L1046:
	movdqu	16(%rax), %xmm1
	movaps	%xmm1, 16(%rsp)
	jmp	.L1029
.L1047:
	call	__stack_chk_fail@PLT
.L1042:
	endbr64
	movq	%rax, %rbp
	jmp	.L1033
.L1040:
	endbr64
	movq	%rax, %rbp
	jmp	.L1037
.L1041:
	endbr64
	movq	%rax, %rbp
	jmp	.L1035
.L1033:
	movq	(%rsp), %rdi
	cmpq	%r14, %rdi
	je	.L1035
	movq	16(%rsp), %rax
	leaq	1(%rax), %rsi
	call	_ZdlPvm@PLT
.L1035:
	movq	32(%rsp), %rdi
	cmpq	%r13, %rdi
	je	.L1037
	movq	48(%rsp), %rax
	leaq	1(%rax), %rsi
	call	_ZdlPvm@PLT
.L1037:
	movq	64(%rsp), %rdi
	leaq	80(%rsp), %rax
	cmpq	%rax, %rdi
	je	.L1038
	movq	80(%rsp), %rax
	leaq	1(%rax), %rsi
	call	_ZdlPvm@PLT
.L1038:
	movq	%rbp, %rdi
.LEHB13:
	call	_Unwind_Resume@PLT
.LEHE13:
	.cfi_endproc
.LFE2346:
	.section	.gcc_except_table
.LLSDA2346:
	.byte	0xff
	.byte	0xff
	.byte	0x1
	.uleb128 .LLSDACSE2346-.LLSDACSB2346
.LLSDACSB2346:
	.uleb128 .LEHB9-.LFB2346
	.uleb128 .LEHE9-.LEHB9
	.uleb128 0
	.uleb128 0
	.uleb128 .LEHB10-.LFB2346
	.uleb128 .LEHE10-.LEHB10
	.uleb128 .L1040-.LFB2346
	.uleb128 0
	.uleb128 .LEHB11-.LFB2346
	.uleb128 .LEHE11-.LEHB11
	.uleb128 .L1041-.LFB2346
	.uleb128 0
	.uleb128 .LEHB12-.LFB2346
	.uleb128 .LEHE12-.LEHB12
	.uleb128 .L1042-.LFB2346
	.uleb128 0
	.uleb128 .LEHB13-.LFB2346
	.uleb128 .LEHE13-.LEHB13
	.uleb128 0
	.uleb128 0
.LLSDACSE2346:
	.section	.text._ZNSt12system_errorC2ESt10error_codePKc,"axG",@progbits,_ZNSt12system_errorC5ESt10error_codePKc,comdat
	.size	_ZNSt12system_errorC2ESt10error_codePKc, .-_ZNSt12system_errorC2ESt10error_codePKc
	.weak	_ZNSt12system_errorC1ESt10error_codePKc
	.set	_ZNSt12system_errorC1ESt10error_codePKc,_ZNSt12system_errorC2ESt10error_codePKc
	.section	.text._ZN4asio15system_categoryEv,"axG",@progbits,_ZN4asio15system_categoryEv,comdat
	.p2align 4
	.weak	_ZN4asio15system_categoryEv
	.type	_ZN4asio15system_categoryEv, @function
_ZN4asio15system_categoryEv:
.LFB2399:
	.cfi_startproc
	endbr64
	pushq	%r12
	.cfi_def_cfa_offset 16
	.cfi_offset 12, -16
	pushq	%rbp
	.cfi_def_cfa_offset 24
	.cfi_offset 6, -24
	subq	$8, %rsp
	.cfi_def_cfa_offset 32
	movq	_ZGVZN4asio15system_categoryEvE8instance@GOTPCREL(%rip), %rbp
	movzbl	0(%rbp), %eax
	testb	%al, %al
	je	.L1049
.L1056:
	movq	_ZZN4asio15system_categoryEvE8instance@GOTPCREL(%rip), %r12
	addq	$8, %rsp
	.cfi_remember_state
	.cfi_def_cfa_offset 24
	popq	%rbp
	.cfi_def_cfa_offset 16
	movq	%r12, %rax
	popq	%r12
	.cfi_def_cfa_offset 8
	ret
	.p2align 4,,10
	.p2align 3
.L1049:
	.cfi_restore_state
	movq	%rbp, %rdi
	call	__cxa_guard_acquire@PLT
	testl	%eax, %eax
	je	.L1056
	movq	_ZZN4asio15system_categoryEvE8instance@GOTPCREL(%rip), %r12
	movq	_ZN4asio6detail15system_categoryD1Ev@GOTPCREL(%rip), %rdi
	leaq	__dso_handle(%rip), %rdx
	movq	%r12, %rsi
	call	__cxa_atexit@PLT
	movq	%rbp, %rdi
	call	__cxa_guard_release@PLT
	addq	$8, %rsp
	.cfi_def_cfa_offset 24
	movq	%r12, %rax
	popq	%rbp
	.cfi_def_cfa_offset 16
	popq	%r12
	.cfi_def_cfa_offset 8
	ret
	.cfi_endproc
.LFE2399:
	.size	_ZN4asio15system_categoryEv, .-_ZN4asio15system_categoryEv
	.section	.text.unlikely._ZN4asio6detail14do_throw_errorERKSt10error_codePKc,"axG",@progbits,_ZN4asio6detail14do_throw_errorERKSt10error_codePKc,comdat
	.weak	_ZN4asio6detail14do_throw_errorERKSt10error_codePKc
	.type	_ZN4asio6detail14do_throw_errorERKSt10error_codePKc, @function
_ZN4asio6detail14do_throw_errorERKSt10error_codePKc:
.LFB2429:
	.cfi_startproc
	.cfi_personality 0x9b,DW.ref.__gxx_personality_v0
	.cfi_lsda 0x1b,.LLSDA2429
	endbr64
	pushq	%r12
	.cfi_def_cfa_offset 16
	.cfi_offset 12, -16
	movq	%rsi, %rcx
	pushq	%rbp
	.cfi_def_cfa_offset 24
	.cfi_offset 6, -24
	subq	$56, %rsp
	.cfi_def_cfa_offset 80
	movq	8(%rdi), %rdx
	movl	(%rdi), %esi
	movq	%fs:40, %rax
	movq	%rax, 40(%rsp)
	xorl	%eax, %eax
	leaq	8(%rsp), %r12
	movq	%r12, %rdi
.LEHB14:
	call	_ZNSt12system_errorC1ESt10error_codePKc@PLT
.LEHE14:
	movl	$32, %edi
	call	__cxa_allocate_exception@PLT
	movq	%r12, %rsi
	movq	%rax, %rdi
	movq	%rax, %rbp
	call	_ZNSt13runtime_errorC2ERKS_@PLT
	movq	_ZTVSt12system_error@GOTPCREL(%rip), %rax
	movq	%rbp, %rdi
	movups	24(%rsp), %xmm0
	movq	_ZNSt12system_errorD1Ev@GOTPCREL(%rip), %rdx
	movq	_ZTISt12system_error@GOTPCREL(%rip), %rsi
	addq	$16, %rax
	movups	%xmm0, 16(%rbp)
	movq	%rax, 0(%rbp)
.LEHB15:
	call	__cxa_throw@PLT
.LEHE15:
.L1060:
	endbr64
	movq	%rax, %rbp
.L1058:
	movq	%r12, %rdi
	call	_ZNSt12system_errorD1Ev@PLT
	movq	%rbp, %rdi
.LEHB16:
	call	_Unwind_Resume@PLT
.LEHE16:
	.cfi_endproc
.LFE2429:
	.section	.gcc_except_table
.LLSDA2429:
	.byte	0xff
	.byte	0xff
	.byte	0x1
	.uleb128 .LLSDACSE2429-.LLSDACSB2429
.LLSDACSB2429:
	.uleb128 .LEHB14-.LFB2429
	.uleb128 .LEHE14-.LEHB14
	.uleb128 0
	.uleb128 0
	.uleb128 .LEHB15-.LFB2429
	.uleb128 .LEHE15-.LEHB15
	.uleb128 .L1060-.LFB2429
	.uleb128 0
	.uleb128 .LEHB16-.LFB2429
	.uleb128 .LEHE16-.LEHB16
	.uleb128 0
	.uleb128 0
.LLSDACSE2429:
	.section	.text.unlikely._ZN4asio6detail14do_throw_errorERKSt10error_codePKc,"axG",@progbits,_ZN4asio6detail14do_throw_errorERKSt10error_codePKc,comdat
	.size	_ZN4asio6detail14do_throw_errorERKSt10error_codePKc, .-_ZN4asio6detail14do_throw_errorERKSt10error_codePKc
	.section	.rodata._ZN4asio6detail13epoll_reactor12fork_serviceENS_10io_service10fork_eventE.str1.1,"aMS",@progbits,1
.LC27:
	.string	"epoll"
.LC29:
	.string	"eventfd_select_interrupter"
.LC30:
	.string	"epoll re-registration"
	.section	.text._ZN4asio6detail13epoll_reactor12fork_serviceENS_10io_service10fork_eventE,"axG",@progbits,_ZN4asio6detail13epoll_reactor12fork_serviceENS_10io_service10fork_eventE,comdat
	.align 2
	.p2align 4
	.weak	_ZN4asio6detail13epoll_reactor12fork_serviceENS_10io_service10fork_eventE
	.type	_ZN4asio6detail13epoll_reactor12fork_serviceENS_10io_service10fork_eventE, @function
_ZN4asio6detail13epoll_reactor12fork_serviceENS_10io_service10fork_eventE:
.LFB3310:
	.cfi_startproc
	.cfi_personality 0x9b,DW.ref.__gxx_personality_v0
	.cfi_lsda 0x1b,.LLSDA3310
	endbr64
	pushq	%r15
	.cfi_def_cfa_offset 16
	.cfi_offset 15, -16
	pushq	%r14
	.cfi_def_cfa_offset 24
	.cfi_offset 14, -24
	pushq	%r13
	.cfi_def_cfa_offset 32
	.cfi_offset 13, -32
	pushq	%r12
	.cfi_def_cfa_offset 40
	.cfi_offset 12, -40
	pushq	%rbp
	.cfi_def_cfa_offset 48
	.cfi_offset 6, -48
	pushq	%rbx
	.cfi_def_cfa_offset 56
	.cfi_offset 3, -56
	subq	$120, %rsp
	.cfi_def_cfa_offset 176
	movq	%fs:40, %rax
	movq	%rax, 104(%rsp)
	xorl	%eax, %eax
	cmpl	$2, %esi
	je	.L1165
.L1062:
	movq	104(%rsp), %rax
	subq	%fs:40, %rax
	jne	.L1166
	addq	$120, %rsp
	.cfi_remember_state
	.cfi_def_cfa_offset 56
	popq	%rbx
	.cfi_def_cfa_offset 48
	popq	%rbp
	.cfi_def_cfa_offset 40
	popq	%r12
	.cfi_def_cfa_offset 32
	popq	%r13
	.cfi_def_cfa_offset 24
	popq	%r14
	.cfi_def_cfa_offset 16
	popq	%r15
	.cfi_def_cfa_offset 8
	ret
	.p2align 4,,10
	.p2align 3
.L1165:
	.cfi_restore_state
	movq	%rdi, %rbx
	movl	96(%rdi), %edi
	cmpl	$-1, %edi
	jne	.L1167
.L1064:
	movl	$-1, 96(%rbx)
	movl	$524288, %edi
	call	epoll_create1@PLT
	movl	%eax, %ebp
	cmpl	$-1, %eax
	je	.L1168
.L1065:
	movl	100(%rbx), %edi
	movl	%ebp, 96(%rbx)
	cmpl	$-1, %edi
	jne	.L1169
.L1071:
	movl	$-1, 100(%rbx)
	movl	$524288, %esi
	movl	$1, %edi
	call	timerfd_create@PLT
	movl	%eax, %ebp
	cmpl	$-1, %eax
	je	.L1170
.L1072:
	movl	92(%rbx), %r8d
	movl	88(%rbx), %edi
	movl	%ebp, 100(%rbx)
	leaq	88(%rbx), %r12
	cmpl	$-1, %r8d
	je	.L1073
	cmpl	%edi, %r8d
	jne	.L1171
.L1074:
.LEHB17:
	call	close@PLT
.L1075:
	movq	.LC28(%rip), %rax
	movl	$526336, %esi
	xorl	%edi, %edi
	movq	%rax, 88(%rbx)
	call	eventfd@PLT
	movd	%eax, %xmm1
	movl	%eax, %edx
	pshufd	$0xe0, %xmm1, %xmm0
	movq	%xmm0, 88(%rbx)
	cmpl	$-1, %eax
	je	.L1172
.L1076:
	movl	96(%rbx), %edi
	leaq	20(%rsp), %rbp
	movl	$1, %esi
	movl	$-2147483639, 20(%rsp)
	movq	%rbp, %rcx
	movq	%r12, 24(%rsp)
	call	epoll_ctl@PLT
	leaq	64(%rsp), %rax
	movl	92(%rbx), %edi
	movl	$8, %edx
	movq	%rax, %rsi
	movq	%rax, 8(%rsp)
	movq	$1, 64(%rsp)
	call	write@PLT
.LEHE17:
	movl	100(%rbx), %edx
	cmpl	$-1, %edx
	jne	.L1173
.L1084:
	movl	88(%rbx), %edx
	movl	96(%rbx), %edi
	movl	$3, %esi
	movq	%r12, 68(%rsp)
	movq	8(%rsp), %rcx
	movl	$-2147483639, 64(%rsp)
	call	epoll_ctl@PLT
.L1090:
	leaq	120(%rbx), %r13
	movq	%r13, %rdi
	call	pthread_mutex_lock@PLT
	movq	160(%rbx), %r15
	testq	%r15, %r15
	jne	.L1091
	jmp	.L1097
	.p2align 4,,10
	.p2align 3
.L1092:
	movq	24(%r15), %r15
	testq	%r15, %r15
	je	.L1097
.L1091:
	movl	92(%r15), %eax
	movl	88(%r15), %edx
	movq	%rbp, %rcx
	movl	$1, %esi
	movl	96(%rbx), %edi
	movq	%r15, 24(%rsp)
	movl	%eax, 20(%rsp)
	call	epoll_ctl@PLT
	testl	%eax, %eax
	je	.L1092
	movq	_ZGVZN4asio15system_categoryEvE8instance@GOTPCREL(%rip), %r12
	movzbl	(%r12), %eax
	testb	%al, %al
	je	.L1093
.L1164:
	movq	_ZZN4asio15system_categoryEvE8instance@GOTPCREL(%rip), %r14
.L1094:
	call	__errno_location@PLT
	movq	%r14, 72(%rsp)
	movl	(%rax), %eax
	movl	%eax, 64(%rsp)
	testl	%eax, %eax
	je	.L1092
	movq	8(%rsp), %rdi
	leaq	.LC30(%rip), %rsi
.LEHB18:
	call	_ZN4asio6detail14do_throw_errorERKSt10error_codePKc@PLT
.LEHE18:
	.p2align 4,,10
	.p2align 3
.L1171:
	movl	%r8d, %edi
.LEHB19:
	call	close@PLT
	movl	88(%rbx), %edi
.L1073:
	cmpl	$-1, %edi
	je	.L1075
	jmp	.L1074
	.p2align 4,,10
	.p2align 3
.L1173:
	movl	96(%rbx), %edi
	leaq	100(%rbx), %rax
	movq	%rbp, %rcx
	movl	$1, %esi
	movl	$9, 20(%rsp)
	movq	%rax, 24(%rsp)
	call	epoll_ctl@PLT
	movl	100(%rbx), %edi
	cmpl	$-1, %edi
	je	.L1084
	movq	104(%rbx), %r12
	pxor	%xmm0, %xmm0
	movaps	%xmm0, 32(%rsp)
	testq	%r12, %r12
	je	.L1085
	movl	$300000000, %esi
	.p2align 4,,10
	.p2align 3
.L1086:
	movq	(%r12), %rax
	movq	%r12, %rdi
	call	*32(%rax)
	movq	8(%r12), %r12
	movq	%rax, %rsi
	testq	%r12, %r12
	jne	.L1086
	movabsq	$4835703278458516699, %rdx
	xorl	%r8d, %r8d
	movl	100(%rbx), %edi
	imulq	%rdx
	movq	%rsi, %rax
	sarq	$63, %rax
	sarq	$18, %rdx
	subq	%rax, %rdx
	testq	%rsi, %rsi
	movl	$1, %eax
	movq	%rdx, 48(%rsp)
	sete	%r8b
	je	.L1089
	imulq	$1000000, %rdx, %rdx
	subq	%rdx, %rsi
	imulq	$1000, %rsi, %rax
.L1089:
	movq	8(%rsp), %rcx
	leaq	32(%rsp), %rdx
	movl	%r8d, %esi
	movq	%rax, 56(%rsp)
	call	timerfd_settime@PLT
	jmp	.L1090
	.p2align 4,,10
	.p2align 3
.L1169:
	call	close@PLT
	jmp	.L1071
	.p2align 4,,10
	.p2align 3
.L1167:
	call	close@PLT
	jmp	.L1064
	.p2align 4,,10
	.p2align 3
.L1093:
	movq	%r12, %rdi
	call	__cxa_guard_acquire@PLT
	testl	%eax, %eax
	je	.L1164
	movq	_ZZN4asio15system_categoryEvE8instance@GOTPCREL(%rip), %r14
	movq	_ZN4asio6detail15system_categoryD1Ev@GOTPCREL(%rip), %rdi
	leaq	__dso_handle(%rip), %rdx
	movq	%r14, %rsi
	call	__cxa_atexit@PLT
	movq	%r12, %rdi
	call	__cxa_guard_release@PLT
	jmp	.L1094
	.p2align 4,,10
	.p2align 3
.L1097:
	movq	%r13, %rdi
	call	pthread_mutex_unlock@PLT
	jmp	.L1062
	.p2align 4,,10
	.p2align 3
.L1172:
	call	__errno_location@PLT
	cmpl	$22, (%rax)
	movq	%rax, %rbp
	je	.L1174
.L1078:
	leaq	96(%rsp), %rdi
	call	pipe@PLT
	testl	%eax, %eax
	je	.L1099
	movq	_ZGVZN4asio15system_categoryEvE8instance@GOTPCREL(%rip), %r13
	movzbl	0(%r13), %eax
	testb	%al, %al
	je	.L1080
.L1163:
	movq	_ZZN4asio15system_categoryEvE8instance@GOTPCREL(%rip), %r14
.L1081:
	movl	0(%rbp), %eax
	movq	%r14, 72(%rsp)
	movl	%eax, 64(%rsp)
	testl	%eax, %eax
	jne	.L1175
.L1079:
	movl	88(%rbx), %edx
	jmp	.L1076
	.p2align 4,,10
	.p2align 3
.L1170:
	call	__errno_location@PLT
	cmpl	$22, (%rax)
	jne	.L1072
	xorl	%esi, %esi
	movl	$1, %edi
	call	timerfd_create@PLT
	movl	%eax, %ebp
	cmpl	$-1, %eax
	je	.L1072
	movl	%eax, %edi
	movl	$1, %edx
	movl	$2, %esi
	xorl	%eax, %eax
	call	fcntl@PLT
	jmp	.L1072
	.p2align 4,,10
	.p2align 3
.L1168:
	call	__errno_location@PLT
	movq	%rax, %r13
	movl	(%rax), %eax
	subl	$22, %eax
	andl	$-17, %eax
	jne	.L1066
	movl	$20000, %edi
	call	epoll_create@PLT
	movl	%eax, %r12d
	cmpl	$-1, %eax
	je	.L1066
	movl	%eax, %edi
	movl	$1, %edx
	movl	$2, %esi
	xorl	%eax, %eax
	call	fcntl@PLT
	movl	%r12d, %ebp
	jmp	.L1065
.L1066:
	movq	_ZGVZN4asio15system_categoryEvE8instance@GOTPCREL(%rip), %r12
	movzbl	(%r12), %eax
	testb	%al, %al
	je	.L1067
.L1162:
	movq	_ZZN4asio15system_categoryEvE8instance@GOTPCREL(%rip), %r14
.L1068:
	movl	0(%r13), %eax
	movq	%r14, 72(%rsp)
	movl	%eax, 64(%rsp)
	testl	%eax, %eax
	je	.L1065
	leaq	64(%rsp), %rdi
	leaq	.LC27(%rip), %rsi
	call	_ZN4asio6detail14do_throw_errorERKSt10error_codePKc@PLT
	.p2align 4,,10
	.p2align 3
.L1099:
	movl	96(%rsp), %edi
	movl	$2048, %edx
	movl	$4, %esi
	xorl	%eax, %eax
	movl	%edi, 88(%rbx)
	call	fcntl@PLT
	movl	88(%rbx), %edi
	movl	$1, %edx
	xorl	%eax, %eax
	movl	$2, %esi
	call	fcntl@PLT
	movl	100(%rsp), %edi
	movl	$2048, %edx
	xorl	%eax, %eax
	movl	$4, %esi
	movl	%edi, 92(%rbx)
	call	fcntl@PLT
	movl	92(%rbx), %edi
	movl	$1, %edx
	xorl	%eax, %eax
	movl	$2, %esi
	call	fcntl@PLT
	jmp	.L1079
.L1067:
	movq	%r12, %rdi
	call	__cxa_guard_acquire@PLT
	testl	%eax, %eax
	je	.L1162
	movq	_ZZN4asio15system_categoryEvE8instance@GOTPCREL(%rip), %r14
	movq	_ZN4asio6detail15system_categoryD1Ev@GOTPCREL(%rip), %rdi
	leaq	__dso_handle(%rip), %rdx
	movq	%r14, %rsi
	call	__cxa_atexit@PLT
	movq	%r12, %rdi
	call	__cxa_guard_release@PLT
	jmp	.L1068
.L1174:
	xorl	%edi, %edi
	xorl	%esi, %esi
	call	eventfd@PLT
	movd	%eax, %xmm2
	movl	%eax, %edi
	pshufd	$0xe0, %xmm2, %xmm0
	movq	%xmm0, 88(%rbx)
	cmpl	$-1, %eax
	je	.L1078
	movl	$2048, %edx
	movl	$4, %esi
	xorl	%eax, %eax
	call	fcntl@PLT
	movl	88(%rbx), %edi
	movl	$1, %edx
	xorl	%eax, %eax
	movl	$2, %esi
	call	fcntl@PLT
	movl	88(%rbx), %edx
	cmpl	$-1, %edx
	jne	.L1076
	jmp	.L1078
	.p2align 4,,10
	.p2align 3
.L1085:
	movq	$300, 48(%rsp)
	xorl	%r8d, %r8d
	xorl	%eax, %eax
	jmp	.L1089
.L1080:
	movq	%r13, %rdi
	call	__cxa_guard_acquire@PLT
	testl	%eax, %eax
	je	.L1163
	movq	_ZZN4asio15system_categoryEvE8instance@GOTPCREL(%rip), %r14
	movq	_ZN4asio6detail15system_categoryD1Ev@GOTPCREL(%rip), %rdi
	leaq	__dso_handle(%rip), %rdx
	movq	%r14, %rsi
	call	__cxa_atexit@PLT
	movq	%r13, %rdi
	call	__cxa_guard_release@PLT
	jmp	.L1081
.L1166:
	call	__stack_chk_fail@PLT
.L1175:
	leaq	64(%rsp), %rdi
	leaq	.LC29(%rip), %rsi
	call	_ZN4asio6detail14do_throw_errorERKSt10error_codePKc@PLT
.L1103:
	endbr64
	movq	%rax, %rbp
.L1098:
	movq	%r13, %rdi
	call	pthread_mutex_unlock@PLT
	movq	%rbp, %rdi
	call	_Unwind_Resume@PLT
.LEHE19:
	.cfi_endproc
.LFE3310:
	.section	.gcc_except_table
.LLSDA3310:
	.byte	0xff
	.byte	0xff
	.byte	0x1
	.uleb128 .LLSDACSE3310-.LLSDACSB3310
.LLSDACSB3310:
	.uleb128 .LEHB17-.LFB3310
	.uleb128 .LEHE17-.LEHB17
	.uleb128 0
	.uleb128 0
	.uleb128 .LEHB18-.LFB3310
	.uleb128 .LEHE18-.LEHB18
	.uleb128 .L1103-.LFB3310
	.uleb128 0
	.uleb128 .LEHB19-.LFB3310
	.uleb128 .LEHE19-.LEHB19
	.uleb128 0
	.uleb128 0
.LLSDACSE3310:
	.section	.text._ZN4asio6detail13epoll_reactor12fork_serviceENS_10io_service10fork_eventE,"axG",@progbits,_ZN4asio6detail13epoll_reactor12fork_serviceENS_10io_service10fork_eventE,comdat
	.size	_ZN4asio6detail13epoll_reactor12fork_serviceENS_10io_service10fork_eventE, .-_ZN4asio6detail13epoll_reactor12fork_serviceENS_10io_service10fork_eventE
	.section	.text._ZN4asio6detail13epoll_reactor32perform_io_cleanup_on_block_exitD2Ev,"axG",@progbits,_ZN4asio6detail13epoll_reactor32perform_io_cleanup_on_block_exitD5Ev,comdat
	.align 2
	.p2align 4
	.weak	_ZN4asio6detail13epoll_reactor32perform_io_cleanup_on_block_exitD2Ev
	.type	_ZN4asio6detail13epoll_reactor32perform_io_cleanup_on_block_exitD2Ev, @function
_ZN4asio6detail13epoll_reactor32perform_io_cleanup_on_block_exitD2Ev:
.LFB3334:
	.cfi_startproc
	.cfi_personality 0x9b,DW.ref.__gxx_personality_v0
	.cfi_lsda 0x1b,.LLSDA3334
	endbr64
	pushq	%r13
	.cfi_def_cfa_offset 16
	.cfi_offset 13, -16
	pushq	%r12
	.cfi_def_cfa_offset 24
	.cfi_offset 12, -24
	pushq	%rbp
	.cfi_def_cfa_offset 32
	.cfi_offset 6, -32
	pushq	%rbx
	.cfi_def_cfa_offset 40
	.cfi_offset 3, -40
	movq	%rdi, %rbx
	subq	$56, %rsp
	.cfi_def_cfa_offset 96
	movq	%fs:40, %rax
	movq	%rax, 40(%rsp)
	xorl	%eax, %eax
	cmpq	$0, 24(%rdi)
	je	.L1177
	movq	8(%rdi), %r12
	testq	%r12, %r12
	je	.L1176
	movq	(%rdi), %rax
	movq	40(%rax), %rbp
	cmpb	$0, 40(%rbp)
	je	.L1179
	data16	leaq	_ZN4asio6detail15keyword_tss_ptrINS0_10call_stackINS0_15task_io_serviceENS0_27task_io_service_thread_infoEE7contextEE6value_E@tlsgd(%rip), %rdi
	.value	0x6666
	rex64
	call	__tls_get_addr@PLT
	movq	(%rax), %rax
	testq	%rax, %rax
	jne	.L1182
	.p2align 4,,10
	.p2align 3
.L1179:
	leaq	48(%rbp), %r13
	movq	%r13, %rdi
	call	pthread_mutex_lock@PLT
	movq	8(%rbx), %rax
	testq	%rax, %rax
	je	.L1185
	movq	200(%rbp), %rdx
	testq	%rdx, %rdx
	je	.L1186
	movq	%rax, (%rdx)
.L1187:
	movq	16(%rbx), %rax
	pxor	%xmm0, %xmm0
	movq	%rax, 200(%rbp)
	movups	%xmm0, 8(%rbx)
.L1185:
	movq	136(%rbp), %rax
	orq	$1, %rax
	movq	%rax, 136(%rbp)
	cmpq	$1, %rax
	je	.L1188
	movq	%r13, %rdi
	call	pthread_mutex_unlock@PLT
	leaq	88(%rbp), %rdi
	call	pthread_cond_signal@PLT
.L1192:
	movq	8(%rbx), %rsi
	testq	%rsi, %rsi
	je	.L1176
	movq	%rsi, 8(%rsp)
	leaq	16(%rsp), %r12
	call	_ZNSt3_V215system_categoryEv@PLT
	movq	8(%rsp), %rsi
	movq	%rax, %rbp
	jmp	.L1195
	.p2align 4,,10
	.p2align 3
.L1193:
	movq	$0, (%rsi)
	movq	8(%rsi), %rax
	xorl	%ecx, %ecx
	movq	%r12, %rdx
	movl	$0, 16(%rsp)
	xorl	%edi, %edi
	movq	%rbp, 24(%rsp)
	call	*%rax
	movq	8(%rbx), %rsi
	testq	%rsi, %rsi
	je	.L1176
.L1195:
	movq	(%rsi), %rax
	movq	%rax, 8(%rbx)
	testq	%rax, %rax
	jne	.L1193
	movq	$0, 16(%rbx)
	jmp	.L1193
	.p2align 4,,10
	.p2align 3
.L1180:
	movq	16(%rax), %rax
	testq	%rax, %rax
	je	.L1179
.L1182:
	cmpq	(%rax), %rbp
	jne	.L1180
	movq	8(%rax), %rax
	testq	%rax, %rax
	je	.L1179
	movq	16(%rax), %rdx
	testq	%rdx, %rdx
	je	.L1183
	movq	%r12, (%rdx)
.L1184:
	movq	16(%rbx), %rdx
	movq	%rdx, 16(%rax)
	.p2align 4,,10
	.p2align 3
.L1176:
	movq	40(%rsp), %rax
	subq	%fs:40, %rax
	jne	.L1222
	addq	$56, %rsp
	.cfi_remember_state
	.cfi_def_cfa_offset 40
	popq	%rbx
	.cfi_def_cfa_offset 32
	popq	%rbp
	.cfi_def_cfa_offset 24
	popq	%r12
	.cfi_def_cfa_offset 16
	popq	%r13
	.cfi_def_cfa_offset 8
	ret
	.p2align 4,,10
	.p2align 3
.L1177:
	.cfi_restore_state
	movq	(%rdi), %rax
	movq	40(%rax), %rax
	lock addq	$1, 184(%rax)
	jmp	.L1192
	.p2align 4,,10
	.p2align 3
.L1188:
	cmpb	$0, 176(%rbp)
	jne	.L1190
	movq	144(%rbp), %rax
	testq	%rax, %rax
	je	.L1190
	movb	$1, 176(%rbp)
	leaq	88(%rax), %rdx
	leaq	16(%rsp), %r12
	movl	$3, %esi
	movq	%rdx, 20(%rsp)
	movl	88(%rax), %edx
	movq	%r12, %rcx
	movl	$-2147483639, 16(%rsp)
	movl	96(%rax), %edi
	call	epoll_ctl@PLT
.L1190:
	movq	%r13, %rdi
	call	pthread_mutex_unlock@PLT
	jmp	.L1192
.L1186:
	movq	%rax, 192(%rbp)
	jmp	.L1187
.L1183:
	movq	%r12, 8(%rax)
	jmp	.L1184
.L1222:
	call	__stack_chk_fail@PLT
	.cfi_endproc
.LFE3334:
	.section	.gcc_except_table
.LLSDA3334:
	.byte	0xff
	.byte	0xff
	.byte	0x1
	.uleb128 .LLSDACSE3334-.LLSDACSB3334
.LLSDACSB3334:
.LLSDACSE3334:
	.section	.text._ZN4asio6detail13epoll_reactor32perform_io_cleanup_on_block_exitD2Ev,"axG",@progbits,_ZN4asio6detail13epoll_reactor32perform_io_cleanup_on_block_exitD5Ev,comdat
	.size	_ZN4asio6detail13epoll_reactor32perform_io_cleanup_on_block_exitD2Ev, .-_ZN4asio6detail13epoll_reactor32perform_io_cleanup_on_block_exitD2Ev
	.weak	_ZN4asio6detail13epoll_reactor32perform_io_cleanup_on_block_exitD1Ev
	.set	_ZN4asio6detail13epoll_reactor32perform_io_cleanup_on_block_exitD1Ev,_ZN4asio6detail13epoll_reactor32perform_io_cleanup_on_block_exitD2Ev
	.section	.text._ZN4asio6detail13epoll_reactor16descriptor_state11do_completeEPNS0_15task_io_serviceEPNS0_25task_io_service_operationERKSt10error_codem,"axG",@progbits,_ZN4asio6detail13epoll_reactor16descriptor_state11do_completeEPNS0_15task_io_serviceEPNS0_25task_io_service_operationERKSt10error_codem,comdat
	.align 2
	.p2align 4
	.weak	_ZN4asio6detail13epoll_reactor16descriptor_state11do_completeEPNS0_15task_io_serviceEPNS0_25task_io_service_operationERKSt10error_codem
	.type	_ZN4asio6detail13epoll_reactor16descriptor_state11do_completeEPNS0_15task_io_serviceEPNS0_25task_io_service_operationERKSt10error_codem, @function
_ZN4asio6detail13epoll_reactor16descriptor_state11do_completeEPNS0_15task_io_serviceEPNS0_25task_io_service_operationERKSt10error_codem:
.LFB3340:
	.cfi_startproc
	.cfi_personality 0x9b,DW.ref.__gxx_personality_v0
	.cfi_lsda 0x1b,.LLSDA3340
	endbr64
	pushq	%r15
	.cfi_def_cfa_offset 16
	.cfi_offset 15, -16
	pushq	%r14
	.cfi_def_cfa_offset 24
	.cfi_offset 14, -24
	pushq	%r13
	.cfi_def_cfa_offset 32
	.cfi_offset 13, -32
	pushq	%r12
	.cfi_def_cfa_offset 40
	.cfi_offset 12, -40
	pushq	%rbp
	.cfi_def_cfa_offset 48
	.cfi_offset 6, -48
	pushq	%rbx
	.cfi_def_cfa_offset 56
	.cfi_offset 3, -56
	subq	$104, %rsp
	.cfi_def_cfa_offset 160
	movq	%rdx, 16(%rsp)
	movq	%fs:40, %rax
	movq	%rax, 88(%rsp)
	xorl	%eax, %eax
	testq	%rdi, %rdi
	je	.L1223
	leaq	40(%rsi), %r15
	movq	%rsi, %rbp
	movq	%rdi, %r14
	movl	%ecx, %r13d
	movq	%r15, %rdi
	subq	$-128, %rbp
	call	pthread_mutex_lock@PLT
	movq	-48(%rbp), %rax
	movq	_ZZN4asio6detail13epoll_reactor16descriptor_state10perform_ioEjE4flag@GOTPCREL(%rip), %r12
	movq	$0, 56(%rsp)
	movq	$0, 64(%rsp)
	movq	%rax, 24(%rsp)
	movq	%rax, 48(%rsp)
	leaq	-12(%r12), %rax
	movq	$0, 72(%rsp)
	movq	%rax, 8(%rsp)
.L1233:
	movl	8(%r12), %eax
	orl	$24, %eax
	testl	%r13d, %eax
	jne	.L1286
.L1226:
	subq	$4, %r12
	subq	$16, %rbp
	cmpq	8(%rsp), %r12
	jne	.L1233
	movq	56(%rsp), %rbp
	movq	%rbp, 72(%rsp)
	testq	%rbp, %rbp
	je	.L1234
	movq	0(%rbp), %r12
	movq	%r12, 56(%rsp)
	testq	%r12, %r12
	je	.L1287
	movq	$0, 0(%rbp)
	movq	%r15, %rdi
	call	pthread_mutex_unlock@PLT
	movq	24(%rsp), %rax
	movq	40(%rax), %rbx
	cmpb	$0, 40(%rbx)
	je	.L1237
	data16	leaq	_ZN4asio6detail15keyword_tss_ptrINS0_10call_stackINS0_15task_io_serviceENS0_27task_io_service_thread_infoEE7contextEE6value_E@tlsgd(%rip), %rdi
	.value	0x6666
	rex64
	call	__tls_get_addr@PLT
	movq	(%rax), %rax
	testq	%rax, %rax
	jne	.L1240
	jmp	.L1237
	.p2align 4,,10
	.p2align 3
.L1238:
	movq	16(%rax), %rax
	testq	%rax, %rax
	je	.L1237
.L1240:
	cmpq	(%rax), %rbx
	jne	.L1238
	movq	8(%rax), %rax
	testq	%rax, %rax
	je	.L1237
	movq	16(%rax), %rdx
	testq	%rdx, %rdx
	je	.L1241
	movq	%r12, (%rdx)
.L1242:
	movq	64(%rsp), %rdx
	movq	%rdx, 16(%rax)
	jmp	.L1236
	.p2align 4,,10
	.p2align 3
.L1234:
	movq	%r15, %rdi
	call	pthread_mutex_unlock@PLT
	movq	24(%rsp), %rax
	movq	40(%rax), %rax
	lock addq	$1, 184(%rax)
	movq	56(%rsp), %rsi
	testq	%rsi, %rsi
	movq	%rsi, 8(%rsp)
	je	.L1223
	call	_ZNSt3_V215system_categoryEv@PLT
	movq	8(%rsp), %rsi
	leaq	32(%rsp), %r12
	movq	%rax, %rbp
	movq	(%rsi), %rbx
	movq	8(%rsi), %rax
	movq	%rbx, 56(%rsp)
	testq	%rbx, %rbx
	je	.L1251
	.p2align 4,,10
	.p2align 3
.L1252:
	movq	$0, (%rsi)
	xorl	%ecx, %ecx
	movq	%r12, %rdx
	xorl	%edi, %edi
	movl	$0, 32(%rsp)
	movq	%rbp, 40(%rsp)
	call	*%rax
	movq	%rbx, %rsi
	movq	(%rbx), %rbx
	movq	8(%rsi), %rax
	movq	%rbx, 56(%rsp)
	testq	%rbx, %rbx
	jne	.L1252
.L1251:
	movq	$0, (%rsi)
	xorl	%ecx, %ecx
	movq	%r12, %rdx
	xorl	%edi, %edi
	movl	$0, 32(%rsp)
	movq	%rbp, 40(%rsp)
	call	*%rax
.L1223:
	movq	88(%rsp), %rax
	subq	%fs:40, %rax
	jne	.L1285
	addq	$104, %rsp
	.cfi_remember_state
	.cfi_def_cfa_offset 56
	popq	%rbx
	.cfi_def_cfa_offset 48
	popq	%rbp
	.cfi_def_cfa_offset 40
	popq	%r12
	.cfi_def_cfa_offset 32
	popq	%r13
	.cfi_def_cfa_offset 24
	popq	%r14
	.cfi_def_cfa_offset 16
	popq	%r15
	.cfi_def_cfa_offset 8
	ret
	.p2align 4,,10
	.p2align 3
.L1286:
	.cfi_restore_state
	movq	0(%rbp), %rbx
	testq	%rbx, %rbx
	jne	.L1227
	jmp	.L1226
	.p2align 4,,10
	.p2align 3
.L1289:
	movq	(%rax), %rdx
	movq	%rdx, 0(%rbp)
	testq	%rdx, %rdx
	je	.L1288
	movq	$0, (%rax)
	movq	64(%rsp), %rax
	movq	$0, (%rbx)
	testq	%rax, %rax
	je	.L1231
	movq	%rbx, (%rax)
	movq	%rbx, 64(%rsp)
.L1232:
	movq	%rdx, %rbx
.L1227:
	movq	%rbx, %rdi
.LEHB20:
	call	*48(%rbx)
.LEHE20:
	testb	%al, %al
	je	.L1226
	movq	0(%rbp), %rax
	testq	%rax, %rax
	jne	.L1289
	movq	64(%rsp), %rax
	movq	$0, (%rbx)
	testq	%rax, %rax
	jne	.L1255
.L1230:
	movq	%rbx, 56(%rsp)
	movq	%rbx, 64(%rsp)
	jmp	.L1226
	.p2align 4,,10
	.p2align 3
.L1288:
	movq	$0, 8(%rbp)
	movq	$0, (%rax)
	movq	64(%rsp), %rax
	movq	$0, (%rbx)
	testq	%rax, %rax
	je	.L1230
.L1255:
	movq	%rbx, (%rax)
	movq	%rbx, 64(%rsp)
	jmp	.L1226
	.p2align 4,,10
	.p2align 3
.L1237:
	leaq	48(%rbx), %r13
	movq	%r13, %rdi
	call	pthread_mutex_lock@PLT
	movq	200(%rbx), %rax
	testq	%rax, %rax
	je	.L1243
	movq	%r12, (%rax)
.L1244:
	movq	64(%rsp), %rax
	pxor	%xmm0, %xmm0
	movups	%xmm0, 56(%rsp)
	movq	%rax, 200(%rbx)
	movq	136(%rbx), %rax
	orq	$1, %rax
	movq	%rax, 136(%rbx)
	cmpq	$1, %rax
	je	.L1245
	movq	%r13, %rdi
	call	pthread_mutex_unlock@PLT
	leaq	88(%rbx), %rdi
	call	pthread_cond_signal@PLT
	.p2align 4,,10
	.p2align 3
.L1236:
	movq	88(%rsp), %rax
	subq	%fs:40, %rax
	jne	.L1285
	movq	8(%rbp), %rax
	movq	16(%rsp), %rdx
	addq	$104, %rsp
	.cfi_remember_state
	.cfi_def_cfa_offset 56
	movq	%rbp, %rsi
	popq	%rbx
	.cfi_def_cfa_offset 48
	movq	%r14, %rdi
	popq	%rbp
	.cfi_def_cfa_offset 40
	xorl	%ecx, %ecx
	popq	%r12
	.cfi_def_cfa_offset 32
	popq	%r13
	.cfi_def_cfa_offset 24
	popq	%r14
	.cfi_def_cfa_offset 16
	popq	%r15
	.cfi_def_cfa_offset 8
.LEHB21:
	jmp	*%rax
	.p2align 4,,10
	.p2align 3
.L1287:
	.cfi_restore_state
	movq	%r15, %rdi
	call	pthread_mutex_unlock@PLT
	jmp	.L1236
	.p2align 4,,10
	.p2align 3
.L1231:
	movq	%rbx, 56(%rsp)
	movq	%rbx, 64(%rsp)
	jmp	.L1232
	.p2align 4,,10
	.p2align 3
.L1245:
	cmpb	$0, 176(%rbx)
	jne	.L1247
	movq	144(%rbx), %rax
	testq	%rax, %rax
	je	.L1247
	movb	$1, 176(%rbx)
	leaq	88(%rax), %rdx
	leaq	32(%rsp), %rcx
	movl	$3, %esi
	movq	%rdx, 36(%rsp)
	movl	88(%rax), %edx
	movl	$-2147483639, 32(%rsp)
	movl	96(%rax), %edi
	call	epoll_ctl@PLT
.L1247:
	movq	%r13, %rdi
	call	pthread_mutex_unlock@PLT
	jmp	.L1236
.L1241:
	movq	%r12, 8(%rax)
	jmp	.L1242
.L1243:
	movq	%r12, 192(%rbx)
	jmp	.L1244
.L1285:
	call	__stack_chk_fail@PLT
.L1257:
	endbr64
	movq	%rax, %rbp
.L1249:
	movq	%r15, %rdi
	call	pthread_mutex_unlock@PLT
	leaq	48(%rsp), %rdi
	call	_ZN4asio6detail13epoll_reactor32perform_io_cleanup_on_block_exitD1Ev@PLT
	movq	%rbp, %rdi
	call	_Unwind_Resume@PLT
.LEHE21:
	.cfi_endproc
.LFE3340:
	.section	.gcc_except_table
.LLSDA3340:
	.byte	0xff
	.byte	0xff
	.byte	0x1
	.uleb128 .LLSDACSE3340-.LLSDACSB3340
.LLSDACSB3340:
	.uleb128 .LEHB20-.LFB3340
	.uleb128 .LEHE20-.LEHB20
	.uleb128 .L1257-.LFB3340
	.uleb128 0
	.uleb128 .LEHB21-.LFB3340
	.uleb128 .LEHE21-.LEHB21
	.uleb128 0
	.uleb128 0
.LLSDACSE3340:
	.section	.text._ZN4asio6detail13epoll_reactor16descriptor_state11do_completeEPNS0_15task_io_serviceEPNS0_25task_io_service_operationERKSt10error_codem,"axG",@progbits,_ZN4asio6detail13epoll_reactor16descriptor_state11do_completeEPNS0_15task_io_serviceEPNS0_25task_io_service_operationERKSt10error_codem,comdat
	.size	_ZN4asio6detail13epoll_reactor16descriptor_state11do_completeEPNS0_15task_io_serviceEPNS0_25task_io_service_operationERKSt10error_codem, .-_ZN4asio6detail13epoll_reactor16descriptor_state11do_completeEPNS0_15task_io_serviceEPNS0_25task_io_service_operationERKSt10error_codem
	.section	.text._ZN4asio6detail15task_io_service25post_immediate_completionEPNS0_25task_io_service_operationEb,"axG",@progbits,_ZN4asio6detail15task_io_service25post_immediate_completionEPNS0_25task_io_service_operationEb,comdat
	.align 2
	.p2align 4
	.weak	_ZN4asio6detail15task_io_service25post_immediate_completionEPNS0_25task_io_service_operationEb
	.type	_ZN4asio6detail15task_io_service25post_immediate_completionEPNS0_25task_io_service_operationEb, @function
_ZN4asio6detail15task_io_service25post_immediate_completionEPNS0_25task_io_service_operationEb:
.LFB3372:
	.cfi_startproc
	endbr64
	pushq	%r12
	.cfi_def_cfa_offset 16
	.cfi_offset 12, -16
	movq	%rsi, %xmm0
	pushq	%rbp
	.cfi_def_cfa_offset 24
	.cfi_offset 6, -24
	punpcklqdq	%xmm0, %xmm0
	movq	%rsi, %rbp
	pushq	%rbx
	.cfi_def_cfa_offset 32
	.cfi_offset 3, -32
	movq	%rdi, %rbx
	subq	$48, %rsp
	.cfi_def_cfa_offset 80
	movq	%fs:40, %rax
	movq	%rax, 40(%rsp)
	xorl	%eax, %eax
	cmpb	$0, 40(%rdi)
	movaps	%xmm0, (%rsp)
	jne	.L1305
	testb	%dl, %dl
	je	.L1291
.L1305:
	data16	leaq	_ZN4asio6detail15keyword_tss_ptrINS0_10call_stackINS0_15task_io_serviceENS0_27task_io_service_thread_infoEE7contextEE6value_E@tlsgd(%rip), %rdi
	.value	0x6666
	rex64
	call	__tls_get_addr@PLT
	movq	(%rax), %rax
	testq	%rax, %rax
	jne	.L1295
	jmp	.L1291
	.p2align 4,,10
	.p2align 3
.L1293:
	movq	16(%rax), %rax
	testq	%rax, %rax
	je	.L1291
.L1295:
	cmpq	(%rax), %rbx
	jne	.L1293
	movq	8(%rax), %rax
	testq	%rax, %rax
	je	.L1291
	addq	$1, 24(%rax)
	movq	$0, 0(%rbp)
	movq	16(%rax), %rdx
	testq	%rdx, %rdx
	je	.L1296
	movq	%rbp, (%rdx)
	movq	%rbp, 16(%rax)
.L1290:
	movq	40(%rsp), %rax
	subq	%fs:40, %rax
	jne	.L1315
	addq	$48, %rsp
	.cfi_remember_state
	.cfi_def_cfa_offset 32
	popq	%rbx
	.cfi_def_cfa_offset 24
	popq	%rbp
	.cfi_def_cfa_offset 16
	popq	%r12
	.cfi_def_cfa_offset 8
	ret
	.p2align 4,,10
	.p2align 3
.L1291:
	.cfi_restore_state
	lock addq	$1, 184(%rbx)
	leaq	48(%rbx), %r12
	movq	%r12, %rdi
	call	pthread_mutex_lock@PLT
	cmpq	$0, 200(%rbx)
	movq	$0, 0(%rbp)
	je	.L1298
	movq	200(%rbx), %rax
	movq	%rbp, (%rax)
	movq	%rbp, 200(%rbx)
.L1299:
	movq	136(%rbx), %rax
	orq	$1, %rax
	movq	%rax, 136(%rbx)
	cmpq	$1, %rax
	je	.L1300
	movq	%r12, %rdi
	call	pthread_mutex_unlock@PLT
	movq	40(%rsp), %rax
	subq	%fs:40, %rax
	jne	.L1315
	addq	$48, %rsp
	.cfi_remember_state
	.cfi_def_cfa_offset 32
	leaq	88(%rbx), %rdi
	popq	%rbx
	.cfi_def_cfa_offset 24
	popq	%rbp
	.cfi_def_cfa_offset 16
	popq	%r12
	.cfi_def_cfa_offset 8
	jmp	pthread_cond_signal@PLT
	.p2align 4,,10
	.p2align 3
.L1300:
	.cfi_restore_state
	cmpb	$0, 176(%rbx)
	jne	.L1302
	movq	144(%rbx), %rax
	testq	%rax, %rax
	je	.L1302
	leaq	88(%rax), %rdx
	movb	$1, 176(%rbx)
	movl	96(%rax), %edi
	leaq	28(%rsp), %rcx
	movq	%rdx, 32(%rsp)
	movl	88(%rax), %edx
	movl	$3, %esi
	movl	$-2147483639, 28(%rsp)
	call	epoll_ctl@PLT
.L1302:
	movq	40(%rsp), %rax
	subq	%fs:40, %rax
	jne	.L1315
	addq	$48, %rsp
	.cfi_remember_state
	.cfi_def_cfa_offset 32
	movq	%r12, %rdi
	popq	%rbx
	.cfi_def_cfa_offset 24
	popq	%rbp
	.cfi_def_cfa_offset 16
	popq	%r12
	.cfi_def_cfa_offset 8
	jmp	pthread_mutex_unlock@PLT
	.p2align 4,,10
	.p2align 3
.L1298:
	.cfi_restore_state
	movdqa	(%rsp), %xmm1
	movups	%xmm1, 192(%rbx)
	jmp	.L1299
	.p2align 4,,10
	.p2align 3
.L1296:
	movdqa	(%rsp), %xmm2
	movups	%xmm2, 8(%rax)
	jmp	.L1290
.L1315:
	call	__stack_chk_fail@PLT
	.cfi_endproc
.LFE3372:
	.size	_ZN4asio6detail15task_io_service25post_immediate_completionEPNS0_25task_io_service_operationEb, .-_ZN4asio6detail15task_io_service25post_immediate_completionEPNS0_25task_io_service_operationEb
	.section	.text.unlikely
	.align 2
.LCOLDB31:
	.text
.LHOTB31:
	.align 2
	.p2align 4
	.globl	_ZN7asiopal13SerialChannel14BeginWriteImplERKN7openpal6RSliceE
	.type	_ZN7asiopal13SerialChannel14BeginWriteImplERKN7openpal6RSliceE, @function
_ZN7asiopal13SerialChannel14BeginWriteImplERKN7openpal6RSliceE:
.LFB7059:
	.cfi_startproc
	.cfi_personality 0x9b,DW.ref.__gxx_personality_v0
	.cfi_lsda 0x1b,.LLSDA7059
	endbr64
	pushq	%r15
	.cfi_def_cfa_offset 16
	.cfi_offset 15, -16
	pushq	%r14
	.cfi_def_cfa_offset 24
	.cfi_offset 14, -24
	leaq	64(%rdi), %r14
	pushq	%r13
	.cfi_def_cfa_offset 32
	.cfi_offset 13, -32
	movq	%r14, %xmm1
	pushq	%r12
	.cfi_def_cfa_offset 40
	.cfi_offset 12, -40
	pushq	%rbp
	.cfi_def_cfa_offset 48
	.cfi_offset 6, -48
	pushq	%rbx
	.cfi_def_cfa_offset 56
	.cfi_offset 3, -56
	movq	%rdi, %rbx
	subq	$200, %rsp
	.cfi_def_cfa_offset 256
	movl	(%rsi), %r12d
	movq	%fs:40, %rax
	movq	%rax, 184(%rsp)
	movq	24(%rdi), %rax
	movdqu	40(%rax), %xmm0
	movq	8(%rsi), %rax
	movq	%rax, (%rsp)
	movhlps	%xmm0, %xmm3
	movaps	%xmm0, 32(%rsp)
	movq	%xmm3, %rbp
	movhps	(%rsp), %xmm1
	movaps	%xmm1, 16(%rsp)
	call	_ZNSt3_V215system_categoryEv@PLT
	movdqa	16(%rsp), %xmm1
	movdqa	32(%rsp), %xmm0
	movq	%r12, 128(%rsp)
	movq	%rax, %r13
	movl	$65536, %eax
	movl	$1, 136(%rsp)
	cmpq	%rax, %r12
	movq	%rbx, 168(%rsp)
	cmovbe	%r12, %rax
	movaps	%xmm1, 112(%rsp)
	movq	$0, 144(%rsp)
	movq	%rax, 8(%rsp)
	movq	80(%rbx), %rax
	movups	%xmm0, 152(%rsp)
	movq	%rax, 48(%rsp)
	data16	leaq	_ZN4asio6detail15keyword_tss_ptrINS0_10call_stackINS0_14strand_service11strand_implEhE7contextEE6value_E@tlsgd(%rip), %rdi
	.value	0x6666
	rex64
	call	__tls_get_addr@PLT
	movq	(%rax), %rax
	testq	%rax, %rax
	jne	.L1319
	jmp	.L1391
	.p2align 4,,10
	.p2align 3
.L1318:
	movq	16(%rax), %rax
	testq	%rax, %rax
	je	.L1391
.L1319:
	cmpq	%rbp, (%rax)
	jne	.L1318
	cmpq	$0, 8(%rax)
	setne	%al
	setne	32(%rsp)
	movzbl	%al, %eax
	movl	%eax, 60(%rsp)
.L1317:
	pxor	%xmm0, %xmm0
	leaq	112(%rsp), %rax
	movq	%rax, 80(%rsp)
	movups	%xmm0, 88(%rsp)
	data16	leaq	_ZN4asio6detail15keyword_tss_ptrINS0_10call_stackINS0_15task_io_serviceENS0_27task_io_service_thread_infoEE7contextEE6value_E@tlsgd(%rip), %rdi
	.value	0x6666
	rex64
	call	__tls_get_addr@PLT
	movq	(%rax), %rax
	testq	%rax, %rax
	je	.L1320
	movq	8(%rax), %rax
	testq	%rax, %rax
	je	.L1320
	movq	(%rax), %rbp
	testq	%rbp, %rbp
	je	.L1320
	movq	$0, (%rax)
	movzbl	0(%rbp), %eax
	cmpb	$-113, %al
	jbe	.L1321
	movb	%al, 144(%rbp)
	xorl	%edx, %edx
	movl	$1, %ecx
.L1322:
	leaq	_ZN4asio6detail19descriptor_write_opINS_15const_buffers_1ENS0_8write_opINS_17basic_serial_portINS_19serial_port_serviceEEES2_NS0_14transfer_all_tENS0_15wrapped_handlerINS_10io_service6strandEZN7asiopal13SerialChannel14BeginWriteImplERKN7openpal6RSliceEEUlRKSt10error_codemE_NS0_26is_continuation_if_runningEEEEEE11do_completeEPNS0_15task_io_serviceEPNS0_25task_io_service_operationESJ_m(%rip), %rax
	movl	64(%rbx), %r15d
	movdqu	120(%rsp), %xmm4
	movq	%rbp, %xmm2
	movdqu	152(%rsp), %xmm5
	movq	%rax, 8(%rbp)
	punpcklqdq	%xmm2, %xmm2
	movq	_ZN4asio6detail24descriptor_write_op_baseINS_15const_buffers_1EE10do_performEPNS0_10reactor_opE@GOTPCREL(%rip), %rax
	movq	%rbp, 88(%rsp)
	movq	$0, 0(%rbp)
	movq	%rax, 48(%rbp)
	movq	(%rsp), %rax
	movl	$0, 16(%rbp)
	movq	%rax, 64(%rbp)
	movq	8(%rsp), %rax
	movl	$0, 24(%rbp)
	movq	%rax, 72(%rbp)
	movq	168(%rsp), %rax
	movq	%r13, 32(%rbp)
	movq	$0, 40(%rbp)
	movl	%r15d, 56(%rbp)
	movq	%r14, 80(%rbp)
	movl	%ecx, 104(%rbp)
	movq	%rdx, 112(%rbp)
	movq	%rax, 136(%rbp)
	movq	%rbp, 96(%rsp)
	movaps	%xmm2, 16(%rsp)
	movups	%xmm4, 88(%rbp)
	movups	%xmm5, 120(%rbp)
	testq	%r12, %r12
	je	.L1323
	testb	$3, 68(%rbx)
	jne	.L1324
	cmpl	$-1, %r15d
	je	.L1479
	call	__errno_location@PLT
	movl	%r15d, %edi
	leaq	68(%rsp), %rdx
	movl	$21537, %esi
	movl	$0, (%rax)
	movq	%rax, %r14
	xorl	%eax, %eax
	movl	$1, 68(%rsp)
	call	ioctl@PLT
	movq	_ZGVZN4asio15system_categoryEvE8instance@GOTPCREL(%rip), %r12
	movl	%eax, %r15d
	movzbl	(%r12), %eax
	testb	%al, %al
	je	.L1329
.L1461:
	movq	_ZZN4asio15system_categoryEvE8instance@GOTPCREL(%rip), %rcx
.L1330:
	movl	(%r14), %eax
	movq	%rcx, 32(%rbp)
	movl	%eax, 24(%rbp)
	testl	%r15d, %r15d
	jns	.L1480
.L1323:
	movq	48(%rsp), %rax
	movq	40(%rax), %rax
	movq	40(%rax), %rbx
	cmpb	$0, 40(%rbx)
	jne	.L1396
	cmpb	$0, 32(%rsp)
	je	.L1379
.L1396:
	data16	leaq	_ZN4asio6detail15keyword_tss_ptrINS0_10call_stackINS0_15task_io_serviceENS0_27task_io_service_thread_infoEE7contextEE6value_E@tlsgd(%rip), %rdi
	.value	0x6666
	rex64
	call	__tls_get_addr@PLT
	movq	(%rax), %rax
	testq	%rax, %rax
	jne	.L1383
	jmp	.L1379
	.p2align 4,,10
	.p2align 3
.L1381:
	movq	16(%rax), %rax
	testq	%rax, %rax
	je	.L1379
.L1383:
	cmpq	(%rax), %rbx
	jne	.L1381
	movq	8(%rax), %rax
	testq	%rax, %rax
	je	.L1379
	addq	$1, 24(%rax)
	movq	$0, 0(%rbp)
	movq	16(%rax), %rdx
	testq	%rdx, %rdx
	je	.L1384
.L1465:
	movq	%rbp, (%rdx)
	movq	%rbp, 16(%rax)
	jmp	.L1316
	.p2align 4,,10
	.p2align 3
.L1321:
	movq	%rbp, %rdi
	call	_ZdlPv@PLT
.L1320:
	movl	$145, %edi
.LEHB22:
	call	_Znwm@PLT
.LEHE22:
	movq	112(%rsp), %r14
	movl	136(%rsp), %ecx
	movb	$-112, 144(%rax)
	movq	144(%rsp), %rdx
	movq	%rax, %rbp
	jmp	.L1322
	.p2align 4,,10
	.p2align 3
.L1482:
	movq	_ZGVZN4asio15system_categoryEvE8instance@GOTPCREL(%rip), %r12
	movzbl	(%r12), %eax
	testb	%al, %al
	je	.L1334
.L1462:
	movq	_ZZN4asio15system_categoryEvE8instance@GOTPCREL(%rip), %rcx
.L1335:
	movq	40(%r13), %rbx
	movl	$9, 24(%rbp)
	movq	%rcx, 32(%rbp)
	cmpb	$0, 40(%rbx)
	jne	.L1393
	cmpb	$0, 32(%rsp)
	jne	.L1393
	.p2align 4,,10
	.p2align 3
.L1379:
	lock addq	$1, 184(%rbx)
	leaq	48(%rbx), %r12
	movq	%r12, %rdi
	call	pthread_mutex_lock@PLT
	movq	$0, 0(%rbp)
	cmpq	$0, 200(%rbx)
	je	.L1385
	movq	200(%rbx), %rax
	movq	%rbp, (%rax)
	movq	%rbp, 200(%rbx)
.L1386:
	movq	136(%rbx), %rax
	orq	$1, %rax
	movq	%rax, 136(%rbx)
	cmpq	$1, %rax
	je	.L1387
	movq	%r12, %rdi
	call	pthread_mutex_unlock@PLT
	leaq	88(%rbx), %rdi
	call	pthread_cond_signal@PLT
	.p2align 4,,10
	.p2align 3
.L1316:
	movq	184(%rsp), %rax
	subq	%fs:40, %rax
	jne	.L1481
	addq	$200, %rsp
	.cfi_remember_state
	.cfi_def_cfa_offset 56
	popq	%rbx
	.cfi_def_cfa_offset 48
	popq	%rbp
	.cfi_def_cfa_offset 40
	popq	%r12
	.cfi_def_cfa_offset 32
	popq	%r13
	.cfi_def_cfa_offset 24
	popq	%r14
	.cfi_def_cfa_offset 16
	popq	%r15
	.cfi_def_cfa_offset 8
	ret
	.p2align 4,,10
	.p2align 3
.L1480:
	.cfi_restore_state
	movl	$0, 24(%rbp)
	movl	64(%rbx), %r15d
	movq	%r13, 32(%rbp)
	orb	$2, 68(%rbx)
.L1324:
	movq	48(%rsp), %rax
	movq	72(%rbx), %r12
	movq	40(%rax), %r13
	testq	%r12, %r12
	je	.L1482
	addq	$40, %r12
	movq	%r12, %rdi
	call	pthread_mutex_lock@PLT
	movq	72(%rbx), %rax
	cmpb	$0, 144(%rax)
	jne	.L1483
	cmpq	$0, 112(%rax)
	je	.L1484
.L1362:
	movq	120(%rax), %rdx
	movq	$0, 0(%rbp)
	testq	%rdx, %rdx
	je	.L1376
	movq	%rbp, (%rdx)
	movq	%rbp, 120(%rax)
.L1377:
	movq	40(%r13), %rax
	lock addq	$1, 184(%rax)
	movq	%r12, %rdi
	call	pthread_mutex_unlock@PLT
	jmp	.L1316
	.p2align 4,,10
	.p2align 3
.L1387:
	cmpb	$0, 176(%rbx)
	jne	.L1356
	movq	144(%rbx), %rax
	testq	%rax, %rax
	je	.L1356
	movb	$1, 176(%rbx)
	leaq	88(%rax), %rdx
	leaq	68(%rsp), %rcx
	movl	$3, %esi
	movl	$-2147483639, 68(%rsp)
	movq	%rdx, 72(%rsp)
	movl	88(%rax), %edx
	movl	96(%rax), %edi
	call	epoll_ctl@PLT
.L1356:
	movq	%r12, %rdi
	call	pthread_mutex_unlock@PLT
	jmp	.L1316
	.p2align 4,,10
	.p2align 3
.L1391:
	movl	$0, 60(%rsp)
	movb	$0, 32(%rsp)
	jmp	.L1317
	.p2align 4,,10
	.p2align 3
.L1384:
	movdqa	16(%rsp), %xmm7
	movups	%xmm7, 8(%rax)
	jmp	.L1316
	.p2align 4,,10
	.p2align 3
.L1376:
	movdqa	16(%rsp), %xmm7
	movups	%xmm7, 112(%rax)
	jmp	.L1377
	.p2align 4,,10
	.p2align 3
.L1329:
	movq	%r12, %rdi
	call	__cxa_guard_acquire@PLT
	testl	%eax, %eax
	je	.L1461
	movq	_ZZN4asio15system_categoryEvE8instance@GOTPCREL(%rip), %rcx
	movq	_ZN4asio6detail15system_categoryD1Ev@GOTPCREL(%rip), %rdi
	leaq	__dso_handle(%rip), %rdx
	movq	%rcx, %rsi
	movq	%rcx, (%rsp)
	call	__cxa_atexit@PLT
	movq	%r12, %rdi
	call	__cxa_guard_release@PLT
	movq	(%rsp), %rcx
	jmp	.L1330
	.p2align 4,,10
	.p2align 3
.L1385:
	movdqa	16(%rsp), %xmm6
	movups	%xmm6, 192(%rbx)
	jmp	.L1386
	.p2align 4,,10
	.p2align 3
.L1393:
	data16	leaq	_ZN4asio6detail15keyword_tss_ptrINS0_10call_stackINS0_15task_io_serviceENS0_27task_io_service_thread_infoEE7contextEE6value_E@tlsgd(%rip), %rdi
	.value	0x6666
	rex64
	call	__tls_get_addr@PLT
	movq	(%rax), %rax
	testq	%rax, %rax
	jne	.L1341
	jmp	.L1379
	.p2align 4,,10
	.p2align 3
.L1339:
	movq	16(%rax), %rax
	testq	%rax, %rax
	je	.L1379
.L1341:
	cmpq	(%rax), %rbx
	jne	.L1339
.L1478:
	movq	8(%rax), %rax
	testq	%rax, %rax
	je	.L1379
	addq	$1, 24(%rax)
	movq	$0, 0(%rbp)
	movq	16(%rax), %rdx
	testq	%rdx, %rdx
	jne	.L1465
	movdqa	16(%rsp), %xmm6
	movups	%xmm6, 8(%rax)
	jmp	.L1316
	.p2align 4,,10
	.p2align 3
.L1483:
	movq	40(%r13), %rbx
	cmpb	$0, 40(%rbx)
	jne	.L1394
	cmpb	$0, 32(%rsp)
	je	.L1350
.L1394:
	data16	leaq	_ZN4asio6detail15keyword_tss_ptrINS0_10call_stackINS0_15task_io_serviceENS0_27task_io_service_thread_infoEE7contextEE6value_E@tlsgd(%rip), %rdi
	.value	0x6666
	rex64
	call	__tls_get_addr@PLT
	movq	(%rax), %rax
	testq	%rax, %rax
	jne	.L1354
	jmp	.L1350
	.p2align 4,,10
	.p2align 3
.L1352:
	movq	16(%rax), %rax
	testq	%rax, %rax
	je	.L1350
.L1354:
	cmpq	(%rax), %rbx
	jne	.L1352
	movq	8(%rax), %rax
	testq	%rax, %rax
	je	.L1350
	addq	$1, 24(%rax)
	movq	$0, 0(%rbp)
	movq	16(%rax), %rdx
	testq	%rdx, %rdx
	je	.L1355
	movq	%rbp, (%rdx)
	movq	%rbp, 16(%rax)
	jmp	.L1356
	.p2align 4,,10
	.p2align 3
.L1479:
	movq	_ZGVZN4asio15system_categoryEvE8instance@GOTPCREL(%rip), %r12
	movzbl	(%r12), %eax
	testb	%al, %al
	je	.L1326
.L1460:
	movq	_ZZN4asio15system_categoryEvE8instance@GOTPCREL(%rip), %rcx
.L1327:
	movl	$9, 24(%rbp)
	movq	%rcx, 32(%rbp)
	jmp	.L1323
	.p2align 4,,10
	.p2align 3
.L1484:
	movq	%rbp, %rdi
.LEHB23:
	call	*48(%rbp)
.LEHE23:
	testb	%al, %al
	jne	.L1485
	movq	72(%rbx), %rax
	movl	92(%rax), %edx
	testb	$4, %dl
	jne	.L1362
	orl	$4, %edx
	movq	%rax, 72(%rsp)
	leaq	68(%rsp), %rcx
	movl	$3, %esi
	movl	%edx, 68(%rsp)
	movl	96(%r13), %edi
	movl	%r15d, %edx
	call	epoll_ctl@PLT
	testl	%eax, %eax
	jne	.L1375
	movq	72(%rbx), %rax
	movl	68(%rsp), %edx
	orl	%edx, 92(%rax)
	jmp	.L1362
.L1334:
	movq	%r12, %rdi
	call	__cxa_guard_acquire@PLT
	testl	%eax, %eax
	je	.L1462
	movq	_ZZN4asio15system_categoryEvE8instance@GOTPCREL(%rip), %rcx
	movq	_ZN4asio6detail15system_categoryD1Ev@GOTPCREL(%rip), %rdi
	leaq	__dso_handle(%rip), %rdx
	movq	%rcx, %rsi
	movq	%rcx, (%rsp)
	call	__cxa_atexit@PLT
	movq	%r12, %rdi
	call	__cxa_guard_release@PLT
	movq	(%rsp), %rcx
	jmp	.L1335
.L1326:
	movq	%r12, %rdi
	call	__cxa_guard_acquire@PLT
	testl	%eax, %eax
	je	.L1460
	movq	_ZZN4asio15system_categoryEvE8instance@GOTPCREL(%rip), %rcx
	movq	_ZN4asio6detail15system_categoryD1Ev@GOTPCREL(%rip), %rdi
	leaq	__dso_handle(%rip), %rdx
	movq	%rcx, %rsi
	movq	%rcx, (%rsp)
	call	__cxa_atexit@PLT
	movq	%r12, %rdi
	call	__cxa_guard_release@PLT
	movq	(%rsp), %rcx
	jmp	.L1327
.L1350:
	lock addq	$1, 184(%rbx)
	leaq	48(%rbx), %r13
	movq	%r13, %rdi
	call	pthread_mutex_lock@PLT
	cmpq	$0, 200(%rbx)
	movq	$0, 0(%rbp)
	je	.L1357
	movq	200(%rbx), %rax
	movq	%rbp, (%rax)
	movq	%rbp, 200(%rbx)
.L1358:
	movq	136(%rbx), %rax
	orq	$1, %rax
	movq	%rax, 136(%rbx)
	cmpq	$1, %rax
	je	.L1359
	movq	%r13, %rdi
	call	pthread_mutex_unlock@PLT
	leaq	88(%rbx), %rdi
	call	pthread_cond_signal@PLT
	jmp	.L1356
.L1359:
	cmpb	$0, 176(%rbx)
	jne	.L1361
	movq	144(%rbx), %rax
	testq	%rax, %rax
	je	.L1361
	movb	$1, 176(%rbx)
	leaq	88(%rax), %rdx
	leaq	68(%rsp), %rcx
	movl	$3, %esi
	movq	%rdx, 72(%rsp)
	movl	88(%rax), %edx
	movl	$-2147483639, 68(%rsp)
	movl	96(%rax), %edi
	call	epoll_ctl@PLT
.L1361:
	movq	%r13, %rdi
	call	pthread_mutex_unlock@PLT
	jmp	.L1356
.L1357:
	movdqa	16(%rsp), %xmm6
	movups	%xmm6, 192(%rbx)
	jmp	.L1358
.L1355:
	movdqa	16(%rsp), %xmm6
	movups	%xmm6, 8(%rax)
	jmp	.L1356
.L1485:
	movq	%r12, %rdi
	call	pthread_mutex_unlock@PLT
	movq	40(%r13), %rbx
	cmpb	$0, 40(%rbx)
	jne	.L1395
	cmpb	$0, 32(%rsp)
	je	.L1379
.L1395:
	data16	leaq	_ZN4asio6detail15keyword_tss_ptrINS0_10call_stackINS0_15task_io_serviceENS0_27task_io_service_thread_infoEE7contextEE6value_E@tlsgd(%rip), %rdi
	.value	0x6666
	rex64
	call	__tls_get_addr@PLT
	movq	(%rax), %rax
	testq	%rax, %rax
	jne	.L1368
	jmp	.L1379
	.p2align 4,,10
	.p2align 3
.L1366:
	movq	16(%rax), %rax
	testq	%rax, %rax
	je	.L1379
.L1368:
	cmpq	(%rax), %rbx
	jne	.L1366
	jmp	.L1478
.L1375:
	call	_ZN4asio15system_categoryEv@PLT
	movq	%rax, %rbx
	call	__errno_location@PLT
	movq	40(%r13), %rdi
	movl	60(%rsp), %edx
	movq	%rbp, %rsi
	movl	(%rax), %eax
	movq	%rbx, 32(%rbp)
	movl	%eax, 24(%rbp)
	call	_ZN4asio6detail15task_io_service25post_immediate_completionEPNS0_25task_io_service_operationEb@PLT
	jmp	.L1356
.L1481:
	call	__stack_chk_fail@PLT
.L1392:
	endbr64
	movq	%rax, %rbp
	jmp	.L1378
	.section	.gcc_except_table
.LLSDA7059:
	.byte	0xff
	.byte	0xff
	.byte	0x1
	.uleb128 .LLSDACSE7059-.LLSDACSB7059
.LLSDACSB7059:
	.uleb128 .LEHB22-.LFB7059
	.uleb128 .LEHE22-.LEHB22
	.uleb128 0
	.uleb128 0
	.uleb128 .LEHB23-.LFB7059
	.uleb128 .LEHE23-.LEHB23
	.uleb128 .L1392-.LFB7059
	.uleb128 0
.LLSDACSE7059:
	.text
	.cfi_endproc
	.section	.text.unlikely
	.cfi_startproc
	.cfi_personality 0x9b,DW.ref.__gxx_personality_v0
	.cfi_lsda 0x1b,.LLSDAC7059
	.type	_ZN7asiopal13SerialChannel14BeginWriteImplERKN7openpal6RSliceE.cold, @function
_ZN7asiopal13SerialChannel14BeginWriteImplERKN7openpal6RSliceE.cold:
.LFSB7059:
.L1378:
	.cfi_def_cfa_offset 256
	.cfi_offset 3, -56
	.cfi_offset 6, -48
	.cfi_offset 12, -40
	.cfi_offset 13, -32
	.cfi_offset 14, -24
	.cfi_offset 15, -16
	movq	%r12, %rdi
	call	pthread_mutex_unlock@PLT
	leaq	80(%rsp), %rdi
	call	_ZN4asio6detail19descriptor_write_opINS_15const_buffers_1ENS0_8write_opINS_17basic_serial_portINS_19serial_port_serviceEEES2_NS0_14transfer_all_tENS0_15wrapped_handlerINS_10io_service6strandEZN7asiopal13SerialChannel14BeginWriteImplERKN7openpal6RSliceEEUlRKSt10error_codemE_NS0_26is_continuation_if_runningEEEEEE3ptr5resetEv
	movq	%rbp, %rdi
.LEHB24:
	call	_Unwind_Resume@PLT
.LEHE24:
	.cfi_endproc
.LFE7059:
	.section	.gcc_except_table
.LLSDAC7059:
	.byte	0xff
	.byte	0xff
	.byte	0x1
	.uleb128 .LLSDACSEC7059-.LLSDACSBC7059
.LLSDACSBC7059:
	.uleb128 .LEHB24-.LCOLDB31
	.uleb128 .LEHE24-.LEHB24
	.uleb128 0
	.uleb128 0
.LLSDACSEC7059:
	.section	.text.unlikely
	.text
	.size	_ZN7asiopal13SerialChannel14BeginWriteImplERKN7openpal6RSliceE, .-_ZN7asiopal13SerialChannel14BeginWriteImplERKN7openpal6RSliceE
	.section	.text.unlikely
	.size	_ZN7asiopal13SerialChannel14BeginWriteImplERKN7openpal6RSliceE.cold, .-_ZN7asiopal13SerialChannel14BeginWriteImplERKN7openpal6RSliceE.cold
.LCOLDE31:
	.text
.LHOTE31:
	.section	.text._ZN4asio6detail14strand_service16on_dispatch_exitD2Ev,"axG",@progbits,_ZN4asio6detail14strand_service16on_dispatch_exitD5Ev,comdat
	.align 2
	.p2align 4
	.weak	_ZN4asio6detail14strand_service16on_dispatch_exitD2Ev
	.type	_ZN4asio6detail14strand_service16on_dispatch_exitD2Ev, @function
_ZN4asio6detail14strand_service16on_dispatch_exitD2Ev:
.LFB6415:
	.cfi_startproc
	endbr64
	pushq	%r12
	.cfi_def_cfa_offset 16
	.cfi_offset 12, -16
	pushq	%rbp
	.cfi_def_cfa_offset 24
	.cfi_offset 6, -24
	pushq	%rbx
	.cfi_def_cfa_offset 32
	.cfi_offset 3, -32
	movq	%rdi, %rbx
	subq	$48, %rsp
	.cfi_def_cfa_offset 80
	movq	%fs:40, %rax
	movq	%rax, 40(%rsp)
	movq	8(%rdi), %rax
	leaq	24(%rax), %rdi
	call	pthread_mutex_lock@PLT
	movq	8(%rbx), %rdi
	movq	72(%rdi), %rbp
	testq	%rbp, %rbp
	je	.L1517
	movq	96(%rdi), %rax
	testq	%rax, %rax
	je	.L1489
	movq	%rbp, (%rax)
	movq	88(%rdi), %rbp
.L1490:
	movq	80(%rdi), %rax
	pxor	%xmm0, %xmm0
	movups	%xmm0, 72(%rdi)
	movq	%rax, 96(%rdi)
.L1488:
	testq	%rbp, %rbp
	setne	64(%rdi)
	addq	$24, %rdi
	call	pthread_mutex_unlock@PLT
	testq	%rbp, %rbp
	jne	.L1518
.L1486:
	movq	40(%rsp), %rax
	subq	%fs:40, %rax
	jne	.L1516
	addq	$48, %rsp
	.cfi_remember_state
	.cfi_def_cfa_offset 32
	popq	%rbx
	.cfi_def_cfa_offset 24
	popq	%rbp
	.cfi_def_cfa_offset 16
	popq	%r12
	.cfi_def_cfa_offset 8
	ret
	.p2align 4,,10
	.p2align 3
.L1489:
	.cfi_restore_state
	movq	%rbp, 88(%rdi)
	jmp	.L1490
	.p2align 4,,10
	.p2align 3
.L1518:
	movdqu	(%rbx), %xmm0
	movq	(%rbx), %rbp
	movdqa	%xmm0, %xmm1
	movhlps	%xmm0, %xmm2
	cmpb	$0, 40(%rbp)
	punpckhqdq	%xmm0, %xmm1
	movq	%xmm2, %rbx
	movaps	%xmm1, (%rsp)
	je	.L1492
	data16	leaq	_ZN4asio6detail15keyword_tss_ptrINS0_10call_stackINS0_15task_io_serviceENS0_27task_io_service_thread_infoEE7contextEE6value_E@tlsgd(%rip), %rdi
	.value	0x6666
	rex64
	call	__tls_get_addr@PLT
	movq	(%rax), %rax
	testq	%rax, %rax
	jne	.L1495
	jmp	.L1492
	.p2align 4,,10
	.p2align 3
.L1493:
	movq	16(%rax), %rax
	testq	%rax, %rax
	je	.L1492
.L1495:
	cmpq	(%rax), %rbp
	jne	.L1493
	movq	8(%rax), %rax
	testq	%rax, %rax
	je	.L1492
	addq	$1, 24(%rax)
	movq	$0, (%rbx)
	movq	16(%rax), %rdx
	testq	%rdx, %rdx
	je	.L1496
	movq	%rbx, (%rdx)
	movq	%rbx, 16(%rax)
	jmp	.L1486
	.p2align 4,,10
	.p2align 3
.L1492:
	lock addq	$1, 184(%rbp)
	leaq	48(%rbp), %r12
	movq	%r12, %rdi
	call	pthread_mutex_lock@PLT
	cmpq	$0, 200(%rbp)
	movq	$0, (%rbx)
	je	.L1497
	movq	200(%rbp), %rax
	movq	%rbx, (%rax)
	movq	%rbx, 200(%rbp)
.L1498:
	movq	136(%rbp), %rax
	orq	$1, %rax
	movq	%rax, 136(%rbp)
	cmpq	$1, %rax
	je	.L1499
	movq	%r12, %rdi
	call	pthread_mutex_unlock@PLT
	movq	40(%rsp), %rax
	subq	%fs:40, %rax
	jne	.L1516
	addq	$48, %rsp
	.cfi_remember_state
	.cfi_def_cfa_offset 32
	leaq	88(%rbp), %rdi
	popq	%rbx
	.cfi_def_cfa_offset 24
	popq	%rbp
	.cfi_def_cfa_offset 16
	popq	%r12
	.cfi_def_cfa_offset 8
	jmp	pthread_cond_signal@PLT
	.p2align 4,,10
	.p2align 3
.L1517:
	.cfi_restore_state
	movq	88(%rdi), %rbp
	jmp	.L1488
	.p2align 4,,10
	.p2align 3
.L1497:
	movdqa	(%rsp), %xmm3
	movups	%xmm3, 192(%rbp)
	jmp	.L1498
	.p2align 4,,10
	.p2align 3
.L1499:
	cmpb	$0, 176(%rbp)
	jne	.L1501
	movq	144(%rbp), %rax
	testq	%rax, %rax
	je	.L1501
	leaq	88(%rax), %rdx
	movb	$1, 176(%rbp)
	movl	96(%rax), %edi
	leaq	28(%rsp), %rcx
	movq	%rdx, 32(%rsp)
	movl	88(%rax), %edx
	movl	$3, %esi
	movl	$-2147483639, 28(%rsp)
	call	epoll_ctl@PLT
.L1501:
	movq	40(%rsp), %rax
	subq	%fs:40, %rax
	jne	.L1516
	addq	$48, %rsp
	.cfi_remember_state
	.cfi_def_cfa_offset 32
	movq	%r12, %rdi
	popq	%rbx
	.cfi_def_cfa_offset 24
	popq	%rbp
	.cfi_def_cfa_offset 16
	popq	%r12
	.cfi_def_cfa_offset 8
	jmp	pthread_mutex_unlock@PLT
	.p2align 4,,10
	.p2align 3
.L1496:
	.cfi_restore_state
	movdqa	(%rsp), %xmm4
	movups	%xmm4, 8(%rax)
	jmp	.L1486
.L1516:
	call	__stack_chk_fail@PLT
	.cfi_endproc
.LFE6415:
	.size	_ZN4asio6detail14strand_service16on_dispatch_exitD2Ev, .-_ZN4asio6detail14strand_service16on_dispatch_exitD2Ev
	.weak	_ZN4asio6detail14strand_service16on_dispatch_exitD1Ev
	.set	_ZN4asio6detail14strand_service16on_dispatch_exitD1Ev,_ZN4asio6detail14strand_service16on_dispatch_exitD2Ev
	.section	.text.unlikely
	.align 2
.LCOLDB32:
	.text
.LHOTB32:
	.align 2
	.p2align 4
	.type	_ZN4asio6detail14strand_service8dispatchINS0_7binder2IZN7asiopal13SerialChannel13BeginReadImplEN7openpal6WSliceEEUlRKSt10error_codemE_S8_mEEEEvRPNS1_11strand_implERT_, @function
_ZN4asio6detail14strand_service8dispatchINS0_7binder2IZN7asiopal13SerialChannel13BeginReadImplEN7openpal6WSliceEEUlRKSt10error_codemE_S8_mEEEEvRPNS1_11strand_implERT_:
.LFB9409:
	.cfi_startproc
	.cfi_personality 0x9b,DW.ref.__gxx_personality_v0
	.cfi_lsda 0x1b,.LLSDA9409
	pushq	%r14
	.cfi_def_cfa_offset 16
	.cfi_offset 14, -16
	pushq	%r13
	.cfi_def_cfa_offset 24
	.cfi_offset 13, -24
	movq	%rdi, %r13
	pushq	%r12
	.cfi_def_cfa_offset 32
	.cfi_offset 12, -32
	movq	%rsi, %r12
	pushq	%rbp
	.cfi_def_cfa_offset 40
	.cfi_offset 6, -40
	movq	%rdx, %rbp
	pushq	%rbx
	.cfi_def_cfa_offset 48
	.cfi_offset 3, -48
	subq	$160, %rsp
	.cfi_def_cfa_offset 208
	movq	(%rsi), %rbx
	movq	%fs:40, %rax
	movq	%rax, 152(%rsp)
	xorl	%eax, %eax
	data16	leaq	_ZN4asio6detail15keyword_tss_ptrINS0_10call_stackINS0_14strand_service11strand_implEhE7contextEE6value_E@tlsgd(%rip), %rdi
	.value	0x6666
	rex64
	call	__tls_get_addr@PLT
	movq	(%rax), %rax
	testq	%rax, %rax
	jne	.L1523
	jmp	.L1520
	.p2align 4,,10
	.p2align 3
.L1521:
	movq	16(%rax), %rax
	testq	%rax, %rax
	je	.L1520
.L1523:
	cmpq	(%rax), %rbx
	jne	.L1521
	cmpq	$0, 8(%rax)
	je	.L1520
	lfence
	movq	0(%rbp), %rax
	movq	24(%rbp), %rdx
	movq	40(%rax), %rdi
	movb	$0, 57(%rax)
	testq	%rdi, %rdi
	je	.L1526
	cmpb	$0, 56(%rax)
	jne	.L1526
	movq	(%rdi), %rax
	leaq	8(%rbp), %rsi
.LEHB25:
	call	*16(%rax)
.LEHE25:
.L1526:
	sfence
.L1519:
	movq	152(%rsp), %rax
	subq	%fs:40, %rax
	jne	.L1622
	addq	$160, %rsp
	.cfi_remember_state
	.cfi_def_cfa_offset 48
	popq	%rbx
	.cfi_def_cfa_offset 40
	popq	%rbp
	.cfi_def_cfa_offset 32
	popq	%r12
	.cfi_def_cfa_offset 24
	popq	%r13
	.cfi_def_cfa_offset 16
	popq	%r14
	.cfi_def_cfa_offset 8
	ret
	.p2align 4,,10
	.p2align 3
.L1520:
	.cfi_restore_state
	data16	leaq	_ZN4asio6detail15keyword_tss_ptrINS0_10call_stackINS0_15task_io_serviceENS0_27task_io_service_thread_infoEE7contextEE6value_E@tlsgd(%rip), %rdi
	.value	0x6666
	rex64
	call	__tls_get_addr@PLT
	movq	(%rax), %rax
	testq	%rax, %rax
	je	.L1527
	movq	8(%rax), %rax
	testq	%rax, %rax
	je	.L1527
	movq	(%rax), %r14
	testq	%r14, %r14
	je	.L1527
	movq	$0, (%rax)
	movzbl	(%r14), %eax
	cmpb	$55, %al
	jbe	.L1528
	movb	%al, 56(%r14)
	jmp	.L1529
.L1528:
	movq	%r14, %rdi
	call	_ZdlPv@PLT
.L1527:
	movl	$57, %edi
.LEHB26:
	call	_Znwm@PLT
.LEHE26:
	movb	$56, 56(%rax)
	movq	%rax, %r14
.L1529:
	leaq	_ZN4asio6detail18completion_handlerINS0_7binder2IZN7asiopal13SerialChannel13BeginReadImplEN7openpal6WSliceEEUlRKSt10error_codemE_S7_mEEE11do_completeEPNS0_15task_io_serviceEPNS0_25task_io_service_operationES9_m(%rip), %rax
	movdqu	0(%rbp), %xmm3
	movdqu	16(%rbp), %xmm4
	movq	$0, (%r14)
	movq	%rax, 8(%r14)
	movq	%r14, %xmm1
	movq	40(%r13), %rbx
	movl	$0, 16(%r14)
	punpcklqdq	%xmm1, %xmm1
	movups	%xmm3, 24(%r14)
	movups	%xmm4, 40(%r14)
	movaps	%xmm1, (%rsp)
	data16	leaq	_ZN4asio6detail15keyword_tss_ptrINS0_10call_stackINS0_15task_io_serviceENS0_27task_io_service_thread_infoEE7contextEE6value_E@tlsgd(%rip), %rdi
	.value	0x6666
	rex64
	call	__tls_get_addr@PLT
	movq	(%rax), %rax
	testq	%rax, %rax
	jne	.L1534
	jmp	.L1530
	.p2align 4,,10
	.p2align 3
.L1531:
	movq	16(%rax), %rax
	testq	%rax, %rax
	je	.L1530
.L1534:
	cmpq	(%rax), %rbx
	jne	.L1531
	movq	8(%rax), %rbx
	movq	(%r12), %rax
	leaq	24(%rax), %rdi
	call	pthread_mutex_lock@PLT
	testq	%rbx, %rbx
	je	.L1533
	movq	(%r12), %rdi
	cmpb	$0, 64(%rdi)
	je	.L1623
.L1535:
	movq	$0, (%r14)
	movq	80(%rdi), %rax
	testq	%rax, %rax
	je	.L1539
	movq	%r14, (%rax)
	movq	%r14, 80(%rdi)
.L1540:
	movq	152(%rsp), %rax
	subq	%fs:40, %rax
	jne	.L1622
	addq	$24, %rdi
.L1621:
	addq	$160, %rsp
	.cfi_remember_state
	.cfi_def_cfa_offset 48
	popq	%rbx
	.cfi_def_cfa_offset 40
	popq	%rbp
	.cfi_def_cfa_offset 32
	popq	%r12
	.cfi_def_cfa_offset 24
	popq	%r13
	.cfi_def_cfa_offset 16
	popq	%r14
	.cfi_def_cfa_offset 8
	jmp	pthread_mutex_unlock@PLT
.L1623:
	.cfi_restore_state
	movb	$1, 64(%rdi)
	addq	$24, %rdi
	call	pthread_mutex_unlock@PLT
	movq	(%r12), %rbx
	movq	%rbx, %xmm2
	movq	%rbx, 48(%rsp)
	punpcklqdq	%xmm2, %xmm2
	movaps	%xmm2, (%rsp)
	data16	leaq	_ZN4asio6detail15keyword_tss_ptrINS0_10call_stackINS0_14strand_service11strand_implEhE7contextEE6value_E@tlsgd(%rip), %rdi
	.value	0x6666
	rex64
	call	__tls_get_addr@PLT
	movq	40(%r13), %rbp
	movdqu	24(%r14), %xmm7
	movq	%rbx, %xmm6
	leaq	112(%rsp), %r13
	movq	%r14, 88(%rsp)
	movq	%rbp, %xmm0
	movaps	%xmm7, 112(%rsp)
	punpcklqdq	%xmm6, %xmm0
	movdqu	40(%r14), %xmm6
	movq	%r13, 80(%rsp)
	movq	$0, 96(%rsp)
	movaps	%xmm0, 32(%rsp)
	movq	(%rax), %rdx
	movaps	%xmm6, 128(%rsp)
	movq	%rdx, 64(%rsp)
	leaq	48(%rsp), %rdx
	movq	%rdx, (%rax)
	movq	%rdx, 56(%rsp)
	data16	leaq	_ZN4asio6detail15keyword_tss_ptrINS0_10call_stackINS0_15task_io_serviceENS0_27task_io_service_thread_infoEE7contextEE6value_E@tlsgd(%rip), %rdi
	.value	0x6666
	rex64
	call	__tls_get_addr@PLT
	movq	(%rax), %rax
	testq	%rax, %rax
	je	.L1537
	movq	8(%rax), %rax
	testq	%rax, %rax
	je	.L1537
	cmpq	$0, (%rax)
	je	.L1624
.L1537:
	movq	%r14, %rdi
	call	_ZdlPv@PLT
.L1556:
	movq	$0, 88(%rsp)
	testq	%rbp, %rbp
	je	.L1557
	movq	112(%rsp), %rax
	movq	136(%rsp), %rdx
	movq	40(%rax), %rdi
	movb	$0, 57(%rax)
	testq	%rdi, %rdi
	je	.L1559
	cmpb	$0, 56(%rax)
	je	.L1625
.L1559:
	sfence
.L1557:
	leaq	24(%rbx), %r14
	movq	%r14, %rdi
	call	pthread_mutex_lock@PLT
	movq	72(%rbx), %r12
	testq	%r12, %r12
	je	.L1626
	movq	96(%rbx), %rax
	testq	%rax, %rax
	je	.L1563
	movq	%r12, (%rax)
	movq	88(%rbx), %r12
.L1564:
	movq	80(%rbx), %rax
	pxor	%xmm0, %xmm0
	movups	%xmm0, 72(%rbx)
	movq	%rax, 96(%rbx)
.L1561:
	testq	%r12, %r12
	movq	%r14, %rdi
	setne	64(%rbx)
	call	pthread_mutex_unlock@PLT
	testq	%r12, %r12
	jne	.L1627
.L1565:
	data16	leaq	_ZN4asio6detail15keyword_tss_ptrINS0_10call_stackINS0_14strand_service11strand_implEhE7contextEE6value_E@tlsgd(%rip), %rdi
	.value	0x6666
	rex64
	call	__tls_get_addr@PLT
	movq	64(%rsp), %rdx
	movq	%rdx, (%rax)
	jmp	.L1519
	.p2align 4,,10
	.p2align 3
.L1530:
	movq	(%r12), %rax
	leaq	24(%rax), %rdi
	call	pthread_mutex_lock@PLT
.L1533:
	movq	(%r12), %rdi
	cmpb	$0, 64(%rdi)
	leaq	24(%rdi), %r8
	jne	.L1535
	movb	$1, 64(%rdi)
	movq	%r8, %rdi
	call	pthread_mutex_unlock@PLT
	movq	(%r12), %rbp
	movq	$0, (%r14)
	movq	%rbp, %xmm5
	cmpq	$0, 96(%rbp)
	punpcklqdq	%xmm5, %xmm5
	movaps	%xmm5, 16(%rsp)
	je	.L1542
	movq	96(%rbp), %rax
	movq	%r14, (%rax)
	movq	%r14, 96(%rbp)
.L1543:
	movq	40(%r13), %rbx
	cmpb	$0, 40(%rbx)
	je	.L1544
	data16	leaq	_ZN4asio6detail15keyword_tss_ptrINS0_10call_stackINS0_15task_io_serviceENS0_27task_io_service_thread_infoEE7contextEE6value_E@tlsgd(%rip), %rdi
	.value	0x6666
	rex64
	call	__tls_get_addr@PLT
	movq	(%rax), %rax
	testq	%rax, %rax
	jne	.L1547
	jmp	.L1544
	.p2align 4,,10
	.p2align 3
.L1545:
	movq	16(%rax), %rax
	testq	%rax, %rax
	je	.L1544
.L1547:
	cmpq	(%rax), %rbx
	jne	.L1545
	movq	8(%rax), %rax
	testq	%rax, %rax
	je	.L1544
	addq	$1, 24(%rax)
	movq	$0, 0(%rbp)
	movq	16(%rax), %rdx
	testq	%rdx, %rdx
	je	.L1548
	movq	%rbp, (%rdx)
	movq	%rbp, 16(%rax)
	jmp	.L1519
.L1544:
	lock addq	$1, 184(%rbx)
	leaq	48(%rbx), %r12
	movq	%r12, %rdi
	call	pthread_mutex_lock@PLT
	cmpq	$0, 200(%rbx)
	movq	$0, 0(%rbp)
	je	.L1550
	movq	200(%rbx), %rax
	movq	%rbp, (%rax)
	movq	%rbp, 200(%rbx)
.L1551:
	movq	136(%rbx), %rax
	orq	$1, %rax
	movq	%rax, 136(%rbx)
	cmpq	$1, %rax
	je	.L1552
	movq	%r12, %rdi
	call	pthread_mutex_unlock@PLT
	movq	152(%rsp), %rax
	subq	%fs:40, %rax
	jne	.L1622
	addq	$160, %rsp
	.cfi_remember_state
	.cfi_def_cfa_offset 48
	leaq	88(%rbx), %rdi
	popq	%rbx
	.cfi_def_cfa_offset 40
	popq	%rbp
	.cfi_def_cfa_offset 32
	popq	%r12
	.cfi_def_cfa_offset 24
	popq	%r13
	.cfi_def_cfa_offset 16
	popq	%r14
	.cfi_def_cfa_offset 8
	jmp	pthread_cond_signal@PLT
.L1539:
	.cfi_restore_state
	movdqa	(%rsp), %xmm7
	movups	%xmm7, 72(%rdi)
	jmp	.L1540
.L1625:
	movq	(%rdi), %rax
	leaq	120(%rsp), %rsi
.LEHB27:
	call	*16(%rax)
.LEHE27:
	jmp	.L1559
.L1550:
	movdqa	16(%rsp), %xmm5
	movups	%xmm5, 192(%rbx)
	jmp	.L1551
.L1627:
	cmpb	$0, 40(%rbp)
	je	.L1566
	data16	leaq	_ZN4asio6detail15keyword_tss_ptrINS0_10call_stackINS0_15task_io_serviceENS0_27task_io_service_thread_infoEE7contextEE6value_E@tlsgd(%rip), %rdi
	.value	0x6666
	rex64
	call	__tls_get_addr@PLT
	movq	(%rax), %rax
	testq	%rax, %rax
	jne	.L1569
	jmp	.L1566
	.p2align 4,,10
	.p2align 3
.L1567:
	movq	16(%rax), %rax
	testq	%rax, %rax
	je	.L1566
.L1569:
	cmpq	(%rax), %rbp
	jne	.L1567
	movq	8(%rax), %rax
	testq	%rax, %rax
	je	.L1566
	addq	$1, 24(%rax)
	movq	$0, (%rbx)
	movq	16(%rax), %rdx
	testq	%rdx, %rdx
	je	.L1570
	movq	%rbx, (%rdx)
	movq	%rbx, 16(%rax)
	jmp	.L1565
.L1552:
	cmpb	$0, 176(%rbx)
	jne	.L1554
	movq	144(%rbx), %rax
	testq	%rax, %rax
	je	.L1554
	movb	$1, 176(%rbx)
	leaq	88(%rax), %rdx
	leaq	112(%rsp), %rcx
	movl	$3, %esi
	movq	%rdx, 116(%rsp)
	movl	88(%rax), %edx
	movl	$-2147483639, 112(%rsp)
	movl	96(%rax), %edi
	call	epoll_ctl@PLT
.L1554:
	movq	152(%rsp), %rax
	subq	%fs:40, %rax
	jne	.L1622
	movq	%r12, %rdi
	jmp	.L1621
.L1626:
	movq	88(%rbx), %r12
	jmp	.L1561
.L1566:
	lock addq	$1, 184(%rbp)
	leaq	48(%rbp), %r12
	movq	%r12, %rdi
	call	pthread_mutex_lock@PLT
	cmpq	$0, 200(%rbp)
	movq	$0, (%rbx)
	je	.L1571
	movq	200(%rbp), %rax
	movq	%rbx, (%rax)
	movq	%rbx, 200(%rbp)
.L1572:
	movq	136(%rbp), %rax
	orq	$1, %rax
	movq	%rax, 136(%rbp)
	cmpq	$1, %rax
	je	.L1573
	movq	%r12, %rdi
	call	pthread_mutex_unlock@PLT
	leaq	88(%rbp), %rdi
	call	pthread_cond_signal@PLT
	jmp	.L1565
.L1563:
	movq	%r12, 88(%rbx)
	jmp	.L1564
.L1573:
	cmpb	$0, 176(%rbp)
	jne	.L1575
	movq	144(%rbp), %rax
	testq	%rax, %rax
	je	.L1575
	movb	$1, 176(%rbp)
	leaq	88(%rax), %rdx
	movq	%r13, %rcx
	movl	$3, %esi
	movq	%rdx, 116(%rsp)
	movl	88(%rax), %edx
	movl	$-2147483639, 112(%rsp)
	movl	96(%rax), %edi
	call	epoll_ctl@PLT
.L1575:
	movq	%r12, %rdi
	call	pthread_mutex_unlock@PLT
	jmp	.L1565
.L1542:
	movdqa	(%rsp), %xmm7
	movups	%xmm7, 88(%rbp)
	jmp	.L1543
.L1624:
	movzbl	56(%r14), %edx
	movb	%dl, (%r14)
	movq	%r14, (%rax)
	jmp	.L1556
.L1571:
	movdqa	(%rsp), %xmm5
	movups	%xmm5, 192(%rbp)
	jmp	.L1572
.L1548:
	movdqa	16(%rsp), %xmm7
	movups	%xmm7, 8(%rax)
	jmp	.L1519
.L1570:
	movdqa	(%rsp), %xmm7
	movups	%xmm7, 8(%rax)
	jmp	.L1565
.L1622:
	call	__stack_chk_fail@PLT
.L1579:
	endbr64
	movq	%rax, %rbp
	jmp	.L1562
.L1578:
	endbr64
	movq	%rax, %rdi
	jmp	.L1576
	.section	.gcc_except_table
.LLSDA9409:
	.byte	0xff
	.byte	0xff
	.byte	0x1
	.uleb128 .LLSDACSE9409-.LLSDACSB9409
.LLSDACSB9409:
	.uleb128 .LEHB25-.LFB9409
	.uleb128 .LEHE25-.LEHB25
	.uleb128 .L1578-.LFB9409
	.uleb128 0
	.uleb128 .LEHB26-.LFB9409
	.uleb128 .LEHE26-.LEHB26
	.uleb128 0
	.uleb128 0
	.uleb128 .LEHB27-.LFB9409
	.uleb128 .LEHE27-.LEHB27
	.uleb128 .L1579-.LFB9409
	.uleb128 0
.LLSDACSE9409:
	.text
	.cfi_endproc
	.section	.text.unlikely
	.cfi_startproc
	.cfi_personality 0x9b,DW.ref.__gxx_personality_v0
	.cfi_lsda 0x1b,.LLSDAC9409
	.type	_ZN4asio6detail14strand_service8dispatchINS0_7binder2IZN7asiopal13SerialChannel13BeginReadImplEN7openpal6WSliceEEUlRKSt10error_codemE_S8_mEEEEvRPNS1_11strand_implERT_.cold, @function
_ZN4asio6detail14strand_service8dispatchINS0_7binder2IZN7asiopal13SerialChannel13BeginReadImplEN7openpal6WSliceEEUlRKSt10error_codemE_S8_mEEEEvRPNS1_11strand_implERT_.cold:
.LFSB9409:
.L1562:
	.cfi_def_cfa_offset 208
	.cfi_offset 3, -48
	.cfi_offset 6, -40
	.cfi_offset 12, -32
	.cfi_offset 13, -24
	.cfi_offset 14, -16
	sfence
	leaq	80(%rsp), %rdi
	call	_ZN4asio6detail18completion_handlerINS0_7binder2IZN7asiopal13SerialChannel13BeginReadImplEN7openpal6WSliceEEUlRKSt10error_codemE_S7_mEEE3ptr5resetEv
	leaq	32(%rsp), %rdi
	call	_ZN4asio6detail14strand_service16on_dispatch_exitD1Ev@PLT
	data16	leaq	_ZN4asio6detail15keyword_tss_ptrINS0_10call_stackINS0_14strand_service11strand_implEhE7contextEE6value_E@tlsgd(%rip), %rdi
	.value	0x6666
	rex64
	call	__tls_get_addr@PLT
	movq	64(%rsp), %rdx
	movq	%rbp, %rdi
	movq	%rdx, (%rax)
.LEHB28:
	call	_Unwind_Resume@PLT
.L1576:
	sfence
	call	_Unwind_Resume@PLT
.LEHE28:
	.cfi_endproc
.LFE9409:
	.section	.gcc_except_table
.LLSDAC9409:
	.byte	0xff
	.byte	0xff
	.byte	0x1
	.uleb128 .LLSDACSEC9409-.LLSDACSBC9409
.LLSDACSBC9409:
	.uleb128 .LEHB28-.LCOLDB32
	.uleb128 .LEHE28-.LEHB28
	.uleb128 0
	.uleb128 0
.LLSDACSEC9409:
	.section	.text.unlikely
	.text
	.size	_ZN4asio6detail14strand_service8dispatchINS0_7binder2IZN7asiopal13SerialChannel13BeginReadImplEN7openpal6WSliceEEUlRKSt10error_codemE_S8_mEEEEvRPNS1_11strand_implERT_, .-_ZN4asio6detail14strand_service8dispatchINS0_7binder2IZN7asiopal13SerialChannel13BeginReadImplEN7openpal6WSliceEEUlRKSt10error_codemE_S8_mEEEEvRPNS1_11strand_implERT_
	.section	.text.unlikely
	.size	_ZN4asio6detail14strand_service8dispatchINS0_7binder2IZN7asiopal13SerialChannel13BeginReadImplEN7openpal6WSliceEEUlRKSt10error_codemE_S8_mEEEEvRPNS1_11strand_implERT_.cold, .-_ZN4asio6detail14strand_service8dispatchINS0_7binder2IZN7asiopal13SerialChannel13BeginReadImplEN7openpal6WSliceEEUlRKSt10error_codemE_S8_mEEEEvRPNS1_11strand_implERT_.cold
.LCOLDE32:
	.text
.LHOTE32:
	.section	.text.unlikely
.LCOLDB33:
	.text
.LHOTB33:
	.p2align 4
	.type	_ZN4asio6detail18completion_handlerINS0_17rewrapped_handlerINS0_7binder2INS0_15wrapped_handlerINS_10io_service6strandEZN7asiopal13SerialChannel13BeginReadImplEN7openpal6WSliceEEUlRKSt10error_codemE_NS0_26is_continuation_if_runningEEESB_mEESE_EEE11do_completeEPNS0_15task_io_serviceEPNS0_25task_io_service_operationESD_m, @function
_ZN4asio6detail18completion_handlerINS0_17rewrapped_handlerINS0_7binder2INS0_15wrapped_handlerINS_10io_service6strandEZN7asiopal13SerialChannel13BeginReadImplEN7openpal6WSliceEEUlRKSt10error_codemE_NS0_26is_continuation_if_runningEEESB_mEESE_EEE11do_completeEPNS0_15task_io_serviceEPNS0_25task_io_service_operationESD_m:
.LFB9337:
	.cfi_startproc
	.cfi_personality 0x9b,DW.ref.__gxx_personality_v0
	.cfi_lsda 0x1b,.LLSDA9337
	endbr64
	pushq	%rbp
	.cfi_def_cfa_offset 16
	.cfi_offset 6, -16
	movq	%rsi, %rbp
	pushq	%rbx
	.cfi_def_cfa_offset 24
	.cfi_offset 3, -24
	movq	%rdi, %rbx
	subq	$152, %rsp
	.cfi_def_cfa_offset 176
	movdqu	32(%rsi), %xmm0
	movdqu	56(%rsi), %xmm1
	movq	%fs:40, %rax
	movq	%rax, 136(%rsp)
	xorl	%eax, %eax
	movq	24(%rsi), %rax
	movq	%rsi, 8(%rsp)
	movq	$0, 16(%rsp)
	movq	%rax, 80(%rsp)
	movq	48(%rsi), %rax
	movups	%xmm0, 88(%rsp)
	movq	%rax, 104(%rsp)
	movq	72(%rsi), %rax
	movaps	%xmm1, 112(%rsp)
	movq	%rax, 128(%rsp)
	leaq	80(%rsp), %rax
	movq	%rax, (%rsp)
	data16	leaq	_ZN4asio6detail15keyword_tss_ptrINS0_10call_stackINS0_15task_io_serviceENS0_27task_io_service_thread_infoEE7contextEE6value_E@tlsgd(%rip), %rdi
	.value	0x6666
	rex64
	call	__tls_get_addr@PLT
	movq	(%rax), %rax
	testq	%rax, %rax
	je	.L1629
	movq	8(%rax), %rax
	testq	%rax, %rax
	je	.L1629
	cmpq	$0, (%rax)
	je	.L1645
.L1629:
	movq	%rbp, %rdi
	call	_ZdlPv@PLT
.L1630:
	movq	$0, 8(%rsp)
	testq	%rbx, %rbx
	je	.L1628
	movq	104(%rsp), %rax
	movq	88(%rsp), %rdi
	leaq	32(%rsp), %rdx
	leaq	96(%rsp), %rsi
	movq	%rax, 32(%rsp)
	movl	112(%rsp), %eax
	movl	%eax, 40(%rsp)
	movq	120(%rsp), %rax
	movq	%rax, 48(%rsp)
	movq	128(%rsp), %rax
	movq	%rax, 56(%rsp)
.LEHB29:
	call	_ZN4asio6detail14strand_service8dispatchINS0_7binder2IZN7asiopal13SerialChannel13BeginReadImplEN7openpal6WSliceEEUlRKSt10error_codemE_S8_mEEEEvRPNS1_11strand_implERT_
.LEHE29:
	sfence
.L1628:
	movq	136(%rsp), %rax
	subq	%fs:40, %rax
	jne	.L1646
	addq	$152, %rsp
	.cfi_remember_state
	.cfi_def_cfa_offset 24
	popq	%rbx
	.cfi_def_cfa_offset 16
	popq	%rbp
	.cfi_def_cfa_offset 8
	ret
	.p2align 4,,10
	.p2align 3
.L1645:
	.cfi_restore_state
	movzbl	80(%rbp), %edx
	movb	%dl, 0(%rbp)
	movq	%rbp, (%rax)
	jmp	.L1630
.L1646:
	call	__stack_chk_fail@PLT
.L1634:
	endbr64
	movq	%rax, %rbp
	jmp	.L1632
	.section	.gcc_except_table
.LLSDA9337:
	.byte	0xff
	.byte	0xff
	.byte	0x1
	.uleb128 .LLSDACSE9337-.LLSDACSB9337
.LLSDACSB9337:
	.uleb128 .LEHB29-.LFB9337
	.uleb128 .LEHE29-.LEHB29
	.uleb128 .L1634-.LFB9337
	.uleb128 0
.LLSDACSE9337:
	.text
	.cfi_endproc
	.section	.text.unlikely
	.cfi_startproc
	.cfi_personality 0x9b,DW.ref.__gxx_personality_v0
	.cfi_lsda 0x1b,.LLSDAC9337
	.type	_ZN4asio6detail18completion_handlerINS0_17rewrapped_handlerINS0_7binder2INS0_15wrapped_handlerINS_10io_service6strandEZN7asiopal13SerialChannel13BeginReadImplEN7openpal6WSliceEEUlRKSt10error_codemE_NS0_26is_continuation_if_runningEEESB_mEESE_EEE11do_completeEPNS0_15task_io_serviceEPNS0_25task_io_service_operationESD_m.cold, @function
_ZN4asio6detail18completion_handlerINS0_17rewrapped_handlerINS0_7binder2INS0_15wrapped_handlerINS_10io_service6strandEZN7asiopal13SerialChannel13BeginReadImplEN7openpal6WSliceEEUlRKSt10error_codemE_NS0_26is_continuation_if_runningEEESB_mEESE_EEE11do_completeEPNS0_15task_io_serviceEPNS0_25task_io_service_operationESD_m.cold:
.LFSB9337:
.L1632:
	.cfi_def_cfa_offset 176
	.cfi_offset 3, -24
	.cfi_offset 6, -16
	sfence
	movq	%rsp, %rdi
	call	_ZN4asio6detail18completion_handlerINS0_17rewrapped_handlerINS0_7binder2INS0_15wrapped_handlerINS_10io_service6strandEZN7asiopal13SerialChannel13BeginReadImplEN7openpal6WSliceEEUlRKSt10error_codemE_NS0_26is_continuation_if_runningEEESB_mEESE_EEE3ptr5resetEv
	movq	%rbp, %rdi
.LEHB30:
	call	_Unwind_Resume@PLT
.LEHE30:
	.cfi_endproc
.LFE9337:
	.section	.gcc_except_table
.LLSDAC9337:
	.byte	0xff
	.byte	0xff
	.byte	0x1
	.uleb128 .LLSDACSEC9337-.LLSDACSBC9337
.LLSDACSBC9337:
	.uleb128 .LEHB30-.LCOLDB33
	.uleb128 .LEHE30-.LEHB30
	.uleb128 0
	.uleb128 0
.LLSDACSEC9337:
	.section	.text.unlikely
	.text
	.size	_ZN4asio6detail18completion_handlerINS0_17rewrapped_handlerINS0_7binder2INS0_15wrapped_handlerINS_10io_service6strandEZN7asiopal13SerialChannel13BeginReadImplEN7openpal6WSliceEEUlRKSt10error_codemE_NS0_26is_continuation_if_runningEEESB_mEESE_EEE11do_completeEPNS0_15task_io_serviceEPNS0_25task_io_service_operationESD_m, .-_ZN4asio6detail18completion_handlerINS0_17rewrapped_handlerINS0_7binder2INS0_15wrapped_handlerINS_10io_service6strandEZN7asiopal13SerialChannel13BeginReadImplEN7openpal6WSliceEEUlRKSt10error_codemE_NS0_26is_continuation_if_runningEEESB_mEESE_EEE11do_completeEPNS0_15task_io_serviceEPNS0_25task_io_service_operationESD_m
	.section	.text.unlikely
	.size	_ZN4asio6detail18completion_handlerINS0_17rewrapped_handlerINS0_7binder2INS0_15wrapped_handlerINS_10io_service6strandEZN7asiopal13SerialChannel13BeginReadImplEN7openpal6WSliceEEUlRKSt10error_codemE_NS0_26is_continuation_if_runningEEESB_mEESE_EEE11do_completeEPNS0_15task_io_serviceEPNS0_25task_io_service_operationESD_m.cold, .-_ZN4asio6detail18completion_handlerINS0_17rewrapped_handlerINS0_7binder2INS0_15wrapped_handlerINS_10io_service6strandEZN7asiopal13SerialChannel13BeginReadImplEN7openpal6WSliceEEUlRKSt10error_codemE_NS0_26is_continuation_if_runningEEESB_mEESE_EEE11do_completeEPNS0_15task_io_serviceEPNS0_25task_io_service_operationESD_m.cold
.LCOLDE33:
	.text
.LHOTE33:
	.section	.text.unlikely
.LCOLDB34:
	.text
.LHOTB34:
	.p2align 4
	.type	_ZN4asio6detail18descriptor_read_opINS_17mutable_buffers_1ENS0_15wrapped_handlerINS_10io_service6strandEZN7asiopal13SerialChannel13BeginReadImplEN7openpal6WSliceEEUlRKSt10error_codemE_NS0_26is_continuation_if_runningEEEE11do_completeEPNS0_15task_io_serviceEPNS0_25task_io_service_operationESC_m, @function
_ZN4asio6detail18descriptor_read_opINS_17mutable_buffers_1ENS0_15wrapped_handlerINS_10io_service6strandEZN7asiopal13SerialChannel13BeginReadImplEN7openpal6WSliceEEUlRKSt10error_codemE_NS0_26is_continuation_if_runningEEEE11do_completeEPNS0_15task_io_serviceEPNS0_25task_io_service_operationESC_m:
.LFB9031:
	.cfi_startproc
	.cfi_personality 0x9b,DW.ref.__gxx_personality_v0
	.cfi_lsda 0x1b,.LLSDA9031
	endbr64
	pushq	%r14
	.cfi_def_cfa_offset 16
	.cfi_offset 14, -16
	pushq	%r13
	.cfi_def_cfa_offset 24
	.cfi_offset 13, -24
	pushq	%r12
	.cfi_def_cfa_offset 32
	.cfi_offset 12, -32
	pushq	%rbp
	.cfi_def_cfa_offset 40
	.cfi_offset 6, -40
	movq	%rsi, %rbp
	pushq	%rbx
	.cfi_def_cfa_offset 48
	.cfi_offset 3, -48
	movq	%rdi, %rbx
	subq	$448, %rsp
	.cfi_def_cfa_offset 496
	movdqu	80(%rsi), %xmm3
	movdqu	24(%rsi), %xmm4
	movq	%fs:40, %rax
	movq	%rax, 440(%rsp)
	xorl	%eax, %eax
	movq	96(%rsi), %rax
	movq	%rsi, 56(%rsp)
	movq	$0, 64(%rsp)
	movq	%rax, 208(%rsp)
	movq	40(%rsi), %rax
	movaps	%xmm3, 192(%rsp)
	movq	%rax, 232(%rsp)
	leaq	192(%rsp), %rax
	movq	%rax, 48(%rsp)
	movups	%xmm4, 216(%rsp)
	data16	leaq	_ZN4asio6detail15keyword_tss_ptrINS0_10call_stackINS0_15task_io_serviceENS0_27task_io_service_thread_infoEE7contextEE6value_E@tlsgd(%rip), %rdi
	.value	0x6666
	rex64
	call	__tls_get_addr@PLT
	movq	(%rax), %rax
	testq	%rax, %rax
	je	.L1648
	movq	8(%rax), %rax
	testq	%rax, %rax
	je	.L1648
	cmpq	$0, (%rax)
	je	.L1771
.L1648:
	movq	%rbp, %rdi
	call	_ZdlPv@PLT
.L1649:
	movq	$0, 56(%rsp)
	testq	%rbx, %rbx
	je	.L1647
	movq	208(%rsp), %rax
	movq	232(%rsp), %rbx
	movq	192(%rsp), %r12
	movq	200(%rsp), %rbp
	movdqa	192(%rsp), %xmm1
	movq	%rax, 240(%rsp)
	movdqu	216(%rsp), %xmm0
	movq	%rax, 264(%rsp)
	movq	%rax, 368(%rsp)
	movq	%rax, 392(%rsp)
	movq	%rbx, 416(%rsp)
	movups	%xmm1, 248(%rsp)
	movaps	%xmm0, 272(%rsp)
	movups	%xmm1, 376(%rsp)
	movaps	%xmm0, 400(%rsp)
	data16	leaq	_ZN4asio6detail15keyword_tss_ptrINS0_10call_stackINS0_14strand_service11strand_implEhE7contextEE6value_E@tlsgd(%rip), %rdi
	.value	0x6666
	rex64
	call	__tls_get_addr@PLT
	movq	(%rax), %rax
	testq	%rax, %rax
	jne	.L1654
	jmp	.L1651
	.p2align 4,,10
	.p2align 3
.L1652:
	movq	16(%rax), %rax
	testq	%rax, %rax
	je	.L1651
.L1654:
	cmpq	(%rax), %rbp
	jne	.L1652
	cmpq	$0, 8(%rax)
	je	.L1651
	lfence
	movq	392(%rsp), %rax
	leaq	304(%rsp), %rdx
	leaq	384(%rsp), %rsi
	movq	376(%rsp), %rdi
	movq	%rbx, 328(%rsp)
	movq	%rax, 304(%rsp)
	movl	400(%rsp), %eax
	movl	%eax, 312(%rsp)
	movq	408(%rsp), %rax
	movq	%rax, 320(%rsp)
.LEHB31:
	call	_ZN4asio6detail14strand_service8dispatchINS0_7binder2IZN7asiopal13SerialChannel13BeginReadImplEN7openpal6WSliceEEUlRKSt10error_codemE_S8_mEEEEvRPNS1_11strand_implERT_
.LEHE31:
	sfence
	sfence
.L1647:
	movq	440(%rsp), %rax
	subq	%fs:40, %rax
	jne	.L1770
	addq	$448, %rsp
	.cfi_remember_state
	.cfi_def_cfa_offset 48
	popq	%rbx
	.cfi_def_cfa_offset 40
	popq	%rbp
	.cfi_def_cfa_offset 32
	popq	%r12
	.cfi_def_cfa_offset 24
	popq	%r13
	.cfi_def_cfa_offset 16
	popq	%r14
	.cfi_def_cfa_offset 8
	ret
	.p2align 4,,10
	.p2align 3
.L1651:
	.cfi_restore_state
	data16	leaq	_ZN4asio6detail15keyword_tss_ptrINS0_10call_stackINS0_15task_io_serviceENS0_27task_io_service_thread_infoEE7contextEE6value_E@tlsgd(%rip), %rdi
	.value	0x6666
	rex64
	call	__tls_get_addr@PLT
	movq	(%rax), %rax
	testq	%rax, %rax
	je	.L1656
	movq	8(%rax), %rax
	testq	%rax, %rax
	je	.L1656
	movq	(%rax), %rbp
	testq	%rbp, %rbp
	je	.L1656
	movq	$0, (%rax)
	movzbl	0(%rbp), %eax
	cmpb	$79, %al
	jbe	.L1657
	movb	%al, 80(%rbp)
	jmp	.L1658
	.p2align 4,,10
	.p2align 3
.L1657:
	movq	%rbp, %rdi
	call	_ZdlPv@PLT
.L1656:
	movl	$81, %edi
.LEHB32:
	call	_Znwm@PLT
.LEHE32:
	movb	$80, 80(%rax)
	movq	%rax, %rbp
.L1658:
	leaq	_ZN4asio6detail18completion_handlerINS0_17rewrapped_handlerINS0_7binder2INS0_15wrapped_handlerINS_10io_service6strandEZN7asiopal13SerialChannel13BeginReadImplEN7openpal6WSliceEEUlRKSt10error_codemE_NS0_26is_continuation_if_runningEEESB_mEESE_EEE11do_completeEPNS0_15task_io_serviceEPNS0_25task_io_service_operationESD_m(%rip), %rax
	movq	%rbx, 72(%rbp)
	movdqu	376(%rsp), %xmm6
	movq	%rbp, %xmm2
	movq	%rax, 8(%rbp)
	punpcklqdq	%xmm2, %xmm2
	movq	368(%rsp), %rax
	movdqa	400(%rsp), %xmm7
	movups	%xmm6, 32(%rbp)
	movq	40(%r12), %rbx
	movq	%rax, 24(%rbp)
	movq	392(%rsp), %rax
	movq	$0, 0(%rbp)
	movl	$0, 16(%rbp)
	movq	%rax, 48(%rbp)
	movups	%xmm7, 56(%rbp)
	movaps	%xmm2, (%rsp)
	data16	leaq	_ZN4asio6detail15keyword_tss_ptrINS0_10call_stackINS0_15task_io_serviceENS0_27task_io_service_thread_infoEE7contextEE6value_E@tlsgd(%rip), %rdi
	.value	0x6666
	rex64
	call	__tls_get_addr@PLT
	movq	(%rax), %rax
	testq	%rax, %rax
	jne	.L1663
	jmp	.L1659
	.p2align 4,,10
	.p2align 3
.L1660:
	movq	16(%rax), %rax
	testq	%rax, %rax
	je	.L1659
.L1663:
	cmpq	(%rax), %rbx
	jne	.L1660
	movq	8(%rax), %rbx
	movq	200(%rsp), %rax
	leaq	24(%rax), %rdi
	call	pthread_mutex_lock@PLT
	testq	%rbx, %rbx
	je	.L1662
	movq	200(%rsp), %rax
	cmpb	$0, 64(%rax)
	leaq	24(%rax), %rdi
	je	.L1772
.L1664:
	movq	$0, 0(%rbp)
	movq	80(%rax), %rdx
	testq	%rdx, %rdx
	je	.L1668
	movq	%rbp, (%rdx)
	movq	%rbp, 80(%rax)
.L1669:
	call	pthread_mutex_unlock@PLT
	sfence
	jmp	.L1647
.L1772:
	movb	$1, 64(%rax)
	leaq	304(%rsp), %r13
	call	pthread_mutex_unlock@PLT
	movq	200(%rsp), %rbx
	movq	%rbx, %xmm5
	movq	%rbx, 80(%rsp)
	punpcklqdq	%xmm5, %xmm5
	movaps	%xmm5, (%rsp)
	data16	leaq	_ZN4asio6detail15keyword_tss_ptrINS0_10call_stackINS0_14strand_service11strand_implEhE7contextEE6value_E@tlsgd(%rip), %rdi
	.value	0x6666
	rex64
	call	__tls_get_addr@PLT
	movq	40(%r12), %r12
	movq	%rbx, %xmm7
	movdqu	32(%rbp), %xmm5
	movq	%rbp, 120(%rsp)
	movq	%r12, %xmm0
	movq	%r13, 112(%rsp)
	movq	$0, 128(%rsp)
	punpcklqdq	%xmm7, %xmm0
	movdqu	56(%rbp), %xmm7
	movaps	%xmm0, 32(%rsp)
	movq	(%rax), %rdx
	movq	%rdx, 96(%rsp)
	leaq	80(%rsp), %rdx
	movq	%rdx, (%rax)
	movq	24(%rbp), %rax
	movq	%rdx, 88(%rsp)
	movq	%rax, 304(%rsp)
	movq	48(%rbp), %rax
	movups	%xmm5, 312(%rsp)
	movq	%rax, 328(%rsp)
	movq	72(%rbp), %rax
	movaps	%xmm7, 336(%rsp)
	movq	%rax, 352(%rsp)
	data16	leaq	_ZN4asio6detail15keyword_tss_ptrINS0_10call_stackINS0_15task_io_serviceENS0_27task_io_service_thread_infoEE7contextEE6value_E@tlsgd(%rip), %rdi
	.value	0x6666
	rex64
	call	__tls_get_addr@PLT
	movq	(%rax), %rax
	testq	%rax, %rax
	je	.L1666
	movq	8(%rax), %rax
	testq	%rax, %rax
	je	.L1666
	cmpq	$0, (%rax)
	je	.L1773
.L1666:
	movq	%rbp, %rdi
	call	_ZdlPv@PLT
.L1683:
	movq	$0, 120(%rsp)
	testq	%r12, %r12
	je	.L1684
	movq	328(%rsp), %rax
	movq	312(%rsp), %rdi
	leaq	144(%rsp), %rdx
	leaq	320(%rsp), %rsi
	movq	%rax, 144(%rsp)
	movl	336(%rsp), %eax
	movl	%eax, 152(%rsp)
	movq	344(%rsp), %rax
	movq	%rax, 160(%rsp)
	movq	352(%rsp), %rax
	movq	%rax, 168(%rsp)
.LEHB33:
	call	_ZN4asio6detail14strand_service8dispatchINS0_7binder2IZN7asiopal13SerialChannel13BeginReadImplEN7openpal6WSliceEEUlRKSt10error_codemE_S8_mEEEEvRPNS1_11strand_implERT_
.LEHE33:
	sfence
.L1684:
	leaq	24(%rbx), %r14
	movq	%r14, %rdi
	call	pthread_mutex_lock@PLT
	movq	72(%rbx), %rbp
	testq	%rbp, %rbp
	je	.L1774
	movq	96(%rbx), %rax
	testq	%rax, %rax
	je	.L1689
	movq	%rbp, (%rax)
	movq	88(%rbx), %rbp
.L1690:
	movq	80(%rbx), %rax
	pxor	%xmm0, %xmm0
	movups	%xmm0, 72(%rbx)
	movq	%rax, 96(%rbx)
.L1686:
	testq	%rbp, %rbp
	movq	%r14, %rdi
	setne	64(%rbx)
	call	pthread_mutex_unlock@PLT
	testq	%rbp, %rbp
	jne	.L1691
.L1769:
	data16	leaq	_ZN4asio6detail15keyword_tss_ptrINS0_10call_stackINS0_14strand_service11strand_implEhE7contextEE6value_E@tlsgd(%rip), %rdi
	.value	0x6666
	rex64
	call	__tls_get_addr@PLT
	movq	96(%rsp), %rdx
	movq	%rdx, (%rax)
	sfence
	jmp	.L1647
	.p2align 4,,10
	.p2align 3
.L1771:
	movzbl	104(%rbp), %edx
	movb	%dl, 0(%rbp)
	movq	%rbp, (%rax)
	jmp	.L1649
	.p2align 4,,10
	.p2align 3
.L1668:
	movdqa	(%rsp), %xmm6
	movups	%xmm6, 72(%rax)
	jmp	.L1669
	.p2align 4,,10
	.p2align 3
.L1659:
	movq	200(%rsp), %rax
	leaq	24(%rax), %rdi
	call	pthread_mutex_lock@PLT
.L1662:
	movq	200(%rsp), %rax
	cmpb	$0, 64(%rax)
	leaq	24(%rax), %rdi
	jne	.L1664
	movb	$1, 64(%rax)
	call	pthread_mutex_unlock@PLT
	movq	200(%rsp), %r13
	movq	$0, 0(%rbp)
	movq	%r13, %xmm6
	cmpq	$0, 96(%r13)
	punpcklqdq	%xmm6, %xmm6
	movaps	%xmm6, 16(%rsp)
	je	.L1670
	movq	96(%r13), %rax
	movq	%rbp, (%rax)
	movq	%rbp, 96(%r13)
.L1671:
	movq	40(%r12), %rbx
	cmpb	$0, 40(%rbx)
	je	.L1672
	data16	leaq	_ZN4asio6detail15keyword_tss_ptrINS0_10call_stackINS0_15task_io_serviceENS0_27task_io_service_thread_infoEE7contextEE6value_E@tlsgd(%rip), %rdi
	.value	0x6666
	rex64
	call	__tls_get_addr@PLT
	movq	(%rax), %rax
	testq	%rax, %rax
	jne	.L1675
	jmp	.L1672
	.p2align 4,,10
	.p2align 3
.L1673:
	movq	16(%rax), %rax
	testq	%rax, %rax
	je	.L1672
.L1675:
	cmpq	(%rax), %rbx
	jne	.L1673
	movq	8(%rax), %rax
	testq	%rax, %rax
	je	.L1672
	addq	$1, 24(%rax)
	movq	$0, 0(%r13)
	movq	16(%rax), %rdx
	testq	%rdx, %rdx
	je	.L1676
	movq	%r13, (%rdx)
	movq	%r13, 16(%rax)
	sfence
	jmp	.L1647
	.p2align 4,,10
	.p2align 3
.L1672:
	lock addq	$1, 184(%rbx)
	leaq	48(%rbx), %rbp
	movq	%rbp, %rdi
	call	pthread_mutex_lock@PLT
	cmpq	$0, 200(%rbx)
	movq	$0, 0(%r13)
	je	.L1677
	movq	200(%rbx), %rax
	movq	%r13, (%rax)
	movq	%r13, 200(%rbx)
.L1678:
	movq	136(%rbx), %rax
	orq	$1, %rax
	movq	%rax, 136(%rbx)
	cmpq	$1, %rax
	je	.L1679
	movq	%rbp, %rdi
	call	pthread_mutex_unlock@PLT
	leaq	88(%rbx), %rdi
	call	pthread_cond_signal@PLT
	jmp	.L1680
.L1679:
	cmpb	$0, 176(%rbx)
	je	.L1775
.L1681:
	movq	%rbp, %rdi
	call	pthread_mutex_unlock@PLT
.L1680:
	movq	64(%rsp), %rbx
	movq	56(%rsp), %rbp
.L1682:
	sfence
	testq	%rbx, %rbx
	je	.L1703
	movq	$0, 64(%rsp)
.L1703:
	testq	%rbp, %rbp
	je	.L1647
	data16	leaq	_ZN4asio6detail15keyword_tss_ptrINS0_10call_stackINS0_15task_io_serviceENS0_27task_io_service_thread_infoEE7contextEE6value_E@tlsgd(%rip), %rdi
	.value	0x6666
	rex64
	call	__tls_get_addr@PLT
	movq	(%rax), %rax
	testq	%rax, %rax
	je	.L1706
	movq	8(%rax), %rax
	testq	%rax, %rax
	je	.L1706
	cmpq	$0, (%rax)
	je	.L1776
.L1706:
	movq	440(%rsp), %rax
	subq	%fs:40, %rax
	jne	.L1770
	addq	$448, %rsp
	.cfi_remember_state
	.cfi_def_cfa_offset 48
	movq	%rbp, %rdi
	popq	%rbx
	.cfi_def_cfa_offset 40
	popq	%rbp
	.cfi_def_cfa_offset 32
	popq	%r12
	.cfi_def_cfa_offset 24
	popq	%r13
	.cfi_def_cfa_offset 16
	popq	%r14
	.cfi_def_cfa_offset 8
	jmp	_ZdlPv@PLT
	.p2align 4,,10
	.p2align 3
.L1776:
	.cfi_restore_state
	movzbl	104(%rbp), %edx
	movb	%dl, 0(%rbp)
	movq	%rbp, (%rax)
	jmp	.L1647
	.p2align 4,,10
	.p2align 3
.L1691:
	cmpb	$0, 40(%r12)
	je	.L1692
	data16	leaq	_ZN4asio6detail15keyword_tss_ptrINS0_10call_stackINS0_15task_io_serviceENS0_27task_io_service_thread_infoEE7contextEE6value_E@tlsgd(%rip), %rdi
	.value	0x6666
	rex64
	call	__tls_get_addr@PLT
	movq	(%rax), %rax
	testq	%rax, %rax
	jne	.L1695
	jmp	.L1692
	.p2align 4,,10
	.p2align 3
.L1693:
	movq	16(%rax), %rax
	testq	%rax, %rax
	je	.L1692
.L1695:
	cmpq	(%rax), %r12
	jne	.L1693
	movq	8(%rax), %rax
	testq	%rax, %rax
	je	.L1692
	addq	$1, 24(%rax)
	movq	$0, (%rbx)
	movq	16(%rax), %rdx
	testq	%rdx, %rdx
	je	.L1696
	movq	%rbx, (%rdx)
	movq	%rbx, 16(%rax)
	data16	leaq	_ZN4asio6detail15keyword_tss_ptrINS0_10call_stackINS0_14strand_service11strand_implEhE7contextEE6value_E@tlsgd(%rip), %rdi
	.value	0x6666
	rex64
	call	__tls_get_addr@PLT
	movq	96(%rsp), %rdx
	movq	%rdx, (%rax)
	sfence
	jmp	.L1647
.L1692:
	lock addq	$1, 184(%r12)
	leaq	48(%r12), %rbp
	movq	%rbp, %rdi
	call	pthread_mutex_lock@PLT
	movq	$0, (%rbx)
	cmpq	$0, 200(%r12)
	je	.L1697
	movq	200(%r12), %rax
	movq	%rbx, (%rax)
	movq	%rbx, 200(%r12)
.L1698:
	movq	136(%r12), %rax
	orq	$1, %rax
	movq	%rax, 136(%r12)
	cmpq	$1, %rax
	je	.L1699
	movq	%rbp, %rdi
	call	pthread_mutex_unlock@PLT
	leaq	88(%r12), %rdi
	call	pthread_cond_signal@PLT
.L1700:
	data16	leaq	_ZN4asio6detail15keyword_tss_ptrINS0_10call_stackINS0_14strand_service11strand_implEhE7contextEE6value_E@tlsgd(%rip), %rdi
	.value	0x6666
	rex64
	call	__tls_get_addr@PLT
	movq	96(%rsp), %rdx
	movq	64(%rsp), %rbx
	movq	56(%rsp), %rbp
	movq	%rdx, (%rax)
	jmp	.L1682
	.p2align 4,,10
	.p2align 3
.L1774:
	movq	88(%rbx), %rbp
	jmp	.L1686
.L1775:
	movq	144(%rbx), %rax
	testq	%rax, %rax
	je	.L1681
	movb	$1, 176(%rbx)
	leaq	88(%rax), %rdx
	movl	$3, %esi
	leaq	304(%rsp), %rcx
	movq	%rdx, 308(%rsp)
	movl	88(%rax), %edx
	movl	$-2147483639, 304(%rsp)
	movl	96(%rax), %edi
	call	epoll_ctl@PLT
	jmp	.L1681
.L1697:
	movdqa	(%rsp), %xmm5
	movups	%xmm5, 192(%r12)
	jmp	.L1698
.L1689:
	movq	%rbp, 88(%rbx)
	jmp	.L1690
.L1699:
	cmpb	$0, 176(%r12)
	jne	.L1701
	movq	144(%r12), %rax
	testq	%rax, %rax
	je	.L1701
	movb	$1, 176(%r12)
	leaq	88(%rax), %rdx
	movq	%r13, %rcx
	movl	$3, %esi
	movq	%rdx, 308(%rsp)
	movl	88(%rax), %edx
	movl	$-2147483639, 304(%rsp)
	movl	96(%rax), %edi
	call	epoll_ctl@PLT
.L1701:
	movq	%rbp, %rdi
	call	pthread_mutex_unlock@PLT
	jmp	.L1700
.L1670:
	movdqa	(%rsp), %xmm5
	movups	%xmm5, 88(%r13)
	jmp	.L1671
.L1677:
	movdqa	16(%rsp), %xmm5
	movups	%xmm5, 192(%rbx)
	jmp	.L1678
.L1773:
	movzbl	80(%rbp), %edx
	movb	%dl, 0(%rbp)
	movq	%rbp, (%rax)
	jmp	.L1683
.L1676:
	movdqa	16(%rsp), %xmm6
	movups	%xmm6, 8(%rax)
	sfence
	jmp	.L1647
.L1696:
	movdqa	(%rsp), %xmm5
	movups	%xmm5, 8(%rax)
	jmp	.L1769
.L1770:
	call	__stack_chk_fail@PLT
.L1709:
	endbr64
	movq	%rax, %rbp
	jmp	.L1688
.L1711:
	endbr64
	movq	%rax, %rbp
	jmp	.L1687
.L1710:
	endbr64
	movq	%rax, %rbp
	jmp	.L1704
	.section	.gcc_except_table
.LLSDA9031:
	.byte	0xff
	.byte	0xff
	.byte	0x1
	.uleb128 .LLSDACSE9031-.LLSDACSB9031
.LLSDACSB9031:
	.uleb128 .LEHB31-.LFB9031
	.uleb128 .LEHE31-.LEHB31
	.uleb128 .L1710-.LFB9031
	.uleb128 0
	.uleb128 .LEHB32-.LFB9031
	.uleb128 .LEHE32-.LEHB32
	.uleb128 .L1709-.LFB9031
	.uleb128 0
	.uleb128 .LEHB33-.LFB9031
	.uleb128 .LEHE33-.LEHB33
	.uleb128 .L1711-.LFB9031
	.uleb128 0
.LLSDACSE9031:
	.text
	.cfi_endproc
	.section	.text.unlikely
	.cfi_startproc
	.cfi_personality 0x9b,DW.ref.__gxx_personality_v0
	.cfi_lsda 0x1b,.LLSDAC9031
	.type	_ZN4asio6detail18descriptor_read_opINS_17mutable_buffers_1ENS0_15wrapped_handlerINS_10io_service6strandEZN7asiopal13SerialChannel13BeginReadImplEN7openpal6WSliceEEUlRKSt10error_codemE_NS0_26is_continuation_if_runningEEEE11do_completeEPNS0_15task_io_serviceEPNS0_25task_io_service_operationESC_m.cold, @function
_ZN4asio6detail18descriptor_read_opINS_17mutable_buffers_1ENS0_15wrapped_handlerINS_10io_service6strandEZN7asiopal13SerialChannel13BeginReadImplEN7openpal6WSliceEEUlRKSt10error_codemE_NS0_26is_continuation_if_runningEEEE11do_completeEPNS0_15task_io_serviceEPNS0_25task_io_service_operationESC_m.cold:
.LFSB9031:
.L1687:
	.cfi_def_cfa_offset 496
	.cfi_offset 3, -48
	.cfi_offset 6, -40
	.cfi_offset 12, -32
	.cfi_offset 13, -24
	.cfi_offset 14, -16
	sfence
	leaq	112(%rsp), %rdi
	call	_ZN4asio6detail18completion_handlerINS0_17rewrapped_handlerINS0_7binder2INS0_15wrapped_handlerINS_10io_service6strandEZN7asiopal13SerialChannel13BeginReadImplEN7openpal6WSliceEEUlRKSt10error_codemE_NS0_26is_continuation_if_runningEEESB_mEESE_EEE3ptr5resetEv
	leaq	32(%rsp), %rdi
	call	_ZN4asio6detail14strand_service16on_dispatch_exitD1Ev@PLT
	data16	leaq	_ZN4asio6detail15keyword_tss_ptrINS0_10call_stackINS0_14strand_service11strand_implEhE7contextEE6value_E@tlsgd(%rip), %rdi
	.value	0x6666
	rex64
	call	__tls_get_addr@PLT
	movq	96(%rsp), %rdx
	movq	%rdx, (%rax)
.L1688:
	sfence
	leaq	48(%rsp), %rdi
	call	_ZN4asio6detail18descriptor_read_opINS_17mutable_buffers_1ENS0_15wrapped_handlerINS_10io_service6strandEZN7asiopal13SerialChannel13BeginReadImplEN7openpal6WSliceEEUlRKSt10error_codemE_NS0_26is_continuation_if_runningEEEE3ptr5resetEv
	movq	%rbp, %rdi
.LEHB34:
	call	_Unwind_Resume@PLT
.LEHE34:
.L1704:
	sfence
	jmp	.L1688
	.cfi_endproc
.LFE9031:
	.section	.gcc_except_table
.LLSDAC9031:
	.byte	0xff
	.byte	0xff
	.byte	0x1
	.uleb128 .LLSDACSEC9031-.LLSDACSBC9031
.LLSDACSBC9031:
	.uleb128 .LEHB34-.LCOLDB34
	.uleb128 .LEHE34-.LEHB34
	.uleb128 0
	.uleb128 0
.LLSDACSEC9031:
	.section	.text.unlikely
	.text
	.size	_ZN4asio6detail18descriptor_read_opINS_17mutable_buffers_1ENS0_15wrapped_handlerINS_10io_service6strandEZN7asiopal13SerialChannel13BeginReadImplEN7openpal6WSliceEEUlRKSt10error_codemE_NS0_26is_continuation_if_runningEEEE11do_completeEPNS0_15task_io_serviceEPNS0_25task_io_service_operationESC_m, .-_ZN4asio6detail18descriptor_read_opINS_17mutable_buffers_1ENS0_15wrapped_handlerINS_10io_service6strandEZN7asiopal13SerialChannel13BeginReadImplEN7openpal6WSliceEEUlRKSt10error_codemE_NS0_26is_continuation_if_runningEEEE11do_completeEPNS0_15task_io_serviceEPNS0_25task_io_service_operationESC_m
	.section	.text.unlikely
	.size	_ZN4asio6detail18descriptor_read_opINS_17mutable_buffers_1ENS0_15wrapped_handlerINS_10io_service6strandEZN7asiopal13SerialChannel13BeginReadImplEN7openpal6WSliceEEUlRKSt10error_codemE_NS0_26is_continuation_if_runningEEEE11do_completeEPNS0_15task_io_serviceEPNS0_25task_io_service_operationESC_m.cold, .-_ZN4asio6detail18descriptor_read_opINS_17mutable_buffers_1ENS0_15wrapped_handlerINS_10io_service6strandEZN7asiopal13SerialChannel13BeginReadImplEN7openpal6WSliceEEUlRKSt10error_codemE_NS0_26is_continuation_if_runningEEEE11do_completeEPNS0_15task_io_serviceEPNS0_25task_io_service_operationESC_m.cold
.LCOLDE34:
	.text
.LHOTE34:
	.section	.text.unlikely
	.align 2
.LCOLDB35:
	.text
.LHOTB35:
	.align 2
	.p2align 4
	.type	_ZN4asio6detail14strand_service8dispatchINS0_7binder2IZN7asiopal13SerialChannel14BeginWriteImplERKN7openpal6RSliceEEUlRKSt10error_codemE_SA_mEEEEvRPNS1_11strand_implERT_.constprop.0, @function
_ZN4asio6detail14strand_service8dispatchINS0_7binder2IZN7asiopal13SerialChannel14BeginWriteImplERKN7openpal6RSliceEEUlRKSt10error_codemE_SA_mEEEEvRPNS1_11strand_implERT_.constprop.0:
.LFB9645:
	.cfi_startproc
	.cfi_personality 0x9b,DW.ref.__gxx_personality_v0
	.cfi_lsda 0x1b,.LLSDA9645
	pushq	%r14
	.cfi_def_cfa_offset 16
	.cfi_offset 14, -16
	pushq	%r13
	.cfi_def_cfa_offset 24
	.cfi_offset 13, -24
	movq	%rdi, %r13
	pushq	%r12
	.cfi_def_cfa_offset 32
	.cfi_offset 12, -32
	movq	%rsi, %r12
	pushq	%rbp
	.cfi_def_cfa_offset 40
	.cfi_offset 6, -40
	movq	%rdx, %rbp
	pushq	%rbx
	.cfi_def_cfa_offset 48
	.cfi_offset 3, -48
	subq	$160, %rsp
	.cfi_def_cfa_offset 208
	movq	(%rsi), %rbx
	movq	%fs:40, %rax
	movq	%rax, 152(%rsp)
	xorl	%eax, %eax
	data16	leaq	_ZN4asio6detail15keyword_tss_ptrINS0_10call_stackINS0_14strand_service11strand_implEhE7contextEE6value_E@tlsgd(%rip), %rdi
	.value	0x6666
	rex64
	call	__tls_get_addr@PLT
	movq	(%rax), %rax
	testq	%rax, %rax
	jne	.L1781
	jmp	.L1778
	.p2align 4,,10
	.p2align 3
.L1779:
	movq	16(%rax), %rax
	testq	%rax, %rax
	je	.L1778
.L1781:
	cmpq	(%rax), %rbx
	jne	.L1779
	cmpq	$0, 8(%rax)
	je	.L1778
	lfence
	movq	0(%rbp), %rax
	movq	24(%rbp), %rdx
	movq	40(%rax), %rdi
	movb	$0, 58(%rax)
	testq	%rdi, %rdi
	je	.L1784
	cmpb	$0, 56(%rax)
	jne	.L1784
	movq	(%rdi), %rax
	leaq	8(%rbp), %rsi
.LEHB35:
	call	*24(%rax)
.LEHE35:
.L1784:
	sfence
.L1777:
	movq	152(%rsp), %rax
	subq	%fs:40, %rax
	jne	.L1880
	addq	$160, %rsp
	.cfi_remember_state
	.cfi_def_cfa_offset 48
	popq	%rbx
	.cfi_def_cfa_offset 40
	popq	%rbp
	.cfi_def_cfa_offset 32
	popq	%r12
	.cfi_def_cfa_offset 24
	popq	%r13
	.cfi_def_cfa_offset 16
	popq	%r14
	.cfi_def_cfa_offset 8
	ret
	.p2align 4,,10
	.p2align 3
.L1778:
	.cfi_restore_state
	data16	leaq	_ZN4asio6detail15keyword_tss_ptrINS0_10call_stackINS0_15task_io_serviceENS0_27task_io_service_thread_infoEE7contextEE6value_E@tlsgd(%rip), %rdi
	.value	0x6666
	rex64
	call	__tls_get_addr@PLT
	movq	(%rax), %rax
	testq	%rax, %rax
	je	.L1785
	movq	8(%rax), %rax
	testq	%rax, %rax
	je	.L1785
	movq	(%rax), %r14
	testq	%r14, %r14
	je	.L1785
	movq	$0, (%rax)
	movzbl	(%r14), %eax
	cmpb	$55, %al
	jbe	.L1786
	movb	%al, 56(%r14)
	jmp	.L1787
.L1786:
	movq	%r14, %rdi
	call	_ZdlPv@PLT
.L1785:
	movl	$57, %edi
.LEHB36:
	call	_Znwm@PLT
.LEHE36:
	movb	$56, 56(%rax)
	movq	%rax, %r14
.L1787:
	leaq	_ZN4asio6detail18completion_handlerINS0_7binder2IZN7asiopal13SerialChannel14BeginWriteImplERKN7openpal6RSliceEEUlRKSt10error_codemE_S9_mEEE11do_completeEPNS0_15task_io_serviceEPNS0_25task_io_service_operationESB_m(%rip), %rax
	movdqu	0(%rbp), %xmm3
	movdqu	16(%rbp), %xmm4
	movq	$0, (%r14)
	movq	%rax, 8(%r14)
	movq	%r14, %xmm1
	movq	40(%r13), %rbx
	movl	$0, 16(%r14)
	punpcklqdq	%xmm1, %xmm1
	movups	%xmm3, 24(%r14)
	movups	%xmm4, 40(%r14)
	movaps	%xmm1, (%rsp)
	data16	leaq	_ZN4asio6detail15keyword_tss_ptrINS0_10call_stackINS0_15task_io_serviceENS0_27task_io_service_thread_infoEE7contextEE6value_E@tlsgd(%rip), %rdi
	.value	0x6666
	rex64
	call	__tls_get_addr@PLT
	movq	(%rax), %rax
	testq	%rax, %rax
	jne	.L1792
	jmp	.L1788
	.p2align 4,,10
	.p2align 3
.L1789:
	movq	16(%rax), %rax
	testq	%rax, %rax
	je	.L1788
.L1792:
	cmpq	(%rax), %rbx
	jne	.L1789
	movq	8(%rax), %rbx
	movq	(%r12), %rax
	leaq	24(%rax), %rdi
	call	pthread_mutex_lock@PLT
	testq	%rbx, %rbx
	je	.L1791
	movq	(%r12), %rdi
	cmpb	$0, 64(%rdi)
	je	.L1881
.L1793:
	movq	$0, (%r14)
	movq	80(%rdi), %rax
	testq	%rax, %rax
	je	.L1797
	movq	%r14, (%rax)
	movq	%r14, 80(%rdi)
.L1798:
	movq	152(%rsp), %rax
	subq	%fs:40, %rax
	jne	.L1880
	addq	$24, %rdi
.L1879:
	addq	$160, %rsp
	.cfi_remember_state
	.cfi_def_cfa_offset 48
	popq	%rbx
	.cfi_def_cfa_offset 40
	popq	%rbp
	.cfi_def_cfa_offset 32
	popq	%r12
	.cfi_def_cfa_offset 24
	popq	%r13
	.cfi_def_cfa_offset 16
	popq	%r14
	.cfi_def_cfa_offset 8
	jmp	pthread_mutex_unlock@PLT
.L1881:
	.cfi_restore_state
	movb	$1, 64(%rdi)
	addq	$24, %rdi
	call	pthread_mutex_unlock@PLT
	movq	(%r12), %rbx
	movq	%rbx, %xmm2
	movq	%rbx, 48(%rsp)
	punpcklqdq	%xmm2, %xmm2
	movaps	%xmm2, (%rsp)
	data16	leaq	_ZN4asio6detail15keyword_tss_ptrINS0_10call_stackINS0_14strand_service11strand_implEhE7contextEE6value_E@tlsgd(%rip), %rdi
	.value	0x6666
	rex64
	call	__tls_get_addr@PLT
	movq	40(%r13), %rbp
	movdqu	24(%r14), %xmm7
	movq	%rbx, %xmm6
	leaq	112(%rsp), %r13
	movq	%r14, 88(%rsp)
	movq	%rbp, %xmm0
	movaps	%xmm7, 112(%rsp)
	punpcklqdq	%xmm6, %xmm0
	movdqu	40(%r14), %xmm6
	movq	%r13, 80(%rsp)
	movq	$0, 96(%rsp)
	movaps	%xmm0, 32(%rsp)
	movq	(%rax), %rdx
	movaps	%xmm6, 128(%rsp)
	movq	%rdx, 64(%rsp)
	leaq	48(%rsp), %rdx
	movq	%rdx, (%rax)
	movq	%rdx, 56(%rsp)
	data16	leaq	_ZN4asio6detail15keyword_tss_ptrINS0_10call_stackINS0_15task_io_serviceENS0_27task_io_service_thread_infoEE7contextEE6value_E@tlsgd(%rip), %rdi
	.value	0x6666
	rex64
	call	__tls_get_addr@PLT
	movq	(%rax), %rax
	testq	%rax, %rax
	je	.L1795
	movq	8(%rax), %rax
	testq	%rax, %rax
	je	.L1795
	cmpq	$0, (%rax)
	je	.L1882
.L1795:
	movq	%r14, %rdi
	call	_ZdlPv@PLT
.L1814:
	movq	$0, 88(%rsp)
	testq	%rbp, %rbp
	je	.L1815
	movq	112(%rsp), %rax
	movq	136(%rsp), %rdx
	movq	40(%rax), %rdi
	movb	$0, 58(%rax)
	testq	%rdi, %rdi
	je	.L1817
	cmpb	$0, 56(%rax)
	je	.L1883
.L1817:
	sfence
.L1815:
	leaq	24(%rbx), %r14
	movq	%r14, %rdi
	call	pthread_mutex_lock@PLT
	movq	72(%rbx), %r12
	testq	%r12, %r12
	je	.L1884
	movq	96(%rbx), %rax
	testq	%rax, %rax
	je	.L1821
	movq	%r12, (%rax)
	movq	88(%rbx), %r12
.L1822:
	movq	80(%rbx), %rax
	pxor	%xmm0, %xmm0
	movups	%xmm0, 72(%rbx)
	movq	%rax, 96(%rbx)
.L1819:
	testq	%r12, %r12
	movq	%r14, %rdi
	setne	64(%rbx)
	call	pthread_mutex_unlock@PLT
	testq	%r12, %r12
	jne	.L1885
.L1823:
	data16	leaq	_ZN4asio6detail15keyword_tss_ptrINS0_10call_stackINS0_14strand_service11strand_implEhE7contextEE6value_E@tlsgd(%rip), %rdi
	.value	0x6666
	rex64
	call	__tls_get_addr@PLT
	movq	64(%rsp), %rdx
	movq	%rdx, (%rax)
	jmp	.L1777
	.p2align 4,,10
	.p2align 3
.L1788:
	movq	(%r12), %rax
	leaq	24(%rax), %rdi
	call	pthread_mutex_lock@PLT
.L1791:
	movq	(%r12), %rdi
	cmpb	$0, 64(%rdi)
	leaq	24(%rdi), %r8
	jne	.L1793
	movb	$1, 64(%rdi)
	movq	%r8, %rdi
	call	pthread_mutex_unlock@PLT
	movq	(%r12), %rbp
	movq	$0, (%r14)
	movq	%rbp, %xmm5
	cmpq	$0, 96(%rbp)
	punpcklqdq	%xmm5, %xmm5
	movaps	%xmm5, 16(%rsp)
	je	.L1800
	movq	96(%rbp), %rax
	movq	%r14, (%rax)
	movq	%r14, 96(%rbp)
.L1801:
	movq	40(%r13), %rbx
	cmpb	$0, 40(%rbx)
	je	.L1802
	data16	leaq	_ZN4asio6detail15keyword_tss_ptrINS0_10call_stackINS0_15task_io_serviceENS0_27task_io_service_thread_infoEE7contextEE6value_E@tlsgd(%rip), %rdi
	.value	0x6666
	rex64
	call	__tls_get_addr@PLT
	movq	(%rax), %rax
	testq	%rax, %rax
	jne	.L1805
	jmp	.L1802
	.p2align 4,,10
	.p2align 3
.L1803:
	movq	16(%rax), %rax
	testq	%rax, %rax
	je	.L1802
.L1805:
	cmpq	(%rax), %rbx
	jne	.L1803
	movq	8(%rax), %rax
	testq	%rax, %rax
	je	.L1802
	addq	$1, 24(%rax)
	movq	$0, 0(%rbp)
	movq	16(%rax), %rdx
	testq	%rdx, %rdx
	je	.L1806
	movq	%rbp, (%rdx)
	movq	%rbp, 16(%rax)
	jmp	.L1777
.L1802:
	lock addq	$1, 184(%rbx)
	leaq	48(%rbx), %r12
	movq	%r12, %rdi
	call	pthread_mutex_lock@PLT
	cmpq	$0, 200(%rbx)
	movq	$0, 0(%rbp)
	je	.L1808
	movq	200(%rbx), %rax
	movq	%rbp, (%rax)
	movq	%rbp, 200(%rbx)
.L1809:
	movq	136(%rbx), %rax
	orq	$1, %rax
	movq	%rax, 136(%rbx)
	cmpq	$1, %rax
	je	.L1810
	movq	%r12, %rdi
	call	pthread_mutex_unlock@PLT
	movq	152(%rsp), %rax
	subq	%fs:40, %rax
	jne	.L1880
	addq	$160, %rsp
	.cfi_remember_state
	.cfi_def_cfa_offset 48
	leaq	88(%rbx), %rdi
	popq	%rbx
	.cfi_def_cfa_offset 40
	popq	%rbp
	.cfi_def_cfa_offset 32
	popq	%r12
	.cfi_def_cfa_offset 24
	popq	%r13
	.cfi_def_cfa_offset 16
	popq	%r14
	.cfi_def_cfa_offset 8
	jmp	pthread_cond_signal@PLT
.L1797:
	.cfi_restore_state
	movdqa	(%rsp), %xmm7
	movups	%xmm7, 72(%rdi)
	jmp	.L1798
.L1883:
	movq	(%rdi), %rax
	leaq	120(%rsp), %rsi
.LEHB37:
	call	*24(%rax)
.LEHE37:
	jmp	.L1817
.L1808:
	movdqa	16(%rsp), %xmm5
	movups	%xmm5, 192(%rbx)
	jmp	.L1809
.L1885:
	cmpb	$0, 40(%rbp)
	je	.L1824
	data16	leaq	_ZN4asio6detail15keyword_tss_ptrINS0_10call_stackINS0_15task_io_serviceENS0_27task_io_service_thread_infoEE7contextEE6value_E@tlsgd(%rip), %rdi
	.value	0x6666
	rex64
	call	__tls_get_addr@PLT
	movq	(%rax), %rax
	testq	%rax, %rax
	jne	.L1827
	jmp	.L1824
	.p2align 4,,10
	.p2align 3
.L1825:
	movq	16(%rax), %rax
	testq	%rax, %rax
	je	.L1824
.L1827:
	cmpq	(%rax), %rbp
	jne	.L1825
	movq	8(%rax), %rax
	testq	%rax, %rax
	je	.L1824
	addq	$1, 24(%rax)
	movq	$0, (%rbx)
	movq	16(%rax), %rdx
	testq	%rdx, %rdx
	je	.L1828
	movq	%rbx, (%rdx)
	movq	%rbx, 16(%rax)
	jmp	.L1823
.L1810:
	cmpb	$0, 176(%rbx)
	jne	.L1812
	movq	144(%rbx), %rax
	testq	%rax, %rax
	je	.L1812
	movb	$1, 176(%rbx)
	leaq	88(%rax), %rdx
	leaq	112(%rsp), %rcx
	movl	$3, %esi
	movq	%rdx, 116(%rsp)
	movl	88(%rax), %edx
	movl	$-2147483639, 112(%rsp)
	movl	96(%rax), %edi
	call	epoll_ctl@PLT
.L1812:
	movq	152(%rsp), %rax
	subq	%fs:40, %rax
	jne	.L1880
	movq	%r12, %rdi
	jmp	.L1879
.L1884:
	movq	88(%rbx), %r12
	jmp	.L1819
.L1824:
	lock addq	$1, 184(%rbp)
	leaq	48(%rbp), %r12
	movq	%r12, %rdi
	call	pthread_mutex_lock@PLT
	cmpq	$0, 200(%rbp)
	movq	$0, (%rbx)
	je	.L1829
	movq	200(%rbp), %rax
	movq	%rbx, (%rax)
	movq	%rbx, 200(%rbp)
.L1830:
	movq	136(%rbp), %rax
	orq	$1, %rax
	movq	%rax, 136(%rbp)
	cmpq	$1, %rax
	je	.L1831
	movq	%r12, %rdi
	call	pthread_mutex_unlock@PLT
	leaq	88(%rbp), %rdi
	call	pthread_cond_signal@PLT
	jmp	.L1823
.L1821:
	movq	%r12, 88(%rbx)
	jmp	.L1822
.L1831:
	cmpb	$0, 176(%rbp)
	jne	.L1833
	movq	144(%rbp), %rax
	testq	%rax, %rax
	je	.L1833
	movb	$1, 176(%rbp)
	leaq	88(%rax), %rdx
	movq	%r13, %rcx
	movl	$3, %esi
	movq	%rdx, 116(%rsp)
	movl	88(%rax), %edx
	movl	$-2147483639, 112(%rsp)
	movl	96(%rax), %edi
	call	epoll_ctl@PLT
.L1833:
	movq	%r12, %rdi
	call	pthread_mutex_unlock@PLT
	jmp	.L1823
.L1800:
	movdqa	(%rsp), %xmm7
	movups	%xmm7, 88(%rbp)
	jmp	.L1801
.L1882:
	movzbl	56(%r14), %edx
	movb	%dl, (%r14)
	movq	%r14, (%rax)
	jmp	.L1814
.L1829:
	movdqa	(%rsp), %xmm5
	movups	%xmm5, 192(%rbp)
	jmp	.L1830
.L1806:
	movdqa	16(%rsp), %xmm7
	movups	%xmm7, 8(%rax)
	jmp	.L1777
.L1828:
	movdqa	(%rsp), %xmm7
	movups	%xmm7, 8(%rax)
	jmp	.L1823
.L1880:
	call	__stack_chk_fail@PLT
.L1837:
	endbr64
	movq	%rax, %rbp
	jmp	.L1820
.L1836:
	endbr64
	movq	%rax, %rdi
	jmp	.L1834
	.section	.gcc_except_table
.LLSDA9645:
	.byte	0xff
	.byte	0xff
	.byte	0x1
	.uleb128 .LLSDACSE9645-.LLSDACSB9645
.LLSDACSB9645:
	.uleb128 .LEHB35-.LFB9645
	.uleb128 .LEHE35-.LEHB35
	.uleb128 .L1836-.LFB9645
	.uleb128 0
	.uleb128 .LEHB36-.LFB9645
	.uleb128 .LEHE36-.LEHB36
	.uleb128 0
	.uleb128 0
	.uleb128 .LEHB37-.LFB9645
	.uleb128 .LEHE37-.LEHB37
	.uleb128 .L1837-.LFB9645
	.uleb128 0
.LLSDACSE9645:
	.text
	.cfi_endproc
	.section	.text.unlikely
	.cfi_startproc
	.cfi_personality 0x9b,DW.ref.__gxx_personality_v0
	.cfi_lsda 0x1b,.LLSDAC9645
	.type	_ZN4asio6detail14strand_service8dispatchINS0_7binder2IZN7asiopal13SerialChannel14BeginWriteImplERKN7openpal6RSliceEEUlRKSt10error_codemE_SA_mEEEEvRPNS1_11strand_implERT_.constprop.0.cold, @function
_ZN4asio6detail14strand_service8dispatchINS0_7binder2IZN7asiopal13SerialChannel14BeginWriteImplERKN7openpal6RSliceEEUlRKSt10error_codemE_SA_mEEEEvRPNS1_11strand_implERT_.constprop.0.cold:
.LFSB9645:
.L1820:
	.cfi_def_cfa_offset 208
	.cfi_offset 3, -48
	.cfi_offset 6, -40
	.cfi_offset 12, -32
	.cfi_offset 13, -24
	.cfi_offset 14, -16
	sfence
	leaq	80(%rsp), %rdi
	call	_ZN4asio6detail18completion_handlerINS0_7binder2IZN7asiopal13SerialChannel14BeginWriteImplERKN7openpal6RSliceEEUlRKSt10error_codemE_S9_mEEE3ptr5resetEv
	leaq	32(%rsp), %rdi
	call	_ZN4asio6detail14strand_service16on_dispatch_exitD1Ev@PLT
	data16	leaq	_ZN4asio6detail15keyword_tss_ptrINS0_10call_stackINS0_14strand_service11strand_implEhE7contextEE6value_E@tlsgd(%rip), %rdi
	.value	0x6666
	rex64
	call	__tls_get_addr@PLT
	movq	64(%rsp), %rdx
	movq	%rbp, %rdi
	movq	%rdx, (%rax)
.LEHB38:
	call	_Unwind_Resume@PLT
.L1834:
	sfence
	call	_Unwind_Resume@PLT
.LEHE38:
	.cfi_endproc
.LFE9645:
	.section	.gcc_except_table
.LLSDAC9645:
	.byte	0xff
	.byte	0xff
	.byte	0x1
	.uleb128 .LLSDACSEC9645-.LLSDACSBC9645
.LLSDACSBC9645:
	.uleb128 .LEHB38-.LCOLDB35
	.uleb128 .LEHE38-.LEHB38
	.uleb128 0
	.uleb128 0
.LLSDACSEC9645:
	.section	.text.unlikely
	.text
	.size	_ZN4asio6detail14strand_service8dispatchINS0_7binder2IZN7asiopal13SerialChannel14BeginWriteImplERKN7openpal6RSliceEEUlRKSt10error_codemE_SA_mEEEEvRPNS1_11strand_implERT_.constprop.0, .-_ZN4asio6detail14strand_service8dispatchINS0_7binder2IZN7asiopal13SerialChannel14BeginWriteImplERKN7openpal6RSliceEEUlRKSt10error_codemE_SA_mEEEEvRPNS1_11strand_implERT_.constprop.0
	.section	.text.unlikely
	.size	_ZN4asio6detail14strand_service8dispatchINS0_7binder2IZN7asiopal13SerialChannel14BeginWriteImplERKN7openpal6RSliceEEUlRKSt10error_codemE_SA_mEEEEvRPNS1_11strand_implERT_.constprop.0.cold, .-_ZN4asio6detail14strand_service8dispatchINS0_7binder2IZN7asiopal13SerialChannel14BeginWriteImplERKN7openpal6RSliceEEUlRKSt10error_codemE_SA_mEEEEvRPNS1_11strand_implERT_.constprop.0.cold
.LCOLDE35:
	.text
.LHOTE35:
	.section	.text.unlikely
.LCOLDB36:
	.text
.LHOTB36:
	.p2align 4
	.type	_ZN4asio6detail18completion_handlerINS0_17rewrapped_handlerINS0_7binder2INS0_8write_opINS_17basic_serial_portINS_19serial_port_serviceEEENS_15const_buffers_1ENS0_14transfer_all_tENS0_15wrapped_handlerINS_10io_service6strandEZN7asiopal13SerialChannel14BeginWriteImplERKN7openpal6RSliceEEUlRKSt10error_codemE_NS0_26is_continuation_if_runningEEEEESJ_mEESM_EEE11do_completeEPNS0_15task_io_serviceEPNS0_25task_io_service_operationESL_m, @function
_ZN4asio6detail18completion_handlerINS0_17rewrapped_handlerINS0_7binder2INS0_8write_opINS_17basic_serial_portINS_19serial_port_serviceEEENS_15const_buffers_1ENS0_14transfer_all_tENS0_15wrapped_handlerINS_10io_service6strandEZN7asiopal13SerialChannel14BeginWriteImplERKN7openpal6RSliceEEUlRKSt10error_codemE_NS0_26is_continuation_if_runningEEEEESJ_mEESM_EEE11do_completeEPNS0_15task_io_serviceEPNS0_25task_io_service_operationESL_m:
.LFB9388:
	.cfi_startproc
	.cfi_personality 0x9b,DW.ref.__gxx_personality_v0
	.cfi_lsda 0x1b,.LLSDA9388
	endbr64
	pushq	%r15
	.cfi_def_cfa_offset 16
	.cfi_offset 15, -16
	pushq	%r14
	.cfi_def_cfa_offset 24
	.cfi_offset 14, -24
	pushq	%r13
	.cfi_def_cfa_offset 32
	.cfi_offset 13, -32
	movq	%rdi, %r13
	pushq	%r12
	.cfi_def_cfa_offset 40
	.cfi_offset 12, -40
	pushq	%rbp
	.cfi_def_cfa_offset 48
	.cfi_offset 6, -48
	movq	%rsi, %rbp
	pushq	%rbx
	.cfi_def_cfa_offset 56
	.cfi_offset 3, -56
	subq	$312, %rsp
	.cfi_def_cfa_offset 368
	movq	32(%rsi), %rbx
	movq	64(%rsi), %r15
	movq	%fs:40, %rax
	movq	%rax, 296(%rsp)
	movq	24(%rsi), %rax
	movdqu	40(%rsi), %xmm1
	movdqu	72(%rsi), %xmm2
	movdqu	96(%rsi), %xmm3
	movq	112(%rsi), %r14
	movq	%rbx, 200(%rsp)
	movq	%r15, 232(%rsp)
	movq	%r14, 280(%rsp)
	movaps	%xmm1, 208(%rsp)
	movaps	%xmm2, 240(%rsp)
	movq	%rax, 192(%rsp)
	movl	56(%rsi), %eax
	movups	%xmm3, 264(%rsp)
	movl	%eax, 224(%rsp)
	movq	88(%rsi), %rax
	movq	%rax, 256(%rsp)
	data16	leaq	_ZN4asio6detail15keyword_tss_ptrINS0_10call_stackINS0_15task_io_serviceENS0_27task_io_service_thread_infoEE7contextEE6value_E@tlsgd(%rip), %rdi
	.value	0x6666
	rex64
	call	__tls_get_addr@PLT
	movq	(%rax), %rax
	testq	%rax, %rax
	je	.L1887
	movq	8(%rax), %rax
	testq	%rax, %rax
	je	.L1887
	cmpq	$0, (%rax)
	je	.L2044
.L1887:
	movq	%rbp, %rdi
	call	_ZdlPv@PLT
.L1888:
	testq	%r13, %r13
	je	.L1886
	movl	264(%rsp), %eax
	addq	%r14, %r15
	movl	$0, 224(%rsp)
	movq	%r15, 232(%rsp)
	testl	%eax, %eax
	jne	.L1890
	testq	%r14, %r14
	jne	.L2045
.L1890:
	movl	%eax, 72(%rsp)
	movq	256(%rsp), %rcx
	leaq	64(%rsp), %rdx
	leaq	248(%rsp), %rsi
	movq	272(%rsp), %rax
	movq	240(%rsp), %rdi
	movq	%r15, 88(%rsp)
	movq	%rcx, 64(%rsp)
	movq	%rax, 80(%rsp)
.LEHB39:
	call	_ZN4asio6detail14strand_service8dispatchINS0_7binder2IZN7asiopal13SerialChannel14BeginWriteImplERKN7openpal6RSliceEEUlRKSt10error_codemE_SA_mEEEEvRPNS1_11strand_implERT_.constprop.0
.L1960:
	sfence
.L1886:
	movq	296(%rsp), %rax
	subq	%fs:40, %rax
	jne	.L2046
	addq	$312, %rsp
	.cfi_remember_state
	.cfi_def_cfa_offset 56
	popq	%rbx
	.cfi_def_cfa_offset 48
	popq	%rbp
	.cfi_def_cfa_offset 40
	popq	%r12
	.cfi_def_cfa_offset 32
	popq	%r13
	.cfi_def_cfa_offset 24
	popq	%r14
	.cfi_def_cfa_offset 16
	popq	%r15
	.cfi_def_cfa_offset 8
	ret
	.p2align 4,,10
	.p2align 3
.L2045:
	.cfi_restore_state
	movq	216(%rsp), %r12
	cmpq	%r12, %r15
	je	.L1890
	ja	.L1963
	movq	208(%rsp), %rax
	subq	%r15, %r12
	movl	$65536, %r13d
	addq	%r15, %rax
	cmpq	%r13, %r12
	movq	%rax, (%rsp)
	cmovbe	%r12, %r13
.L1892:
	movq	16(%rbx), %rax
	pxor	%xmm0, %xmm0
	movdqa	208(%rsp), %xmm5
	movq	%rbx, 112(%rsp)
	movdqa	240(%rsp), %xmm6
	movq	%r15, 144(%rsp)
	movq	%rax, 8(%rsp)
	movq	256(%rsp), %rax
	movl	$0, 136(%rsp)
	movq	%rax, 168(%rsp)
	leaq	112(%rsp), %rax
	movq	%rax, 64(%rsp)
	movups	%xmm5, 120(%rsp)
	movups	%xmm6, 152(%rsp)
	movups	%xmm0, 72(%rsp)
	data16	leaq	_ZN4asio6detail15keyword_tss_ptrINS0_10call_stackINS0_15task_io_serviceENS0_27task_io_service_thread_infoEE7contextEE6value_E@tlsgd(%rip), %rdi
	.value	0x6666
	rex64
	call	__tls_get_addr@PLT
	movq	(%rax), %rax
	testq	%rax, %rax
	je	.L1893
	movq	8(%rax), %rax
	testq	%rax, %rax
	je	.L1893
	movq	(%rax), %rbp
	testq	%rbp, %rbp
	je	.L1893
	movq	$0, (%rax)
	movzbl	0(%rbp), %eax
	cmpb	$-113, %al
	jbe	.L1894
	movb	%al, 144(%rbp)
	movq	%rbx, 16(%rsp)
	movl	$0, 28(%rsp)
	jmp	.L1895
	.p2align 4,,10
	.p2align 3
.L2044:
	movzbl	120(%rbp), %edx
	movb	%dl, 0(%rbp)
	movq	%rbp, (%rax)
	jmp	.L1888
	.p2align 4,,10
	.p2align 3
.L1894:
	movq	%rbp, %rdi
	call	_ZdlPv@PLT
.L1893:
	movl	$145, %edi
	call	_Znwm@PLT
.LEHE39:
	movb	$-112, 144(%rax)
	movq	%rax, %rbp
	movq	112(%rsp), %rax
	movq	144(%rsp), %r15
	movq	%rax, 16(%rsp)
	movl	136(%rsp), %eax
	movl	%eax, 28(%rsp)
.L1895:
	leaq	_ZN4asio6detail19descriptor_write_opINS_15const_buffers_1ENS0_8write_opINS_17basic_serial_portINS_19serial_port_serviceEEES2_NS0_14transfer_all_tENS0_15wrapped_handlerINS_10io_service6strandEZN7asiopal13SerialChannel14BeginWriteImplERKN7openpal6RSliceEEUlRKSt10error_codemE_NS0_26is_continuation_if_runningEEEEEE11do_completeEPNS0_15task_io_serviceEPNS0_25task_io_service_operationESJ_m(%rip), %rax
	movl	(%rbx), %r14d
	movq	%rbp, 72(%rsp)
	movq	%rbp, %xmm4
	movq	$0, 0(%rbp)
	punpcklqdq	%xmm4, %xmm4
	movq	%rax, 8(%rbp)
	movl	$0, 16(%rbp)
	movl	$0, 24(%rbp)
	movaps	%xmm4, 32(%rsp)
	call	_ZNSt3_V215system_categoryEv@PLT
	movdqu	120(%rsp), %xmm7
	movl	%r14d, 56(%rbp)
	movdqu	152(%rsp), %xmm0
	movq	%rax, 32(%rbp)
	movq	%rax, %rcx
	movq	_ZN4asio6detail24descriptor_write_op_baseINS_15const_buffers_1EE10do_performEPNS0_10reactor_opE@GOTPCREL(%rip), %rax
	movq	$0, 40(%rbp)
	movq	%r13, 72(%rbp)
	movq	%rax, 48(%rbp)
	movq	(%rsp), %rax
	movq	%r15, 112(%rbp)
	movq	%rax, 64(%rbp)
	movq	16(%rsp), %rax
	movups	%xmm7, 88(%rbp)
	movq	%rax, 80(%rbp)
	movl	28(%rsp), %eax
	movups	%xmm0, 120(%rbp)
	movl	%eax, 104(%rbp)
	movq	168(%rsp), %rax
	movq	%rax, 136(%rbp)
	movq	%rbp, 80(%rsp)
	testq	%r12, %r12
	je	.L1896
	testb	$3, 4(%rbx)
	jne	.L1897
	cmpl	$-1, %r14d
	je	.L2047
	movq	%rcx, (%rsp)
	call	__errno_location@PLT
	movl	%r14d, %edi
	leaq	52(%rsp), %rdx
	movl	$21537, %esi
	movl	$0, (%rax)
	movq	%rax, %r12
	xorl	%eax, %eax
	movl	$1, 52(%rsp)
	call	ioctl@PLT
	movq	_ZGVZN4asio15system_categoryEvE8instance@GOTPCREL(%rip), %r13
	movl	%eax, %r14d
	movzbl	0(%r13), %eax
	testb	%al, %al
	movq	(%rsp), %rcx
	je	.L1902
.L2027:
	movq	_ZZN4asio15system_categoryEvE8instance@GOTPCREL(%rip), %r15
.L1903:
	movl	(%r12), %eax
	movq	%r15, 32(%rbp)
	movl	%eax, 24(%rbp)
	testl	%r14d, %r14d
	js	.L1896
	movl	$0, 24(%rbp)
	movl	(%rbx), %r14d
	movq	%rcx, 32(%rbp)
	orb	$2, 4(%rbx)
.L1897:
	movq	8(%rsp), %rax
	movq	8(%rbx), %r12
	movq	40(%rax), %r13
	testq	%r12, %r12
	je	.L2048
	addq	$40, %r12
	movq	%r12, %rdi
	call	pthread_mutex_lock@PLT
	movq	8(%rbx), %rax
	cmpb	$0, 144(%rax)
	jne	.L2049
	cmpq	$0, 112(%rax)
	je	.L2050
.L1933:
	movq	120(%rax), %rdx
	movq	$0, 0(%rbp)
	testq	%rdx, %rdx
	je	.L1946
	movq	%rbp, (%rdx)
	movq	%rbp, 120(%rax)
.L1947:
	movq	40(%r13), %rax
	lock addq	$1, 184(%rax)
	movq	%r12, %rdi
	call	pthread_mutex_unlock@PLT
	jmp	.L1960
.L2047:
	movq	_ZGVZN4asio15system_categoryEvE8instance@GOTPCREL(%rip), %r12
	movzbl	(%r12), %eax
	testb	%al, %al
	je	.L1899
.L2026:
	movq	_ZZN4asio15system_categoryEvE8instance@GOTPCREL(%rip), %r15
.L1900:
	movl	$9, 24(%rbp)
	movq	%r15, 32(%rbp)
	.p2align 4,,10
	.p2align 3
.L1896:
	movq	8(%rsp), %rax
	movq	40(%rax), %rax
	movq	40(%rax), %rbx
	data16	leaq	_ZN4asio6detail15keyword_tss_ptrINS0_10call_stackINS0_15task_io_serviceENS0_27task_io_service_thread_infoEE7contextEE6value_E@tlsgd(%rip), %rdi
	.value	0x6666
	rex64
	call	__tls_get_addr@PLT
	movq	(%rax), %rax
	testq	%rax, %rax
	jne	.L1953
	jmp	.L1950
	.p2align 4,,10
	.p2align 3
.L1951:
	movq	16(%rax), %rax
	testq	%rax, %rax
	je	.L1950
.L1953:
	cmpq	(%rax), %rbx
	jne	.L1951
	movq	8(%rax), %rax
	testq	%rax, %rax
	je	.L1950
	addq	$1, 24(%rax)
	movq	$0, 0(%rbp)
	movq	16(%rax), %rdx
	testq	%rdx, %rdx
	je	.L1954
.L2031:
	movq	%rbp, (%rdx)
	movq	%rbp, 16(%rax)
	jmp	.L1960
	.p2align 4,,10
	.p2align 3
.L1963:
	movq	$0, (%rsp)
	xorl	%r13d, %r13d
	xorl	%r12d, %r12d
	jmp	.L1892
	.p2align 4,,10
	.p2align 3
.L1950:
	lock addq	$1, 184(%rbx)
	leaq	48(%rbx), %r12
	movq	%r12, %rdi
	call	pthread_mutex_lock@PLT
	cmpq	$0, 200(%rbx)
	movq	$0, 0(%rbp)
	je	.L1955
.L2041:
	movq	200(%rbx), %rax
	movq	%rbp, (%rax)
	movq	%rbp, 200(%rbx)
.L1956:
	movq	136(%rbx), %rax
	orq	$1, %rax
	movq	%rax, 136(%rbx)
	cmpq	$1, %rax
	je	.L1957
	movq	%r12, %rdi
	call	pthread_mutex_unlock@PLT
	leaq	88(%rbx), %rdi
	call	pthread_cond_signal@PLT
	jmp	.L1960
	.p2align 4,,10
	.p2align 3
.L1957:
	cmpb	$0, 176(%rbx)
	jne	.L1927
	movq	144(%rbx), %rax
	testq	%rax, %rax
	je	.L1927
	movb	$1, 176(%rbx)
	leaq	88(%rax), %rdx
	leaq	52(%rsp), %rcx
	movl	$3, %esi
	movl	$-2147483639, 52(%rsp)
	movq	%rdx, 56(%rsp)
	movl	88(%rax), %edx
	movl	96(%rax), %edi
	call	epoll_ctl@PLT
.L1927:
	movq	%r12, %rdi
	call	pthread_mutex_unlock@PLT
	jmp	.L1960
	.p2align 4,,10
	.p2align 3
.L1902:
	movq	%r13, %rdi
	movq	%rcx, (%rsp)
	call	__cxa_guard_acquire@PLT
	movq	(%rsp), %rcx
	testl	%eax, %eax
	je	.L2027
	movq	_ZZN4asio15system_categoryEvE8instance@GOTPCREL(%rip), %r15
	movq	_ZN4asio6detail15system_categoryD1Ev@GOTPCREL(%rip), %rdi
	leaq	__dso_handle(%rip), %rdx
	movq	%rcx, (%rsp)
	movq	%r15, %rsi
	call	__cxa_atexit@PLT
	movq	%r13, %rdi
	call	__cxa_guard_release@PLT
	movq	(%rsp), %rcx
	jmp	.L1903
	.p2align 4,,10
	.p2align 3
.L1955:
	movdqa	32(%rsp), %xmm5
	movups	%xmm5, 192(%rbx)
	jmp	.L1956
.L1954:
	movdqa	32(%rsp), %xmm6
	movups	%xmm6, 8(%rax)
	jmp	.L1960
.L1946:
	movdqa	32(%rsp), %xmm7
	movups	%xmm7, 112(%rax)
	jmp	.L1947
.L2048:
	movq	_ZGVZN4asio15system_categoryEvE8instance@GOTPCREL(%rip), %r12
	movzbl	(%r12), %eax
	testb	%al, %al
	je	.L1907
.L2028:
	movq	_ZZN4asio15system_categoryEvE8instance@GOTPCREL(%rip), %r15
.L1908:
	movl	$9, 24(%rbp)
	movq	40(%r13), %rbx
	movq	%r15, 32(%rbp)
	data16	leaq	_ZN4asio6detail15keyword_tss_ptrINS0_10call_stackINS0_15task_io_serviceENS0_27task_io_service_thread_infoEE7contextEE6value_E@tlsgd(%rip), %rdi
	.value	0x6666
	rex64
	call	__tls_get_addr@PLT
	movq	(%rax), %rax
	testq	%rax, %rax
	jne	.L1913
	jmp	.L1935
	.p2align 4,,10
	.p2align 3
.L1911:
	movq	16(%rax), %rax
	testq	%rax, %rax
	je	.L1935
.L1913:
	cmpq	(%rax), %rbx
	jne	.L1911
.L2043:
	movq	8(%rax), %rax
	testq	%rax, %rax
	je	.L1935
	addq	$1, 24(%rax)
	movq	$0, 0(%rbp)
	movq	16(%rax), %rdx
	testq	%rdx, %rdx
	jne	.L2031
	movdqa	32(%rsp), %xmm7
	movups	%xmm7, 8(%rax)
	jmp	.L1960
.L2049:
	data16	leaq	_ZN4asio6detail15keyword_tss_ptrINS0_10call_stackINS0_15task_io_serviceENS0_27task_io_service_thread_infoEE7contextEE6value_E@tlsgd(%rip), %rdi
	.value	0x6666
	rex64
	call	__tls_get_addr@PLT
	movq	40(%r13), %rbx
	movq	(%rax), %rax
	testq	%rax, %rax
	jne	.L1925
	jmp	.L1922
	.p2align 4,,10
	.p2align 3
.L1923:
	movq	16(%rax), %rax
	testq	%rax, %rax
	je	.L1922
.L1925:
	cmpq	(%rax), %rbx
	jne	.L1923
	movq	8(%rax), %rax
	testq	%rax, %rax
	je	.L1922
	addq	$1, 24(%rax)
	movq	$0, 0(%rbp)
	movq	16(%rax), %rdx
	testq	%rdx, %rdx
	je	.L1926
	movq	%rbp, (%rdx)
	movq	%rbp, 16(%rax)
	jmp	.L1927
.L1935:
	lock addq	$1, 184(%rbx)
	leaq	48(%rbx), %r12
	movq	%r12, %rdi
	call	pthread_mutex_lock@PLT
	movq	$0, 0(%rbp)
	cmpq	$0, 200(%rbx)
	jne	.L2041
	movdqa	32(%rsp), %xmm6
	movups	%xmm6, 192(%rbx)
	jmp	.L1956
.L1922:
	lock addq	$1, 184(%rbx)
	leaq	48(%rbx), %r13
	movq	%r13, %rdi
	call	pthread_mutex_lock@PLT
	cmpq	$0, 200(%rbx)
	movq	$0, 0(%rbp)
	je	.L1928
	movq	200(%rbx), %rax
	movq	%rbp, (%rax)
	movq	%rbp, 200(%rbx)
.L1929:
	movq	136(%rbx), %rax
	orq	$1, %rax
	movq	%rax, 136(%rbx)
	cmpq	$1, %rax
	je	.L1930
	movq	%r13, %rdi
	call	pthread_mutex_unlock@PLT
	leaq	88(%rbx), %rdi
	call	pthread_cond_signal@PLT
	jmp	.L1927
.L2050:
	movq	%rbp, %rdi
.LEHB40:
	call	*48(%rbp)
.LEHE40:
	testb	%al, %al
	jne	.L2051
	movq	8(%rbx), %rax
	movl	92(%rax), %edx
	testb	$4, %dl
	jne	.L1933
	orl	$4, %edx
	movq	%rax, 56(%rsp)
	leaq	52(%rsp), %rcx
	movl	$3, %esi
	movl	%edx, 52(%rsp)
	movl	96(%r13), %edi
	movl	%r14d, %edx
	call	epoll_ctl@PLT
	testl	%eax, %eax
	jne	.L1945
	movq	8(%rbx), %rax
	movl	52(%rsp), %edx
	orl	%edx, 92(%rax)
	movq	8(%rbx), %rax
	jmp	.L1933
.L1930:
	cmpb	$0, 176(%rbx)
	jne	.L1932
	movq	144(%rbx), %rax
	testq	%rax, %rax
	je	.L1932
	movb	$1, 176(%rbx)
	leaq	88(%rax), %rdx
	leaq	52(%rsp), %rcx
	movl	$3, %esi
	movq	%rdx, 56(%rsp)
	movl	88(%rax), %edx
	movl	$-2147483639, 52(%rsp)
	movl	96(%rax), %edi
	call	epoll_ctl@PLT
.L1932:
	movq	%r13, %rdi
	call	pthread_mutex_unlock@PLT
	jmp	.L1927
.L1907:
	movq	%r12, %rdi
	call	__cxa_guard_acquire@PLT
	testl	%eax, %eax
	je	.L2028
	movq	_ZZN4asio15system_categoryEvE8instance@GOTPCREL(%rip), %r15
	movq	_ZN4asio6detail15system_categoryD1Ev@GOTPCREL(%rip), %rdi
	leaq	__dso_handle(%rip), %rdx
	movq	%r15, %rsi
	call	__cxa_atexit@PLT
	movq	%r12, %rdi
	call	__cxa_guard_release@PLT
	jmp	.L1908
.L1899:
	movq	%r12, %rdi
	call	__cxa_guard_acquire@PLT
	testl	%eax, %eax
	je	.L2026
	movq	_ZZN4asio15system_categoryEvE8instance@GOTPCREL(%rip), %r15
	movq	_ZN4asio6detail15system_categoryD1Ev@GOTPCREL(%rip), %rdi
	leaq	__dso_handle(%rip), %rdx
	movq	%r15, %rsi
	call	__cxa_atexit@PLT
	movq	%r12, %rdi
	call	__cxa_guard_release@PLT
	jmp	.L1900
.L1928:
	movdqa	32(%rsp), %xmm6
	movups	%xmm6, 192(%rbx)
	jmp	.L1929
.L1926:
	movdqa	32(%rsp), %xmm7
	movups	%xmm7, 8(%rax)
	jmp	.L1927
.L2051:
	movq	%r12, %rdi
	call	pthread_mutex_unlock@PLT
	movq	40(%r13), %rbx
	data16	leaq	_ZN4asio6detail15keyword_tss_ptrINS0_10call_stackINS0_15task_io_serviceENS0_27task_io_service_thread_infoEE7contextEE6value_E@tlsgd(%rip), %rdi
	.value	0x6666
	rex64
	call	__tls_get_addr@PLT
	movq	(%rax), %rax
	testq	%rax, %rax
	jne	.L1938
	jmp	.L1935
	.p2align 4,,10
	.p2align 3
.L1936:
	movq	16(%rax), %rax
	testq	%rax, %rax
	je	.L1935
.L1938:
	cmpq	(%rax), %rbx
	jne	.L1936
	jmp	.L2043
.L2046:
	call	__stack_chk_fail@PLT
.L1945:
	call	_ZN4asio15system_categoryEv@PLT
	movq	%rax, %rbx
	call	__errno_location@PLT
	movq	40(%r13), %rdi
	movl	$1, %edx
	movq	%rbp, %rsi
	movl	(%rax), %eax
	movq	%rbx, 32(%rbp)
	movl	%eax, 24(%rbp)
	call	_ZN4asio6detail15task_io_service25post_immediate_completionEPNS0_25task_io_service_operationEb@PLT
	jmp	.L1927
.L1964:
	endbr64
	movq	%rax, %rdi
	jmp	.L1949
.L1965:
	endbr64
	movq	%rax, %rbx
	jmp	.L1948
	.section	.gcc_except_table
.LLSDA9388:
	.byte	0xff
	.byte	0xff
	.byte	0x1
	.uleb128 .LLSDACSE9388-.LLSDACSB9388
.LLSDACSB9388:
	.uleb128 .LEHB39-.LFB9388
	.uleb128 .LEHE39-.LEHB39
	.uleb128 .L1964-.LFB9388
	.uleb128 0
	.uleb128 .LEHB40-.LFB9388
	.uleb128 .LEHE40-.LEHB40
	.uleb128 .L1965-.LFB9388
	.uleb128 0
.LLSDACSE9388:
	.text
	.cfi_endproc
	.section	.text.unlikely
	.cfi_startproc
	.cfi_personality 0x9b,DW.ref.__gxx_personality_v0
	.cfi_lsda 0x1b,.LLSDAC9388
	.type	_ZN4asio6detail18completion_handlerINS0_17rewrapped_handlerINS0_7binder2INS0_8write_opINS_17basic_serial_portINS_19serial_port_serviceEEENS_15const_buffers_1ENS0_14transfer_all_tENS0_15wrapped_handlerINS_10io_service6strandEZN7asiopal13SerialChannel14BeginWriteImplERKN7openpal6RSliceEEUlRKSt10error_codemE_NS0_26is_continuation_if_runningEEEEESJ_mEESM_EEE11do_completeEPNS0_15task_io_serviceEPNS0_25task_io_service_operationESL_m.cold, @function
_ZN4asio6detail18completion_handlerINS0_17rewrapped_handlerINS0_7binder2INS0_8write_opINS_17basic_serial_portINS_19serial_port_serviceEEENS_15const_buffers_1ENS0_14transfer_all_tENS0_15wrapped_handlerINS_10io_service6strandEZN7asiopal13SerialChannel14BeginWriteImplERKN7openpal6RSliceEEUlRKSt10error_codemE_NS0_26is_continuation_if_runningEEEEESJ_mEESM_EEE11do_completeEPNS0_15task_io_serviceEPNS0_25task_io_service_operationESL_m.cold:
.LFSB9388:
.L1948:
	.cfi_def_cfa_offset 368
	.cfi_offset 3, -56
	.cfi_offset 6, -48
	.cfi_offset 12, -40
	.cfi_offset 13, -32
	.cfi_offset 14, -24
	.cfi_offset 15, -16
	movq	%r12, %rdi
	call	pthread_mutex_unlock@PLT
	leaq	64(%rsp), %rdi
	call	_ZN4asio6detail19descriptor_write_opINS_15const_buffers_1ENS0_8write_opINS_17basic_serial_portINS_19serial_port_serviceEEES2_NS0_14transfer_all_tENS0_15wrapped_handlerINS_10io_service6strandEZN7asiopal13SerialChannel14BeginWriteImplERKN7openpal6RSliceEEUlRKSt10error_codemE_NS0_26is_continuation_if_runningEEEEEE3ptr5resetEv
	movq	%rbx, %rdi
.L1949:
	sfence
.LEHB41:
	call	_Unwind_Resume@PLT
.LEHE41:
	.cfi_endproc
.LFE9388:
	.section	.gcc_except_table
.LLSDAC9388:
	.byte	0xff
	.byte	0xff
	.byte	0x1
	.uleb128 .LLSDACSEC9388-.LLSDACSBC9388
.LLSDACSBC9388:
	.uleb128 .LEHB41-.LCOLDB36
	.uleb128 .LEHE41-.LEHB41
	.uleb128 0
	.uleb128 0
.LLSDACSEC9388:
	.section	.text.unlikely
	.text
	.size	_ZN4asio6detail18completion_handlerINS0_17rewrapped_handlerINS0_7binder2INS0_8write_opINS_17basic_serial_portINS_19serial_port_serviceEEENS_15const_buffers_1ENS0_14transfer_all_tENS0_15wrapped_handlerINS_10io_service6strandEZN7asiopal13SerialChannel14BeginWriteImplERKN7openpal6RSliceEEUlRKSt10error_codemE_NS0_26is_continuation_if_runningEEEEESJ_mEESM_EEE11do_completeEPNS0_15task_io_serviceEPNS0_25task_io_service_operationESL_m, .-_ZN4asio6detail18completion_handlerINS0_17rewrapped_handlerINS0_7binder2INS0_8write_opINS_17basic_serial_portINS_19serial_port_serviceEEENS_15const_buffers_1ENS0_14transfer_all_tENS0_15wrapped_handlerINS_10io_service6strandEZN7asiopal13SerialChannel14BeginWriteImplERKN7openpal6RSliceEEUlRKSt10error_codemE_NS0_26is_continuation_if_runningEEEEESJ_mEESM_EEE11do_completeEPNS0_15task_io_serviceEPNS0_25task_io_service_operationESL_m
	.section	.text.unlikely
	.size	_ZN4asio6detail18completion_handlerINS0_17rewrapped_handlerINS0_7binder2INS0_8write_opINS_17basic_serial_portINS_19serial_port_serviceEEENS_15const_buffers_1ENS0_14transfer_all_tENS0_15wrapped_handlerINS_10io_service6strandEZN7asiopal13SerialChannel14BeginWriteImplERKN7openpal6RSliceEEUlRKSt10error_codemE_NS0_26is_continuation_if_runningEEEEESJ_mEESM_EEE11do_completeEPNS0_15task_io_serviceEPNS0_25task_io_service_operationESL_m.cold, .-_ZN4asio6detail18completion_handlerINS0_17rewrapped_handlerINS0_7binder2INS0_8write_opINS_17basic_serial_portINS_19serial_port_serviceEEENS_15const_buffers_1ENS0_14transfer_all_tENS0_15wrapped_handlerINS_10io_service6strandEZN7asiopal13SerialChannel14BeginWriteImplERKN7openpal6RSliceEEUlRKSt10error_codemE_NS0_26is_continuation_if_runningEEEEESJ_mEESM_EEE11do_completeEPNS0_15task_io_serviceEPNS0_25task_io_service_operationESL_m.cold
.LCOLDE36:
	.text
.LHOTE36:
	.section	.text.unlikely
.LCOLDB37:
	.text
.LHOTB37:
	.p2align 4
	.type	_ZN4asio6detail19descriptor_write_opINS_15const_buffers_1ENS0_8write_opINS_17basic_serial_portINS_19serial_port_serviceEEES2_NS0_14transfer_all_tENS0_15wrapped_handlerINS_10io_service6strandEZN7asiopal13SerialChannel14BeginWriteImplERKN7openpal6RSliceEEUlRKSt10error_codemE_NS0_26is_continuation_if_runningEEEEEE11do_completeEPNS0_15task_io_serviceEPNS0_25task_io_service_operationESJ_m, @function
_ZN4asio6detail19descriptor_write_opINS_15const_buffers_1ENS0_8write_opINS_17basic_serial_portINS_19serial_port_serviceEEES2_NS0_14transfer_all_tENS0_15wrapped_handlerINS_10io_service6strandEZN7asiopal13SerialChannel14BeginWriteImplERKN7openpal6RSliceEEUlRKSt10error_codemE_NS0_26is_continuation_if_runningEEEEEE11do_completeEPNS0_15task_io_serviceEPNS0_25task_io_service_operationESJ_m:
.LFB9259:
	.cfi_startproc
	.cfi_personality 0x9b,DW.ref.__gxx_personality_v0
	.cfi_lsda 0x1b,.LLSDA9259
	endbr64
	pushq	%r15
	.cfi_def_cfa_offset 16
	.cfi_offset 15, -16
	pushq	%r14
	.cfi_def_cfa_offset 24
	.cfi_offset 14, -24
	pushq	%r13
	.cfi_def_cfa_offset 32
	.cfi_offset 13, -32
	pushq	%r12
	.cfi_def_cfa_offset 40
	.cfi_offset 12, -40
	pushq	%rbp
	.cfi_def_cfa_offset 48
	.cfi_offset 6, -48
	movq	%rsi, %rbp
	pushq	%rbx
	.cfi_def_cfa_offset 56
	.cfi_offset 3, -56
	movq	%rdi, %rbx
	subq	$552, %rsp
	.cfi_def_cfa_offset 608
	movdqu	88(%rsi), %xmm4
	movdqu	120(%rsi), %xmm5
	movq	%fs:40, %rax
	movq	%rax, 536(%rsp)
	xorl	%eax, %eax
	movq	80(%rsi), %rax
	movdqu	24(%rsi), %xmm6
	movq	%rsi, 88(%rsp)
	movq	$0, 96(%rsp)
	movq	%rax, 240(%rsp)
	movl	104(%rsi), %eax
	movups	%xmm4, 248(%rsp)
	movl	%eax, 264(%rsp)
	movq	112(%rsi), %rax
	movups	%xmm5, 280(%rsp)
	movq	%rax, 272(%rsp)
	movq	136(%rsi), %rax
	movaps	%xmm6, 304(%rsp)
	movq	%rax, 296(%rsp)
	movq	40(%rsi), %rax
	movq	%rax, 320(%rsp)
	leaq	240(%rsp), %rax
	movq	%rax, 80(%rsp)
	data16	leaq	_ZN4asio6detail15keyword_tss_ptrINS0_10call_stackINS0_15task_io_serviceENS0_27task_io_service_thread_infoEE7contextEE6value_E@tlsgd(%rip), %rdi
	.value	0x6666
	rex64
	call	__tls_get_addr@PLT
	movq	(%rax), %rax
	testq	%rax, %rax
	je	.L2053
	movq	8(%rax), %rax
	testq	%rax, %rax
	je	.L2053
	cmpq	$0, (%rax)
	je	.L2306
.L2053:
	movq	%rbp, %rdi
	call	_ZdlPv@PLT
.L2054:
	movq	$0, 88(%rsp)
	testq	%rbx, %rbx
	je	.L2052
	movq	296(%rsp), %rax
	movdqu	248(%rsp), %xmm2
	movq	240(%rsp), %rbx
	movl	264(%rsp), %r14d
	movq	272(%rsp), %rbp
	movq	320(%rsp), %r12
	movq	%rax, 336(%rsp)
	movq	%rax, 400(%rsp)
	movq	280(%rsp), %r13
	movq	%rax, 432(%rsp)
	movq	288(%rsp), %r15
	movdqu	280(%rsp), %xmm1
	movq	%rbx, 440(%rsp)
	movdqa	304(%rsp), %xmm0
	movl	%r14d, 464(%rsp)
	movq	%rbp, 472(%rsp)
	movq	%rax, 496(%rsp)
	movq	%r12, 520(%rsp)
	movaps	%xmm2, 352(%rsp)
	movaps	%xmm1, 384(%rsp)
	movups	%xmm0, 408(%rsp)
	movaps	%xmm2, 448(%rsp)
	movaps	%xmm1, 480(%rsp)
	movups	%xmm0, 504(%rsp)
	data16	leaq	_ZN4asio6detail15keyword_tss_ptrINS0_10call_stackINS0_14strand_service11strand_implEhE7contextEE6value_E@tlsgd(%rip), %rdi
	.value	0x6666
	rex64
	call	__tls_get_addr@PLT
	movq	(%rax), %rax
	testq	%rax, %rax
	jne	.L2059
	jmp	.L2056
	.p2align 4,,10
	.p2align 3
.L2057:
	movq	16(%rax), %rax
	testq	%rax, %rax
	je	.L2056
.L2059:
	cmpq	(%rax), %r15
	jne	.L2057
	cmpq	$0, 8(%rax)
	je	.L2056
	lfence
	leaq	0(%rbp,%r12), %r15
	movl	504(%rsp), %eax
	movl	$0, 464(%rsp)
	movq	%r15, 472(%rsp)
	testq	%r12, %r12
	je	.L2060
	testl	%eax, %eax
	jne	.L2060
	movq	456(%rsp), %r12
	cmpq	%r12, %r15
	je	.L2060
	ja	.L2182
	movq	448(%rsp), %rax
	subq	%r15, %r12
	movl	$65536, %r13d
	addq	%r15, %rax
	cmpq	%r13, %r12
	movq	%rax, 16(%rsp)
	cmovbe	%r12, %r13
.L2062:
	movq	16(%rbx), %rax
	pxor	%xmm0, %xmm0
	movdqa	448(%rsp), %xmm3
	movq	%rbx, 160(%rsp)
	movdqa	480(%rsp), %xmm2
	movq	%r15, 192(%rsp)
	movq	%rax, 40(%rsp)
	movq	496(%rsp), %rax
	movl	$0, 184(%rsp)
	movq	%rax, 216(%rsp)
	leaq	160(%rsp), %rax
	movq	%rax, 112(%rsp)
	movups	%xmm3, 168(%rsp)
	movups	%xmm2, 200(%rsp)
	movups	%xmm0, 120(%rsp)
	data16	leaq	_ZN4asio6detail15keyword_tss_ptrINS0_10call_stackINS0_15task_io_serviceENS0_27task_io_service_thread_infoEE7contextEE6value_E@tlsgd(%rip), %rdi
	.value	0x6666
	rex64
	call	__tls_get_addr@PLT
	movq	(%rax), %rax
	testq	%rax, %rax
	je	.L2063
	movq	8(%rax), %rax
	testq	%rax, %rax
	je	.L2063
	movq	(%rax), %rbp
	testq	%rbp, %rbp
	je	.L2063
	movq	$0, (%rax)
	movzbl	0(%rbp), %eax
	cmpb	$-113, %al
	jbe	.L2064
	movb	%al, 144(%rbp)
	movq	%rbx, %rdi
	xorl	%esi, %esi
.L2065:
	leaq	_ZN4asio6detail19descriptor_write_opINS_15const_buffers_1ENS0_8write_opINS_17basic_serial_portINS_19serial_port_serviceEEES2_NS0_14transfer_all_tENS0_15wrapped_handlerINS_10io_service6strandEZN7asiopal13SerialChannel14BeginWriteImplERKN7openpal6RSliceEEUlRKSt10error_codemE_NS0_26is_continuation_if_runningEEEEEE11do_completeEPNS0_15task_io_serviceEPNS0_25task_io_service_operationESJ_m(%rip), %rax
	movl	(%rbx), %r14d
	movq	%rbp, 120(%rsp)
	movq	%rbp, %xmm1
	movq	$0, 0(%rbp)
	punpcklqdq	%xmm1, %xmm1
	movq	%rax, 8(%rbp)
	movl	$0, 16(%rbp)
	movl	$0, 24(%rbp)
	movq	%rdi, 56(%rsp)
	movl	%esi, 52(%rsp)
	movaps	%xmm1, (%rsp)
	call	_ZNSt3_V215system_categoryEv@PLT
	movq	56(%rsp), %rdi
	movl	52(%rsp), %esi
	movq	$0, 40(%rbp)
	movdqu	168(%rsp), %xmm3
	movq	%rax, 32(%rbp)
	movq	%rax, %rcx
	movq	_ZN4asio6detail24descriptor_write_op_baseINS_15const_buffers_1EE10do_performEPNS0_10reactor_opE@GOTPCREL(%rip), %rax
	movl	%r14d, 56(%rbp)
	movdqu	200(%rsp), %xmm1
	movq	%r13, 72(%rbp)
	movq	%rax, 48(%rbp)
	movq	16(%rsp), %rax
	movq	%rdi, 80(%rbp)
	movq	%rax, 64(%rbp)
	movq	216(%rsp), %rax
	movl	%esi, 104(%rbp)
	movq	%r15, 112(%rbp)
	movq	%rax, 136(%rbp)
	movups	%xmm3, 88(%rbp)
	movups	%xmm1, 120(%rbp)
	movq	%rbp, 128(%rsp)
	testq	%r12, %r12
	je	.L2066
	testb	$3, 4(%rbx)
	jne	.L2067
	cmpl	$-1, %r14d
	je	.L2307
	movq	%rcx, 16(%rsp)
	call	__errno_location@PLT
	movl	%r14d, %edi
	leaq	64(%rsp), %rdx
	movl	$21537, %esi
	movl	$0, (%rax)
	movq	%rax, %r15
	xorl	%eax, %eax
	movl	$1, 64(%rsp)
	call	ioctl@PLT
	movq	_ZGVZN4asio15system_categoryEvE8instance@GOTPCREL(%rip), %r13
	movl	%eax, %r14d
	movzbl	0(%r13), %eax
	testb	%al, %al
	movq	16(%rsp), %rcx
	je	.L2072
.L2290:
	movq	_ZZN4asio15system_categoryEvE8instance@GOTPCREL(%rip), %r12
.L2073:
	movl	(%r15), %eax
	movq	%r12, 32(%rbp)
	movl	%eax, 24(%rbp)
	testl	%r14d, %r14d
	jns	.L2308
.L2066:
	movq	40(%rsp), %rax
	movq	40(%rax), %rax
	movq	40(%rax), %rbx
	data16	leaq	_ZN4asio6detail15keyword_tss_ptrINS0_10call_stackINS0_15task_io_serviceENS0_27task_io_service_thread_infoEE7contextEE6value_E@tlsgd(%rip), %rdi
	.value	0x6666
	rex64
	call	__tls_get_addr@PLT
	movq	(%rax), %rax
	testq	%rax, %rax
	jne	.L2123
	jmp	.L2120
	.p2align 4,,10
	.p2align 3
.L2121:
	movq	16(%rax), %rax
	testq	%rax, %rax
	je	.L2120
.L2123:
	cmpq	(%rax), %rbx
	jne	.L2121
	movq	8(%rax), %rax
	testq	%rax, %rax
	je	.L2120
	addq	$1, 24(%rax)
	movq	$0, 0(%rbp)
	movq	16(%rax), %rdx
	testq	%rdx, %rdx
	je	.L2124
.L2293:
	movq	%rbp, (%rdx)
	movq	%rbp, 16(%rax)
.L2085:
	movq	96(%rsp), %rbx
	movq	88(%rsp), %rbp
	sfence
	jmp	.L2130
	.p2align 4,,10
	.p2align 3
.L2060:
	movl	%eax, 120(%rsp)
	movq	496(%rsp), %rcx
	leaq	112(%rsp), %rdx
	leaq	488(%rsp), %rsi
	movq	512(%rsp), %rax
	movq	480(%rsp), %rdi
	movq	%r15, 136(%rsp)
	movq	%rcx, 112(%rsp)
	movq	%rax, 128(%rsp)
.LEHB42:
	call	_ZN4asio6detail14strand_service8dispatchINS0_7binder2IZN7asiopal13SerialChannel14BeginWriteImplERKN7openpal6RSliceEEUlRKSt10error_codemE_SA_mEEEEvRPNS1_11strand_implERT_.constprop.0
.LEHE42:
	sfence
	sfence
.L2052:
	movq	536(%rsp), %rax
	subq	%fs:40, %rax
	jne	.L2295
	addq	$552, %rsp
	.cfi_remember_state
	.cfi_def_cfa_offset 56
	popq	%rbx
	.cfi_def_cfa_offset 48
	popq	%rbp
	.cfi_def_cfa_offset 40
	popq	%r12
	.cfi_def_cfa_offset 32
	popq	%r13
	.cfi_def_cfa_offset 24
	popq	%r14
	.cfi_def_cfa_offset 16
	popq	%r15
	.cfi_def_cfa_offset 8
	ret
	.p2align 4,,10
	.p2align 3
.L2056:
	.cfi_restore_state
	data16	leaq	_ZN4asio6detail15keyword_tss_ptrINS0_10call_stackINS0_15task_io_serviceENS0_27task_io_service_thread_infoEE7contextEE6value_E@tlsgd(%rip), %rdi
	.value	0x6666
	rex64
	call	__tls_get_addr@PLT
	movq	(%rax), %rax
	testq	%rax, %rax
	je	.L2133
	movq	8(%rax), %rax
	testq	%rax, %rax
	je	.L2133
	movq	(%rax), %r15
	testq	%r15, %r15
	je	.L2133
	movq	$0, (%rax)
	movzbl	(%r15), %eax
	cmpb	$119, %al
	jbe	.L2134
	movb	%al, 120(%r15)
	jmp	.L2135
	.p2align 4,,10
	.p2align 3
.L2134:
	movq	%r15, %rdi
	call	_ZdlPv@PLT
.L2133:
	movl	$121, %edi
.LEHB43:
	call	_Znwm@PLT
.LEHE43:
	movb	$120, 120(%rax)
	movq	%rax, %r15
.L2135:
	leaq	_ZN4asio6detail18completion_handlerINS0_17rewrapped_handlerINS0_7binder2INS0_8write_opINS_17basic_serial_portINS_19serial_port_serviceEEENS_15const_buffers_1ENS0_14transfer_all_tENS0_15wrapped_handlerINS_10io_service6strandEZN7asiopal13SerialChannel14BeginWriteImplERKN7openpal6RSliceEEUlRKSt10error_codemE_NS0_26is_continuation_if_runningEEEEESJ_mEESM_EEE11do_completeEPNS0_15task_io_serviceEPNS0_25task_io_service_operationESL_m(%rip), %rax
	movq	%rbx, 32(%r15)
	movdqa	448(%rsp), %xmm7
	movq	%r15, %xmm3
	movq	%rax, 8(%r15)
	movq	432(%rsp), %rax
	punpcklqdq	%xmm3, %xmm3
	movdqu	504(%rsp), %xmm4
	movups	%xmm7, 40(%r15)
	movq	40(%r13), %rbx
	movdqa	480(%rsp), %xmm7
	movq	%rax, 24(%r15)
	movq	496(%rsp), %rax
	movq	$0, (%r15)
	movl	$0, 16(%r15)
	movl	%r14d, 56(%r15)
	movq	%rbp, 64(%r15)
	movq	%rax, 88(%r15)
	movq	%r12, 112(%r15)
	movups	%xmm7, 72(%r15)
	movups	%xmm4, 96(%r15)
	movaps	%xmm3, (%rsp)
	data16	leaq	_ZN4asio6detail15keyword_tss_ptrINS0_10call_stackINS0_15task_io_serviceENS0_27task_io_service_thread_infoEE7contextEE6value_E@tlsgd(%rip), %rdi
	.value	0x6666
	rex64
	call	__tls_get_addr@PLT
	movq	(%rax), %rax
	testq	%rax, %rax
	jne	.L2140
	jmp	.L2136
	.p2align 4,,10
	.p2align 3
.L2137:
	movq	16(%rax), %rax
	testq	%rax, %rax
	je	.L2136
.L2140:
	cmpq	(%rax), %rbx
	jne	.L2137
	movq	8(%rax), %rbx
	movq	288(%rsp), %rax
	leaq	24(%rax), %rdi
	call	pthread_mutex_lock@PLT
	testq	%rbx, %rbx
	je	.L2139
	movq	288(%rsp), %rax
	cmpb	$0, 64(%rax)
	leaq	24(%rax), %rdi
	je	.L2309
.L2141:
	movq	$0, (%r15)
	movq	80(%rax), %rdx
	testq	%rdx, %rdx
	je	.L2144
	movq	%r15, (%rdx)
	movq	%r15, 80(%rax)
.L2145:
	call	pthread_mutex_unlock@PLT
	sfence
	jmp	.L2052
.L2309:
	movb	$1, 64(%rax)
	call	pthread_mutex_unlock@PLT
	movq	288(%rsp), %rbx
	movq	%rbx, %xmm7
	movq	%rbx, 160(%rsp)
	punpcklqdq	%xmm7, %xmm7
	movaps	%xmm7, (%rsp)
	data16	leaq	_ZN4asio6detail15keyword_tss_ptrINS0_10call_stackINS0_14strand_service11strand_implEhE7contextEE6value_E@tlsgd(%rip), %rdi
	.value	0x6666
	rex64
	call	__tls_get_addr@PLT
	movq	40(%r13), %rbp
	movq	%rbx, %xmm6
	xorl	%ecx, %ecx
	leaq	112(%rsp), %r13
	movq	%r15, %rsi
	movq	%rbp, %xmm0
	movq	%rbp, %rdi
	punpcklqdq	%xmm6, %xmm0
	movaps	%xmm0, 64(%rsp)
	movq	(%rax), %rdx
	movq	%rdx, 176(%rsp)
	leaq	160(%rsp), %rdx
	movq	%rdx, 168(%rsp)
	movq	%rdx, (%rax)
	movq	%r13, %rdx
.LEHB44:
	call	_ZN4asio6detail18completion_handlerINS0_17rewrapped_handlerINS0_7binder2INS0_8write_opINS_17basic_serial_portINS_19serial_port_serviceEEENS_15const_buffers_1ENS0_14transfer_all_tENS0_15wrapped_handlerINS_10io_service6strandEZN7asiopal13SerialChannel14BeginWriteImplERKN7openpal6RSliceEEUlRKSt10error_codemE_NS0_26is_continuation_if_runningEEEEESJ_mEESM_EEE11do_completeEPNS0_15task_io_serviceEPNS0_25task_io_service_operationESL_m
.LEHE44:
	leaq	24(%rbx), %r14
	movq	%r14, %rdi
	call	pthread_mutex_lock@PLT
	movq	72(%rbx), %r12
	testq	%r12, %r12
	je	.L2310
	movq	96(%rbx), %rax
	testq	%rax, %rax
	je	.L2161
	movq	%r12, (%rax)
	movq	88(%rbx), %r12
.L2162:
	movq	80(%rbx), %rax
	pxor	%xmm0, %xmm0
	movups	%xmm0, 72(%rbx)
	movq	%rax, 96(%rbx)
.L2160:
	testq	%r12, %r12
	movq	%r14, %rdi
	setne	64(%rbx)
	call	pthread_mutex_unlock@PLT
	testq	%r12, %r12
	jne	.L2163
.L2294:
	data16	leaq	_ZN4asio6detail15keyword_tss_ptrINS0_10call_stackINS0_14strand_service11strand_implEhE7contextEE6value_E@tlsgd(%rip), %rdi
	.value	0x6666
	rex64
	call	__tls_get_addr@PLT
	movq	176(%rsp), %rdx
	movq	%rdx, (%rax)
	sfence
	jmp	.L2052
	.p2align 4,,10
	.p2align 3
.L2306:
	movzbl	144(%rbp), %edx
	movb	%dl, 0(%rbp)
	movq	%rbp, (%rax)
	jmp	.L2054
	.p2align 4,,10
	.p2align 3
.L2144:
	movdqa	(%rsp), %xmm2
	movups	%xmm2, 72(%rax)
	jmp	.L2145
	.p2align 4,,10
	.p2align 3
.L2310:
	movq	88(%rbx), %r12
	jmp	.L2160
	.p2align 4,,10
	.p2align 3
.L2136:
	movq	288(%rsp), %rax
	leaq	24(%rax), %rdi
	call	pthread_mutex_lock@PLT
.L2139:
	movq	288(%rsp), %rax
	cmpb	$0, 64(%rax)
	leaq	24(%rax), %rdi
	jne	.L2141
	movb	$1, 64(%rax)
	call	pthread_mutex_unlock@PLT
	movq	288(%rsp), %rbp
	movq	$0, (%r15)
	movq	%rbp, %xmm5
	cmpq	$0, 96(%rbp)
	punpcklqdq	%xmm5, %xmm5
	movaps	%xmm5, 16(%rsp)
	je	.L2146
	movq	96(%rbp), %rax
	movq	%r15, (%rax)
	movq	%r15, 96(%rbp)
.L2147:
	movq	40(%r13), %rbx
	cmpb	$0, 40(%rbx)
	je	.L2148
	data16	leaq	_ZN4asio6detail15keyword_tss_ptrINS0_10call_stackINS0_15task_io_serviceENS0_27task_io_service_thread_infoEE7contextEE6value_E@tlsgd(%rip), %rdi
	.value	0x6666
	rex64
	call	__tls_get_addr@PLT
	movq	(%rax), %rax
	testq	%rax, %rax
	jne	.L2151
	jmp	.L2148
	.p2align 4,,10
	.p2align 3
.L2149:
	movq	16(%rax), %rax
	testq	%rax, %rax
	je	.L2148
.L2151:
	cmpq	(%rax), %rbx
	jne	.L2149
	movq	8(%rax), %rax
	testq	%rax, %rax
	je	.L2148
	addq	$1, 24(%rax)
	movq	$0, 0(%rbp)
	movq	16(%rax), %rdx
	testq	%rdx, %rdx
	je	.L2152
	movq	%rbp, (%rdx)
	movq	%rbp, 16(%rax)
	sfence
	jmp	.L2052
	.p2align 4,,10
	.p2align 3
.L2148:
	lock addq	$1, 184(%rbx)
	leaq	48(%rbx), %r12
	movq	%r12, %rdi
	call	pthread_mutex_lock@PLT
	cmpq	$0, 200(%rbx)
	movq	$0, 0(%rbp)
	je	.L2153
	movq	200(%rbx), %rax
	movq	%rbp, (%rax)
	movq	%rbp, 200(%rbx)
.L2154:
	movq	136(%rbx), %rax
	orq	$1, %rax
	movq	%rax, 136(%rbx)
	cmpq	$1, %rax
	je	.L2155
	movq	%r12, %rdi
	call	pthread_mutex_unlock@PLT
	leaq	88(%rbx), %rdi
	call	pthread_cond_signal@PLT
	jmp	.L2156
.L2155:
	cmpb	$0, 176(%rbx)
	je	.L2311
.L2157:
	movq	%r12, %rdi
	call	pthread_mutex_unlock@PLT
.L2156:
	movq	96(%rsp), %rbx
	movq	88(%rsp), %rbp
.L2130:
	sfence
	testq	%rbx, %rbx
	je	.L2175
	movq	$0, 96(%rsp)
.L2175:
	testq	%rbp, %rbp
	je	.L2052
	data16	leaq	_ZN4asio6detail15keyword_tss_ptrINS0_10call_stackINS0_15task_io_serviceENS0_27task_io_service_thread_infoEE7contextEE6value_E@tlsgd(%rip), %rdi
	.value	0x6666
	rex64
	call	__tls_get_addr@PLT
	movq	(%rax), %rax
	testq	%rax, %rax
	je	.L2179
	movq	8(%rax), %rax
	testq	%rax, %rax
	je	.L2179
	cmpq	$0, (%rax)
	je	.L2312
.L2179:
	movq	536(%rsp), %rax
	subq	%fs:40, %rax
	jne	.L2295
	addq	$552, %rsp
	.cfi_remember_state
	.cfi_def_cfa_offset 56
	movq	%rbp, %rdi
	popq	%rbx
	.cfi_def_cfa_offset 48
	popq	%rbp
	.cfi_def_cfa_offset 40
	popq	%r12
	.cfi_def_cfa_offset 32
	popq	%r13
	.cfi_def_cfa_offset 24
	popq	%r14
	.cfi_def_cfa_offset 16
	popq	%r15
	.cfi_def_cfa_offset 8
	jmp	_ZdlPv@PLT
	.p2align 4,,10
	.p2align 3
.L2312:
	.cfi_restore_state
	movzbl	144(%rbp), %edx
	movb	%dl, 0(%rbp)
	movq	%rbp, (%rax)
	jmp	.L2052
	.p2align 4,,10
	.p2align 3
.L2163:
	cmpb	$0, 40(%rbp)
	je	.L2164
	data16	leaq	_ZN4asio6detail15keyword_tss_ptrINS0_10call_stackINS0_15task_io_serviceENS0_27task_io_service_thread_infoEE7contextEE6value_E@tlsgd(%rip), %rdi
	.value	0x6666
	rex64
	call	__tls_get_addr@PLT
	movq	(%rax), %rax
	testq	%rax, %rax
	jne	.L2167
	jmp	.L2164
	.p2align 4,,10
	.p2align 3
.L2165:
	movq	16(%rax), %rax
	testq	%rax, %rax
	je	.L2164
.L2167:
	cmpq	(%rax), %rbp
	jne	.L2165
	movq	8(%rax), %rax
	testq	%rax, %rax
	je	.L2164
	addq	$1, 24(%rax)
	movq	$0, (%rbx)
	movq	16(%rax), %rdx
	testq	%rdx, %rdx
	je	.L2168
	movq	%rbx, (%rdx)
	movq	%rbx, 16(%rax)
	data16	leaq	_ZN4asio6detail15keyword_tss_ptrINS0_10call_stackINS0_14strand_service11strand_implEhE7contextEE6value_E@tlsgd(%rip), %rdi
	.value	0x6666
	rex64
	call	__tls_get_addr@PLT
	movq	176(%rsp), %rdx
	movq	%rdx, (%rax)
	sfence
	jmp	.L2052
.L2164:
	lock addq	$1, 184(%rbp)
	leaq	48(%rbp), %r12
	movq	%r12, %rdi
	call	pthread_mutex_lock@PLT
	cmpq	$0, 200(%rbp)
	movq	$0, (%rbx)
	je	.L2169
	movq	200(%rbp), %rax
	movq	%rbx, (%rax)
	movq	%rbx, 200(%rbp)
.L2170:
	movq	136(%rbp), %rax
	orq	$1, %rax
	movq	%rax, 136(%rbp)
	cmpq	$1, %rax
	je	.L2171
	movq	%r12, %rdi
	call	pthread_mutex_unlock@PLT
	leaq	88(%rbp), %rdi
	call	pthread_cond_signal@PLT
.L2172:
	data16	leaq	_ZN4asio6detail15keyword_tss_ptrINS0_10call_stackINS0_14strand_service11strand_implEhE7contextEE6value_E@tlsgd(%rip), %rdi
	.value	0x6666
	rex64
	call	__tls_get_addr@PLT
	movq	96(%rsp), %rbx
	movq	88(%rsp), %rbp
	movq	176(%rsp), %rdx
	movq	%rdx, (%rax)
	jmp	.L2130
.L2311:
	movq	144(%rbx), %rax
	testq	%rax, %rax
	je	.L2157
	movb	$1, 176(%rbx)
	leaq	88(%rax), %rdx
	movl	$3, %esi
	leaq	160(%rsp), %rcx
	movq	%rdx, 164(%rsp)
	movl	88(%rax), %edx
	movl	$-2147483639, 160(%rsp)
	movl	96(%rax), %edi
	call	epoll_ctl@PLT
	jmp	.L2157
.L2169:
	movdqa	(%rsp), %xmm1
	movups	%xmm1, 192(%rbp)
	jmp	.L2170
.L2161:
	movq	%r12, 88(%rbx)
	jmp	.L2162
.L2171:
	cmpb	$0, 176(%rbp)
	jne	.L2173
	movq	144(%rbp), %rax
	testq	%rax, %rax
	je	.L2173
	movb	$1, 176(%rbp)
	leaq	88(%rax), %rdx
	movq	%r13, %rcx
	movl	$3, %esi
	movq	%rdx, 116(%rsp)
	movl	88(%rax), %edx
	movl	$-2147483639, 112(%rsp)
	movl	96(%rax), %edi
	call	epoll_ctl@PLT
.L2173:
	movq	%r12, %rdi
	call	pthread_mutex_unlock@PLT
	jmp	.L2172
.L2146:
	movdqa	(%rsp), %xmm2
	movups	%xmm2, 88(%rbp)
	jmp	.L2147
.L2064:
	movq	%rbp, %rdi
	call	_ZdlPv@PLT
.L2063:
	movl	$145, %edi
.LEHB45:
	call	_Znwm@PLT
.LEHE45:
	movb	$-112, 144(%rax)
	movq	160(%rsp), %rdi
	movq	%rax, %rbp
	movl	184(%rsp), %esi
	movq	192(%rsp), %r15
	jmp	.L2065
.L2153:
	movdqa	16(%rsp), %xmm3
	movups	%xmm3, 192(%rbx)
	jmp	.L2154
.L2182:
	movq	$0, 16(%rsp)
	xorl	%r13d, %r13d
	xorl	%r12d, %r12d
	jmp	.L2062
.L2120:
	lock addq	$1, 184(%rbx)
	leaq	48(%rbx), %r12
	movq	%r12, %rdi
	call	pthread_mutex_lock@PLT
	movq	$0, 0(%rbp)
	cmpq	$0, 200(%rbx)
	je	.L2125
.L2304:
	movq	200(%rbx), %rax
	movq	%rbp, (%rax)
	movq	%rbp, 200(%rbx)
.L2126:
	movq	136(%rbx), %rax
	orq	$1, %rax
	movq	%rax, 136(%rbx)
	cmpq	$1, %rax
	je	.L2127
	movq	%r12, %rdi
	call	pthread_mutex_unlock@PLT
	leaq	88(%rbx), %rdi
	call	pthread_cond_signal@PLT
	jmp	.L2085
.L2308:
	movl	$0, 24(%rbp)
	movl	(%rbx), %r14d
	movq	%rcx, 32(%rbp)
	orb	$2, 4(%rbx)
.L2067:
	movq	40(%rsp), %rax
	movq	8(%rbx), %r12
	movq	40(%rax), %r13
	testq	%r12, %r12
	je	.L2313
	addq	$40, %r12
	movq	%r12, %rdi
	call	pthread_mutex_lock@PLT
	movq	8(%rbx), %rax
	cmpb	$0, 144(%rax)
	jne	.L2314
	cmpq	$0, 112(%rax)
	je	.L2315
.L2103:
	movq	120(%rax), %rdx
	movq	$0, 0(%rbp)
	testq	%rdx, %rdx
	je	.L2116
	movq	%rbp, (%rdx)
	movq	%rbp, 120(%rax)
.L2117:
	movq	40(%r13), %rax
	lock addq	$1, 184(%rax)
	movq	%r12, %rdi
	call	pthread_mutex_unlock@PLT
	jmp	.L2085
.L2127:
	cmpb	$0, 176(%rbx)
	jne	.L2129
	movq	144(%rbx), %rax
	testq	%rax, %rax
	je	.L2129
	movb	$1, 176(%rbx)
	leaq	88(%rax), %rdx
	leaq	64(%rsp), %rcx
	movl	$3, %esi
	movl	$-2147483639, 64(%rsp)
	movq	%rdx, 68(%rsp)
	movl	88(%rax), %edx
	movl	96(%rax), %edi
	call	epoll_ctl@PLT
.L2129:
	movq	%r12, %rdi
	call	pthread_mutex_unlock@PLT
	jmp	.L2085
.L2152:
	movdqa	16(%rsp), %xmm2
	movups	%xmm2, 8(%rax)
	sfence
	jmp	.L2052
.L2072:
	movq	%r13, %rdi
	movq	%rcx, 16(%rsp)
	call	__cxa_guard_acquire@PLT
	movq	16(%rsp), %rcx
	testl	%eax, %eax
	je	.L2290
	movq	_ZZN4asio15system_categoryEvE8instance@GOTPCREL(%rip), %r12
	movq	_ZN4asio6detail15system_categoryD1Ev@GOTPCREL(%rip), %rdi
	movq	%rcx, 16(%rsp)
	leaq	__dso_handle(%rip), %rdx
	movq	%r12, %rsi
	call	__cxa_atexit@PLT
	movq	%r13, %rdi
	call	__cxa_guard_release@PLT
	movq	16(%rsp), %rcx
	jmp	.L2073
.L2168:
	movdqa	(%rsp), %xmm3
	movups	%xmm3, 8(%rax)
	jmp	.L2294
.L2125:
	movdqa	(%rsp), %xmm1
	movups	%xmm1, 192(%rbx)
	jmp	.L2126
.L2124:
	movdqa	(%rsp), %xmm6
	movups	%xmm6, 8(%rax)
	jmp	.L2085
.L2116:
	movdqa	(%rsp), %xmm3
	movups	%xmm3, 112(%rax)
	jmp	.L2117
.L2313:
	movq	_ZGVZN4asio15system_categoryEvE8instance@GOTPCREL(%rip), %r14
	movzbl	(%r14), %eax
	testb	%al, %al
	je	.L2077
.L2291:
	movq	_ZZN4asio15system_categoryEvE8instance@GOTPCREL(%rip), %r12
.L2078:
	movl	$9, 24(%rbp)
	movq	40(%r13), %rbx
	movq	%r12, 32(%rbp)
	data16	leaq	_ZN4asio6detail15keyword_tss_ptrINS0_10call_stackINS0_15task_io_serviceENS0_27task_io_service_thread_infoEE7contextEE6value_E@tlsgd(%rip), %rdi
	.value	0x6666
	rex64
	call	__tls_get_addr@PLT
	movq	(%rax), %rax
	testq	%rax, %rax
	jne	.L2083
	jmp	.L2120
	.p2align 4,,10
	.p2align 3
.L2081:
	movq	16(%rax), %rax
	testq	%rax, %rax
	je	.L2120
.L2083:
	cmpq	(%rax), %rbx
	jne	.L2081
	movq	8(%rax), %rax
	testq	%rax, %rax
	je	.L2120
	addq	$1, 24(%rax)
	movq	$0, 0(%rbp)
	movq	16(%rax), %rdx
	testq	%rdx, %rdx
	jne	.L2293
	movdqa	(%rsp), %xmm2
	movups	%xmm2, 8(%rax)
	jmp	.L2085
.L2314:
	data16	leaq	_ZN4asio6detail15keyword_tss_ptrINS0_10call_stackINS0_15task_io_serviceENS0_27task_io_service_thread_infoEE7contextEE6value_E@tlsgd(%rip), %rdi
	.value	0x6666
	rex64
	call	__tls_get_addr@PLT
	movq	40(%r13), %rbx
	movq	(%rax), %rax
	testq	%rax, %rax
	jne	.L2095
	jmp	.L2092
	.p2align 4,,10
	.p2align 3
.L2093:
	movq	16(%rax), %rax
	testq	%rax, %rax
	je	.L2092
.L2095:
	cmpq	(%rax), %rbx
	jne	.L2093
	movq	8(%rax), %rax
	testq	%rax, %rax
	je	.L2092
	addq	$1, 24(%rax)
	movq	$0, 0(%rbp)
	movq	16(%rax), %rdx
	testq	%rdx, %rdx
	je	.L2096
	movq	%rbp, (%rdx)
	movq	%rbp, 16(%rax)
	jmp	.L2129
.L2307:
	movq	_ZGVZN4asio15system_categoryEvE8instance@GOTPCREL(%rip), %r13
	movzbl	0(%r13), %eax
	testb	%al, %al
	je	.L2069
.L2289:
	movq	_ZZN4asio15system_categoryEvE8instance@GOTPCREL(%rip), %r12
.L2070:
	movl	$9, 24(%rbp)
	movq	%r12, 32(%rbp)
	jmp	.L2066
.L2092:
	lock addq	$1, 184(%rbx)
	leaq	48(%rbx), %r13
	movq	%r13, %rdi
	call	pthread_mutex_lock@PLT
	cmpq	$0, 200(%rbx)
	movq	$0, 0(%rbp)
	je	.L2098
	movq	200(%rbx), %rax
	movq	%rbp, (%rax)
	movq	%rbp, 200(%rbx)
.L2099:
	movq	136(%rbx), %rax
	orq	$1, %rax
	movq	%rax, 136(%rbx)
	cmpq	$1, %rax
	je	.L2100
	movq	%r13, %rdi
	call	pthread_mutex_unlock@PLT
	leaq	88(%rbx), %rdi
	call	pthread_cond_signal@PLT
	jmp	.L2129
.L2315:
	movq	%rbp, %rdi
.LEHB46:
	call	*48(%rbp)
