	.file	"SocketChannel.cpp"
	.text
	.section	.rodata._ZNK4asio6detail15system_category4nameEv.str1.1,"aMS",@progbits,1
.LC0:
	.string	"asio.system"
	.section	.text._ZNK4asio6detail15system_category4nameEv,"axG",@progbits,_ZNK4asio6detail15system_category4nameEv,comdat
	.align 2
	.p2align 4
	.weak	_ZNK4asio6detail15system_category4nameEv
	.type	_ZNK4asio6detail15system_category4nameEv, @function
_ZNK4asio6detail15system_category4nameEv:
.LFB2395:
	.cfi_startproc
	endbr64
	leaq	.LC0(%rip), %rax
	ret
	.cfi_endproc
.LFE2395:
	.size	_ZNK4asio6detail15system_category4nameEv, .-_ZNK4asio6detail15system_category4nameEv
	.section	.rodata._ZNK4asio5error6detail14netdb_category4nameEv.str1.1,"aMS",@progbits,1
.LC1:
	.string	"asio.netdb"
	.section	.text._ZNK4asio5error6detail14netdb_category4nameEv,"axG",@progbits,_ZNK4asio5error6detail14netdb_category4nameEv,comdat
	.align 2
	.p2align 4
	.weak	_ZNK4asio5error6detail14netdb_category4nameEv
	.type	_ZNK4asio5error6detail14netdb_category4nameEv, @function
_ZNK4asio5error6detail14netdb_category4nameEv:
.LFB2435:
	.cfi_startproc
	endbr64
	leaq	.LC1(%rip), %rax
	ret
	.cfi_endproc
.LFE2435:
	.size	_ZNK4asio5error6detail14netdb_category4nameEv, .-_ZNK4asio5error6detail14netdb_category4nameEv
	.section	.rodata._ZNK4asio5error6detail17addrinfo_category4nameEv.str1.1,"aMS",@progbits,1
.LC2:
	.string	"asio.addrinfo"
	.section	.text._ZNK4asio5error6detail17addrinfo_category4nameEv,"axG",@progbits,_ZNK4asio5error6detail17addrinfo_category4nameEv,comdat
	.align 2
	.p2align 4
	.weak	_ZNK4asio5error6detail17addrinfo_category4nameEv
	.type	_ZNK4asio5error6detail17addrinfo_category4nameEv, @function
_ZNK4asio5error6detail17addrinfo_category4nameEv:
.LFB2441:
	.cfi_startproc
	endbr64
	leaq	.LC2(%rip), %rax
	ret
	.cfi_endproc
.LFE2441:
	.size	_ZNK4asio5error6detail17addrinfo_category4nameEv, .-_ZNK4asio5error6detail17addrinfo_category4nameEv
	.section	.rodata._ZNK4asio5error6detail13misc_category4nameEv.str1.1,"aMS",@progbits,1
.LC3:
	.string	"asio.misc"
	.section	.text._ZNK4asio5error6detail13misc_category4nameEv,"axG",@progbits,_ZNK4asio5error6detail13misc_category4nameEv,comdat
	.align 2
	.p2align 4
	.weak	_ZNK4asio5error6detail13misc_category4nameEv
	.type	_ZNK4asio5error6detail13misc_category4nameEv, @function
_ZNK4asio5error6detail13misc_category4nameEv:
.LFB2447:
	.cfi_startproc
	endbr64
	leaq	.LC3(%rip), %rax
	ret
	.cfi_endproc
.LFE2447:
	.size	_ZNK4asio5error6detail13misc_category4nameEv, .-_ZNK4asio5error6detail13misc_category4nameEv
	.section	.text._ZN4asio6detail7tss_ptrINS0_10call_stackINS0_15task_io_serviceENS0_27task_io_service_thread_infoEE7contextEED2Ev,"axG",@progbits,_ZN4asio6detail7tss_ptrINS0_10call_stackINS0_15task_io_serviceENS0_27task_io_service_thread_infoEE7contextEED5Ev,comdat
	.align 2
	.p2align 4
	.weak	_ZN4asio6detail7tss_ptrINS0_10call_stackINS0_15task_io_serviceENS0_27task_io_service_thread_infoEE7contextEED2Ev
	.type	_ZN4asio6detail7tss_ptrINS0_10call_stackINS0_15task_io_serviceENS0_27task_io_service_thread_infoEE7contextEED2Ev, @function
_ZN4asio6detail7tss_ptrINS0_10call_stackINS0_15task_io_serviceENS0_27task_io_service_thread_infoEE7contextEED2Ev:
.LFB9525:
	.cfi_startproc
	endbr64
	ret
	.cfi_endproc
.LFE9525:
	.size	_ZN4asio6detail7tss_ptrINS0_10call_stackINS0_15task_io_serviceENS0_27task_io_service_thread_infoEE7contextEED2Ev, .-_ZN4asio6detail7tss_ptrINS0_10call_stackINS0_15task_io_serviceENS0_27task_io_service_thread_infoEE7contextEED2Ev
	.weak	_ZN4asio6detail7tss_ptrINS0_10call_stackINS0_15task_io_serviceENS0_27task_io_service_thread_infoEE7contextEED1Ev
	.set	_ZN4asio6detail7tss_ptrINS0_10call_stackINS0_15task_io_serviceENS0_27task_io_service_thread_infoEE7contextEED1Ev,_ZN4asio6detail7tss_ptrINS0_10call_stackINS0_15task_io_serviceENS0_27task_io_service_thread_infoEE7contextEED2Ev
	.section	.text._ZN4asio6detail10service_idINS0_13epoll_reactorEED2Ev,"axG",@progbits,_ZN4asio6detail10service_idINS0_13epoll_reactorEED5Ev,comdat
	.align 2
	.p2align 4
	.weak	_ZN4asio6detail10service_idINS0_13epoll_reactorEED2Ev
	.type	_ZN4asio6detail10service_idINS0_13epoll_reactorEED2Ev, @function
_ZN4asio6detail10service_idINS0_13epoll_reactorEED2Ev:
.LFB9528:
	.cfi_startproc
	endbr64
	ret
	.cfi_endproc
.LFE9528:
	.size	_ZN4asio6detail10service_idINS0_13epoll_reactorEED2Ev, .-_ZN4asio6detail10service_idINS0_13epoll_reactorEED2Ev
	.weak	_ZN4asio6detail10service_idINS0_13epoll_reactorEED1Ev
	.set	_ZN4asio6detail10service_idINS0_13epoll_reactorEED1Ev,_ZN4asio6detail10service_idINS0_13epoll_reactorEED2Ev
	.section	.text._ZN4asio6detail10service_idINS0_15task_io_serviceEED2Ev,"axG",@progbits,_ZN4asio6detail10service_idINS0_15task_io_serviceEED5Ev,comdat
	.align 2
	.p2align 4
	.weak	_ZN4asio6detail10service_idINS0_15task_io_serviceEED2Ev
	.type	_ZN4asio6detail10service_idINS0_15task_io_serviceEED2Ev, @function
_ZN4asio6detail10service_idINS0_15task_io_serviceEED2Ev:
.LFB9531:
	.cfi_startproc
	endbr64
	ret
	.cfi_endproc
.LFE9531:
	.size	_ZN4asio6detail10service_idINS0_15task_io_serviceEED2Ev, .-_ZN4asio6detail10service_idINS0_15task_io_serviceEED2Ev
	.weak	_ZN4asio6detail10service_idINS0_15task_io_serviceEED1Ev
	.set	_ZN4asio6detail10service_idINS0_15task_io_serviceEED1Ev,_ZN4asio6detail10service_idINS0_15task_io_serviceEED2Ev
	.section	.text._ZN4asio6detail7tss_ptrINS0_10call_stackINS0_14strand_service11strand_implEhE7contextEED2Ev,"axG",@progbits,_ZN4asio6detail7tss_ptrINS0_10call_stackINS0_14strand_service11strand_implEhE7contextEED5Ev,comdat
	.align 2
	.p2align 4
	.weak	_ZN4asio6detail7tss_ptrINS0_10call_stackINS0_14strand_service11strand_implEhE7contextEED2Ev
	.type	_ZN4asio6detail7tss_ptrINS0_10call_stackINS0_14strand_service11strand_implEhE7contextEED2Ev, @function
_ZN4asio6detail7tss_ptrINS0_10call_stackINS0_14strand_service11strand_implEhE7contextEED2Ev:
.LFB9534:
	.cfi_startproc
	endbr64
	ret
	.cfi_endproc
.LFE9534:
	.size	_ZN4asio6detail7tss_ptrINS0_10call_stackINS0_14strand_service11strand_implEhE7contextEED2Ev, .-_ZN4asio6detail7tss_ptrINS0_10call_stackINS0_14strand_service11strand_implEhE7contextEED2Ev
	.weak	_ZN4asio6detail7tss_ptrINS0_10call_stackINS0_14strand_service11strand_implEhE7contextEED1Ev
	.set	_ZN4asio6detail7tss_ptrINS0_10call_stackINS0_14strand_service11strand_implEhE7contextEED1Ev,_ZN4asio6detail7tss_ptrINS0_10call_stackINS0_14strand_service11strand_implEhE7contextEED2Ev
	.section	.text._ZN4asio6detail10service_idINS0_14strand_serviceEED2Ev,"axG",@progbits,_ZN4asio6detail10service_idINS0_14strand_serviceEED5Ev,comdat
	.align 2
	.p2align 4
	.weak	_ZN4asio6detail10service_idINS0_14strand_serviceEED2Ev
	.type	_ZN4asio6detail10service_idINS0_14strand_serviceEED2Ev, @function
_ZN4asio6detail10service_idINS0_14strand_serviceEED2Ev:
.LFB9537:
	.cfi_startproc
	endbr64
	ret
	.cfi_endproc
.LFE9537:
	.size	_ZN4asio6detail10service_idINS0_14strand_serviceEED2Ev, .-_ZN4asio6detail10service_idINS0_14strand_serviceEED2Ev
	.weak	_ZN4asio6detail10service_idINS0_14strand_serviceEED1Ev
	.set	_ZN4asio6detail10service_idINS0_14strand_serviceEED1Ev,_ZN4asio6detail10service_idINS0_14strand_serviceEED2Ev
	.section	.text._ZN4asio6detail15system_categoryD2Ev,"axG",@progbits,_ZN4asio6detail15system_categoryD5Ev,comdat
	.align 2
	.p2align 4
	.weak	_ZN4asio6detail15system_categoryD2Ev
	.type	_ZN4asio6detail15system_categoryD2Ev, @function
_ZN4asio6detail15system_categoryD2Ev:
.LFB9504:
	.cfi_startproc
	endbr64
	movq	_ZTVN4asio6detail15system_categoryE@GOTPCREL(%rip), %rax
	addq	$16, %rax
	movq	%rax, (%rdi)
	jmp	_ZNSt3_V214error_categoryD2Ev@PLT
	.cfi_endproc
.LFE9504:
	.size	_ZN4asio6detail15system_categoryD2Ev, .-_ZN4asio6detail15system_categoryD2Ev
	.weak	_ZN4asio6detail15system_categoryD1Ev
	.set	_ZN4asio6detail15system_categoryD1Ev,_ZN4asio6detail15system_categoryD2Ev
	.section	.text._ZN4asio6detail15system_categoryD0Ev,"axG",@progbits,_ZN4asio6detail15system_categoryD5Ev,comdat
	.align 2
	.p2align 4
	.weak	_ZN4asio6detail15system_categoryD0Ev
	.type	_ZN4asio6detail15system_categoryD0Ev, @function
_ZN4asio6detail15system_categoryD0Ev:
.LFB9506:
	.cfi_startproc
	endbr64
	movq	_ZTVN4asio6detail15system_categoryE@GOTPCREL(%rip), %rax
	pushq	%rbp
	.cfi_def_cfa_offset 16
	.cfi_offset 6, -16
	movq	%rdi, %rbp
	addq	$16, %rax
	movq	%rax, (%rdi)
	call	_ZNSt3_V214error_categoryD2Ev@PLT
	movq	%rbp, %rdi
	movl	$8, %esi
	popq	%rbp
	.cfi_def_cfa_offset 8
	jmp	_ZdlPvm@PLT
	.cfi_endproc
.LFE9506:
	.size	_ZN4asio6detail15system_categoryD0Ev, .-_ZN4asio6detail15system_categoryD0Ev
	.section	.text._ZN4asio5error6detail13misc_categoryD2Ev,"axG",@progbits,_ZN4asio5error6detail13misc_categoryD5Ev,comdat
	.align 2
	.p2align 4
	.weak	_ZN4asio5error6detail13misc_categoryD2Ev
	.type	_ZN4asio5error6detail13misc_categoryD2Ev, @function
_ZN4asio5error6detail13misc_categoryD2Ev:
.LFB9484:
	.cfi_startproc
	endbr64
	movq	_ZTVN4asio5error6detail13misc_categoryE@GOTPCREL(%rip), %rax
	addq	$16, %rax
	movq	%rax, (%rdi)
	jmp	_ZNSt3_V214error_categoryD2Ev@PLT
	.cfi_endproc
.LFE9484:
	.size	_ZN4asio5error6detail13misc_categoryD2Ev, .-_ZN4asio5error6detail13misc_categoryD2Ev
	.weak	_ZN4asio5error6detail13misc_categoryD1Ev
	.set	_ZN4asio5error6detail13misc_categoryD1Ev,_ZN4asio5error6detail13misc_categoryD2Ev
	.section	.text._ZN4asio5error6detail13misc_categoryD0Ev,"axG",@progbits,_ZN4asio5error6detail13misc_categoryD5Ev,comdat
	.align 2
	.p2align 4
	.weak	_ZN4asio5error6detail13misc_categoryD0Ev
	.type	_ZN4asio5error6detail13misc_categoryD0Ev, @function
_ZN4asio5error6detail13misc_categoryD0Ev:
.LFB9486:
	.cfi_startproc
	endbr64
	movq	_ZTVN4asio5error6detail13misc_categoryE@GOTPCREL(%rip), %rax
	pushq	%rbp
	.cfi_def_cfa_offset 16
	.cfi_offset 6, -16
	movq	%rdi, %rbp
	addq	$16, %rax
	movq	%rax, (%rdi)
	call	_ZNSt3_V214error_categoryD2Ev@PLT
	movq	%rbp, %rdi
	movl	$8, %esi
	popq	%rbp
	.cfi_def_cfa_offset 8
	jmp	_ZdlPvm@PLT
	.cfi_endproc
.LFE9486:
	.size	_ZN4asio5error6detail13misc_categoryD0Ev, .-_ZN4asio5error6detail13misc_categoryD0Ev
	.section	.text._ZN4asio5error6detail14netdb_categoryD2Ev,"axG",@progbits,_ZN4asio5error6detail14netdb_categoryD5Ev,comdat
	.align 2
	.p2align 4
	.weak	_ZN4asio5error6detail14netdb_categoryD2Ev
	.type	_ZN4asio5error6detail14netdb_categoryD2Ev, @function
_ZN4asio5error6detail14netdb_categoryD2Ev:
.LFB9492:
	.cfi_startproc
	endbr64
	movq	_ZTVN4asio5error6detail14netdb_categoryE@GOTPCREL(%rip), %rax
	addq	$16, %rax
	movq	%rax, (%rdi)
	jmp	_ZNSt3_V214error_categoryD2Ev@PLT
	.cfi_endproc
.LFE9492:
	.size	_ZN4asio5error6detail14netdb_categoryD2Ev, .-_ZN4asio5error6detail14netdb_categoryD2Ev
	.weak	_ZN4asio5error6detail14netdb_categoryD1Ev
	.set	_ZN4asio5error6detail14netdb_categoryD1Ev,_ZN4asio5error6detail14netdb_categoryD2Ev
	.section	.text._ZN4asio5error6detail14netdb_categoryD0Ev,"axG",@progbits,_ZN4asio5error6detail14netdb_categoryD5Ev,comdat
	.align 2
	.p2align 4
	.weak	_ZN4asio5error6detail14netdb_categoryD0Ev
	.type	_ZN4asio5error6detail14netdb_categoryD0Ev, @function
_ZN4asio5error6detail14netdb_categoryD0Ev:
.LFB9494:
	.cfi_startproc
	endbr64
	movq	_ZTVN4asio5error6detail14netdb_categoryE@GOTPCREL(%rip), %rax
	pushq	%rbp
	.cfi_def_cfa_offset 16
	.cfi_offset 6, -16
	movq	%rdi, %rbp
	addq	$16, %rax
	movq	%rax, (%rdi)
	call	_ZNSt3_V214error_categoryD2Ev@PLT
	movq	%rbp, %rdi
	movl	$8, %esi
	popq	%rbp
	.cfi_def_cfa_offset 8
	jmp	_ZdlPvm@PLT
	.cfi_endproc
.LFE9494:
	.size	_ZN4asio5error6detail14netdb_categoryD0Ev, .-_ZN4asio5error6detail14netdb_categoryD0Ev
	.section	.text._ZN4asio5error6detail17addrinfo_categoryD2Ev,"axG",@progbits,_ZN4asio5error6detail17addrinfo_categoryD5Ev,comdat
	.align 2
	.p2align 4
	.weak	_ZN4asio5error6detail17addrinfo_categoryD2Ev
	.type	_ZN4asio5error6detail17addrinfo_categoryD2Ev, @function
_ZN4asio5error6detail17addrinfo_categoryD2Ev:
.LFB9488:
	.cfi_startproc
	endbr64
	movq	_ZTVN4asio5error6detail17addrinfo_categoryE@GOTPCREL(%rip), %rax
	addq	$16, %rax
	movq	%rax, (%rdi)
	jmp	_ZNSt3_V214error_categoryD2Ev@PLT
	.cfi_endproc
.LFE9488:
	.size	_ZN4asio5error6detail17addrinfo_categoryD2Ev, .-_ZN4asio5error6detail17addrinfo_categoryD2Ev
	.weak	_ZN4asio5error6detail17addrinfo_categoryD1Ev
	.set	_ZN4asio5error6detail17addrinfo_categoryD1Ev,_ZN4asio5error6detail17addrinfo_categoryD2Ev
	.section	.text._ZN4asio5error6detail17addrinfo_categoryD0Ev,"axG",@progbits,_ZN4asio5error6detail17addrinfo_categoryD5Ev,comdat
	.align 2
	.p2align 4
	.weak	_ZN4asio5error6detail17addrinfo_categoryD0Ev
	.type	_ZN4asio5error6detail17addrinfo_categoryD0Ev, @function
_ZN4asio5error6detail17addrinfo_categoryD0Ev:
.LFB9490:
	.cfi_startproc
	endbr64
	movq	_ZTVN4asio5error6detail17addrinfo_categoryE@GOTPCREL(%rip), %rax
	pushq	%rbp
	.cfi_def_cfa_offset 16
	.cfi_offset 6, -16
	movq	%rdi, %rbp
	addq	$16, %rax
	movq	%rax, (%rdi)
	call	_ZNSt3_V214error_categoryD2Ev@PLT
	movq	%rbp, %rdi
	movl	$8, %esi
	popq	%rbp
	.cfi_def_cfa_offset 8
	jmp	_ZdlPvm@PLT
	.cfi_endproc
.LFE9490:
	.size	_ZN4asio5error6detail17addrinfo_categoryD0Ev, .-_ZN4asio5error6detail17addrinfo_categoryD0Ev
	.section	.text.unlikely,"ax",@progbits
	.align 2
	.type	_ZN4asio6detail18completion_handlerINS0_17rewrapped_handlerINS0_7binder2INS0_15wrapped_handlerINS_10io_service6strandEZN7asiopal13SocketChannel13BeginReadImplEN7openpal6WSliceEEUlRKSt10error_codemE_NS0_26is_continuation_if_runningEEESB_mEESE_EEE3ptr5resetEv, @function
_ZN4asio6detail18completion_handlerINS0_17rewrapped_handlerINS0_7binder2INS0_15wrapped_handlerINS_10io_service6strandEZN7asiopal13SocketChannel13BeginReadImplEN7openpal6WSliceEEUlRKSt10error_codemE_NS0_26is_continuation_if_runningEEESB_mEESE_EEE3ptr5resetEv:
.LFB9352:
	.cfi_startproc
	pushq	%rbp
	.cfi_def_cfa_offset 16
	.cfi_offset 6, -16
	pushq	%rbx
	.cfi_def_cfa_offset 24
	.cfi_offset 3, -24
	movq	%rdi, %rbx
	pushq	%rdx
	.cfi_def_cfa_offset 32
	cmpq	$0, 16(%rdi)
	je	.L24
	movq	$0, 16(%rdi)
.L24:
	movq	8(%rbx), %rbp
	testq	%rbp, %rbp
	je	.L23
	data16	leaq	_ZN4asio6detail15keyword_tss_ptrINS0_10call_stackINS0_15task_io_serviceENS0_27task_io_service_thread_infoEE7contextEE6value_E@tlsgd(%rip), %rdi
	.value	0x6666
	rex64
	call	__tls_get_addr@PLT
	movq	(%rax), %rax
	testq	%rax, %rax
	je	.L26
	movq	8(%rax), %rax
	testq	%rax, %rax
	je	.L26
	cmpq	$0, (%rax)
	jne	.L26
	movb	80(%rbp), %dl
	movb	%dl, 0(%rbp)
	movq	%rbp, (%rax)
	jmp	.L27
.L26:
	movq	%rbp, %rdi
	call	_ZdlPv@PLT
.L27:
	movq	$0, 8(%rbx)
.L23:
	popq	%rax
	.cfi_def_cfa_offset 24
	popq	%rbx
	.cfi_def_cfa_offset 16
	popq	%rbp
	.cfi_def_cfa_offset 8
	ret
	.cfi_endproc
.LFE9352:
	.size	_ZN4asio6detail18completion_handlerINS0_17rewrapped_handlerINS0_7binder2INS0_15wrapped_handlerINS_10io_service6strandEZN7asiopal13SocketChannel13BeginReadImplEN7openpal6WSliceEEUlRKSt10error_codemE_NS0_26is_continuation_if_runningEEESB_mEESE_EEE3ptr5resetEv, .-_ZN4asio6detail18completion_handlerINS0_17rewrapped_handlerINS0_7binder2INS0_15wrapped_handlerINS_10io_service6strandEZN7asiopal13SocketChannel13BeginReadImplEN7openpal6WSliceEEUlRKSt10error_codemE_NS0_26is_continuation_if_runningEEESB_mEESE_EEE3ptr5resetEv
	.align 2
	.type	_ZN4asio6detail18completion_handlerINS0_7binder2IZN7asiopal13SocketChannel14BeginWriteImplERKN7openpal6RSliceEEUlRKSt10error_codemE_S9_mEEE3ptr5resetEv, @function
_ZN4asio6detail18completion_handlerINS0_7binder2IZN7asiopal13SocketChannel14BeginWriteImplERKN7openpal6RSliceEEUlRKSt10error_codemE_S9_mEEE3ptr5resetEv:
.LFB9224:
	.cfi_startproc
	pushq	%rbp
	.cfi_def_cfa_offset 16
	.cfi_offset 6, -16
	pushq	%rbx
	.cfi_def_cfa_offset 24
	.cfi_offset 3, -24
	movq	%rdi, %rbx
	pushq	%rdx
	.cfi_def_cfa_offset 32
	cmpq	$0, 16(%rdi)
	je	.L39
	movq	$0, 16(%rdi)
.L39:
	movq	8(%rbx), %rbp
	testq	%rbp, %rbp
	je	.L38
	data16	leaq	_ZN4asio6detail15keyword_tss_ptrINS0_10call_stackINS0_15task_io_serviceENS0_27task_io_service_thread_infoEE7contextEE6value_E@tlsgd(%rip), %rdi
	.value	0x6666
	rex64
	call	__tls_get_addr@PLT
	movq	(%rax), %rax
	testq	%rax, %rax
	je	.L41
	movq	8(%rax), %rax
	testq	%rax, %rax
	je	.L41
	cmpq	$0, (%rax)
	jne	.L41
	movb	56(%rbp), %dl
	movb	%dl, 0(%rbp)
	movq	%rbp, (%rax)
	jmp	.L42
.L41:
	movq	%rbp, %rdi
	call	_ZdlPv@PLT
.L42:
	movq	$0, 8(%rbx)
.L38:
	popq	%rax
	.cfi_def_cfa_offset 24
	popq	%rbx
	.cfi_def_cfa_offset 16
	popq	%rbp
	.cfi_def_cfa_offset 8
	ret
	.cfi_endproc
.LFE9224:
	.size	_ZN4asio6detail18completion_handlerINS0_7binder2IZN7asiopal13SocketChannel14BeginWriteImplERKN7openpal6RSliceEEUlRKSt10error_codemE_S9_mEEE3ptr5resetEv, .-_ZN4asio6detail18completion_handlerINS0_7binder2IZN7asiopal13SocketChannel14BeginWriteImplERKN7openpal6RSliceEEUlRKSt10error_codemE_S9_mEEE3ptr5resetEv
	.align 2
	.type	_ZN4asio6detail23reactive_socket_send_opINS_15const_buffers_1ENS0_8write_opINS_19basic_stream_socketINS_2ip3tcpENS_21stream_socket_serviceIS6_EEEES2_NS0_14transfer_all_tENS0_15wrapped_handlerINS_10io_service6strandEZN7asiopal13SocketChannel14BeginWriteImplERKN7openpal6RSliceEEUlRKSt10error_codemE_NS0_26is_continuation_if_runningEEEEEE3ptr5resetEv, @function
_ZN4asio6detail23reactive_socket_send_opINS_15const_buffers_1ENS0_8write_opINS_19basic_stream_socketINS_2ip3tcpENS_21stream_socket_serviceIS6_EEEES2_NS0_14transfer_all_tENS0_15wrapped_handlerINS_10io_service6strandEZN7asiopal13SocketChannel14BeginWriteImplERKN7openpal6RSliceEEUlRKSt10error_codemE_NS0_26is_continuation_if_runningEEEEEE3ptr5resetEv:
.LFB9211:
	.cfi_startproc
	pushq	%rbp
	.cfi_def_cfa_offset 16
	.cfi_offset 6, -16
	pushq	%rbx
	.cfi_def_cfa_offset 24
	.cfi_offset 3, -24
	movq	%rdi, %rbx
	pushq	%rdx
	.cfi_def_cfa_offset 32
	cmpq	$0, 16(%rdi)
	je	.L54
	movq	$0, 16(%rdi)
.L54:
	movq	8(%rbx), %rbp
	testq	%rbp, %rbp
	je	.L53
	data16	leaq	_ZN4asio6detail15keyword_tss_ptrINS0_10call_stackINS0_15task_io_serviceENS0_27task_io_service_thread_infoEE7contextEE6value_E@tlsgd(%rip), %rdi
	.value	0x6666
	rex64
	call	__tls_get_addr@PLT
	movq	(%rax), %rax
	testq	%rax, %rax
	je	.L56
	movq	8(%rax), %rax
	testq	%rax, %rax
	je	.L56
	cmpq	$0, (%rax)
	jne	.L56
	movb	152(%rbp), %dl
	movb	%dl, 0(%rbp)
	movq	%rbp, (%rax)
	jmp	.L57
.L56:
	movq	%rbp, %rdi
	call	_ZdlPv@PLT
.L57:
	movq	$0, 8(%rbx)
.L53:
	popq	%rax
	.cfi_def_cfa_offset 24
	popq	%rbx
	.cfi_def_cfa_offset 16
	popq	%rbp
	.cfi_def_cfa_offset 8
	ret
	.cfi_endproc
.LFE9211:
	.size	_ZN4asio6detail23reactive_socket_send_opINS_15const_buffers_1ENS0_8write_opINS_19basic_stream_socketINS_2ip3tcpENS_21stream_socket_serviceIS6_EEEES2_NS0_14transfer_all_tENS0_15wrapped_handlerINS_10io_service6strandEZN7asiopal13SocketChannel14BeginWriteImplERKN7openpal6RSliceEEUlRKSt10error_codemE_NS0_26is_continuation_if_runningEEEEEE3ptr5resetEv, .-_ZN4asio6detail23reactive_socket_send_opINS_15const_buffers_1ENS0_8write_opINS_19basic_stream_socketINS_2ip3tcpENS_21stream_socket_serviceIS6_EEEES2_NS0_14transfer_all_tENS0_15wrapped_handlerINS_10io_service6strandEZN7asiopal13SocketChannel14BeginWriteImplERKN7openpal6RSliceEEUlRKSt10error_codemE_NS0_26is_continuation_if_runningEEEEEE3ptr5resetEv
	.align 2
	.type	_ZN4asio6detail23reactive_socket_recv_opINS_17mutable_buffers_1ENS0_15wrapped_handlerINS_10io_service6strandEZN7asiopal13SocketChannel13BeginReadImplEN7openpal6WSliceEEUlRKSt10error_codemE_NS0_26is_continuation_if_runningEEEE3ptr5resetEv, @function
_ZN4asio6detail23reactive_socket_recv_opINS_17mutable_buffers_1ENS0_15wrapped_handlerINS_10io_service6strandEZN7asiopal13SocketChannel13BeginReadImplEN7openpal6WSliceEEUlRKSt10error_codemE_NS0_26is_continuation_if_runningEEEE3ptr5resetEv:
.LFB8851:
	.cfi_startproc
	pushq	%rbp
	.cfi_def_cfa_offset 16
	.cfi_offset 6, -16
	pushq	%rbx
	.cfi_def_cfa_offset 24
	.cfi_offset 3, -24
	movq	%rdi, %rbx
	pushq	%rdx
	.cfi_def_cfa_offset 32
	cmpq	$0, 16(%rdi)
	je	.L69
	movq	$0, 16(%rdi)
.L69:
	movq	8(%rbx), %rbp
	testq	%rbp, %rbp
	je	.L68
	data16	leaq	_ZN4asio6detail15keyword_tss_ptrINS0_10call_stackINS0_15task_io_serviceENS0_27task_io_service_thread_infoEE7contextEE6value_E@tlsgd(%rip), %rdi
	.value	0x6666
	rex64
	call	__tls_get_addr@PLT
	movq	(%rax), %rax
	testq	%rax, %rax
	je	.L71
	movq	8(%rax), %rax
	testq	%rax, %rax
	je	.L71
	cmpq	$0, (%rax)
	jne	.L71
	movb	112(%rbp), %dl
	movb	%dl, 0(%rbp)
	movq	%rbp, (%rax)
	jmp	.L72
.L71:
	movq	%rbp, %rdi
	call	_ZdlPv@PLT
.L72:
	movq	$0, 8(%rbx)
.L68:
	popq	%rax
	.cfi_def_cfa_offset 24
	popq	%rbx
	.cfi_def_cfa_offset 16
	popq	%rbp
	.cfi_def_cfa_offset 8
	ret
	.cfi_endproc
.LFE8851:
	.size	_ZN4asio6detail23reactive_socket_recv_opINS_17mutable_buffers_1ENS0_15wrapped_handlerINS_10io_service6strandEZN7asiopal13SocketChannel13BeginReadImplEN7openpal6WSliceEEUlRKSt10error_codemE_NS0_26is_continuation_if_runningEEEE3ptr5resetEv, .-_ZN4asio6detail23reactive_socket_recv_opINS_17mutable_buffers_1ENS0_15wrapped_handlerINS_10io_service6strandEZN7asiopal13SocketChannel13BeginReadImplEN7openpal6WSliceEEUlRKSt10error_codemE_NS0_26is_continuation_if_runningEEEE3ptr5resetEv
	.align 2
	.type	_ZN4asio6detail18completion_handlerINS0_7binder2IZN7asiopal13SocketChannel13BeginReadImplEN7openpal6WSliceEEUlRKSt10error_codemE_S7_mEEE3ptr5resetEv, @function
_ZN4asio6detail18completion_handlerINS0_7binder2IZN7asiopal13SocketChannel13BeginReadImplEN7openpal6WSliceEEUlRKSt10error_codemE_S7_mEEE3ptr5resetEv:
.LFB9438:
	.cfi_startproc
	pushq	%rbp
	.cfi_def_cfa_offset 16
	.cfi_offset 6, -16
	pushq	%rbx
	.cfi_def_cfa_offset 24
	.cfi_offset 3, -24
	movq	%rdi, %rbx
	pushq	%rdx
	.cfi_def_cfa_offset 32
	cmpq	$0, 16(%rdi)
	je	.L84
	movq	$0, 16(%rdi)
.L84:
	movq	8(%rbx), %rbp
	testq	%rbp, %rbp
	je	.L83
	data16	leaq	_ZN4asio6detail15keyword_tss_ptrINS0_10call_stackINS0_15task_io_serviceENS0_27task_io_service_thread_infoEE7contextEE6value_E@tlsgd(%rip), %rdi
	.value	0x6666
	rex64
	call	__tls_get_addr@PLT
	movq	(%rax), %rax
	testq	%rax, %rax
	je	.L86
	movq	8(%rax), %rax
	testq	%rax, %rax
	je	.L86
	cmpq	$0, (%rax)
	jne	.L86
	movb	56(%rbp), %dl
	movb	%dl, 0(%rbp)
	movq	%rbp, (%rax)
	jmp	.L87
.L86:
	movq	%rbp, %rdi
	call	_ZdlPv@PLT
.L87:
	movq	$0, 8(%rbx)
.L83:
	popq	%rax
	.cfi_def_cfa_offset 24
	popq	%rbx
	.cfi_def_cfa_offset 16
	popq	%rbp
	.cfi_def_cfa_offset 8
	ret
	.cfi_endproc
.LFE9438:
	.size	_ZN4asio6detail18completion_handlerINS0_7binder2IZN7asiopal13SocketChannel13BeginReadImplEN7openpal6WSliceEEUlRKSt10error_codemE_S7_mEEE3ptr5resetEv, .-_ZN4asio6detail18completion_handlerINS0_7binder2IZN7asiopal13SocketChannel13BeginReadImplEN7openpal6WSliceEEUlRKSt10error_codemE_S7_mEEE3ptr5resetEv
.LCOLDB4:
	.text
.LHOTB4:
	.p2align 4
	.type	_ZN4asio6detail18completion_handlerINS0_7binder2IZN7asiopal13SocketChannel13BeginReadImplEN7openpal6WSliceEEUlRKSt10error_codemE_S7_mEEE11do_completeEPNS0_15task_io_serviceEPNS0_25task_io_service_operationES9_m, @function
_ZN4asio6detail18completion_handlerINS0_7binder2IZN7asiopal13SocketChannel13BeginReadImplEN7openpal6WSliceEEUlRKSt10error_codemE_S7_mEEE11do_completeEPNS0_15task_io_serviceEPNS0_25task_io_service_operationES9_m:
.LFB9434:
	.cfi_startproc
	.cfi_personality 0x9b,DW.ref.__gxx_personality_v0
	.cfi_lsda 0x1b,.LLSDA9434
	endbr64
	pushq	%rbp
	.cfi_def_cfa_offset 16
	.cfi_offset 6, -16
	movq	%rsi, %rbp
	pushq	%rbx
	.cfi_def_cfa_offset 24
	.cfi_offset 3, -24
	movq	%rdi, %rbx
	subq	$88, %rsp
	.cfi_def_cfa_offset 112
	movdqu	24(%rsi), %xmm0
	movdqu	40(%rsi), %xmm1
	movq	%fs:40, %rax
	movq	%rax, 72(%rsp)
	xorl	%eax, %eax
	leaq	32(%rsp), %rax
	movq	%rsi, 8(%rsp)
	movq	%rax, (%rsp)
	movq	$0, 16(%rsp)
	movaps	%xmm0, 32(%rsp)
	movaps	%xmm1, 48(%rsp)
	data16	leaq	_ZN4asio6detail15keyword_tss_ptrINS0_10call_stackINS0_15task_io_serviceENS0_27task_io_service_thread_infoEE7contextEE6value_E@tlsgd(%rip), %rdi
	.value	0x6666
	rex64
	call	__tls_get_addr@PLT
	movq	(%rax), %rax
	testq	%rax, %rax
	je	.L99
	movq	8(%rax), %rax
	testq	%rax, %rax
	je	.L99
	cmpq	$0, (%rax)
	je	.L117
.L99:
	movq	%rbp, %rdi
	call	_ZdlPv@PLT
.L100:
	movq	$0, 8(%rsp)
	testq	%rbx, %rbx
	je	.L98
	movq	32(%rsp), %rax
	movq	56(%rsp), %rdx
	movq	40(%rax), %rdi
	movb	$0, 57(%rax)
	testq	%rdi, %rdi
	je	.L103
	cmpb	$0, 56(%rax)
	je	.L118
.L103:
	sfence
.L98:
	movq	72(%rsp), %rax
	subq	%fs:40, %rax
	jne	.L119
	addq	$88, %rsp
	.cfi_remember_state
	.cfi_def_cfa_offset 24
	popq	%rbx
	.cfi_def_cfa_offset 16
	popq	%rbp
	.cfi_def_cfa_offset 8
	ret
	.p2align 4,,10
	.p2align 3
.L118:
	.cfi_restore_state
	movq	(%rdi), %rax
	leaq	40(%rsp), %rsi
.LEHB0:
	call	*16(%rax)
.LEHE0:
	jmp	.L103
	.p2align 4,,10
	.p2align 3
.L117:
	movzbl	56(%rbp), %edx
	movb	%dl, 0(%rbp)
	movq	%rbp, (%rax)
	jmp	.L100
.L119:
	call	__stack_chk_fail@PLT
.L106:
	endbr64
	movq	%rax, %rbp
	jmp	.L104
	.globl	__gxx_personality_v0
	.section	.gcc_except_table,"a",@progbits
.LLSDA9434:
	.byte	0xff
	.byte	0xff
	.byte	0x1
	.uleb128 .LLSDACSE9434-.LLSDACSB9434
.LLSDACSB9434:
	.uleb128 .LEHB0-.LFB9434
	.uleb128 .LEHE0-.LEHB0
	.uleb128 .L106-.LFB9434
	.uleb128 0
.LLSDACSE9434:
	.text
	.cfi_endproc
	.section	.text.unlikely
	.cfi_startproc
	.cfi_personality 0x9b,DW.ref.__gxx_personality_v0
	.cfi_lsda 0x1b,.LLSDAC9434
	.type	_ZN4asio6detail18completion_handlerINS0_7binder2IZN7asiopal13SocketChannel13BeginReadImplEN7openpal6WSliceEEUlRKSt10error_codemE_S7_mEEE11do_completeEPNS0_15task_io_serviceEPNS0_25task_io_service_operationES9_m.cold, @function
_ZN4asio6detail18completion_handlerINS0_7binder2IZN7asiopal13SocketChannel13BeginReadImplEN7openpal6WSliceEEUlRKSt10error_codemE_S7_mEEE11do_completeEPNS0_15task_io_serviceEPNS0_25task_io_service_operationES9_m.cold:
.LFSB9434:
.L104:
	.cfi_def_cfa_offset 112
	.cfi_offset 3, -24
	.cfi_offset 6, -16
	sfence
	movq	%rsp, %rdi
	call	_ZN4asio6detail18completion_handlerINS0_7binder2IZN7asiopal13SocketChannel13BeginReadImplEN7openpal6WSliceEEUlRKSt10error_codemE_S7_mEEE3ptr5resetEv
	movq	%rbp, %rdi
.LEHB1:
	call	_Unwind_Resume@PLT
.LEHE1:
	.cfi_endproc
.LFE9434:
	.section	.gcc_except_table
.LLSDAC9434:
	.byte	0xff
	.byte	0xff
	.byte	0x1
	.uleb128 .LLSDACSEC9434-.LLSDACSBC9434
.LLSDACSBC9434:
	.uleb128 .LEHB1-.LCOLDB4
	.uleb128 .LEHE1-.LEHB1
	.uleb128 0
	.uleb128 0
.LLSDACSEC9434:
	.section	.text.unlikely
	.text
	.size	_ZN4asio6detail18completion_handlerINS0_7binder2IZN7asiopal13SocketChannel13BeginReadImplEN7openpal6WSliceEEUlRKSt10error_codemE_S7_mEEE11do_completeEPNS0_15task_io_serviceEPNS0_25task_io_service_operationES9_m, .-_ZN4asio6detail18completion_handlerINS0_7binder2IZN7asiopal13SocketChannel13BeginReadImplEN7openpal6WSliceEEUlRKSt10error_codemE_S7_mEEE11do_completeEPNS0_15task_io_serviceEPNS0_25task_io_service_operationES9_m
	.section	.text.unlikely
	.size	_ZN4asio6detail18completion_handlerINS0_7binder2IZN7asiopal13SocketChannel13BeginReadImplEN7openpal6WSliceEEUlRKSt10error_codemE_S7_mEEE11do_completeEPNS0_15task_io_serviceEPNS0_25task_io_service_operationES9_m.cold, .-_ZN4asio6detail18completion_handlerINS0_7binder2IZN7asiopal13SocketChannel13BeginReadImplEN7openpal6WSliceEEUlRKSt10error_codemE_S7_mEEE11do_completeEPNS0_15task_io_serviceEPNS0_25task_io_service_operationES9_m.cold
.LCOLDE4:
	.text
.LHOTE4:
	.section	.text.unlikely
.LCOLDB5:
	.text
.LHOTB5:
	.p2align 4
	.type	_ZN4asio6detail18completion_handlerINS0_7binder2IZN7asiopal13SocketChannel14BeginWriteImplERKN7openpal6RSliceEEUlRKSt10error_codemE_S9_mEEE11do_completeEPNS0_15task_io_serviceEPNS0_25task_io_service_operationESB_m, @function
_ZN4asio6detail18completion_handlerINS0_7binder2IZN7asiopal13SocketChannel14BeginWriteImplERKN7openpal6RSliceEEUlRKSt10error_codemE_S9_mEEE11do_completeEPNS0_15task_io_serviceEPNS0_25task_io_service_operationESB_m:
.LFB9089:
	.cfi_startproc
	.cfi_personality 0x9b,DW.ref.__gxx_personality_v0
	.cfi_lsda 0x1b,.LLSDA9089
	endbr64
	pushq	%rbp
	.cfi_def_cfa_offset 16
	.cfi_offset 6, -16
	movq	%rsi, %rbp
	pushq	%rbx
	.cfi_def_cfa_offset 24
	.cfi_offset 3, -24
	movq	%rdi, %rbx
	subq	$88, %rsp
	.cfi_def_cfa_offset 112
	movdqu	24(%rsi), %xmm0
	movdqu	40(%rsi), %xmm1
	movq	%fs:40, %rax
	movq	%rax, 72(%rsp)
	xorl	%eax, %eax
	leaq	32(%rsp), %rax
	movq	%rsi, 8(%rsp)
	movq	%rax, (%rsp)
	movq	$0, 16(%rsp)
	movaps	%xmm0, 32(%rsp)
	movaps	%xmm1, 48(%rsp)
	data16	leaq	_ZN4asio6detail15keyword_tss_ptrINS0_10call_stackINS0_15task_io_serviceENS0_27task_io_service_thread_infoEE7contextEE6value_E@tlsgd(%rip), %rdi
	.value	0x6666
	rex64
	call	__tls_get_addr@PLT
	movq	(%rax), %rax
	testq	%rax, %rax
	je	.L121
	movq	8(%rax), %rax
	testq	%rax, %rax
	je	.L121
	cmpq	$0, (%rax)
	je	.L139
.L121:
	movq	%rbp, %rdi
	call	_ZdlPv@PLT
.L122:
	movq	$0, 8(%rsp)
	testq	%rbx, %rbx
	je	.L120
	movq	32(%rsp), %rax
	movq	56(%rsp), %rdx
	movq	40(%rax), %rdi
	movb	$0, 58(%rax)
	testq	%rdi, %rdi
	je	.L125
	cmpb	$0, 56(%rax)
	je	.L140
.L125:
	sfence
.L120:
	movq	72(%rsp), %rax
	subq	%fs:40, %rax
	jne	.L141
	addq	$88, %rsp
	.cfi_remember_state
	.cfi_def_cfa_offset 24
	popq	%rbx
	.cfi_def_cfa_offset 16
	popq	%rbp
	.cfi_def_cfa_offset 8
	ret
	.p2align 4,,10
	.p2align 3
.L140:
	.cfi_restore_state
	movq	(%rdi), %rax
	leaq	40(%rsp), %rsi
.LEHB2:
	call	*24(%rax)
.LEHE2:
	jmp	.L125
	.p2align 4,,10
	.p2align 3
.L139:
	movzbl	56(%rbp), %edx
	movb	%dl, 0(%rbp)
	movq	%rbp, (%rax)
	jmp	.L122
.L141:
	call	__stack_chk_fail@PLT
.L128:
	endbr64
	movq	%rax, %rbp
	jmp	.L126
	.section	.gcc_except_table
.LLSDA9089:
	.byte	0xff
	.byte	0xff
	.byte	0x1
	.uleb128 .LLSDACSE9089-.LLSDACSB9089
.LLSDACSB9089:
	.uleb128 .LEHB2-.LFB9089
	.uleb128 .LEHE2-.LEHB2
	.uleb128 .L128-.LFB9089
	.uleb128 0
.LLSDACSE9089:
	.text
	.cfi_endproc
	.section	.text.unlikely
	.cfi_startproc
	.cfi_personality 0x9b,DW.ref.__gxx_personality_v0
	.cfi_lsda 0x1b,.LLSDAC9089
	.type	_ZN4asio6detail18completion_handlerINS0_7binder2IZN7asiopal13SocketChannel14BeginWriteImplERKN7openpal6RSliceEEUlRKSt10error_codemE_S9_mEEE11do_completeEPNS0_15task_io_serviceEPNS0_25task_io_service_operationESB_m.cold, @function
_ZN4asio6detail18completion_handlerINS0_7binder2IZN7asiopal13SocketChannel14BeginWriteImplERKN7openpal6RSliceEEUlRKSt10error_codemE_S9_mEEE11do_completeEPNS0_15task_io_serviceEPNS0_25task_io_service_operationESB_m.cold:
.LFSB9089:
.L126:
	.cfi_def_cfa_offset 112
	.cfi_offset 3, -24
	.cfi_offset 6, -16
	sfence
	movq	%rsp, %rdi
	call	_ZN4asio6detail18completion_handlerINS0_7binder2IZN7asiopal13SocketChannel14BeginWriteImplERKN7openpal6RSliceEEUlRKSt10error_codemE_S9_mEEE3ptr5resetEv
	movq	%rbp, %rdi
.LEHB3:
	call	_Unwind_Resume@PLT
.LEHE3:
	.cfi_endproc
.LFE9089:
	.section	.gcc_except_table
.LLSDAC9089:
	.byte	0xff
	.byte	0xff
	.byte	0x1
	.uleb128 .LLSDACSEC9089-.LLSDACSBC9089
.LLSDACSBC9089:
	.uleb128 .LEHB3-.LCOLDB5
	.uleb128 .LEHE3-.LEHB3
	.uleb128 0
	.uleb128 0
.LLSDACSEC9089:
	.section	.text.unlikely
	.text
	.size	_ZN4asio6detail18completion_handlerINS0_7binder2IZN7asiopal13SocketChannel14BeginWriteImplERKN7openpal6RSliceEEUlRKSt10error_codemE_S9_mEEE11do_completeEPNS0_15task_io_serviceEPNS0_25task_io_service_operationESB_m, .-_ZN4asio6detail18completion_handlerINS0_7binder2IZN7asiopal13SocketChannel14BeginWriteImplERKN7openpal6RSliceEEUlRKSt10error_codemE_S9_mEEE11do_completeEPNS0_15task_io_serviceEPNS0_25task_io_service_operationESB_m
	.section	.text.unlikely
	.size	_ZN4asio6detail18completion_handlerINS0_7binder2IZN7asiopal13SocketChannel14BeginWriteImplERKN7openpal6RSliceEEUlRKSt10error_codemE_S9_mEEE11do_completeEPNS0_15task_io_serviceEPNS0_25task_io_service_operationESB_m.cold, .-_ZN4asio6detail18completion_handlerINS0_7binder2IZN7asiopal13SocketChannel14BeginWriteImplERKN7openpal6RSliceEEUlRKSt10error_codemE_S9_mEEE11do_completeEPNS0_15task_io_serviceEPNS0_25task_io_service_operationESB_m.cold
.LCOLDE5:
	.text
.LHOTE5:
	.section	.rodata._ZNK4asio6detail15system_category7messageB5cxx11Ei.str1.8,"aMS",@progbits,1
	.align 8
.LC6:
	.string	"basic_string::_M_construct null not valid"
	.section	.text._ZNK4asio6detail15system_category7messageB5cxx11Ei,"axG",@progbits,_ZNK4asio6detail15system_category7messageB5cxx11Ei,comdat
	.align 2
	.p2align 4
	.weak	_ZNK4asio6detail15system_category7messageB5cxx11Ei
	.type	_ZNK4asio6detail15system_category7messageB5cxx11Ei, @function
_ZNK4asio6detail15system_category7messageB5cxx11Ei:
.LFB2396:
	.cfi_startproc
	endbr64
	pushq	%r14
	.cfi_def_cfa_offset 16
	.cfi_offset 14, -16
	pushq	%r13
	.cfi_def_cfa_offset 24
	.cfi_offset 13, -24
	pushq	%r12
	.cfi_def_cfa_offset 32
	.cfi_offset 12, -32
	movq	%rdi, %r12
	pushq	%rbp
	.cfi_def_cfa_offset 40
	.cfi_offset 6, -40
	leaq	16(%rdi), %rbp
	subq	$296, %rsp
	.cfi_def_cfa_offset 336
	movq	%fs:40, %rax
	movq	%rax, 280(%rsp)
	xorl	%eax, %eax
	cmpl	$125, %edx
	je	.L157
	pxor	%xmm0, %xmm0
	movl	%edx, %edi
	leaq	16(%rsp), %rsi
	movl	$256, %edx
	movaps	%xmm0, 16(%rsp)
	movaps	%xmm0, 32(%rsp)
	movaps	%xmm0, 48(%rsp)
	movaps	%xmm0, 64(%rsp)
	movaps	%xmm0, 80(%rsp)
	movaps	%xmm0, 96(%rsp)
	movaps	%xmm0, 112(%rsp)
	movaps	%xmm0, 128(%rsp)
	movaps	%xmm0, 144(%rsp)
	movaps	%xmm0, 160(%rsp)
	movaps	%xmm0, 176(%rsp)
	movaps	%xmm0, 192(%rsp)
	movaps	%xmm0, 208(%rsp)
	movaps	%xmm0, 224(%rsp)
	movaps	%xmm0, 240(%rsp)
	movaps	%xmm0, 256(%rsp)
	call	strerror_r@PLT
	movq	%rbp, (%r12)
	movq	%rax, %r13
	testq	%rax, %rax
	je	.L145
	movq	%rax, %rdi
	call	strlen@PLT
	movq	%rax, 8(%rsp)
	movq	%rax, %r14
	cmpq	$15, %rax
	ja	.L158
	cmpq	$1, %rax
	jne	.L149
	movzbl	0(%r13), %edx
	movb	%dl, 16(%r12)
.L150:
	movq	%rax, 8(%r12)
	movb	$0, 0(%rbp,%rax)
.L142:
	movq	280(%rsp), %rax
	subq	%fs:40, %rax
	jne	.L159
	addq	$296, %rsp
	.cfi_remember_state
	.cfi_def_cfa_offset 40
	movq	%r12, %rax
	popq	%rbp
	.cfi_def_cfa_offset 32
	popq	%r12
	.cfi_def_cfa_offset 24
	popq	%r13
	.cfi_def_cfa_offset 16
	popq	%r14
	.cfi_def_cfa_offset 8
	ret
	.p2align 4,,10
	.p2align 3
.L158:
	.cfi_restore_state
	leaq	8(%rsp), %rsi
	xorl	%edx, %edx
	movq	%r12, %rdi
	call	_ZNSt7__cxx1112basic_stringIcSt11char_traitsIcESaIcEE9_M_createERmm@PLT
	movq	%rax, (%r12)
	movq	%rax, %rbp
	movq	8(%rsp), %rax
	movq	%rax, 16(%r12)
.L148:
	movq	%rbp, %rdi
	movq	%r14, %rdx
	movq	%r13, %rsi
	call	memcpy@PLT
	movq	8(%rsp), %rax
	movq	(%r12), %rbp
	jmp	.L150
	.p2align 4,,10
	.p2align 3
.L157:
	movq	%rbp, (%rdi)
	xorl	%edx, %edx
	leaq	8(%rsp), %rsi
	movq	$18, 8(%rsp)
	call	_ZNSt7__cxx1112basic_stringIcSt11char_traitsIcESaIcEE9_M_createERmm@PLT
	movq	8(%rsp), %rdx
	movdqa	.LC7(%rip), %xmm0
	movq	%rax, (%r12)
	movq	%rdx, 16(%r12)
	movl	$11876, %edx
	movw	%dx, 16(%rax)
	movups	%xmm0, (%rax)
	movq	8(%rsp), %rax
	movq	(%r12), %rdx
	movq	%rax, 8(%r12)
	movb	$0, (%rdx,%rax)
	jmp	.L142
	.p2align 4,,10
	.p2align 3
.L149:
	testq	%rax, %rax
	je	.L150
	jmp	.L148
.L145:
	leaq	.LC6(%rip), %rdi
	call	_ZSt19__throw_logic_errorPKc@PLT
.L159:
	call	__stack_chk_fail@PLT
	.cfi_endproc
.LFE2396:
	.size	_ZNK4asio6detail15system_category7messageB5cxx11Ei, .-_ZNK4asio6detail15system_category7messageB5cxx11Ei
	.section	.text._ZN4asio6detail28reactive_socket_send_op_baseINS_15const_buffers_1EE10do_performEPNS0_10reactor_opE,"axG",@progbits,_ZN4asio6detail28reactive_socket_send_op_baseINS_15const_buffers_1EE10do_performEPNS0_10reactor_opE,comdat
	.p2align 4
	.weak	_ZN4asio6detail28reactive_socket_send_op_baseINS_15const_buffers_1EE10do_performEPNS0_10reactor_opE
	.type	_ZN4asio6detail28reactive_socket_send_op_baseINS_15const_buffers_1EE10do_performEPNS0_10reactor_opE, @function
_ZN4asio6detail28reactive_socket_send_op_baseINS_15const_buffers_1EE10do_performEPNS0_10reactor_opE:
.LFB9293:
	.cfi_startproc
	endbr64
	pushq	%r15
	.cfi_def_cfa_offset 16
	.cfi_offset 15, -16
	pushq	%r14
	.cfi_def_cfa_offset 24
	.cfi_offset 14, -24
	movq	%rdi, %r14
	pushq	%r13
	.cfi_def_cfa_offset 32
	.cfi_offset 13, -32
	pushq	%r12
	.cfi_def_cfa_offset 40
	.cfi_offset 12, -40
	pushq	%rbp
	.cfi_def_cfa_offset 48
	.cfi_offset 6, -48
	pushq	%rbx
	.cfi_def_cfa_offset 56
	.cfi_offset 3, -56
	subq	$136, %rsp
	.cfi_def_cfa_offset 192
	movq	72(%rdi), %xmm0
	movl	56(%rdi), %r15d
	movq	%fs:40, %rax
	movq	%rax, 120(%rsp)
	movq	64(%rdi), %rax
	punpcklqdq	%xmm0, %xmm0
	movups	%xmm0, 40(%rsp)
	movq	%rax, 32(%rsp)
	call	__errno_location@PLT
	movq	_ZGVZN4asio15system_categoryEvE8instance@GOTPCREL(%rip), %rbp
	movq	_ZZN4asio15system_categoryEvE8instance@GOTPCREL(%rip), %r12
	movq	%rax, %r13
	movl	80(%r14), %eax
	orb	$64, %ah
	movl	%eax, 12(%rsp)
	leaq	32(%rsp), %rax
	movq	%rax, 24(%rsp)
	leaq	64(%rsp), %rax
	movq	%rax, 16(%rsp)
.L169:
	movq	24(%rsp), %rax
	movl	12(%rsp), %edx
	pxor	%xmm0, %xmm0
	movl	%r15d, %edi
	movl	$0, 0(%r13)
	movq	16(%rsp), %rsi
	movq	$0, 112(%rsp)
	movq	%rax, 80(%rsp)
	movq	$1, 88(%rsp)
	movaps	%xmm0, 64(%rsp)
	movaps	%xmm0, 96(%rsp)
	call	sendmsg@PLT
	movq	%rax, %rbx
	movzbl	0(%rbp), %eax
	testb	%al, %al
	je	.L197
.L162:
	movl	0(%r13), %eax
	movq	%r12, 32(%r14)
	movl	%eax, 24(%r14)
	testq	%rbx, %rbx
	js	.L164
	call	_ZNSt3_V215system_categoryEv@PLT
	movl	$0, 24(%r14)
	movq	%rax, 32(%r14)
.L164:
	movzbl	0(%rbp), %eax
	testb	%al, %al
	je	.L198
.L166:
	cmpq	%r12, 32(%r14)
	je	.L199
.L168:
	movzbl	0(%rbp), %eax
	testb	%al, %al
	je	.L200
.L171:
	cmpq	%r12, 32(%r14)
	je	.L201
.L173:
	movzbl	0(%rbp), %eax
	testb	%al, %al
	je	.L202
.L176:
	cmpq	%r12, 32(%r14)
	je	.L203
.L178:
	testq	%rbx, %rbx
	js	.L180
	call	_ZNSt3_V215system_categoryEv@PLT
	movl	$0, 24(%r14)
	movq	%rbx, 40(%r14)
	movq	%rax, 32(%r14)
	movl	$1, %eax
.L160:
	movq	120(%rsp), %rdx
	subq	%fs:40, %rdx
	jne	.L204
	addq	$136, %rsp
	.cfi_remember_state
	.cfi_def_cfa_offset 56
	popq	%rbx
	.cfi_def_cfa_offset 48
	popq	%rbp
	.cfi_def_cfa_offset 40
	popq	%r12
	.cfi_def_cfa_offset 32
	popq	%r13
	.cfi_def_cfa_offset 24
	popq	%r14
	.cfi_def_cfa_offset 16
	popq	%r15
	.cfi_def_cfa_offset 8
	ret
	.p2align 4,,10
	.p2align 3
.L180:
	.cfi_restore_state
	movq	$0, 40(%r14)
	movl	$1, %eax
	jmp	.L160
	.p2align 4,,10
	.p2align 3
.L197:
	movq	%rbp, %rdi
	call	__cxa_guard_acquire@PLT
	testl	%eax, %eax
	je	.L162
	movq	_ZN4asio6detail15system_categoryD1Ev@GOTPCREL(%rip), %rdi
	leaq	__dso_handle(%rip), %rdx
	movq	%r12, %rsi
	call	__cxa_atexit@PLT
	movq	%rbp, %rdi
	call	__cxa_guard_release@PLT
	jmp	.L162
	.p2align 4,,10
	.p2align 3
.L198:
	movq	%rbp, %rdi
	call	__cxa_guard_acquire@PLT
	testl	%eax, %eax
	je	.L166
	movq	_ZN4asio6detail15system_categoryD1Ev@GOTPCREL(%rip), %rdi
	leaq	__dso_handle(%rip), %rdx
	movq	%r12, %rsi
	call	__cxa_atexit@PLT
	movq	%rbp, %rdi
	call	__cxa_guard_release@PLT
	cmpq	%r12, 32(%r14)
	jne	.L168
	.p2align 4,,10
	.p2align 3
.L199:
	cmpl	$4, 24(%r14)
	je	.L169
	movzbl	0(%rbp), %eax
	testb	%al, %al
	jne	.L171
.L200:
	movq	%rbp, %rdi
	call	__cxa_guard_acquire@PLT
	testl	%eax, %eax
	je	.L171
	movq	_ZN4asio6detail15system_categoryD1Ev@GOTPCREL(%rip), %rdi
	leaq	__dso_handle(%rip), %rdx
	movq	%r12, %rsi
	call	__cxa_atexit@PLT
	movq	%rbp, %rdi
	call	__cxa_guard_release@PLT
	cmpq	%r12, 32(%r14)
	jne	.L173
	.p2align 4,,10
	.p2align 3
.L201:
	cmpl	$11, 24(%r14)
	jne	.L173
	xorl	%eax, %eax
	jmp	.L160
	.p2align 4,,10
	.p2align 3
.L202:
	movq	%rbp, %rdi
	call	__cxa_guard_acquire@PLT
	testl	%eax, %eax
	je	.L176
	movq	_ZN4asio6detail15system_categoryD1Ev@GOTPCREL(%rip), %rdi
	leaq	__dso_handle(%rip), %rdx
	movq	%r12, %rsi
	call	__cxa_atexit@PLT
	movq	%rbp, %rdi
	call	__cxa_guard_release@PLT
	jmp	.L176
	.p2align 4,,10
	.p2align 3
.L203:
	cmpl	$11, 24(%r14)
	jne	.L178
	xorl	%eax, %eax
	jmp	.L160
.L204:
	call	__stack_chk_fail@PLT
	.cfi_endproc
.LFE9293:
	.size	_ZN4asio6detail28reactive_socket_send_op_baseINS_15const_buffers_1EE10do_performEPNS0_10reactor_opE, .-_ZN4asio6detail28reactive_socket_send_op_baseINS_15const_buffers_1EE10do_performEPNS0_10reactor_opE
	.section	.text._ZN4asio6detail28reactive_socket_recv_op_baseINS_17mutable_buffers_1EE10do_performEPNS0_10reactor_opE,"axG",@progbits,_ZN4asio6detail28reactive_socket_recv_op_baseINS_17mutable_buffers_1EE10do_performEPNS0_10reactor_opE,comdat
	.p2align 4
	.weak	_ZN4asio6detail28reactive_socket_recv_op_baseINS_17mutable_buffers_1EE10do_performEPNS0_10reactor_opE
	.type	_ZN4asio6detail28reactive_socket_recv_op_baseINS_17mutable_buffers_1EE10do_performEPNS0_10reactor_opE, @function
_ZN4asio6detail28reactive_socket_recv_op_baseINS_17mutable_buffers_1EE10do_performEPNS0_10reactor_opE:
.LFB9055:
	.cfi_startproc
	endbr64
	pushq	%r15
	.cfi_def_cfa_offset 16
	.cfi_offset 15, -16
	pushq	%r14
	.cfi_def_cfa_offset 24
	.cfi_offset 14, -24
	movq	%rdi, %r14
	pushq	%r13
	.cfi_def_cfa_offset 32
	.cfi_offset 13, -32
	pushq	%r12
	.cfi_def_cfa_offset 40
	.cfi_offset 12, -40
	pushq	%rbp
	.cfi_def_cfa_offset 48
	.cfi_offset 6, -48
	pushq	%rbx
	.cfi_def_cfa_offset 56
	.cfi_offset 3, -56
	subq	$136, %rsp
	.cfi_def_cfa_offset 192
	movq	72(%rdi), %xmm0
	movl	80(%rdi), %r15d
	movq	%fs:40, %rax
	movq	%rax, 120(%rsp)
	movq	64(%rdi), %rax
	punpcklqdq	%xmm0, %xmm0
	movups	%xmm0, 40(%rsp)
	movq	%rax, 32(%rsp)
	movzbl	60(%rdi), %eax
	shrb	$4, %al
	andl	$1, %eax
	movb	%al, 31(%rsp)
	movl	56(%rdi), %eax
	movl	%eax, 24(%rsp)
	call	__errno_location@PLT
	movq	_ZGVZN4asio15system_categoryEvE8instance@GOTPCREL(%rip), %rbp
	movq	_ZZN4asio15system_categoryEvE8instance@GOTPCREL(%rip), %r12
	movq	%rax, %r13
	leaq	32(%rsp), %rax
	movq	%rax, 8(%rsp)
	leaq	64(%rsp), %rax
	movq	%rax, 16(%rsp)
.L219:
	movq	8(%rsp), %rax
	movl	24(%rsp), %edi
	pxor	%xmm0, %xmm0
	movl	%r15d, %edx
	movl	$0, 0(%r13)
	movq	16(%rsp), %rsi
	movq	$0, 112(%rsp)
	movq	%rax, 80(%rsp)
	movq	$1, 88(%rsp)
	movaps	%xmm0, 64(%rsp)
	movaps	%xmm0, 96(%rsp)
	call	recvmsg@PLT
	movq	%rax, %rbx
	movzbl	0(%rbp), %eax
	testb	%al, %al
	je	.L252
.L207:
	movl	0(%r13), %eax
	movq	%r12, 32(%r14)
	movl	%eax, 24(%r14)
	testq	%rbx, %rbx
	js	.L210
	call	_ZNSt3_V215system_categoryEv@PLT
	testq	%rbx, %rbx
	movl	$0, 24(%r14)
	movq	%rax, 32(%r14)
	sete	%r8b
	andb	31(%rsp), %r8b
	jne	.L253
.L210:
	movzbl	0(%rbp), %eax
	testb	%al, %al
	je	.L254
.L216:
	cmpq	%r12, 32(%r14)
	je	.L255
.L218:
	movzbl	0(%rbp), %eax
	testb	%al, %al
	je	.L256
.L221:
	cmpq	%r12, 32(%r14)
	je	.L257
.L223:
	movzbl	0(%rbp), %eax
	testb	%al, %al
	je	.L258
.L225:
	cmpq	%r12, 32(%r14)
	je	.L259
.L227:
	testq	%rbx, %rbx
	js	.L229
	call	_ZNSt3_V215system_categoryEv@PLT
	movq	%rbx, 40(%r14)
	movl	$1, %r8d
	movl	$0, 24(%r14)
	movq	%rax, 32(%r14)
.L205:
	movq	120(%rsp), %rax
	subq	%fs:40, %rax
	jne	.L260
	addq	$136, %rsp
	.cfi_remember_state
	.cfi_def_cfa_offset 56
	movl	%r8d, %eax
	popq	%rbx
	.cfi_def_cfa_offset 48
	popq	%rbp
	.cfi_def_cfa_offset 40
	popq	%r12
	.cfi_def_cfa_offset 32
	popq	%r13
	.cfi_def_cfa_offset 24
	popq	%r14
	.cfi_def_cfa_offset 16
	popq	%r15
	.cfi_def_cfa_offset 8
	ret
	.p2align 4,,10
	.p2align 3
.L229:
	.cfi_restore_state
	movq	$0, 40(%r14)
	movl	$1, %r8d
	jmp	.L205
	.p2align 4,,10
	.p2align 3
.L252:
	movq	%rbp, %rdi
	call	__cxa_guard_acquire@PLT
	testl	%eax, %eax
	je	.L207
	movq	_ZN4asio6detail15system_categoryD1Ev@GOTPCREL(%rip), %rdi
	leaq	__dso_handle(%rip), %rdx
	movq	%r12, %rsi
	call	__cxa_atexit@PLT
	movq	%rbp, %rdi
	call	__cxa_guard_release@PLT
	jmp	.L207
	.p2align 4,,10
	.p2align 3
.L254:
	movq	%rbp, %rdi
	call	__cxa_guard_acquire@PLT
	testl	%eax, %eax
	je	.L216
	movq	_ZN4asio6detail15system_categoryD1Ev@GOTPCREL(%rip), %rdi
	leaq	__dso_handle(%rip), %rdx
	movq	%r12, %rsi
	call	__cxa_atexit@PLT
	movq	%rbp, %rdi
	call	__cxa_guard_release@PLT
	cmpq	%r12, 32(%r14)
	jne	.L218
	.p2align 4,,10
	.p2align 3
.L255:
	cmpl	$4, 24(%r14)
	je	.L219
	movzbl	0(%rbp), %eax
	testb	%al, %al
	jne	.L221
.L256:
	movq	%rbp, %rdi
	call	__cxa_guard_acquire@PLT
	testl	%eax, %eax
	je	.L221
	movq	_ZN4asio6detail15system_categoryD1Ev@GOTPCREL(%rip), %rdi
	leaq	__dso_handle(%rip), %rdx
	movq	%r12, %rsi
	call	__cxa_atexit@PLT
	movq	%rbp, %rdi
	call	__cxa_guard_release@PLT
	cmpq	%r12, 32(%r14)
	jne	.L223
	.p2align 4,,10
	.p2align 3
.L257:
	cmpl	$11, 24(%r14)
	jne	.L223
.L228:
	xorl	%r8d, %r8d
	jmp	.L205
	.p2align 4,,10
	.p2align 3
.L258:
	movq	%rbp, %rdi
	call	__cxa_guard_acquire@PLT
	testl	%eax, %eax
	je	.L225
	movq	_ZN4asio6detail15system_categoryD1Ev@GOTPCREL(%rip), %rdi
	leaq	__dso_handle(%rip), %rdx
	movq	%r12, %rsi
	call	__cxa_atexit@PLT
	movq	%rbp, %rdi
	call	__cxa_guard_release@PLT
	jmp	.L225
	.p2align 4,,10
	.p2align 3
.L259:
	cmpl	$11, 24(%r14)
	jne	.L227
	jmp	.L228
	.p2align 4,,10
	.p2align 3
.L253:
	movq	_ZGVZN4asio5error17get_misc_categoryEvE8instance@GOTPCREL(%rip), %rbp
	movzbl	0(%rbp), %eax
	testb	%al, %al
	je	.L211
.L251:
	movq	_ZZN4asio5error17get_misc_categoryEvE8instance@GOTPCREL(%rip), %rbx
.L212:
	movl	$2, 24(%r14)
	movq	%rbx, 32(%r14)
	jmp	.L205
	.p2align 4,,10
	.p2align 3
.L211:
	movq	%rbp, %rdi
	movb	%r8b, 24(%rsp)
	call	__cxa_guard_acquire@PLT
	movzbl	24(%rsp), %r8d
	testl	%eax, %eax
	je	.L251
	movq	_ZZN4asio5error17get_misc_categoryEvE8instance@GOTPCREL(%rip), %rbx
	movq	_ZN4asio5error6detail13misc_categoryD1Ev@GOTPCREL(%rip), %rdi
	movb	%r8b, 24(%rsp)
	leaq	__dso_handle(%rip), %rdx
	movq	%rbx, %rsi
	call	__cxa_atexit@PLT
	movq	%rbp, %rdi
	call	__cxa_guard_release@PLT
	movzbl	24(%rsp), %r8d
	jmp	.L212
.L260:
	call	__stack_chk_fail@PLT
	.cfi_endproc
.LFE9055:
	.size	_ZN4asio6detail28reactive_socket_recv_op_baseINS_17mutable_buffers_1EE10do_performEPNS0_10reactor_opE, .-_ZN4asio6detail28reactive_socket_recv_op_baseINS_17mutable_buffers_1EE10do_performEPNS0_10reactor_opE
	.section	.text._ZNK4asio5error6detail17addrinfo_category7messageB5cxx11Ei,"axG",@progbits,_ZNK4asio5error6detail17addrinfo_category7messageB5cxx11Ei,comdat
	.align 2
	.p2align 4
	.weak	_ZNK4asio5error6detail17addrinfo_category7messageB5cxx11Ei
	.type	_ZNK4asio5error6detail17addrinfo_category7messageB5cxx11Ei, @function
_ZNK4asio5error6detail17addrinfo_category7messageB5cxx11Ei:
.LFB2442:
	.cfi_startproc
	endbr64
	pushq	%r12
	.cfi_def_cfa_offset 16
	.cfi_offset 12, -16
	movq	%rdi, %r12
	subq	$16, %rsp
	.cfi_def_cfa_offset 32
	movq	%fs:40, %rax
	movq	%rax, 8(%rsp)
	xorl	%eax, %eax
	leaq	16(%rdi), %rax
	movq	%rax, (%rdi)
	cmpl	$-8, %edx
	je	.L267
	cmpl	$-7, %edx
	je	.L268
	xorl	%edx, %edx
	movq	%rsp, %rsi
	movq	$19, (%rsp)
	call	_ZNSt7__cxx1112basic_stringIcSt11char_traitsIcESaIcEE9_M_createERmm@PLT
	movq	(%rsp), %rdx
	movdqa	.LC10(%rip), %xmm0
	movq	%rax, (%r12)
	movq	%rdx, 16(%r12)
	movl	$28530, %edx
	movw	%dx, 16(%rax)
	movb	$114, 18(%rax)
	movups	%xmm0, (%rax)
	movq	(%rsp), %rax
	movq	(%r12), %rdx
	movq	%rax, 8(%r12)
	movb	$0, (%rdx,%rax)
.L261:
	movq	8(%rsp), %rax
	subq	%fs:40, %rax
	jne	.L269
	addq	$16, %rsp
	.cfi_remember_state
	.cfi_def_cfa_offset 16
	movq	%r12, %rax
	popq	%r12
	.cfi_def_cfa_offset 8
	ret
	.p2align 4,,10
	.p2align 3
.L268:
	.cfi_restore_state
	xorl	%edx, %edx
	movq	%rsp, %rsi
	movq	$25, (%rsp)
	call	_ZNSt7__cxx1112basic_stringIcSt11char_traitsIcESaIcEE9_M_createERmm@PLT
	movq	(%rsp), %rdx
	movdqa	.LC9(%rip), %xmm0
	movabsq	$7310593918082512243, %rcx
	movq	%rax, (%r12)
	movq	%rdx, 16(%r12)
	movq	%rcx, 16(%rax)
	movb	$100, 24(%rax)
	movups	%xmm0, (%rax)
	movq	(%rsp), %rax
	movq	(%r12), %rdx
	movq	%rax, 8(%r12)
	movb	$0, (%rdx,%rax)
	jmp	.L261
	.p2align 4,,10
	.p2align 3
.L267:
	xorl	%edx, %edx
	movq	%rsp, %rsi
	movq	$17, (%rsp)
	call	_ZNSt7__cxx1112basic_stringIcSt11char_traitsIcESaIcEE9_M_createERmm@PLT
	movq	(%rsp), %rdx
	movdqa	.LC8(%rip), %xmm0
	movq	%rax, (%r12)
	movq	%rdx, 16(%r12)
	movb	$100, 16(%rax)
	movups	%xmm0, (%rax)
	movq	(%rsp), %rax
	movq	(%r12), %rdx
	movq	%rax, 8(%r12)
	movb	$0, (%rdx,%rax)
	jmp	.L261
.L269:
	call	__stack_chk_fail@PLT
	.cfi_endproc
.LFE2442:
	.size	_ZNK4asio5error6detail17addrinfo_category7messageB5cxx11Ei, .-_ZNK4asio5error6detail17addrinfo_category7messageB5cxx11Ei
	.section	.text._ZNK4asio5error6detail14netdb_category7messageB5cxx11Ei,"axG",@progbits,_ZNK4asio5error6detail14netdb_category7messageB5cxx11Ei,comdat
	.align 2
	.p2align 4
	.weak	_ZNK4asio5error6detail14netdb_category7messageB5cxx11Ei
	.type	_ZNK4asio5error6detail14netdb_category7messageB5cxx11Ei, @function
_ZNK4asio5error6detail14netdb_category7messageB5cxx11Ei:
.LFB2436:
	.cfi_startproc
	endbr64
	pushq	%r12
	.cfi_def_cfa_offset 16
	.cfi_offset 12, -16
	movq	%rdi, %r12
	subq	$16, %rsp
	.cfi_def_cfa_offset 32
	movq	%fs:40, %rax
	movq	%rax, 8(%rsp)
	xorl	%eax, %eax
	leaq	16(%rdi), %rax
	movq	%rax, (%rdi)
	cmpl	$1, %edx
	je	.L278
	cmpl	$2, %edx
	je	.L279
	cmpl	$4, %edx
	je	.L280
	cmpl	$3, %edx
	je	.L281
	xorl	%edx, %edx
	movq	%rsp, %rsi
	movq	$16, (%rsp)
	call	_ZNSt7__cxx1112basic_stringIcSt11char_traitsIcESaIcEE9_M_createERmm@PLT
	movq	(%rsp), %rdx
	movdqa	.LC20(%rip), %xmm0
	movq	%rax, (%r12)
	movq	%rdx, 16(%r12)
	movups	%xmm0, (%rax)
	movq	(%rsp), %rax
	movq	(%r12), %rdx
	movq	%rax, 8(%r12)
	movb	$0, (%rdx,%rax)
.L270:
	movq	8(%rsp), %rax
	subq	%fs:40, %rax
	jne	.L282
	addq	$16, %rsp
	.cfi_remember_state
	.cfi_def_cfa_offset 16
	movq	%r12, %rax
	popq	%r12
	.cfi_def_cfa_offset 8
	ret
	.p2align 4,,10
	.p2align 3
.L278:
	.cfi_restore_state
	movq	%rsp, %rsi
	xorl	%edx, %edx
	movq	$30, (%rsp)
	call	_ZNSt7__cxx1112basic_stringIcSt11char_traitsIcESaIcEE9_M_createERmm@PLT
	movq	(%rsp), %rdx
	movl	$10597, %esi
	movdqa	.LC11(%rip), %xmm0
	movabsq	$8388361603773658465, %rcx
	movq	%rax, (%r12)
	movq	%rdx, 16(%r12)
	movq	%rcx, 16(%rax)
	movl	$1986622561, 24(%rax)
	movw	%si, 28(%rax)
	movups	%xmm0, (%rax)
	movq	(%rsp), %rax
	movq	(%r12), %rdx
	movq	%rax, 8(%r12)
	movb	$0, (%rdx,%rax)
	jmp	.L270
	.p2align 4,,10
	.p2align 3
.L281:
	xorl	%edx, %edx
	movq	%rsp, %rsi
	movq	$55, (%rsp)
	call	_ZNSt7__cxx1112basic_stringIcSt11char_traitsIcESaIcEE9_M_createERmm@PLT
	movq	(%rsp), %rdx
	movdqa	.LC17(%rip), %xmm0
	movq	%rax, (%r12)
	movq	%rdx, 16(%r12)
	movl	$30059, %edx
	movups	%xmm0, (%rax)
	movdqa	.LC18(%rip), %xmm0
	movl	$1869573152, 48(%rax)
	movups	%xmm0, 16(%rax)
	movdqa	.LC19(%rip), %xmm0
	movw	%dx, 52(%rax)
	movb	$112, 54(%rax)
	movups	%xmm0, 32(%rax)
	movq	(%rsp), %rax
	movq	(%r12), %rdx
	movq	%rax, 8(%r12)
	movb	$0, (%rdx,%rax)
	jmp	.L270
	.p2align 4,,10
	.p2align 3
.L279:
	xorl	%edx, %edx
	movq	%rsp, %rsi
	movq	$51, (%rsp)
	call	_ZNSt7__cxx1112basic_stringIcSt11char_traitsIcESaIcEE9_M_createERmm@PLT
	movq	(%rsp), %rdx
	movl	$25972, %ecx
	movdqa	.LC11(%rip), %xmm0
	movq	%rax, (%r12)
	movq	%rdx, 16(%r12)
	movups	%xmm0, (%rax)
	movdqa	.LC12(%rip), %xmm0
	movw	%cx, 48(%rax)
	movups	%xmm0, 16(%rax)
	movdqa	.LC13(%rip), %xmm0
	movb	$114, 50(%rax)
	movups	%xmm0, 32(%rax)
	movq	(%rsp), %rax
	movq	(%r12), %rdx
	movq	%rax, 8(%r12)
	movb	$0, (%rdx,%rax)
	jmp	.L270
	.p2align 4,,10
	.p2align 3
.L280:
	xorl	%edx, %edx
	movq	%rsp, %rsi
	movq	$56, (%rsp)
	call	_ZNSt7__cxx1112basic_stringIcSt11char_traitsIcESaIcEE9_M_createERmm@PLT
	movq	(%rsp), %rdx
	movdqa	.LC14(%rip), %xmm0
	movabsq	$7022344801645520244, %rcx
	movq	%rax, (%r12)
	movq	%rdx, 16(%r12)
	movups	%xmm0, (%rax)
	movdqa	.LC15(%rip), %xmm0
	movq	%rcx, 48(%rax)
	movups	%xmm0, 16(%rax)
	movdqa	.LC16(%rip), %xmm0
	movups	%xmm0, 32(%rax)
	movq	(%rsp), %rax
	movq	(%r12), %rdx
	movq	%rax, 8(%r12)
	movb	$0, (%rdx,%rax)
	jmp	.L270
.L282:
	call	__stack_chk_fail@PLT
	.cfi_endproc
.LFE2436:
	.size	_ZNK4asio5error6detail14netdb_category7messageB5cxx11Ei, .-_ZNK4asio5error6detail14netdb_category7messageB5cxx11Ei
	.section	.text._ZNK4asio5error6detail13misc_category7messageB5cxx11Ei,"axG",@progbits,_ZNK4asio5error6detail13misc_category7messageB5cxx11Ei,comdat
	.align 2
	.p2align 4
	.weak	_ZNK4asio5error6detail13misc_category7messageB5cxx11Ei
	.type	_ZNK4asio5error6detail13misc_category7messageB5cxx11Ei, @function
_ZNK4asio5error6detail13misc_category7messageB5cxx11Ei:
.LFB2448:
	.cfi_startproc
	endbr64
	pushq	%r12
	.cfi_def_cfa_offset 16
	.cfi_offset 12, -16
	movq	%rdi, %r12
	subq	$16, %rsp
	.cfi_def_cfa_offset 32
	movq	%fs:40, %rax
	movq	%rax, 8(%rsp)
	xorl	%eax, %eax
	leaq	16(%rdi), %rax
	movq	%rax, (%rdi)
	cmpl	$1, %edx
	je	.L291
	cmpl	$2, %edx
	je	.L292
	cmpl	$3, %edx
	je	.L293
	cmpl	$4, %edx
	je	.L294
	movabsq	$8316298233121436513, %rcx
	movl	$28530, %edx
	movq	%rcx, 16(%rdi)
	movl	$1919230051, 8(%rax)
	movw	%dx, 12(%rax)
	movb	$114, 14(%rax)
	movq	$15, 8(%rdi)
	movb	$0, 31(%rdi)
.L283:
	movq	8(%rsp), %rax
	subq	%fs:40, %rax
	jne	.L295
	addq	$16, %rsp
	.cfi_remember_state
	.cfi_def_cfa_offset 16
	movq	%r12, %rax
	popq	%r12
	.cfi_def_cfa_offset 8
	ret
	.p2align 4,,10
	.p2align 3
.L291:
	.cfi_restore_state
	movabsq	$2340011850872286273, %rcx
	movq	%rcx, 16(%rdi)
	movl	$1852141679, 8(%rax)
	movq	$12, 8(%rdi)
	movb	$0, 28(%rdi)
	jmp	.L283
	.p2align 4,,10
	.p2align 3
.L294:
	movq	%rsp, %rsi
	xorl	%edx, %edx
	movq	$57, (%rsp)
	call	_ZNSt7__cxx1112basic_stringIcSt11char_traitsIcESaIcEE9_M_createERmm@PLT
	movq	(%rsp), %rdx
	movdqa	.LC22(%rip), %xmm0
	movabsq	$7310291504967217959, %rsi
	movq	%rax, (%r12)
	movq	%rdx, 16(%r12)
	movups	%xmm0, (%rax)
	movdqa	.LC23(%rip), %xmm0
	movq	%rsi, 48(%rax)
	movups	%xmm0, 16(%rax)
	movdqa	.LC24(%rip), %xmm0
	movb	$116, 56(%rax)
	movups	%xmm0, 32(%rax)
	movq	(%rsp), %rax
	movq	(%r12), %rdx
	movq	%rax, 8(%r12)
	movb	$0, (%rdx,%rax)
	jmp	.L283
	.p2align 4,,10
	.p2align 3
.L292:
	movabsq	$7358994418594246213, %rcx
	movq	%rcx, 16(%rdi)
	movl	$27753, %ecx
	movw	%cx, 8(%rax)
	movb	$101, 10(%rax)
	movq	$11, 8(%rdi)
	movb	$0, 27(%rdi)
	jmp	.L283
	.p2align 4,,10
	.p2align 3
.L293:
	xorl	%edx, %edx
	movq	%rsp, %rsi
	movq	$17, (%rsp)
	call	_ZNSt7__cxx1112basic_stringIcSt11char_traitsIcESaIcEE9_M_createERmm@PLT
	movq	(%rsp), %rdx
	movdqa	.LC21(%rip), %xmm0
	movq	%rax, (%r12)
	movq	%rdx, 16(%r12)
	movb	$100, 16(%rax)
	movups	%xmm0, (%rax)
	movq	(%rsp), %rax
	movq	(%r12), %rdx
	movq	%rax, 8(%r12)
	movb	$0, (%rdx,%rax)
	jmp	.L283
.L295:
	call	__stack_chk_fail@PLT
	.cfi_endproc
.LFE2448:
	.size	_ZNK4asio5error6detail13misc_category7messageB5cxx11Ei, .-_ZNK4asio5error6detail13misc_category7messageB5cxx11Ei
	.section	.text._ZN4asio15system_categoryEv,"axG",@progbits,_ZN4asio15system_categoryEv,comdat
	.p2align 4
	.weak	_ZN4asio15system_categoryEv
	.type	_ZN4asio15system_categoryEv, @function
_ZN4asio15system_categoryEv:
.LFB2399:
	.cfi_startproc
	endbr64
	pushq	%r12
	.cfi_def_cfa_offset 16
	.cfi_offset 12, -16
	pushq	%rbp
	.cfi_def_cfa_offset 24
	.cfi_offset 6, -24
	subq	$8, %rsp
	.cfi_def_cfa_offset 32
	movq	_ZGVZN4asio15system_categoryEvE8instance@GOTPCREL(%rip), %rbp
	movzbl	0(%rbp), %eax
	testb	%al, %al
	je	.L297
.L304:
	movq	_ZZN4asio15system_categoryEvE8instance@GOTPCREL(%rip), %r12
	addq	$8, %rsp
	.cfi_remember_state
	.cfi_def_cfa_offset 24
	popq	%rbp
	.cfi_def_cfa_offset 16
	movq	%r12, %rax
	popq	%r12
	.cfi_def_cfa_offset 8
	ret
	.p2align 4,,10
	.p2align 3
.L297:
	.cfi_restore_state
	movq	%rbp, %rdi
	call	__cxa_guard_acquire@PLT
	testl	%eax, %eax
	je	.L304
	movq	_ZZN4asio15system_categoryEvE8instance@GOTPCREL(%rip), %r12
	movq	_ZN4asio6detail15system_categoryD1Ev@GOTPCREL(%rip), %rdi
	leaq	__dso_handle(%rip), %rdx
	movq	%r12, %rsi
	call	__cxa_atexit@PLT
	movq	%rbp, %rdi
	call	__cxa_guard_release@PLT
	addq	$8, %rsp
	.cfi_def_cfa_offset 24
	movq	%r12, %rax
	popq	%rbp
	.cfi_def_cfa_offset 16
	popq	%r12
	.cfi_def_cfa_offset 8
	ret
	.cfi_endproc
.LFE2399:
	.size	_ZN4asio15system_categoryEv, .-_ZN4asio15system_categoryEv
	.section	.text._ZN7asiopal13SocketChannelD0Ev,"axG",@progbits,_ZN7asiopal13SocketChannelD5Ev,comdat
	.align 2
	.p2align 4
	.weak	_ZN7asiopal13SocketChannelD0Ev
	.type	_ZN7asiopal13SocketChannelD0Ev, @function
_ZN7asiopal13SocketChannelD0Ev:
.LFB9454:
	.cfi_startproc
	.cfi_personality 0x9b,DW.ref.__gxx_personality_v0
	.cfi_lsda 0x1b,.LLSDA9454
	endbr64
	pushq	%r15
	.cfi_def_cfa_offset 16
	.cfi_offset 15, -16
	movq	%rdi, %r15
	pushq	%r14
	.cfi_def_cfa_offset 24
	.cfi_offset 14, -24
	pushq	%r13
	.cfi_def_cfa_offset 32
	.cfi_offset 13, -32
	pushq	%r12
	.cfi_def_cfa_offset 40
	.cfi_offset 12, -40
	pushq	%rbp
	.cfi_def_cfa_offset 48
	.cfi_offset 6, -48
	pushq	%rbx
	.cfi_def_cfa_offset 56
	.cfi_offset 3, -56
	subq	$72, %rsp
	.cfi_def_cfa_offset 128
	movl	64(%rdi), %r12d
	movq	%fs:40, %rax
	movq	%rax, 56(%rsp)
	movq	_ZTVN7asiopal13SocketChannelE@GOTPCREL(%rip), %rax
	addq	$16, %rax
	movq	%rax, (%rdi)
	cmpl	$-1, %r12d
	jne	.L434
.L306:
	movq	_ZTVN7asiopal13IAsyncChannelE@GOTPCREL(%rip), %rax
	movq	48(%r15), %rbp
	addq	$16, %rax
	movq	%rax, (%r15)
	testq	%rbp, %rbp
	je	.L354
	movq	__libc_single_threaded@GOTPCREL(%rip), %rbx
	cmpb	$0, (%rbx)
	je	.L355
	movl	8(%rbp), %eax
	leal	-1(%rax), %edx
	movl	%edx, 8(%rbp)
.L356:
	cmpl	$1, %eax
	je	.L435
.L354:
	movq	32(%r15), %rbp
	testq	%rbp, %rbp
	je	.L361
	movq	__libc_single_threaded@GOTPCREL(%rip), %rbx
	cmpb	$0, (%rbx)
	je	.L362
	movl	8(%rbp), %eax
	leal	-1(%rax), %edx
	movl	%edx, 8(%rbp)
.L363:
	cmpl	$1, %eax
	je	.L436
.L361:
	movq	16(%r15), %rdi
	testq	%rdi, %rdi
	je	.L368
	movq	__libc_single_threaded@GOTPCREL(%rip), %rax
	cmpb	$0, (%rax)
	je	.L369
	movl	12(%rdi), %eax
	leal	-1(%rax), %edx
	movl	%edx, 12(%rdi)
.L370:
	cmpl	$1, %eax
	je	.L437
.L368:
	movq	56(%rsp), %rax
	subq	%fs:40, %rax
	jne	.L438
	addq	$72, %rsp
	.cfi_remember_state
	.cfi_def_cfa_offset 56
	movq	%r15, %rdi
	movl	$96, %esi
	popq	%rbx
	.cfi_def_cfa_offset 48
	popq	%rbp
	.cfi_def_cfa_offset 40
	popq	%r12
	.cfi_def_cfa_offset 32
	popq	%r13
	.cfi_def_cfa_offset 24
	popq	%r14
	.cfi_def_cfa_offset 16
	popq	%r15
	.cfi_def_cfa_offset 8
	jmp	_ZdlPvm@PLT
	.p2align 4,,10
	.p2align 3
.L434:
	.cfi_restore_state
	movq	72(%rdi), %rbp
	testq	%rbp, %rbp
	je	.L336
	movq	88(%rdi), %rax
	movzbl	68(%rdi), %ebx
	movq	40(%rax), %rax
	movq	%rax, 16(%rsp)
	leaq	40(%rbp), %rax
	movq	%rax, %rdi
	movq	%rax, 24(%rsp)
	call	pthread_mutex_lock@PLT
	movq	72(%r15), %rdi
	cmpb	$0, 144(%rdi)
	jne	.L308
	andl	$64, %ebx
	jne	.L439
.L309:
	movq	$0, 8(%rsp)
	xorl	%ebp, %ebp
	movl	$0, 4(%rsp)
.L310:
	movslq	4(%rsp), %r12
	movq	%r12, %rax
	salq	$4, %rax
	movq	96(%rax,%rdi), %rbx
	testq	%rbx, %rbx
	je	.L376
	movq	_ZGVZN4asio15system_categoryEvE8instance@GOTPCREL(%rip), %r14
	movq	_ZZN4asio15system_categoryEvE8instance@GOTPCREL(%rip), %r13
	movzbl	(%r14), %eax
	testb	%al, %al
	je	.L440
	.p2align 4,,10
	.p2align 3
.L312:
	movq	72(%r15), %rdi
	movq	%r12, %rax
	movl	$125, 24(%rbx)
	salq	$4, %rax
	movq	%r13, 32(%rbx)
	addq	%rdi, %rax
	movq	96(%rax), %rdx
	testq	%rdx, %rdx
	je	.L314
	movq	(%rdx), %r11
	movq	%r11, 96(%rax)
	testq	%r11, %r11
	je	.L441
	movq	$0, (%rdx)
	movq	$0, (%rbx)
	testq	%rbp, %rbp
	je	.L442
.L373:
	movq	%rbx, 0(%rbp)
	testq	%r11, %r11
	je	.L316
.L317:
	movzbl	(%r14), %eax
	movq	%rbx, %rbp
	movq	%r11, %rbx
	testb	%al, %al
	jne	.L312
.L440:
	movq	%r14, %rdi
	call	__cxa_guard_acquire@PLT
	testl	%eax, %eax
	je	.L312
	movq	_ZN4asio6detail15system_categoryD1Ev@GOTPCREL(%rip), %rdi
	leaq	__dso_handle(%rip), %rdx
	movq	%r13, %rsi
	call	__cxa_atexit@PLT
	movq	%r14, %rdi
	call	__cxa_guard_release@PLT
	jmp	.L312
	.p2align 4,,10
	.p2align 3
.L308:
	movq	24(%rsp), %rdi
	call	pthread_mutex_unlock@PLT
.L428:
	movl	64(%r15), %r12d
	cmpl	$-1, %r12d
	je	.L306
.L336:
	call	__errno_location@PLT
	movzbl	68(%r15), %ebp
	movq	%rax, %rbx
	testb	$8, %bpl
	jne	.L426
	movq	_ZGVZN4asio15system_categoryEvE8instance@GOTPCREL(%rip), %r14
.L338:
	movl	$0, (%rbx)
	movl	%r12d, %edi
	call	close@PLT
	movl	%eax, %ebp
	movzbl	(%r14), %eax
	testb	%al, %al
	je	.L443
.L343:
	movl	(%rbx), %r13d
	testl	%ebp, %ebp
	je	.L306
	movzbl	(%r14), %eax
	testb	%al, %al
	je	.L444
.L347:
	cmpl	$11, %r13d
	je	.L349
.L433:
	movzbl	(%r14), %eax
	testb	%al, %al
	jne	.L306
	movq	%r14, %rdi
	call	__cxa_guard_acquire@PLT
	testl	%eax, %eax
	je	.L306
	movq	_ZZN4asio15system_categoryEvE8instance@GOTPCREL(%rip), %rsi
	movq	_ZN4asio6detail15system_categoryD1Ev@GOTPCREL(%rip), %rdi
	leaq	__dso_handle(%rip), %rdx
	call	__cxa_atexit@PLT
	movq	%r14, %rdi
	call	__cxa_guard_release@PLT
	jmp	.L306
	.p2align 4,,10
	.p2align 3
.L435:
	movq	0(%rbp), %rax
	movq	%rbp, %rdi
	call	*16(%rax)
	cmpb	$0, (%rbx)
	je	.L358
	movl	12(%rbp), %eax
	leal	-1(%rax), %edx
	movl	%edx, 12(%rbp)
.L359:
	cmpl	$1, %eax
	jne	.L354
	movq	0(%rbp), %rax
	movq	%rbp, %rdi
	call	*24(%rax)
	jmp	.L354
	.p2align 4,,10
	.p2align 3
.L436:
	movq	0(%rbp), %rax
	movq	%rbp, %rdi
	call	*16(%rax)
	cmpb	$0, (%rbx)
	je	.L365
	movl	12(%rbp), %eax
	leal	-1(%rax), %edx
	movl	%edx, 12(%rbp)
.L366:
	cmpl	$1, %eax
	jne	.L361
	movq	0(%rbp), %rax
	movq	%rbp, %rdi
	call	*24(%rax)
	jmp	.L361
	.p2align 4,,10
	.p2align 3
.L437:
	movq	(%rdi), %rax
	call	*24(%rax)
	jmp	.L368
	.p2align 4,,10
	.p2align 3
.L369:
	movl	$-1, %eax
	lock xaddl	%eax, 12(%rdi)
	jmp	.L370
	.p2align 4,,10
	.p2align 3
.L355:
	movl	$-1, %eax
	lock xaddl	%eax, 8(%rbp)
	jmp	.L356
	.p2align 4,,10
	.p2align 3
.L362:
	movl	$-1, %eax
	lock xaddl	%eax, 8(%rbp)
	jmp	.L363
	.p2align 4,,10
	.p2align 3
.L314:
	movq	$0, (%rbx)
	testq	%rbp, %rbp
	je	.L377
	movq	%rbx, 0(%rbp)
.L316:
	addl	$1, 4(%rsp)
	movl	4(%rsp), %eax
	cmpl	$3, %eax
	je	.L318
.L445:
	movq	%rbx, %rbp
	jmp	.L310
	.p2align 4,,10
	.p2align 3
.L441:
	movq	$0, 104(%rax)
	movq	$0, (%rdx)
	movq	$0, (%rbx)
	testq	%rbp, %rbp
	jne	.L373
	.p2align 4,,10
	.p2align 3
.L377:
	addl	$1, 4(%rsp)
	movl	4(%rsp), %eax
	movq	%rbx, 8(%rsp)
	cmpl	$3, %eax
	jne	.L445
.L318:
	movl	$-1, 88(%rdi)
	movb	$1, 144(%rdi)
	movq	24(%rsp), %rdi
	call	pthread_mutex_unlock@PLT
	movq	16(%rsp), %r14
	movq	72(%r15), %rbp
	leaq	120(%r14), %r12
	movq	%r12, %rdi
	call	pthread_mutex_lock@PLT
	cmpq	160(%r14), %rbp
	je	.L446
.L320:
	movq	32(%rbp), %rax
	testq	%rax, %rax
	je	.L321
	movq	24(%rbp), %rdx
	movq	%rdx, 24(%rax)
.L321:
	movq	24(%rbp), %rax
	testq	%rax, %rax
	je	.L322
	movq	32(%rbp), %rdx
	movq	%rdx, 32(%rax)
.L322:
	movq	16(%rsp), %r14
	movq	%r12, %rdi
	movq	168(%r14), %rax
	movq	$0, 32(%rbp)
	movq	%rax, 24(%rbp)
	movq	%rbp, 168(%r14)
	call	pthread_mutex_unlock@PLT
	cmpq	$0, 8(%rsp)
	movq	$0, 72(%r15)
	je	.L428
	movq	40(%r14), %rbp
	cmpb	$0, 40(%rbp)
	je	.L324
	data16	leaq	_ZN4asio6detail15keyword_tss_ptrINS0_10call_stackINS0_15task_io_serviceENS0_27task_io_service_thread_infoEE7contextEE6value_E@tlsgd(%rip), %rdi
	.value	0x6666
	rex64
	call	__tls_get_addr@PLT
	movq	(%rax), %rax
	testq	%rax, %rax
	jne	.L327
	jmp	.L324
	.p2align 4,,10
	.p2align 3
.L325:
	movq	16(%rax), %rax
	testq	%rax, %rax
	je	.L324
.L327:
	cmpq	(%rax), %rbp
	jne	.L325
	movq	8(%rax), %rax
	testq	%rax, %rax
	je	.L324
	movq	16(%rax), %rdx
	movq	8(%rsp), %rcx
	testq	%rdx, %rdx
	je	.L328
	movq	%rcx, (%rdx)
.L329:
	movq	%rbx, 16(%rax)
	jmp	.L428
	.p2align 4,,10
	.p2align 3
.L442:
	movq	%rbx, 8(%rsp)
	jmp	.L317
	.p2align 4,,10
	.p2align 3
.L443:
	movq	%r14, %rdi
	call	__cxa_guard_acquire@PLT
	testl	%eax, %eax
	je	.L343
	movq	_ZZN4asio15system_categoryEvE8instance@GOTPCREL(%rip), %rsi
	movq	_ZN4asio6detail15system_categoryD1Ev@GOTPCREL(%rip), %rdi
	leaq	__dso_handle(%rip), %rdx
	call	__cxa_atexit@PLT
	movq	%r14, %rdi
	call	__cxa_guard_release@PLT
	jmp	.L343
	.p2align 4,,10
	.p2align 3
.L426:
	orl	$8, %ebp
	leaq	40(%rsp), %rcx
	movl	$13, %edx
	movl	%r12d, %edi
	movb	%bpl, 68(%r15)
	movl	$8, %r8d
	movl	$1, %esi
	movl	$0, (%rax)
	movq	$0, 40(%rsp)
	call	setsockopt@PLT
	movq	_ZGVZN4asio15system_categoryEvE8instance@GOTPCREL(%rip), %r14
	movzbl	(%r14), %eax
	testb	%al, %al
	jne	.L338
	movq	%r14, %rdi
	call	__cxa_guard_acquire@PLT
	testl	%eax, %eax
	je	.L338
	movq	_ZZN4asio15system_categoryEvE8instance@GOTPCREL(%rip), %rsi
	movq	_ZN4asio6detail15system_categoryD1Ev@GOTPCREL(%rip), %rdi
	leaq	__dso_handle(%rip), %rdx
	call	__cxa_atexit@PLT
	movq	%r14, %rdi
	call	__cxa_guard_release@PLT
	jmp	.L338
	.p2align 4,,10
	.p2align 3
.L324:
	leaq	48(%rbp), %r12
	movq	%r12, %rdi
	call	pthread_mutex_lock@PLT
	movq	200(%rbp), %rax
	testq	%rax, %rax
	je	.L331
	movq	8(%rsp), %rcx
	movq	%rcx, (%rax)
.L332:
	movq	136(%rbp), %rax
	movq	%rbx, 200(%rbp)
	orq	$1, %rax
	movq	%rax, 136(%rbp)
	cmpq	$1, %rax
	je	.L333
	movq	%r12, %rdi
	call	pthread_mutex_unlock@PLT
	leaq	88(%rbp), %rdi
	call	pthread_cond_signal@PLT
	jmp	.L428
.L333:
	cmpb	$0, 176(%rbp)
	jne	.L335
	movq	144(%rbp), %rax
	testq	%rax, %rax
	je	.L335
	movb	$1, 176(%rbp)
	leaq	88(%rax), %rdx
	leaq	40(%rsp), %rcx
	movl	$3, %esi
	movq	%rdx, 44(%rsp)
	movl	88(%rax), %edx
	movl	$-2147483639, 40(%rsp)
	movl	96(%rax), %edi
	call	epoll_ctl@PLT
.L335:
	movq	%r12, %rdi
	call	pthread_mutex_unlock@PLT
	jmp	.L428
	.p2align 4,,10
	.p2align 3
.L358:
	movl	$-1, %eax
	lock xaddl	%eax, 12(%rbp)
	jmp	.L359
	.p2align 4,,10
	.p2align 3
.L365:
	movl	$-1, %eax
	lock xaddl	%eax, 12(%rbp)
	jmp	.L366
	.p2align 4,,10
	.p2align 3
.L439:
	movq	16(%rsp), %rax
	movl	$0, 40(%rsp)
	leaq	40(%rsp), %rcx
	movl	%r12d, %edx
	movq	$0, 44(%rsp)
	movl	$2, %esi
	movl	96(%rax), %edi
	call	epoll_ctl@PLT
	movq	72(%r15), %rdi
	jmp	.L309
	.p2align 4,,10
	.p2align 3
.L376:
	movq	%rbp, %rbx
	jmp	.L316
	.p2align 4,,10
	.p2align 3
.L446:
	movq	24(%rbp), %rax
	movq	16(%rsp), %rcx
	movq	%rax, 160(%rcx)
	jmp	.L320
.L444:
	movq	%r14, %rdi
	call	__cxa_guard_acquire@PLT
	testl	%eax, %eax
	je	.L347
	movq	_ZZN4asio15system_categoryEvE8instance@GOTPCREL(%rip), %rsi
	movq	_ZN4asio6detail15system_categoryD1Ev@GOTPCREL(%rip), %rdi
	leaq	__dso_handle(%rip), %rdx
	call	__cxa_atexit@PLT
	movq	%r14, %rdi
	call	__cxa_guard_release@PLT
	jmp	.L347
.L349:
	movl	%r12d, %edi
	leaq	40(%rsp), %rdx
	movl	$21537, %esi
	xorl	%eax, %eax
	movl	$0, 40(%rsp)
	call	ioctl@PLT
	andb	$-4, 68(%r15)
	movl	%r12d, %edi
	movl	$0, (%rbx)
	call	close@PLT
	jmp	.L433
.L331:
	movq	8(%rsp), %rax
	movq	%rax, 192(%rbp)
	jmp	.L332
.L328:
	movq	%rcx, 8(%rax)
	jmp	.L329
.L438:
	call	__stack_chk_fail@PLT
	.cfi_endproc
.LFE9454:
	.section	.gcc_except_table
.LLSDA9454:
	.byte	0xff
	.byte	0xff
	.byte	0x1
	.uleb128 .LLSDACSE9454-.LLSDACSB9454
.LLSDACSB9454:
.LLSDACSE9454:
	.section	.text._ZN7asiopal13SocketChannelD0Ev,"axG",@progbits,_ZN7asiopal13SocketChannelD5Ev,comdat
	.size	_ZN7asiopal13SocketChannelD0Ev, .-_ZN7asiopal13SocketChannelD0Ev
	.text
	.align 2
	.p2align 4
	.globl	_ZN7asiopal13SocketChannel12ShutdownImplEv
	.type	_ZN7asiopal13SocketChannel12ShutdownImplEv, @function
_ZN7asiopal13SocketChannel12ShutdownImplEv:
.LFB7061:
	.cfi_startproc
	endbr64
	pushq	%r15
	.cfi_def_cfa_offset 16
	.cfi_offset 15, -16
	movq	%rdi, %r15
	pushq	%r14
	.cfi_def_cfa_offset 24
	.cfi_offset 14, -24
	pushq	%r13
	.cfi_def_cfa_offset 32
	.cfi_offset 13, -32
	pushq	%r12
	.cfi_def_cfa_offset 40
	.cfi_offset 12, -40
	pushq	%rbp
	.cfi_def_cfa_offset 48
	.cfi_offset 6, -48
	pushq	%rbx
	.cfi_def_cfa_offset 56
	.cfi_offset 3, -56
	subq	$72, %rsp
	.cfi_def_cfa_offset 128
	movl	64(%rdi), %ebp
	movq	%fs:40, %rax
	movq	%rax, 56(%rsp)
	xorl	%eax, %eax
	cmpl	$-1, %ebp
	je	.L551
	call	__errno_location@PLT
	movl	$2, %esi
	movl	%ebp, %edi
	movl	$0, (%rax)
	call	shutdown@PLT
.L551:
	movq	_ZGVZN4asio15system_categoryEvE8instance@GOTPCREL(%rip), %r14
	movzbl	(%r14), %eax
	testb	%al, %al
	je	.L556
.L450:
	movl	64(%r15), %r12d
	movq	88(%r15), %rax
	cmpl	$-1, %r12d
	jne	.L557
.L454:
	movl	$-1, 64(%r15)
	movb	$0, 68(%r15)
	movq	56(%rsp), %rax
	subq	%fs:40, %rax
	jne	.L558
	addq	$72, %rsp
	.cfi_remember_state
	.cfi_def_cfa_offset 56
	popq	%rbx
	.cfi_def_cfa_offset 48
	popq	%rbp
	.cfi_def_cfa_offset 40
	popq	%r12
	.cfi_def_cfa_offset 32
	popq	%r13
	.cfi_def_cfa_offset 24
	popq	%r14
	.cfi_def_cfa_offset 16
	popq	%r15
	.cfi_def_cfa_offset 8
	ret
	.p2align 4,,10
	.p2align 3
.L557:
	.cfi_restore_state
	movq	40(%rax), %rax
	movq	72(%r15), %rbp
	movzbl	68(%r15), %ebx
	movq	%rax, 16(%rsp)
	testq	%rbp, %rbp
	je	.L455
	leaq	40(%rbp), %rax
	movq	%rax, %rdi
	movq	%rax, 24(%rsp)
	call	pthread_mutex_lock@PLT
	movq	72(%r15), %rdx
	cmpb	$0, 144(%rdx)
	jne	.L456
	andl	$64, %ebx
	jne	.L559
.L457:
	movq	$0, 8(%rsp)
	xorl	%ebp, %ebp
	movl	$0, 4(%rsp)
.L458:
	movslq	4(%rsp), %r12
	movq	%r12, %rax
	salq	$4, %rax
	movq	96(%rax,%rdx), %rbx
	testq	%rbx, %rbx
	je	.L498
	movq	_ZZN4asio15system_categoryEvE8instance@GOTPCREL(%rip), %r13
	movzbl	(%r14), %eax
	testb	%al, %al
	je	.L560
	.p2align 4,,10
	.p2align 3
.L460:
	movq	72(%r15), %rdx
	movq	%r12, %rax
	movl	$125, 24(%rbx)
	salq	$4, %rax
	movq	%r13, 32(%rbx)
	addq	%rdx, %rax
	movq	96(%rax), %rdi
	testq	%rdi, %rdi
	je	.L462
	movq	(%rdi), %r11
	movq	%r11, 96(%rax)
	testq	%r11, %r11
	je	.L561
	movq	$0, (%rdi)
	movq	$0, (%rbx)
	testq	%rbp, %rbp
	je	.L562
.L495:
	movq	%rbx, 0(%rbp)
	testq	%r11, %r11
	je	.L464
.L465:
	movzbl	(%r14), %eax
	movq	%rbx, %rbp
	movq	%r11, %rbx
	testb	%al, %al
	jne	.L460
.L560:
	movq	%r14, %rdi
	call	__cxa_guard_acquire@PLT
	testl	%eax, %eax
	je	.L460
	movq	_ZN4asio6detail15system_categoryD1Ev@GOTPCREL(%rip), %rdi
	leaq	__dso_handle(%rip), %rdx
	movq	%r13, %rsi
	call	__cxa_atexit@PLT
	movq	%r14, %rdi
	call	__cxa_guard_release@PLT
	jmp	.L460
	.p2align 4,,10
	.p2align 3
.L456:
	movq	24(%rsp), %rdi
	call	pthread_mutex_unlock@PLT
.L478:
	movl	64(%r15), %r12d
	cmpl	$-1, %r12d
	je	.L454
.L455:
	call	__errno_location@PLT
	movl	%r12d, %edi
	movl	$0, (%rax)
	movq	%rax, %rbx
	call	close@PLT
	movl	%eax, %ebp
	movzbl	(%r14), %eax
	testb	%al, %al
	je	.L563
.L486:
	movl	(%rbx), %r13d
	testl	%ebp, %ebp
	je	.L454
	movzbl	(%r14), %eax
	testb	%al, %al
	je	.L564
.L489:
	cmpl	$11, %r13d
	je	.L491
.L555:
	movzbl	(%r14), %eax
	testb	%al, %al
	jne	.L454
	movq	%r14, %rdi
	call	__cxa_guard_acquire@PLT
	testl	%eax, %eax
	je	.L454
	movq	_ZZN4asio15system_categoryEvE8instance@GOTPCREL(%rip), %rsi
	movq	_ZN4asio6detail15system_categoryD1Ev@GOTPCREL(%rip), %rdi
	leaq	__dso_handle(%rip), %rdx
	call	__cxa_atexit@PLT
	movq	%r14, %rdi
	call	__cxa_guard_release@PLT
	jmp	.L454
	.p2align 4,,10
	.p2align 3
.L556:
	movq	%r14, %rdi
	call	__cxa_guard_acquire@PLT
	testl	%eax, %eax
	je	.L450
	movq	_ZZN4asio15system_categoryEvE8instance@GOTPCREL(%rip), %rsi
	movq	_ZN4asio6detail15system_categoryD1Ev@GOTPCREL(%rip), %rdi
	leaq	__dso_handle(%rip), %rdx
	call	__cxa_atexit@PLT
	movq	%r14, %rdi
	call	__cxa_guard_release@PLT
	jmp	.L450
	.p2align 4,,10
	.p2align 3
.L563:
	movq	%r14, %rdi
	call	__cxa_guard_acquire@PLT
	testl	%eax, %eax
	je	.L486
	movq	_ZZN4asio15system_categoryEvE8instance@GOTPCREL(%rip), %rsi
	movq	_ZN4asio6detail15system_categoryD1Ev@GOTPCREL(%rip), %rdi
	leaq	__dso_handle(%rip), %rdx
	call	__cxa_atexit@PLT
	movq	%r14, %rdi
	call	__cxa_guard_release@PLT
	jmp	.L486
	.p2align 4,,10
	.p2align 3
.L564:
	movq	%r14, %rdi
	call	__cxa_guard_acquire@PLT
	testl	%eax, %eax
	je	.L489
	movq	_ZZN4asio15system_categoryEvE8instance@GOTPCREL(%rip), %rsi
	movq	_ZN4asio6detail15system_categoryD1Ev@GOTPCREL(%rip), %rdi
	leaq	__dso_handle(%rip), %rdx
	call	__cxa_atexit@PLT
	movq	%r14, %rdi
	call	__cxa_guard_release@PLT
	jmp	.L489
	.p2align 4,,10
	.p2align 3
.L462:
	movq	$0, (%rbx)
	testq	%rbp, %rbp
	je	.L499
	movq	%rbx, 0(%rbp)
.L464:
	addl	$1, 4(%rsp)
	movl	4(%rsp), %eax
	cmpl	$3, %eax
	je	.L466
.L565:
	movq	%rbx, %rbp
	jmp	.L458
	.p2align 4,,10
	.p2align 3
.L561:
	movq	$0, 104(%rax)
	movq	$0, (%rdi)
	movq	$0, (%rbx)
	testq	%rbp, %rbp
	jne	.L495
	.p2align 4,,10
	.p2align 3
.L499:
	addl	$1, 4(%rsp)
	movl	4(%rsp), %eax
	movq	%rbx, 8(%rsp)
	cmpl	$3, %eax
	jne	.L565
.L466:
	movl	$-1, 88(%rdx)
	movq	24(%rsp), %rdi
	movb	$1, 144(%rdx)
	call	pthread_mutex_unlock@PLT
	movq	16(%rsp), %r13
	movq	72(%r15), %rbp
	leaq	120(%r13), %r12
	movq	%r12, %rdi
	call	pthread_mutex_lock@PLT
	cmpq	160(%r13), %rbp
	je	.L566
.L468:
	movq	32(%rbp), %rax
	testq	%rax, %rax
	je	.L469
	movq	24(%rbp), %rdx
	movq	%rdx, 24(%rax)
.L469:
	movq	24(%rbp), %rax
	testq	%rax, %rax
	je	.L470
	movq	32(%rbp), %rdx
	movq	%rdx, 32(%rax)
.L470:
	movq	16(%rsp), %r13
	movq	%r12, %rdi
	movq	168(%r13), %rax
	movq	$0, 32(%rbp)
	movq	%rax, 24(%rbp)
	movq	%rbp, 168(%r13)
	call	pthread_mutex_unlock@PLT
	cmpq	$0, 8(%rsp)
	movq	$0, 72(%r15)
	je	.L478
	movq	40(%r13), %rbp
	cmpb	$0, 40(%rbp)
	je	.L472
	data16	leaq	_ZN4asio6detail15keyword_tss_ptrINS0_10call_stackINS0_15task_io_serviceENS0_27task_io_service_thread_infoEE7contextEE6value_E@tlsgd(%rip), %rdi
	.value	0x6666
	rex64
	call	__tls_get_addr@PLT
	movq	(%rax), %rax
	testq	%rax, %rax
	jne	.L475
	jmp	.L472
	.p2align 4,,10
	.p2align 3
.L473:
	movq	16(%rax), %rax
	testq	%rax, %rax
	je	.L472
.L475:
	cmpq	(%rax), %rbp
	jne	.L473
	movq	8(%rax), %rax
	testq	%rax, %rax
	je	.L472
	movq	16(%rax), %rdx
	movq	8(%rsp), %rcx
	testq	%rdx, %rdx
	je	.L476
	movq	%rcx, (%rdx)
.L477:
	movq	%rbx, 16(%rax)
	jmp	.L478
	.p2align 4,,10
	.p2align 3
.L562:
	movq	%rbx, 8(%rsp)
	jmp	.L465
	.p2align 4,,10
	.p2align 3
.L472:
	leaq	48(%rbp), %r12
	movq	%r12, %rdi
	call	pthread_mutex_lock@PLT
	movq	200(%rbp), %rax
	testq	%rax, %rax
	je	.L479
	movq	8(%rsp), %rcx
	movq	%rcx, (%rax)
.L480:
	movq	136(%rbp), %rax
	movq	%rbx, 200(%rbp)
	orq	$1, %rax
	movq	%rax, 136(%rbp)
	cmpq	$1, %rax
	je	.L481
	movq	%r12, %rdi
	call	pthread_mutex_unlock@PLT
	leaq	88(%rbp), %rdi
	call	pthread_cond_signal@PLT
	jmp	.L478
.L481:
	cmpb	$0, 176(%rbp)
	jne	.L483
	movq	144(%rbp), %rax
	testq	%rax, %rax
	je	.L483
	movb	$1, 176(%rbp)
	leaq	88(%rax), %rdx
	leaq	44(%rsp), %rcx
	movl	$3, %esi
	movq	%rdx, 48(%rsp)
	movl	88(%rax), %edx
	movl	$-2147483639, 44(%rsp)
	movl	96(%rax), %edi
	call	epoll_ctl@PLT
.L483:
	movq	%r12, %rdi
	call	pthread_mutex_unlock@PLT
	jmp	.L478
	.p2align 4,,10
	.p2align 3
.L498:
	movq	%rbp, %rbx
	jmp	.L464
	.p2align 4,,10
	.p2align 3
.L559:
	movq	16(%rsp), %rax
	movl	%r12d, %edx
	leaq	44(%rsp), %rcx
	movl	$2, %esi
	movl	$0, 44(%rsp)
	movq	$0, 48(%rsp)
	movl	96(%rax), %edi
	call	epoll_ctl@PLT
	movq	72(%r15), %rdx
	jmp	.L457
	.p2align 4,,10
	.p2align 3
.L566:
	movq	24(%rbp), %rax
	movq	16(%rsp), %rcx
	movq	%rax, 160(%rcx)
	jmp	.L468
	.p2align 4,,10
	.p2align 3
.L491:
	movl	%r12d, %edi
	leaq	44(%rsp), %rdx
	movl	$21537, %esi
	xorl	%eax, %eax
	movl	$0, 44(%rsp)
	call	ioctl@PLT
	andb	$-4, 68(%r15)
	movl	%r12d, %edi
	movl	$0, (%rbx)
	call	close@PLT
	jmp	.L555
.L479:
	movq	8(%rsp), %rax
	movq	%rax, 192(%rbp)
	jmp	.L480
.L476:
	movq	%rcx, 8(%rax)
	jmp	.L477
.L558:
	call	__stack_chk_fail@PLT
	.cfi_endproc
.LFE7061:
	.size	_ZN7asiopal13SocketChannel12ShutdownImplEv, .-_ZN7asiopal13SocketChannel12ShutdownImplEv
	.section	.text._ZN7asiopal13SocketChannelD2Ev,"axG",@progbits,_ZN7asiopal13SocketChannelD5Ev,comdat
	.align 2
	.p2align 4
	.weak	_ZN7asiopal13SocketChannelD2Ev
	.type	_ZN7asiopal13SocketChannelD2Ev, @function
_ZN7asiopal13SocketChannelD2Ev:
.LFB9452:
	.cfi_startproc
	.cfi_personality 0x9b,DW.ref.__gxx_personality_v0
	.cfi_lsda 0x1b,.LLSDA9452
	endbr64
	pushq	%r15
	.cfi_def_cfa_offset 16
	.cfi_offset 15, -16
	movq	%rdi, %r15
	pushq	%r14
	.cfi_def_cfa_offset 24
	.cfi_offset 14, -24
	pushq	%r13
	.cfi_def_cfa_offset 32
	.cfi_offset 13, -32
	pushq	%r12
	.cfi_def_cfa_offset 40
	.cfi_offset 12, -40
	pushq	%rbp
	.cfi_def_cfa_offset 48
	.cfi_offset 6, -48
	pushq	%rbx
	.cfi_def_cfa_offset 56
	.cfi_offset 3, -56
	subq	$72, %rsp
	.cfi_def_cfa_offset 128
	movl	64(%rdi), %r12d
	movq	%fs:40, %rax
	movq	%rax, 56(%rsp)
	movq	_ZTVN7asiopal13SocketChannelE@GOTPCREL(%rip), %rax
	addq	$16, %rax
	movq	%rax, (%rdi)
	cmpl	$-1, %r12d
	jne	.L697
.L568:
	movq	_ZTVN7asiopal13IAsyncChannelE@GOTPCREL(%rip), %rax
	movq	48(%r15), %rbp
	addq	$16, %rax
	movq	%rax, (%r15)
	testq	%rbp, %rbp
	je	.L616
	movq	__libc_single_threaded@GOTPCREL(%rip), %rbx
	cmpb	$0, (%rbx)
	je	.L617
	movl	8(%rbp), %eax
	leal	-1(%rax), %edx
	movl	%edx, 8(%rbp)
.L618:
	cmpl	$1, %eax
	je	.L698
.L616:
	movq	32(%r15), %rbp
	testq	%rbp, %rbp
	je	.L623
	movq	__libc_single_threaded@GOTPCREL(%rip), %rbx
	cmpb	$0, (%rbx)
	je	.L624
	movl	8(%rbp), %eax
	leal	-1(%rax), %edx
	movl	%edx, 8(%rbp)
.L625:
	cmpl	$1, %eax
	je	.L699
.L623:
	movq	16(%r15), %rdi
	testq	%rdi, %rdi
	je	.L567
	movq	__libc_single_threaded@GOTPCREL(%rip), %rax
	cmpb	$0, (%rax)
	je	.L631
	movl	12(%rdi), %eax
	leal	-1(%rax), %edx
	movl	%edx, 12(%rdi)
.L632:
	cmpl	$1, %eax
	je	.L700
.L567:
	movq	56(%rsp), %rax
	subq	%fs:40, %rax
	jne	.L692
	addq	$72, %rsp
	.cfi_remember_state
	.cfi_def_cfa_offset 56
	popq	%rbx
	.cfi_def_cfa_offset 48
	popq	%rbp
	.cfi_def_cfa_offset 40
	popq	%r12
	.cfi_def_cfa_offset 32
	popq	%r13
	.cfi_def_cfa_offset 24
	popq	%r14
	.cfi_def_cfa_offset 16
	popq	%r15
	.cfi_def_cfa_offset 8
	ret
	.p2align 4,,10
	.p2align 3
.L697:
	.cfi_restore_state
	movq	72(%rdi), %rbp
	testq	%rbp, %rbp
	je	.L598
	movq	88(%rdi), %rax
	movzbl	68(%rdi), %ebx
	movq	40(%rax), %rax
	movq	%rax, 16(%rsp)
	leaq	40(%rbp), %rax
	movq	%rax, %rdi
	movq	%rax, 24(%rsp)
	call	pthread_mutex_lock@PLT
	movq	72(%r15), %rdi
	cmpb	$0, 144(%rdi)
	jne	.L570
	andl	$64, %ebx
	jne	.L701
.L571:
	movq	$0, 8(%rsp)
	xorl	%ebp, %ebp
	movl	$0, 4(%rsp)
.L572:
	movslq	4(%rsp), %r12
	movq	%r12, %rax
	salq	$4, %rax
	movq	96(%rax,%rdi), %rbx
	testq	%rbx, %rbx
	je	.L638
	movq	_ZGVZN4asio15system_categoryEvE8instance@GOTPCREL(%rip), %r14
	movq	_ZZN4asio15system_categoryEvE8instance@GOTPCREL(%rip), %r13
	movzbl	(%r14), %eax
	testb	%al, %al
	je	.L702
	.p2align 4,,10
	.p2align 3
.L574:
	movq	72(%r15), %rdi
	movq	%r12, %rax
	movl	$125, 24(%rbx)
	salq	$4, %rax
	movq	%r13, 32(%rbx)
	addq	%rdi, %rax
	movq	96(%rax), %rdx
	testq	%rdx, %rdx
	je	.L576
	movq	(%rdx), %r11
	movq	%r11, 96(%rax)
	testq	%r11, %r11
	je	.L703
	movq	$0, (%rdx)
	movq	$0, (%rbx)
	testq	%rbp, %rbp
	je	.L704
.L635:
	movq	%rbx, 0(%rbp)
	testq	%r11, %r11
	je	.L578
.L579:
	movzbl	(%r14), %eax
	movq	%rbx, %rbp
	movq	%r11, %rbx
	testb	%al, %al
	jne	.L574
.L702:
	movq	%r14, %rdi
	call	__cxa_guard_acquire@PLT
	testl	%eax, %eax
	je	.L574
	movq	_ZN4asio6detail15system_categoryD1Ev@GOTPCREL(%rip), %rdi
	leaq	__dso_handle(%rip), %rdx
	movq	%r13, %rsi
	call	__cxa_atexit@PLT
	movq	%r14, %rdi
	call	__cxa_guard_release@PLT
	jmp	.L574
	.p2align 4,,10
	.p2align 3
.L570:
	movq	24(%rsp), %rdi
	call	pthread_mutex_unlock@PLT
.L690:
	movl	64(%r15), %r12d
	cmpl	$-1, %r12d
	je	.L568
.L598:
	call	__errno_location@PLT
	movzbl	68(%r15), %ebp
	movq	%rax, %rbx
	testb	$8, %bpl
	jne	.L688
	movq	_ZGVZN4asio15system_categoryEvE8instance@GOTPCREL(%rip), %r14
.L600:
	movl	$0, (%rbx)
	movl	%r12d, %edi
	call	close@PLT
	movl	%eax, %ebp
	movzbl	(%r14), %eax
	testb	%al, %al
	je	.L705
.L605:
	movl	(%rbx), %r13d
	testl	%ebp, %ebp
	je	.L568
	movzbl	(%r14), %eax
	testb	%al, %al
	je	.L706
.L609:
	cmpl	$11, %r13d
	je	.L611
.L696:
	movzbl	(%r14), %eax
	testb	%al, %al
	jne	.L568
	movq	%r14, %rdi
	call	__cxa_guard_acquire@PLT
	testl	%eax, %eax
	je	.L568
	movq	_ZZN4asio15system_categoryEvE8instance@GOTPCREL(%rip), %rsi
	movq	_ZN4asio6detail15system_categoryD1Ev@GOTPCREL(%rip), %rdi
	leaq	__dso_handle(%rip), %rdx
	call	__cxa_atexit@PLT
	movq	%r14, %rdi
	call	__cxa_guard_release@PLT
	jmp	.L568
	.p2align 4,,10
	.p2align 3
.L698:
	movq	0(%rbp), %rax
	movq	%rbp, %rdi
	call	*16(%rax)
	cmpb	$0, (%rbx)
	je	.L620
	movl	12(%rbp), %eax
	leal	-1(%rax), %edx
	movl	%edx, 12(%rbp)
.L621:
	cmpl	$1, %eax
	jne	.L616
	movq	0(%rbp), %rax
	movq	%rbp, %rdi
	call	*24(%rax)
	jmp	.L616
	.p2align 4,,10
	.p2align 3
.L699:
	movq	0(%rbp), %rax
	movq	%rbp, %rdi
	call	*16(%rax)
	cmpb	$0, (%rbx)
	je	.L627
	movl	12(%rbp), %eax
	leal	-1(%rax), %edx
	movl	%edx, 12(%rbp)
.L628:
	cmpl	$1, %eax
	jne	.L623
	movq	0(%rbp), %rax
	movq	%rbp, %rdi
	call	*24(%rax)
	jmp	.L623
	.p2align 4,,10
	.p2align 3
.L700:
	movq	56(%rsp), %rax
	subq	%fs:40, %rax
	jne	.L692
	movq	(%rdi), %rax
	movq	24(%rax), %rax
	addq	$72, %rsp
	.cfi_remember_state
	.cfi_def_cfa_offset 56
	popq	%rbx
	.cfi_def_cfa_offset 48
	popq	%rbp
	.cfi_def_cfa_offset 40
	popq	%r12
	.cfi_def_cfa_offset 32
	popq	%r13
	.cfi_def_cfa_offset 24
	popq	%r14
	.cfi_def_cfa_offset 16
	popq	%r15
	.cfi_def_cfa_offset 8
	jmp	*%rax
	.p2align 4,,10
	.p2align 3
.L631:
	.cfi_restore_state
	movl	$-1, %eax
	lock xaddl	%eax, 12(%rdi)
	jmp	.L632
	.p2align 4,,10
	.p2align 3
.L617:
	movl	$-1, %eax
	lock xaddl	%eax, 8(%rbp)
	jmp	.L618
	.p2align 4,,10
	.p2align 3
.L624:
	movl	$-1, %eax
	lock xaddl	%eax, 8(%rbp)
	jmp	.L625
	.p2align 4,,10
	.p2align 3
.L576:
	movq	$0, (%rbx)
	testq	%rbp, %rbp
	je	.L639
	movq	%rbx, 0(%rbp)
.L578:
	addl	$1, 4(%rsp)
	movl	4(%rsp), %eax
	cmpl	$3, %eax
	je	.L580
.L707:
	movq	%rbx, %rbp
	jmp	.L572
	.p2align 4,,10
	.p2align 3
.L703:
	movq	$0, 104(%rax)
	movq	$0, (%rdx)
	movq	$0, (%rbx)
	testq	%rbp, %rbp
	jne	.L635
	.p2align 4,,10
	.p2align 3
.L639:
	addl	$1, 4(%rsp)
	movl	4(%rsp), %eax
	movq	%rbx, 8(%rsp)
	cmpl	$3, %eax
	jne	.L707
.L580:
	movl	$-1, 88(%rdi)
	movb	$1, 144(%rdi)
	movq	24(%rsp), %rdi
	call	pthread_mutex_unlock@PLT
	movq	16(%rsp), %r14
	movq	72(%r15), %rbp
	leaq	120(%r14), %r12
	movq	%r12, %rdi
	call	pthread_mutex_lock@PLT
	cmpq	160(%r14), %rbp
	je	.L708
.L582:
	movq	32(%rbp), %rax
	testq	%rax, %rax
	je	.L583
	movq	24(%rbp), %rdx
	movq	%rdx, 24(%rax)
.L583:
	movq	24(%rbp), %rax
	testq	%rax, %rax
	je	.L584
	movq	32(%rbp), %rdx
	movq	%rdx, 32(%rax)
.L584:
	movq	16(%rsp), %r14
	movq	%r12, %rdi
	movq	168(%r14), %rax
	movq	$0, 32(%rbp)
	movq	%rax, 24(%rbp)
	movq	%rbp, 168(%r14)
	call	pthread_mutex_unlock@PLT
	cmpq	$0, 8(%rsp)
	movq	$0, 72(%r15)
	je	.L690
	movq	40(%r14), %rbp
	cmpb	$0, 40(%rbp)
	je	.L586
	data16	leaq	_ZN4asio6detail15keyword_tss_ptrINS0_10call_stackINS0_15task_io_serviceENS0_27task_io_service_thread_infoEE7contextEE6value_E@tlsgd(%rip), %rdi
	.value	0x6666
	rex64
	call	__tls_get_addr@PLT
	movq	(%rax), %rax
	testq	%rax, %rax
	jne	.L589
	jmp	.L586
	.p2align 4,,10
	.p2align 3
.L587:
	movq	16(%rax), %rax
	testq	%rax, %rax
	je	.L586
.L589:
	cmpq	(%rax), %rbp
	jne	.L587
	movq	8(%rax), %rax
	testq	%rax, %rax
	je	.L586
	movq	16(%rax), %rdx
	testq	%rdx, %rdx
	je	.L590
	movq	8(%rsp), %rsi
	movq	%rsi, (%rdx)
.L591:
	movq	%rbx, 16(%rax)
	jmp	.L690
	.p2align 4,,10
	.p2align 3
.L704:
	movq	%rbx, 8(%rsp)
	jmp	.L579
	.p2align 4,,10
	.p2align 3
.L705:
	movq	%r14, %rdi
	call	__cxa_guard_acquire@PLT
	testl	%eax, %eax
	je	.L605
	movq	_ZZN4asio15system_categoryEvE8instance@GOTPCREL(%rip), %rsi
	movq	_ZN4asio6detail15system_categoryD1Ev@GOTPCREL(%rip), %rdi
	leaq	__dso_handle(%rip), %rdx
	call	__cxa_atexit@PLT
	movq	%r14, %rdi
	call	__cxa_guard_release@PLT
	jmp	.L605
	.p2align 4,,10
	.p2align 3
.L688:
	orl	$8, %ebp
	leaq	40(%rsp), %rcx
	movl	$13, %edx
	movl	%r12d, %edi
	movb	%bpl, 68(%r15)
	movl	$8, %r8d
	movl	$1, %esi
	movl	$0, (%rax)
	movq	$0, 40(%rsp)
	call	setsockopt@PLT
	movq	_ZGVZN4asio15system_categoryEvE8instance@GOTPCREL(%rip), %r14
	movzbl	(%r14), %eax
	testb	%al, %al
	jne	.L600
	movq	%r14, %rdi
	call	__cxa_guard_acquire@PLT
	testl	%eax, %eax
	je	.L600
	movq	_ZZN4asio15system_categoryEvE8instance@GOTPCREL(%rip), %rsi
	movq	_ZN4asio6detail15system_categoryD1Ev@GOTPCREL(%rip), %rdi
	leaq	__dso_handle(%rip), %rdx
	call	__cxa_atexit@PLT
	movq	%r14, %rdi
	call	__cxa_guard_release@PLT
	jmp	.L600
	.p2align 4,,10
	.p2align 3
.L586:
	leaq	48(%rbp), %r12
	movq	%r12, %rdi
	call	pthread_mutex_lock@PLT
	movq	200(%rbp), %rax
	testq	%rax, %rax
	je	.L593
	movq	8(%rsp), %rcx
	movq	%rcx, (%rax)
.L594:
	movq	136(%rbp), %rax
	movq	%rbx, 200(%rbp)
	orq	$1, %rax
	movq	%rax, 136(%rbp)
	cmpq	$1, %rax
	je	.L595
	movq	%r12, %rdi
	call	pthread_mutex_unlock@PLT
	leaq	88(%rbp), %rdi
	call	pthread_cond_signal@PLT
	jmp	.L690
.L595:
	cmpb	$0, 176(%rbp)
	jne	.L597
	movq	144(%rbp), %rax
	testq	%rax, %rax
	je	.L597
	movb	$1, 176(%rbp)
	leaq	88(%rax), %rdx
	leaq	40(%rsp), %rcx
	movl	$3, %esi
	movq	%rdx, 44(%rsp)
	movl	88(%rax), %edx
	movl	$-2147483639, 40(%rsp)
	movl	96(%rax), %edi
	call	epoll_ctl@PLT
.L597:
	movq	%r12, %rdi
	call	pthread_mutex_unlock@PLT
	jmp	.L690
	.p2align 4,,10
	.p2align 3
.L620:
	movl	$-1, %eax
	lock xaddl	%eax, 12(%rbp)
	jmp	.L621
	.p2align 4,,10
	.p2align 3
.L627:
	movl	$-1, %eax
	lock xaddl	%eax, 12(%rbp)
	jmp	.L628
	.p2align 4,,10
	.p2align 3
.L701:
	movq	16(%rsp), %rax
	movl	$0, 40(%rsp)
	leaq	40(%rsp), %rcx
	movl	%r12d, %edx
	movq	$0, 44(%rsp)
	movl	$2, %esi
	movl	96(%rax), %edi
	call	epoll_ctl@PLT
	movq	72(%r15), %rdi
	jmp	.L571
	.p2align 4,,10
	.p2align 3
.L638:
	movq	%rbp, %rbx
	jmp	.L578
	.p2align 4,,10
	.p2align 3
.L708:
	movq	24(%rbp), %rax
	movq	16(%rsp), %rcx
	movq	%rax, 160(%rcx)
	jmp	.L582
.L706:
	movq	%r14, %rdi
	call	__cxa_guard_acquire@PLT
	testl	%eax, %eax
	je	.L609
	movq	_ZZN4asio15system_categoryEvE8instance@GOTPCREL(%rip), %rsi
	movq	_ZN4asio6detail15system_categoryD1Ev@GOTPCREL(%rip), %rdi
	leaq	__dso_handle(%rip), %rdx
	call	__cxa_atexit@PLT
	movq	%r14, %rdi
	call	__cxa_guard_release@PLT
	jmp	.L609
.L611:
	movl	%r12d, %edi
	leaq	40(%rsp), %rdx
	movl	$21537, %esi
	xorl	%eax, %eax
	movl	$0, 40(%rsp)
	call	ioctl@PLT
	andb	$-4, 68(%r15)
	movl	%r12d, %edi
	movl	$0, (%rbx)
	call	close@PLT
	jmp	.L696
.L593:
	movq	8(%rsp), %rax
	movq	%rax, 192(%rbp)
	jmp	.L594
.L590:
	movq	8(%rsp), %rcx
	movq	%rcx, 8(%rax)
	jmp	.L591
.L692:
	call	__stack_chk_fail@PLT
	.cfi_endproc
.LFE9452:
	.section	.gcc_except_table
.LLSDA9452:
	.byte	0xff
	.byte	0xff
	.byte	0x1
	.uleb128 .LLSDACSE9452-.LLSDACSB9452
.LLSDACSB9452:
.LLSDACSE9452:
	.section	.text._ZN7asiopal13SocketChannelD2Ev,"axG",@progbits,_ZN7asiopal13SocketChannelD5Ev,comdat
	.size	_ZN7asiopal13SocketChannelD2Ev, .-_ZN7asiopal13SocketChannelD2Ev
	.weak	_ZN7asiopal13SocketChannelD1Ev
	.set	_ZN7asiopal13SocketChannelD1Ev,_ZN7asiopal13SocketChannelD2Ev
	.section	.text._ZN4asio6detail15task_io_service25post_immediate_completionEPNS0_25task_io_service_operationEb,"axG",@progbits,_ZN4asio6detail15task_io_service25post_immediate_completionEPNS0_25task_io_service_operationEb,comdat
	.align 2
	.p2align 4
	.weak	_ZN4asio6detail15task_io_service25post_immediate_completionEPNS0_25task_io_service_operationEb
	.type	_ZN4asio6detail15task_io_service25post_immediate_completionEPNS0_25task_io_service_operationEb, @function
_ZN4asio6detail15task_io_service25post_immediate_completionEPNS0_25task_io_service_operationEb:
.LFB3372:
	.cfi_startproc
	endbr64
	pushq	%r12
	.cfi_def_cfa_offset 16
	.cfi_offset 12, -16
	movq	%rsi, %xmm0
	pushq	%rbp
	.cfi_def_cfa_offset 24
	.cfi_offset 6, -24
	punpcklqdq	%xmm0, %xmm0
	movq	%rsi, %rbp
	pushq	%rbx
	.cfi_def_cfa_offset 32
	.cfi_offset 3, -32
	movq	%rdi, %rbx
	subq	$48, %rsp
	.cfi_def_cfa_offset 80
	movq	%fs:40, %rax
	movq	%rax, 40(%rsp)
	xorl	%eax, %eax
	cmpb	$0, 40(%rdi)
	movaps	%xmm0, (%rsp)
	jne	.L724
	testb	%dl, %dl
	je	.L710
.L724:
	data16	leaq	_ZN4asio6detail15keyword_tss_ptrINS0_10call_stackINS0_15task_io_serviceENS0_27task_io_service_thread_infoEE7contextEE6value_E@tlsgd(%rip), %rdi
	.value	0x6666
	rex64
	call	__tls_get_addr@PLT
	movq	(%rax), %rax
	testq	%rax, %rax
	jne	.L714
	jmp	.L710
	.p2align 4,,10
	.p2align 3
.L712:
	movq	16(%rax), %rax
	testq	%rax, %rax
	je	.L710
.L714:
	cmpq	(%rax), %rbx
	jne	.L712
	movq	8(%rax), %rax
	testq	%rax, %rax
	je	.L710
	addq	$1, 24(%rax)
	movq	$0, 0(%rbp)
	movq	16(%rax), %rdx
	testq	%rdx, %rdx
	je	.L715
	movq	%rbp, (%rdx)
	movq	%rbp, 16(%rax)
.L709:
	movq	40(%rsp), %rax
	subq	%fs:40, %rax
	jne	.L734
	addq	$48, %rsp
	.cfi_remember_state
	.cfi_def_cfa_offset 32
	popq	%rbx
	.cfi_def_cfa_offset 24
	popq	%rbp
	.cfi_def_cfa_offset 16
	popq	%r12
	.cfi_def_cfa_offset 8
	ret
	.p2align 4,,10
	.p2align 3
.L710:
	.cfi_restore_state
	lock addq	$1, 184(%rbx)
	leaq	48(%rbx), %r12
	movq	%r12, %rdi
	call	pthread_mutex_lock@PLT
	cmpq	$0, 200(%rbx)
	movq	$0, 0(%rbp)
	je	.L717
	movq	200(%rbx), %rax
	movq	%rbp, (%rax)
	movq	%rbp, 200(%rbx)
.L718:
	movq	136(%rbx), %rax
	orq	$1, %rax
	movq	%rax, 136(%rbx)
	cmpq	$1, %rax
	je	.L719
	movq	%r12, %rdi
	call	pthread_mutex_unlock@PLT
	movq	40(%rsp), %rax
	subq	%fs:40, %rax
	jne	.L734
	addq	$48, %rsp
	.cfi_remember_state
	.cfi_def_cfa_offset 32
	leaq	88(%rbx), %rdi
	popq	%rbx
	.cfi_def_cfa_offset 24
	popq	%rbp
	.cfi_def_cfa_offset 16
	popq	%r12
	.cfi_def_cfa_offset 8
	jmp	pthread_cond_signal@PLT
	.p2align 4,,10
	.p2align 3
.L719:
	.cfi_restore_state
	cmpb	$0, 176(%rbx)
	jne	.L721
	movq	144(%rbx), %rax
	testq	%rax, %rax
	je	.L721
	leaq	88(%rax), %rdx
	movb	$1, 176(%rbx)
	movl	96(%rax), %edi
	leaq	28(%rsp), %rcx
	movq	%rdx, 32(%rsp)
	movl	88(%rax), %edx
	movl	$3, %esi
	movl	$-2147483639, 28(%rsp)
	call	epoll_ctl@PLT
.L721:
	movq	40(%rsp), %rax
	subq	%fs:40, %rax
	jne	.L734
	addq	$48, %rsp
	.cfi_remember_state
	.cfi_def_cfa_offset 32
	movq	%r12, %rdi
	popq	%rbx
	.cfi_def_cfa_offset 24
	popq	%rbp
	.cfi_def_cfa_offset 16
	popq	%r12
	.cfi_def_cfa_offset 8
	jmp	pthread_mutex_unlock@PLT
	.p2align 4,,10
	.p2align 3
.L717:
	.cfi_restore_state
	movdqa	(%rsp), %xmm1
	movups	%xmm1, 192(%rbx)
	jmp	.L718
	.p2align 4,,10
	.p2align 3
.L715:
	movdqa	(%rsp), %xmm2
	movups	%xmm2, 8(%rax)
	jmp	.L709
.L734:
	call	__stack_chk_fail@PLT
	.cfi_endproc
.LFE3372:
	.size	_ZN4asio6detail15task_io_service25post_immediate_completionEPNS0_25task_io_service_operationEb, .-_ZN4asio6detail15task_io_service25post_immediate_completionEPNS0_25task_io_service_operationEb
	.section	.text.unlikely
	.align 2
.LCOLDB25:
	.text
.LHOTB25:
	.align 2
	.p2align 4
	.globl	_ZN7asiopal13SocketChannel13BeginReadImplEN7openpal6WSliceE
	.type	_ZN7asiopal13SocketChannel13BeginReadImplEN7openpal6WSliceE, @function
_ZN7asiopal13SocketChannel13BeginReadImplEN7openpal6WSliceE:
.LFB7051:
	.cfi_startproc
	.cfi_personality 0x9b,DW.ref.__gxx_personality_v0
	.cfi_lsda 0x1b,.LLSDA7051
	endbr64
	pushq	%r15
	.cfi_def_cfa_offset 16
	.cfi_offset 15, -16
	pushq	%r14
	.cfi_def_cfa_offset 24
	.cfi_offset 14, -24
	movq	%rdx, %r14
	pushq	%r13
	.cfi_def_cfa_offset 32
	.cfi_offset 13, -32
	movl	%esi, %r13d
	pushq	%r12
	.cfi_def_cfa_offset 40
	.cfi_offset 12, -40
	movq	%rdi, %r12
	pushq	%rbp
	.cfi_def_cfa_offset 48
	.cfi_offset 6, -48
	pushq	%rbx
	.cfi_def_cfa_offset 56
	.cfi_offset 3, -56
	subq	$136, %rsp
	.cfi_def_cfa_offset 192
	movq	%fs:40, %rax
	movq	%rax, 120(%rsp)
	movq	24(%rdi), %rax
	movq	%rdi, 96(%rsp)
	movdqu	40(%rax), %xmm0
	movq	88(%rdi), %rax
	movhlps	%xmm0, %xmm2
	movq	%rax, 16(%rsp)
	movq	%xmm2, %rbp
	movaps	%xmm0, 80(%rsp)
	data16	leaq	_ZN4asio6detail15keyword_tss_ptrINS0_10call_stackINS0_14strand_service11strand_implEhE7contextEE6value_E@tlsgd(%rip), %rdi
	.value	0x6666
	rex64
	call	__tls_get_addr@PLT
	movq	(%rax), %rbx
	testq	%rbx, %rbx
	jne	.L738
	jmp	.L736
	.p2align 4,,10
	.p2align 3
.L737:
	movq	16(%rbx), %rbx
	testq	%rbx, %rbx
	je	.L736
.L738:
	cmpq	%rbp, (%rbx)
	jne	.L737
	movq	8(%rbx), %rbx
.L736:
	pxor	%xmm0, %xmm0
	leaq	80(%rsp), %rax
	movq	%rax, 48(%rsp)
	movups	%xmm0, 56(%rsp)
	data16	leaq	_ZN4asio6detail15keyword_tss_ptrINS0_10call_stackINS0_15task_io_serviceENS0_27task_io_service_thread_infoEE7contextEE6value_E@tlsgd(%rip), %rdi
	.value	0x6666
	rex64
	call	__tls_get_addr@PLT
	movq	(%rax), %rax
	testq	%rax, %rax
	je	.L739
	movq	8(%rax), %rax
	testq	%rax, %rax
	je	.L739
	movq	(%rax), %rbp
	testq	%rbp, %rbp
	je	.L739
	movq	$0, (%rax)
	movzbl	0(%rbp), %eax
	cmpb	$111, %al
	jbe	.L740
	movb	%al, 112(%rbp)
	jmp	.L741
	.p2align 4,,10
	.p2align 3
.L740:
	movq	%rbp, %rdi
	call	_ZdlPv@PLT
.L739:
	movl	$113, %edi
.LEHB4:
	call	_Znwm@PLT
.LEHE4:
	movb	$112, 112(%rax)
	movq	%rax, %rbp
.L741:
	movzbl	68(%r12), %edx
	movl	64(%r12), %r15d
	movq	%rbp, 56(%rsp)
	leaq	_ZN4asio6detail23reactive_socket_recv_opINS_17mutable_buffers_1ENS0_15wrapped_handlerINS_10io_service6strandEZN7asiopal13SocketChannel13BeginReadImplEN7openpal6WSliceEEUlRKSt10error_codemE_NS0_26is_continuation_if_runningEEEE11do_completeEPNS0_15task_io_serviceEPNS0_25task_io_service_operationESC_m(%rip), %rax
	movq	$0, 0(%rbp)
	movq	%rax, 8(%rbp)
	movl	$0, 16(%rbp)
	movl	$0, 24(%rbp)
	movb	%dl, (%rsp)
	call	_ZNSt3_V215system_categoryEv@PLT
	movzbl	(%rsp), %edx
	movdqa	80(%rsp), %xmm3
	movq	$0, 40(%rbp)
	movq	%rax, 32(%rbp)
	movq	%rax, %rcx
	movq	_ZN4asio6detail28reactive_socket_recv_op_baseINS_17mutable_buffers_1EE10do_performEPNS0_10reactor_opE@GOTPCREL(%rip), %rax
	movl	%r15d, 56(%rbp)
	movq	%rax, 48(%rbp)
	movq	96(%rsp), %rax
	movb	%dl, 60(%rbp)
	movq	%r14, 64(%rbp)
	movq	%r13, 72(%rbp)
	movl	$0, 80(%rbp)
	movq	%rax, 104(%rbp)
	movq	%rbp, 64(%rsp)
	movups	%xmm3, 88(%rbp)
	testb	$16, %dl
	je	.L812
	testq	%r13, %r13
	je	.L742
.L812:
	andl	$3, %edx
	jne	.L744
	cmpl	$-1, %r15d
	je	.L901
	movq	%rcx, (%rsp)
	call	__errno_location@PLT
	movl	%r15d, %edi
	leaq	36(%rsp), %rdx
	movl	$21537, %esi
	movl	$0, (%rax)
	movq	%rax, %r14
	xorl	%eax, %eax
	movl	$1, 36(%rsp)
	call	ioctl@PLT
	movq	_ZGVZN4asio15system_categoryEvE8instance@GOTPCREL(%rip), %r13
	movl	%eax, %r15d
	movzbl	0(%r13), %eax
	testb	%al, %al
	movq	(%rsp), %rcx
	je	.L749
.L881:
	movq	_ZZN4asio15system_categoryEvE8instance@GOTPCREL(%rip), %rsi
.L750:
	movl	(%r14), %eax
	movq	%rsi, 32(%rbp)
	movl	%eax, 24(%rbp)
	testl	%r15d, %r15d
	jns	.L902
.L742:
	movq	16(%rsp), %rax
	movq	%rbp, %xmm1
	punpcklqdq	%xmm1, %xmm1
	movq	40(%rax), %rax
	movaps	%xmm1, (%rsp)
	movq	40(%rax), %r12
	cmpb	$0, 40(%r12)
	jne	.L816
	testq	%rbx, %rbx
	je	.L799
.L816:
	data16	leaq	_ZN4asio6detail15keyword_tss_ptrINS0_10call_stackINS0_15task_io_serviceENS0_27task_io_service_thread_infoEE7contextEE6value_E@tlsgd(%rip), %rdi
	.value	0x6666
	rex64
	call	__tls_get_addr@PLT
	movq	(%rax), %rax
	testq	%rax, %rax
	jne	.L803
	jmp	.L799
	.p2align 4,,10
	.p2align 3
.L801:
	movq	16(%rax), %rax
	testq	%rax, %rax
	je	.L799
.L803:
	cmpq	(%rax), %r12
	jne	.L801
.L900:
	movq	8(%rax), %rax
	testq	%rax, %rax
	je	.L799
	addq	$1, 24(%rax)
	movq	$0, 0(%rbp)
	movq	16(%rax), %rdx
	testq	%rdx, %rdx
	je	.L804
	movq	%rbp, (%rdx)
	movq	%rbp, 16(%rax)
	jmp	.L735
	.p2align 4,,10
	.p2align 3
.L902:
	movl	$0, 24(%rbp)
	movl	64(%r12), %r15d
	movq	%rcx, 32(%rbp)
	orb	$2, 68(%r12)
.L744:
	movq	16(%rsp), %rax
	movq	72(%r12), %r13
	movq	40(%rax), %r14
	testq	%r13, %r13
	je	.L903
	addq	$40, %r13
	movq	%r13, %rdi
	call	pthread_mutex_lock@PLT
	movq	72(%r12), %rax
	cmpb	$0, 144(%rax)
	jne	.L904
	cmpq	$0, 96(%rax)
	je	.L905
.L782:
	movq	104(%rax), %rdx
	movq	%rbp, %xmm0
	movq	$0, 0(%rbp)
	punpcklqdq	%xmm0, %xmm0
	testq	%rdx, %rdx
	je	.L796
	movq	%rbp, (%rdx)
	movq	%rbp, 104(%rax)
.L797:
	movq	40(%r14), %rax
	lock addq	$1, 184(%rax)
	movq	%r13, %rdi
	call	pthread_mutex_unlock@PLT
	jmp	.L735
.L903:
	movq	_ZGVZN4asio15system_categoryEvE8instance@GOTPCREL(%rip), %r12
	movq	%rbp, %xmm4
	punpcklqdq	%xmm4, %xmm4
	movaps	%xmm4, (%rsp)
	movzbl	(%r12), %eax
	testb	%al, %al
	je	.L754
.L882:
	movq	_ZZN4asio15system_categoryEvE8instance@GOTPCREL(%rip), %rsi
.L755:
	movq	40(%r14), %r12
	movl	$9, 24(%rbp)
	movq	%rsi, 32(%rbp)
	cmpb	$0, 40(%r12)
	jne	.L813
	testq	%rbx, %rbx
	jne	.L813
	.p2align 4,,10
	.p2align 3
.L799:
	lock addq	$1, 184(%r12)
	leaq	48(%r12), %r13
	movq	%r13, %rdi
	call	pthread_mutex_lock@PLT
	movq	$0, 0(%rbp)
	cmpq	$0, 200(%r12)
	je	.L805
	movq	200(%r12), %rax
	movq	%rbp, (%rax)
	movq	%rbp, 200(%r12)
.L806:
	movq	136(%r12), %rax
	orq	$1, %rax
	movq	%rax, 136(%r12)
	cmpq	$1, %rax
	je	.L807
	movq	%r13, %rdi
	call	pthread_mutex_unlock@PLT
	leaq	88(%r12), %rdi
	call	pthread_cond_signal@PLT
	.p2align 4,,10
	.p2align 3
.L735:
	movq	120(%rsp), %rax
	subq	%fs:40, %rax
	jne	.L906
	addq	$136, %rsp
	.cfi_remember_state
	.cfi_def_cfa_offset 56
	popq	%rbx
	.cfi_def_cfa_offset 48
	popq	%rbp
	.cfi_def_cfa_offset 40
	popq	%r12
	.cfi_def_cfa_offset 32
	popq	%r13
	.cfi_def_cfa_offset 24
	popq	%r14
	.cfi_def_cfa_offset 16
	popq	%r15
	.cfi_def_cfa_offset 8
	ret
	.p2align 4,,10
	.p2align 3
.L807:
	.cfi_restore_state
	cmpb	$0, 176(%r12)
	jne	.L776
	movq	144(%r12), %rax
	testq	%rax, %rax
	je	.L776
	leaq	88(%rax), %rdx
	leaq	36(%rsp), %rcx
	movl	$3, %esi
	movb	$1, 176(%r12)
	movl	$-2147483639, 36(%rsp)
	movq	%rdx, 40(%rsp)
	movl	88(%rax), %edx
	movl	96(%rax), %edi
	call	epoll_ctl@PLT
.L776:
	movq	%r13, %rdi
	call	pthread_mutex_unlock@PLT
	jmp	.L735
.L804:
	movdqa	(%rsp), %xmm7
	movups	%xmm7, 8(%rax)
	jmp	.L735
.L796:
	movups	%xmm0, 96(%rax)
	jmp	.L797
	.p2align 4,,10
	.p2align 3
.L749:
	movq	%r13, %rdi
	movq	%rcx, (%rsp)
	call	__cxa_guard_acquire@PLT
	movq	(%rsp), %rcx
	testl	%eax, %eax
	je	.L881
	movq	_ZZN4asio15system_categoryEvE8instance@GOTPCREL(%rip), %rsi
	movq	_ZN4asio6detail15system_categoryD1Ev@GOTPCREL(%rip), %rdi
	movq	%rcx, 24(%rsp)
	leaq	__dso_handle(%rip), %rdx
	movq	%rsi, (%rsp)
	call	__cxa_atexit@PLT
	movq	%r13, %rdi
	call	__cxa_guard_release@PLT
	movq	24(%rsp), %rcx
	movq	(%rsp), %rsi
	jmp	.L750
	.p2align 4,,10
	.p2align 3
.L805:
	movdqa	(%rsp), %xmm6
	movups	%xmm6, 192(%r12)
	jmp	.L806
.L813:
	data16	leaq	_ZN4asio6detail15keyword_tss_ptrINS0_10call_stackINS0_15task_io_serviceENS0_27task_io_service_thread_infoEE7contextEE6value_E@tlsgd(%rip), %rdi
	.value	0x6666
	rex64
	call	__tls_get_addr@PLT
	movq	(%rax), %rax
	testq	%rax, %rax
	jne	.L761
	jmp	.L799
	.p2align 4,,10
	.p2align 3
.L759:
	movq	16(%rax), %rax
	testq	%rax, %rax
	je	.L799
.L761:
	cmpq	(%rax), %r12
	jne	.L759
	jmp	.L900
.L904:
	movq	%rbp, %xmm5
	movq	40(%r14), %r12
	punpcklqdq	%xmm5, %xmm5
	movaps	%xmm5, (%rsp)
	testq	%rbx, %rbx
	jne	.L814
	cmpb	$0, 40(%r12)
	je	.L770
.L814:
	data16	leaq	_ZN4asio6detail15keyword_tss_ptrINS0_10call_stackINS0_15task_io_serviceENS0_27task_io_service_thread_infoEE7contextEE6value_E@tlsgd(%rip), %rdi
	.value	0x6666
	rex64
	call	__tls_get_addr@PLT
	movq	(%rax), %rax
	testq	%rax, %rax
	jne	.L774
	jmp	.L770
	.p2align 4,,10
	.p2align 3
.L772:
	movq	16(%rax), %rax
	testq	%rax, %rax
	je	.L770
.L774:
	cmpq	(%rax), %r12
	jne	.L772
	movq	8(%rax), %rax
	testq	%rax, %rax
	je	.L770
	addq	$1, 24(%rax)
	movq	$0, 0(%rbp)
	movq	16(%rax), %rdx
	testq	%rdx, %rdx
	je	.L775
	movq	%rbp, (%rdx)
	movq	%rbp, 16(%rax)
	jmp	.L776
.L901:
	movq	_ZGVZN4asio15system_categoryEvE8instance@GOTPCREL(%rip), %r12
	movzbl	(%r12), %eax
	testb	%al, %al
	je	.L746
.L880:
	movq	_ZZN4asio15system_categoryEvE8instance@GOTPCREL(%rip), %rsi
.L747:
	movl	$9, 24(%rbp)
	movq	%rsi, 32(%rbp)
	jmp	.L742
.L905:
	cmpq	$0, 128(%rax)
	je	.L907
	movl	92(%rax), %edx
	movq	%rax, 40(%rsp)
	leaq	36(%rsp), %rcx
	movl	$3, %esi
	movl	%edx, 36(%rsp)
	movl	96(%r14), %edi
	movl	%r15d, %edx
	call	epoll_ctl@PLT
.L883:
	movq	72(%r12), %rax
	jmp	.L782
.L754:
	movq	%r12, %rdi
	call	__cxa_guard_acquire@PLT
	testl	%eax, %eax
	je	.L882
	movq	_ZZN4asio15system_categoryEvE8instance@GOTPCREL(%rip), %rsi
	movq	_ZN4asio6detail15system_categoryD1Ev@GOTPCREL(%rip), %rdi
	leaq	__dso_handle(%rip), %rdx
	movq	%rsi, 16(%rsp)
	call	__cxa_atexit@PLT
	movq	%r12, %rdi
	call	__cxa_guard_release@PLT
	movq	16(%rsp), %rsi
	jmp	.L755
.L746:
	movq	%r12, %rdi
	call	__cxa_guard_acquire@PLT
	testl	%eax, %eax
	je	.L880
	movq	_ZZN4asio15system_categoryEvE8instance@GOTPCREL(%rip), %rsi
	movq	_ZN4asio6detail15system_categoryD1Ev@GOTPCREL(%rip), %rdi
	leaq	__dso_handle(%rip), %rdx
	movq	%rsi, (%rsp)
	call	__cxa_atexit@PLT
	movq	%r12, %rdi
	call	__cxa_guard_release@PLT
	movq	(%rsp), %rsi
	jmp	.L747
.L770:
	lock addq	$1, 184(%r12)
	leaq	48(%r12), %r14
	movq	%r14, %rdi
	call	pthread_mutex_lock@PLT
	movq	$0, 0(%rbp)
	cmpq	$0, 200(%r12)
	je	.L777
	movq	200(%r12), %rax
	movq	%rbp, (%rax)
	movq	%rbp, 200(%r12)
.L778:
	movq	136(%r12), %rax
	orq	$1, %rax
	movq	%rax, 136(%r12)
	cmpq	$1, %rax
	je	.L779
	movq	%r14, %rdi
	call	pthread_mutex_unlock@PLT
	leaq	88(%r12), %rdi
	call	pthread_cond_signal@PLT
	jmp	.L776
.L779:
	cmpb	$0, 176(%r12)
	jne	.L781
	movq	144(%r12), %rax
	testq	%rax, %rax
	je	.L781
	leaq	88(%rax), %rdx
	leaq	36(%rsp), %rcx
	movl	$3, %esi
	movb	$1, 176(%r12)
	movq	%rdx, 40(%rsp)
	movl	88(%rax), %edx
	movl	$-2147483639, 36(%rsp)
	movl	96(%rax), %edi
	call	epoll_ctl@PLT
.L781:
	movq	%r14, %rdi
	call	pthread_mutex_unlock@PLT
	jmp	.L776
.L907:
	movq	%rbp, %rdi
.LEHB5:
	call	*48(%rbp)
.LEHE5:
	testb	%al, %al
	je	.L883
	movq	%rbp, %xmm7
	movq	%r13, %rdi
	punpcklqdq	%xmm7, %xmm7
	movaps	%xmm7, (%rsp)
	call	pthread_mutex_unlock@PLT
	movq	40(%r14), %r12
	cmpb	$0, 40(%r12)
	jne	.L815
	testq	%rbx, %rbx
	je	.L799
.L815:
	data16	leaq	_ZN4asio6detail15keyword_tss_ptrINS0_10call_stackINS0_15task_io_serviceENS0_27task_io_service_thread_infoEE7contextEE6value_E@tlsgd(%rip), %rdi
	.value	0x6666
	rex64
	call	__tls_get_addr@PLT
	movq	(%rax), %rax
	testq	%rax, %rax
	jne	.L789
	jmp	.L799
	.p2align 4,,10
	.p2align 3
.L787:
	movq	16(%rax), %rax
	testq	%rax, %rax
	je	.L799
.L789:
	cmpq	(%rax), %r12
	jne	.L787
	jmp	.L900
.L777:
	movdqa	(%rsp), %xmm6
	movups	%xmm6, 192(%r12)
	jmp	.L778
.L775:
	movdqa	(%rsp), %xmm7
	movups	%xmm7, 8(%rax)
	jmp	.L776
.L906:
	call	__stack_chk_fail@PLT
.L811:
	endbr64
	movq	%rax, %rbp
	jmp	.L798
	.section	.gcc_except_table
.LLSDA7051:
	.byte	0xff
	.byte	0xff
	.byte	0x1
	.uleb128 .LLSDACSE7051-.LLSDACSB7051
.LLSDACSB7051:
	.uleb128 .LEHB4-.LFB7051
	.uleb128 .LEHE4-.LEHB4
	.uleb128 0
	.uleb128 0
	.uleb128 .LEHB5-.LFB7051
	.uleb128 .LEHE5-.LEHB5
	.uleb128 .L811-.LFB7051
	.uleb128 0
.LLSDACSE7051:
	.text
	.cfi_endproc
	.section	.text.unlikely
	.cfi_startproc
	.cfi_personality 0x9b,DW.ref.__gxx_personality_v0
	.cfi_lsda 0x1b,.LLSDAC7051
	.type	_ZN7asiopal13SocketChannel13BeginReadImplEN7openpal6WSliceE.cold, @function
_ZN7asiopal13SocketChannel13BeginReadImplEN7openpal6WSliceE.cold:
.LFSB7051:
.L798:
	.cfi_def_cfa_offset 192
	.cfi_offset 3, -56
	.cfi_offset 6, -48
	.cfi_offset 12, -40
	.cfi_offset 13, -32
	.cfi_offset 14, -24
	.cfi_offset 15, -16
	movq	%r13, %rdi
	call	pthread_mutex_unlock@PLT
	leaq	48(%rsp), %rdi
	call	_ZN4asio6detail23reactive_socket_recv_opINS_17mutable_buffers_1ENS0_15wrapped_handlerINS_10io_service6strandEZN7asiopal13SocketChannel13BeginReadImplEN7openpal6WSliceEEUlRKSt10error_codemE_NS0_26is_continuation_if_runningEEEE3ptr5resetEv
	movq	%rbp, %rdi
.LEHB6:
	call	_Unwind_Resume@PLT
.LEHE6:
	.cfi_endproc
.LFE7051:
	.section	.gcc_except_table
.LLSDAC7051:
	.byte	0xff
	.byte	0xff
	.byte	0x1
	.uleb128 .LLSDACSEC7051-.LLSDACSBC7051
.LLSDACSBC7051:
	.uleb128 .LEHB6-.LCOLDB25
	.uleb128 .LEHE6-.LEHB6
	.uleb128 0
	.uleb128 0
.LLSDACSEC7051:
	.section	.text.unlikely
	.text
	.size	_ZN7asiopal13SocketChannel13BeginReadImplEN7openpal6WSliceE, .-_ZN7asiopal13SocketChannel13BeginReadImplEN7openpal6WSliceE
	.section	.text.unlikely
	.size	_ZN7asiopal13SocketChannel13BeginReadImplEN7openpal6WSliceE.cold, .-_ZN7asiopal13SocketChannel13BeginReadImplEN7openpal6WSliceE.cold
.LCOLDE25:
	.text
.LHOTE25:
	.section	.text.unlikely
	.align 2
.LCOLDB26:
	.text
.LHOTB26:
	.align 2
	.p2align 4
	.globl	_ZN7asiopal13SocketChannel14BeginWriteImplERKN7openpal6RSliceE
	.type	_ZN7asiopal13SocketChannel14BeginWriteImplERKN7openpal6RSliceE, @function
_ZN7asiopal13SocketChannel14BeginWriteImplERKN7openpal6RSliceE:
.LFB7056:
	.cfi_startproc
	.cfi_personality 0x9b,DW.ref.__gxx_personality_v0
	.cfi_lsda 0x1b,.LLSDA7056
	endbr64
	pushq	%r15
	.cfi_def_cfa_offset 16
	.cfi_offset 15, -16
	pushq	%r14
	.cfi_def_cfa_offset 24
	.cfi_offset 14, -24
	leaq	64(%rdi), %r14
	pushq	%r13
	.cfi_def_cfa_offset 32
	.cfi_offset 13, -32
	movq	%r14, %xmm1
	pushq	%r12
	.cfi_def_cfa_offset 40
	.cfi_offset 12, -40
	pushq	%rbp
	.cfi_def_cfa_offset 48
	.cfi_offset 6, -48
	pushq	%rbx
	.cfi_def_cfa_offset 56
	.cfi_offset 3, -56
	movq	%rdi, %rbx
	subq	$200, %rsp
	.cfi_def_cfa_offset 256
	movl	(%rsi), %r12d
	movq	%fs:40, %rax
	movq	%rax, 184(%rsp)
	movq	24(%rdi), %rax
	movdqu	40(%rax), %xmm0
	movq	8(%rsi), %rax
	movq	%rax, (%rsp)
	movhlps	%xmm0, %xmm3
	movaps	%xmm0, 32(%rsp)
	movq	%xmm3, %rbp
	movhps	(%rsp), %xmm1
	movaps	%xmm1, 16(%rsp)
	call	_ZNSt3_V215system_categoryEv@PLT
	movdqa	16(%rsp), %xmm1
	movdqa	32(%rsp), %xmm0
	movq	%r12, 128(%rsp)
	movq	%rax, %r13
	movl	$65536, %eax
	movl	$1, 136(%rsp)
	cmpq	%rax, %r12
	movq	%rbx, 168(%rsp)
	cmovbe	%r12, %rax
	movaps	%xmm1, 112(%rsp)
	movq	$0, 144(%rsp)
	movq	%rax, 48(%rsp)
	movq	88(%rbx), %rax
	movups	%xmm0, 152(%rsp)
	movq	%rax, 56(%rsp)
	data16	leaq	_ZN4asio6detail15keyword_tss_ptrINS0_10call_stackINS0_14strand_service11strand_implEhE7contextEE6value_E@tlsgd(%rip), %rdi
	.value	0x6666
	rex64
	call	__tls_get_addr@PLT
	movq	(%rax), %rax
	testq	%rax, %rax
	jne	.L911
	jmp	.L985
	.p2align 4,,10
	.p2align 3
.L910:
	movq	16(%rax), %rax
	testq	%rax, %rax
	je	.L985
.L911:
	cmpq	%rbp, (%rax)
	jne	.L910
	cmpq	$0, 8(%rax)
	setne	16(%rsp)
.L909:
	pxor	%xmm0, %xmm0
	leaq	112(%rsp), %rax
	movq	%rax, 80(%rsp)
	movups	%xmm0, 88(%rsp)
	data16	leaq	_ZN4asio6detail15keyword_tss_ptrINS0_10call_stackINS0_15task_io_serviceENS0_27task_io_service_thread_infoEE7contextEE6value_E@tlsgd(%rip), %rdi
	.value	0x6666
	rex64
	call	__tls_get_addr@PLT
	movq	(%rax), %rax
	testq	%rax, %rax
	je	.L912
	movq	8(%rax), %rax
	testq	%rax, %rax
	je	.L912
	movq	(%rax), %rbp
	testq	%rbp, %rbp
	je	.L912
	movq	$0, (%rax)
	movzbl	0(%rbp), %eax
	cmpb	$-105, %al
	jbe	.L913
	movb	%al, 152(%rbp)
	xorl	%edx, %edx
	movl	$1, %ecx
.L914:
	leaq	_ZN4asio6detail23reactive_socket_send_opINS_15const_buffers_1ENS0_8write_opINS_19basic_stream_socketINS_2ip3tcpENS_21stream_socket_serviceIS6_EEEES2_NS0_14transfer_all_tENS0_15wrapped_handlerINS_10io_service6strandEZN7asiopal13SocketChannel14BeginWriteImplERKN7openpal6RSliceEEUlRKSt10error_codemE_NS0_26is_continuation_if_runningEEEEEE11do_completeEPNS0_15task_io_serviceEPNS0_25task_io_service_operationESM_m(%rip), %rax
	movl	64(%rbx), %r15d
	movdqu	120(%rsp), %xmm4
	movq	$0, 0(%rbp)
	movdqu	152(%rsp), %xmm5
	movq	%rax, 8(%rbp)
	movq	_ZN4asio6detail28reactive_socket_send_op_baseINS_15const_buffers_1EE10do_performEPNS0_10reactor_opE@GOTPCREL(%rip), %rax
	movl	$0, 16(%rbp)
	movl	$0, 24(%rbp)
	movq	%rax, 48(%rbp)
	movq	(%rsp), %rax
	movq	%r13, 32(%rbp)
	movq	%rax, 64(%rbp)
	movq	48(%rsp), %rax
	movq	$0, 40(%rbp)
	movq	%rax, 72(%rbp)
	movq	168(%rsp), %rax
	movl	%r15d, 56(%rbp)
	movl	$0, 80(%rbp)
	movq	%r14, 88(%rbp)
	movl	%ecx, 112(%rbp)
	movq	%rdx, 120(%rbp)
	movq	%rax, 144(%rbp)
	movups	%xmm4, 96(%rbp)
	movups	%xmm5, 128(%rbp)
	movzbl	68(%rbx), %eax
	movq	%rbp, 88(%rsp)
	movq	%rbp, 96(%rsp)
	testb	$16, %al
	je	.L915
	testq	%r12, %r12
	jne	.L915
.L916:
	movq	56(%rsp), %rax
	movq	%rbp, %xmm2
	punpcklqdq	%xmm2, %xmm2
	movq	40(%rax), %rax
	movaps	%xmm2, (%rsp)
	movq	40(%rax), %rbx
	cmpb	$0, 40(%rbx)
	jne	.L990
	cmpb	$0, 16(%rsp)
	je	.L973
.L990:
	data16	leaq	_ZN4asio6detail15keyword_tss_ptrINS0_10call_stackINS0_15task_io_serviceENS0_27task_io_service_thread_infoEE7contextEE6value_E@tlsgd(%rip), %rdi
	.value	0x6666
	rex64
	call	__tls_get_addr@PLT
	movq	(%rax), %rax
	testq	%rax, %rax
	jne	.L977
	jmp	.L973
	.p2align 4,,10
	.p2align 3
.L975:
	movq	16(%rax), %rax
	testq	%rax, %rax
	je	.L973
.L977:
	cmpq	(%rax), %rbx
	jne	.L975
.L1071:
	movq	8(%rax), %rax
	testq	%rax, %rax
	je	.L973
	addq	$1, 24(%rax)
	movq	$0, 0(%rbp)
	movq	16(%rax), %rdx
	testq	%rdx, %rdx
	je	.L978
.L1059:
	movq	%rbp, (%rdx)
	movq	%rbp, 16(%rax)
	jmp	.L908
	.p2align 4,,10
	.p2align 3
.L915:
	movzbl	16(%rsp), %r14d
	testb	$3, %al
	jne	.L918
	cmpl	$-1, %r15d
	je	.L1072
	call	__errno_location@PLT
	movl	%r15d, %edi
	leaq	68(%rsp), %rdx
	movl	$21537, %esi
	movl	$0, (%rax)
	movq	%rax, %r12
	xorl	%eax, %eax
	movl	$1, 68(%rsp)
	call	ioctl@PLT
	movl	%eax, %r15d
	movq	_ZGVZN4asio15system_categoryEvE8instance@GOTPCREL(%rip), %rax
	movzbl	(%rax), %eax
	testb	%al, %al
	je	.L923
.L1055:
	movq	_ZZN4asio15system_categoryEvE8instance@GOTPCREL(%rip), %rsi
.L924:
	movl	(%r12), %eax
	movq	%rsi, 32(%rbp)
	movl	%eax, 24(%rbp)
	testl	%r15d, %r15d
	js	.L916
	movl	$0, 24(%rbp)
	movl	64(%rbx), %r15d
	movq	%r13, 32(%rbp)
	orb	$2, 68(%rbx)
.L918:
	movq	56(%rsp), %rax
	movq	72(%rbx), %r12
	movq	40(%rax), %r13
	testq	%r12, %r12
	je	.L1073
	addq	$40, %r12
	movq	%r12, %rdi
	call	pthread_mutex_lock@PLT
	movq	72(%rbx), %rax
	cmpb	$0, 144(%rax)
	jne	.L1074
	cmpq	$0, 112(%rax)
	je	.L1075
.L956:
	movq	120(%rax), %rdx
	movq	%rbp, %xmm0
	movq	$0, 0(%rbp)
	punpcklqdq	%xmm0, %xmm0
	testq	%rdx, %rdx
	je	.L970
	movq	%rbp, (%rdx)
	movq	%rbp, 120(%rax)
.L971:
	movq	40(%r13), %rax
	lock addq	$1, 184(%rax)
	movq	%r12, %rdi
	call	pthread_mutex_unlock@PLT
	jmp	.L908
	.p2align 4,,10
	.p2align 3
.L913:
	movq	%rbp, %rdi
	call	_ZdlPv@PLT
.L912:
	movl	$153, %edi
.LEHB7:
	call	_Znwm@PLT
.LEHE7:
	movq	112(%rsp), %r14
	movl	136(%rsp), %ecx
	movb	$-104, 152(%rax)
	movq	144(%rsp), %rdx
	movq	%rax, %rbp
	jmp	.L914
	.p2align 4,,10
	.p2align 3
.L973:
	lock addq	$1, 184(%rbx)
	leaq	48(%rbx), %r12
	movq	%r12, %rdi
	call	pthread_mutex_lock@PLT
	movq	$0, 0(%rbp)
	cmpq	$0, 200(%rbx)
	je	.L979
.L1069:
	movq	200(%rbx), %rax
	movq	%rbp, (%rax)
	movq	%rbp, 200(%rbx)
.L980:
	movq	136(%rbx), %rax
	orq	$1, %rax
	movq	%rax, 136(%rbx)
	cmpq	$1, %rax
	je	.L981
	movq	%r12, %rdi
	call	pthread_mutex_unlock@PLT
	leaq	88(%rbx), %rdi
	call	pthread_cond_signal@PLT
	.p2align 4,,10
	.p2align 3
.L908:
	movq	184(%rsp), %rax
	subq	%fs:40, %rax
	jne	.L1076
	addq	$200, %rsp
	.cfi_remember_state
	.cfi_def_cfa_offset 56
	popq	%rbx
	.cfi_def_cfa_offset 48
	popq	%rbp
	.cfi_def_cfa_offset 40
	popq	%r12
	.cfi_def_cfa_offset 32
	popq	%r13
	.cfi_def_cfa_offset 24
	popq	%r14
	.cfi_def_cfa_offset 16
	popq	%r15
	.cfi_def_cfa_offset 8
	ret
	.p2align 4,,10
	.p2align 3
.L981:
	.cfi_restore_state
	cmpb	$0, 176(%rbx)
	jne	.L950
	movq	144(%rbx), %rax
	testq	%rax, %rax
	je	.L950
	movb	$1, 176(%rbx)
	leaq	88(%rax), %rdx
	leaq	68(%rsp), %rcx
	movl	$3, %esi
	movl	$-2147483639, 68(%rsp)
	movq	%rdx, 72(%rsp)
	movl	88(%rax), %edx
	movl	96(%rax), %edi
	call	epoll_ctl@PLT
.L950:
	movq	%r12, %rdi
	call	pthread_mutex_unlock@PLT
	jmp	.L908
	.p2align 4,,10
	.p2align 3
.L985:
	movb	$0, 16(%rsp)
	jmp	.L909
	.p2align 4,,10
	.p2align 3
.L978:
	movdqa	(%rsp), %xmm6
	movups	%xmm6, 8(%rax)
	jmp	.L908
	.p2align 4,,10
	.p2align 3
.L970:
	movups	%xmm0, 112(%rax)
	jmp	.L971
	.p2align 4,,10
	.p2align 3
.L923:
	movq	_ZGVZN4asio15system_categoryEvE8instance@GOTPCREL(%rip), %rdi
	call	__cxa_guard_acquire@PLT
	testl	%eax, %eax
	je	.L1055
	movq	_ZZN4asio15system_categoryEvE8instance@GOTPCREL(%rip), %rsi
	movq	_ZN4asio6detail15system_categoryD1Ev@GOTPCREL(%rip), %rdi
	leaq	__dso_handle(%rip), %rdx
	movq	%rsi, (%rsp)
	call	__cxa_atexit@PLT
	movq	_ZGVZN4asio15system_categoryEvE8instance@GOTPCREL(%rip), %rdi
	call	__cxa_guard_release@PLT
	movq	(%rsp), %rsi
	jmp	.L924
	.p2align 4,,10
	.p2align 3
.L979:
	movdqa	(%rsp), %xmm7
	movups	%xmm7, 192(%rbx)
	jmp	.L980
	.p2align 4,,10
	.p2align 3
.L1073:
	movq	_ZGVZN4asio15system_categoryEvE8instance@GOTPCREL(%rip), %r12
	movq	%rbp, %xmm6
	punpcklqdq	%xmm6, %xmm6
	movaps	%xmm6, (%rsp)
	movzbl	(%r12), %eax
	testb	%al, %al
	je	.L928
.L1056:
	movq	_ZZN4asio15system_categoryEvE8instance@GOTPCREL(%rip), %rsi
.L929:
	movq	40(%r13), %rbx
	movl	$9, 24(%rbp)
	movq	%rsi, 32(%rbp)
	cmpb	$0, 40(%rbx)
	jne	.L987
	cmpb	$0, 16(%rsp)
	jne	.L987
.L931:
	lock addq	$1, 184(%rbx)
	leaq	48(%rbx), %r12
	movq	%r12, %rdi
	call	pthread_mutex_lock@PLT
	cmpq	$0, 200(%rbx)
	movq	$0, 0(%rbp)
	jne	.L1069
	movdqa	(%rsp), %xmm6
	movups	%xmm6, 192(%rbx)
	jmp	.L980
	.p2align 4,,10
	.p2align 3
.L987:
	data16	leaq	_ZN4asio6detail15keyword_tss_ptrINS0_10call_stackINS0_15task_io_serviceENS0_27task_io_service_thread_infoEE7contextEE6value_E@tlsgd(%rip), %rdi
	.value	0x6666
	rex64
	call	__tls_get_addr@PLT
	movq	(%rax), %rax
	testq	%rax, %rax
	jne	.L935
	jmp	.L931
	.p2align 4,,10
	.p2align 3
.L933:
	movq	16(%rax), %rax
	testq	%rax, %rax
	je	.L931
.L935:
	cmpq	(%rax), %rbx
	jne	.L933
	movq	8(%rax), %rax
	testq	%rax, %rax
	je	.L931
	addq	$1, 24(%rax)
	movq	$0, 0(%rbp)
	movq	16(%rax), %rdx
	testq	%rdx, %rdx
	jne	.L1059
	movdqa	(%rsp), %xmm7
	movups	%xmm7, 8(%rax)
	jmp	.L908
	.p2align 4,,10
	.p2align 3
.L1074:
	movq	40(%r13), %rbx
	movq	%rbp, %xmm7
	punpcklqdq	%xmm7, %xmm7
	cmpb	$0, 40(%rbx)
	movaps	%xmm7, (%rsp)
	jne	.L988
	cmpb	$0, 16(%rsp)
	je	.L944
.L988:
	data16	leaq	_ZN4asio6detail15keyword_tss_ptrINS0_10call_stackINS0_15task_io_serviceENS0_27task_io_service_thread_infoEE7contextEE6value_E@tlsgd(%rip), %rdi
	.value	0x6666
	rex64
	call	__tls_get_addr@PLT
	movq	(%rax), %rax
	testq	%rax, %rax
	jne	.L948
	jmp	.L944
	.p2align 4,,10
	.p2align 3
.L946:
	movq	16(%rax), %rax
	testq	%rax, %rax
	je	.L944
.L948:
	cmpq	(%rax), %rbx
	jne	.L946
	movq	8(%rax), %rax
	testq	%rax, %rax
	je	.L944
	addq	$1, 24(%rax)
	movq	$0, 0(%rbp)
	movq	16(%rax), %rdx
	testq	%rdx, %rdx
	je	.L949
	movq	%rbp, (%rdx)
	movq	%rbp, 16(%rax)
	jmp	.L950
	.p2align 4,,10
	.p2align 3
.L1072:
	movq	_ZGVZN4asio15system_categoryEvE8instance@GOTPCREL(%rip), %r12
	movzbl	(%r12), %eax
	testb	%al, %al
	je	.L920
.L1054:
	movq	_ZZN4asio15system_categoryEvE8instance@GOTPCREL(%rip), %rsi
.L921:
	movl	$9, 24(%rbp)
	movq	%rsi, 32(%rbp)
	jmp	.L916
	.p2align 4,,10
	.p2align 3
.L1075:
	movq	%rbp, %rdi
.LEHB8:
	call	*48(%rbp)
.LEHE8:
	testb	%al, %al
	jne	.L1077
	movq	72(%rbx), %rax
	movl	92(%rax), %edx
	testb	$4, %dl
	jne	.L956
	orl	$4, %edx
	movq	%rax, 72(%rsp)
	leaq	68(%rsp), %rcx
	movl	$3, %esi
	movl	%edx, 68(%rsp)
	movl	96(%r13), %edi
	movl	%r15d, %edx
	call	epoll_ctl@PLT
	testl	%eax, %eax
	jne	.L969
	movq	72(%rbx), %rax
	movl	68(%rsp), %edx
	orl	%edx, 92(%rax)
	jmp	.L956
.L928:
	movq	%r12, %rdi
	call	__cxa_guard_acquire@PLT
	testl	%eax, %eax
	je	.L1056
	movq	_ZZN4asio15system_categoryEvE8instance@GOTPCREL(%rip), %rsi
	movq	_ZN4asio6detail15system_categoryD1Ev@GOTPCREL(%rip), %rdi
	leaq	__dso_handle(%rip), %rdx
	movq	%rsi, 48(%rsp)
	call	__cxa_atexit@PLT
	movq	%r12, %rdi
	call	__cxa_guard_release@PLT
	movq	48(%rsp), %rsi
	jmp	.L929
.L920:
	movq	%r12, %rdi
	call	__cxa_guard_acquire@PLT
	testl	%eax, %eax
	je	.L1054
	movq	_ZZN4asio15system_categoryEvE8instance@GOTPCREL(%rip), %rsi
	movq	_ZN4asio6detail15system_categoryD1Ev@GOTPCREL(%rip), %rdi
	leaq	__dso_handle(%rip), %rdx
	movq	%rsi, (%rsp)
	call	__cxa_atexit@PLT
	movq	%r12, %rdi
	call	__cxa_guard_release@PLT
	movq	(%rsp), %rsi
	jmp	.L921
.L944:
	lock addq	$1, 184(%rbx)
	leaq	48(%rbx), %r13
	movq	%r13, %rdi
	call	pthread_mutex_lock@PLT
	cmpq	$0, 200(%rbx)
	movq	$0, 0(%rbp)
	je	.L951
	movq	200(%rbx), %rax
	movq	%rbp, (%rax)
	movq	%rbp, 200(%rbx)
.L952:
	movq	136(%rbx), %rax
	orq	$1, %rax
	movq	%rax, 136(%rbx)
	cmpq	$1, %rax
	je	.L953
	movq	%r13, %rdi
	call	pthread_mutex_unlock@PLT
	leaq	88(%rbx), %rdi
	call	pthread_cond_signal@PLT
	jmp	.L950
.L953:
	cmpb	$0, 176(%rbx)
	jne	.L955
	movq	144(%rbx), %rax
	testq	%rax, %rax
	je	.L955
	movb	$1, 176(%rbx)
	leaq	88(%rax), %rdx
	leaq	68(%rsp), %rcx
	movl	$3, %esi
	movq	%rdx, 72(%rsp)
	movl	88(%rax), %edx
	movl	$-2147483639, 68(%rsp)
	movl	96(%rax), %edi
	call	epoll_ctl@PLT
.L955:
	movq	%r13, %rdi
	call	pthread_mutex_unlock@PLT
	jmp	.L950
.L951:
	movdqa	(%rsp), %xmm6
	movups	%xmm6, 192(%rbx)
	jmp	.L952
.L949:
	movdqa	(%rsp), %xmm7
	movups	%xmm7, 8(%rax)
	jmp	.L950
.L1077:
	movq	%rbp, %xmm6
	movq	%r12, %rdi
	punpcklqdq	%xmm6, %xmm6
	movaps	%xmm6, (%rsp)
	call	pthread_mutex_unlock@PLT
	movq	40(%r13), %rbx
	cmpb	$0, 40(%rbx)
	jne	.L989
	cmpb	$0, 16(%rsp)
	je	.L973
.L989:
	data16	leaq	_ZN4asio6detail15keyword_tss_ptrINS0_10call_stackINS0_15task_io_serviceENS0_27task_io_service_thread_infoEE7contextEE6value_E@tlsgd(%rip), %rdi
	.value	0x6666
	rex64
	call	__tls_get_addr@PLT
	movq	(%rax), %rax
	testq	%rax, %rax
	jne	.L962
	jmp	.L973
	.p2align 4,,10
	.p2align 3
.L960:
	movq	16(%rax), %rax
	testq	%rax, %rax
	je	.L973
.L962:
	cmpq	(%rax), %rbx
	jne	.L960
	jmp	.L1071
.L969:
	call	_ZN4asio15system_categoryEv@PLT
	movq	%rax, %rbx
	call	__errno_location@PLT
	movq	40(%r13), %rdi
	movl	%r14d, %edx
	movq	%rbp, %rsi
	movl	(%rax), %eax
	movq	%rbx, 32(%rbp)
	movl	%eax, 24(%rbp)
	call	_ZN4asio6detail15task_io_service25post_immediate_completionEPNS0_25task_io_service_operationEb@PLT
	jmp	.L950
.L1076:
	call	__stack_chk_fail@PLT
.L986:
	endbr64
	movq	%rax, %rbp
	jmp	.L972
	.section	.gcc_except_table
.LLSDA7056:
	.byte	0xff
	.byte	0xff
	.byte	0x1
	.uleb128 .LLSDACSE7056-.LLSDACSB7056
.LLSDACSB7056:
	.uleb128 .LEHB7-.LFB7056
	.uleb128 .LEHE7-.LEHB7
	.uleb128 0
	.uleb128 0
	.uleb128 .LEHB8-.LFB7056
	.uleb128 .LEHE8-.LEHB8
	.uleb128 .L986-.LFB7056
	.uleb128 0
.LLSDACSE7056:
	.text
	.cfi_endproc
	.section	.text.unlikely
	.cfi_startproc
	.cfi_personality 0x9b,DW.ref.__gxx_personality_v0
	.cfi_lsda 0x1b,.LLSDAC7056
	.type	_ZN7asiopal13SocketChannel14BeginWriteImplERKN7openpal6RSliceE.cold, @function
_ZN7asiopal13SocketChannel14BeginWriteImplERKN7openpal6RSliceE.cold:
.LFSB7056:
.L972:
	.cfi_def_cfa_offset 256
	.cfi_offset 3, -56
	.cfi_offset 6, -48
	.cfi_offset 12, -40
	.cfi_offset 13, -32
	.cfi_offset 14, -24
	.cfi_offset 15, -16
	movq	%r12, %rdi
	call	pthread_mutex_unlock@PLT
	leaq	80(%rsp), %rdi
	call	_ZN4asio6detail23reactive_socket_send_opINS_15const_buffers_1ENS0_8write_opINS_19basic_stream_socketINS_2ip3tcpENS_21stream_socket_serviceIS6_EEEES2_NS0_14transfer_all_tENS0_15wrapped_handlerINS_10io_service6strandEZN7asiopal13SocketChannel14BeginWriteImplERKN7openpal6RSliceEEUlRKSt10error_codemE_NS0_26is_continuation_if_runningEEEEEE3ptr5resetEv
	movq	%rbp, %rdi
.LEHB9:
	call	_Unwind_Resume@PLT
.LEHE9:
	.cfi_endproc
.LFE7056:
	.section	.gcc_except_table
.LLSDAC7056:
	.byte	0xff
	.byte	0xff
	.byte	0x1
	.uleb128 .LLSDACSEC7056-.LLSDACSBC7056
.LLSDACSBC7056:
	.uleb128 .LEHB9-.LCOLDB26
	.uleb128 .LEHE9-.LEHB9
	.uleb128 0
	.uleb128 0
.LLSDACSEC7056:
	.section	.text.unlikely
	.text
	.size	_ZN7asiopal13SocketChannel14BeginWriteImplERKN7openpal6RSliceE, .-_ZN7asiopal13SocketChannel14BeginWriteImplERKN7openpal6RSliceE
	.section	.text.unlikely
	.size	_ZN7asiopal13SocketChannel14BeginWriteImplERKN7openpal6RSliceE.cold, .-_ZN7asiopal13SocketChannel14BeginWriteImplERKN7openpal6RSliceE.cold
.LCOLDE26:
	.text
.LHOTE26:
	.section	.text._ZN4asio6detail14strand_service16on_dispatch_exitD2Ev,"axG",@progbits,_ZN4asio6detail14strand_service16on_dispatch_exitD5Ev,comdat
	.align 2
	.p2align 4
	.weak	_ZN4asio6detail14strand_service16on_dispatch_exitD2Ev
	.type	_ZN4asio6detail14strand_service16on_dispatch_exitD2Ev, @function
_ZN4asio6detail14strand_service16on_dispatch_exitD2Ev:
.LFB6415:
	.cfi_startproc
	endbr64
	pushq	%r12
	.cfi_def_cfa_offset 16
	.cfi_offset 12, -16
	pushq	%rbp
	.cfi_def_cfa_offset 24
	.cfi_offset 6, -24
	pushq	%rbx
	.cfi_def_cfa_offset 32
	.cfi_offset 3, -32
	movq	%rdi, %rbx
	subq	$48, %rsp
	.cfi_def_cfa_offset 80
	movq	%fs:40, %rax
	movq	%rax, 40(%rsp)
	movq	8(%rdi), %rax
	leaq	24(%rax), %rdi
	call	pthread_mutex_lock@PLT
	movq	8(%rbx), %rdi
	movq	72(%rdi), %rbp
	testq	%rbp, %rbp
	je	.L1109
	movq	96(%rdi), %rax
	testq	%rax, %rax
	je	.L1081
	movq	%rbp, (%rax)
	movq	88(%rdi), %rbp
.L1082:
	movq	80(%rdi), %rax
	pxor	%xmm0, %xmm0
	movups	%xmm0, 72(%rdi)
	movq	%rax, 96(%rdi)
.L1080:
	testq	%rbp, %rbp
	setne	64(%rdi)
	addq	$24, %rdi
	call	pthread_mutex_unlock@PLT
	testq	%rbp, %rbp
	jne	.L1110
.L1078:
	movq	40(%rsp), %rax
	subq	%fs:40, %rax
	jne	.L1108
	addq	$48, %rsp
	.cfi_remember_state
	.cfi_def_cfa_offset 32
	popq	%rbx
	.cfi_def_cfa_offset 24
	popq	%rbp
	.cfi_def_cfa_offset 16
	popq	%r12
	.cfi_def_cfa_offset 8
	ret
	.p2align 4,,10
	.p2align 3
.L1081:
	.cfi_restore_state
	movq	%rbp, 88(%rdi)
	jmp	.L1082
	.p2align 4,,10
	.p2align 3
.L1110:
	movdqu	(%rbx), %xmm0
	movq	(%rbx), %rbp
	movdqa	%xmm0, %xmm1
	movhlps	%xmm0, %xmm2
	cmpb	$0, 40(%rbp)
	punpckhqdq	%xmm0, %xmm1
	movq	%xmm2, %rbx
	movaps	%xmm1, (%rsp)
	je	.L1084
	data16	leaq	_ZN4asio6detail15keyword_tss_ptrINS0_10call_stackINS0_15task_io_serviceENS0_27task_io_service_thread_infoEE7contextEE6value_E@tlsgd(%rip), %rdi
	.value	0x6666
	rex64
	call	__tls_get_addr@PLT
	movq	(%rax), %rax
	testq	%rax, %rax
	jne	.L1087
	jmp	.L1084
	.p2align 4,,10
	.p2align 3
.L1085:
	movq	16(%rax), %rax
	testq	%rax, %rax
	je	.L1084
.L1087:
	cmpq	(%rax), %rbp
	jne	.L1085
	movq	8(%rax), %rax
	testq	%rax, %rax
	je	.L1084
	addq	$1, 24(%rax)
	movq	$0, (%rbx)
	movq	16(%rax), %rdx
	testq	%rdx, %rdx
	je	.L1088
	movq	%rbx, (%rdx)
	movq	%rbx, 16(%rax)
	jmp	.L1078
	.p2align 4,,10
	.p2align 3
.L1084:
	lock addq	$1, 184(%rbp)
	leaq	48(%rbp), %r12
	movq	%r12, %rdi
	call	pthread_mutex_lock@PLT
	cmpq	$0, 200(%rbp)
	movq	$0, (%rbx)
	je	.L1089
	movq	200(%rbp), %rax
	movq	%rbx, (%rax)
	movq	%rbx, 200(%rbp)
.L1090:
	movq	136(%rbp), %rax
	orq	$1, %rax
	movq	%rax, 136(%rbp)
	cmpq	$1, %rax
	je	.L1091
	movq	%r12, %rdi
	call	pthread_mutex_unlock@PLT
	movq	40(%rsp), %rax
	subq	%fs:40, %rax
	jne	.L1108
	addq	$48, %rsp
	.cfi_remember_state
	.cfi_def_cfa_offset 32
	leaq	88(%rbp), %rdi
	popq	%rbx
	.cfi_def_cfa_offset 24
	popq	%rbp
	.cfi_def_cfa_offset 16
	popq	%r12
	.cfi_def_cfa_offset 8
	jmp	pthread_cond_signal@PLT
	.p2align 4,,10
	.p2align 3
.L1109:
	.cfi_restore_state
	movq	88(%rdi), %rbp
	jmp	.L1080
	.p2align 4,,10
	.p2align 3
.L1089:
	movdqa	(%rsp), %xmm3
	movups	%xmm3, 192(%rbp)
	jmp	.L1090
	.p2align 4,,10
	.p2align 3
.L1091:
	cmpb	$0, 176(%rbp)
	jne	.L1093
	movq	144(%rbp), %rax
	testq	%rax, %rax
	je	.L1093
	leaq	88(%rax), %rdx
	movb	$1, 176(%rbp)
	movl	96(%rax), %edi
	leaq	28(%rsp), %rcx
	movq	%rdx, 32(%rsp)
	movl	88(%rax), %edx
	movl	$3, %esi
	movl	$-2147483639, 28(%rsp)
	call	epoll_ctl@PLT
.L1093:
	movq	40(%rsp), %rax
	subq	%fs:40, %rax
	jne	.L1108
	addq	$48, %rsp
	.cfi_remember_state
	.cfi_def_cfa_offset 32
	movq	%r12, %rdi
	popq	%rbx
	.cfi_def_cfa_offset 24
	popq	%rbp
	.cfi_def_cfa_offset 16
	popq	%r12
	.cfi_def_cfa_offset 8
	jmp	pthread_mutex_unlock@PLT
	.p2align 4,,10
	.p2align 3
.L1088:
	.cfi_restore_state
	movdqa	(%rsp), %xmm4
	movups	%xmm4, 8(%rax)
	jmp	.L1078
.L1108:
	call	__stack_chk_fail@PLT
	.cfi_endproc
.LFE6415:
	.size	_ZN4asio6detail14strand_service16on_dispatch_exitD2Ev, .-_ZN4asio6detail14strand_service16on_dispatch_exitD2Ev
	.weak	_ZN4asio6detail14strand_service16on_dispatch_exitD1Ev
	.set	_ZN4asio6detail14strand_service16on_dispatch_exitD1Ev,_ZN4asio6detail14strand_service16on_dispatch_exitD2Ev
	.section	.text.unlikely
	.align 2
.LCOLDB27:
	.text
.LHOTB27:
	.align 2
	.p2align 4
	.type	_ZN4asio6detail14strand_service8dispatchINS0_7binder2IZN7asiopal13SocketChannel13BeginReadImplEN7openpal6WSliceEEUlRKSt10error_codemE_S8_mEEEEvRPNS1_11strand_implERT_, @function
_ZN4asio6detail14strand_service8dispatchINS0_7binder2IZN7asiopal13SocketChannel13BeginReadImplEN7openpal6WSliceEEUlRKSt10error_codemE_S8_mEEEEvRPNS1_11strand_implERT_:
.LFB9418:
	.cfi_startproc
	.cfi_personality 0x9b,DW.ref.__gxx_personality_v0
	.cfi_lsda 0x1b,.LLSDA9418
	pushq	%r14
	.cfi_def_cfa_offset 16
	.cfi_offset 14, -16
	pushq	%r13
	.cfi_def_cfa_offset 24
	.cfi_offset 13, -24
	movq	%rdi, %r13
	pushq	%r12
	.cfi_def_cfa_offset 32
	.cfi_offset 12, -32
	movq	%rsi, %r12
	pushq	%rbp
	.cfi_def_cfa_offset 40
	.cfi_offset 6, -40
	movq	%rdx, %rbp
	pushq	%rbx
	.cfi_def_cfa_offset 48
	.cfi_offset 3, -48
	subq	$160, %rsp
	.cfi_def_cfa_offset 208
	movq	(%rsi), %rbx
	movq	%fs:40, %rax
	movq	%rax, 152(%rsp)
	xorl	%eax, %eax
	data16	leaq	_ZN4asio6detail15keyword_tss_ptrINS0_10call_stackINS0_14strand_service11strand_implEhE7contextEE6value_E@tlsgd(%rip), %rdi
	.value	0x6666
	rex64
	call	__tls_get_addr@PLT
	movq	(%rax), %rax
	testq	%rax, %rax
	jne	.L1115
	jmp	.L1112
	.p2align 4,,10
	.p2align 3
.L1113:
	movq	16(%rax), %rax
	testq	%rax, %rax
	je	.L1112
.L1115:
	cmpq	(%rax), %rbx
	jne	.L1113
	cmpq	$0, 8(%rax)
	je	.L1112
	lfence
	movq	0(%rbp), %rax
	movq	24(%rbp), %rdx
	movq	40(%rax), %rdi
	movb	$0, 57(%rax)
	testq	%rdi, %rdi
	je	.L1118
	cmpb	$0, 56(%rax)
	jne	.L1118
	movq	(%rdi), %rax
	leaq	8(%rbp), %rsi
.LEHB10:
	call	*16(%rax)
.LEHE10:
.L1118:
	sfence
.L1111:
	movq	152(%rsp), %rax
	subq	%fs:40, %rax
	jne	.L1214
	addq	$160, %rsp
	.cfi_remember_state
	.cfi_def_cfa_offset 48
	popq	%rbx
	.cfi_def_cfa_offset 40
	popq	%rbp
	.cfi_def_cfa_offset 32
	popq	%r12
	.cfi_def_cfa_offset 24
	popq	%r13
	.cfi_def_cfa_offset 16
	popq	%r14
	.cfi_def_cfa_offset 8
	ret
	.p2align 4,,10
	.p2align 3
.L1112:
	.cfi_restore_state
	data16	leaq	_ZN4asio6detail15keyword_tss_ptrINS0_10call_stackINS0_15task_io_serviceENS0_27task_io_service_thread_infoEE7contextEE6value_E@tlsgd(%rip), %rdi
	.value	0x6666
	rex64
	call	__tls_get_addr@PLT
	movq	(%rax), %rax
	testq	%rax, %rax
	je	.L1119
	movq	8(%rax), %rax
	testq	%rax, %rax
	je	.L1119
	movq	(%rax), %r14
	testq	%r14, %r14
	je	.L1119
	movq	$0, (%rax)
	movzbl	(%r14), %eax
	cmpb	$55, %al
	jbe	.L1120
	movb	%al, 56(%r14)
	jmp	.L1121
.L1120:
	movq	%r14, %rdi
	call	_ZdlPv@PLT
.L1119:
	movl	$57, %edi
.LEHB11:
	call	_Znwm@PLT
.LEHE11:
	movb	$56, 56(%rax)
	movq	%rax, %r14
.L1121:
	leaq	_ZN4asio6detail18completion_handlerINS0_7binder2IZN7asiopal13SocketChannel13BeginReadImplEN7openpal6WSliceEEUlRKSt10error_codemE_S7_mEEE11do_completeEPNS0_15task_io_serviceEPNS0_25task_io_service_operationES9_m(%rip), %rax
	movdqu	0(%rbp), %xmm3
	movdqu	16(%rbp), %xmm4
	movq	$0, (%r14)
	movq	%rax, 8(%r14)
	movq	%r14, %xmm1
	movq	40(%r13), %rbx
	movl	$0, 16(%r14)
	punpcklqdq	%xmm1, %xmm1
	movups	%xmm3, 24(%r14)
	movups	%xmm4, 40(%r14)
	movaps	%xmm1, (%rsp)
	data16	leaq	_ZN4asio6detail15keyword_tss_ptrINS0_10call_stackINS0_15task_io_serviceENS0_27task_io_service_thread_infoEE7contextEE6value_E@tlsgd(%rip), %rdi
	.value	0x6666
	rex64
	call	__tls_get_addr@PLT
	movq	(%rax), %rax
	testq	%rax, %rax
	jne	.L1126
	jmp	.L1122
	.p2align 4,,10
	.p2align 3
.L1123:
	movq	16(%rax), %rax
	testq	%rax, %rax
	je	.L1122
.L1126:
	cmpq	(%rax), %rbx
	jne	.L1123
	movq	8(%rax), %rbx
	movq	(%r12), %rax
	leaq	24(%rax), %rdi
	call	pthread_mutex_lock@PLT
	testq	%rbx, %rbx
	je	.L1125
	movq	(%r12), %rdi
	cmpb	$0, 64(%rdi)
	je	.L1215
.L1127:
	movq	$0, (%r14)
	movq	80(%rdi), %rax
	testq	%rax, %rax
	je	.L1131
	movq	%r14, (%rax)
	movq	%r14, 80(%rdi)
.L1132:
	movq	152(%rsp), %rax
	subq	%fs:40, %rax
	jne	.L1214
	addq	$24, %rdi
.L1213:
	addq	$160, %rsp
	.cfi_remember_state
	.cfi_def_cfa_offset 48
	popq	%rbx
	.cfi_def_cfa_offset 40
	popq	%rbp
	.cfi_def_cfa_offset 32
	popq	%r12
	.cfi_def_cfa_offset 24
	popq	%r13
	.cfi_def_cfa_offset 16
	popq	%r14
	.cfi_def_cfa_offset 8
	jmp	pthread_mutex_unlock@PLT
.L1215:
	.cfi_restore_state
	movb	$1, 64(%rdi)
	addq	$24, %rdi
	call	pthread_mutex_unlock@PLT
	movq	(%r12), %rbx
	movq	%rbx, %xmm2
	movq	%rbx, 48(%rsp)
	punpcklqdq	%xmm2, %xmm2
	movaps	%xmm2, (%rsp)
	data16	leaq	_ZN4asio6detail15keyword_tss_ptrINS0_10call_stackINS0_14strand_service11strand_implEhE7contextEE6value_E@tlsgd(%rip), %rdi
	.value	0x6666
	rex64
	call	__tls_get_addr@PLT
	movq	40(%r13), %rbp
	movdqu	24(%r14), %xmm7
	movq	%rbx, %xmm6
	leaq	112(%rsp), %r13
	movq	%r14, 88(%rsp)
	movq	%rbp, %xmm0
	movaps	%xmm7, 112(%rsp)
	punpcklqdq	%xmm6, %xmm0
	movdqu	40(%r14), %xmm6
	movq	%r13, 80(%rsp)
	movq	$0, 96(%rsp)
	movaps	%xmm0, 32(%rsp)
	movq	(%rax), %rdx
	movaps	%xmm6, 128(%rsp)
	movq	%rdx, 64(%rsp)
	leaq	48(%rsp), %rdx
	movq	%rdx, (%rax)
	movq	%rdx, 56(%rsp)
	data16	leaq	_ZN4asio6detail15keyword_tss_ptrINS0_10call_stackINS0_15task_io_serviceENS0_27task_io_service_thread_infoEE7contextEE6value_E@tlsgd(%rip), %rdi
	.value	0x6666
	rex64
	call	__tls_get_addr@PLT
	movq	(%rax), %rax
	testq	%rax, %rax
	je	.L1129
	movq	8(%rax), %rax
	testq	%rax, %rax
	je	.L1129
	cmpq	$0, (%rax)
	je	.L1216
.L1129:
	movq	%r14, %rdi
	call	_ZdlPv@PLT
.L1148:
	movq	$0, 88(%rsp)
	testq	%rbp, %rbp
	je	.L1149
	movq	112(%rsp), %rax
	movq	136(%rsp), %rdx
	movq	40(%rax), %rdi
	movb	$0, 57(%rax)
	testq	%rdi, %rdi
	je	.L1151
	cmpb	$0, 56(%rax)
	je	.L1217
.L1151:
	sfence
.L1149:
	leaq	24(%rbx), %r14
	movq	%r14, %rdi
	call	pthread_mutex_lock@PLT
	movq	72(%rbx), %r12
	testq	%r12, %r12
	je	.L1218
	movq	96(%rbx), %rax
	testq	%rax, %rax
	je	.L1155
	movq	%r12, (%rax)
	movq	88(%rbx), %r12
.L1156:
	movq	80(%rbx), %rax
	pxor	%xmm0, %xmm0
	movups	%xmm0, 72(%rbx)
	movq	%rax, 96(%rbx)
.L1153:
	testq	%r12, %r12
	movq	%r14, %rdi
	setne	64(%rbx)
	call	pthread_mutex_unlock@PLT
	testq	%r12, %r12
	jne	.L1219
.L1157:
	data16	leaq	_ZN4asio6detail15keyword_tss_ptrINS0_10call_stackINS0_14strand_service11strand_implEhE7contextEE6value_E@tlsgd(%rip), %rdi
	.value	0x6666
	rex64
	call	__tls_get_addr@PLT
	movq	64(%rsp), %rdx
	movq	%rdx, (%rax)
	jmp	.L1111
	.p2align 4,,10
	.p2align 3
.L1122:
	movq	(%r12), %rax
	leaq	24(%rax), %rdi
	call	pthread_mutex_lock@PLT
.L1125:
	movq	(%r12), %rdi
	cmpb	$0, 64(%rdi)
	leaq	24(%rdi), %r8
	jne	.L1127
	movb	$1, 64(%rdi)
	movq	%r8, %rdi
	call	pthread_mutex_unlock@PLT
	movq	(%r12), %rbp
	movq	$0, (%r14)
	movq	%rbp, %xmm5
	cmpq	$0, 96(%rbp)
	punpcklqdq	%xmm5, %xmm5
	movaps	%xmm5, 16(%rsp)
	je	.L1134
	movq	96(%rbp), %rax
	movq	%r14, (%rax)
	movq	%r14, 96(%rbp)
.L1135:
	movq	40(%r13), %rbx
	cmpb	$0, 40(%rbx)
	je	.L1136
	data16	leaq	_ZN4asio6detail15keyword_tss_ptrINS0_10call_stackINS0_15task_io_serviceENS0_27task_io_service_thread_infoEE7contextEE6value_E@tlsgd(%rip), %rdi
	.value	0x6666
	rex64
	call	__tls_get_addr@PLT
	movq	(%rax), %rax
	testq	%rax, %rax
	jne	.L1139
	jmp	.L1136
	.p2align 4,,10
	.p2align 3
.L1137:
	movq	16(%rax), %rax
	testq	%rax, %rax
	je	.L1136
.L1139:
	cmpq	(%rax), %rbx
	jne	.L1137
	movq	8(%rax), %rax
	testq	%rax, %rax
	je	.L1136
	addq	$1, 24(%rax)
	movq	$0, 0(%rbp)
	movq	16(%rax), %rdx
	testq	%rdx, %rdx
	je	.L1140
	movq	%rbp, (%rdx)
	movq	%rbp, 16(%rax)
	jmp	.L1111
.L1136:
	lock addq	$1, 184(%rbx)
	leaq	48(%rbx), %r12
	movq	%r12, %rdi
	call	pthread_mutex_lock@PLT
	cmpq	$0, 200(%rbx)
	movq	$0, 0(%rbp)
	je	.L1142
	movq	200(%rbx), %rax
	movq	%rbp, (%rax)
	movq	%rbp, 200(%rbx)
.L1143:
	movq	136(%rbx), %rax
	orq	$1, %rax
	movq	%rax, 136(%rbx)
	cmpq	$1, %rax
	je	.L1144
	movq	%r12, %rdi
	call	pthread_mutex_unlock@PLT
	movq	152(%rsp), %rax
	subq	%fs:40, %rax
	jne	.L1214
	addq	$160, %rsp
	.cfi_remember_state
	.cfi_def_cfa_offset 48
	leaq	88(%rbx), %rdi
	popq	%rbx
	.cfi_def_cfa_offset 40
	popq	%rbp
	.cfi_def_cfa_offset 32
	popq	%r12
	.cfi_def_cfa_offset 24
	popq	%r13
	.cfi_def_cfa_offset 16
	popq	%r14
	.cfi_def_cfa_offset 8
	jmp	pthread_cond_signal@PLT
.L1131:
	.cfi_restore_state
	movdqa	(%rsp), %xmm7
	movups	%xmm7, 72(%rdi)
	jmp	.L1132
.L1217:
	movq	(%rdi), %rax
	leaq	120(%rsp), %rsi
.LEHB12:
	call	*16(%rax)
.LEHE12:
	jmp	.L1151
.L1142:
	movdqa	16(%rsp), %xmm5
	movups	%xmm5, 192(%rbx)
	jmp	.L1143
.L1219:
	cmpb	$0, 40(%rbp)
	je	.L1158
	data16	leaq	_ZN4asio6detail15keyword_tss_ptrINS0_10call_stackINS0_15task_io_serviceENS0_27task_io_service_thread_infoEE7contextEE6value_E@tlsgd(%rip), %rdi
	.value	0x6666
	rex64
	call	__tls_get_addr@PLT
	movq	(%rax), %rax
	testq	%rax, %rax
	jne	.L1161
	jmp	.L1158
	.p2align 4,,10
	.p2align 3
.L1159:
	movq	16(%rax), %rax
	testq	%rax, %rax
	je	.L1158
.L1161:
	cmpq	(%rax), %rbp
	jne	.L1159
	movq	8(%rax), %rax
	testq	%rax, %rax
	je	.L1158
	addq	$1, 24(%rax)
	movq	$0, (%rbx)
	movq	16(%rax), %rdx
	testq	%rdx, %rdx
	je	.L1162
	movq	%rbx, (%rdx)
	movq	%rbx, 16(%rax)
	jmp	.L1157
.L1144:
	cmpb	$0, 176(%rbx)
	jne	.L1146
	movq	144(%rbx), %rax
	testq	%rax, %rax
	je	.L1146
	movb	$1, 176(%rbx)
	leaq	88(%rax), %rdx
	leaq	112(%rsp), %rcx
	movl	$3, %esi
	movq	%rdx, 116(%rsp)
	movl	88(%rax), %edx
	movl	$-2147483639, 112(%rsp)
	movl	96(%rax), %edi
	call	epoll_ctl@PLT
.L1146:
	movq	152(%rsp), %rax
	subq	%fs:40, %rax
	jne	.L1214
	movq	%r12, %rdi
	jmp	.L1213
.L1218:
	movq	88(%rbx), %r12
	jmp	.L1153
.L1158:
	lock addq	$1, 184(%rbp)
	leaq	48(%rbp), %r12
	movq	%r12, %rdi
	call	pthread_mutex_lock@PLT
	cmpq	$0, 200(%rbp)
	movq	$0, (%rbx)
	je	.L1163
	movq	200(%rbp), %rax
	movq	%rbx, (%rax)
	movq	%rbx, 200(%rbp)
.L1164:
	movq	136(%rbp), %rax
	orq	$1, %rax
	movq	%rax, 136(%rbp)
	cmpq	$1, %rax
	je	.L1165
	movq	%r12, %rdi
	call	pthread_mutex_unlock@PLT
	leaq	88(%rbp), %rdi
	call	pthread_cond_signal@PLT
	jmp	.L1157
.L1155:
	movq	%r12, 88(%rbx)
	jmp	.L1156
.L1165:
	cmpb	$0, 176(%rbp)
	jne	.L1167
	movq	144(%rbp), %rax
	testq	%rax, %rax
	je	.L1167
	movb	$1, 176(%rbp)
	leaq	88(%rax), %rdx
	movq	%r13, %rcx
	movl	$3, %esi
	movq	%rdx, 116(%rsp)
	movl	88(%rax), %edx
	movl	$-2147483639, 112(%rsp)
	movl	96(%rax), %edi
	call	epoll_ctl@PLT
.L1167:
	movq	%r12, %rdi
	call	pthread_mutex_unlock@PLT
	jmp	.L1157
.L1134:
	movdqa	(%rsp), %xmm7
	movups	%xmm7, 88(%rbp)
	jmp	.L1135
.L1216:
	movzbl	56(%r14), %edx
	movb	%dl, (%r14)
	movq	%r14, (%rax)
	jmp	.L1148
.L1163:
	movdqa	(%rsp), %xmm5
	movups	%xmm5, 192(%rbp)
	jmp	.L1164
.L1140:
	movdqa	16(%rsp), %xmm7
	movups	%xmm7, 8(%rax)
	jmp	.L1111
.L1162:
	movdqa	(%rsp), %xmm7
	movups	%xmm7, 8(%rax)
	jmp	.L1157
.L1214:
	call	__stack_chk_fail@PLT
.L1171:
	endbr64
	movq	%rax, %rbp
	jmp	.L1154
.L1170:
	endbr64
	movq	%rax, %rdi
	jmp	.L1168
	.section	.gcc_except_table
.LLSDA9418:
	.byte	0xff
	.byte	0xff
	.byte	0x1
	.uleb128 .LLSDACSE9418-.LLSDACSB9418
.LLSDACSB9418:
	.uleb128 .LEHB10-.LFB9418
	.uleb128 .LEHE10-.LEHB10
	.uleb128 .L1170-.LFB9418
	.uleb128 0
	.uleb128 .LEHB11-.LFB9418
	.uleb128 .LEHE11-.LEHB11
	.uleb128 0
	.uleb128 0
	.uleb128 .LEHB12-.LFB9418
	.uleb128 .LEHE12-.LEHB12
	.uleb128 .L1171-.LFB9418
	.uleb128 0
.LLSDACSE9418:
	.text
	.cfi_endproc
	.section	.text.unlikely
	.cfi_startproc
	.cfi_personality 0x9b,DW.ref.__gxx_personality_v0
	.cfi_lsda 0x1b,.LLSDAC9418
	.type	_ZN4asio6detail14strand_service8dispatchINS0_7binder2IZN7asiopal13SocketChannel13BeginReadImplEN7openpal6WSliceEEUlRKSt10error_codemE_S8_mEEEEvRPNS1_11strand_implERT_.cold, @function
_ZN4asio6detail14strand_service8dispatchINS0_7binder2IZN7asiopal13SocketChannel13BeginReadImplEN7openpal6WSliceEEUlRKSt10error_codemE_S8_mEEEEvRPNS1_11strand_implERT_.cold:
.LFSB9418:
.L1154:
	.cfi_def_cfa_offset 208
	.cfi_offset 3, -48
	.cfi_offset 6, -40
	.cfi_offset 12, -32
	.cfi_offset 13, -24
	.cfi_offset 14, -16
	sfence
	leaq	80(%rsp), %rdi
	call	_ZN4asio6detail18completion_handlerINS0_7binder2IZN7asiopal13SocketChannel13BeginReadImplEN7openpal6WSliceEEUlRKSt10error_codemE_S7_mEEE3ptr5resetEv
	leaq	32(%rsp), %rdi
	call	_ZN4asio6detail14strand_service16on_dispatch_exitD1Ev@PLT
	data16	leaq	_ZN4asio6detail15keyword_tss_ptrINS0_10call_stackINS0_14strand_service11strand_implEhE7contextEE6value_E@tlsgd(%rip), %rdi
	.value	0x6666
	rex64
	call	__tls_get_addr@PLT
	movq	64(%rsp), %rdx
	movq	%rbp, %rdi
	movq	%rdx, (%rax)
.LEHB13:
	call	_Unwind_Resume@PLT
.L1168:
	sfence
	call	_Unwind_Resume@PLT
.LEHE13:
	.cfi_endproc
.LFE9418:
	.section	.gcc_except_table
.LLSDAC9418:
	.byte	0xff
	.byte	0xff
	.byte	0x1
	.uleb128 .LLSDACSEC9418-.LLSDACSBC9418
.LLSDACSBC9418:
	.uleb128 .LEHB13-.LCOLDB27
	.uleb128 .LEHE13-.LEHB13
	.uleb128 0
	.uleb128 0
.LLSDACSEC9418:
	.section	.text.unlikely
	.text
	.size	_ZN4asio6detail14strand_service8dispatchINS0_7binder2IZN7asiopal13SocketChannel13BeginReadImplEN7openpal6WSliceEEUlRKSt10error_codemE_S8_mEEEEvRPNS1_11strand_implERT_, .-_ZN4asio6detail14strand_service8dispatchINS0_7binder2IZN7asiopal13SocketChannel13BeginReadImplEN7openpal6WSliceEEUlRKSt10error_codemE_S8_mEEEEvRPNS1_11strand_implERT_
	.section	.text.unlikely
	.size	_ZN4asio6detail14strand_service8dispatchINS0_7binder2IZN7asiopal13SocketChannel13BeginReadImplEN7openpal6WSliceEEUlRKSt10error_codemE_S8_mEEEEvRPNS1_11strand_implERT_.cold, .-_ZN4asio6detail14strand_service8dispatchINS0_7binder2IZN7asiopal13SocketChannel13BeginReadImplEN7openpal6WSliceEEUlRKSt10error_codemE_S8_mEEEEvRPNS1_11strand_implERT_.cold
.LCOLDE27:
	.text
.LHOTE27:
	.section	.text.unlikely
.LCOLDB28:
	.text
.LHOTB28:
	.p2align 4
	.type	_ZN4asio6detail18completion_handlerINS0_17rewrapped_handlerINS0_7binder2INS0_15wrapped_handlerINS_10io_service6strandEZN7asiopal13SocketChannel13BeginReadImplEN7openpal6WSliceEEUlRKSt10error_codemE_NS0_26is_continuation_if_runningEEESB_mEESE_EEE11do_completeEPNS0_15task_io_serviceEPNS0_25task_io_service_operationESD_m, @function
_ZN4asio6detail18completion_handlerINS0_17rewrapped_handlerINS0_7binder2INS0_15wrapped_handlerINS_10io_service6strandEZN7asiopal13SocketChannel13BeginReadImplEN7openpal6WSliceEEUlRKSt10error_codemE_NS0_26is_continuation_if_runningEEESB_mEESE_EEE11do_completeEPNS0_15task_io_serviceEPNS0_25task_io_service_operationESD_m:
.LFB9343:
	.cfi_startproc
	.cfi_personality 0x9b,DW.ref.__gxx_personality_v0
	.cfi_lsda 0x1b,.LLSDA9343
	endbr64
	pushq	%rbp
	.cfi_def_cfa_offset 16
	.cfi_offset 6, -16
	movq	%rsi, %rbp
	pushq	%rbx
	.cfi_def_cfa_offset 24
	.cfi_offset 3, -24
	movq	%rdi, %rbx
	subq	$152, %rsp
	.cfi_def_cfa_offset 176
	movdqu	32(%rsi), %xmm0
	movdqu	56(%rsi), %xmm1
	movq	%fs:40, %rax
	movq	%rax, 136(%rsp)
	xorl	%eax, %eax
	movq	24(%rsi), %rax
	movq	%rsi, 8(%rsp)
	movq	$0, 16(%rsp)
	movq	%rax, 80(%rsp)
	movq	48(%rsi), %rax
	movups	%xmm0, 88(%rsp)
	movq	%rax, 104(%rsp)
	movq	72(%rsi), %rax
	movaps	%xmm1, 112(%rsp)
	movq	%rax, 128(%rsp)
	leaq	80(%rsp), %rax
	movq	%rax, (%rsp)
	data16	leaq	_ZN4asio6detail15keyword_tss_ptrINS0_10call_stackINS0_15task_io_serviceENS0_27task_io_service_thread_infoEE7contextEE6value_E@tlsgd(%rip), %rdi
	.value	0x6666
	rex64
	call	__tls_get_addr@PLT
	movq	(%rax), %rax
	testq	%rax, %rax
	je	.L1221
	movq	8(%rax), %rax
	testq	%rax, %rax
	je	.L1221
	cmpq	$0, (%rax)
	je	.L1237
.L1221:
	movq	%rbp, %rdi
	call	_ZdlPv@PLT
.L1222:
	movq	$0, 8(%rsp)
	testq	%rbx, %rbx
	je	.L1220
	movq	104(%rsp), %rax
	movq	88(%rsp), %rdi
	leaq	32(%rsp), %rdx
	leaq	96(%rsp), %rsi
	movq	%rax, 32(%rsp)
	movl	112(%rsp), %eax
	movl	%eax, 40(%rsp)
	movq	120(%rsp), %rax
	movq	%rax, 48(%rsp)
	movq	128(%rsp), %rax
	movq	%rax, 56(%rsp)
.LEHB14:
	call	_ZN4asio6detail14strand_service8dispatchINS0_7binder2IZN7asiopal13SocketChannel13BeginReadImplEN7openpal6WSliceEEUlRKSt10error_codemE_S8_mEEEEvRPNS1_11strand_implERT_
.LEHE14:
	sfence
.L1220:
	movq	136(%rsp), %rax
	subq	%fs:40, %rax
	jne	.L1238
	addq	$152, %rsp
	.cfi_remember_state
	.cfi_def_cfa_offset 24
	popq	%rbx
	.cfi_def_cfa_offset 16
	popq	%rbp
	.cfi_def_cfa_offset 8
	ret
	.p2align 4,,10
	.p2align 3
.L1237:
	.cfi_restore_state
	movzbl	80(%rbp), %edx
	movb	%dl, 0(%rbp)
	movq	%rbp, (%rax)
	jmp	.L1222
.L1238:
	call	__stack_chk_fail@PLT
.L1226:
	endbr64
	movq	%rax, %rbp
	jmp	.L1224
	.section	.gcc_except_table
.LLSDA9343:
	.byte	0xff
	.byte	0xff
	.byte	0x1
	.uleb128 .LLSDACSE9343-.LLSDACSB9343
.LLSDACSB9343:
	.uleb128 .LEHB14-.LFB9343
	.uleb128 .LEHE14-.LEHB14
	.uleb128 .L1226-.LFB9343
	.uleb128 0
.LLSDACSE9343:
	.text
	.cfi_endproc
	.section	.text.unlikely
	.cfi_startproc
	.cfi_personality 0x9b,DW.ref.__gxx_personality_v0
	.cfi_lsda 0x1b,.LLSDAC9343
	.type	_ZN4asio6detail18completion_handlerINS0_17rewrapped_handlerINS0_7binder2INS0_15wrapped_handlerINS_10io_service6strandEZN7asiopal13SocketChannel13BeginReadImplEN7openpal6WSliceEEUlRKSt10error_codemE_NS0_26is_continuation_if_runningEEESB_mEESE_EEE11do_completeEPNS0_15task_io_serviceEPNS0_25task_io_service_operationESD_m.cold, @function
_ZN4asio6detail18completion_handlerINS0_17rewrapped_handlerINS0_7binder2INS0_15wrapped_handlerINS_10io_service6strandEZN7asiopal13SocketChannel13BeginReadImplEN7openpal6WSliceEEUlRKSt10error_codemE_NS0_26is_continuation_if_runningEEESB_mEESE_EEE11do_completeEPNS0_15task_io_serviceEPNS0_25task_io_service_operationESD_m.cold:
.LFSB9343:
.L1224:
	.cfi_def_cfa_offset 176
	.cfi_offset 3, -24
	.cfi_offset 6, -16
	sfence
	movq	%rsp, %rdi
	call	_ZN4asio6detail18completion_handlerINS0_17rewrapped_handlerINS0_7binder2INS0_15wrapped_handlerINS_10io_service6strandEZN7asiopal13SocketChannel13BeginReadImplEN7openpal6WSliceEEUlRKSt10error_codemE_NS0_26is_continuation_if_runningEEESB_mEESE_EEE3ptr5resetEv
	movq	%rbp, %rdi
.LEHB15:
	call	_Unwind_Resume@PLT
.LEHE15:
	.cfi_endproc
.LFE9343:
	.section	.gcc_except_table
.LLSDAC9343:
	.byte	0xff
	.byte	0xff
	.byte	0x1
	.uleb128 .LLSDACSEC9343-.LLSDACSBC9343
.LLSDACSBC9343:
	.uleb128 .LEHB15-.LCOLDB28
	.uleb128 .LEHE15-.LEHB15
	.uleb128 0
	.uleb128 0
.LLSDACSEC9343:
	.section	.text.unlikely
	.text
	.size	_ZN4asio6detail18completion_handlerINS0_17rewrapped_handlerINS0_7binder2INS0_15wrapped_handlerINS_10io_service6strandEZN7asiopal13SocketChannel13BeginReadImplEN7openpal6WSliceEEUlRKSt10error_codemE_NS0_26is_continuation_if_runningEEESB_mEESE_EEE11do_completeEPNS0_15task_io_serviceEPNS0_25task_io_service_operationESD_m, .-_ZN4asio6detail18completion_handlerINS0_17rewrapped_handlerINS0_7binder2INS0_15wrapped_handlerINS_10io_service6strandEZN7asiopal13SocketChannel13BeginReadImplEN7openpal6WSliceEEUlRKSt10error_codemE_NS0_26is_continuation_if_runningEEESB_mEESE_EEE11do_completeEPNS0_15task_io_serviceEPNS0_25task_io_service_operationESD_m
	.section	.text.unlikely
	.size	_ZN4asio6detail18completion_handlerINS0_17rewrapped_handlerINS0_7binder2INS0_15wrapped_handlerINS_10io_service6strandEZN7asiopal13SocketChannel13BeginReadImplEN7openpal6WSliceEEUlRKSt10error_codemE_NS0_26is_continuation_if_runningEEESB_mEESE_EEE11do_completeEPNS0_15task_io_serviceEPNS0_25task_io_service_operationESD_m.cold, .-_ZN4asio6detail18completion_handlerINS0_17rewrapped_handlerINS0_7binder2INS0_15wrapped_handlerINS_10io_service6strandEZN7asiopal13SocketChannel13BeginReadImplEN7openpal6WSliceEEUlRKSt10error_codemE_NS0_26is_continuation_if_runningEEESB_mEESE_EEE11do_completeEPNS0_15task_io_serviceEPNS0_25task_io_service_operationESD_m.cold
.LCOLDE28:
	.text
.LHOTE28:
	.section	.text.unlikely
.LCOLDB29:
	.text
.LHOTB29:
	.p2align 4
	.type	_ZN4asio6detail23reactive_socket_recv_opINS_17mutable_buffers_1ENS0_15wrapped_handlerINS_10io_service6strandEZN7asiopal13SocketChannel13BeginReadImplEN7openpal6WSliceEEUlRKSt10error_codemE_NS0_26is_continuation_if_runningEEEE11do_completeEPNS0_15task_io_serviceEPNS0_25task_io_service_operationESC_m, @function
_ZN4asio6detail23reactive_socket_recv_opINS_17mutable_buffers_1ENS0_15wrapped_handlerINS_10io_service6strandEZN7asiopal13SocketChannel13BeginReadImplEN7openpal6WSliceEEUlRKSt10error_codemE_NS0_26is_continuation_if_runningEEEE11do_completeEPNS0_15task_io_serviceEPNS0_25task_io_service_operationESC_m:
.LFB8855:
	.cfi_startproc
	.cfi_personality 0x9b,DW.ref.__gxx_personality_v0
	.cfi_lsda 0x1b,.LLSDA8855
	endbr64
	pushq	%r14
	.cfi_def_cfa_offset 16
	.cfi_offset 14, -16
	pushq	%r13
	.cfi_def_cfa_offset 24
	.cfi_offset 13, -24
	pushq	%r12
	.cfi_def_cfa_offset 32
	.cfi_offset 12, -32
	pushq	%rbp
	.cfi_def_cfa_offset 40
	.cfi_offset 6, -40
	movq	%rsi, %rbp
	pushq	%rbx
	.cfi_def_cfa_offset 48
	.cfi_offset 3, -48
	movq	%rdi, %rbx
	subq	$448, %rsp
	.cfi_def_cfa_offset 496
	movdqu	88(%rsi), %xmm3
	movdqu	24(%rsi), %xmm4
	movq	%fs:40, %rax
	movq	%rax, 440(%rsp)
	xorl	%eax, %eax
	movq	104(%rsi), %rax
	movq	%rsi, 56(%rsp)
	movq	$0, 64(%rsp)
	movq	%rax, 208(%rsp)
	movq	40(%rsi), %rax
	movaps	%xmm3, 192(%rsp)
	movq	%rax, 232(%rsp)
	leaq	192(%rsp), %rax
	movq	%rax, 48(%rsp)
	movups	%xmm4, 216(%rsp)
	data16	leaq	_ZN4asio6detail15keyword_tss_ptrINS0_10call_stackINS0_15task_io_serviceENS0_27task_io_service_thread_infoEE7contextEE6value_E@tlsgd(%rip), %rdi
	.value	0x6666
	rex64
	call	__tls_get_addr@PLT
	movq	(%rax), %rax
	testq	%rax, %rax
	je	.L1240
	movq	8(%rax), %rax
	testq	%rax, %rax
	je	.L1240
	cmpq	$0, (%rax)
	je	.L1363
.L1240:
	movq	%rbp, %rdi
	call	_ZdlPv@PLT
.L1241:
	movq	$0, 56(%rsp)
	testq	%rbx, %rbx
	je	.L1239
	movq	208(%rsp), %rax
	movq	232(%rsp), %rbx
	movq	192(%rsp), %r12
	movq	200(%rsp), %rbp
	movdqa	192(%rsp), %xmm1
	movq	%rax, 240(%rsp)
	movdqu	216(%rsp), %xmm0
	movq	%rax, 264(%rsp)
	movq	%rax, 368(%rsp)
	movq	%rax, 392(%rsp)
	movq	%rbx, 416(%rsp)
	movups	%xmm1, 248(%rsp)
	movaps	%xmm0, 272(%rsp)
	movups	%xmm1, 376(%rsp)
	movaps	%xmm0, 400(%rsp)
	data16	leaq	_ZN4asio6detail15keyword_tss_ptrINS0_10call_stackINS0_14strand_service11strand_implEhE7contextEE6value_E@tlsgd(%rip), %rdi
	.value	0x6666
	rex64
	call	__tls_get_addr@PLT
	movq	(%rax), %rax
	testq	%rax, %rax
	jne	.L1246
	jmp	.L1243
	.p2align 4,,10
	.p2align 3
.L1244:
	movq	16(%rax), %rax
	testq	%rax, %rax
	je	.L1243
.L1246:
	cmpq	(%rax), %rbp
	jne	.L1244
	cmpq	$0, 8(%rax)
	je	.L1243
	lfence
	movq	392(%rsp), %rax
	leaq	304(%rsp), %rdx
	leaq	384(%rsp), %rsi
	movq	376(%rsp), %rdi
	movq	%rbx, 328(%rsp)
	movq	%rax, 304(%rsp)
	movl	400(%rsp), %eax
	movl	%eax, 312(%rsp)
	movq	408(%rsp), %rax
	movq	%rax, 320(%rsp)
.LEHB16:
	call	_ZN4asio6detail14strand_service8dispatchINS0_7binder2IZN7asiopal13SocketChannel13BeginReadImplEN7openpal6WSliceEEUlRKSt10error_codemE_S8_mEEEEvRPNS1_11strand_implERT_
.LEHE16:
	sfence
	sfence
.L1239:
	movq	440(%rsp), %rax
	subq	%fs:40, %rax
	jne	.L1362
	addq	$448, %rsp
	.cfi_remember_state
	.cfi_def_cfa_offset 48
	popq	%rbx
	.cfi_def_cfa_offset 40
	popq	%rbp
	.cfi_def_cfa_offset 32
	popq	%r12
	.cfi_def_cfa_offset 24
	popq	%r13
	.cfi_def_cfa_offset 16
	popq	%r14
	.cfi_def_cfa_offset 8
	ret
	.p2align 4,,10
	.p2align 3
.L1243:
	.cfi_restore_state
	data16	leaq	_ZN4asio6detail15keyword_tss_ptrINS0_10call_stackINS0_15task_io_serviceENS0_27task_io_service_thread_infoEE7contextEE6value_E@tlsgd(%rip), %rdi
	.value	0x6666
	rex64
	call	__tls_get_addr@PLT
	movq	(%rax), %rax
	testq	%rax, %rax
	je	.L1248
	movq	8(%rax), %rax
	testq	%rax, %rax
	je	.L1248
	movq	(%rax), %rbp
	testq	%rbp, %rbp
	je	.L1248
	movq	$0, (%rax)
	movzbl	0(%rbp), %eax
	cmpb	$79, %al
	jbe	.L1249
	movb	%al, 80(%rbp)
	jmp	.L1250
	.p2align 4,,10
	.p2align 3
.L1249:
	movq	%rbp, %rdi
	call	_ZdlPv@PLT
.L1248:
	movl	$81, %edi
.LEHB17:
	call	_Znwm@PLT
.LEHE17:
	movb	$80, 80(%rax)
	movq	%rax, %rbp
.L1250:
	leaq	_ZN4asio6detail18completion_handlerINS0_17rewrapped_handlerINS0_7binder2INS0_15wrapped_handlerINS_10io_service6strandEZN7asiopal13SocketChannel13BeginReadImplEN7openpal6WSliceEEUlRKSt10error_codemE_NS0_26is_continuation_if_runningEEESB_mEESE_EEE11do_completeEPNS0_15task_io_serviceEPNS0_25task_io_service_operationESD_m(%rip), %rax
	movq	%rbx, 72(%rbp)
	movdqu	376(%rsp), %xmm6
	movq	%rbp, %xmm2
	movq	%rax, 8(%rbp)
	punpcklqdq	%xmm2, %xmm2
	movq	368(%rsp), %rax
	movdqa	400(%rsp), %xmm7
	movups	%xmm6, 32(%rbp)
	movq	40(%r12), %rbx
	movq	%rax, 24(%rbp)
	movq	392(%rsp), %rax
	movq	$0, 0(%rbp)
	movl	$0, 16(%rbp)
	movq	%rax, 48(%rbp)
	movups	%xmm7, 56(%rbp)
	movaps	%xmm2, (%rsp)
	data16	leaq	_ZN4asio6detail15keyword_tss_ptrINS0_10call_stackINS0_15task_io_serviceENS0_27task_io_service_thread_infoEE7contextEE6value_E@tlsgd(%rip), %rdi
	.value	0x6666
	rex64
	call	__tls_get_addr@PLT
	movq	(%rax), %rax
	testq	%rax, %rax
	jne	.L1255
	jmp	.L1251
	.p2align 4,,10
	.p2align 3
.L1252:
	movq	16(%rax), %rax
	testq	%rax, %rax
	je	.L1251
.L1255:
	cmpq	(%rax), %rbx
	jne	.L1252
	movq	8(%rax), %rbx
	movq	200(%rsp), %rax
	leaq	24(%rax), %rdi
	call	pthread_mutex_lock@PLT
	testq	%rbx, %rbx
	je	.L1254
	movq	200(%rsp), %rax
	cmpb	$0, 64(%rax)
	leaq	24(%rax), %rdi
	je	.L1364
.L1256:
	movq	$0, 0(%rbp)
	movq	80(%rax), %rdx
	testq	%rdx, %rdx
	je	.L1260
	movq	%rbp, (%rdx)
	movq	%rbp, 80(%rax)
.L1261:
	call	pthread_mutex_unlock@PLT
	sfence
	jmp	.L1239
.L1364:
	movb	$1, 64(%rax)
	leaq	304(%rsp), %r13
	call	pthread_mutex_unlock@PLT
	movq	200(%rsp), %rbx
	movq	%rbx, %xmm5
	movq	%rbx, 80(%rsp)
	punpcklqdq	%xmm5, %xmm5
	movaps	%xmm5, (%rsp)
	data16	leaq	_ZN4asio6detail15keyword_tss_ptrINS0_10call_stackINS0_14strand_service11strand_implEhE7contextEE6value_E@tlsgd(%rip), %rdi
	.value	0x6666
	rex64
	call	__tls_get_addr@PLT
	movq	40(%r12), %r12
	movq	%rbx, %xmm7
	movdqu	32(%rbp), %xmm5
	movq	%rbp, 120(%rsp)
	movq	%r12, %xmm0
	movq	%r13, 112(%rsp)
	movq	$0, 128(%rsp)
	punpcklqdq	%xmm7, %xmm0
	movdqu	56(%rbp), %xmm7
	movaps	%xmm0, 32(%rsp)
	movq	(%rax), %rdx
	movq	%rdx, 96(%rsp)
	leaq	80(%rsp), %rdx
	movq	%rdx, (%rax)
	movq	24(%rbp), %rax
	movq	%rdx, 88(%rsp)
	movq	%rax, 304(%rsp)
	movq	48(%rbp), %rax
	movups	%xmm5, 312(%rsp)
	movq	%rax, 328(%rsp)
	movq	72(%rbp), %rax
	movaps	%xmm7, 336(%rsp)
	movq	%rax, 352(%rsp)
	data16	leaq	_ZN4asio6detail15keyword_tss_ptrINS0_10call_stackINS0_15task_io_serviceENS0_27task_io_service_thread_infoEE7contextEE6value_E@tlsgd(%rip), %rdi
	.value	0x6666
	rex64
	call	__tls_get_addr@PLT
	movq	(%rax), %rax
	testq	%rax, %rax
	je	.L1258
	movq	8(%rax), %rax
	testq	%rax, %rax
	je	.L1258
	cmpq	$0, (%rax)
	je	.L1365
.L1258:
	movq	%rbp, %rdi
	call	_ZdlPv@PLT
.L1275:
	movq	$0, 120(%rsp)
	testq	%r12, %r12
	je	.L1276
	movq	328(%rsp), %rax
	movq	312(%rsp), %rdi
	leaq	144(%rsp), %rdx
	leaq	320(%rsp), %rsi
	movq	%rax, 144(%rsp)
	movl	336(%rsp), %eax
	movl	%eax, 152(%rsp)
	movq	344(%rsp), %rax
	movq	%rax, 160(%rsp)
	movq	352(%rsp), %rax
	movq	%rax, 168(%rsp)
.LEHB18:
	call	_ZN4asio6detail14strand_service8dispatchINS0_7binder2IZN7asiopal13SocketChannel13BeginReadImplEN7openpal6WSliceEEUlRKSt10error_codemE_S8_mEEEEvRPNS1_11strand_implERT_
.LEHE18:
	sfence
.L1276:
	leaq	24(%rbx), %r14
	movq	%r14, %rdi
	call	pthread_mutex_lock@PLT
	movq	72(%rbx), %rbp
	testq	%rbp, %rbp
	je	.L1366
	movq	96(%rbx), %rax
	testq	%rax, %rax
	je	.L1281
	movq	%rbp, (%rax)
	movq	88(%rbx), %rbp
.L1282:
	movq	80(%rbx), %rax
	pxor	%xmm0, %xmm0
	movups	%xmm0, 72(%rbx)
	movq	%rax, 96(%rbx)
.L1278:
	testq	%rbp, %rbp
	movq	%r14, %rdi
	setne	64(%rbx)
	call	pthread_mutex_unlock@PLT
	testq	%rbp, %rbp
	jne	.L1283
.L1361:
	data16	leaq	_ZN4asio6detail15keyword_tss_ptrINS0_10call_stackINS0_14strand_service11strand_implEhE7contextEE6value_E@tlsgd(%rip), %rdi
	.value	0x6666
	rex64
	call	__tls_get_addr@PLT
	movq	96(%rsp), %rdx
	movq	%rdx, (%rax)
	sfence
	jmp	.L1239
	.p2align 4,,10
	.p2align 3
.L1363:
	movzbl	112(%rbp), %edx
	movb	%dl, 0(%rbp)
	movq	%rbp, (%rax)
	jmp	.L1241
	.p2align 4,,10
	.p2align 3
.L1260:
	movdqa	(%rsp), %xmm6
	movups	%xmm6, 72(%rax)
	jmp	.L1261
	.p2align 4,,10
	.p2align 3
.L1251:
	movq	200(%rsp), %rax
	leaq	24(%rax), %rdi
	call	pthread_mutex_lock@PLT
.L1254:
	movq	200(%rsp), %rax
	cmpb	$0, 64(%rax)
	leaq	24(%rax), %rdi
	jne	.L1256
	movb	$1, 64(%rax)
	call	pthread_mutex_unlock@PLT
	movq	200(%rsp), %r13
	movq	$0, 0(%rbp)
	movq	%r13, %xmm6
	cmpq	$0, 96(%r13)
	punpcklqdq	%xmm6, %xmm6
	movaps	%xmm6, 16(%rsp)
	je	.L1262
	movq	96(%r13), %rax
	movq	%rbp, (%rax)
	movq	%rbp, 96(%r13)
.L1263:
	movq	40(%r12), %rbx
	cmpb	$0, 40(%rbx)
	je	.L1264
	data16	leaq	_ZN4asio6detail15keyword_tss_ptrINS0_10call_stackINS0_15task_io_serviceENS0_27task_io_service_thread_infoEE7contextEE6value_E@tlsgd(%rip), %rdi
	.value	0x6666
	rex64
	call	__tls_get_addr@PLT
	movq	(%rax), %rax
	testq	%rax, %rax
	jne	.L1267
	jmp	.L1264
	.p2align 4,,10
	.p2align 3
.L1265:
	movq	16(%rax), %rax
	testq	%rax, %rax
	je	.L1264
.L1267:
	cmpq	(%rax), %rbx
	jne	.L1265
	movq	8(%rax), %rax
	testq	%rax, %rax
	je	.L1264
	addq	$1, 24(%rax)
	movq	$0, 0(%r13)
	movq	16(%rax), %rdx
	testq	%rdx, %rdx
	je	.L1268
	movq	%r13, (%rdx)
	movq	%r13, 16(%rax)
	sfence
	jmp	.L1239
	.p2align 4,,10
	.p2align 3
.L1264:
	lock addq	$1, 184(%rbx)
	leaq	48(%rbx), %rbp
	movq	%rbp, %rdi
	call	pthread_mutex_lock@PLT
	cmpq	$0, 200(%rbx)
	movq	$0, 0(%r13)
	je	.L1269
	movq	200(%rbx), %rax
	movq	%r13, (%rax)
	movq	%r13, 200(%rbx)
.L1270:
	movq	136(%rbx), %rax
	orq	$1, %rax
	movq	%rax, 136(%rbx)
	cmpq	$1, %rax
	je	.L1271
	movq	%rbp, %rdi
	call	pthread_mutex_unlock@PLT
	leaq	88(%rbx), %rdi
	call	pthread_cond_signal@PLT
	jmp	.L1272
.L1271:
	cmpb	$0, 176(%rbx)
	je	.L1367
.L1273:
	movq	%rbp, %rdi
	call	pthread_mutex_unlock@PLT
.L1272:
	movq	64(%rsp), %rbx
	movq	56(%rsp), %rbp
.L1274:
	sfence
	testq	%rbx, %rbx
	je	.L1295
	movq	$0, 64(%rsp)
.L1295:
	testq	%rbp, %rbp
	je	.L1239
	data16	leaq	_ZN4asio6detail15keyword_tss_ptrINS0_10call_stackINS0_15task_io_serviceENS0_27task_io_service_thread_infoEE7contextEE6value_E@tlsgd(%rip), %rdi
	.value	0x6666
	rex64
	call	__tls_get_addr@PLT
	movq	(%rax), %rax
	testq	%rax, %rax
	je	.L1298
	movq	8(%rax), %rax
	testq	%rax, %rax
	je	.L1298
	cmpq	$0, (%rax)
	je	.L1368
.L1298:
	movq	440(%rsp), %rax
	subq	%fs:40, %rax
	jne	.L1362
	addq	$448, %rsp
	.cfi_remember_state
	.cfi_def_cfa_offset 48
	movq	%rbp, %rdi
	popq	%rbx
	.cfi_def_cfa_offset 40
	popq	%rbp
	.cfi_def_cfa_offset 32
	popq	%r12
	.cfi_def_cfa_offset 24
	popq	%r13
	.cfi_def_cfa_offset 16
	popq	%r14
	.cfi_def_cfa_offset 8
	jmp	_ZdlPv@PLT
	.p2align 4,,10
	.p2align 3
.L1368:
	.cfi_restore_state
	movzbl	112(%rbp), %edx
	movb	%dl, 0(%rbp)
	movq	%rbp, (%rax)
	jmp	.L1239
	.p2align 4,,10
	.p2align 3
.L1283:
	cmpb	$0, 40(%r12)
	je	.L1284
	data16	leaq	_ZN4asio6detail15keyword_tss_ptrINS0_10call_stackINS0_15task_io_serviceENS0_27task_io_service_thread_infoEE7contextEE6value_E@tlsgd(%rip), %rdi
	.value	0x6666
	rex64
	call	__tls_get_addr@PLT
	movq	(%rax), %rax
	testq	%rax, %rax
	jne	.L1287
	jmp	.L1284
	.p2align 4,,10
	.p2align 3
.L1285:
	movq	16(%rax), %rax
	testq	%rax, %rax
	je	.L1284
.L1287:
	cmpq	(%rax), %r12
	jne	.L1285
	movq	8(%rax), %rax
	testq	%rax, %rax
	je	.L1284
	addq	$1, 24(%rax)
	movq	$0, (%rbx)
	movq	16(%rax), %rdx
	testq	%rdx, %rdx
	je	.L1288
	movq	%rbx, (%rdx)
	movq	%rbx, 16(%rax)
	data16	leaq	_ZN4asio6detail15keyword_tss_ptrINS0_10call_stackINS0_14strand_service11strand_implEhE7contextEE6value_E@tlsgd(%rip), %rdi
	.value	0x6666
	rex64
	call	__tls_get_addr@PLT
	movq	96(%rsp), %rdx
	movq	%rdx, (%rax)
	sfence
	jmp	.L1239
.L1284:
	lock addq	$1, 184(%r12)
	leaq	48(%r12), %rbp
	movq	%rbp, %rdi
	call	pthread_mutex_lock@PLT
	movq	$0, (%rbx)
	cmpq	$0, 200(%r12)
	je	.L1289
	movq	200(%r12), %rax
	movq	%rbx, (%rax)
	movq	%rbx, 200(%r12)
.L1290:
	movq	136(%r12), %rax
	orq	$1, %rax
	movq	%rax, 136(%r12)
	cmpq	$1, %rax
	je	.L1291
	movq	%rbp, %rdi
	call	pthread_mutex_unlock@PLT
	leaq	88(%r12), %rdi
	call	pthread_cond_signal@PLT
.L1292:
	data16	leaq	_ZN4asio6detail15keyword_tss_ptrINS0_10call_stackINS0_14strand_service11strand_implEhE7contextEE6value_E@tlsgd(%rip), %rdi
	.value	0x6666
	rex64
	call	__tls_get_addr@PLT
	movq	96(%rsp), %rdx
	movq	64(%rsp), %rbx
	movq	56(%rsp), %rbp
	movq	%rdx, (%rax)
	jmp	.L1274
	.p2align 4,,10
	.p2align 3
.L1366:
	movq	88(%rbx), %rbp
	jmp	.L1278
.L1367:
	movq	144(%rbx), %rax
	testq	%rax, %rax
	je	.L1273
	movb	$1, 176(%rbx)
	leaq	88(%rax), %rdx
	movl	$3, %esi
	leaq	304(%rsp), %rcx
	movq	%rdx, 308(%rsp)
	movl	88(%rax), %edx
	movl	$-2147483639, 304(%rsp)
	movl	96(%rax), %edi
	call	epoll_ctl@PLT
	jmp	.L1273
.L1289:
	movdqa	(%rsp), %xmm5
	movups	%xmm5, 192(%r12)
	jmp	.L1290
.L1281:
	movq	%rbp, 88(%rbx)
	jmp	.L1282
.L1291:
	cmpb	$0, 176(%r12)
	jne	.L1293
	movq	144(%r12), %rax
	testq	%rax, %rax
	je	.L1293
	movb	$1, 176(%r12)
	leaq	88(%rax), %rdx
	movq	%r13, %rcx
	movl	$3, %esi
	movq	%rdx, 308(%rsp)
	movl	88(%rax), %edx
	movl	$-2147483639, 304(%rsp)
	movl	96(%rax), %edi
	call	epoll_ctl@PLT
.L1293:
	movq	%rbp, %rdi
	call	pthread_mutex_unlock@PLT
	jmp	.L1292
.L1262:
	movdqa	(%rsp), %xmm5
	movups	%xmm5, 88(%r13)
	jmp	.L1263
.L1269:
	movdqa	16(%rsp), %xmm5
	movups	%xmm5, 192(%rbx)
	jmp	.L1270
.L1365:
	movzbl	80(%rbp), %edx
	movb	%dl, 0(%rbp)
	movq	%rbp, (%rax)
	jmp	.L1275
.L1268:
	movdqa	16(%rsp), %xmm6
	movups	%xmm6, 8(%rax)
	sfence
	jmp	.L1239
.L1288:
	movdqa	(%rsp), %xmm5
	movups	%xmm5, 8(%rax)
	jmp	.L1361
.L1362:
	call	__stack_chk_fail@PLT
.L1301:
	endbr64
	movq	%rax, %rbp
	jmp	.L1280
.L1303:
	endbr64
	movq	%rax, %rbp
	jmp	.L1279
.L1302:
	endbr64
	movq	%rax, %rbp
	jmp	.L1296
	.section	.gcc_except_table
.LLSDA8855:
	.byte	0xff
	.byte	0xff
	.byte	0x1
	.uleb128 .LLSDACSE8855-.LLSDACSB8855
.LLSDACSB8855:
	.uleb128 .LEHB16-.LFB8855
	.uleb128 .LEHE16-.LEHB16
	.uleb128 .L1302-.LFB8855
	.uleb128 0
	.uleb128 .LEHB17-.LFB8855
	.uleb128 .LEHE17-.LEHB17
	.uleb128 .L1301-.LFB8855
	.uleb128 0
	.uleb128 .LEHB18-.LFB8855
	.uleb128 .LEHE18-.LEHB18
	.uleb128 .L1303-.LFB8855
	.uleb128 0
.LLSDACSE8855:
	.text
	.cfi_endproc
	.section	.text.unlikely
	.cfi_startproc
	.cfi_personality 0x9b,DW.ref.__gxx_personality_v0
	.cfi_lsda 0x1b,.LLSDAC8855
	.type	_ZN4asio6detail23reactive_socket_recv_opINS_17mutable_buffers_1ENS0_15wrapped_handlerINS_10io_service6strandEZN7asiopal13SocketChannel13BeginReadImplEN7openpal6WSliceEEUlRKSt10error_codemE_NS0_26is_continuation_if_runningEEEE11do_completeEPNS0_15task_io_serviceEPNS0_25task_io_service_operationESC_m.cold, @function
_ZN4asio6detail23reactive_socket_recv_opINS_17mutable_buffers_1ENS0_15wrapped_handlerINS_10io_service6strandEZN7asiopal13SocketChannel13BeginReadImplEN7openpal6WSliceEEUlRKSt10error_codemE_NS0_26is_continuation_if_runningEEEE11do_completeEPNS0_15task_io_serviceEPNS0_25task_io_service_operationESC_m.cold:
.LFSB8855:
.L1279:
	.cfi_def_cfa_offset 496
	.cfi_offset 3, -48
	.cfi_offset 6, -40
	.cfi_offset 12, -32
	.cfi_offset 13, -24
	.cfi_offset 14, -16
	sfence
	leaq	112(%rsp), %rdi
	call	_ZN4asio6detail18completion_handlerINS0_17rewrapped_handlerINS0_7binder2INS0_15wrapped_handlerINS_10io_service6strandEZN7asiopal13SocketChannel13BeginReadImplEN7openpal6WSliceEEUlRKSt10error_codemE_NS0_26is_continuation_if_runningEEESB_mEESE_EEE3ptr5resetEv
	leaq	32(%rsp), %rdi
	call	_ZN4asio6detail14strand_service16on_dispatch_exitD1Ev@PLT
	data16	leaq	_ZN4asio6detail15keyword_tss_ptrINS0_10call_stackINS0_14strand_service11strand_implEhE7contextEE6value_E@tlsgd(%rip), %rdi
	.value	0x6666
	rex64
	call	__tls_get_addr@PLT
	movq	96(%rsp), %rdx
	movq	%rdx, (%rax)
.L1280:
	sfence
	leaq	48(%rsp), %rdi
	call	_ZN4asio6detail23reactive_socket_recv_opINS_17mutable_buffers_1ENS0_15wrapped_handlerINS_10io_service6strandEZN7asiopal13SocketChannel13BeginReadImplEN7openpal6WSliceEEUlRKSt10error_codemE_NS0_26is_continuation_if_runningEEEE3ptr5resetEv
	movq	%rbp, %rdi
.LEHB19:
	call	_Unwind_Resume@PLT
.LEHE19:
.L1296:
	sfence
	jmp	.L1280
	.cfi_endproc
.LFE8855:
	.section	.gcc_except_table
.LLSDAC8855:
	.byte	0xff
	.byte	0xff
	.byte	0x1
	.uleb128 .LLSDACSEC8855-.LLSDACSBC8855
.LLSDACSBC8855:
	.uleb128 .LEHB19-.LCOLDB29
	.uleb128 .LEHE19-.LEHB19
	.uleb128 0
	.uleb128 0
.LLSDACSEC8855:
	.section	.text.unlikely
	.text
	.size	_ZN4asio6detail23reactive_socket_recv_opINS_17mutable_buffers_1ENS0_15wrapped_handlerINS_10io_service6strandEZN7asiopal13SocketChannel13BeginReadImplEN7openpal6WSliceEEUlRKSt10error_codemE_NS0_26is_continuation_if_runningEEEE11do_completeEPNS0_15task_io_serviceEPNS0_25task_io_service_operationESC_m, .-_ZN4asio6detail23reactive_socket_recv_opINS_17mutable_buffers_1ENS0_15wrapped_handlerINS_10io_service6strandEZN7asiopal13SocketChannel13BeginReadImplEN7openpal6WSliceEEUlRKSt10error_codemE_NS0_26is_continuation_if_runningEEEE11do_completeEPNS0_15task_io_serviceEPNS0_25task_io_service_operationESC_m
	.section	.text.unlikely
	.size	_ZN4asio6detail23reactive_socket_recv_opINS_17mutable_buffers_1ENS0_15wrapped_handlerINS_10io_service6strandEZN7asiopal13SocketChannel13BeginReadImplEN7openpal6WSliceEEUlRKSt10error_codemE_NS0_26is_continuation_if_runningEEEE11do_completeEPNS0_15task_io_serviceEPNS0_25task_io_service_operationESC_m.cold, .-_ZN4asio6detail23reactive_socket_recv_opINS_17mutable_buffers_1ENS0_15wrapped_handlerINS_10io_service6strandEZN7asiopal13SocketChannel13BeginReadImplEN7openpal6WSliceEEUlRKSt10error_codemE_NS0_26is_continuation_if_runningEEEE11do_completeEPNS0_15task_io_serviceEPNS0_25task_io_service_operationESC_m.cold
.LCOLDE29:
	.text
.LHOTE29:
	.section	.text.unlikely
	.align 2
.LCOLDB30:
	.text
.LHOTB30:
	.align 2
	.p2align 4
	.type	_ZN4asio6detail14strand_service8dispatchINS0_7binder2IZN7asiopal13SocketChannel14BeginWriteImplERKN7openpal6RSliceEEUlRKSt10error_codemE_SA_mEEEEvRPNS1_11strand_implERT_.constprop.0, @function
_ZN4asio6detail14strand_service8dispatchINS0_7binder2IZN7asiopal13SocketChannel14BeginWriteImplERKN7openpal6RSliceEEUlRKSt10error_codemE_SA_mEEEEvRPNS1_11strand_implERT_.constprop.0:
.LFB9649:
	.cfi_startproc
	.cfi_personality 0x9b,DW.ref.__gxx_personality_v0
	.cfi_lsda 0x1b,.LLSDA9649
	pushq	%r14
	.cfi_def_cfa_offset 16
	.cfi_offset 14, -16
	pushq	%r13
	.cfi_def_cfa_offset 24
	.cfi_offset 13, -24
	movq	%rdi, %r13
	pushq	%r12
	.cfi_def_cfa_offset 32
	.cfi_offset 12, -32
	movq	%rsi, %r12
	pushq	%rbp
	.cfi_def_cfa_offset 40
	.cfi_offset 6, -40
	movq	%rdx, %rbp
	pushq	%rbx
	.cfi_def_cfa_offset 48
	.cfi_offset 3, -48
	subq	$160, %rsp
	.cfi_def_cfa_offset 208
	movq	(%rsi), %rbx
	movq	%fs:40, %rax
	movq	%rax, 152(%rsp)
	xorl	%eax, %eax
	data16	leaq	_ZN4asio6detail15keyword_tss_ptrINS0_10call_stackINS0_14strand_service11strand_implEhE7contextEE6value_E@tlsgd(%rip), %rdi
	.value	0x6666
	rex64
	call	__tls_get_addr@PLT
	movq	(%rax), %rax
	testq	%rax, %rax
	jne	.L1373
	jmp	.L1370
	.p2align 4,,10
	.p2align 3
.L1371:
	movq	16(%rax), %rax
	testq	%rax, %rax
	je	.L1370
.L1373:
	cmpq	(%rax), %rbx
	jne	.L1371
	cmpq	$0, 8(%rax)
	je	.L1370
	lfence
	movq	0(%rbp), %rax
	movq	24(%rbp), %rdx
	movq	40(%rax), %rdi
	movb	$0, 58(%rax)
	testq	%rdi, %rdi
	je	.L1376
	cmpb	$0, 56(%rax)
	jne	.L1376
	movq	(%rdi), %rax
	leaq	8(%rbp), %rsi
.LEHB20:
	call	*24(%rax)
.LEHE20:
.L1376:
	sfence
.L1369:
	movq	152(%rsp), %rax
	subq	%fs:40, %rax
	jne	.L1472
	addq	$160, %rsp
	.cfi_remember_state
	.cfi_def_cfa_offset 48
	popq	%rbx
	.cfi_def_cfa_offset 40
	popq	%rbp
	.cfi_def_cfa_offset 32
	popq	%r12
	.cfi_def_cfa_offset 24
	popq	%r13
	.cfi_def_cfa_offset 16
	popq	%r14
	.cfi_def_cfa_offset 8
	ret
	.p2align 4,,10
	.p2align 3
.L1370:
	.cfi_restore_state
	data16	leaq	_ZN4asio6detail15keyword_tss_ptrINS0_10call_stackINS0_15task_io_serviceENS0_27task_io_service_thread_infoEE7contextEE6value_E@tlsgd(%rip), %rdi
	.value	0x6666
	rex64
	call	__tls_get_addr@PLT
	movq	(%rax), %rax
	testq	%rax, %rax
	je	.L1377
	movq	8(%rax), %rax
	testq	%rax, %rax
	je	.L1377
	movq	(%rax), %r14
	testq	%r14, %r14
	je	.L1377
	movq	$0, (%rax)
	movzbl	(%r14), %eax
	cmpb	$55, %al
	jbe	.L1378
	movb	%al, 56(%r14)
	jmp	.L1379
.L1378:
	movq	%r14, %rdi
	call	_ZdlPv@PLT
.L1377:
	movl	$57, %edi
.LEHB21:
	call	_Znwm@PLT
.LEHE21:
	movb	$56, 56(%rax)
	movq	%rax, %r14
.L1379:
	leaq	_ZN4asio6detail18completion_handlerINS0_7binder2IZN7asiopal13SocketChannel14BeginWriteImplERKN7openpal6RSliceEEUlRKSt10error_codemE_S9_mEEE11do_completeEPNS0_15task_io_serviceEPNS0_25task_io_service_operationESB_m(%rip), %rax
	movdqu	0(%rbp), %xmm3
	movdqu	16(%rbp), %xmm4
	movq	$0, (%r14)
	movq	%rax, 8(%r14)
	movq	%r14, %xmm1
	movq	40(%r13), %rbx
	movl	$0, 16(%r14)
	punpcklqdq	%xmm1, %xmm1
	movups	%xmm3, 24(%r14)
	movups	%xmm4, 40(%r14)
	movaps	%xmm1, (%rsp)
	data16	leaq	_ZN4asio6detail15keyword_tss_ptrINS0_10call_stackINS0_15task_io_serviceENS0_27task_io_service_thread_infoEE7contextEE6value_E@tlsgd(%rip), %rdi
	.value	0x6666
	rex64
	call	__tls_get_addr@PLT
	movq	(%rax), %rax
	testq	%rax, %rax
	jne	.L1384
	jmp	.L1380
	.p2align 4,,10
	.p2align 3
.L1381:
	movq	16(%rax), %rax
	testq	%rax, %rax
	je	.L1380
.L1384:
	cmpq	(%rax), %rbx
	jne	.L1381
	movq	8(%rax), %rbx
	movq	(%r12), %rax
	leaq	24(%rax), %rdi
	call	pthread_mutex_lock@PLT
	testq	%rbx, %rbx
	je	.L1383
	movq	(%r12), %rdi
	cmpb	$0, 64(%rdi)
	je	.L1473
.L1385:
	movq	$0, (%r14)
	movq	80(%rdi), %rax
	testq	%rax, %rax
	je	.L1389
	movq	%r14, (%rax)
	movq	%r14, 80(%rdi)
.L1390:
	movq	152(%rsp), %rax
	subq	%fs:40, %rax
	jne	.L1472
	addq	$24, %rdi
.L1471:
	addq	$160, %rsp
	.cfi_remember_state
	.cfi_def_cfa_offset 48
	popq	%rbx
	.cfi_def_cfa_offset 40
	popq	%rbp
	.cfi_def_cfa_offset 32
	popq	%r12
	.cfi_def_cfa_offset 24
	popq	%r13
	.cfi_def_cfa_offset 16
	popq	%r14
	.cfi_def_cfa_offset 8
	jmp	pthread_mutex_unlock@PLT
.L1473:
	.cfi_restore_state
	movb	$1, 64(%rdi)
	addq	$24, %rdi
	call	pthread_mutex_unlock@PLT
	movq	(%r12), %rbx
	movq	%rbx, %xmm2
	movq	%rbx, 48(%rsp)
	punpcklqdq	%xmm2, %xmm2
	movaps	%xmm2, (%rsp)
	data16	leaq	_ZN4asio6detail15keyword_tss_ptrINS0_10call_stackINS0_14strand_service11strand_implEhE7contextEE6value_E@tlsgd(%rip), %rdi
	.value	0x6666
	rex64
	call	__tls_get_addr@PLT
	movq	40(%r13), %rbp
	movdqu	24(%r14), %xmm7
	movq	%rbx, %xmm6
	leaq	112(%rsp), %r13
	movq	%r14, 88(%rsp)
	movq	%rbp, %xmm0
	movaps	%xmm7, 112(%rsp)
	punpcklqdq	%xmm6, %xmm0
	movdqu	40(%r14), %xmm6
	movq	%r13, 80(%rsp)
	movq	$0, 96(%rsp)
	movaps	%xmm0, 32(%rsp)
	movq	(%rax), %rdx
	movaps	%xmm6, 128(%rsp)
	movq	%rdx, 64(%rsp)
	leaq	48(%rsp), %rdx
	movq	%rdx, (%rax)
	movq	%rdx, 56(%rsp)
	data16	leaq	_ZN4asio6detail15keyword_tss_ptrINS0_10call_stackINS0_15task_io_serviceENS0_27task_io_service_thread_infoEE7contextEE6value_E@tlsgd(%rip), %rdi
	.value	0x6666
	rex64
	call	__tls_get_addr@PLT
	movq	(%rax), %rax
	testq	%rax, %rax
	je	.L1387
	movq	8(%rax), %rax
	testq	%rax, %rax
	je	.L1387
	cmpq	$0, (%rax)
	je	.L1474
.L1387:
	movq	%r14, %rdi
	call	_ZdlPv@PLT
.L1406:
	movq	$0, 88(%rsp)
	testq	%rbp, %rbp
	je	.L1407
	movq	112(%rsp), %rax
	movq	136(%rsp), %rdx
	movq	40(%rax), %rdi
	movb	$0, 58(%rax)
	testq	%rdi, %rdi
	je	.L1409
	cmpb	$0, 56(%rax)
	je	.L1475
.L1409:
	sfence
.L1407:
	leaq	24(%rbx), %r14
	movq	%r14, %rdi
	call	pthread_mutex_lock@PLT
	movq	72(%rbx), %r12
	testq	%r12, %r12
	je	.L1476
	movq	96(%rbx), %rax
	testq	%rax, %rax
	je	.L1413
	movq	%r12, (%rax)
	movq	88(%rbx), %r12
.L1414:
	movq	80(%rbx), %rax
	pxor	%xmm0, %xmm0
	movups	%xmm0, 72(%rbx)
	movq	%rax, 96(%rbx)
.L1411:
	testq	%r12, %r12
	movq	%r14, %rdi
	setne	64(%rbx)
	call	pthread_mutex_unlock@PLT
	testq	%r12, %r12
	jne	.L1477
.L1415:
	data16	leaq	_ZN4asio6detail15keyword_tss_ptrINS0_10call_stackINS0_14strand_service11strand_implEhE7contextEE6value_E@tlsgd(%rip), %rdi
	.value	0x6666
	rex64
	call	__tls_get_addr@PLT
	movq	64(%rsp), %rdx
	movq	%rdx, (%rax)
	jmp	.L1369
	.p2align 4,,10
	.p2align 3
.L1380:
	movq	(%r12), %rax
	leaq	24(%rax), %rdi
	call	pthread_mutex_lock@PLT
.L1383:
	movq	(%r12), %rdi
	cmpb	$0, 64(%rdi)
	leaq	24(%rdi), %r8
	jne	.L1385
	movb	$1, 64(%rdi)
	movq	%r8, %rdi
	call	pthread_mutex_unlock@PLT
	movq	(%r12), %rbp
	movq	$0, (%r14)
	movq	%rbp, %xmm5
	cmpq	$0, 96(%rbp)
	punpcklqdq	%xmm5, %xmm5
	movaps	%xmm5, 16(%rsp)
	je	.L1392
	movq	96(%rbp), %rax
	movq	%r14, (%rax)
	movq	%r14, 96(%rbp)
.L1393:
	movq	40(%r13), %rbx
	cmpb	$0, 40(%rbx)
	je	.L1394
	data16	leaq	_ZN4asio6detail15keyword_tss_ptrINS0_10call_stackINS0_15task_io_serviceENS0_27task_io_service_thread_infoEE7contextEE6value_E@tlsgd(%rip), %rdi
	.value	0x6666
	rex64
	call	__tls_get_addr@PLT
	movq	(%rax), %rax
	testq	%rax, %rax
	jne	.L1397
	jmp	.L1394
	.p2align 4,,10
	.p2align 3
.L1395:
	movq	16(%rax), %rax
	testq	%rax, %rax
	je	.L1394
.L1397:
	cmpq	(%rax), %rbx
	jne	.L1395
	movq	8(%rax), %rax
	testq	%rax, %rax
	je	.L1394
	addq	$1, 24(%rax)
	movq	$0, 0(%rbp)
	movq	16(%rax), %rdx
	testq	%rdx, %rdx
	je	.L1398
	movq	%rbp, (%rdx)
	movq	%rbp, 16(%rax)
	jmp	.L1369
.L1394:
	lock addq	$1, 184(%rbx)
	leaq	48(%rbx), %r12
	movq	%r12, %rdi
	call	pthread_mutex_lock@PLT
	cmpq	$0, 200(%rbx)
	movq	$0, 0(%rbp)
	je	.L1400
	movq	200(%rbx), %rax
	movq	%rbp, (%rax)
	movq	%rbp, 200(%rbx)
.L1401:
	movq	136(%rbx), %rax
	orq	$1, %rax
	movq	%rax, 136(%rbx)
	cmpq	$1, %rax
	je	.L1402
	movq	%r12, %rdi
	call	pthread_mutex_unlock@PLT
	movq	152(%rsp), %rax
	subq	%fs:40, %rax
	jne	.L1472
	addq	$160, %rsp
	.cfi_remember_state
	.cfi_def_cfa_offset 48
	leaq	88(%rbx), %rdi
	popq	%rbx
	.cfi_def_cfa_offset 40
	popq	%rbp
	.cfi_def_cfa_offset 32
	popq	%r12
	.cfi_def_cfa_offset 24
	popq	%r13
	.cfi_def_cfa_offset 16
	popq	%r14
	.cfi_def_cfa_offset 8
	jmp	pthread_cond_signal@PLT
.L1389:
	.cfi_restore_state
	movdqa	(%rsp), %xmm7
	movups	%xmm7, 72(%rdi)
	jmp	.L1390
.L1475:
	movq	(%rdi), %rax
	leaq	120(%rsp), %rsi
.LEHB22:
	call	*24(%rax)
.LEHE22:
	jmp	.L1409
.L1400:
	movdqa	16(%rsp), %xmm5
	movups	%xmm5, 192(%rbx)
	jmp	.L1401
.L1477:
	cmpb	$0, 40(%rbp)
	je	.L1416
	data16	leaq	_ZN4asio6detail15keyword_tss_ptrINS0_10call_stackINS0_15task_io_serviceENS0_27task_io_service_thread_infoEE7contextEE6value_E@tlsgd(%rip), %rdi
	.value	0x6666
	rex64
	call	__tls_get_addr@PLT
	movq	(%rax), %rax
	testq	%rax, %rax
	jne	.L1419
	jmp	.L1416
	.p2align 4,,10
	.p2align 3
.L1417:
	movq	16(%rax), %rax
	testq	%rax, %rax
	je	.L1416
.L1419:
	cmpq	(%rax), %rbp
	jne	.L1417
	movq	8(%rax), %rax
	testq	%rax, %rax
	je	.L1416
	addq	$1, 24(%rax)
	movq	$0, (%rbx)
	movq	16(%rax), %rdx
	testq	%rdx, %rdx
	je	.L1420
	movq	%rbx, (%rdx)
	movq	%rbx, 16(%rax)
	jmp	.L1415
.L1402:
	cmpb	$0, 176(%rbx)
	jne	.L1404
	movq	144(%rbx), %rax
	testq	%rax, %rax
	je	.L1404
	movb	$1, 176(%rbx)
	leaq	88(%rax), %rdx
	leaq	112(%rsp), %rcx
	movl	$3, %esi
	movq	%rdx, 116(%rsp)
	movl	88(%rax), %edx
	movl	$-2147483639, 112(%rsp)
	movl	96(%rax), %edi
	call	epoll_ctl@PLT
.L1404:
	movq	152(%rsp), %rax
	subq	%fs:40, %rax
	jne	.L1472
	movq	%r12, %rdi
	jmp	.L1471
.L1476:
	movq	88(%rbx), %r12
	jmp	.L1411
.L1416:
	lock addq	$1, 184(%rbp)
	leaq	48(%rbp), %r12
	movq	%r12, %rdi
	call	pthread_mutex_lock@PLT
	cmpq	$0, 200(%rbp)
	movq	$0, (%rbx)
	je	.L1421
	movq	200(%rbp), %rax
	movq	%rbx, (%rax)
	movq	%rbx, 200(%rbp)
.L1422:
	movq	136(%rbp), %rax
	orq	$1, %rax
	movq	%rax, 136(%rbp)
	cmpq	$1, %rax
	je	.L1423
	movq	%r12, %rdi
	call	pthread_mutex_unlock@PLT
	leaq	88(%rbp), %rdi
	call	pthread_cond_signal@PLT
	jmp	.L1415
.L1413:
	movq	%r12, 88(%rbx)
	jmp	.L1414
.L1423:
	cmpb	$0, 176(%rbp)
	jne	.L1425
	movq	144(%rbp), %rax
	testq	%rax, %rax
	je	.L1425
	movb	$1, 176(%rbp)
	leaq	88(%rax), %rdx
	movq	%r13, %rcx
	movl	$3, %esi
	movq	%rdx, 116(%rsp)
	movl	88(%rax), %edx
	movl	$-2147483639, 112(%rsp)
	movl	96(%rax), %edi
	call	epoll_ctl@PLT
.L1425:
	movq	%r12, %rdi
	call	pthread_mutex_unlock@PLT
	jmp	.L1415
.L1392:
	movdqa	(%rsp), %xmm7
	movups	%xmm7, 88(%rbp)
	jmp	.L1393
.L1474:
	movzbl	56(%r14), %edx
	movb	%dl, (%r14)
	movq	%r14, (%rax)
	jmp	.L1406
.L1421:
	movdqa	(%rsp), %xmm5
	movups	%xmm5, 192(%rbp)
	jmp	.L1422
.L1398:
	movdqa	16(%rsp), %xmm7
	movups	%xmm7, 8(%rax)
	jmp	.L1369
.L1420:
	movdqa	(%rsp), %xmm7
	movups	%xmm7, 8(%rax)
	jmp	.L1415
.L1472:
	call	__stack_chk_fail@PLT
.L1429:
	endbr64
	movq	%rax, %rbp
	jmp	.L1412
.L1428:
	endbr64
	movq	%rax, %rdi
	jmp	.L1426
	.section	.gcc_except_table
.LLSDA9649:
	.byte	0xff
	.byte	0xff
	.byte	0x1
	.uleb128 .LLSDACSE9649-.LLSDACSB9649
.LLSDACSB9649:
	.uleb128 .LEHB20-.LFB9649
	.uleb128 .LEHE20-.LEHB20
	.uleb128 .L1428-.LFB9649
	.uleb128 0
	.uleb128 .LEHB21-.LFB9649
	.uleb128 .LEHE21-.LEHB21
	.uleb128 0
	.uleb128 0
	.uleb128 .LEHB22-.LFB9649
	.uleb128 .LEHE22-.LEHB22
	.uleb128 .L1429-.LFB9649
	.uleb128 0
.LLSDACSE9649:
	.text
	.cfi_endproc
	.section	.text.unlikely
	.cfi_startproc
	.cfi_personality 0x9b,DW.ref.__gxx_personality_v0
	.cfi_lsda 0x1b,.LLSDAC9649
	.type	_ZN4asio6detail14strand_service8dispatchINS0_7binder2IZN7asiopal13SocketChannel14BeginWriteImplERKN7openpal6RSliceEEUlRKSt10error_codemE_SA_mEEEEvRPNS1_11strand_implERT_.constprop.0.cold, @function
_ZN4asio6detail14strand_service8dispatchINS0_7binder2IZN7asiopal13SocketChannel14BeginWriteImplERKN7openpal6RSliceEEUlRKSt10error_codemE_SA_mEEEEvRPNS1_11strand_implERT_.constprop.0.cold:
.LFSB9649:
.L1412:
	.cfi_def_cfa_offset 208
	.cfi_offset 3, -48
	.cfi_offset 6, -40
	.cfi_offset 12, -32
	.cfi_offset 13, -24
	.cfi_offset 14, -16
	sfence
	leaq	80(%rsp), %rdi
	call	_ZN4asio6detail18completion_handlerINS0_7binder2IZN7asiopal13SocketChannel14BeginWriteImplERKN7openpal6RSliceEEUlRKSt10error_codemE_S9_mEEE3ptr5resetEv
	leaq	32(%rsp), %rdi
	call	_ZN4asio6detail14strand_service16on_dispatch_exitD1Ev@PLT
	data16	leaq	_ZN4asio6detail15keyword_tss_ptrINS0_10call_stackINS0_14strand_service11strand_implEhE7contextEE6value_E@tlsgd(%rip), %rdi
	.value	0x6666
	rex64
	call	__tls_get_addr@PLT
	movq	64(%rsp), %rdx
	movq	%rbp, %rdi
	movq	%rdx, (%rax)
.LEHB23:
	call	_Unwind_Resume@PLT
.L1426:
	sfence
	call	_Unwind_Resume@PLT
.LEHE23:
	.cfi_endproc
.LFE9649:
	.section	.gcc_except_table
.LLSDAC9649:
	.byte	0xff
	.byte	0xff
	.byte	0x1
	.uleb128 .LLSDACSEC9649-.LLSDACSBC9649
.LLSDACSBC9649:
	.uleb128 .LEHB23-.LCOLDB30
	.uleb128 .LEHE23-.LEHB23
	.uleb128 0
	.uleb128 0
.LLSDACSEC9649:
	.section	.text.unlikely
	.text
	.size	_ZN4asio6detail14strand_service8dispatchINS0_7binder2IZN7asiopal13SocketChannel14BeginWriteImplERKN7openpal6RSliceEEUlRKSt10error_codemE_SA_mEEEEvRPNS1_11strand_implERT_.constprop.0, .-_ZN4asio6detail14strand_service8dispatchINS0_7binder2IZN7asiopal13SocketChannel14BeginWriteImplERKN7openpal6RSliceEEUlRKSt10error_codemE_SA_mEEEEvRPNS1_11strand_implERT_.constprop.0
	.section	.text.unlikely
	.size	_ZN4asio6detail14strand_service8dispatchINS0_7binder2IZN7asiopal13SocketChannel14BeginWriteImplERKN7openpal6RSliceEEUlRKSt10error_codemE_SA_mEEEEvRPNS1_11strand_implERT_.constprop.0.cold, .-_ZN4asio6detail14strand_service8dispatchINS0_7binder2IZN7asiopal13SocketChannel14BeginWriteImplERKN7openpal6RSliceEEUlRKSt10error_codemE_SA_mEEEEvRPNS1_11strand_implERT_.constprop.0.cold
.LCOLDE30:
	.text
.LHOTE30:
	.section	.text.unlikely
.LCOLDB31:
	.text
.LHOTB31:
	.p2align 4
	.type	_ZN4asio6detail18completion_handlerINS0_17rewrapped_handlerINS0_7binder2INS0_8write_opINS_19basic_stream_socketINS_2ip3tcpENS_21stream_socket_serviceIS7_EEEENS_15const_buffers_1ENS0_14transfer_all_tENS0_15wrapped_handlerINS_10io_service6strandEZN7asiopal13SocketChannel14BeginWriteImplERKN7openpal6RSliceEEUlRKSt10error_codemE_NS0_26is_continuation_if_runningEEEEESM_mEESP_EEE11do_completeEPNS0_15task_io_serviceEPNS0_25task_io_service_operationESO_m, @function
_ZN4asio6detail18completion_handlerINS0_17rewrapped_handlerINS0_7binder2INS0_8write_opINS_19basic_stream_socketINS_2ip3tcpENS_21stream_socket_serviceIS7_EEEENS_15const_buffers_1ENS0_14transfer_all_tENS0_15wrapped_handlerINS_10io_service6strandEZN7asiopal13SocketChannel14BeginWriteImplERKN7openpal6RSliceEEUlRKSt10error_codemE_NS0_26is_continuation_if_runningEEEEESM_mEESP_EEE11do_completeEPNS0_15task_io_serviceEPNS0_25task_io_service_operationESO_m:
.LFB9397:
	.cfi_startproc
	.cfi_personality 0x9b,DW.ref.__gxx_personality_v0
	.cfi_lsda 0x1b,.LLSDA9397
	endbr64
	pushq	%r15
	.cfi_def_cfa_offset 16
	.cfi_offset 15, -16
	pushq	%r14
	.cfi_def_cfa_offset 24
	.cfi_offset 14, -24
	pushq	%r13
	.cfi_def_cfa_offset 32
	.cfi_offset 13, -32
	movq	%rdi, %r13
	pushq	%r12
	.cfi_def_cfa_offset 40
	.cfi_offset 12, -40
	pushq	%rbp
	.cfi_def_cfa_offset 48
	.cfi_offset 6, -48
	movq	%rsi, %rbp
	pushq	%rbx
	.cfi_def_cfa_offset 56
	.cfi_offset 3, -56
	subq	$312, %rsp
	.cfi_def_cfa_offset 368
	movq	32(%rsi), %rbx
	movq	64(%rsi), %r15
	movq	%fs:40, %rax
	movq	%rax, 296(%rsp)
	movq	24(%rsi), %rax
	movdqu	40(%rsi), %xmm1
	movdqu	72(%rsi), %xmm2
	movdqu	96(%rsi), %xmm3
	movq	112(%rsi), %r14
	movq	%rbx, 200(%rsp)
	movq	%r15, 232(%rsp)
	movq	%r14, 280(%rsp)
	movaps	%xmm1, 208(%rsp)
	movaps	%xmm2, 240(%rsp)
	movq	%rax, 192(%rsp)
	movl	56(%rsi), %eax
	movups	%xmm3, 264(%rsp)
	movl	%eax, 224(%rsp)
	movq	88(%rsi), %rax
	movq	%rax, 256(%rsp)
	data16	leaq	_ZN4asio6detail15keyword_tss_ptrINS0_10call_stackINS0_15task_io_serviceENS0_27task_io_service_thread_infoEE7contextEE6value_E@tlsgd(%rip), %rdi
	.value	0x6666
	rex64
	call	__tls_get_addr@PLT
	movq	(%rax), %rax
	testq	%rax, %rax
	je	.L1479
	movq	8(%rax), %rax
	testq	%rax, %rax
	je	.L1479
	cmpq	$0, (%rax)
	je	.L1638
.L1479:
	movq	%rbp, %rdi
	call	_ZdlPv@PLT
.L1480:
	testq	%r13, %r13
	je	.L1478
	movl	264(%rsp), %eax
	addq	%r14, %r15
	movl	$0, 224(%rsp)
	movq	%r15, 232(%rsp)
	testl	%eax, %eax
	jne	.L1482
	testq	%r14, %r14
	jne	.L1639
.L1482:
	movl	%eax, 72(%rsp)
	movq	256(%rsp), %rcx
	leaq	64(%rsp), %rdx
	leaq	248(%rsp), %rsi
	movq	272(%rsp), %rax
	movq	240(%rsp), %rdi
	movq	%r15, 88(%rsp)
	movq	%rcx, 64(%rsp)
	movq	%rax, 80(%rsp)
.LEHB24:
	call	_ZN4asio6detail14strand_service8dispatchINS0_7binder2IZN7asiopal13SocketChannel14BeginWriteImplERKN7openpal6RSliceEEUlRKSt10error_codemE_SA_mEEEEvRPNS1_11strand_implERT_.constprop.0
.L1553:
	sfence
.L1478:
	movq	296(%rsp), %rax
	subq	%fs:40, %rax
	jne	.L1640
	addq	$312, %rsp
	.cfi_remember_state
	.cfi_def_cfa_offset 56
	popq	%rbx
	.cfi_def_cfa_offset 48
	popq	%rbp
	.cfi_def_cfa_offset 40
	popq	%r12
	.cfi_def_cfa_offset 32
	popq	%r13
	.cfi_def_cfa_offset 24
	popq	%r14
	.cfi_def_cfa_offset 16
	popq	%r15
	.cfi_def_cfa_offset 8
	ret
	.p2align 4,,10
	.p2align 3
.L1639:
	.cfi_restore_state
	movq	216(%rsp), %r12
	cmpq	%r12, %r15
	je	.L1482
	ja	.L1556
	movq	208(%rsp), %rax
	subq	%r15, %r12
	movl	$65536, %r13d
	addq	%r15, %rax
	cmpq	%r13, %r12
	movq	%rax, (%rsp)
	cmovbe	%r12, %r13
.L1484:
	movq	24(%rbx), %rax
	pxor	%xmm0, %xmm0
	movdqa	208(%rsp), %xmm5
	movq	%rbx, 112(%rsp)
	movdqa	240(%rsp), %xmm6
	movq	%r15, 144(%rsp)
	movq	%rax, 24(%rsp)
	movq	256(%rsp), %rax
	movl	$0, 136(%rsp)
	movq	%rax, 168(%rsp)
	leaq	112(%rsp), %rax
	movq	%rax, 64(%rsp)
	movups	%xmm5, 120(%rsp)
	movups	%xmm6, 152(%rsp)
	movups	%xmm0, 72(%rsp)
	data16	leaq	_ZN4asio6detail15keyword_tss_ptrINS0_10call_stackINS0_15task_io_serviceENS0_27task_io_service_thread_infoEE7contextEE6value_E@tlsgd(%rip), %rdi
	.value	0x6666
	rex64
	call	__tls_get_addr@PLT
	movq	(%rax), %rax
	testq	%rax, %rax
	je	.L1485
	movq	8(%rax), %rax
	testq	%rax, %rax
	je	.L1485
	movq	(%rax), %rbp
	testq	%rbp, %rbp
	je	.L1485
	movq	$0, (%rax)
	movzbl	0(%rbp), %eax
	cmpb	$-105, %al
	jbe	.L1486
	movb	%al, 152(%rbp)
	movq	%rbx, 32(%rsp)
	movl	$0, 44(%rsp)
	jmp	.L1487
	.p2align 4,,10
	.p2align 3
.L1638:
	movzbl	120(%rbp), %edx
	movb	%dl, 0(%rbp)
	movq	%rbp, (%rax)
	jmp	.L1480
	.p2align 4,,10
	.p2align 3
.L1486:
	movq	%rbp, %rdi
	call	_ZdlPv@PLT
.L1485:
	movl	$153, %edi
	call	_Znwm@PLT
.LEHE24:
	movb	$-104, 152(%rax)
	movq	%rax, %rbp
	movq	112(%rsp), %rax
	movq	144(%rsp), %r15
	movq	%rax, 32(%rsp)
	movl	136(%rsp), %eax
	movl	%eax, 44(%rsp)
.L1487:
	leaq	_ZN4asio6detail23reactive_socket_send_opINS_15const_buffers_1ENS0_8write_opINS_19basic_stream_socketINS_2ip3tcpENS_21stream_socket_serviceIS6_EEEES2_NS0_14transfer_all_tENS0_15wrapped_handlerINS_10io_service6strandEZN7asiopal13SocketChannel14BeginWriteImplERKN7openpal6RSliceEEUlRKSt10error_codemE_NS0_26is_continuation_if_runningEEEEEE11do_completeEPNS0_15task_io_serviceEPNS0_25task_io_service_operationESM_m(%rip), %rax
	movl	(%rbx), %r14d
	movq	%rbp, 72(%rsp)
	movq	$0, 0(%rbp)
	movq	%rax, 8(%rbp)
	movl	$0, 16(%rbp)
	movl	$0, 24(%rbp)
	call	_ZNSt3_V215system_categoryEv@PLT
	movdqu	120(%rsp), %xmm7
	movl	%r14d, 56(%rbp)
	movdqu	152(%rsp), %xmm5
	movq	%rax, 32(%rbp)
	movq	%rax, %rcx
	movq	_ZN4asio6detail28reactive_socket_send_op_baseINS_15const_buffers_1EE10do_performEPNS0_10reactor_opE@GOTPCREL(%rip), %rax
	movq	$0, 40(%rbp)
	movq	%r13, 72(%rbp)
	movq	%rax, 48(%rbp)
	movq	(%rsp), %rax
	movl	$0, 80(%rbp)
	movq	%rax, 64(%rbp)
	movq	32(%rsp), %rax
	movq	%r15, 120(%rbp)
	movq	%rax, 88(%rbp)
	movl	44(%rsp), %eax
	movups	%xmm7, 96(%rbp)
	movl	%eax, 112(%rbp)
	movq	168(%rsp), %rax
	movups	%xmm5, 128(%rbp)
	movq	%rax, 144(%rbp)
	movq	%rbp, 80(%rsp)
	movzbl	4(%rbx), %eax
	testb	$16, %al
	je	.L1559
	testq	%r12, %r12
	je	.L1488
.L1559:
	testb	$3, %al
	jne	.L1490
	cmpl	$-1, %r14d
	je	.L1641
	movq	%rcx, (%rsp)
	call	__errno_location@PLT
	movl	%r14d, %edi
	leaq	52(%rsp), %rdx
	movl	$21537, %esi
	movl	$0, (%rax)
	movq	%rax, %r12
	xorl	%eax, %eax
	movl	$1, 52(%rsp)
	call	ioctl@PLT
	movq	_ZGVZN4asio15system_categoryEvE8instance@GOTPCREL(%rip), %r13
	movl	%eax, %r14d
	movzbl	0(%r13), %eax
	testb	%al, %al
	movq	(%rsp), %rcx
	je	.L1495
.L1621:
	movq	_ZZN4asio15system_categoryEvE8instance@GOTPCREL(%rip), %r15
.L1496:
	movl	(%r12), %eax
	movq	%r15, 32(%rbp)
	movl	%eax, 24(%rbp)
	testl	%r14d, %r14d
	js	.L1488
	movl	$0, 24(%rbp)
	movl	(%rbx), %r14d
	movq	%rcx, 32(%rbp)
	orb	$2, 4(%rbx)
.L1490:
	movq	24(%rsp), %rax
	movq	8(%rbx), %r12
	movq	40(%rax), %r13
	testq	%r12, %r12
	je	.L1642
	addq	$40, %r12
	movq	%r12, %rdi
	call	pthread_mutex_lock@PLT
	movq	8(%rbx), %rax
	cmpb	$0, 144(%rax)
	jne	.L1643
	cmpq	$0, 112(%rax)
	je	.L1644
.L1526:
	movq	120(%rax), %rdx
	movq	%rbp, %xmm0
	movq	$0, 0(%rbp)
	punpcklqdq	%xmm0, %xmm0
	testq	%rdx, %rdx
	je	.L1539
	movq	%rbp, (%rdx)
	movq	%rbp, 120(%rax)
.L1540:
	movq	40(%r13), %rax
	lock addq	$1, 184(%rax)
	movq	%r12, %rdi
	call	pthread_mutex_unlock@PLT
	jmp	.L1553
.L1641:
	movq	_ZGVZN4asio15system_categoryEvE8instance@GOTPCREL(%rip), %r12
	movzbl	(%r12), %eax
	testb	%al, %al
	je	.L1492
.L1620:
	movq	_ZZN4asio15system_categoryEvE8instance@GOTPCREL(%rip), %r15
.L1493:
	movl	$9, 24(%rbp)
	movq	%r15, 32(%rbp)
	.p2align 4,,10
	.p2align 3
.L1488:
	movq	24(%rsp), %rax
	movq	%rbp, %xmm4
	punpcklqdq	%xmm4, %xmm4
	movq	40(%rax), %rax
	movaps	%xmm4, (%rsp)
	movq	40(%rax), %rbx
	data16	leaq	_ZN4asio6detail15keyword_tss_ptrINS0_10call_stackINS0_15task_io_serviceENS0_27task_io_service_thread_infoEE7contextEE6value_E@tlsgd(%rip), %rdi
	.value	0x6666
	rex64
	call	__tls_get_addr@PLT
	movq	(%rax), %rax
	testq	%rax, %rax
	jne	.L1546
	jmp	.L1543
	.p2align 4,,10
	.p2align 3
.L1544:
	movq	16(%rax), %rax
	testq	%rax, %rax
	je	.L1543
.L1546:
	cmpq	(%rax), %rbx
	jne	.L1544
	movq	8(%rax), %rax
	testq	%rax, %rax
	je	.L1543
	addq	$1, 24(%rax)
	movq	$0, 0(%rbp)
	movq	16(%rax), %rdx
	testq	%rdx, %rdx
	je	.L1547
.L1625:
	movq	%rbp, (%rdx)
	movq	%rbp, 16(%rax)
	jmp	.L1553
	.p2align 4,,10
	.p2align 3
.L1556:
	movq	$0, (%rsp)
	xorl	%r13d, %r13d
	xorl	%r12d, %r12d
	jmp	.L1484
	.p2align 4,,10
	.p2align 3
.L1543:
	lock addq	$1, 184(%rbx)
	leaq	48(%rbx), %r12
	movq	%r12, %rdi
	call	pthread_mutex_lock@PLT
	cmpq	$0, 200(%rbx)
	movq	$0, 0(%rbp)
	je	.L1548
.L1635:
	movq	200(%rbx), %rax
	movq	%rbp, (%rax)
	movq	%rbp, 200(%rbx)
.L1549:
	movq	136(%rbx), %rax
	orq	$1, %rax
	movq	%rax, 136(%rbx)
	cmpq	$1, %rax
	je	.L1550
	movq	%r12, %rdi
	call	pthread_mutex_unlock@PLT
	leaq	88(%rbx), %rdi
	call	pthread_cond_signal@PLT
	jmp	.L1553
	.p2align 4,,10
	.p2align 3
.L1550:
	cmpb	$0, 176(%rbx)
	jne	.L1520
	movq	144(%rbx), %rax
	testq	%rax, %rax
	je	.L1520
	movb	$1, 176(%rbx)
	leaq	88(%rax), %rdx
	leaq	52(%rsp), %rcx
	movl	$3, %esi
	movl	$-2147483639, 52(%rsp)
	movq	%rdx, 56(%rsp)
	movl	88(%rax), %edx
	movl	96(%rax), %edi
	call	epoll_ctl@PLT
.L1520:
	movq	%r12, %rdi
	call	pthread_mutex_unlock@PLT
	jmp	.L1553
	.p2align 4,,10
	.p2align 3
.L1495:
	movq	%r13, %rdi
	movq	%rcx, (%rsp)
	call	__cxa_guard_acquire@PLT
	movq	(%rsp), %rcx
	testl	%eax, %eax
	je	.L1621
	movq	_ZZN4asio15system_categoryEvE8instance@GOTPCREL(%rip), %r15
	movq	_ZN4asio6detail15system_categoryD1Ev@GOTPCREL(%rip), %rdi
	leaq	__dso_handle(%rip), %rdx
	movq	%rcx, (%rsp)
	movq	%r15, %rsi
	call	__cxa_atexit@PLT
	movq	%r13, %rdi
	call	__cxa_guard_release@PLT
	movq	(%rsp), %rcx
	jmp	.L1496
	.p2align 4,,10
	.p2align 3
.L1548:
	movdqa	(%rsp), %xmm7
	movups	%xmm7, 192(%rbx)
	jmp	.L1549
.L1547:
	movdqa	(%rsp), %xmm6
	movups	%xmm6, 8(%rax)
	jmp	.L1553
.L1539:
	movups	%xmm0, 112(%rax)
	jmp	.L1540
.L1642:
	movq	_ZGVZN4asio15system_categoryEvE8instance@GOTPCREL(%rip), %r12
	movq	%rbp, %xmm6
	punpcklqdq	%xmm6, %xmm6
	movaps	%xmm6, (%rsp)
	movzbl	(%r12), %eax
	testb	%al, %al
	je	.L1500
.L1622:
	movq	_ZZN4asio15system_categoryEvE8instance@GOTPCREL(%rip), %r15
.L1501:
	movl	$9, 24(%rbp)
	movq	40(%r13), %rbx
	movq	%r15, 32(%rbp)
	data16	leaq	_ZN4asio6detail15keyword_tss_ptrINS0_10call_stackINS0_15task_io_serviceENS0_27task_io_service_thread_infoEE7contextEE6value_E@tlsgd(%rip), %rdi
	.value	0x6666
	rex64
	call	__tls_get_addr@PLT
	movq	(%rax), %rax
	testq	%rax, %rax
	jne	.L1506
	jmp	.L1528
	.p2align 4,,10
	.p2align 3
.L1504:
	movq	16(%rax), %rax
	testq	%rax, %rax
	je	.L1528
.L1506:
	cmpq	(%rax), %rbx
	jne	.L1504
.L1637:
	movq	8(%rax), %rax
	testq	%rax, %rax
	je	.L1528
	addq	$1, 24(%rax)
	movq	$0, 0(%rbp)
	movq	16(%rax), %rdx
	testq	%rdx, %rdx
	jne	.L1625
	movdqa	(%rsp), %xmm7
	movups	%xmm7, 8(%rax)
	jmp	.L1553
.L1643:
	movq	%rbp, %xmm7
	movq	40(%r13), %rbx
	punpcklqdq	%xmm7, %xmm7
	movaps	%xmm7, (%rsp)
	data16	leaq	_ZN4asio6detail15keyword_tss_ptrINS0_10call_stackINS0_15task_io_serviceENS0_27task_io_service_thread_infoEE7contextEE6value_E@tlsgd(%rip), %rdi
	.value	0x6666
	rex64
	call	__tls_get_addr@PLT
	movq	(%rax), %rax
	testq	%rax, %rax
	jne	.L1518
	jmp	.L1515
	.p2align 4,,10
	.p2align 3
.L1516:
	movq	16(%rax), %rax
	testq	%rax, %rax
	je	.L1515
.L1518:
	cmpq	(%rax), %rbx
	jne	.L1516
	movq	8(%rax), %rax
	testq	%rax, %rax
	je	.L1515
	addq	$1, 24(%rax)
	movq	$0, 0(%rbp)
	movq	16(%rax), %rdx
	testq	%rdx, %rdx
	je	.L1519
	movq	%rbp, (%rdx)
	movq	%rbp, 16(%rax)
	jmp	.L1520
.L1528:
	lock addq	$1, 184(%rbx)
	leaq	48(%rbx), %r12
	movq	%r12, %rdi
	call	pthread_mutex_lock@PLT
	movq	$0, 0(%rbp)
	cmpq	$0, 200(%rbx)
	jne	.L1635
	movdqa	(%rsp), %xmm6
	movups	%xmm6, 192(%rbx)
	jmp	.L1549
.L1515:
	lock addq	$1, 184(%rbx)
	leaq	48(%rbx), %r13
	movq	%r13, %rdi
	call	pthread_mutex_lock@PLT
	cmpq	$0, 200(%rbx)
	movq	$0, 0(%rbp)
	je	.L1521
	movq	200(%rbx), %rax
	movq	%rbp, (%rax)
	movq	%rbp, 200(%rbx)
.L1522:
	movq	136(%rbx), %rax
	orq	$1, %rax
	movq	%rax, 136(%rbx)
	cmpq	$1, %rax
	je	.L1523
	movq	%r13, %rdi
	call	pthread_mutex_unlock@PLT
	leaq	88(%rbx), %rdi
	call	pthread_cond_signal@PLT
	jmp	.L1520
.L1644:
	movq	%rbp, %rdi
.LEHB25:
	call	*48(%rbp)
.LEHE25:
	testb	%al, %al
	jne	.L1645
	movq	8(%rbx), %rax
	movl	92(%rax), %edx
	testb	$4, %dl
	jne	.L1526
	orl	$4, %edx
	movq	%rax, 56(%rsp)
	leaq	52(%rsp), %rcx
	movl	$3, %esi
	movl	%edx, 52(%rsp)
	movl	96(%r13), %edi
	movl	%r14d, %edx
	call	epoll_ctl@PLT
	testl	%eax, %eax
	jne	.L1538
	movq	8(%rbx), %rax
	movl	52(%rsp), %edx
	orl	%edx, 92(%rax)
	movq	8(%rbx), %rax
	jmp	.L1526
.L1523:
	cmpb	$0, 176(%rbx)
	jne	.L1525
	movq	144(%rbx), %rax
	testq	%rax, %rax
	je	.L1525
	movb	$1, 176(%rbx)
	leaq	88(%rax), %rdx
	leaq	52(%rsp), %rcx
	movl	$3, %esi
	movq	%rdx, 56(%rsp)
	movl	88(%rax), %edx
	movl	$-2147483639, 52(%rsp)
	movl	96(%rax), %edi
	call	epoll_ctl@PLT
.L1525:
	movq	%r13, %rdi
	call	pthread_mutex_unlock@PLT
	jmp	.L1520
.L1500:
	movq	%r12, %rdi
	call	__cxa_guard_acquire@PLT
	testl	%eax, %eax
	je	.L1622
	movq	_ZZN4asio15system_categoryEvE8instance@GOTPCREL(%rip), %r15
	movq	_ZN4asio6detail15system_categoryD1Ev@GOTPCREL(%rip), %rdi
	leaq	__dso_handle(%rip), %rdx
	movq	%r15, %rsi
	call	__cxa_atexit@PLT
	movq	%r12, %rdi
	call	__cxa_guard_release@PLT
	jmp	.L1501
.L1492:
	movq	%r12, %rdi
	call	__cxa_guard_acquire@PLT
	testl	%eax, %eax
	je	.L1620
	movq	_ZZN4asio15system_categoryEvE8instance@GOTPCREL(%rip), %r15
	movq	_ZN4asio6detail15system_categoryD1Ev@GOTPCREL(%rip), %rdi
	leaq	__dso_handle(%rip), %rdx
	movq	%r15, %rsi
	call	__cxa_atexit@PLT
	movq	%r12, %rdi
	call	__cxa_guard_release@PLT
	jmp	.L1493
.L1521:
	movdqa	(%rsp), %xmm6
	movups	%xmm6, 192(%rbx)
	jmp	.L1522
.L1519:
	movdqa	(%rsp), %xmm7
	movups	%xmm7, 8(%rax)
	jmp	.L1520
.L1645:
	movq	%rbp, %xmm6
	movq	%r12, %rdi
	punpcklqdq	%xmm6, %xmm6
	movaps	%xmm6, (%rsp)
	call	pthread_mutex_unlock@PLT
	movq	40(%r13), %rbx
	data16	leaq	_ZN4asio6detail15keyword_tss_ptrINS0_10call_stackINS0_15task_io_serviceENS0_27task_io_service_thread_infoEE7contextEE6value_E@tlsgd(%rip), %rdi
	.value	0x6666
	rex64
	call	__tls_get_addr@PLT
	movq	(%rax), %rax
	testq	%rax, %rax
	jne	.L1531
	jmp	.L1528
	.p2align 4,,10
	.p2align 3
.L1529:
	movq	16(%rax), %rax
	testq	%rax, %rax
	je	.L1528
.L1531:
	cmpq	(%rax), %rbx
	jne	.L1529
	jmp	.L1637
.L1640:
	call	__stack_chk_fail@PLT
.L1538:
	call	_ZN4asio15system_categoryEv@PLT
	movq	%rax, %rbx
	call	__errno_location@PLT
	movq	40(%r13), %rdi
	movl	$1, %edx
	movq	%rbp, %rsi
	movl	(%rax), %eax
	movq	%rbx, 32(%rbp)
	movl	%eax, 24(%rbp)
	call	_ZN4asio6detail15task_io_service25post_immediate_completionEPNS0_25task_io_service_operationEb@PLT
	jmp	.L1520
.L1557:
	endbr64
	movq	%rax, %rdi
	jmp	.L1542
.L1558:
	endbr64
	movq	%rax, %rbx
	jmp	.L1541
	.section	.gcc_except_table
.LLSDA9397:
	.byte	0xff
	.byte	0xff
	.byte	0x1
	.uleb128 .LLSDACSE9397-.LLSDACSB9397
.LLSDACSB9397:
	.uleb128 .LEHB24-.LFB9397
	.uleb128 .LEHE24-.LEHB24
	.uleb128 .L1557-.LFB9397
	.uleb128 0
	.uleb128 .LEHB25-.LFB9397
	.uleb128 .LEHE25-.LEHB25
	.uleb128 .L1558-.LFB9397
	.uleb128 0
.LLSDACSE9397:
	.text
	.cfi_endproc
	.section	.text.unlikely
	.cfi_startproc
	.cfi_personality 0x9b,DW.ref.__gxx_personality_v0
	.cfi_lsda 0x1b,.LLSDAC9397
	.type	_ZN4asio6detail18completion_handlerINS0_17rewrapped_handlerINS0_7binder2INS0_8write_opINS_19basic_stream_socketINS_2ip3tcpENS_21stream_socket_serviceIS7_EEEENS_15const_buffers_1ENS0_14transfer_all_tENS0_15wrapped_handlerINS_10io_service6strandEZN7asiopal13SocketChannel14BeginWriteImplERKN7openpal6RSliceEEUlRKSt10error_codemE_NS0_26is_continuation_if_runningEEEEESM_mEESP_EEE11do_completeEPNS0_15task_io_serviceEPNS0_25task_io_service_operationESO_m.cold, @function
_ZN4asio6detail18completion_handlerINS0_17rewrapped_handlerINS0_7binder2INS0_8write_opINS_19basic_stream_socketINS_2ip3tcpENS_21stream_socket_serviceIS7_EEEENS_15const_buffers_1ENS0_14transfer_all_tENS0_15wrapped_handlerINS_10io_service6strandEZN7asiopal13SocketChannel14BeginWriteImplERKN7openpal6RSliceEEUlRKSt10error_codemE_NS0_26is_continuation_if_runningEEEEESM_mEESP_EEE11do_completeEPNS0_15task_io_serviceEPNS0_25task_io_service_operationESO_m.cold:
.LFSB9397:
.L1541:
	.cfi_def_cfa_offset 368
	.cfi_offset 3, -56
	.cfi_offset 6, -48
	.cfi_offset 12, -40
	.cfi_offset 13, -32
	.cfi_offset 14, -24
	.cfi_offset 15, -16
	movq	%r12, %rdi
	call	pthread_mutex_unlock@PLT
	leaq	64(%rsp), %rdi
	call	_ZN4asio6detail23reactive_socket_send_opINS_15const_buffers_1ENS0_8write_opINS_19basic_stream_socketINS_2ip3tcpENS_21stream_socket_serviceIS6_EEEES2_NS0_14transfer_all_tENS0_15wrapped_handlerINS_10io_service6strandEZN7asiopal13SocketChannel14BeginWriteImplERKN7openpal6RSliceEEUlRKSt10error_codemE_NS0_26is_continuation_if_runningEEEEEE3ptr5resetEv
	movq	%rbx, %rdi
.L1542:
	sfence
.LEHB26:
	call	_Unwind_Resume@PLT
.LEHE26:
	.cfi_endproc
.LFE9397:
	.section	.gcc_except_table
.LLSDAC9397:
	.byte	0xff
	.byte	0xff
	.byte	0x1
	.uleb128 .LLSDACSEC9397-.LLSDACSBC9397
.LLSDACSBC9397:
	.uleb128 .LEHB26-.LCOLDB31
	.uleb128 .LEHE26-.LEHB26
	.uleb128 0
	.uleb128 0
.LLSDACSEC9397:
	.section	.text.unlikely
	.text
	.size	_ZN4asio6detail18completion_handlerINS0_17rewrapped_handlerINS0_7binder2INS0_8write_opINS_19basic_stream_socketINS_2ip3tcpENS_21stream_socket_serviceIS7_EEEENS_15const_buffers_1ENS0_14transfer_all_tENS0_15wrapped_handlerINS_10io_service6strandEZN7asiopal13SocketChannel14BeginWriteImplERKN7openpal6RSliceEEUlRKSt10error_codemE_NS0_26is_continuation_if_runningEEEEESM_mEESP_EEE11do_completeEPNS0_15task_io_serviceEPNS0_25task_io_service_operationESO_m, .-_ZN4asio6detail18completion_handlerINS0_17rewrapped_handlerINS0_7binder2INS0_8write_opINS_19basic_stream_socketINS_2ip3tcpENS_21stream_socket_serviceIS7_EEEENS_15const_buffers_1ENS0_14transfer_all_tENS0_15wrapped_handlerINS_10io_service6strandEZN7asiopal13SocketChannel14BeginWriteImplERKN7openpal6RSliceEEUlRKSt10error_codemE_NS0_26is_continuation_if_runningEEEEESM_mEESP_EEE11do_completeEPNS0_15task_io_serviceEPNS0_25task_io_service_operationESO_m
	.section	.text.unlikely
	.size	_ZN4asio6detail18completion_handlerINS0_17rewrapped_handlerINS0_7binder2INS0_8write_opINS_19basic_stream_socketINS_2ip3tcpENS_21stream_socket_serviceIS7_EEEENS_15const_buffers_1ENS0_14transfer_all_tENS0_15wrapped_handlerINS_10io_service6strandEZN7asiopal13SocketChannel14BeginWriteImplERKN7openpal6RSliceEEUlRKSt10error_codemE_NS0_26is_continuation_if_runningEEEEESM_mEESP_EEE11do_completeEPNS0_15task_io_serviceEPNS0_25task_io_service_operationESO_m.cold, .-_ZN4asio6detail18completion_handlerINS0_17rewrapped_handlerINS0_7binder2INS0_8write_opINS_19basic_stream_socketINS_2ip3tcpENS_21stream_socket_serviceIS7_EEEENS_15const_buffers_1ENS0_14transfer_all_tENS0_15wrapped_handlerINS_10io_service6strandEZN7asiopal13SocketChannel14BeginWriteImplERKN7openpal6RSliceEEUlRKSt10error_codemE_NS0_26is_continuation_if_runningEEEEESM_mEESP_EEE11do_completeEPNS0_15task_io_serviceEPNS0_25task_io_service_operationESO_m.cold
.LCOLDE31:
	.text
.LHOTE31:
	.section	.text.unlikely
.LCOLDB32:
	.text
.LHOTB32:
	.p2align 4
	.type	_ZN4asio6detail23reactive_socket_send_opINS_15const_buffers_1ENS0_8write_opINS_19basic_stream_socketINS_2ip3tcpENS_21stream_socket_serviceIS6_EEEES2_NS0_14transfer_all_tENS0_15wrapped_handlerINS_10io_service6strandEZN7asiopal13SocketChannel14BeginWriteImplERKN7openpal6RSliceEEUlRKSt10error_codemE_NS0_26is_continuation_if_runningEEEEEE11do_completeEPNS0_15task_io_serviceEPNS0_25task_io_service_operationESM_m, @function
_ZN4asio6detail23reactive_socket_send_opINS_15const_buffers_1ENS0_8write_opINS_19basic_stream_socketINS_2ip3tcpENS_21stream_socket_serviceIS6_EEEES2_NS0_14transfer_all_tENS0_15wrapped_handlerINS_10io_service6strandEZN7asiopal13SocketChannel14BeginWriteImplERKN7openpal6RSliceEEUlRKSt10error_codemE_NS0_26is_continuation_if_runningEEEEEE11do_completeEPNS0_15task_io_serviceEPNS0_25task_io_service_operationESM_m:
.LFB9215:
	.cfi_startproc
	.cfi_personality 0x9b,DW.ref.__gxx_personality_v0
	.cfi_lsda 0x1b,.LLSDA9215
	endbr64
	pushq	%r15
	.cfi_def_cfa_offset 16
	.cfi_offset 15, -16
	pushq	%r14
	.cfi_def_cfa_offset 24
	.cfi_offset 14, -24
	pushq	%r13
	.cfi_def_cfa_offset 32
	.cfi_offset 13, -32
	pushq	%r12
	.cfi_def_cfa_offset 40
	.cfi_offset 12, -40
	pushq	%rbp
	.cfi_def_cfa_offset 48
	.cfi_offset 6, -48
	movq	%rsi, %rbp
	pushq	%rbx
	.cfi_def_cfa_offset 56
	.cfi_offset 3, -56
	movq	%rdi, %rbx
	subq	$536, %rsp
	.cfi_def_cfa_offset 592
	movdqu	96(%rsi), %xmm4
	movdqu	128(%rsi), %xmm5
	movq	%fs:40, %rax
	movq	%rax, 520(%rsp)
	xorl	%eax, %eax
	movq	88(%rsi), %rax
	movdqu	24(%rsi), %xmm6
	movq	%rsi, 72(%rsp)
	movq	$0, 80(%rsp)
	movq	%rax, 224(%rsp)
	movl	112(%rsi), %eax
	movups	%xmm4, 232(%rsp)
	movl	%eax, 248(%rsp)
	movq	120(%rsi), %rax
	movups	%xmm5, 264(%rsp)
	movq	%rax, 256(%rsp)
	movq	144(%rsi), %rax
	movaps	%xmm6, 288(%rsp)
	movq	%rax, 280(%rsp)
	movq	40(%rsi), %rax
	movq	%rax, 304(%rsp)
	leaq	224(%rsp), %rax
	movq	%rax, 64(%rsp)
	data16	leaq	_ZN4asio6detail15keyword_tss_ptrINS0_10call_stackINS0_15task_io_serviceENS0_27task_io_service_thread_infoEE7contextEE6value_E@tlsgd(%rip), %rdi
	.value	0x6666
	rex64
	call	__tls_get_addr@PLT
	movq	(%rax), %rax
	testq	%rax, %rax
	je	.L1647
	movq	8(%rax), %rax
	testq	%rax, %rax
	je	.L1647
	cmpq	$0, (%rax)
	je	.L1901
.L1647:
	movq	%rbp, %rdi
	call	_ZdlPv@PLT
.L1648:
	movq	$0, 72(%rsp)
	testq	%rbx, %rbx
	je	.L1646
	movq	280(%rsp), %rax
	movdqu	232(%rsp), %xmm2
	movq	224(%rsp), %rbx
	movl	248(%rsp), %r14d
	movq	256(%rsp), %rbp
	movq	304(%rsp), %r12
	movq	%rax, 320(%rsp)
	movq	%rax, 384(%rsp)
	movq	264(%rsp), %r13
	movq	%rax, 416(%rsp)
	movq	272(%rsp), %r15
	movdqu	264(%rsp), %xmm1
	movq	%rbx, 424(%rsp)
	movdqa	288(%rsp), %xmm0
	movl	%r14d, 448(%rsp)
	movq	%rbp, 456(%rsp)
	movq	%rax, 480(%rsp)
	movq	%r12, 504(%rsp)
	movaps	%xmm2, 336(%rsp)
	movaps	%xmm1, 368(%rsp)
	movups	%xmm0, 392(%rsp)
	movaps	%xmm2, 432(%rsp)
	movaps	%xmm1, 464(%rsp)
	movups	%xmm0, 488(%rsp)
	data16	leaq	_ZN4asio6detail15keyword_tss_ptrINS0_10call_stackINS0_14strand_service11strand_implEhE7contextEE6value_E@tlsgd(%rip), %rdi
	.value	0x6666
	rex64
	call	__tls_get_addr@PLT
	movq	(%rax), %rax
	testq	%rax, %rax
	jne	.L1653
	jmp	.L1650
	.p2align 4,,10
	.p2align 3
.L1651:
	movq	16(%rax), %rax
	testq	%rax, %rax
	je	.L1650
.L1653:
	cmpq	(%rax), %r15
	jne	.L1651
	cmpq	$0, 8(%rax)
	je	.L1650
	lfence
	leaq	0(%rbp,%r12), %r15
	movl	488(%rsp), %eax
	movl	$0, 448(%rsp)
	movq	%r15, 456(%rsp)
	testq	%r12, %r12
	je	.L1654
	testl	%eax, %eax
	jne	.L1654
	movq	440(%rsp), %r12
	cmpq	%r12, %r15
	je	.L1654
	ja	.L1777
	movq	432(%rsp), %rax
	subq	%r15, %r12
	movl	$65536, %r13d
	addq	%r15, %rax
	cmpq	%r13, %r12
	movq	%rax, (%rsp)
	cmovbe	%r12, %r13
.L1656:
	movq	24(%rbx), %rax
	pxor	%xmm0, %xmm0
	movdqa	432(%rsp), %xmm3
	movq	%rbx, 144(%rsp)
	movdqa	464(%rsp), %xmm2
	movq	%r15, 176(%rsp)
	movq	%rax, 16(%rsp)
	movq	480(%rsp), %rax
	movl	$0, 168(%rsp)
	movq	%rax, 200(%rsp)
	leaq	144(%rsp), %rax
	movq	%rax, 96(%rsp)
	movups	%xmm3, 152(%rsp)
	movups	%xmm2, 184(%rsp)
	movups	%xmm0, 104(%rsp)
	data16	leaq	_ZN4asio6detail15keyword_tss_ptrINS0_10call_stackINS0_15task_io_serviceENS0_27task_io_service_thread_infoEE7contextEE6value_E@tlsgd(%rip), %rdi
	.value	0x6666
	rex64
	call	__tls_get_addr@PLT
	movq	(%rax), %rax
	testq	%rax, %rax
	je	.L1657
	movq	8(%rax), %rax
	testq	%rax, %rax
	je	.L1657
	movq	(%rax), %rbp
	testq	%rbp, %rbp
	je	.L1657
	movq	$0, (%rax)
	movzbl	0(%rbp), %eax
	cmpb	$-105, %al
	jbe	.L1658
	movb	%al, 152(%rbp)
	movq	%rbx, %rdi
	xorl	%esi, %esi
.L1659:
	leaq	_ZN4asio6detail23reactive_socket_send_opINS_15const_buffers_1ENS0_8write_opINS_19basic_stream_socketINS_2ip3tcpENS_21stream_socket_serviceIS6_EEEES2_NS0_14transfer_all_tENS0_15wrapped_handlerINS_10io_service6strandEZN7asiopal13SocketChannel14BeginWriteImplERKN7openpal6RSliceEEUlRKSt10error_codemE_NS0_26is_continuation_if_runningEEEEEE11do_completeEPNS0_15task_io_serviceEPNS0_25task_io_service_operationESM_m(%rip), %rax
	movl	(%rbx), %r14d
	movq	%rbp, 104(%rsp)
	movq	$0, 0(%rbp)
	movq	%rax, 8(%rbp)
	movl	$0, 16(%rbp)
	movl	$0, 24(%rbp)
	movq	%rdi, 40(%rsp)
	movl	%esi, 36(%rsp)
	call	_ZNSt3_V215system_categoryEv@PLT
	movq	40(%rsp), %rdi
	movl	36(%rsp), %esi
	movq	$0, 40(%rbp)
	movdqu	152(%rsp), %xmm1
	movq	%rax, 32(%rbp)
	movq	%rax, %rcx
	movq	_ZN4asio6detail28reactive_socket_send_op_baseINS_15const_buffers_1EE10do_performEPNS0_10reactor_opE@GOTPCREL(%rip), %rax
	movl	%r14d, 56(%rbp)
	movdqu	184(%rsp), %xmm3
	movq	%r13, 72(%rbp)
	movq	%rax, 48(%rbp)
	movq	(%rsp), %rax
	movl	$0, 80(%rbp)
	movq	%rax, 64(%rbp)
	movq	200(%rsp), %rax
	movq	%rdi, 88(%rbp)
	movl	%esi, 112(%rbp)
	movq	%r15, 120(%rbp)
	movq	%rax, 144(%rbp)
	movups	%xmm1, 96(%rbp)
	movups	%xmm3, 128(%rbp)
	movq	%rbp, 112(%rsp)
	movzbl	4(%rbx), %eax
	testb	$16, %al
	je	.L1782
	testq	%r12, %r12
	je	.L1660
.L1782:
	testb	$3, %al
	jne	.L1662
	cmpl	$-1, %r14d
	je	.L1902
	movq	%rcx, (%rsp)
	call	__errno_location@PLT
	movl	%r14d, %edi
	leaq	48(%rsp), %rdx
	movl	$21537, %esi
	movl	$0, (%rax)
	movq	%rax, %r15
	xorl	%eax, %eax
	movl	$1, 48(%rsp)
	call	ioctl@PLT
	movq	_ZGVZN4asio15system_categoryEvE8instance@GOTPCREL(%rip), %r13
	movl	%eax, %r14d
	movzbl	0(%r13), %eax
	testb	%al, %al
	movq	(%rsp), %rcx
	je	.L1667
.L1886:
	movq	_ZZN4asio15system_categoryEvE8instance@GOTPCREL(%rip), %r12
.L1668:
	movl	(%r15), %eax
	movq	%r12, 32(%rbp)
	movl	%eax, 24(%rbp)
	testl	%r14d, %r14d
	jns	.L1903
.L1660:
	movq	16(%rsp), %rax
	movq	%rbp, %xmm2
	punpcklqdq	%xmm2, %xmm2
	movq	40(%rax), %rax
	movaps	%xmm2, (%rsp)
	movq	40(%rax), %rbx
	data16	leaq	_ZN4asio6detail15keyword_tss_ptrINS0_10call_stackINS0_15task_io_serviceENS0_27task_io_service_thread_infoEE7contextEE6value_E@tlsgd(%rip), %rdi
	.value	0x6666
	rex64
	call	__tls_get_addr@PLT
	movq	(%rax), %rax
	testq	%rax, %rax
	jne	.L1718
	jmp	.L1715
	.p2align 4,,10
	.p2align 3
.L1716:
	movq	16(%rax), %rax
	testq	%rax, %rax
	je	.L1715
.L1718:
	cmpq	(%rax), %rbx
	jne	.L1716
	movq	8(%rax), %rax
	testq	%rax, %rax
	je	.L1715
	addq	$1, 24(%rax)
	movq	$0, 0(%rbp)
	movq	16(%rax), %rdx
	testq	%rdx, %rdx
	je	.L1719
.L1889:
	movq	%rbp, (%rdx)
	movq	%rbp, 16(%rax)
.L1680:
	movq	80(%rsp), %rbx
	movq	72(%rsp), %rbp
	sfence
	jmp	.L1725
	.p2align 4,,10
	.p2align 3
.L1654:
	movl	%eax, 104(%rsp)
	movq	480(%rsp), %rcx
	leaq	96(%rsp), %rdx
	leaq	472(%rsp), %rsi
	movq	496(%rsp), %rax
	movq	464(%rsp), %rdi
	movq	%r15, 120(%rsp)
	movq	%rcx, 96(%rsp)
	movq	%rax, 112(%rsp)
.LEHB27:
	call	_ZN4asio6detail14strand_service8dispatchINS0_7binder2IZN7asiopal13SocketChannel14BeginWriteImplERKN7openpal6RSliceEEUlRKSt10error_codemE_SA_mEEEEvRPNS1_11strand_implERT_.constprop.0
.LEHE27:
	sfence
	sfence
.L1646:
	movq	520(%rsp), %rax
	subq	%fs:40, %rax
	jne	.L1891
	addq	$536, %rsp
	.cfi_remember_state
	.cfi_def_cfa_offset 56
	popq	%rbx
	.cfi_def_cfa_offset 48
	popq	%rbp
	.cfi_def_cfa_offset 40
	popq	%r12
	.cfi_def_cfa_offset 32
	popq	%r13
	.cfi_def_cfa_offset 24
	popq	%r14
	.cfi_def_cfa_offset 16
	popq	%r15
	.cfi_def_cfa_offset 8
	ret
	.p2align 4,,10
	.p2align 3
.L1650:
	.cfi_restore_state
	data16	leaq	_ZN4asio6detail15keyword_tss_ptrINS0_10call_stackINS0_15task_io_serviceENS0_27task_io_service_thread_infoEE7contextEE6value_E@tlsgd(%rip), %rdi
	.value	0x6666
	rex64
	call	__tls_get_addr@PLT
	movq	(%rax), %rax
	testq	%rax, %rax
	je	.L1728
	movq	8(%rax), %rax
	testq	%rax, %rax
	je	.L1728
	movq	(%rax), %r15
	testq	%r15, %r15
	je	.L1728
	movq	$0, (%rax)
	movzbl	(%r15), %eax
	cmpb	$119, %al
	jbe	.L1729
	movb	%al, 120(%r15)
	jmp	.L1730
	.p2align 4,,10
	.p2align 3
.L1729:
	movq	%r15, %rdi
	call	_ZdlPv@PLT
.L1728:
	movl	$121, %edi
.LEHB28:
	call	_Znwm@PLT
.LEHE28:
	movb	$120, 120(%rax)
	movq	%rax, %r15
.L1730:
	leaq	_ZN4asio6detail18completion_handlerINS0_17rewrapped_handlerINS0_7binder2INS0_8write_opINS_19basic_stream_socketINS_2ip3tcpENS_21stream_socket_serviceIS7_EEEENS_15const_buffers_1ENS0_14transfer_all_tENS0_15wrapped_handlerINS_10io_service6strandEZN7asiopal13SocketChannel14BeginWriteImplERKN7openpal6RSliceEEUlRKSt10error_codemE_NS0_26is_continuation_if_runningEEEEESM_mEESP_EEE11do_completeEPNS0_15task_io_serviceEPNS0_25task_io_service_operationESO_m(%rip), %rax
	movq	%rbx, 32(%r15)
	movdqa	432(%rsp), %xmm7
	movq	%r15, %xmm3
	movq	%rax, 8(%r15)
	movq	416(%rsp), %rax
	punpcklqdq	%xmm3, %xmm3
	movdqu	488(%rsp), %xmm4
	movups	%xmm7, 40(%r15)
	movq	40(%r13), %rbx
	movdqa	464(%rsp), %xmm7
	movq	%rax, 24(%r15)
	movq	480(%rsp), %rax
	movq	$0, (%r15)
	movl	$0, 16(%r15)
	movl	%r14d, 56(%r15)
	movq	%rbp, 64(%r15)
	movq	%rax, 88(%r15)
	movq	%r12, 112(%r15)
	movups	%xmm7, 72(%r15)
	movups	%xmm4, 96(%r15)
	movaps	%xmm3, (%rsp)
	data16	leaq	_ZN4asio6detail15keyword_tss_ptrINS0_10call_stackINS0_15task_io_serviceENS0_27task_io_service_thread_infoEE7contextEE6value_E@tlsgd(%rip), %rdi
	.value	0x6666
	rex64
	call	__tls_get_addr@PLT
	movq	(%rax), %rax
	testq	%rax, %rax
	jne	.L1735
	jmp	.L1731
	.p2align 4,,10
	.p2align 3
.L1732:
	movq	16(%rax), %rax
	testq	%rax, %rax
	je	.L1731
.L1735:
	cmpq	(%rax), %rbx
	jne	.L1732
	movq	8(%rax), %rbx
	movq	272(%rsp), %rax
	leaq	24(%rax), %rdi
	call	pthread_mutex_lock@PLT
	testq	%rbx, %rbx
	je	.L1734
	movq	272(%rsp), %rax
	cmpb	$0, 64(%rax)
	leaq	24(%rax), %rdi
	je	.L1904
.L1736:
	movq	$0, (%r15)
	movq	80(%rax), %rdx
	testq	%rdx, %rdx
	je	.L1739
	movq	%r15, (%rdx)
	movq	%r15, 80(%rax)
.L1740:
	call	pthread_mutex_unlock@PLT
	sfence
	jmp	.L1646
.L1904:
	movb	$1, 64(%rax)
	call	pthread_mutex_unlock@PLT
	movq	272(%rsp), %rbx
	movq	%rbx, %xmm7
	movq	%rbx, 144(%rsp)
	punpcklqdq	%xmm7, %xmm7
	movaps	%xmm7, (%rsp)
	data16	leaq	_ZN4asio6detail15keyword_tss_ptrINS0_10call_stackINS0_14strand_service11strand_implEhE7contextEE6value_E@tlsgd(%rip), %rdi
	.value	0x6666
	rex64
	call	__tls_get_addr@PLT
	movq	40(%r13), %rbp
	movq	%rbx, %xmm6
	xorl	%ecx, %ecx
	leaq	96(%rsp), %r13
	movq	%r15, %rsi
	movq	%rbp, %xmm0
	movq	%rbp, %rdi
	punpcklqdq	%xmm6, %xmm0
	movaps	%xmm0, 48(%rsp)
	movq	(%rax), %rdx
	movq	%rdx, 160(%rsp)
	leaq	144(%rsp), %rdx
	movq	%rdx, 152(%rsp)
	movq	%rdx, (%rax)
	movq	%r13, %rdx
.LEHB29:
	call	_ZN4asio6detail18completion_handlerINS0_17rewrapped_handlerINS0_7binder2INS0_8write_opINS_19basic_stream_socketINS_2ip3tcpENS_21stream_socket_serviceIS7_EEEENS_15const_buffers_1ENS0_14transfer_all_tENS0_15wrapped_handlerINS_10io_service6strandEZN7asiopal13SocketChannel14BeginWriteImplERKN7openpal6RSliceEEUlRKSt10error_codemE_NS0_26is_continuation_if_runningEEEEESM_mEESP_EEE11do_completeEPNS0_15task_io_serviceEPNS0_25task_io_service_operationESO_m
.LEHE29:
	leaq	24(%rbx), %r14
	movq	%r14, %rdi
	call	pthread_mutex_lock@PLT
	movq	72(%rbx), %r12
	testq	%r12, %r12
	je	.L1905
	movq	96(%rbx), %rax
	testq	%rax, %rax
	je	.L1756
	movq	%r12, (%rax)
	movq	88(%rbx), %r12
.L1757:
	movq	80(%rbx), %rax
	pxor	%xmm0, %xmm0
	movups	%xmm0, 72(%rbx)
	movq	%rax, 96(%rbx)
.L1755:
	testq	%r12, %r12
	movq	%r14, %rdi
	setne	64(%rbx)
	call	pthread_mutex_unlock@PLT
	testq	%r12, %r12
	jne	.L1758
.L1890:
	data16	leaq	_ZN4asio6detail15keyword_tss_ptrINS0_10call_stackINS0_14strand_service11strand_implEhE7contextEE6value_E@tlsgd(%rip), %rdi
	.value	0x6666
	rex64
	call	__tls_get_addr@PLT
	movq	160(%rsp), %rdx
	movq	%rdx, (%rax)
	sfence
	jmp	.L1646
	.p2align 4,,10
	.p2align 3
.L1901:
	movzbl	152(%rbp), %edx
	movb	%dl, 0(%rbp)
	movq	%rbp, (%rax)
	jmp	.L1648
	.p2align 4,,10
	.p2align 3
.L1739:
	movdqa	(%rsp), %xmm1
	movups	%xmm1, 72(%rax)
	jmp	.L1740
	.p2align 4,,10
	.p2align 3
.L1905:
	movq	88(%rbx), %r12
	jmp	.L1755
	.p2align 4,,10
	.p2align 3
.L1731:
	movq	272(%rsp), %rax
	leaq	24(%rax), %rdi
	call	pthread_mutex_lock@PLT
.L1734:
	movq	272(%rsp), %rax
	cmpb	$0, 64(%rax)
	leaq	24(%rax), %rdi
	jne	.L1736
	movb	$1, 64(%rax)
	call	pthread_mutex_unlock@PLT
	movq	272(%rsp), %rbp
	movq	$0, (%r15)
	movq	%rbp, %xmm5
	cmpq	$0, 96(%rbp)
	punpcklqdq	%xmm5, %xmm5
	movaps	%xmm5, 16(%rsp)
	je	.L1741
	movq	96(%rbp), %rax
	movq	%r15, (%rax)
	movq	%r15, 96(%rbp)
.L1742:
	movq	40(%r13), %rbx
	cmpb	$0, 40(%rbx)
	je	.L1743
	data16	leaq	_ZN4asio6detail15keyword_tss_ptrINS0_10call_stackINS0_15task_io_serviceENS0_27task_io_service_thread_infoEE7contextEE6value_E@tlsgd(%rip), %rdi
	.value	0x6666
	rex64
	call	__tls_get_addr@PLT
	movq	(%rax), %rax
	testq	%rax, %rax
	jne	.L1746
	jmp	.L1743
	.p2align 4,,10
	.p2align 3
.L1744:
	movq	16(%rax), %rax
	testq	%rax, %rax
	je	.L1743
.L1746:
	cmpq	(%rax), %rbx
	jne	.L1744
	movq	8(%rax), %rax
	testq	%rax, %rax
	je	.L1743
	addq	$1, 24(%rax)
	movq	$0, 0(%rbp)
	movq	16(%rax), %rdx
	testq	%rdx, %rdx
	je	.L1747
	movq	%rbp, (%rdx)
	movq	%rbp, 16(%rax)
	sfence
	jmp	.L1646
	.p2align 4,,10
	.p2align 3
.L1743:
	lock addq	$1, 184(%rbx)
	leaq	48(%rbx), %r12
	movq	%r12, %rdi
	call	pthread_mutex_lock@PLT
	cmpq	$0, 200(%rbx)
	movq	$0, 0(%rbp)
	je	.L1748
	movq	200(%rbx), %rax
	movq	%rbp, (%rax)
	movq	%rbp, 200(%rbx)
.L1749:
	movq	136(%rbx), %rax
	orq	$1, %rax
	movq	%rax, 136(%rbx)
	cmpq	$1, %rax
	je	.L1750
	movq	%r12, %rdi
	call	pthread_mutex_unlock@PLT
	leaq	88(%rbx), %rdi
	call	pthread_cond_signal@PLT
	jmp	.L1751
.L1750:
	cmpb	$0, 176(%rbx)
	je	.L1906
.L1752:
	movq	%r12, %rdi
	call	pthread_mutex_unlock@PLT
.L1751:
	movq	80(%rsp), %rbx
	movq	72(%rsp), %rbp
.L1725:
	sfence
	testq	%rbx, %rbx
	je	.L1770
	movq	$0, 80(%rsp)
.L1770:
	testq	%rbp, %rbp
	je	.L1646
	data16	leaq	_ZN4asio6detail15keyword_tss_ptrINS0_10call_stackINS0_15task_io_serviceENS0_27task_io_service_thread_infoEE7contextEE6value_E@tlsgd(%rip), %rdi
	.value	0x6666
	rex64
	call	__tls_get_addr@PLT
	movq	(%rax), %rax
	testq	%rax, %rax
	je	.L1774
	movq	8(%rax), %rax
	testq	%rax, %rax
	je	.L1774
	cmpq	$0, (%rax)
	je	.L1907
.L1774:
	movq	520(%rsp), %rax
	subq	%fs:40, %rax
	jne	.L1891
	addq	$536, %rsp
	.cfi_remember_state
	.cfi_def_cfa_offset 56
	movq	%rbp, %rdi
	popq	%rbx
	.cfi_def_cfa_offset 48
	popq	%rbp
	.cfi_def_cfa_offset 40
	popq	%r12
	.cfi_def_cfa_offset 32
	popq	%r13
	.cfi_def_cfa_offset 24
	popq	%r14
	.cfi_def_cfa_offset 16
	popq	%r15
	.cfi_def_cfa_offset 8
	jmp	_ZdlPv@PLT
	.p2align 4,,10
	.p2align 3
.L1907:
	.cfi_restore_state
	movzbl	152(%rbp), %edx
	movb	%dl, 0(%rbp)
	movq	%rbp, (%rax)
	jmp	.L1646
	.p2align 4,,10
	.p2align 3
.L1758:
	cmpb	$0, 40(%rbp)
	je	.L1759
	data16	leaq	_ZN4asio6detail15keyword_tss_ptrINS0_10call_stackINS0_15task_io_serviceENS0_27task_io_service_thread_infoEE7contextEE6value_E@tlsgd(%rip), %rdi
	.value	0x6666
	rex64
	call	__tls_get_addr@PLT
	movq	(%rax), %rax
	testq	%rax, %rax
	jne	.L1762
	jmp	.L1759
	.p2align 4,,10
	.p2align 3
.L1760:
	movq	16(%rax), %rax
	testq	%rax, %rax
	je	.L1759
.L1762:
	cmpq	(%rax), %rbp
	jne	.L1760
	movq	8(%rax), %rax
	testq	%rax, %rax
	je	.L1759
	addq	$1, 24(%rax)
	movq	$0, (%rbx)
	movq	16(%rax), %rdx
	testq	%rdx, %rdx
	je	.L1763
	movq	%rbx, (%rdx)
	movq	%rbx, 16(%rax)
	data16	leaq	_ZN4asio6detail15keyword_tss_ptrINS0_10call_stackINS0_14strand_service11strand_implEhE7contextEE6value_E@tlsgd(%rip), %rdi
	.value	0x6666
	rex64
	call	__tls_get_addr@PLT
	movq	160(%rsp), %rdx
	movq	%rdx, (%rax)
	sfence
	jmp	.L1646
.L1759:
	lock addq	$1, 184(%rbp)
	leaq	48(%rbp), %r12
	movq	%r12, %rdi
	call	pthread_mutex_lock@PLT
	cmpq	$0, 200(%rbp)
	movq	$0, (%rbx)
	je	.L1764
	movq	200(%rbp), %rax
	movq	%rbx, (%rax)
	movq	%rbx, 200(%rbp)
.L1765:
	movq	136(%rbp), %rax
	orq	$1, %rax
	movq	%rax, 136(%rbp)
	cmpq	$1, %rax
	je	.L1766
	movq	%r12, %rdi
	call	pthread_mutex_unlock@PLT
	leaq	88(%rbp), %rdi
	call	pthread_cond_signal@PLT
.L1767:
	data16	leaq	_ZN4asio6detail15keyword_tss_ptrINS0_10call_stackINS0_14strand_service11strand_implEhE7contextEE6value_E@tlsgd(%rip), %rdi
	.value	0x6666
	rex64
	call	__tls_get_addr@PLT
	movq	80(%rsp), %rbx
	movq	72(%rsp), %rbp
	movq	160(%rsp), %rdx
	movq	%rdx, (%rax)
	jmp	.L1725
.L1906:
	movq	144(%rbx), %rax
	testq	%rax, %rax
	je	.L1752
	movb	$1, 176(%rbx)
	leaq	88(%rax), %rdx
	movl	$3, %esi
	leaq	144(%rsp), %rcx
	movq	%rdx, 148(%rsp)
	movl	88(%rax), %edx
	movl	$-2147483639, 144(%rsp)
	movl	96(%rax), %edi
	call	epoll_ctl@PLT
	jmp	.L1752
.L1764:
	movdqa	(%rsp), %xmm3
	movups	%xmm3, 192(%rbp)
	jmp	.L1765
.L1756:
	movq	%r12, 88(%rbx)
	jmp	.L1757
.L1766:
	cmpb	$0, 176(%rbp)
	jne	.L1768
	movq	144(%rbp), %rax
	testq	%rax, %rax
	je	.L1768
	movb	$1, 176(%rbp)
	leaq	88(%rax), %rdx
	movq	%r13, %rcx
	movl	$3, %esi
	movq	%rdx, 100(%rsp)
	movl	88(%rax), %edx
	movl	$-2147483639, 96(%rsp)
	movl	96(%rax), %edi
	call	epoll_ctl@PLT
.L1768:
	movq	%r12, %rdi
	call	pthread_mutex_unlock@PLT
	jmp	.L1767
.L1741:
	movdqa	(%rsp), %xmm2
	movups	%xmm2, 88(%rbp)
	jmp	.L1742
.L1658:
	movq	%rbp, %rdi
	call	_ZdlPv@PLT
.L1657:
	movl	$153, %edi
.LEHB30:
	call	_Znwm@PLT
.LEHE30:
	movb	$-104, 152(%rax)
	movq	144(%rsp), %rdi
	movq	%rax, %rbp
	movl	168(%rsp), %esi
	movq	176(%rsp), %r15
	jmp	.L1659
.L1748:
	movdqa	16(%rsp), %xmm1
	movups	%xmm1, 192(%rbx)
	jmp	.L1749
.L1777:
	movq	$0, (%rsp)
	xorl	%r13d, %r13d
	xorl	%r12d, %r12d
	jmp	.L1656
.L1903:
	movl	$0, 24(%rbp)
	movl	(%rbx), %r14d
	movq	%rcx, 32(%rbp)
	orb	$2, 4(%rbx)
.L1662:
	movq	16(%rsp), %rax
	movq	8(%rbx), %r12
	movq	40(%rax), %r13
	testq	%r12, %r12
	je	.L1908
	addq	$40, %r12
	movq	%r12, %rdi
	call	pthread_mutex_lock@PLT
	movq	8(%rbx), %rax
	cmpb	$0, 144(%rax)
	jne	.L1909
	cmpq	$0, 112(%rax)
	je	.L1910
.L1698:
	movq	120(%rax), %rdx
	movq	%rbp, %xmm0
	movq	$0, 0(%rbp)
	punpcklqdq	%xmm0, %xmm0
	testq	%rdx, %rdx
	je	.L1711
	movq	%rbp, (%rdx)
	movq	%rbp, 120(%rax)
.L1712:
	movq	40(%r13), %rax
	lock addq	$1, 184(%rax)
	movq	%r12, %rdi
	call	pthread_mutex_unlock@PLT
	jmp	.L1680
.L1715:
	lock addq	$1, 184(%rbx)
	leaq	48(%rbx), %r12
	movq	%r12, %rdi
	call	pthread_mutex_lock@PLT
	cmpq	$0, 200(%rbx)
	movq	$0, 0(%rbp)
	je	.L1720
.L1900:
	movq	200(%rbx), %rax
	movq	%rbp, (%rax)
	movq	%rbp, 200(%rbx)
.L1721:
	movq	136(%rbx), %rax
	orq	$1, %rax
	movq	%rax, 136(%rbx)
	cmpq	$1, %rax
	je	.L1722
	movq	%r12, %rdi
	call	pthread_mutex_unlock@PLT
	leaq	88(%rbx), %rdi
	call	pthread_cond_signal@PLT
	jmp	.L1680
.L1722:
	cmpb	$0, 176(%rbx)
	jne	.L1724
	movq	144(%rbx), %rax
	testq	%rax, %rax
	je	.L1724
	movb	$1, 176(%rbx)
	leaq	88(%rax), %rdx
	leaq	48(%rsp), %rcx
	movl	$3, %esi
	movl	$-2147483639, 48(%rsp)
	movq	%rdx, 52(%rsp)
	movl	88(%rax), %edx
	movl	96(%rax), %edi
	call	epoll_ctl@PLT
.L1724:
	movq	%r12, %rdi
	call	pthread_mutex_unlock@PLT
	jmp	.L1680
.L1747:
	movdqa	16(%rsp), %xmm2
	movups	%xmm2, 8(%rax)
	sfence
	jmp	.L1646
.L1763:
	movdqa	(%rsp), %xmm3
	movups	%xmm3, 8(%rax)
	jmp	.L1890
.L1667:
	movq	%r13, %rdi
	movq	%rcx, (%rsp)
	call	__cxa_guard_acquire@PLT
	movq	(%rsp), %rcx
	testl	%eax, %eax
	je	.L1886
	movq	_ZZN4asio15system_categoryEvE8instance@GOTPCREL(%rip), %r12
	movq	_ZN4asio6detail15system_categoryD1Ev@GOTPCREL(%rip), %rdi
	leaq	__dso_handle(%rip), %rdx
	movq	%rcx, (%rsp)
	movq	%r12, %rsi
	call	__cxa_atexit@PLT
	movq	%r13, %rdi
	call	__cxa_guard_release@PLT
	movq	(%rsp), %rcx
	jmp	.L1668
.L1720:
	movdqa	(%rsp), %xmm1
	movups	%xmm1, 192(%rbx)
	jmp	.L1721
.L1719:
	movdqa	(%rsp), %xmm6
	movups	%xmm6, 8(%rax)
	jmp	.L1680
.L1711:
	movups	%xmm0, 112(%rax)
	jmp	.L1712
.L1908:
	movq	_ZGVZN4asio15system_categoryEvE8instance@GOTPCREL(%rip), %r14
	movq	%rbp, %xmm3
	punpcklqdq	%xmm3, %xmm3
	movaps	%xmm3, (%rsp)
	movzbl	(%r14), %eax
	testb	%al, %al
	je	.L1672
.L1887:
	movq	_ZZN4asio15system_categoryEvE8instance@GOTPCREL(%rip), %r12
.L1673:
	movl	$9, 24(%rbp)
	movq	40(%r13), %rbx
	movq	%r12, 32(%rbp)
	data16	leaq	_ZN4asio6detail15keyword_tss_ptrINS0_10call_stackINS0_15task_io_serviceENS0_27task_io_service_thread_infoEE7contextEE6value_E@tlsgd(%rip), %rdi
	.value	0x6666
	rex64
	call	__tls_get_addr@PLT
	movq	(%rax), %rax
	testq	%rax, %rax
	jne	.L1678
	jmp	.L1675
	.p2align 4,,10
	.p2align 3
.L1676:
	movq	16(%rax), %rax
	testq	%rax, %rax
	je	.L1675
.L1678:
	cmpq	(%rax), %rbx
	jne	.L1676
	movq	8(%rax), %rax
	testq	%rax, %rax
	je	.L1675
	addq	$1, 24(%rax)
	movq	$0, 0(%rbp)
	movq	16(%rax), %rdx
	testq	%rdx, %rdx
	jne	.L1889
	movdqa	(%rsp), %xmm1
	movups	%xmm1, 8(%rax)
	jmp	.L1680
.L1909:
	movq	%rbp, %xmm1
	movq	40(%r13), %rbx
	punpcklqdq	%xmm1, %xmm1
	movaps	%xmm1, (%rsp)
	data16	leaq	_ZN4asio6detail15keyword_tss_ptrINS0_10call_stackINS0_15task_io_serviceENS0_27task_io_service_thread_infoEE7contextEE6value_E@tlsgd(%rip), %rdi
	.value	0x6666
	rex64
	call	__tls_get_addr@PLT
	movq	(%rax), %rax
	testq	%rax, %rax
	jne	.L1690
	jmp	.L1687
	.p2align 4,,10
	.p2align 3
.L1688:
	movq	16(%rax), %rax
	testq	%rax, %rax
	je	.L1687
.L1690:
	cmpq	(%rax), %rbx
	jne	.L1688
	movq	8(%rax), %rax
	testq	%rax, %rax
	je	.L1687
	addq	$1, 24(%rax)
	movq	$0, 0(%rbp)
	movq	16(%rax), %rdx
	testq	%rdx, %rdx
	je	.L1691
	movq	%rbp, (%rdx)
	movq	%rbp, 16(%rax)
	jmp	.L1724
.L1902:
	movq	_ZGVZN4asio15system_categoryEvE8instance@GOTPCREL(%rip), %r13
	movzbl	0(%r13), %eax
	testb	%al, %al
	je	.L1664
.L1885:
	movq	_ZZN4asio15system_categoryEvE8instance@GOTPCREL(%rip), %r12
.L1665:
	movl	$9, 24(%rbp)
	movq	%r12, 32(%rbp)
	jmp	.L1660
.L1687:
	lock addq	$1, 184(%rbx)
	leaq	48(%rbx), %r13
	movq	%r13, %rdi
	call	pthread_mutex_lock@PLT
	cmpq	$0, 200(%rbx)
	movq	$0, 0(%rbp)
	je	.L1693
	movq	200(%rbx), %rax
	movq	%rbp, (%rax)
	movq	%rbp, 200(%rbx)
.L1694:
	movq	136(%rbx), %rax
	orq	$1, %rax
	movq	%rax, 136(%rbx)
	cmpq	$1, %rax
	je	.L1695
	movq	%r13, %rdi
	call	pthread_mutex_unlock@PLT
	leaq	88(%rbx), %rdi
	call	pthread_cond_signal@PLT
	jmp	.L1724
.L1675:
	lock addq	$1, 184(%rbx)
	leaq	48(%rbx), %r12
	movq	%r12, %rdi
	call	pthread_mutex_lock@PLT
	cmpq	$0, 200(%rbx)
	movq	$0, 0(%rbp)
	jne	.L1900
	movdqa	(%rsp), %xmm2
	movups	%xmm2, 192(%rbx)
	jmp	.L1721
.L1910:
	movq	%rbp, %rdi
.LEHB31:
	call	*48(%rbp)
.LEHE31:
	testb	%al, %al
	jne	.L1911
	movq	8(%rbx), %rax
	movl	92(%rax), %edx
	testb	$4, %dl
	jne	.L1698
	orl	$4, %edx
	movq	%rax, 52(%rsp)
	leaq	48(%rsp), %rcx
	movl	$3, %esi
	movl	%edx, 48(%rsp)
	movl	96(%r13), %edi
	movl	%r14d, %edx
	call	epoll_ctl@PLT
	testl	%eax, %eax
	jne	.L1710
	movq	8(%rbx), %rax
	movl	48(%rsp), %edx
	orl	%edx, 92(%rax)
	movq	8(%rbx), %rax
	jmp	.L1698
.L1672:
	movq	%r14, %rdi
	call	__cxa_guard_acquire@PLT
	testl	%eax, %eax
	je	.L1887
	movq	_ZZN4asio15system_categoryEvE8instance@GOTPCREL(%rip), %r12
	movq	_ZN4asio6detail15system_categoryD1Ev@GOTPCREL(%rip), %rdi
	leaq	__dso_handle(%rip), %rdx
	movq	%r12, %rsi
	call	__cxa_atexit@PLT
	movq	%r14, %rdi
	call	__cxa_guard_release@PLT
	jmp	.L1673
.L1695:
	cmpb	$0, 176(%rbx)
	jne	.L1697
	movq	144(%rbx), %rax
	testq	%rax, %rax
	je	.L1697
	movb	$1, 176(%rbx)
	leaq	88(%rax), %rdx
	leaq	48(%rsp), %rcx
	movl	$3, %esi
	movq	%rdx, 52(%rsp)
	movl	88(%rax), %edx
	movl	$-2147483639, 48(%rsp)
	movl	96(%rax), %edi
	call	epoll_ctl@PLT
.L1697:
	movq	%r13, %rdi
	call	pthread_mutex_unlock@PLT
	jmp	.L1724
.L1691:
	movdqa	(%rsp), %xmm3
	movups	%xmm3, 8(%rax)
	jmp	.L1724
.L1693:
	movdqa	(%rsp), %xmm1
	movups	%xmm1, 192(%rbx)
	jmp	.L1694
.L1891:
	call	__stack_chk_fail@PLT
.L1664:
	movq	%r13, %rdi
	call	__cxa_guard_acquire@PLT
	testl	%eax, %eax
	je	.L1885
	movq	_ZZN4asio15system_categoryEvE8instance@GOTPCREL(%rip), %r12
	movq	_ZN4asio6detail15system_categoryD1Ev@GOTPCREL(%rip), %rdi
	leaq	__dso_handle(%rip), %rdx
	movq	%r12, %rsi
	call	__cxa_atexit@PLT
	movq	%r13, %rdi
	call	__cxa_guard_release@PLT
	jmp	.L1665
.L1911:
	movq	%rbp, %xmm2
	movq	%r12, %rdi
	punpcklqdq	%xmm2, %xmm2
	movaps	%xmm2, (%rsp)
	call	pthread_mutex_unlock@PLT
	movq	40(%r13), %rbx
	data16	leaq	_ZN4asio6detail15keyword_tss_ptrINS0_10call_stackINS0_15task_io_serviceENS0_27task_io_service_thread_infoEE7contextEE6value_E@tlsgd(%rip), %rdi
	.value	0x6666
	rex64
	call	__tls_get_addr@PLT
	movq	(%rax), %rax
	testq	%rax, %rax
	jne	.L1703
	jmp	.L1700
	.p2align 4,,10
	.p2align 3
.L1701:
	movq	16(%rax), %rax
	testq	%rax, %rax
	je	.L1700
.L1703:
	cmpq	(%rax), %rbx
	jne	.L1701
	movq	8(%rax), %rax
	testq	%rax, %rax
	je	.L1700
	addq	$1, 24(%rax)
	movq	$0, 0(%rbp)
	movq	16(%rax), %rdx
	testq	%rdx, %rdx
	jne	.L1889
	movdqa	(%rsp), %xmm2
	movups	%xmm2, 8(%rax)
	jmp	.L1680
.L1710:
	call	_ZN4asio15system_categoryEv@PLT
	movq	%rax, %rbx
	call	__errno_location@PLT
	movq	40(%r13), %rdi
	movl	$1, %edx
	movq	%rbp, %rsi
	movl	(%rax), %eax
	movq	%rbx, 32(%rbp)
	movl	%eax, 24(%rbp)
	call	_ZN4asio6detail15task_io_service25post_immediate_completionEPNS0_25task_io_service_operationEb@PLT
	jmp	.L1724
.L1700:
	lock addq	$1, 184(%rbx)
	leaq	48(%rbx), %r12
	movq	%r12, %rdi
	call	pthread_mutex_lock@PLT
	cmpq	$0, 200(%rbx)
	movq	$0, 0(%rbp)
	jne	.L1900
	movdqa	(%rsp), %xmm3
	movups	%xmm3, 192(%rbx)
	jmp	.L1721
.L1781:
	endbr64
	movq	%rax, %rbp
	jmp	.L1713
.L1779:
	endbr64
	movq	%rax, %rbp
	jmp	.L1772
.L1778:
	endbr64
	movq	%rax, %rbp
	jmp	.L1771
.L1780:
	endbr64
	movq	%rax, %rbp
	jmp	.L1714
	.section	.gcc_except_table
.LLSDA9215:
	.byte	0xff
	.byte	0xff
	.byte	0x1
	.uleb128 .LLSDACSE9215-.LLSDACSB9215
.LLSDACSB9215:
	.uleb128 .LEHB27-.LFB9215
	.uleb128 .LEHE27-.LEHB27
	.uleb128 .L1780-.LFB9215
	.uleb128 0
	.uleb128 .LEHB28-.LFB9215
	.uleb128 .LEHE28-.LEHB28
	.uleb128 .L1778-.LFB9215
	.uleb128 0
	.uleb128 .LEHB29-.LFB9215
	.uleb128 .LEHE29-.LEHB29
	.uleb128 .L1779-.LFB9215
	.uleb128 0
	.uleb128 .LEHB30-.LFB9215
	.uleb128 .LEHE30-.LEHB30
	.uleb128 .L1780-.LFB9215
	.uleb128 0
	.uleb128 .LEHB31-.LFB9215
	.uleb128 .LEHE31-.LEHB31
	.uleb128 .L1781-.LFB9215
	.uleb128 0
.LLSDACSE9215:
	.text
	.cfi_endproc
	.section	.text.unlikely
	.cfi_startproc
	.cfi_personality 0x9b,DW.ref.__gxx_personality_v0
	.cfi_lsda 0x1b,.LLSDAC9215
	.type	_ZN4asio6detail23reactive_socket_send_opINS_15const_buffers_1ENS0_8write_opINS_19basic_stream_socketINS_2ip3tcpENS_21stream_socket_serviceIS6_EEEES2_NS0_14transfer_all_tENS0_15wrapped_handlerINS_10io_service6strandEZN7asiopal13SocketChannel14BeginWriteImplERKN7openpal6RSliceEEUlRKSt10error_codemE_NS0_26is_continuation_if_runningEEEEEE11do_completeEPNS0_15task_io_serviceEPNS0_25task_io_service_operationESM_m.cold, @function
_ZN4asio6detail23reactive_socket_send_opINS_15const_buffers_1ENS0_8write_opINS_19basic_stream_socketINS_2ip3tcpENS_21stream_socket_serviceIS6_EEEES2_NS0_14transfer_all_tENS0_15wrapped_handlerINS_10io_service6strandEZN7asiopal13SocketChannel14BeginWriteImplERKN7openpal6RSliceEEUlRKSt10error_codemE_NS0_26is_continuation_if_runningEEEEEE11do_completeEPNS0_15task_io_serviceEPNS0_25task_io_service_operationESM_m.cold:
.LFSB9215:
.L1713:
	.cfi_def_cfa_offset 592
	.cfi_offset 3, -56
	.cfi_offset 6, -48
	.cfi_offset 12, -40
	.cfi_offset 13, -32
	.cfi_offset 14, -24
	.cfi_offset 15, -16
	movq	%r12, %rdi
	call	pthread_mutex_unlock@PLT
	leaq	96(%rsp), %rdi
	call	_ZN4asio6detail23reactive_socket_send_opINS_15const_buffers_1ENS0_8write_opINS_19basic_stream_socketINS_2ip3tcpENS_21stream_socket_serviceIS6_EEEES2_NS0_14transfer_all_tENS0_15wrapped_handlerINS_10io_service6strandEZN7asiopal13SocketChannel14BeginWriteImplERKN7openpal6RSliceEEUlRKSt10error_codemE_NS0_26is_continuation_if_runningEEEEEE3ptr5resetEv
.L1714:
	sfence
.L1771:
	sfence
	leaq	64(%rsp), %rdi
	call	_ZN4asio6detail23reactive_socket_send_opINS_15const_buffers_1ENS0_8write_opINS_19basic_stream_socketINS_2ip3tcpENS_21stream_socket_serviceIS6_EEEES2_NS0_14transfer_all_tENS0_15wrapped_handlerINS_10io_service6strandEZN7asiopal13SocketChannel14BeginWriteImplERKN7openpal6RSliceEEUlRKSt10error_codemE_NS0_26is_continuation_if_runningEEEEEE3ptr5resetEv
	movq	%rbp, %rdi
.LEHB32:
	call	_Unwind_Resume@PLT
.LEHE32:
.L1772:
	leaq	48(%rsp), %rdi
	call	_ZN4asio6detail14strand_service16on_dispatch_exitD1Ev@PLT
	data16	leaq	_ZN4asio6detail15keyword_tss_ptrINS0_10call_stackINS0_14strand_service11strand_implEhE7contextEE6value_E@tlsgd(%rip), %rdi
	.value	0x6666
	rex64
	call	__tls_get_addr@PLT
	movq	160(%rsp), %rdx
	movq	%rdx, (%rax)
	jmp	.L1771
	.cfi_endproc
.LFE9215:
	.section	.gcc_except_table
.LLSDAC9215:
	.byte	0xff
	.byte	0xff
	.byte	0x1
	.uleb128 .LLSDACSEC9215-.LLSDACSBC9215
.LLSDACSBC9215:
	.uleb128 .LEHB32-.LCOLDB32
	.uleb128 .LEHE32-.LEHB32
	.uleb128 0
	.uleb128 0
.LLSDACSEC9215:
	.section	.text.unlikely
	.text
	.size	_ZN4asio6detail23reactive_socket_send_opINS_15const_buffers_1ENS0_8write_opINS_19basic_stream_socketINS_2ip3tcpENS_21stream_socket_serviceIS6_EEEES2_NS0_14transfer_all_tENS0_15wrapped_handlerINS_10io_service6strandEZN7asiopal13SocketChannel14BeginWriteImplERKN7openpal6RSliceEEUlRKSt10error_codemE_NS0_26is_continuation_if_runningEEEEEE11do_completeEPNS0_15task_io_serviceEPNS0_25task_io_service_operationESM_m, .-_ZN4asio6detail23reactive_socket_send_opINS_15const_buffers_1ENS0_8write_opINS_19basic_stream_socketINS_2ip3tcpENS_21stream_socket_serviceIS6_EEEES2_NS0_14transfer_all_tENS0_15wrapped_handlerINS_10io_service6strandEZN7asiopal13SocketChannel14BeginWriteImplERKN7openpal6RSliceEEUlRKSt10error_codemE_NS0_26is_continuation_if_runningEEEEEE11do_completeEPNS0_15task_io_serviceEPNS0_25task_io_service_operationESM_m
	.section	.text.unlikely
	.size	_ZN4asio6detail23reactive_socket_send_opINS_15const_buffers_1ENS0_8write_opINS_19basic_stream_socketINS_2ip3tcpENS_21stream_socket_serviceIS6_EEEES2_NS0_14transfer_all_tENS0_15wrapped_handlerINS_10io_service6strandEZN7asiopal13SocketChannel14BeginWriteImplERKN7openpal6RSliceEEUlRKSt10error_codemE_NS0_26is_continuation_if_runningEEEEEE11do_completeEPNS0_15task_io_serviceEPNS0_25task_io_service_operationESM_m.cold, .-_ZN4asio6detail23reactive_socket_send_opINS_15const_buffers_1ENS0_8write_opINS_19basic_stream_socketINS_2ip3tcpENS_21stream_socket_serviceIS6_EEEES2_NS0_14transfer_all_tENS0_15wrapped_handlerINS_10io_service6strandEZN7asiopal13SocketChannel14BeginWriteImplERKN7openpal6RSliceEEUlRKSt10error_codemE_NS0_26is_continuation_if_runningEEEEEE11do_completeEPNS0_15task_io_serviceEPNS0_25task_io_service_operationESM_m.cold
.LCOLDE32:
	.text
.LHOTE32:
	.align 2
	.p2align 4
	.globl	_ZN7asiopal13SocketChannelC2ESt10shared_ptrINS_8ExecutorEEN4asio19basic_stream_socketINS4_2ip3tcpENS4_21stream_socket_serviceIS7_EEEE
	.type	_ZN7asiopal13SocketChannelC2ESt10shared_ptrINS_8ExecutorEEN4asio19basic_stream_socketINS4_2ip3tcpENS4_21stream_socket_serviceIS7_EEEE, @function
_ZN7asiopal13SocketChannelC2ESt10shared_ptrINS_8ExecutorEEN4asio19basic_stream_socketINS4_2ip3tcpENS4_21stream_socket_serviceIS7_EEEE:
.LFB7049:
	.cfi_startproc
	endbr64
	movq	_ZTVN7asiopal13IAsyncChannelE@GOTPCREL(%rip), %rcx
	movq	$0, 8(%rdi)
	movq	%rdi, %rax
	movq	$0, 16(%rdi)
	addq	$16, %rcx
	movq	%rcx, (%rdi)
	movq	(%rsi), %rcx
	movq	%rcx, 24(%rdi)
	movq	8(%rsi), %rcx
	movq	%rcx, 32(%rdi)
	testq	%rcx, %rcx
	je	.L1913
	movq	__libc_single_threaded@GOTPCREL(%rip), %rsi
	cmpb	$0, (%rsi)
	je	.L1914
	addl	$1, 8(%rcx)
.L1913:
	xorl	%ecx, %ecx
	pxor	%xmm0, %xmm0
	movl	$2, 80(%rax)
	movw	%cx, 56(%rax)
	movq	_ZTVN7asiopal13SocketChannelE@GOTPCREL(%rip), %rcx
	movups	%xmm0, 40(%rax)
	addq	$16, %rcx
	movb	$0, 58(%rax)
	movq	%rcx, (%rax)
	movq	24(%rdx), %rcx
	movq	%rcx, 88(%rax)
	movl	(%rdx), %ecx
	movl	$-1, (%rdx)
	movl	%ecx, 64(%rax)
	movzbl	4(%rdx), %ecx
	movb	$0, 4(%rdx)
	movb	%cl, 68(%rax)
	movq	8(%rdx), %rcx
	movq	$0, 8(%rdx)
	movq	%rcx, 72(%rax)
	movl	16(%rdx), %ecx
	movl	$2, 16(%rdx)
	movl	%ecx, 80(%rax)
	ret
	.p2align 4,,10
	.p2align 3
.L1914:
	lock addl	$1, 8(%rcx)
	jmp	.L1913
	.cfi_endproc
.LFE7049:
	.size	_ZN7asiopal13SocketChannelC2ESt10shared_ptrINS_8ExecutorEEN4asio19basic_stream_socketINS4_2ip3tcpENS4_21stream_socket_serviceIS7_EEEE, .-_ZN7asiopal13SocketChannelC2ESt10shared_ptrINS_8ExecutorEEN4asio19basic_stream_socketINS4_2ip3tcpENS4_21stream_socket_serviceIS7_EEEE
	.globl	_ZN7asiopal13SocketChannelC1ESt10shared_ptrINS_8ExecutorEEN4asio19basic_stream_socketINS4_2ip3tcpENS4_21stream_socket_serviceIS7_EEEE
	.set	_ZN7asiopal13SocketChannelC1ESt10shared_ptrINS_8ExecutorEEN4asio19basic_stream_socketINS4_2ip3tcpENS4_21stream_socket_serviceIS7_EEEE,_ZN7asiopal13SocketChannelC2ESt10shared_ptrINS_8ExecutorEEN4asio19basic_stream_socketINS4_2ip3tcpENS4_21stream_socket_serviceIS7_EEEE
	.section	.text.startup,"ax",@progbits
	.p2align 4
	.type	_GLOBAL__sub_I_SocketChannel.cpp, @function
_GLOBAL__sub_I_SocketChannel.cpp:
.LFB9615:
	.cfi_startproc
	endbr64
	pushq	%rbp
	.cfi_def_cfa_offset 16
	.cfi_offset 6, -16
	call	_ZN4asio15system_categoryEv@PLT
	movq	_ZGVZN4asio5error18get_netdb_categoryEvE8instance@GOTPCREL(%rip), %rbp
	movzbl	0(%rbp), %eax
	testb	%al, %al
	je	.L1943
.L1920:
	movq	_ZGVZN4asio5error21get_addrinfo_categoryEvE8instance@GOTPCREL(%rip), %rbp
	movzbl	0(%rbp), %eax
	testb	%al, %al
	je	.L1944
.L1923:
	movq	_ZGVZN4asio5error17get_misc_categoryEvE8instance@GOTPCREL(%rip), %rbp
	movzbl	0(%rbp), %eax
	testb	%al, %al
	je	.L1945
.L1926:
	movq	_ZGVN4asio6detail10call_stackINS0_15task_io_serviceENS0_27task_io_service_thread_infoEE4top_E@GOTPCREL(%rip), %rax
	cmpb	$0, (%rax)
	je	.L1946
.L1928:
	movq	_ZGVN4asio6detail12service_baseINS0_13epoll_reactorEE2idE@GOTPCREL(%rip), %rax
	cmpb	$0, (%rax)
	je	.L1947
.L1929:
	movq	_ZGVN4asio6detail12service_baseINS0_15task_io_serviceEE2idE@GOTPCREL(%rip), %rax
	cmpb	$0, (%rax)
	je	.L1948
.L1930:
	movq	_ZGVN4asio6detail10call_stackINS0_14strand_service11strand_implEhE4top_E@GOTPCREL(%rip), %rax
	cmpb	$0, (%rax)
	je	.L1949
.L1931:
	movq	_ZGVN4asio6detail12service_baseINS0_14strand_serviceEE2idE@GOTPCREL(%rip), %rax
	cmpb	$0, (%rax)
	je	.L1950
	popq	%rbp
	.cfi_remember_state
	.cfi_def_cfa_offset 8
	ret
.L1943:
	.cfi_restore_state
	movq	%rbp, %rdi
	call	__cxa_guard_acquire@PLT
	testl	%eax, %eax
	je	.L1920
	movq	_ZZN4asio5error18get_netdb_categoryEvE8instance@GOTPCREL(%rip), %rsi
	movq	_ZN4asio5error6detail14netdb_categoryD1Ev@GOTPCREL(%rip), %rdi
	leaq	__dso_handle(%rip), %rdx
	call	__cxa_atexit@PLT
	movq	%rbp, %rdi
	call	__cxa_guard_release@PLT
	jmp	.L1920
.L1950:
	movb	$1, (%rax)
	leaq	__dso_handle(%rip), %rdx
	movq	_ZN4asio6detail12service_baseINS0_14strand_serviceEE2idE@GOTPCREL(%rip), %rsi
	movq	_ZN4asio6detail10service_idINS0_14strand_serviceEED1Ev@GOTPCREL(%rip), %rdi
	popq	%rbp
	.cfi_remember_state
	.cfi_def_cfa_offset 8
	jmp	__cxa_atexit@PLT
.L1949:
	.cfi_restore_state
	movb	$1, (%rax)
	movq	_ZN4asio6detail10call_stackINS0_14strand_service11strand_implEhE4top_E@GOTPCREL(%rip), %rsi
	leaq	__dso_handle(%rip), %rdx
	movq	_ZN4asio6detail7tss_ptrINS0_10call_stackINS0_14strand_service11strand_implEhE7contextEED1Ev@GOTPCREL(%rip), %rdi
	call	__cxa_atexit@PLT
	jmp	.L1931
.L1948:
	movb	$1, (%rax)
	movq	_ZN4asio6detail12service_baseINS0_15task_io_serviceEE2idE@GOTPCREL(%rip), %rsi
	leaq	__dso_handle(%rip), %rdx
	movq	_ZN4asio6detail10service_idINS0_15task_io_serviceEED1Ev@GOTPCREL(%rip), %rdi
	call	__cxa_atexit@PLT
	jmp	.L1930
.L1947:
	movb	$1, (%rax)
	movq	_ZN4asio6detail12service_baseINS0_13epoll_reactorEE2idE@GOTPCREL(%rip), %rsi
	leaq	__dso_handle(%rip), %rdx
	movq	_ZN4asio6detail10service_idINS0_13epoll_reactorEED1Ev@GOTPCREL(%rip), %rdi
	call	__cxa_atexit@PLT
	jmp	.L1929
.L1946:
	movb	$1, (%rax)
	movq	_ZN4asio6detail10call_stackINS0_15task_io_serviceENS0_27task_io_service_thread_infoEE4top_E@GOTPCREL(%rip), %rsi
	leaq	__dso_handle(%rip), %rdx
	movq	_ZN4asio6detail7tss_ptrINS0_10call_stackINS0_15task_io_serviceENS0_27task_io_service_thread_infoEE7contextEED1Ev@GOTPCREL(%rip), %rdi
	call	__cxa_atexit@PLT
	jmp	.L1928
.L1945:
	movq	%rbp, %rdi
	call	__cxa_guard_acquire@PLT
	testl	%eax, %eax
	je	.L1926
	movq	_ZZN4asio5error17get_misc_categoryEvE8instance@GOTPCREL(%rip), %rsi
	movq	_ZN4asio5error6detail13misc_categoryD1Ev@GOTPCREL(%rip), %rdi
	leaq	__dso_handle(%rip), %rdx
	call	__cxa_atexit@PLT
	movq	%rbp, %rdi
	call	__cxa_guard_release@PLT
	jmp	.L1926
.L1944:
	movq	%rbp, %rdi
	call	__cxa_guard_acquire@PLT
	testl	%eax, %eax
	je	.L1923
	movq	_ZZN4asio5error21get_addrinfo_categoryEvE8instance@GOTPCREL(%rip), %rsi
	movq	_ZN4asio5error6detail17addrinfo_categoryD1Ev@GOTPCREL(%rip), %rdi
	leaq	__dso_handle(%rip), %rdx
	call	__cxa_atexit@PLT
	movq	%rbp, %rdi
	call	__cxa_guard_release@PLT
	jmp	.L1923
	.cfi_endproc
.LFE9615:
	.size	_GLOBAL__sub_I_SocketChannel.cpp, .-_GLOBAL__sub_I_SocketChannel.cpp
	.section	.init_array,"aw"
	.align 8
	.quad	_GLOBAL__sub_I_SocketChannel.cpp
	.weak	_ZTSN7openpal10UncopyableE
	.section	.rodata._ZTSN7openpal10UncopyableE,"aG",@progbits,_ZTSN7openpal10UncopyableE,comdat
	.align 16
	.type	_ZTSN7openpal10UncopyableE, @object
	.size	_ZTSN7openpal10UncopyableE, 23
_ZTSN7openpal10UncopyableE:
	.string	"N7openpal10UncopyableE"
	.weak	_ZTIN7openpal10UncopyableE
	.section	.data.rel.ro._ZTIN7openpal10UncopyableE,"awG",@progbits,_ZTIN7openpal10UncopyableE,comdat
	.align 8
	.type	_ZTIN7openpal10UncopyableE, @object
	.size	_ZTIN7openpal10UncopyableE, 16
_ZTIN7openpal10UncopyableE:
	.quad	_ZTVN10__cxxabiv117__class_type_infoE+16
	.quad	_ZTSN7openpal10UncopyableE
	.weak	_ZTSSt23enable_shared_from_thisIN7asiopal13IAsyncChannelEE
	.section	.rodata._ZTSSt23enable_shared_from_thisIN7asiopal13IAsyncChannelEE,"aG",@progbits,_ZTSSt23enable_shared_from_thisIN7asiopal13IAsyncChannelEE,comdat
	.align 32
	.type	_ZTSSt23enable_shared_from_thisIN7asiopal13IAsyncChannelEE, @object
	.size	_ZTSSt23enable_shared_from_thisIN7asiopal13IAsyncChannelEE, 55
_ZTSSt23enable_shared_from_thisIN7asiopal13IAsyncChannelEE:
	.string	"St23enable_shared_from_thisIN7asiopal13IAsyncChannelEE"
	.weak	_ZTISt23enable_shared_from_thisIN7asiopal13IAsyncChannelEE
	.section	.data.rel.ro._ZTISt23enable_shared_from_thisIN7asiopal13IAsyncChannelEE,"awG",@progbits,_ZTISt23enable_shared_from_thisIN7asiopal13IAsyncChannelEE,comdat
	.align 8
	.type	_ZTISt23enable_shared_from_thisIN7asiopal13IAsyncChannelEE, @object
	.size	_ZTISt23enable_shared_from_thisIN7asiopal13IAsyncChannelEE, 16
_ZTISt23enable_shared_from_thisIN7asiopal13IAsyncChannelEE:
	.quad	_ZTVN10__cxxabiv117__class_type_infoE+16
	.quad	_ZTSSt23enable_shared_from_thisIN7asiopal13IAsyncChannelEE
	.weak	_ZGVN4asio6detail12service_baseINS0_14strand_serviceEE2idE
	.section	.bss._ZGVN4asio6detail12service_baseINS0_14strand_serviceEE2idE,"awG",@nobits,_ZGVN4asio6detail12service_baseINS0_14strand_serviceEE2idE,comdat
	.align 8
	.type	_ZGVN4asio6detail12service_baseINS0_14strand_serviceEE2idE, @gnu_unique_object
	.size	_ZGVN4asio6detail12service_baseINS0_14strand_serviceEE2idE, 8
_ZGVN4asio6detail12service_baseINS0_14strand_serviceEE2idE:
	.zero	8
	.weak	_ZGVN4asio6detail10call_stackINS0_14strand_service11strand_implEhE4top_E
	.section	.bss._ZGVN4asio6detail10call_stackINS0_14strand_service11strand_implEhE4top_E,"awG",@nobits,_ZGVN4asio6detail10call_stackINS0_14strand_service11strand_implEhE4top_E,comdat
	.align 8
	.type	_ZGVN4asio6detail10call_stackINS0_14strand_service11strand_implEhE4top_E, @gnu_unique_object
	.size	_ZGVN4asio6detail10call_stackINS0_14strand_service11strand_implEhE4top_E, 8
_ZGVN4asio6detail10call_stackINS0_14strand_service11strand_implEhE4top_E:
	.zero	8
	.weak	_ZGVN4asio6detail12service_baseINS0_15task_io_serviceEE2idE
	.section	.bss._ZGVN4asio6detail12service_baseINS0_15task_io_serviceEE2idE,"awG",@nobits,_ZGVN4asio6detail12service_baseINS0_15task_io_serviceEE2idE,comdat
	.align 8
	.type	_ZGVN4asio6detail12service_baseINS0_15task_io_serviceEE2idE, @gnu_unique_object
	.size	_ZGVN4asio6detail12service_baseINS0_15task_io_serviceEE2idE, 8
_ZGVN4asio6detail12service_baseINS0_15task_io_serviceEE2idE:
	.zero	8
	.weak	_ZGVN4asio6detail12service_baseINS0_13epoll_reactorEE2idE
	.section	.bss._ZGVN4asio6detail12service_baseINS0_13epoll_reactorEE2idE,"awG",@nobits,_ZGVN4asio6detail12service_baseINS0_13epoll_reactorEE2idE,comdat
	.align 8
	.type	_ZGVN4asio6detail12service_baseINS0_13epoll_reactorEE2idE, @gnu_unique_object
	.size	_ZGVN4asio6detail12service_baseINS0_13epoll_reactorEE2idE, 8
_ZGVN4asio6detail12service_baseINS0_13epoll_reactorEE2idE:
	.zero	8
	.weak	_ZGVN4asio6detail10call_stackINS0_15task_io_serviceENS0_27task_io_service_thread_infoEE4top_E
	.section	.bss._ZGVN4asio6detail10call_stackINS0_15task_io_serviceENS0_27task_io_service_thread_infoEE4top_E,"awG",@nobits,_ZGVN4asio6detail10call_stackINS0_15task_io_serviceENS0_27task_io_service_thread_infoEE4top_E,comdat
	.align 8
	.type	_ZGVN4asio6detail10call_stackINS0_15task_io_serviceENS0_27task_io_service_thread_infoEE4top_E, @gnu_unique_object
	.size	_ZGVN4asio6detail10call_stackINS0_15task_io_serviceENS0_27task_io_service_thread_infoEE4top_E, 8
_ZGVN4asio6detail10call_stackINS0_15task_io_serviceENS0_27task_io_service_thread_infoEE4top_E:
	.zero	8
	.weak	_ZN4asio6detail12service_baseINS0_14strand_serviceEE2idE
	.section	.bss._ZN4asio6detail12service_baseINS0_14strand_serviceEE2idE,"awG",@nobits,_ZN4asio6detail12service_baseINS0_14strand_serviceEE2idE,comdat
	.type	_ZN4asio6detail12service_baseINS0_14strand_serviceEE2idE, @gnu_unique_object
	.size	_ZN4asio6detail12service_baseINS0_14strand_serviceEE2idE, 1
_ZN4asio6detail12service_baseINS0_14strand_serviceEE2idE:
	.zero	1
	.weak	_ZN4asio6detail10call_stackINS0_14strand_service11strand_implEhE4top_E
	.section	.bss._ZN4asio6detail10call_stackINS0_14strand_service11strand_implEhE4top_E,"awG",@nobits,_ZN4asio6detail10call_stackINS0_14strand_service11strand_implEhE4top_E,comdat
	.type	_ZN4asio6detail10call_stackINS0_14strand_service11strand_implEhE4top_E, @gnu_unique_object
	.size	_ZN4asio6detail10call_stackINS0_14strand_service11strand_implEhE4top_E, 1
_ZN4asio6detail10call_stackINS0_14strand_service11strand_implEhE4top_E:
	.zero	1
	.weak	_ZN4asio6detail12service_baseINS0_15task_io_serviceEE2idE
	.section	.bss._ZN4asio6detail12service_baseINS0_15task_io_serviceEE2idE,"awG",@nobits,_ZN4asio6detail12service_baseINS0_15task_io_serviceEE2idE,comdat
	.type	_ZN4asio6detail12service_baseINS0_15task_io_serviceEE2idE, @gnu_unique_object
	.size	_ZN4asio6detail12service_baseINS0_15task_io_serviceEE2idE, 1
_ZN4asio6detail12service_baseINS0_15task_io_serviceEE2idE:
	.zero	1
	.weak	_ZN4asio6detail12service_baseINS0_13epoll_reactorEE2idE
	.section	.bss._ZN4asio6detail12service_baseINS0_13epoll_reactorEE2idE,"awG",@nobits,_ZN4asio6detail12service_baseINS0_13epoll_reactorEE2idE,comdat
	.type	_ZN4asio6detail12service_baseINS0_13epoll_reactorEE2idE, @gnu_unique_object
	.size	_ZN4asio6detail12service_baseINS0_13epoll_reactorEE2idE, 1
_ZN4asio6detail12service_baseINS0_13epoll_reactorEE2idE:
	.zero	1
	.weak	_ZN4asio6detail10call_stackINS0_15task_io_serviceENS0_27task_io_service_thread_infoEE4top_E
	.section	.bss._ZN4asio6detail10call_stackINS0_15task_io_serviceENS0_27task_io_service_thread_infoEE4top_E,"awG",@nobits,_ZN4asio6detail10call_stackINS0_15task_io_serviceENS0_27task_io_service_thread_infoEE4top_E,comdat
	.type	_ZN4asio6detail10call_stackINS0_15task_io_serviceENS0_27task_io_service_thread_infoEE4top_E, @gnu_unique_object
	.size	_ZN4asio6detail10call_stackINS0_15task_io_serviceENS0_27task_io_service_thread_infoEE4top_E, 1
_ZN4asio6detail10call_stackINS0_15task_io_serviceENS0_27task_io_service_thread_infoEE4top_E:
	.zero	1
	.weak	_ZTSN4asio6detail15system_categoryE
	.section	.rodata._ZTSN4asio6detail15system_categoryE,"aG",@progbits,_ZTSN4asio6detail15system_categoryE,comdat
	.align 32
	.type	_ZTSN4asio6detail15system_categoryE, @object
	.size	_ZTSN4asio6detail15system_categoryE, 32
_ZTSN4asio6detail15system_categoryE:
	.string	"N4asio6detail15system_categoryE"
	.weak	_ZTIN4asio6detail15system_categoryE
	.section	.data.rel.ro._ZTIN4asio6detail15system_categoryE,"awG",@progbits,_ZTIN4asio6detail15system_categoryE,comdat
	.align 8
	.type	_ZTIN4asio6detail15system_categoryE, @object
	.size	_ZTIN4asio6detail15system_categoryE, 24
_ZTIN4asio6detail15system_categoryE:
	.quad	_ZTVN10__cxxabiv120__si_class_type_infoE+16
	.quad	_ZTSN4asio6detail15system_categoryE
	.quad	_ZTINSt3_V214error_categoryE
	.weak	_ZTSN4asio5error6detail14netdb_categoryE
	.section	.rodata._ZTSN4asio5error6detail14netdb_categoryE,"aG",@progbits,_ZTSN4asio5error6detail14netdb_categoryE,comdat
	.align 32
	.type	_ZTSN4asio5error6detail14netdb_categoryE, @object
	.size	_ZTSN4asio5error6detail14netdb_categoryE, 37
_ZTSN4asio5error6detail14netdb_categoryE:
	.string	"N4asio5error6detail14netdb_categoryE"
	.weak	_ZTIN4asio5error6detail14netdb_categoryE
	.section	.data.rel.ro._ZTIN4asio5error6detail14netdb_categoryE,"awG",@progbits,_ZTIN4asio5error6detail14netdb_categoryE,comdat
	.align 8
	.type	_ZTIN4asio5error6detail14netdb_categoryE, @object
	.size	_ZTIN4asio5error6detail14netdb_categoryE, 24
_ZTIN4asio5error6detail14netdb_categoryE:
	.quad	_ZTVN10__cxxabiv120__si_class_type_infoE+16
	.quad	_ZTSN4asio5error6detail14netdb_categoryE
	.quad	_ZTINSt3_V214error_categoryE
	.weak	_ZTSN4asio5error6detail17addrinfo_categoryE
	.section	.rodata._ZTSN4asio5error6detail17addrinfo_categoryE,"aG",@progbits,_ZTSN4asio5error6detail17addrinfo_categoryE,comdat
	.align 32
	.type	_ZTSN4asio5error6detail17addrinfo_categoryE, @object
	.size	_ZTSN4asio5error6detail17addrinfo_categoryE, 40
_ZTSN4asio5error6detail17addrinfo_categoryE:
	.string	"N4asio5error6detail17addrinfo_categoryE"
	.weak	_ZTIN4asio5error6detail17addrinfo_categoryE
	.section	.data.rel.ro._ZTIN4asio5error6detail17addrinfo_categoryE,"awG",@progbits,_ZTIN4asio5error6detail17addrinfo_categoryE,comdat
	.align 8
	.type	_ZTIN4asio5error6detail17addrinfo_categoryE, @object
	.size	_ZTIN4asio5error6detail17addrinfo_categoryE, 24
_ZTIN4asio5error6detail17addrinfo_categoryE:
	.quad	_ZTVN10__cxxabiv120__si_class_type_infoE+16
	.quad	_ZTSN4asio5error6detail17addrinfo_categoryE
	.quad	_ZTINSt3_V214error_categoryE
	.weak	_ZTSN4asio5error6detail13misc_categoryE
	.section	.rodata._ZTSN4asio5error6detail13misc_categoryE,"aG",@progbits,_ZTSN4asio5error6detail13misc_categoryE,comdat
	.align 32
	.type	_ZTSN4asio5error6detail13misc_categoryE, @object
	.size	_ZTSN4asio5error6detail13misc_categoryE, 36
_ZTSN4asio5error6detail13misc_categoryE:
	.string	"N4asio5error6detail13misc_categoryE"
	.weak	_ZTIN4asio5error6detail13misc_categoryE
	.section	.data.rel.ro._ZTIN4asio5error6detail13misc_categoryE,"awG",@progbits,_ZTIN4asio5error6detail13misc_categoryE,comdat
	.align 8
	.type	_ZTIN4asio5error6detail13misc_categoryE, @object
	.size	_ZTIN4asio5error6detail13misc_categoryE, 24
_ZTIN4asio5error6detail13misc_categoryE:
	.quad	_ZTVN10__cxxabiv120__si_class_type_infoE+16
	.quad	_ZTSN4asio5error6detail13misc_categoryE
	.quad	_ZTINSt3_V214error_categoryE
	.weak	_ZTSN7asiopal13IAsyncChannelE
	.section	.rodata._ZTSN7asiopal13IAsyncChannelE,"aG",@progbits,_ZTSN7asiopal13IAsyncChannelE,comdat
	.align 16
	.type	_ZTSN7asiopal13IAsyncChannelE, @object
	.size	_ZTSN7asiopal13IAsyncChannelE, 26
_ZTSN7asiopal13IAsyncChannelE:
	.string	"N7asiopal13IAsyncChannelE"
	.weak	_ZTIN7asiopal13IAsyncChannelE
	.section	.data.rel.ro._ZTIN7asiopal13IAsyncChannelE,"awG",@progbits,_ZTIN7asiopal13IAsyncChannelE,comdat
	.align 8
	.type	_ZTIN7asiopal13IAsyncChannelE, @object
	.size	_ZTIN7asiopal13IAsyncChannelE, 56
_ZTIN7asiopal13IAsyncChannelE:
	.quad	_ZTVN10__cxxabiv121__vmi_class_type_infoE+16
	.quad	_ZTSN7asiopal13IAsyncChannelE
	.long	0
	.long	2
	.quad	_ZTISt23enable_shared_from_thisIN7asiopal13IAsyncChannelEE
	.quad	2050
	.quad	_ZTIN7openpal10UncopyableE
	.quad	0
	.weak	_ZTSN7asiopal13SocketChannelE
	.section	.rodata._ZTSN7asiopal13SocketChannelE,"aG",@progbits,_ZTSN7asiopal13SocketChannelE,comdat
	.align 16
	.type	_ZTSN7asiopal13SocketChannelE, @object
	.size	_ZTSN7asiopal13SocketChannelE, 26
_ZTSN7asiopal13SocketChannelE:
	.string	"N7asiopal13SocketChannelE"
	.weak	_ZTIN7asiopal13SocketChannelE
	.section	.data.rel.ro._ZTIN7asiopal13SocketChannelE,"awG",@progbits,_ZTIN7asiopal13SocketChannelE,comdat
	.align 8
	.type	_ZTIN7asiopal13SocketChannelE, @object
	.size	_ZTIN7asiopal13SocketChannelE, 24
_ZTIN7asiopal13SocketChannelE:
	.quad	_ZTVN10__cxxabiv120__si_class_type_infoE+16
	.quad	_ZTSN7asiopal13SocketChannelE
	.quad	_ZTIN7asiopal13IAsyncChannelE
	.weak	_ZTVN4asio6detail15system_categoryE
	.section	.data.rel.ro._ZTVN4asio6detail15system_categoryE,"awG",@progbits,_ZTVN4asio6detail15system_categoryE,comdat
	.align 8
	.type	_ZTVN4asio6detail15system_categoryE, @object
	.size	_ZTVN4asio6detail15system_categoryE, 80
_ZTVN4asio6detail15system_categoryE:
	.quad	0
	.quad	_ZTIN4asio6detail15system_categoryE
	.quad	_ZN4asio6detail15system_categoryD1Ev
	.quad	_ZN4asio6detail15system_categoryD0Ev
	.quad	_ZNK4asio6detail15system_category4nameEv
	.quad	_ZNKSt3_V214error_category10_M_messageB5cxx11Ei
	.quad	_ZNK4asio6detail15system_category7messageB5cxx11Ei
	.quad	_ZNKSt3_V214error_category23default_error_conditionEi
	.quad	_ZNKSt3_V214error_category10equivalentEiRKSt15error_condition
	.quad	_ZNKSt3_V214error_category10equivalentERKSt10error_codei
	.weak	_ZTVN4asio5error6detail14netdb_categoryE
	.section	.data.rel.ro._ZTVN4asio5error6detail14netdb_categoryE,"awG",@progbits,_ZTVN4asio5error6detail14netdb_categoryE,comdat
	.align 8
	.type	_ZTVN4asio5error6detail14netdb_categoryE, @object
	.size	_ZTVN4asio5error6detail14netdb_categoryE, 80
_ZTVN4asio5error6detail14netdb_categoryE:
	.quad	0
	.quad	_ZTIN4asio5error6detail14netdb_categoryE
	.quad	_ZN4asio5error6detail14netdb_categoryD1Ev
	.quad	_ZN4asio5error6detail14netdb_categoryD0Ev
	.quad	_ZNK4asio5error6detail14netdb_category4nameEv
	.quad	_ZNKSt3_V214error_category10_M_messageB5cxx11Ei
	.quad	_ZNK4asio5error6detail14netdb_category7messageB5cxx11Ei
	.quad	_ZNKSt3_V214error_category23default_error_conditionEi
	.quad	_ZNKSt3_V214error_category10equivalentEiRKSt15error_condition
	.quad	_ZNKSt3_V214error_category10equivalentERKSt10error_codei
	.weak	_ZTVN4asio5error6detail17addrinfo_categoryE
	.section	.data.rel.ro._ZTVN4asio5error6detail17addrinfo_categoryE,"awG",@progbits,_ZTVN4asio5error6detail17addrinfo_categoryE,comdat
	.align 8
	.type	_ZTVN4asio5error6detail17addrinfo_categoryE, @object
	.size	_ZTVN4asio5error6detail17addrinfo_categoryE, 80
_ZTVN4asio5error6detail17addrinfo_categoryE:
	.quad	0
	.quad	_ZTIN4asio5error6detail17addrinfo_categoryE
	.quad	_ZN4asio5error6detail17addrinfo_categoryD1Ev
	.quad	_ZN4asio5error6detail17addrinfo_categoryD0Ev
	.quad	_ZNK4asio5error6detail17addrinfo_category4nameEv
	.quad	_ZNKSt3_V214error_category10_M_messageB5cxx11Ei
	.quad	_ZNK4asio5error6detail17addrinfo_category7messageB5cxx11Ei
	.quad	_ZNKSt3_V214error_category23default_error_conditionEi
	.quad	_ZNKSt3_V214error_category10equivalentEiRKSt15error_condition
	.quad	_ZNKSt3_V214error_category10equivalentERKSt10error_codei
	.weak	_ZTVN4asio5error6detail13misc_categoryE
	.section	.data.rel.ro._ZTVN4asio5error6detail13misc_categoryE,"awG",@progbits,_ZTVN4asio5error6detail13misc_categoryE,comdat
	.align 8
	.type	_ZTVN4asio5error6detail13misc_categoryE, @object
	.size	_ZTVN4asio5error6detail13misc_categoryE, 80
_ZTVN4asio5error6detail13misc_categoryE:
	.quad	0
	.quad	_ZTIN4asio5error6detail13misc_categoryE
	.quad	_ZN4asio5error6detail13misc_categoryD1Ev
	.quad	_ZN4asio5error6detail13misc_categoryD0Ev
	.quad	_ZNK4asio5error6detail13misc_category4nameEv
	.quad	_ZNKSt3_V214error_category10_M_messageB5cxx11Ei
	.quad	_ZNK4asio5error6detail13misc_category7messageB5cxx11Ei
	.quad	_ZNKSt3_V214error_category23default_error_conditionEi
	.quad	_ZNKSt3_V214error_category10equivalentEiRKSt15error_condition
	.quad	_ZNKSt3_V214error_category10equivalentERKSt10error_codei
	.weak	_ZTVN7asiopal13IAsyncChannelE
	.section	.data.rel.ro._ZTVN7asiopal13IAsyncChannelE,"awG",@progbits,_ZTVN7asiopal13IAsyncChannelE,comdat
	.align 8
	.type	_ZTVN7asiopal13IAsyncChannelE, @object
	.size	_ZTVN7asiopal13IAsyncChannelE, 56
_ZTVN7asiopal13IAsyncChannelE:
	.quad	0
	.quad	_ZTIN7asiopal13IAsyncChannelE
	.quad	0
	.quad	0
	.quad	__cxa_pure_virtual
	.quad	__cxa_pure_virtual
	.quad	__cxa_pure_virtual
	.weak	_ZTVN7asiopal13SocketChannelE
	.section	.data.rel.ro._ZTVN7asiopal13SocketChannelE,"awG",@progbits,_ZTVN7asiopal13SocketChannelE,comdat
	.align 8
	.type	_ZTVN7asiopal13SocketChannelE, @object
	.size	_ZTVN7asiopal13SocketChannelE, 56
_ZTVN7asiopal13SocketChannelE:
	.quad	0
	.quad	_ZTIN7asiopal13SocketChannelE
	.quad	_ZN7asiopal13SocketChannelD1Ev
	.quad	_ZN7asiopal13SocketChannelD0Ev
	.quad	_ZN7asiopal13SocketChannel13BeginReadImplEN7openpal6WSliceE
	.quad	_ZN7asiopal13SocketChannel14BeginWriteImplERKN7openpal6RSliceE
	.quad	_ZN7asiopal13SocketChannel12ShutdownImplEv
	.weak	_ZN4asio6detail15keyword_tss_ptrINS0_10call_stackINS0_14strand_service11strand_implEhE7contextEE6value_E
	.section	.tbss._ZN4asio6detail15keyword_tss_ptrINS0_10call_stackINS0_14strand_service11strand_implEhE7contextEE6value_E,"awTG",@nobits,_ZN4asio6detail15keyword_tss_ptrINS0_10call_stackINS0_14strand_service11strand_implEhE7contextEE6value_E,comdat
	.align 8
	.type	_ZN4asio6detail15keyword_tss_ptrINS0_10call_stackINS0_14strand_service11strand_implEhE7contextEE6value_E, @gnu_unique_object
	.size	_ZN4asio6detail15keyword_tss_ptrINS0_10call_stackINS0_14strand_service11strand_implEhE7contextEE6value_E, 8
_ZN4asio6detail15keyword_tss_ptrINS0_10call_stackINS0_14strand_service11strand_implEhE7contextEE6value_E:
	.zero	8
	.weak	_ZGVZN4asio5error17get_misc_categoryEvE8instance
	.section	.bss._ZGVZN4asio5error17get_misc_categoryEvE8instance,"awG",@nobits,_ZGVZN4asio5error17get_misc_categoryEvE8instance,comdat
	.align 8
	.type	_ZGVZN4asio5error17get_misc_categoryEvE8instance, @gnu_unique_object
	.size	_ZGVZN4asio5error17get_misc_categoryEvE8instance, 8
_ZGVZN4asio5error17get_misc_categoryEvE8instance:
	.zero	8
	.weak	_ZZN4asio5error17get_misc_categoryEvE8instance
	.section	.data.rel._ZZN4asio5error17get_misc_categoryEvE8instance,"awG",@progbits,_ZZN4asio5error17get_misc_categoryEvE8instance,comdat
	.align 8
	.type	_ZZN4asio5error17get_misc_categoryEvE8instance, @gnu_unique_object
	.size	_ZZN4asio5error17get_misc_categoryEvE8instance, 8
_ZZN4asio5error17get_misc_categoryEvE8instance:
	.quad	_ZTVN4asio5error6detail13misc_categoryE+16
	.weak	_ZGVZN4asio5error21get_addrinfo_categoryEvE8instance
	.section	.bss._ZGVZN4asio5error21get_addrinfo_categoryEvE8instance,"awG",@nobits,_ZGVZN4asio5error21get_addrinfo_categoryEvE8instance,comdat
	.align 8
	.type	_ZGVZN4asio5error21get_addrinfo_categoryEvE8instance, @gnu_unique_object
	.size	_ZGVZN4asio5error21get_addrinfo_categoryEvE8instance, 8
_ZGVZN4asio5error21get_addrinfo_categoryEvE8instance:
	.zero	8
	.weak	_ZZN4asio5error21get_addrinfo_categoryEvE8instance
	.section	.data.rel._ZZN4asio5error21get_addrinfo_categoryEvE8instance,"awG",@progbits,_ZZN4asio5error21get_addrinfo_categoryEvE8instance,comdat
	.align 8
	.type	_ZZN4asio5error21get_addrinfo_categoryEvE8instance, @gnu_unique_object
	.size	_ZZN4asio5error21get_addrinfo_categoryEvE8instance, 8
_ZZN4asio5error21get_addrinfo_categoryEvE8instance:
	.quad	_ZTVN4asio5error6detail17addrinfo_categoryE+16
	.weak	_ZGVZN4asio5error18get_netdb_categoryEvE8instance
	.section	.bss._ZGVZN4asio5error18get_netdb_categoryEvE8instance,"awG",@nobits,_ZGVZN4asio5error18get_netdb_categoryEvE8instance,comdat
	.align 8
	.type	_ZGVZN4asio5error18get_netdb_categoryEvE8instance, @gnu_unique_object
	.size	_ZGVZN4asio5error18get_netdb_categoryEvE8instance, 8
_ZGVZN4asio5error18get_netdb_categoryEvE8instance:
	.zero	8
	.weak	_ZZN4asio5error18get_netdb_categoryEvE8instance
	.section	.data.rel._ZZN4asio5error18get_netdb_categoryEvE8instance,"awG",@progbits,_ZZN4asio5error18get_netdb_categoryEvE8instance,comdat
	.align 8
	.type	_ZZN4asio5error18get_netdb_categoryEvE8instance, @gnu_unique_object
	.size	_ZZN4asio5error18get_netdb_categoryEvE8instance, 8
_ZZN4asio5error18get_netdb_categoryEvE8instance:
	.quad	_ZTVN4asio5error6detail14netdb_categoryE+16
	.weak	_ZGVZN4asio15system_categoryEvE8instance
	.section	.bss._ZGVZN4asio15system_categoryEvE8instance,"awG",@nobits,_ZGVZN4asio15system_categoryEvE8instance,comdat
	.align 8
	.type	_ZGVZN4asio15system_categoryEvE8instance, @gnu_unique_object
	.size	_ZGVZN4asio15system_categoryEvE8instance, 8
_ZGVZN4asio15system_categoryEvE8instance:
	.zero	8
	.weak	_ZZN4asio15system_categoryEvE8instance
	.section	.data.rel._ZZN4asio15system_categoryEvE8instance,"awG",@progbits,_ZZN4asio15system_categoryEvE8instance,comdat
	.align 8
	.type	_ZZN4asio15system_categoryEvE8instance, @gnu_unique_object
	.size	_ZZN4asio15system_categoryEvE8instance, 8
_ZZN4asio15system_categoryEvE8instance:
	.quad	_ZTVN4asio6detail15system_categoryE+16
	.weak	_ZN4asio6detail15keyword_tss_ptrINS0_10call_stackINS0_15task_io_serviceENS0_27task_io_service_thread_infoEE7contextEE6value_E
	.section	.tbss._ZN4asio6detail15keyword_tss_ptrINS0_10call_stackINS0_15task_io_serviceENS0_27task_io_service_thread_infoEE7contextEE6value_E,"awTG",@nobits,_ZN4asio6detail15keyword_tss_ptrINS0_10call_stackINS0_15task_io_serviceENS0_27task_io_service_thread_infoEE7contextEE6value_E,comdat
	.align 8
	.type	_ZN4asio6detail15keyword_tss_ptrINS0_10call_stackINS0_15task_io_serviceENS0_27task_io_service_thread_infoEE7contextEE6value_E, @gnu_unique_object
	.size	_ZN4asio6detail15keyword_tss_ptrINS0_10call_stackINS0_15task_io_serviceENS0_27task_io_service_thread_infoEE7contextEE6value_E, 8
_ZN4asio6detail15keyword_tss_ptrINS0_10call_stackINS0_15task_io_serviceENS0_27task_io_service_thread_infoEE7contextEE6value_E:
	.zero	8
	.section	.rodata.cst16,"aM",@progbits,16
	.align 16
.LC7:
	.quad	8028075772644520015
	.quad	7310593917846626414
	.align 16
.LC8:
	.quad	2334381286471394643
	.quad	7959390400869068654
	.align 16
.LC9:
	.quad	8367816086596579155
	.quad	2338616625292734585
	.align 16
.LC10:
	.quad	7234013753529430881
	.quad	8243030355803531634
	.align 16
.LC11:
	.quad	8390045716486254408
	.quad	2891421386351273504
	.align 16
.LC12:
	.quad	7526769937477431150
	.quad	8532478930943832687
	.align 16
.LC13:
	.quad	2340027324477221221
	.quad	7020021577750243169
	.align 16
.LC14:
	.quad	8243123821706831956
	.quad	7809653110584451193
	.align 16
.LC15:
	.quad	2338623170819155049
	.quad	2338324160631043177
	.align 16
.LC16:
	.quad	7311138144931573614
	.quad	7019250824563089696
	.align 16
.LC17:
	.quad	7309955097514876993
	.quad	7809911847770287971
	.align 16
.LC18:
	.quad	2338053693894893669
	.quad	7234314212361855855
	.align 16
.LC19:
	.quad	2334956330985808928
	.quad	7310293695322153316
	.align 16
.LC20:
	.quad	8387231026764149601
	.quad	8245935278387126884
	.align 16
.LC21:
	.quad	2338615488418245701
	.quad	7959390400869068654
	.align 16
.LC22:
	.quad	7166182912791242836
	.quad	7214892426067994994
	.align 16
.LC23:
	.quad	2338616625293649263
	.quad	8031165433303558502
	.align 16
.LC24:
	.quad	7810775711721485344
	.quad	7812726531955123045
	.weak	__cxa_pure_virtual
	.hidden	DW.ref.__gxx_personality_v0
	.weak	DW.ref.__gxx_personality_v0
	.section	.data.rel.local.DW.ref.__gxx_personality_v0,"awG",@progbits,DW.ref.__gxx_personality_v0,comdat
	.align 8
	.type	DW.ref.__gxx_personality_v0, @object
	.size	DW.ref.__gxx_personality_v0, 8
DW.ref.__gxx_personality_v0:
	.quad	__gxx_personality_v0
	.hidden	__dso_handle
	.ident	"GCC: (Ubuntu 11.4.0-1ubuntu1~22.04) 11.4.0"
	.section	.note.GNU-stack,"",@progbits
	.section	.note.gnu.property,"a"
	.align 8
	.long	1f - 0f
	.long	4f - 1f
	.long	5
0:
	.string	"GNU"
1:
	.align 8
	.long	0xc0000002
	.long	3f - 2f
2:
	.long	0x3
3:
	.align 8
4:
