	.file	"TCPClient.cpp"
	.text
	.section	.rodata._ZNK4asio6detail15system_category4nameEv.str1.1,"aMS",@progbits,1
.LC0:
	.string	"asio.system"
	.section	.text._ZNK4asio6detail15system_category4nameEv,"axG",@progbits,_ZNK4asio6detail15system_category4nameEv,comdat
	.align 2
	.p2align 4
	.weak	_ZNK4asio6detail15system_category4nameEv
	.type	_ZNK4asio6detail15system_category4nameEv, @function
_ZNK4asio6detail15system_category4nameEv:
.LFB2388:
	.cfi_startproc
	endbr64
	leaq	.LC0(%rip), %rax
	ret
	.cfi_endproc
.LFE2388:
	.size	_ZNK4asio6detail15system_category4nameEv, .-_ZNK4asio6detail15system_category4nameEv
	.section	.rodata._ZNK4asio5error6detail14netdb_category4nameEv.str1.1,"aMS",@progbits,1
.LC1:
	.string	"asio.netdb"
	.section	.text._ZNK4asio5error6detail14netdb_category4nameEv,"axG",@progbits,_ZNK4asio5error6detail14netdb_category4nameEv,comdat
	.align 2
	.p2align 4
	.weak	_ZNK4asio5error6detail14netdb_category4nameEv
	.type	_ZNK4asio5error6detail14netdb_category4nameEv, @function
_ZNK4asio5error6detail14netdb_category4nameEv:
.LFB2428:
	.cfi_startproc
	endbr64
	leaq	.LC1(%rip), %rax
	ret
	.cfi_endproc
.LFE2428:
	.size	_ZNK4asio5error6detail14netdb_category4nameEv, .-_ZNK4asio5error6detail14netdb_category4nameEv
	.section	.rodata._ZNK4asio5error6detail17addrinfo_category4nameEv.str1.1,"aMS",@progbits,1
.LC2:
	.string	"asio.addrinfo"
	.section	.text._ZNK4asio5error6detail17addrinfo_category4nameEv,"axG",@progbits,_ZNK4asio5error6detail17addrinfo_category4nameEv,comdat
	.align 2
	.p2align 4
	.weak	_ZNK4asio5error6detail17addrinfo_category4nameEv
	.type	_ZNK4asio5error6detail17addrinfo_category4nameEv, @function
_ZNK4asio5error6detail17addrinfo_category4nameEv:
.LFB2434:
	.cfi_startproc
	endbr64
	leaq	.LC2(%rip), %rax
	ret
	.cfi_endproc
.LFE2434:
	.size	_ZNK4asio5error6detail17addrinfo_category4nameEv, .-_ZNK4asio5error6detail17addrinfo_category4nameEv
	.section	.rodata._ZNK4asio5error6detail13misc_category4nameEv.str1.1,"aMS",@progbits,1
.LC3:
	.string	"asio.misc"
	.section	.text._ZNK4asio5error6detail13misc_category4nameEv,"axG",@progbits,_ZNK4asio5error6detail13misc_category4nameEv,comdat
	.align 2
	.p2align 4
	.weak	_ZNK4asio5error6detail13misc_category4nameEv
	.type	_ZNK4asio5error6detail13misc_category4nameEv, @function
_ZNK4asio5error6detail13misc_category4nameEv:
.LFB2440:
	.cfi_startproc
	endbr64
	leaq	.LC3(%rip), %rax
	ret
	.cfi_endproc
.LFE2440:
	.size	_ZNK4asio5error6detail13misc_category4nameEv, .-_ZNK4asio5error6detail13misc_category4nameEv
	.section	.text._ZN4asio10io_service7service12fork_serviceENS0_10fork_eventE,"axG",@progbits,_ZN4asio10io_service7service12fork_serviceENS0_10fork_eventE,comdat
	.align 2
	.p2align 4
	.weak	_ZN4asio10io_service7service12fork_serviceENS0_10fork_eventE
	.type	_ZN4asio10io_service7service12fork_serviceENS0_10fork_eventE, @function
_ZN4asio10io_service7service12fork_serviceENS0_10fork_eventE:
.LFB3422:
	.cfi_startproc
	endbr64
	ret
	.cfi_endproc
.LFE3422:
	.size	_ZN4asio10io_service7service12fork_serviceENS0_10fork_eventE, .-_ZN4asio10io_service7service12fork_serviceENS0_10fork_eventE
	.section	.text._ZNSt15_Sp_counted_ptrIPSt6vectorIN4asio2ip20basic_resolver_entryINS2_3tcpEEESaIS5_EELN9__gnu_cxx12_Lock_policyE2EED2Ev,"axG",@progbits,_ZNSt15_Sp_counted_ptrIPSt6vectorIN4asio2ip20basic_resolver_entryINS2_3tcpEEESaIS5_EELN9__gnu_cxx12_Lock_policyE2EED5Ev,comdat
	.align 2
	.p2align 4
	.weak	_ZNSt15_Sp_counted_ptrIPSt6vectorIN4asio2ip20basic_resolver_entryINS2_3tcpEEESaIS5_EELN9__gnu_cxx12_Lock_policyE2EED2Ev
	.type	_ZNSt15_Sp_counted_ptrIPSt6vectorIN4asio2ip20basic_resolver_entryINS2_3tcpEEESaIS5_EELN9__gnu_cxx12_Lock_policyE2EED2Ev, @function
_ZNSt15_Sp_counted_ptrIPSt6vectorIN4asio2ip20basic_resolver_entryINS2_3tcpEEESaIS5_EELN9__gnu_cxx12_Lock_policyE2EED2Ev:
.LFB10141:
	.cfi_startproc
	endbr64
	ret
	.cfi_endproc
.LFE10141:
	.size	_ZNSt15_Sp_counted_ptrIPSt6vectorIN4asio2ip20basic_resolver_entryINS2_3tcpEEESaIS5_EELN9__gnu_cxx12_Lock_policyE2EED2Ev, .-_ZNSt15_Sp_counted_ptrIPSt6vectorIN4asio2ip20basic_resolver_entryINS2_3tcpEEESaIS5_EELN9__gnu_cxx12_Lock_policyE2EED2Ev
	.weak	_ZNSt15_Sp_counted_ptrIPSt6vectorIN4asio2ip20basic_resolver_entryINS2_3tcpEEESaIS5_EELN9__gnu_cxx12_Lock_policyE2EED1Ev
	.set	_ZNSt15_Sp_counted_ptrIPSt6vectorIN4asio2ip20basic_resolver_entryINS2_3tcpEEESaIS5_EELN9__gnu_cxx12_Lock_policyE2EED1Ev,_ZNSt15_Sp_counted_ptrIPSt6vectorIN4asio2ip20basic_resolver_entryINS2_3tcpEEESaIS5_EELN9__gnu_cxx12_Lock_policyE2EED2Ev
	.section	.text._ZN4asio6detail12posix_thread4funcINS0_21resolver_service_base22work_io_service_runnerEED2Ev,"axG",@progbits,_ZN4asio6detail12posix_thread4funcINS0_21resolver_service_base22work_io_service_runnerEED5Ev,comdat
	.align 2
	.p2align 4
	.weak	_ZN4asio6detail12posix_thread4funcINS0_21resolver_service_base22work_io_service_runnerEED2Ev
	.type	_ZN4asio6detail12posix_thread4funcINS0_21resolver_service_base22work_io_service_runnerEED2Ev, @function
_ZN4asio6detail12posix_thread4funcINS0_21resolver_service_base22work_io_service_runnerEED2Ev:
.LFB10145:
	.cfi_startproc
	endbr64
	ret
	.cfi_endproc
.LFE10145:
	.size	_ZN4asio6detail12posix_thread4funcINS0_21resolver_service_base22work_io_service_runnerEED2Ev, .-_ZN4asio6detail12posix_thread4funcINS0_21resolver_service_base22work_io_service_runnerEED2Ev
	.weak	_ZN4asio6detail12posix_thread4funcINS0_21resolver_service_base22work_io_service_runnerEED1Ev
	.set	_ZN4asio6detail12posix_thread4funcINS0_21resolver_service_base22work_io_service_runnerEED1Ev,_ZN4asio6detail12posix_thread4funcINS0_21resolver_service_base22work_io_service_runnerEED2Ev
	.section	.text._ZN4asio21stream_socket_serviceINS_2ip3tcpEED2Ev,"axG",@progbits,_ZN4asio21stream_socket_serviceINS_2ip3tcpEED5Ev,comdat
	.align 2
	.p2align 4
	.weak	_ZN4asio21stream_socket_serviceINS_2ip3tcpEED2Ev
	.type	_ZN4asio21stream_socket_serviceINS_2ip3tcpEED2Ev, @function
_ZN4asio21stream_socket_serviceINS_2ip3tcpEED2Ev:
.LFB10149:
	.cfi_startproc
	endbr64
	ret
	.cfi_endproc
.LFE10149:
	.size	_ZN4asio21stream_socket_serviceINS_2ip3tcpEED2Ev, .-_ZN4asio21stream_socket_serviceINS_2ip3tcpEED2Ev
	.weak	_ZN4asio21stream_socket_serviceINS_2ip3tcpEED1Ev
	.set	_ZN4asio21stream_socket_serviceINS_2ip3tcpEED1Ev,_ZN4asio21stream_socket_serviceINS_2ip3tcpEED2Ev
	.section	.text._ZN4asio6detail7tss_ptrINS0_10call_stackINS0_15task_io_serviceENS0_27task_io_service_thread_infoEE7contextEED2Ev,"axG",@progbits,_ZN4asio6detail7tss_ptrINS0_10call_stackINS0_15task_io_serviceENS0_27task_io_service_thread_infoEE7contextEED5Ev,comdat
	.align 2
	.p2align 4
	.weak	_ZN4asio6detail7tss_ptrINS0_10call_stackINS0_15task_io_serviceENS0_27task_io_service_thread_infoEE7contextEED2Ev
	.type	_ZN4asio6detail7tss_ptrINS0_10call_stackINS0_15task_io_serviceENS0_27task_io_service_thread_infoEE7contextEED2Ev, @function
_ZN4asio6detail7tss_ptrINS0_10call_stackINS0_15task_io_serviceENS0_27task_io_service_thread_infoEE7contextEED2Ev:
.LFB10226:
	.cfi_startproc
	endbr64
	ret
	.cfi_endproc
.LFE10226:
	.size	_ZN4asio6detail7tss_ptrINS0_10call_stackINS0_15task_io_serviceENS0_27task_io_service_thread_infoEE7contextEED2Ev, .-_ZN4asio6detail7tss_ptrINS0_10call_stackINS0_15task_io_serviceENS0_27task_io_service_thread_infoEE7contextEED2Ev
	.weak	_ZN4asio6detail7tss_ptrINS0_10call_stackINS0_15task_io_serviceENS0_27task_io_service_thread_infoEE7contextEED1Ev
	.set	_ZN4asio6detail7tss_ptrINS0_10call_stackINS0_15task_io_serviceENS0_27task_io_service_thread_infoEE7contextEED1Ev,_ZN4asio6detail7tss_ptrINS0_10call_stackINS0_15task_io_serviceENS0_27task_io_service_thread_infoEE7contextEED2Ev
	.section	.text._ZN4asio6detail10service_idINS0_13epoll_reactorEED2Ev,"axG",@progbits,_ZN4asio6detail10service_idINS0_13epoll_reactorEED5Ev,comdat
	.align 2
	.p2align 4
	.weak	_ZN4asio6detail10service_idINS0_13epoll_reactorEED2Ev
	.type	_ZN4asio6detail10service_idINS0_13epoll_reactorEED2Ev, @function
_ZN4asio6detail10service_idINS0_13epoll_reactorEED2Ev:
.LFB10229:
	.cfi_startproc
	endbr64
	ret
	.cfi_endproc
.LFE10229:
	.size	_ZN4asio6detail10service_idINS0_13epoll_reactorEED2Ev, .-_ZN4asio6detail10service_idINS0_13epoll_reactorEED2Ev
	.weak	_ZN4asio6detail10service_idINS0_13epoll_reactorEED1Ev
	.set	_ZN4asio6detail10service_idINS0_13epoll_reactorEED1Ev,_ZN4asio6detail10service_idINS0_13epoll_reactorEED2Ev
	.section	.text._ZN4asio6detail10service_idINS0_15task_io_serviceEED2Ev,"axG",@progbits,_ZN4asio6detail10service_idINS0_15task_io_serviceEED5Ev,comdat
	.align 2
	.p2align 4
	.weak	_ZN4asio6detail10service_idINS0_15task_io_serviceEED2Ev
	.type	_ZN4asio6detail10service_idINS0_15task_io_serviceEED2Ev, @function
_ZN4asio6detail10service_idINS0_15task_io_serviceEED2Ev:
.LFB10232:
	.cfi_startproc
	endbr64
	ret
	.cfi_endproc
.LFE10232:
	.size	_ZN4asio6detail10service_idINS0_15task_io_serviceEED2Ev, .-_ZN4asio6detail10service_idINS0_15task_io_serviceEED2Ev
	.weak	_ZN4asio6detail10service_idINS0_15task_io_serviceEED1Ev
	.set	_ZN4asio6detail10service_idINS0_15task_io_serviceEED1Ev,_ZN4asio6detail10service_idINS0_15task_io_serviceEED2Ev
	.section	.text._ZN4asio6detail7tss_ptrINS0_10call_stackINS0_14strand_service11strand_implEhE7contextEED2Ev,"axG",@progbits,_ZN4asio6detail7tss_ptrINS0_10call_stackINS0_14strand_service11strand_implEhE7contextEED5Ev,comdat
	.align 2
	.p2align 4
	.weak	_ZN4asio6detail7tss_ptrINS0_10call_stackINS0_14strand_service11strand_implEhE7contextEED2Ev
	.type	_ZN4asio6detail7tss_ptrINS0_10call_stackINS0_14strand_service11strand_implEhE7contextEED2Ev, @function
_ZN4asio6detail7tss_ptrINS0_10call_stackINS0_14strand_service11strand_implEhE7contextEED2Ev:
.LFB10235:
	.cfi_startproc
	endbr64
	ret
	.cfi_endproc
.LFE10235:
	.size	_ZN4asio6detail7tss_ptrINS0_10call_stackINS0_14strand_service11strand_implEhE7contextEED2Ev, .-_ZN4asio6detail7tss_ptrINS0_10call_stackINS0_14strand_service11strand_implEhE7contextEED2Ev
	.weak	_ZN4asio6detail7tss_ptrINS0_10call_stackINS0_14strand_service11strand_implEhE7contextEED1Ev
	.set	_ZN4asio6detail7tss_ptrINS0_10call_stackINS0_14strand_service11strand_implEhE7contextEED1Ev,_ZN4asio6detail7tss_ptrINS0_10call_stackINS0_14strand_service11strand_implEhE7contextEED2Ev
	.section	.text._ZN4asio6detail10service_idINS0_14strand_serviceEED2Ev,"axG",@progbits,_ZN4asio6detail10service_idINS0_14strand_serviceEED5Ev,comdat
	.align 2
	.p2align 4
	.weak	_ZN4asio6detail10service_idINS0_14strand_serviceEED2Ev
	.type	_ZN4asio6detail10service_idINS0_14strand_serviceEED2Ev, @function
_ZN4asio6detail10service_idINS0_14strand_serviceEED2Ev:
.LFB10238:
	.cfi_startproc
	endbr64
	ret
	.cfi_endproc
.LFE10238:
	.size	_ZN4asio6detail10service_idINS0_14strand_serviceEED2Ev, .-_ZN4asio6detail10service_idINS0_14strand_serviceEED2Ev
	.weak	_ZN4asio6detail10service_idINS0_14strand_serviceEED1Ev
	.set	_ZN4asio6detail10service_idINS0_14strand_serviceEED1Ev,_ZN4asio6detail10service_idINS0_14strand_serviceEED2Ev
	.section	.text._ZN4asio6detail10service_idINS_2ip16resolver_serviceINS2_3tcpEEEED2Ev,"axG",@progbits,_ZN4asio6detail10service_idINS_2ip16resolver_serviceINS2_3tcpEEEED5Ev,comdat
	.align 2
	.p2align 4
	.weak	_ZN4asio6detail10service_idINS_2ip16resolver_serviceINS2_3tcpEEEED2Ev
	.type	_ZN4asio6detail10service_idINS_2ip16resolver_serviceINS2_3tcpEEEED2Ev, @function
_ZN4asio6detail10service_idINS_2ip16resolver_serviceINS2_3tcpEEEED2Ev:
.LFB10241:
	.cfi_startproc
	endbr64
	ret
	.cfi_endproc
.LFE10241:
	.size	_ZN4asio6detail10service_idINS_2ip16resolver_serviceINS2_3tcpEEEED2Ev, .-_ZN4asio6detail10service_idINS_2ip16resolver_serviceINS2_3tcpEEEED2Ev
	.weak	_ZN4asio6detail10service_idINS_2ip16resolver_serviceINS2_3tcpEEEED1Ev
	.set	_ZN4asio6detail10service_idINS_2ip16resolver_serviceINS2_3tcpEEEED1Ev,_ZN4asio6detail10service_idINS_2ip16resolver_serviceINS2_3tcpEEEED2Ev
	.section	.text._ZN4asio6detail10service_idINS_21stream_socket_serviceINS_2ip3tcpEEEED2Ev,"axG",@progbits,_ZN4asio6detail10service_idINS_21stream_socket_serviceINS_2ip3tcpEEEED5Ev,comdat
	.align 2
	.p2align 4
	.weak	_ZN4asio6detail10service_idINS_21stream_socket_serviceINS_2ip3tcpEEEED2Ev
	.type	_ZN4asio6detail10service_idINS_21stream_socket_serviceINS_2ip3tcpEEEED2Ev, @function
_ZN4asio6detail10service_idINS_21stream_socket_serviceINS_2ip3tcpEEEED2Ev:
.LFB10244:
	.cfi_startproc
	endbr64
	ret
	.cfi_endproc
.LFE10244:
	.size	_ZN4asio6detail10service_idINS_21stream_socket_serviceINS_2ip3tcpEEEED2Ev, .-_ZN4asio6detail10service_idINS_21stream_socket_serviceINS_2ip3tcpEEEED2Ev
	.weak	_ZN4asio6detail10service_idINS_21stream_socket_serviceINS_2ip3tcpEEEED1Ev
	.set	_ZN4asio6detail10service_idINS_21stream_socket_serviceINS_2ip3tcpEEEED1Ev,_ZN4asio6detail10service_idINS_21stream_socket_serviceINS_2ip3tcpEEEED2Ev
	.section	.text._ZNSt15_Sp_counted_ptrIPSt6vectorIN4asio2ip20basic_resolver_entryINS2_3tcpEEESaIS5_EELN9__gnu_cxx12_Lock_policyE2EE14_M_get_deleterERKSt9type_info,"axG",@progbits,_ZNSt15_Sp_counted_ptrIPSt6vectorIN4asio2ip20basic_resolver_entryINS2_3tcpEEESaIS5_EELN9__gnu_cxx12_Lock_policyE2EE14_M_get_deleterERKSt9type_info,comdat
	.align 2
	.p2align 4
	.weak	_ZNSt15_Sp_counted_ptrIPSt6vectorIN4asio2ip20basic_resolver_entryINS2_3tcpEEESaIS5_EELN9__gnu_cxx12_Lock_policyE2EE14_M_get_deleterERKSt9type_info
	.type	_ZNSt15_Sp_counted_ptrIPSt6vectorIN4asio2ip20basic_resolver_entryINS2_3tcpEEESaIS5_EELN9__gnu_cxx12_Lock_policyE2EE14_M_get_deleterERKSt9type_info, @function
_ZNSt15_Sp_counted_ptrIPSt6vectorIN4asio2ip20basic_resolver_entryINS2_3tcpEEESaIS5_EELN9__gnu_cxx12_Lock_policyE2EE14_M_get_deleterERKSt9type_info:
.LFB10248:
	.cfi_startproc
	endbr64
	xorl	%eax, %eax
	ret
	.cfi_endproc
.LFE10248:
	.size	_ZNSt15_Sp_counted_ptrIPSt6vectorIN4asio2ip20basic_resolver_entryINS2_3tcpEEESaIS5_EELN9__gnu_cxx12_Lock_policyE2EE14_M_get_deleterERKSt9type_info, .-_ZNSt15_Sp_counted_ptrIPSt6vectorIN4asio2ip20basic_resolver_entryINS2_3tcpEEESaIS5_EELN9__gnu_cxx12_Lock_policyE2EE14_M_get_deleterERKSt9type_info
	.section	.text._ZNSt19_Sp_counted_deleterIPvN4asio6detail10socket_ops12noop_deleterESaIvELN9__gnu_cxx12_Lock_policyE2EED2Ev,"axG",@progbits,_ZNSt19_Sp_counted_deleterIPvN4asio6detail10socket_ops12noop_deleterESaIvELN9__gnu_cxx12_Lock_policyE2EED5Ev,comdat
	.align 2
	.p2align 4
	.weak	_ZNSt19_Sp_counted_deleterIPvN4asio6detail10socket_ops12noop_deleterESaIvELN9__gnu_cxx12_Lock_policyE2EED2Ev
	.type	_ZNSt19_Sp_counted_deleterIPvN4asio6detail10socket_ops12noop_deleterESaIvELN9__gnu_cxx12_Lock_policyE2EED2Ev, @function
_ZNSt19_Sp_counted_deleterIPvN4asio6detail10socket_ops12noop_deleterESaIvELN9__gnu_cxx12_Lock_policyE2EED2Ev:
.LFB10285:
	.cfi_startproc
	endbr64
	ret
	.cfi_endproc
.LFE10285:
	.size	_ZNSt19_Sp_counted_deleterIPvN4asio6detail10socket_ops12noop_deleterESaIvELN9__gnu_cxx12_Lock_policyE2EED2Ev, .-_ZNSt19_Sp_counted_deleterIPvN4asio6detail10socket_ops12noop_deleterESaIvELN9__gnu_cxx12_Lock_policyE2EED2Ev
	.weak	_ZNSt19_Sp_counted_deleterIPvN4asio6detail10socket_ops12noop_deleterESaIvELN9__gnu_cxx12_Lock_policyE2EED1Ev
	.set	_ZNSt19_Sp_counted_deleterIPvN4asio6detail10socket_ops12noop_deleterESaIvELN9__gnu_cxx12_Lock_policyE2EED1Ev,_ZNSt19_Sp_counted_deleterIPvN4asio6detail10socket_ops12noop_deleterESaIvELN9__gnu_cxx12_Lock_policyE2EED2Ev
	.section	.text._ZNSt19_Sp_counted_deleterIPvN4asio6detail10socket_ops12noop_deleterESaIvELN9__gnu_cxx12_Lock_policyE2EE10_M_disposeEv,"axG",@progbits,_ZNSt19_Sp_counted_deleterIPvN4asio6detail10socket_ops12noop_deleterESaIvELN9__gnu_cxx12_Lock_policyE2EE10_M_disposeEv,comdat
	.align 2
	.p2align 4
	.weak	_ZNSt19_Sp_counted_deleterIPvN4asio6detail10socket_ops12noop_deleterESaIvELN9__gnu_cxx12_Lock_policyE2EE10_M_disposeEv
	.type	_ZNSt19_Sp_counted_deleterIPvN4asio6detail10socket_ops12noop_deleterESaIvELN9__gnu_cxx12_Lock_policyE2EE10_M_disposeEv, @function
_ZNSt19_Sp_counted_deleterIPvN4asio6detail10socket_ops12noop_deleterESaIvELN9__gnu_cxx12_Lock_policyE2EE10_M_disposeEv:
.LFB10288:
	.cfi_startproc
	endbr64
	ret
	.cfi_endproc
.LFE10288:
	.size	_ZNSt19_Sp_counted_deleterIPvN4asio6detail10socket_ops12noop_deleterESaIvELN9__gnu_cxx12_Lock_policyE2EE10_M_disposeEv, .-_ZNSt19_Sp_counted_deleterIPvN4asio6detail10socket_ops12noop_deleterESaIvELN9__gnu_cxx12_Lock_policyE2EE10_M_disposeEv
	.section	.text._ZN4asio21stream_socket_serviceINS_2ip3tcpEE16shutdown_serviceEv,"axG",@progbits,_ZN4asio21stream_socket_serviceINS_2ip3tcpEE16shutdown_serviceEv,comdat
	.align 2
	.p2align 4
	.weak	_ZN4asio21stream_socket_serviceINS_2ip3tcpEE16shutdown_serviceEv
	.type	_ZN4asio21stream_socket_serviceINS_2ip3tcpEE16shutdown_serviceEv, @function
_ZN4asio21stream_socket_serviceINS_2ip3tcpEE16shutdown_serviceEv:
.LFB10292:
	.cfi_startproc
	endbr64
	ret
	.cfi_endproc
.LFE10292:
	.size	_ZN4asio21stream_socket_serviceINS_2ip3tcpEE16shutdown_serviceEv, .-_ZN4asio21stream_socket_serviceINS_2ip3tcpEE16shutdown_serviceEv
	.section	.text._ZN4asio6detail12posix_thread4funcINS0_21resolver_service_base22work_io_service_runnerEED0Ev,"axG",@progbits,_ZN4asio6detail12posix_thread4funcINS0_21resolver_service_base22work_io_service_runnerEED5Ev,comdat
	.align 2
	.p2align 4
	.weak	_ZN4asio6detail12posix_thread4funcINS0_21resolver_service_base22work_io_service_runnerEED0Ev
	.type	_ZN4asio6detail12posix_thread4funcINS0_21resolver_service_base22work_io_service_runnerEED0Ev, @function
_ZN4asio6detail12posix_thread4funcINS0_21resolver_service_base22work_io_service_runnerEED0Ev:
.LFB10147:
	.cfi_startproc
	endbr64
	movl	$16, %esi
	jmp	_ZdlPvm@PLT
	.cfi_endproc
.LFE10147:
	.size	_ZN4asio6detail12posix_thread4funcINS0_21resolver_service_base22work_io_service_runnerEED0Ev, .-_ZN4asio6detail12posix_thread4funcINS0_21resolver_service_base22work_io_service_runnerEED0Ev
	.section	.text._ZNSt15_Sp_counted_ptrIPSt6vectorIN4asio2ip20basic_resolver_entryINS2_3tcpEEESaIS5_EELN9__gnu_cxx12_Lock_policyE2EED0Ev,"axG",@progbits,_ZNSt15_Sp_counted_ptrIPSt6vectorIN4asio2ip20basic_resolver_entryINS2_3tcpEEESaIS5_EELN9__gnu_cxx12_Lock_policyE2EED5Ev,comdat
	.align 2
	.p2align 4
	.weak	_ZNSt15_Sp_counted_ptrIPSt6vectorIN4asio2ip20basic_resolver_entryINS2_3tcpEEESaIS5_EELN9__gnu_cxx12_Lock_policyE2EED0Ev
	.type	_ZNSt15_Sp_counted_ptrIPSt6vectorIN4asio2ip20basic_resolver_entryINS2_3tcpEEESaIS5_EELN9__gnu_cxx12_Lock_policyE2EED0Ev, @function
_ZNSt15_Sp_counted_ptrIPSt6vectorIN4asio2ip20basic_resolver_entryINS2_3tcpEEESaIS5_EELN9__gnu_cxx12_Lock_policyE2EED0Ev:
.LFB10143:
	.cfi_startproc
	endbr64
	movl	$24, %esi
	jmp	_ZdlPvm@PLT
	.cfi_endproc
.LFE10143:
	.size	_ZNSt15_Sp_counted_ptrIPSt6vectorIN4asio2ip20basic_resolver_entryINS2_3tcpEEESaIS5_EELN9__gnu_cxx12_Lock_policyE2EED0Ev, .-_ZNSt15_Sp_counted_ptrIPSt6vectorIN4asio2ip20basic_resolver_entryINS2_3tcpEEESaIS5_EELN9__gnu_cxx12_Lock_policyE2EED0Ev
	.section	.text._ZNSt15_Sp_counted_ptrIPSt6vectorIN4asio2ip20basic_resolver_entryINS2_3tcpEEESaIS5_EELN9__gnu_cxx12_Lock_policyE2EE10_M_destroyEv,"axG",@progbits,_ZNSt15_Sp_counted_ptrIPSt6vectorIN4asio2ip20basic_resolver_entryINS2_3tcpEEESaIS5_EELN9__gnu_cxx12_Lock_policyE2EE10_M_destroyEv,comdat
	.align 2
	.p2align 4
	.weak	_ZNSt15_Sp_counted_ptrIPSt6vectorIN4asio2ip20basic_resolver_entryINS2_3tcpEEESaIS5_EELN9__gnu_cxx12_Lock_policyE2EE10_M_destroyEv
	.type	_ZNSt15_Sp_counted_ptrIPSt6vectorIN4asio2ip20basic_resolver_entryINS2_3tcpEEESaIS5_EELN9__gnu_cxx12_Lock_policyE2EE10_M_destroyEv, @function
_ZNSt15_Sp_counted_ptrIPSt6vectorIN4asio2ip20basic_resolver_entryINS2_3tcpEEESaIS5_EELN9__gnu_cxx12_Lock_policyE2EE10_M_destroyEv:
.LFB10247:
	.cfi_startproc
	endbr64
	movl	$24, %esi
	jmp	_ZdlPvm@PLT
	.cfi_endproc
.LFE10247:
	.size	_ZNSt15_Sp_counted_ptrIPSt6vectorIN4asio2ip20basic_resolver_entryINS2_3tcpEEESaIS5_EELN9__gnu_cxx12_Lock_policyE2EE10_M_destroyEv, .-_ZNSt15_Sp_counted_ptrIPSt6vectorIN4asio2ip20basic_resolver_entryINS2_3tcpEEESaIS5_EELN9__gnu_cxx12_Lock_policyE2EE10_M_destroyEv
	.section	.text._ZNSt19_Sp_counted_deleterIPvN4asio6detail10socket_ops12noop_deleterESaIvELN9__gnu_cxx12_Lock_policyE2EED0Ev,"axG",@progbits,_ZNSt19_Sp_counted_deleterIPvN4asio6detail10socket_ops12noop_deleterESaIvELN9__gnu_cxx12_Lock_policyE2EED5Ev,comdat
	.align 2
	.p2align 4
	.weak	_ZNSt19_Sp_counted_deleterIPvN4asio6detail10socket_ops12noop_deleterESaIvELN9__gnu_cxx12_Lock_policyE2EED0Ev
	.type	_ZNSt19_Sp_counted_deleterIPvN4asio6detail10socket_ops12noop_deleterESaIvELN9__gnu_cxx12_Lock_policyE2EED0Ev, @function
_ZNSt19_Sp_counted_deleterIPvN4asio6detail10socket_ops12noop_deleterESaIvELN9__gnu_cxx12_Lock_policyE2EED0Ev:
.LFB10287:
	.cfi_startproc
	endbr64
	movl	$24, %esi
	jmp	_ZdlPvm@PLT
	.cfi_endproc
.LFE10287:
	.size	_ZNSt19_Sp_counted_deleterIPvN4asio6detail10socket_ops12noop_deleterESaIvELN9__gnu_cxx12_Lock_policyE2EED0Ev, .-_ZNSt19_Sp_counted_deleterIPvN4asio6detail10socket_ops12noop_deleterESaIvELN9__gnu_cxx12_Lock_policyE2EED0Ev
	.section	.text._ZN4asio21stream_socket_serviceINS_2ip3tcpEED0Ev,"axG",@progbits,_ZN4asio21stream_socket_serviceINS_2ip3tcpEED5Ev,comdat
	.align 2
	.p2align 4
	.weak	_ZN4asio21stream_socket_serviceINS_2ip3tcpEED0Ev
	.type	_ZN4asio21stream_socket_serviceINS_2ip3tcpEED0Ev, @function
_ZN4asio21stream_socket_serviceINS_2ip3tcpEED0Ev:
.LFB10151:
	.cfi_startproc
	endbr64
	movl	$48, %esi
	jmp	_ZdlPvm@PLT
	.cfi_endproc
.LFE10151:
	.size	_ZN4asio21stream_socket_serviceINS_2ip3tcpEED0Ev, .-_ZN4asio21stream_socket_serviceINS_2ip3tcpEED0Ev
	.section	.text._ZNSt19_Sp_counted_deleterIPvN4asio6detail10socket_ops12noop_deleterESaIvELN9__gnu_cxx12_Lock_policyE2EE10_M_destroyEv,"axG",@progbits,_ZNSt19_Sp_counted_deleterIPvN4asio6detail10socket_ops12noop_deleterESaIvELN9__gnu_cxx12_Lock_policyE2EE10_M_destroyEv,comdat
	.align 2
	.p2align 4
	.weak	_ZNSt19_Sp_counted_deleterIPvN4asio6detail10socket_ops12noop_deleterESaIvELN9__gnu_cxx12_Lock_policyE2EE10_M_destroyEv
	.type	_ZNSt19_Sp_counted_deleterIPvN4asio6detail10socket_ops12noop_deleterESaIvELN9__gnu_cxx12_Lock_policyE2EE10_M_destroyEv, @function
_ZNSt19_Sp_counted_deleterIPvN4asio6detail10socket_ops12noop_deleterESaIvELN9__gnu_cxx12_Lock_policyE2EE10_M_destroyEv:
.LFB10289:
	.cfi_startproc
	endbr64
	movl	$24, %esi
	jmp	_ZdlPvm@PLT
	.cfi_endproc
.LFE10289:
	.size	_ZNSt19_Sp_counted_deleterIPvN4asio6detail10socket_ops12noop_deleterESaIvELN9__gnu_cxx12_Lock_policyE2EE10_M_destroyEv, .-_ZNSt19_Sp_counted_deleterIPvN4asio6detail10socket_ops12noop_deleterESaIvELN9__gnu_cxx12_Lock_policyE2EE10_M_destroyEv
	.section	.text._ZN4asio6detail15system_categoryD2Ev,"axG",@progbits,_ZN4asio6detail15system_categoryD5Ev,comdat
	.align 2
	.p2align 4
	.weak	_ZN4asio6detail15system_categoryD2Ev
	.type	_ZN4asio6detail15system_categoryD2Ev, @function
_ZN4asio6detail15system_categoryD2Ev:
.LFB10205:
	.cfi_startproc
	endbr64
	movq	_ZTVN4asio6detail15system_categoryE@GOTPCREL(%rip), %rax
	addq	$16, %rax
	movq	%rax, (%rdi)
	jmp	_ZNSt3_V214error_categoryD2Ev@PLT
	.cfi_endproc
.LFE10205:
	.size	_ZN4asio6detail15system_categoryD2Ev, .-_ZN4asio6detail15system_categoryD2Ev
	.weak	_ZN4asio6detail15system_categoryD1Ev
	.set	_ZN4asio6detail15system_categoryD1Ev,_ZN4asio6detail15system_categoryD2Ev
	.section	.text._ZN4asio6detail15system_categoryD0Ev,"axG",@progbits,_ZN4asio6detail15system_categoryD5Ev,comdat
	.align 2
	.p2align 4
	.weak	_ZN4asio6detail15system_categoryD0Ev
	.type	_ZN4asio6detail15system_categoryD0Ev, @function
_ZN4asio6detail15system_categoryD0Ev:
.LFB10207:
	.cfi_startproc
	endbr64
	movq	_ZTVN4asio6detail15system_categoryE@GOTPCREL(%rip), %rax
	pushq	%rbp
	.cfi_def_cfa_offset 16
	.cfi_offset 6, -16
	movq	%rdi, %rbp
	addq	$16, %rax
	movq	%rax, (%rdi)
	call	_ZNSt3_V214error_categoryD2Ev@PLT
	movq	%rbp, %rdi
	movl	$8, %esi
	popq	%rbp
	.cfi_def_cfa_offset 8
	jmp	_ZdlPvm@PLT
	.cfi_endproc
.LFE10207:
	.size	_ZN4asio6detail15system_categoryD0Ev, .-_ZN4asio6detail15system_categoryD0Ev
	.section	.text._ZN4asio5error6detail13misc_categoryD2Ev,"axG",@progbits,_ZN4asio5error6detail13misc_categoryD5Ev,comdat
	.align 2
	.p2align 4
	.weak	_ZN4asio5error6detail13misc_categoryD2Ev
	.type	_ZN4asio5error6detail13misc_categoryD2Ev, @function
_ZN4asio5error6detail13misc_categoryD2Ev:
.LFB10185:
	.cfi_startproc
	endbr64
	movq	_ZTVN4asio5error6detail13misc_categoryE@GOTPCREL(%rip), %rax
	addq	$16, %rax
	movq	%rax, (%rdi)
	jmp	_ZNSt3_V214error_categoryD2Ev@PLT
	.cfi_endproc
.LFE10185:
	.size	_ZN4asio5error6detail13misc_categoryD2Ev, .-_ZN4asio5error6detail13misc_categoryD2Ev
	.weak	_ZN4asio5error6detail13misc_categoryD1Ev
	.set	_ZN4asio5error6detail13misc_categoryD1Ev,_ZN4asio5error6detail13misc_categoryD2Ev
	.section	.text._ZN4asio5error6detail13misc_categoryD0Ev,"axG",@progbits,_ZN4asio5error6detail13misc_categoryD5Ev,comdat
	.align 2
	.p2align 4
	.weak	_ZN4asio5error6detail13misc_categoryD0Ev
	.type	_ZN4asio5error6detail13misc_categoryD0Ev, @function
_ZN4asio5error6detail13misc_categoryD0Ev:
.LFB10187:
	.cfi_startproc
	endbr64
	movq	_ZTVN4asio5error6detail13misc_categoryE@GOTPCREL(%rip), %rax
	pushq	%rbp
	.cfi_def_cfa_offset 16
	.cfi_offset 6, -16
	movq	%rdi, %rbp
	addq	$16, %rax
	movq	%rax, (%rdi)
	call	_ZNSt3_V214error_categoryD2Ev@PLT
	movq	%rbp, %rdi
	movl	$8, %esi
	popq	%rbp
	.cfi_def_cfa_offset 8
	jmp	_ZdlPvm@PLT
	.cfi_endproc
.LFE10187:
	.size	_ZN4asio5error6detail13misc_categoryD0Ev, .-_ZN4asio5error6detail13misc_categoryD0Ev
	.section	.text._ZN4asio5error6detail14netdb_categoryD2Ev,"axG",@progbits,_ZN4asio5error6detail14netdb_categoryD5Ev,comdat
	.align 2
	.p2align 4
	.weak	_ZN4asio5error6detail14netdb_categoryD2Ev
	.type	_ZN4asio5error6detail14netdb_categoryD2Ev, @function
_ZN4asio5error6detail14netdb_categoryD2Ev:
.LFB10193:
	.cfi_startproc
	endbr64
	movq	_ZTVN4asio5error6detail14netdb_categoryE@GOTPCREL(%rip), %rax
	addq	$16, %rax
	movq	%rax, (%rdi)
	jmp	_ZNSt3_V214error_categoryD2Ev@PLT
	.cfi_endproc
.LFE10193:
	.size	_ZN4asio5error6detail14netdb_categoryD2Ev, .-_ZN4asio5error6detail14netdb_categoryD2Ev
	.weak	_ZN4asio5error6detail14netdb_categoryD1Ev
	.set	_ZN4asio5error6detail14netdb_categoryD1Ev,_ZN4asio5error6detail14netdb_categoryD2Ev
	.section	.text._ZN4asio5error6detail14netdb_categoryD0Ev,"axG",@progbits,_ZN4asio5error6detail14netdb_categoryD5Ev,comdat
	.align 2
	.p2align 4
	.weak	_ZN4asio5error6detail14netdb_categoryD0Ev
	.type	_ZN4asio5error6detail14netdb_categoryD0Ev, @function
_ZN4asio5error6detail14netdb_categoryD0Ev:
.LFB10195:
	.cfi_startproc
	endbr64
	movq	_ZTVN4asio5error6detail14netdb_categoryE@GOTPCREL(%rip), %rax
	pushq	%rbp
	.cfi_def_cfa_offset 16
	.cfi_offset 6, -16
	movq	%rdi, %rbp
	addq	$16, %rax
	movq	%rax, (%rdi)
	call	_ZNSt3_V214error_categoryD2Ev@PLT
	movq	%rbp, %rdi
	movl	$8, %esi
	popq	%rbp
	.cfi_def_cfa_offset 8
	jmp	_ZdlPvm@PLT
	.cfi_endproc
.LFE10195:
	.size	_ZN4asio5error6detail14netdb_categoryD0Ev, .-_ZN4asio5error6detail14netdb_categoryD0Ev
	.section	.text._ZN4asio5error6detail17addrinfo_categoryD2Ev,"axG",@progbits,_ZN4asio5error6detail17addrinfo_categoryD5Ev,comdat
	.align 2
	.p2align 4
	.weak	_ZN4asio5error6detail17addrinfo_categoryD2Ev
	.type	_ZN4asio5error6detail17addrinfo_categoryD2Ev, @function
_ZN4asio5error6detail17addrinfo_categoryD2Ev:
.LFB10189:
	.cfi_startproc
	endbr64
	movq	_ZTVN4asio5error6detail17addrinfo_categoryE@GOTPCREL(%rip), %rax
	addq	$16, %rax
	movq	%rax, (%rdi)
	jmp	_ZNSt3_V214error_categoryD2Ev@PLT
	.cfi_endproc
.LFE10189:
	.size	_ZN4asio5error6detail17addrinfo_categoryD2Ev, .-_ZN4asio5error6detail17addrinfo_categoryD2Ev
	.weak	_ZN4asio5error6detail17addrinfo_categoryD1Ev
	.set	_ZN4asio5error6detail17addrinfo_categoryD1Ev,_ZN4asio5error6detail17addrinfo_categoryD2Ev
	.section	.text._ZN4asio5error6detail17addrinfo_categoryD0Ev,"axG",@progbits,_ZN4asio5error6detail17addrinfo_categoryD5Ev,comdat
	.align 2
	.p2align 4
	.weak	_ZN4asio5error6detail17addrinfo_categoryD0Ev
	.type	_ZN4asio5error6detail17addrinfo_categoryD0Ev, @function
_ZN4asio5error6detail17addrinfo_categoryD0Ev:
.LFB10191:
	.cfi_startproc
	endbr64
	movq	_ZTVN4asio5error6detail17addrinfo_categoryE@GOTPCREL(%rip), %rax
	pushq	%rbp
	.cfi_def_cfa_offset 16
	.cfi_offset 6, -16
	movq	%rdi, %rbp
	addq	$16, %rax
	movq	%rax, (%rdi)
	call	_ZNSt3_V214error_categoryD2Ev@PLT
	movq	%rbp, %rdi
	movl	$8, %esi
	popq	%rbp
	.cfi_def_cfa_offset 8
	jmp	_ZdlPvm@PLT
	.cfi_endproc
.LFE10191:
	.size	_ZN4asio5error6detail17addrinfo_categoryD0Ev, .-_ZN4asio5error6detail17addrinfo_categoryD0Ev
	.section	.text._ZN4asio6detail15task_io_service16shutdown_serviceEv,"axG",@progbits,_ZN4asio6detail15task_io_service16shutdown_serviceEv,comdat
	.align 2
	.p2align 4
	.weak	_ZN4asio6detail15task_io_service16shutdown_serviceEv
	.type	_ZN4asio6detail15task_io_service16shutdown_serviceEv, @function
_ZN4asio6detail15task_io_service16shutdown_serviceEv:
.LFB3350:
	.cfi_startproc
	endbr64
	pushq	%r13
	.cfi_def_cfa_offset 16
	.cfi_offset 13, -16
	pushq	%r12
	.cfi_def_cfa_offset 24
	.cfi_offset 12, -24
	pushq	%rbp
	.cfi_def_cfa_offset 32
	.cfi_offset 6, -32
	leaq	48(%rdi), %rbp
	pushq	%rbx
	.cfi_def_cfa_offset 40
	.cfi_offset 3, -40
	movq	%rdi, %rbx
	movq	%rbp, %rdi
	leaq	152(%rbx), %r12
	subq	$40, %rsp
	.cfi_def_cfa_offset 80
	movq	%fs:40, %rax
	movq	%rax, 24(%rsp)
	xorl	%eax, %eax
	call	pthread_mutex_lock@PLT
	movb	$1, 209(%rbx)
	movq	%rbp, %rdi
	call	pthread_mutex_unlock@PLT
.L40:
	movq	192(%rbx), %rbp
	jmp	.L44
	.p2align 4,,10
	.p2align 3
.L41:
	movq	$0, 0(%rbp)
	cmpq	%r12, %rbp
	jne	.L42
.L43:
	movq	%rax, %rbp
.L44:
	testq	%rbp, %rbp
	je	.L48
	movq	0(%rbp), %rax
	movq	%rax, 192(%rbx)
	testq	%rax, %rax
	jne	.L41
	movq	$0, 200(%rbx)
	movq	$0, 0(%rbp)
	cmpq	%r12, %rbp
	je	.L43
.L42:
	movl	$0, (%rsp)
	movq	8(%rbp), %r13
	call	_ZNSt3_V215system_categoryEv@PLT
	movq	%rsp, %rdx
	xorl	%ecx, %ecx
	movq	%rbp, %rsi
	movq	%rax, 8(%rsp)
	xorl	%edi, %edi
	call	*%r13
	jmp	.L40
	.p2align 4,,10
	.p2align 3
.L48:
	movq	$0, 144(%rbx)
	movq	24(%rsp), %rax
	subq	%fs:40, %rax
	jne	.L49
	addq	$40, %rsp
	.cfi_remember_state
	.cfi_def_cfa_offset 40
	popq	%rbx
	.cfi_def_cfa_offset 32
	popq	%rbp
	.cfi_def_cfa_offset 24
	popq	%r12
	.cfi_def_cfa_offset 16
	popq	%r13
	.cfi_def_cfa_offset 8
	ret
.L49:
	.cfi_restore_state
	call	__stack_chk_fail@PLT
	.cfi_endproc
.LFE3350:
	.size	_ZN4asio6detail15task_io_service16shutdown_serviceEv, .-_ZN4asio6detail15task_io_service16shutdown_serviceEv
	.section	.rodata.str1.8,"aMS",@progbits,1
	.align 8
.LC4:
	.string	"basic_string::_M_construct null not valid"
	.text
	.align 2
	.p2align 4
	.type	_ZNSt7__cxx1112basic_stringIcSt11char_traitsIcESaIcEEC2EPKcRKS3_.constprop.0, @function
_ZNSt7__cxx1112basic_stringIcSt11char_traitsIcESaIcEEC2EPKcRKS3_.constprop.0:
.LFB10371:
	.cfi_startproc
	pushq	%r13
	.cfi_def_cfa_offset 16
	.cfi_offset 13, -16
	pushq	%r12
	.cfi_def_cfa_offset 24
	.cfi_offset 12, -24
	leaq	16(%rdi), %r12
	pushq	%rbp
	.cfi_def_cfa_offset 32
	.cfi_offset 6, -32
	pushq	%rbx
	.cfi_def_cfa_offset 40
	.cfi_offset 3, -40
	subq	$24, %rsp
	.cfi_def_cfa_offset 64
	movq	%fs:40, %rax
	movq	%rax, 8(%rsp)
	xorl	%eax, %eax
	movq	%r12, (%rdi)
	testq	%rsi, %rsi
	je	.L51
	movq	%rdi, %rbx
	movq	%rsi, %rdi
	movq	%rsi, %rbp
	call	strlen@PLT
	movq	%rax, (%rsp)
	movq	%rax, %r13
	cmpq	$15, %rax
	ja	.L63
	cmpq	$1, %rax
	jne	.L55
	movzbl	0(%rbp), %edx
	movb	%dl, 16(%rbx)
.L56:
	movq	%rax, 8(%rbx)
	movb	$0, (%r12,%rax)
	movq	8(%rsp), %rax
	subq	%fs:40, %rax
	jne	.L64
	addq	$24, %rsp
	.cfi_remember_state
	.cfi_def_cfa_offset 40
	popq	%rbx
	.cfi_def_cfa_offset 32
	popq	%rbp
	.cfi_def_cfa_offset 24
	popq	%r12
	.cfi_def_cfa_offset 16
	popq	%r13
	.cfi_def_cfa_offset 8
	ret
	.p2align 4,,10
	.p2align 3
.L55:
	.cfi_restore_state
	testq	%rax, %rax
	je	.L56
	jmp	.L54
	.p2align 4,,10
	.p2align 3
.L63:
	movq	%rsp, %rsi
	xorl	%edx, %edx
	movq	%rbx, %rdi
	call	_ZNSt7__cxx1112basic_stringIcSt11char_traitsIcESaIcEE9_M_createERmm@PLT
	movq	%rax, (%rbx)
	movq	%rax, %r12
	movq	(%rsp), %rax
	movq	%rax, 16(%rbx)
.L54:
	movq	%r12, %rdi
	movq	%r13, %rdx
	movq	%rbp, %rsi
	call	memcpy@PLT
	movq	(%rsp), %rax
	movq	(%rbx), %r12
	jmp	.L56
.L64:
	call	__stack_chk_fail@PLT
.L51:
	leaq	.LC4(%rip), %rdi
	call	_ZSt19__throw_logic_errorPKc@PLT
	.cfi_endproc
.LFE10371:
	.size	_ZNSt7__cxx1112basic_stringIcSt11char_traitsIcESaIcEEC2EPKcRKS3_.constprop.0, .-_ZNSt7__cxx1112basic_stringIcSt11char_traitsIcESaIcEEC2EPKcRKS3_.constprop.0
	.section	.text.unlikely,"ax",@progbits
	.type	_ZN4asio6detail15throw_exceptionISt8bad_castEEvRKT_.isra.0, @function
_ZN4asio6detail15throw_exceptionISt8bad_castEEvRKT_.isra.0:
.LFB10374:
	.cfi_startproc
	pushq	%rax
	.cfi_def_cfa_offset 16
	popq	%rax
	.cfi_def_cfa_offset 8
	movl	$8, %edi
	pushq	%rax
	.cfi_def_cfa_offset 16
	call	__cxa_allocate_exception@PLT
	movq	_ZNSt8bad_castD1Ev@GOTPCREL(%rip), %rdx
	movq	_ZTISt8bad_cast@GOTPCREL(%rip), %rsi
	movq	%rax, %rdi
	movq	_ZTVSt8bad_cast@GOTPCREL(%rip), %rax
	addq	$16, %rax
	movq	%rax, (%rdi)
	call	__cxa_throw@PLT
	.cfi_endproc
.LFE10374:
	.size	_ZN4asio6detail15throw_exceptionISt8bad_castEEvRKT_.isra.0, .-_ZN4asio6detail15throw_exceptionISt8bad_castEEvRKT_.isra.0
	.text
	.align 2
	.p2align 4
	.type	_ZNSt7__cxx1112basic_stringIcSt11char_traitsIcESaIcEE12_M_constructIPcEEvT_S7_St20forward_iterator_tag.constprop.0, @function
_ZNSt7__cxx1112basic_stringIcSt11char_traitsIcESaIcEE12_M_constructIPcEEvT_S7_St20forward_iterator_tag.constprop.0:
.LFB10375:
	.cfi_startproc
	pushq	%r12
	.cfi_def_cfa_offset 16
	.cfi_offset 12, -16
	movq	%rdx, %r12
	pushq	%rbp
	.cfi_def_cfa_offset 24
	.cfi_offset 6, -24
	movq	%rsi, %rbp
	pushq	%rbx
	.cfi_def_cfa_offset 32
	.cfi_offset 3, -32
	movq	%rdi, %rbx
	subq	$16, %rsp
	.cfi_def_cfa_offset 48
	movq	%fs:40, %rax
	movq	%rax, 8(%rsp)
	xorl	%eax, %eax
	testq	%rdx, %rdx
	je	.L68
	testq	%rsi, %rsi
	je	.L84
.L68:
	subq	%rbp, %r12
	movq	%r12, (%rsp)
	cmpq	$15, %r12
	ja	.L85
	movq	(%rbx), %rdi
	cmpq	$1, %r12
	jne	.L71
	movzbl	0(%rbp), %eax
	movb	%al, (%rdi)
	movq	(%rsp), %r12
	movq	(%rbx), %rdi
.L72:
	movq	%r12, 8(%rbx)
	movb	$0, (%rdi,%r12)
	movq	8(%rsp), %rax
	subq	%fs:40, %rax
	jne	.L86
	addq	$16, %rsp
	.cfi_remember_state
	.cfi_def_cfa_offset 32
	popq	%rbx
	.cfi_def_cfa_offset 24
	popq	%rbp
	.cfi_def_cfa_offset 16
	popq	%r12
	.cfi_def_cfa_offset 8
	ret
	.p2align 4,,10
	.p2align 3
.L71:
	.cfi_restore_state
	testq	%r12, %r12
	je	.L72
	jmp	.L70
	.p2align 4,,10
	.p2align 3
.L85:
	movq	%rbx, %rdi
	movq	%rsp, %rsi
	xorl	%edx, %edx
	call	_ZNSt7__cxx1112basic_stringIcSt11char_traitsIcESaIcEE9_M_createERmm@PLT
	movq	%rax, (%rbx)
	movq	%rax, %rdi
	movq	(%rsp), %rax
	movq	%rax, 16(%rbx)
.L70:
	movq	%r12, %rdx
	movq	%rbp, %rsi
	call	memcpy@PLT
	movq	(%rsp), %r12
	movq	(%rbx), %rdi
	jmp	.L72
.L84:
	leaq	.LC4(%rip), %rdi
	call	_ZSt19__throw_logic_errorPKc@PLT
.L86:
	call	__stack_chk_fail@PLT
	.cfi_endproc
.LFE10375:
	.size	_ZNSt7__cxx1112basic_stringIcSt11char_traitsIcESaIcEE12_M_constructIPcEEvT_S7_St20forward_iterator_tag.constprop.0, .-_ZNSt7__cxx1112basic_stringIcSt11char_traitsIcESaIcEE12_M_constructIPcEEvT_S7_St20forward_iterator_tag.constprop.0
	.section	.text._ZNSt19_Sp_counted_deleterIPvN4asio6detail10socket_ops12noop_deleterESaIvELN9__gnu_cxx12_Lock_policyE2EE14_M_get_deleterERKSt9type_info,"axG",@progbits,_ZNSt19_Sp_counted_deleterIPvN4asio6detail10socket_ops12noop_deleterESaIvELN9__gnu_cxx12_Lock_policyE2EE14_M_get_deleterERKSt9type_info,comdat
	.align 2
	.p2align 4
	.weak	_ZNSt19_Sp_counted_deleterIPvN4asio6detail10socket_ops12noop_deleterESaIvELN9__gnu_cxx12_Lock_policyE2EE14_M_get_deleterERKSt9type_info
	.type	_ZNSt19_Sp_counted_deleterIPvN4asio6detail10socket_ops12noop_deleterESaIvELN9__gnu_cxx12_Lock_policyE2EE14_M_get_deleterERKSt9type_info, @function
_ZNSt19_Sp_counted_deleterIPvN4asio6detail10socket_ops12noop_deleterESaIvELN9__gnu_cxx12_Lock_policyE2EE14_M_get_deleterERKSt9type_info:
.LFB10290:
	.cfi_startproc
	endbr64
	pushq	%r12
	.cfi_def_cfa_offset 16
	.cfi_offset 12, -16
	pushq	%rbx
	.cfi_def_cfa_offset 24
	.cfi_offset 3, -24
	movq	%rdi, %rbx
	subq	$8, %rsp
	.cfi_def_cfa_offset 32
	movq	8(%rsi), %rdi
	movq	_ZTSN4asio6detail10socket_ops12noop_deleterE@GOTPCREL(%rip), %rsi
	cmpq	%rsi, %rdi
	je	.L88
	xorl	%r12d, %r12d
	cmpb	$42, (%rdi)
	je	.L87
	call	strcmp@PLT
	testl	%eax, %eax
	jne	.L87
.L88:
	leaq	16(%rbx), %r12
.L87:
	addq	$8, %rsp
	.cfi_def_cfa_offset 24
	movq	%r12, %rax
	popq	%rbx
	.cfi_def_cfa_offset 16
	popq	%r12
	.cfi_def_cfa_offset 8
	ret
	.cfi_endproc
.LFE10290:
	.size	_ZNSt19_Sp_counted_deleterIPvN4asio6detail10socket_ops12noop_deleterESaIvELN9__gnu_cxx12_Lock_policyE2EE14_M_get_deleterERKSt9type_info, .-_ZNSt19_Sp_counted_deleterIPvN4asio6detail10socket_ops12noop_deleterESaIvELN9__gnu_cxx12_Lock_policyE2EE14_M_get_deleterERKSt9type_info
	.section	.text._ZN4asio6detail13epoll_reactorD2Ev,"axG",@progbits,_ZN4asio6detail13epoll_reactorD5Ev,comdat
	.align 2
	.p2align 4
	.weak	_ZN4asio6detail13epoll_reactorD2Ev
	.type	_ZN4asio6detail13epoll_reactorD2Ev, @function
_ZN4asio6detail13epoll_reactorD2Ev:
.LFB3299:
	.cfi_startproc
	.cfi_personality 0x9b,DW.ref.__gxx_personality_v0
	.cfi_lsda 0x1b,.LLSDA3299
	endbr64
	pushq	%r15
	.cfi_def_cfa_offset 16
	.cfi_offset 15, -16
	pushq	%r14
	.cfi_def_cfa_offset 24
	.cfi_offset 14, -24
	pushq	%r13
	.cfi_def_cfa_offset 32
	.cfi_offset 13, -32
	pushq	%r12
	.cfi_def_cfa_offset 40
	.cfi_offset 12, -40
	pushq	%rbp
	.cfi_def_cfa_offset 48
	.cfi_offset 6, -48
	pushq	%rbx
	.cfi_def_cfa_offset 56
	.cfi_offset 3, -56
	subq	$56, %rsp
	.cfi_def_cfa_offset 112
	movq	%rdi, 8(%rsp)
	movq	%fs:40, %rax
	movq	%rax, 40(%rsp)
	movq	_ZTVN4asio6detail13epoll_reactorE@GOTPCREL(%rip), %rax
	addq	$16, %rax
	movq	%rax, (%rdi)
	movl	96(%rdi), %edi
	cmpl	$-1, %edi
	je	.L94
	call	close@PLT
.L94:
	movq	8(%rsp), %rax
	movl	100(%rax), %edi
	cmpl	$-1, %edi
	je	.L95
	call	close@PLT
.L95:
	movq	8(%rsp), %rax
	leaq	16(%rsp), %rbp
	movq	160(%rax), %r13
	testq	%r13, %r13
	je	.L106
	.p2align 4,,10
	.p2align 3
.L96:
	movq	%r13, %r12
	movq	24(%r13), %r13
	leaq	128(%r12), %r15
	leaq	80(%r12), %r14
.L101:
	movq	(%r15), %rsi
	testq	%rsi, %rsi
	je	.L103
	movq	%rsi, (%rsp)
	call	_ZNSt3_V215system_categoryEv@PLT
	movq	(%rsp), %rsi
	movq	%rax, %rbx
	jmp	.L105
	.p2align 4,,10
	.p2align 3
.L102:
	movq	$0, (%rsi)
	movq	8(%rsi), %rax
	xorl	%ecx, %ecx
	movq	%rbp, %rdx
	movl	$0, 16(%rsp)
	xorl	%edi, %edi
	movq	%rbx, 24(%rsp)
	call	*%rax
	movq	(%r15), %rsi
	testq	%rsi, %rsi
	je	.L103
.L105:
	movq	(%rsi), %rax
	movq	%rax, (%r15)
	testq	%rax, %rax
	jne	.L102
	movq	$0, 8(%r15)
	jmp	.L102
	.p2align 4,,10
	.p2align 3
.L103:
	subq	$16, %r15
	cmpq	%r14, %r15
	jne	.L101
	leaq	40(%r12), %rdi
	call	pthread_mutex_destroy@PLT
	movl	$152, %esi
	movq	%r12, %rdi
	call	_ZdlPvm@PLT
	testq	%r13, %r13
	jne	.L96
.L106:
	movq	8(%rsp), %rax
	leaq	16(%rsp), %rbp
	movq	168(%rax), %r13
	testq	%r13, %r13
	je	.L98
	.p2align 4,,10
	.p2align 3
.L97:
	movq	%r13, %r12
	movq	24(%r13), %r13
	leaq	128(%r12), %r15
	leaq	80(%r12), %r14
.L111:
	movq	(%r15), %rsi
	testq	%rsi, %rsi
	je	.L113
	movq	%rsi, (%rsp)
	call	_ZNSt3_V215system_categoryEv@PLT
	movq	(%rsp), %rsi
	movq	%rax, %rbx
	jmp	.L115
	.p2align 4,,10
	.p2align 3
.L112:
	movq	$0, (%rsi)
	movq	8(%rsi), %rax
	xorl	%ecx, %ecx
	movq	%rbp, %rdx
	movl	$0, 16(%rsp)
	xorl	%edi, %edi
	movq	%rbx, 24(%rsp)
	call	*%rax
	movq	(%r15), %rsi
	testq	%rsi, %rsi
	je	.L113
.L115:
	movq	(%rsi), %rax
	movq	%rax, (%r15)
	testq	%rax, %rax
	jne	.L112
	movq	$0, 8(%r15)
	jmp	.L112
	.p2align 4,,10
	.p2align 3
.L113:
	subq	$16, %r15
	cmpq	%r14, %r15
	jne	.L111
	leaq	40(%r12), %rdi
	call	pthread_mutex_destroy@PLT
	movl	$152, %esi
	movq	%r12, %rdi
	call	_ZdlPvm@PLT
	testq	%r13, %r13
	jne	.L97
.L98:
	movq	8(%rsp), %rbx
	leaq	120(%rbx), %rdi
	call	pthread_mutex_destroy@PLT
	movl	92(%rbx), %r8d
	cmpl	$-1, %r8d
	je	.L150
	movq	8(%rsp), %rbx
	movl	88(%rbx), %edi
	cmpl	%edi, %r8d
	jne	.L151
.L117:
	call	close@PLT
.L118:
	movq	40(%rsp), %rax
	subq	%fs:40, %rax
	jne	.L152
	movq	8(%rsp), %rdi
	addq	$56, %rsp
	.cfi_remember_state
	.cfi_def_cfa_offset 56
	popq	%rbx
	.cfi_def_cfa_offset 48
	popq	%rbp
	.cfi_def_cfa_offset 40
	addq	$48, %rdi
	popq	%r12
	.cfi_def_cfa_offset 32
	popq	%r13
	.cfi_def_cfa_offset 24
	popq	%r14
	.cfi_def_cfa_offset 16
	popq	%r15
	.cfi_def_cfa_offset 8
	jmp	pthread_mutex_destroy@PLT
.L151:
	.cfi_restore_state
	movl	%r8d, %edi
	call	close@PLT
	movl	88(%rbx), %edi
.L116:
	cmpl	$-1, %edi
	je	.L118
	jmp	.L117
.L150:
	movq	8(%rsp), %rax
	movl	88(%rax), %edi
	jmp	.L116
.L152:
	call	__stack_chk_fail@PLT
	.cfi_endproc
.LFE3299:
	.globl	__gxx_personality_v0
	.section	.gcc_except_table._ZN4asio6detail13epoll_reactorD2Ev,"aG",@progbits,_ZN4asio6detail13epoll_reactorD5Ev,comdat
.LLSDA3299:
	.byte	0xff
	.byte	0xff
	.byte	0x1
	.uleb128 .LLSDACSE3299-.LLSDACSB3299
.LLSDACSB3299:
.LLSDACSE3299:
	.section	.text._ZN4asio6detail13epoll_reactorD2Ev,"axG",@progbits,_ZN4asio6detail13epoll_reactorD5Ev,comdat
	.size	_ZN4asio6detail13epoll_reactorD2Ev, .-_ZN4asio6detail13epoll_reactorD2Ev
	.weak	_ZN4asio6detail13epoll_reactorD1Ev
	.set	_ZN4asio6detail13epoll_reactorD1Ev,_ZN4asio6detail13epoll_reactorD2Ev
	.section	.text._ZN4asio6detail13epoll_reactorD0Ev,"axG",@progbits,_ZN4asio6detail13epoll_reactorD5Ev,comdat
	.align 2
	.p2align 4
	.weak	_ZN4asio6detail13epoll_reactorD0Ev
	.type	_ZN4asio6detail13epoll_reactorD0Ev, @function
_ZN4asio6detail13epoll_reactorD0Ev:
.LFB3301:
	.cfi_startproc
	.cfi_personality 0x9b,DW.ref.__gxx_personality_v0
	.cfi_lsda 0x1b,.LLSDA3301
	endbr64
	pushq	%r15
	.cfi_def_cfa_offset 16
	.cfi_offset 15, -16
	pushq	%r14
	.cfi_def_cfa_offset 24
	.cfi_offset 14, -24
	pushq	%r13
	.cfi_def_cfa_offset 32
	.cfi_offset 13, -32
	pushq	%r12
	.cfi_def_cfa_offset 40
	.cfi_offset 12, -40
	pushq	%rbp
	.cfi_def_cfa_offset 48
	.cfi_offset 6, -48
	pushq	%rbx
	.cfi_def_cfa_offset 56
	.cfi_offset 3, -56
	subq	$56, %rsp
	.cfi_def_cfa_offset 112
	movq	%rdi, 8(%rsp)
	movq	%fs:40, %rax
	movq	%rax, 40(%rsp)
	movq	_ZTVN4asio6detail13epoll_reactorE@GOTPCREL(%rip), %rax
	addq	$16, %rax
	movq	%rax, (%rdi)
	movl	96(%rdi), %edi
	cmpl	$-1, %edi
	je	.L154
	call	close@PLT
.L154:
	movq	8(%rsp), %rax
	movl	100(%rax), %edi
	cmpl	$-1, %edi
	je	.L155
	call	close@PLT
.L155:
	movq	8(%rsp), %rax
	leaq	16(%rsp), %rbp
	movq	160(%rax), %r13
	testq	%r13, %r13
	je	.L166
	.p2align 4,,10
	.p2align 3
.L156:
	movq	%r13, %r12
	movq	24(%r13), %r13
	leaq	144(%r12), %r15
	leaq	96(%r12), %r14
.L161:
	movq	-16(%r15), %rsi
	subq	$16, %r15
	testq	%rsi, %rsi
	je	.L163
	movq	%rsi, (%rsp)
	call	_ZNSt3_V215system_categoryEv@PLT
	movq	(%rsp), %rsi
	movq	%rax, %rbx
	jmp	.L165
	.p2align 4,,10
	.p2align 3
.L162:
	movq	$0, (%rsi)
	movq	8(%rsi), %rax
	xorl	%ecx, %ecx
	movq	%rbp, %rdx
	movl	$0, 16(%rsp)
	xorl	%edi, %edi
	movq	%rbx, 24(%rsp)
	call	*%rax
	movq	(%r15), %rsi
	testq	%rsi, %rsi
	je	.L163
.L165:
	movq	(%rsi), %rax
	movq	%rax, (%r15)
	testq	%rax, %rax
	jne	.L162
	movq	$0, 8(%r15)
	jmp	.L162
	.p2align 4,,10
	.p2align 3
.L163:
	cmpq	%r14, %r15
	jne	.L161
	leaq	40(%r12), %rdi
	call	pthread_mutex_destroy@PLT
	movl	$152, %esi
	movq	%r12, %rdi
	call	_ZdlPvm@PLT
	testq	%r13, %r13
	jne	.L156
.L166:
	movq	8(%rsp), %rax
	leaq	16(%rsp), %rbp
	movq	168(%rax), %r13
	testq	%r13, %r13
	je	.L158
	.p2align 4,,10
	.p2align 3
.L157:
	movq	%r13, %r12
	movq	24(%r13), %r13
	leaq	128(%r12), %r15
	leaq	80(%r12), %r14
.L171:
	movq	(%r15), %rsi
	testq	%rsi, %rsi
	je	.L173
	movq	%rsi, (%rsp)
	call	_ZNSt3_V215system_categoryEv@PLT
	movq	(%rsp), %rsi
	movq	%rax, %rbx
	jmp	.L175
	.p2align 4,,10
	.p2align 3
.L172:
	movq	$0, (%rsi)
	movq	8(%rsi), %rax
	xorl	%ecx, %ecx
	movq	%rbp, %rdx
	movl	$0, 16(%rsp)
	xorl	%edi, %edi
	movq	%rbx, 24(%rsp)
	call	*%rax
	movq	(%r15), %rsi
	testq	%rsi, %rsi
	je	.L173
.L175:
	movq	(%rsi), %rax
	movq	%rax, (%r15)
	testq	%rax, %rax
	jne	.L172
	movq	$0, 8(%r15)
	jmp	.L172
	.p2align 4,,10
	.p2align 3
.L173:
	subq	$16, %r15
	cmpq	%r14, %r15
	jne	.L171
	leaq	40(%r12), %rdi
	call	pthread_mutex_destroy@PLT
	movl	$152, %esi
	movq	%r12, %rdi
	call	_ZdlPvm@PLT
	testq	%r13, %r13
	jne	.L157
.L158:
	movq	8(%rsp), %rbx
	leaq	120(%rbx), %rdi
	call	pthread_mutex_destroy@PLT
	movl	92(%rbx), %r8d
	cmpl	$-1, %r8d
	je	.L210
	movq	8(%rsp), %rbx
	movl	88(%rbx), %edi
	cmpl	%edi, %r8d
	jne	.L211
.L177:
	call	close@PLT
.L178:
	movq	8(%rsp), %rax
	leaq	48(%rax), %rdi
	call	pthread_mutex_destroy@PLT
	movq	40(%rsp), %rax
	subq	%fs:40, %rax
	jne	.L212
	movq	8(%rsp), %rdi
	addq	$56, %rsp
	.cfi_remember_state
	.cfi_def_cfa_offset 56
	movl	$176, %esi
	popq	%rbx
	.cfi_def_cfa_offset 48
	popq	%rbp
	.cfi_def_cfa_offset 40
	popq	%r12
	.cfi_def_cfa_offset 32
	popq	%r13
	.cfi_def_cfa_offset 24
	popq	%r14
	.cfi_def_cfa_offset 16
	popq	%r15
	.cfi_def_cfa_offset 8
	jmp	_ZdlPvm@PLT
.L211:
	.cfi_restore_state
	movl	%r8d, %edi
	call	close@PLT
	movl	88(%rbx), %edi
.L176:
	cmpl	$-1, %edi
	je	.L178
	jmp	.L177
.L210:
	movq	8(%rsp), %rax
	movl	88(%rax), %edi
	jmp	.L176
.L212:
	call	__stack_chk_fail@PLT
	.cfi_endproc
.LFE3301:
	.section	.gcc_except_table._ZN4asio6detail13epoll_reactorD0Ev,"aG",@progbits,_ZN4asio6detail13epoll_reactorD5Ev,comdat
.LLSDA3301:
	.byte	0xff
	.byte	0xff
	.byte	0x1
	.uleb128 .LLSDACSE3301-.LLSDACSB3301
.LLSDACSB3301:
.LLSDACSE3301:
	.section	.text._ZN4asio6detail13epoll_reactorD0Ev,"axG",@progbits,_ZN4asio6detail13epoll_reactorD5Ev,comdat
	.size	_ZN4asio6detail13epoll_reactorD0Ev, .-_ZN4asio6detail13epoll_reactorD0Ev
	.section	.text._ZNSt15_Sp_counted_ptrIPSt6vectorIN4asio2ip20basic_resolver_entryINS2_3tcpEEESaIS5_EELN9__gnu_cxx12_Lock_policyE2EE10_M_disposeEv,"axG",@progbits,_ZNSt15_Sp_counted_ptrIPSt6vectorIN4asio2ip20basic_resolver_entryINS2_3tcpEEESaIS5_EELN9__gnu_cxx12_Lock_policyE2EE10_M_disposeEv,comdat
	.align 2
	.p2align 4
	.weak	_ZNSt15_Sp_counted_ptrIPSt6vectorIN4asio2ip20basic_resolver_entryINS2_3tcpEEESaIS5_EELN9__gnu_cxx12_Lock_policyE2EE10_M_disposeEv
	.type	_ZNSt15_Sp_counted_ptrIPSt6vectorIN4asio2ip20basic_resolver_entryINS2_3tcpEEESaIS5_EELN9__gnu_cxx12_Lock_policyE2EE10_M_disposeEv, @function
_ZNSt15_Sp_counted_ptrIPSt6vectorIN4asio2ip20basic_resolver_entryINS2_3tcpEEESaIS5_EELN9__gnu_cxx12_Lock_policyE2EE10_M_disposeEv:
.LFB10246:
	.cfi_startproc
	endbr64
	pushq	%r12
	.cfi_def_cfa_offset 16
	.cfi_offset 12, -16
	pushq	%rbp
	.cfi_def_cfa_offset 24
	.cfi_offset 6, -24
	pushq	%rbx
	.cfi_def_cfa_offset 32
	.cfi_offset 3, -32
	movq	16(%rdi), %r12
	testq	%r12, %r12
	je	.L213
	movq	8(%r12), %rbx
	movq	(%r12), %rbp
	cmpq	%rbp, %rbx
	je	.L215
	.p2align 4,,10
	.p2align 3
.L220:
	movq	64(%rbp), %rdi
	leaq	80(%rbp), %rax
	cmpq	%rax, %rdi
	je	.L216
	movq	80(%rbp), %rax
	leaq	1(%rax), %rsi
	call	_ZdlPvm@PLT
.L216:
	movq	32(%rbp), %rdi
	leaq	48(%rbp), %rax
	cmpq	%rax, %rdi
	je	.L217
	movq	48(%rbp), %rax
	addq	$96, %rbp
	leaq	1(%rax), %rsi
	call	_ZdlPvm@PLT
	cmpq	%rbp, %rbx
	jne	.L220
	movq	(%r12), %rbp
.L215:
	testq	%rbp, %rbp
	je	.L221
	movq	16(%r12), %rsi
	movq	%rbp, %rdi
	subq	%rbp, %rsi
	call	_ZdlPvm@PLT
.L221:
	popq	%rbx
	.cfi_remember_state
	.cfi_def_cfa_offset 24
	movq	%r12, %rdi
	popq	%rbp
	.cfi_def_cfa_offset 16
	movl	$24, %esi
	popq	%r12
	.cfi_def_cfa_offset 8
	jmp	_ZdlPvm@PLT
	.p2align 4,,10
	.p2align 3
.L217:
	.cfi_restore_state
	addq	$96, %rbp
	cmpq	%rbp, %rbx
	jne	.L220
	movq	(%r12), %rbp
	jmp	.L215
	.p2align 4,,10
	.p2align 3
.L213:
	popq	%rbx
	.cfi_def_cfa_offset 24
	popq	%rbp
	.cfi_def_cfa_offset 16
	popq	%r12
	.cfi_def_cfa_offset 8
	ret
	.cfi_endproc
.LFE10246:
	.size	_ZNSt15_Sp_counted_ptrIPSt6vectorIN4asio2ip20basic_resolver_entryINS2_3tcpEEESaIS5_EELN9__gnu_cxx12_Lock_policyE2EE10_M_disposeEv, .-_ZNSt15_Sp_counted_ptrIPSt6vectorIN4asio2ip20basic_resolver_entryINS2_3tcpEEESaIS5_EELN9__gnu_cxx12_Lock_policyE2EE10_M_disposeEv
	.section	.text._ZN4asio6detail15task_io_serviceD2Ev,"axG",@progbits,_ZN4asio6detail15task_io_serviceD5Ev,comdat
	.align 2
	.p2align 4
	.weak	_ZN4asio6detail15task_io_serviceD2Ev
	.type	_ZN4asio6detail15task_io_serviceD2Ev, @function
_ZN4asio6detail15task_io_serviceD2Ev:
.LFB10181:
	.cfi_startproc
	.cfi_personality 0x9b,DW.ref.__gxx_personality_v0
	.cfi_lsda 0x1b,.LLSDA10181
	endbr64
	pushq	%r12
	.cfi_def_cfa_offset 16
	.cfi_offset 12, -16
	pushq	%rbp
	.cfi_def_cfa_offset 24
	.cfi_offset 6, -24
	pushq	%rbx
	.cfi_def_cfa_offset 32
	.cfi_offset 3, -32
	movq	%rdi, %rbx
	subq	$48, %rsp
	.cfi_def_cfa_offset 80
	movq	192(%rdi), %rsi
	movq	%fs:40, %rax
	movq	%rax, 40(%rsp)
	movq	_ZTVN4asio6detail15task_io_serviceE@GOTPCREL(%rip), %rax
	movq	%rsi, 8(%rsp)
	addq	$16, %rax
	testq	%rsi, %rsi
	movq	%rax, (%rdi)
	je	.L227
	call	_ZNSt3_V215system_categoryEv@PLT
	leaq	16(%rsp), %r12
	movq	8(%rsp), %rsi
	movq	%rax, %rbp
	jmp	.L230
	.p2align 4,,10
	.p2align 3
.L228:
	movq	$0, (%rsi)
	movq	8(%rsi), %rax
	xorl	%ecx, %ecx
	movq	%r12, %rdx
	movl	$0, 16(%rsp)
	xorl	%edi, %edi
	movq	%rbp, 24(%rsp)
	call	*%rax
	movq	192(%rbx), %rsi
	testq	%rsi, %rsi
	je	.L227
.L230:
	movq	(%rsi), %rax
	movq	%rax, 192(%rbx)
	testq	%rax, %rax
	jne	.L228
	movq	$0, 200(%rbx)
	jmp	.L228
	.p2align 4,,10
	.p2align 3
.L227:
	leaq	88(%rbx), %rdi
	call	pthread_cond_destroy@PLT
	movq	40(%rsp), %rax
	subq	%fs:40, %rax
	jne	.L244
	addq	$48, %rsp
	.cfi_remember_state
	.cfi_def_cfa_offset 32
	leaq	48(%rbx), %rdi
	popq	%rbx
	.cfi_def_cfa_offset 24
	popq	%rbp
	.cfi_def_cfa_offset 16
	popq	%r12
	.cfi_def_cfa_offset 8
	jmp	pthread_mutex_destroy@PLT
.L244:
	.cfi_restore_state
	call	__stack_chk_fail@PLT
	.cfi_endproc
.LFE10181:
	.section	.gcc_except_table._ZN4asio6detail15task_io_serviceD2Ev,"aG",@progbits,_ZN4asio6detail15task_io_serviceD5Ev,comdat
.LLSDA10181:
	.byte	0xff
	.byte	0xff
	.byte	0x1
	.uleb128 .LLSDACSE10181-.LLSDACSB10181
.LLSDACSB10181:
.LLSDACSE10181:
	.section	.text._ZN4asio6detail15task_io_serviceD2Ev,"axG",@progbits,_ZN4asio6detail15task_io_serviceD5Ev,comdat
	.size	_ZN4asio6detail15task_io_serviceD2Ev, .-_ZN4asio6detail15task_io_serviceD2Ev
	.weak	_ZN4asio6detail15task_io_serviceD1Ev
	.set	_ZN4asio6detail15task_io_serviceD1Ev,_ZN4asio6detail15task_io_serviceD2Ev
	.section	.text._ZN4asio6detail15task_io_serviceD0Ev,"axG",@progbits,_ZN4asio6detail15task_io_serviceD5Ev,comdat
	.align 2
	.p2align 4
	.weak	_ZN4asio6detail15task_io_serviceD0Ev
	.type	_ZN4asio6detail15task_io_serviceD0Ev, @function
_ZN4asio6detail15task_io_serviceD0Ev:
.LFB10183:
	.cfi_startproc
	.cfi_personality 0x9b,DW.ref.__gxx_personality_v0
	.cfi_lsda 0x1b,.LLSDA10183
	endbr64
	pushq	%r12
	.cfi_def_cfa_offset 16
	.cfi_offset 12, -16
	pushq	%rbp
	.cfi_def_cfa_offset 24
	.cfi_offset 6, -24
	movq	%rdi, %rbp
	pushq	%rbx
	.cfi_def_cfa_offset 32
	.cfi_offset 3, -32
	subq	$48, %rsp
	.cfi_def_cfa_offset 80
	movq	192(%rdi), %rsi
	movq	%fs:40, %rax
	movq	%rax, 40(%rsp)
	movq	_ZTVN4asio6detail15task_io_serviceE@GOTPCREL(%rip), %rax
	movq	%rsi, 8(%rsp)
	addq	$16, %rax
	testq	%rsi, %rsi
	movq	%rax, (%rdi)
	je	.L246
	call	_ZNSt3_V215system_categoryEv@PLT
	leaq	16(%rsp), %r12
	movq	8(%rsp), %rsi
	movq	%rax, %rbx
	jmp	.L249
	.p2align 4,,10
	.p2align 3
.L247:
	movq	$0, (%rsi)
	movq	8(%rsi), %rax
	xorl	%ecx, %ecx
	movq	%r12, %rdx
	movl	$0, 16(%rsp)
	xorl	%edi, %edi
	movq	%rbx, 24(%rsp)
	call	*%rax
	movq	192(%rbp), %rsi
	testq	%rsi, %rsi
	je	.L246
.L249:
	movq	(%rsi), %rax
	movq	%rax, 192(%rbp)
	testq	%rax, %rax
	jne	.L247
	movq	$0, 200(%rbp)
	jmp	.L247
	.p2align 4,,10
	.p2align 3
.L246:
	leaq	88(%rbp), %rdi
	call	pthread_cond_destroy@PLT
	leaq	48(%rbp), %rdi
	call	pthread_mutex_destroy@PLT
	movq	40(%rsp), %rax
	subq	%fs:40, %rax
	jne	.L263
	addq	$48, %rsp
	.cfi_remember_state
	.cfi_def_cfa_offset 32
	movq	%rbp, %rdi
	movl	$216, %esi
	popq	%rbx
	.cfi_def_cfa_offset 24
	popq	%rbp
	.cfi_def_cfa_offset 16
	popq	%r12
	.cfi_def_cfa_offset 8
	jmp	_ZdlPvm@PLT
.L263:
	.cfi_restore_state
	call	__stack_chk_fail@PLT
	.cfi_endproc
.LFE10183:
	.section	.gcc_except_table._ZN4asio6detail15task_io_serviceD0Ev,"aG",@progbits,_ZN4asio6detail15task_io_serviceD5Ev,comdat
.LLSDA10183:
	.byte	0xff
	.byte	0xff
	.byte	0x1
	.uleb128 .LLSDACSE10183-.LLSDACSB10183
.LLSDACSB10183:
.LLSDACSE10183:
	.section	.text._ZN4asio6detail15task_io_serviceD0Ev,"axG",@progbits,_ZN4asio6detail15task_io_serviceD5Ev,comdat
	.size	_ZN4asio6detail15task_io_serviceD0Ev, .-_ZN4asio6detail15task_io_serviceD0Ev
	.section	.text._ZN4asio6detail13epoll_reactor16shutdown_serviceEv,"axG",@progbits,_ZN4asio6detail13epoll_reactor16shutdown_serviceEv,comdat
	.align 2
	.p2align 4
	.weak	_ZN4asio6detail13epoll_reactor16shutdown_serviceEv
	.type	_ZN4asio6detail13epoll_reactor16shutdown_serviceEv, @function
_ZN4asio6detail13epoll_reactor16shutdown_serviceEv:
.LFB3302:
	.cfi_startproc
	.cfi_personality 0x9b,DW.ref.__gxx_personality_v0
	.cfi_lsda 0x1b,.LLSDA3302
	endbr64
	pushq	%r13
	.cfi_def_cfa_offset 16
	.cfi_offset 13, -16
	pushq	%r12
	.cfi_def_cfa_offset 24
	.cfi_offset 12, -24
	pushq	%rbp
	.cfi_def_cfa_offset 32
	.cfi_offset 6, -32
	leaq	48(%rdi), %rbp
	pushq	%rbx
	.cfi_def_cfa_offset 40
	.cfi_offset 3, -40
	movq	%rdi, %rbx
	movq	%rbp, %rdi
	subq	$72, %rsp
	.cfi_def_cfa_offset 112
	movq	%fs:40, %rax
	movq	%rax, 56(%rsp)
	xorl	%eax, %eax
	call	pthread_mutex_lock@PLT
	movb	$1, 112(%rbx)
	movq	%rbp, %rdi
	call	pthread_mutex_unlock@PLT
	movq	160(%rbx), %rax
	pxor	%xmm0, %xmm0
	movaps	%xmm0, 16(%rsp)
	testq	%rax, %rax
	jne	.L265
	jmp	.L282
	.p2align 4,,10
	.p2align 3
.L269:
	movq	%rdx, (%rcx)
.L271:
	movq	104(%rax), %rdx
	movups	%xmm0, 96(%rax)
	movq	%rdx, 24(%rsp)
.L268:
	movq	112(%rax), %rdx
	testq	%rdx, %rdx
	je	.L272
	movq	24(%rsp), %rcx
	testq	%rcx, %rcx
	je	.L332
	movq	%rdx, (%rcx)
.L275:
	movq	120(%rax), %rdx
	movups	%xmm0, 112(%rax)
	movq	%rdx, 24(%rsp)
.L272:
	movq	128(%rax), %rdx
	testq	%rdx, %rdx
	je	.L276
	movq	24(%rsp), %rcx
	testq	%rcx, %rcx
	je	.L333
	movq	%rdx, (%rcx)
.L279:
	movq	136(%rax), %rdx
	movups	%xmm0, 128(%rax)
	movq	%rdx, 24(%rsp)
.L276:
	movq	24(%rax), %rdx
	movb	$1, 144(%rax)
	movq	%rdx, 160(%rbx)
	movq	32(%rax), %rdx
	testq	%rdx, %rdx
	je	.L280
	movq	24(%rax), %rcx
	movq	%rcx, 24(%rdx)
.L280:
	movq	24(%rax), %rdx
	testq	%rdx, %rdx
	je	.L281
	movq	32(%rax), %rcx
	movq	%rcx, 32(%rdx)
.L281:
	movq	168(%rbx), %rdx
	movq	$0, 32(%rax)
	movq	%rdx, 24(%rax)
	movq	%rax, 168(%rbx)
	movq	160(%rbx), %rax
	testq	%rax, %rax
	je	.L282
.L265:
	movq	96(%rax), %rdx
	testq	%rdx, %rdx
	je	.L268
	movq	24(%rsp), %rcx
	testq	%rcx, %rcx
	jne	.L269
	movq	%rdx, 16(%rsp)
	jmp	.L271
	.p2align 4,,10
	.p2align 3
.L332:
	movq	%rdx, 16(%rsp)
	jmp	.L275
	.p2align 4,,10
	.p2align 3
.L333:
	movq	%rdx, 16(%rsp)
	jmp	.L279
	.p2align 4,,10
	.p2align 3
.L282:
	movq	104(%rbx), %rbx
	leaq	16(%rsp), %rbp
	testq	%rbx, %rbx
	je	.L267
	.p2align 4,,10
	.p2align 3
.L266:
	movq	(%rbx), %rax
	movq	%rbp, %rsi
	movq	%rbx, %rdi
.LEHB0:
	call	*48(%rax)
.LEHE0:
	movq	8(%rbx), %rbx
	testq	%rbx, %rbx
	jne	.L266
.L267:
	movq	16(%rsp), %rbx
	testq	%rbx, %rbx
	je	.L264
	pxor	%xmm0, %xmm0
	leaq	32(%rsp), %rbp
	movaps	%xmm0, 16(%rsp)
	call	_ZNSt3_V215system_categoryEv@PLT
	movq	%rax, %r12
	.p2align 4,,10
	.p2align 3
.L286:
	movq	%rbx, %rsi
	movq	(%rbx), %rbx
	xorl	%ecx, %ecx
	xorl	%edi, %edi
	movq	$0, (%rsi)
	movq	8(%rsi), %rax
	movq	%rbp, %rdx
	movl	$0, 32(%rsp)
	movq	%r12, 40(%rsp)
	call	*%rax
	testq	%rbx, %rbx
	jne	.L286
	movq	16(%rsp), %rsi
	testq	%rsi, %rsi
	movq	%rsi, 8(%rsp)
	je	.L264
	call	_ZNSt3_V215system_categoryEv@PLT
	movq	8(%rsp), %rsi
	movq	%rax, %rbx
	jmp	.L291
	.p2align 4,,10
	.p2align 3
.L288:
	movq	$0, (%rsi)
	movq	8(%rsi), %rax
	xorl	%ecx, %ecx
	movq	%rbp, %rdx
	movl	$0, 32(%rsp)
	xorl	%edi, %edi
	movq	%rbx, 40(%rsp)
	call	*%rax
	movq	16(%rsp), %rsi
	testq	%rsi, %rsi
	je	.L264
.L291:
	movq	(%rsi), %rax
	movq	%rax, 16(%rsp)
	testq	%rax, %rax
	jne	.L288
	movq	$0, 24(%rsp)
	jmp	.L288
	.p2align 4,,10
	.p2align 3
.L264:
	movq	56(%rsp), %rax
	subq	%fs:40, %rax
	jne	.L334
	addq	$72, %rsp
	.cfi_remember_state
	.cfi_def_cfa_offset 40
	popq	%rbx
	.cfi_def_cfa_offset 32
	popq	%rbp
	.cfi_def_cfa_offset 24
	popq	%r12
	.cfi_def_cfa_offset 16
	popq	%r13
	.cfi_def_cfa_offset 8
	ret
.L334:
	.cfi_restore_state
	call	__stack_chk_fail@PLT
.L296:
	endbr64
	movq	%rax, %r12
	leaq	32(%rsp), %rbx
.L292:
	movq	16(%rsp), %rbp
	testq	%rbp, %rbp
	jne	.L335
	movq	%r12, %rdi
.LEHB1:
	call	_Unwind_Resume@PLT
.LEHE1:
.L335:
	movq	0(%rbp), %rax
	movq	%rax, 16(%rsp)
	testq	%rax, %rax
	jne	.L294
	movq	$0, 24(%rsp)
.L294:
	movq	$0, 0(%rbp)
	movq	8(%rbp), %r13
	movl	$0, 32(%rsp)
	call	_ZNSt3_V215system_categoryEv@PLT
	xorl	%ecx, %ecx
	movq	%rbx, %rdx
	movq	%rbp, %rsi
	movq	%rax, 40(%rsp)
	xorl	%edi, %edi
	call	*%r13
	jmp	.L292
	.cfi_endproc
.LFE3302:
	.section	.gcc_except_table._ZN4asio6detail13epoll_reactor16shutdown_serviceEv,"aG",@progbits,_ZN4asio6detail13epoll_reactor16shutdown_serviceEv,comdat
.LLSDA3302:
	.byte	0xff
	.byte	0xff
	.byte	0x1
	.uleb128 .LLSDACSE3302-.LLSDACSB3302
.LLSDACSB3302:
	.uleb128 .LEHB0-.LFB3302
	.uleb128 .LEHE0-.LEHB0
	.uleb128 .L296-.LFB3302
	.uleb128 0
	.uleb128 .LEHB1-.LFB3302
	.uleb128 .LEHE1-.LEHB1
	.uleb128 0
	.uleb128 0
.LLSDACSE3302:
	.section	.text._ZN4asio6detail13epoll_reactor16shutdown_serviceEv,"axG",@progbits,_ZN4asio6detail13epoll_reactor16shutdown_serviceEv,comdat
	.size	_ZN4asio6detail13epoll_reactor16shutdown_serviceEv, .-_ZN4asio6detail13epoll_reactor16shutdown_serviceEv
	.section	.text._ZN4asio2ip16resolver_serviceINS0_3tcpEE16shutdown_serviceEv,"axG",@progbits,_ZN4asio2ip16resolver_serviceINS0_3tcpEE16shutdown_serviceEv,comdat
	.align 2
	.p2align 4
	.weak	_ZN4asio2ip16resolver_serviceINS0_3tcpEE16shutdown_serviceEv
	.type	_ZN4asio2ip16resolver_serviceINS0_3tcpEE16shutdown_serviceEv, @function
_ZN4asio2ip16resolver_serviceINS0_3tcpEE16shutdown_serviceEv:
.LFB10293:
	.cfi_startproc
	.cfi_personality 0x9b,DW.ref.__gxx_personality_v0
	.cfi_lsda 0x1b,.LLSDA10293
	endbr64
	pushq	%r13
	.cfi_def_cfa_offset 16
	.cfi_offset 13, -16
	pushq	%r12
	.cfi_def_cfa_offset 24
	.cfi_offset 12, -24
	pushq	%rbp
	.cfi_def_cfa_offset 32
	.cfi_offset 6, -32
	pushq	%rbx
	.cfi_def_cfa_offset 40
	.cfi_offset 3, -40
	movq	%rdi, %rbx
	subq	$40, %rsp
	.cfi_def_cfa_offset 80
	movq	104(%rdi), %r12
	movq	%fs:40, %rax
	movq	%rax, 24(%rsp)
	xorl	%eax, %eax
	testq	%r12, %r12
	je	.L337
	movq	(%r12), %rbp
	lock subq	$1, 184(%rbp)
	je	.L382
.L338:
	movl	$8, %esi
	movq	%r12, %rdi
	call	_ZdlPvm@PLT
.L337:
	movq	88(%rbx), %rax
	movq	$0, 104(%rbx)
	testq	%rax, %rax
	je	.L336
	movq	8(%rax), %rbp
	leaq	48(%rbp), %r12
	movq	%r12, %rdi
	call	pthread_mutex_lock@PLT
	movb	$1, 208(%rbp)
	leaq	88(%rbp), %rdi
	orq	$1, 136(%rbp)
	call	pthread_cond_broadcast@PLT
	cmpb	$0, 176(%rbp)
	jne	.L341
	movq	144(%rbp), %rax
	testq	%rax, %rax
	je	.L341
	movb	$1, 176(%rbp)
	leaq	88(%rax), %rdx
	leaq	12(%rsp), %rcx
	movl	$3, %esi
	movq	%rdx, 16(%rsp)
	movl	88(%rax), %edx
	movl	$-2147483639, 12(%rsp)
	movl	96(%rax), %edi
	call	epoll_ctl@PLT
.L341:
	movq	%r12, %rdi
	call	pthread_mutex_unlock@PLT
	movq	112(%rbx), %rbp
	testq	%rbp, %rbp
	je	.L342
	cmpb	$0, 8(%rbp)
	je	.L383
.L343:
	movl	$16, %esi
	movq	%rbp, %rdi
	call	_ZdlPvm@PLT
.L344:
	movq	$0, 112(%rbx)
.L342:
	movq	88(%rbx), %r13
	testq	%r13, %r13
	je	.L345
	movq	0(%r13), %r12
	testq	%r12, %r12
	je	.L346
	movq	56(%r12), %rbp
	testq	%rbp, %rbp
	je	.L348
	.p2align 4,,10
	.p2align 3
.L347:
	movq	0(%rbp), %rax
	movq	%rbp, %rdi
	call	*16(%rax)
	movq	32(%rbp), %rbp
	testq	%rbp, %rbp
	jne	.L347
	movq	56(%r12), %rbp
	testq	%rbp, %rbp
	je	.L348
	.p2align 4,,10
	.p2align 3
.L349:
	movq	%rbp, %rdi
	movq	32(%rbp), %rbp
	movq	(%rdi), %rax
	call	*8(%rax)
	movq	%rbp, 56(%r12)
	testq	%rbp, %rbp
	jne	.L349
.L348:
	leaq	8(%r12), %rdi
	call	pthread_mutex_destroy@PLT
	movl	$64, %esi
	movq	%r12, %rdi
	call	_ZdlPvm@PLT
.L346:
	movl	$16, %esi
	movq	%r13, %rdi
	call	_ZdlPvm@PLT
.L345:
	movq	$0, 88(%rbx)
.L336:
	movq	24(%rsp), %rax
	subq	%fs:40, %rax
	jne	.L384
	addq	$40, %rsp
	.cfi_remember_state
	.cfi_def_cfa_offset 40
	popq	%rbx
	.cfi_def_cfa_offset 32
	popq	%rbp
	.cfi_def_cfa_offset 24
	popq	%r12
	.cfi_def_cfa_offset 16
	popq	%r13
	.cfi_def_cfa_offset 8
	ret
	.p2align 4,,10
	.p2align 3
.L382:
	.cfi_restore_state
	leaq	48(%rbp), %r13
	movq	%r13, %rdi
	call	pthread_mutex_lock@PLT
	movb	$1, 208(%rbp)
	leaq	88(%rbp), %rdi
	orq	$1, 136(%rbp)
	call	pthread_cond_broadcast@PLT
	cmpb	$0, 176(%rbp)
	jne	.L339
	movq	144(%rbp), %rax
	testq	%rax, %rax
	je	.L339
	movb	$1, 176(%rbp)
	leaq	88(%rax), %rdx
	leaq	12(%rsp), %rcx
	movl	$3, %esi
	movq	%rdx, 16(%rsp)
	movl	88(%rax), %edx
	movl	$-2147483639, 12(%rsp)
	movl	96(%rax), %edi
	call	epoll_ctl@PLT
.L339:
	movq	%r13, %rdi
	call	pthread_mutex_unlock@PLT
	jmp	.L338
	.p2align 4,,10
	.p2align 3
.L383:
	movq	0(%rbp), %rdi
	xorl	%esi, %esi
.LEHB2:
	call	pthread_join@PLT
.LEHE2:
	movb	$1, 8(%rbp)
	movq	112(%rbx), %rbp
	testq	%rbp, %rbp
	je	.L344
	cmpb	$0, 8(%rbp)
	jne	.L343
	movq	0(%rbp), %rdi
	call	pthread_detach@PLT
	jmp	.L343
.L384:
	call	__stack_chk_fail@PLT
	.cfi_endproc
.LFE10293:
	.section	.gcc_except_table._ZN4asio2ip16resolver_serviceINS0_3tcpEE16shutdown_serviceEv,"aG",@progbits,_ZN4asio2ip16resolver_serviceINS0_3tcpEE16shutdown_serviceEv,comdat
.LLSDA10293:
	.byte	0xff
	.byte	0xff
	.byte	0x1
	.uleb128 .LLSDACSE10293-.LLSDACSB10293
.LLSDACSB10293:
	.uleb128 .LEHB2-.LFB10293
	.uleb128 .LEHE2-.LEHB2
	.uleb128 0
	.uleb128 0
.LLSDACSE10293:
	.section	.text._ZN4asio2ip16resolver_serviceINS0_3tcpEE16shutdown_serviceEv,"axG",@progbits,_ZN4asio2ip16resolver_serviceINS0_3tcpEE16shutdown_serviceEv,comdat
	.size	_ZN4asio2ip16resolver_serviceINS0_3tcpEE16shutdown_serviceEv, .-_ZN4asio2ip16resolver_serviceINS0_3tcpEE16shutdown_serviceEv
	.section	.text._ZNK4asio6detail15system_category7messageB5cxx11Ei,"axG",@progbits,_ZNK4asio6detail15system_category7messageB5cxx11Ei,comdat
	.align 2
	.p2align 4
	.weak	_ZNK4asio6detail15system_category7messageB5cxx11Ei
	.type	_ZNK4asio6detail15system_category7messageB5cxx11Ei, @function
_ZNK4asio6detail15system_category7messageB5cxx11Ei:
.LFB2389:
	.cfi_startproc
	endbr64
	pushq	%r14
	.cfi_def_cfa_offset 16
	.cfi_offset 14, -16
	pushq	%r13
	.cfi_def_cfa_offset 24
	.cfi_offset 13, -24
	pushq	%r12
	.cfi_def_cfa_offset 32
	.cfi_offset 12, -32
	movq	%rdi, %r12
	pushq	%rbp
	.cfi_def_cfa_offset 40
	.cfi_offset 6, -40
	leaq	16(%rdi), %rbp
	subq	$296, %rsp
	.cfi_def_cfa_offset 336
	movq	%fs:40, %rax
	movq	%rax, 280(%rsp)
	xorl	%eax, %eax
	cmpl	$125, %edx
	je	.L400
	pxor	%xmm0, %xmm0
	movl	%edx, %edi
	leaq	16(%rsp), %rsi
	movl	$256, %edx
	movaps	%xmm0, 16(%rsp)
	movaps	%xmm0, 32(%rsp)
	movaps	%xmm0, 48(%rsp)
	movaps	%xmm0, 64(%rsp)
	movaps	%xmm0, 80(%rsp)
	movaps	%xmm0, 96(%rsp)
	movaps	%xmm0, 112(%rsp)
	movaps	%xmm0, 128(%rsp)
	movaps	%xmm0, 144(%rsp)
	movaps	%xmm0, 160(%rsp)
	movaps	%xmm0, 176(%rsp)
	movaps	%xmm0, 192(%rsp)
	movaps	%xmm0, 208(%rsp)
	movaps	%xmm0, 224(%rsp)
	movaps	%xmm0, 240(%rsp)
	movaps	%xmm0, 256(%rsp)
	call	strerror_r@PLT
	movq	%rbp, (%r12)
	movq	%rax, %r13
	testq	%rax, %rax
	je	.L388
	movq	%rax, %rdi
	call	strlen@PLT
	movq	%rax, 8(%rsp)
	movq	%rax, %r14
	cmpq	$15, %rax
	ja	.L401
	cmpq	$1, %rax
	jne	.L392
	movzbl	0(%r13), %edx
	movb	%dl, 16(%r12)
.L393:
	movq	%rax, 8(%r12)
	movb	$0, 0(%rbp,%rax)
.L385:
	movq	280(%rsp), %rax
	subq	%fs:40, %rax
	jne	.L402
	addq	$296, %rsp
	.cfi_remember_state
	.cfi_def_cfa_offset 40
	movq	%r12, %rax
	popq	%rbp
	.cfi_def_cfa_offset 32
	popq	%r12
	.cfi_def_cfa_offset 24
	popq	%r13
	.cfi_def_cfa_offset 16
	popq	%r14
	.cfi_def_cfa_offset 8
	ret
	.p2align 4,,10
	.p2align 3
.L401:
	.cfi_restore_state
	leaq	8(%rsp), %rsi
	xorl	%edx, %edx
	movq	%r12, %rdi
	call	_ZNSt7__cxx1112basic_stringIcSt11char_traitsIcESaIcEE9_M_createERmm@PLT
	movq	%rax, (%r12)
	movq	%rax, %rbp
	movq	8(%rsp), %rax
	movq	%rax, 16(%r12)
.L391:
	movq	%rbp, %rdi
	movq	%r14, %rdx
	movq	%r13, %rsi
	call	memcpy@PLT
	movq	8(%rsp), %rax
	movq	(%r12), %rbp
	jmp	.L393
	.p2align 4,,10
	.p2align 3
.L400:
	movq	%rbp, (%rdi)
	xorl	%edx, %edx
	leaq	8(%rsp), %rsi
	movq	$18, 8(%rsp)
	call	_ZNSt7__cxx1112basic_stringIcSt11char_traitsIcESaIcEE9_M_createERmm@PLT
	movq	8(%rsp), %rdx
	movdqa	.LC5(%rip), %xmm0
	movq	%rax, (%r12)
	movq	%rdx, 16(%r12)
	movl	$11876, %edx
	movw	%dx, 16(%rax)
	movups	%xmm0, (%rax)
	movq	8(%rsp), %rax
	movq	(%r12), %rdx
	movq	%rax, 8(%r12)
	movb	$0, (%rdx,%rax)
	jmp	.L385
	.p2align 4,,10
	.p2align 3
.L392:
	testq	%rax, %rax
	je	.L393
	jmp	.L391
.L388:
	leaq	.LC4(%rip), %rdi
	call	_ZSt19__throw_logic_errorPKc@PLT
.L402:
	call	__stack_chk_fail@PLT
	.cfi_endproc
.LFE2389:
	.size	_ZNK4asio6detail15system_category7messageB5cxx11Ei, .-_ZNK4asio6detail15system_category7messageB5cxx11Ei
	.section	.text._ZN4asio2ip16resolver_serviceINS0_3tcpEED2Ev,"axG",@progbits,_ZN4asio2ip16resolver_serviceINS0_3tcpEED5Ev,comdat
	.align 2
	.p2align 4
	.weak	_ZN4asio2ip16resolver_serviceINS0_3tcpEED2Ev
	.type	_ZN4asio2ip16resolver_serviceINS0_3tcpEED2Ev, @function
_ZN4asio2ip16resolver_serviceINS0_3tcpEED2Ev:
.LFB10153:
	.cfi_startproc
	.cfi_personality 0x9b,DW.ref.__gxx_personality_v0
	.cfi_lsda 0x1b,.LLSDA10153
	endbr64
	pushq	%r13
	.cfi_def_cfa_offset 16
	.cfi_offset 13, -16
	pushq	%r12
	.cfi_def_cfa_offset 24
	.cfi_offset 12, -24
	pushq	%rbp
	.cfi_def_cfa_offset 32
	.cfi_offset 6, -32
	pushq	%rbx
	.cfi_def_cfa_offset 40
	.cfi_offset 3, -40
	movq	%rdi, %rbx
	subq	$40, %rsp
	.cfi_def_cfa_offset 80
	movq	104(%rdi), %r12
	movq	%fs:40, %rax
	movq	%rax, 24(%rsp)
	movq	_ZTVN4asio2ip16resolver_serviceINS0_3tcpEEE@GOTPCREL(%rip), %rax
	addq	$16, %rax
	movq	%rax, (%rdi)
	testq	%r12, %r12
	je	.L404
	movq	(%r12), %rbp
	lock subq	$1, 184(%rbp)
	je	.L473
.L405:
	movl	$8, %esi
	movq	%r12, %rdi
	call	_ZdlPvm@PLT
.L404:
	movq	88(%rbx), %rax
	movq	$0, 104(%rbx)
	testq	%rax, %rax
	je	.L474
	movq	8(%rax), %rbp
	leaq	48(%rbp), %r12
	movq	%r12, %rdi
	call	pthread_mutex_lock@PLT
	movb	$1, 208(%rbp)
	leaq	88(%rbp), %rdi
	orq	$1, 136(%rbp)
	call	pthread_cond_broadcast@PLT
	cmpb	$0, 176(%rbp)
	jne	.L409
	movq	144(%rbp), %rax
	testq	%rax, %rax
	je	.L409
	movb	$1, 176(%rbp)
	leaq	88(%rax), %rdx
	leaq	12(%rsp), %rcx
	movl	$3, %esi
	movq	%rdx, 16(%rsp)
	movl	88(%rax), %edx
	movl	$-2147483639, 12(%rsp)
	movl	96(%rax), %edi
	call	epoll_ctl@PLT
.L409:
	movq	%r12, %rdi
	call	pthread_mutex_unlock@PLT
	movq	112(%rbx), %rbp
	testq	%rbp, %rbp
	je	.L410
	cmpb	$0, 8(%rbp)
	je	.L475
.L411:
	movl	$16, %esi
	movq	%rbp, %rdi
	call	_ZdlPvm@PLT
.L412:
	movq	88(%rbx), %r13
	movq	$0, 112(%rbx)
	testq	%r13, %r13
	je	.L414
.L413:
	movq	0(%r13), %r12
	testq	%r12, %r12
	je	.L415
	movq	56(%r12), %rbp
	testq	%rbp, %rbp
	je	.L417
	.p2align 4,,10
	.p2align 3
.L416:
	movq	0(%rbp), %rax
	movq	%rbp, %rdi
	call	*16(%rax)
	movq	32(%rbp), %rbp
	testq	%rbp, %rbp
	jne	.L416
	movq	56(%r12), %rbp
	testq	%rbp, %rbp
	je	.L417
	.p2align 4,,10
	.p2align 3
.L418:
	movq	%rbp, %rdi
	movq	32(%rbp), %rbp
	movq	(%rdi), %rax
	call	*8(%rax)
	movq	%rbp, 56(%r12)
	testq	%rbp, %rbp
	jne	.L418
.L417:
	leaq	8(%r12), %rdi
	call	pthread_mutex_destroy@PLT
	movl	$64, %esi
	movq	%r12, %rdi
	call	_ZdlPvm@PLT
.L415:
	movl	$16, %esi
	movq	%r13, %rdi
	call	_ZdlPvm@PLT
	movq	$0, 88(%rbx)
	movq	112(%rbx), %rbp
.L408:
	testq	%rbp, %rbp
	je	.L414
	cmpb	$0, 8(%rbp)
	je	.L476
.L419:
	movl	$16, %esi
	movq	%rbp, %rdi
	call	_ZdlPvm@PLT
.L414:
	movq	104(%rbx), %r12
	testq	%r12, %r12
	je	.L420
	movq	(%r12), %rbp
	lock subq	$1, 184(%rbp)
	je	.L477
.L421:
	movl	$8, %esi
	movq	%r12, %rdi
	call	_ZdlPvm@PLT
.L420:
	movq	88(%rbx), %r13
	testq	%r13, %r13
	je	.L423
	movq	0(%r13), %r12
	testq	%r12, %r12
	je	.L424
	movq	56(%r12), %rbp
	testq	%rbp, %rbp
	je	.L426
	.p2align 4,,10
	.p2align 3
.L425:
	movq	0(%rbp), %rax
	movq	%rbp, %rdi
	call	*16(%rax)
	movq	32(%rbp), %rbp
	testq	%rbp, %rbp
	jne	.L425
	movq	56(%r12), %rbp
	testq	%rbp, %rbp
	je	.L426
	.p2align 4,,10
	.p2align 3
.L427:
	movq	%rbp, %rdi
	movq	32(%rbp), %rbp
	movq	(%rdi), %rax
	call	*8(%rax)
	movq	%rbp, 56(%r12)
	testq	%rbp, %rbp
	jne	.L427
.L426:
	leaq	8(%r12), %rdi
	call	pthread_mutex_destroy@PLT
	movl	$64, %esi
	movq	%r12, %rdi
	call	_ZdlPvm@PLT
.L424:
	movl	$16, %esi
	movq	%r13, %rdi
	call	_ZdlPvm@PLT
.L423:
	movq	24(%rsp), %rax
	subq	%fs:40, %rax
	jne	.L478
	addq	$40, %rsp
	.cfi_remember_state
	.cfi_def_cfa_offset 40
	leaq	48(%rbx), %rdi
	popq	%rbx
	.cfi_def_cfa_offset 32
	popq	%rbp
	.cfi_def_cfa_offset 24
	popq	%r12
	.cfi_def_cfa_offset 16
	popq	%r13
	.cfi_def_cfa_offset 8
	jmp	pthread_mutex_destroy@PLT
	.p2align 4,,10
	.p2align 3
.L474:
	.cfi_restore_state
	movq	112(%rbx), %rbp
	jmp	.L408
	.p2align 4,,10
	.p2align 3
.L476:
	movq	0(%rbp), %rdi
	call	pthread_detach@PLT
	jmp	.L419
	.p2align 4,,10
	.p2align 3
.L473:
	leaq	48(%rbp), %r13
	movq	%r13, %rdi
	call	pthread_mutex_lock@PLT
	movb	$1, 208(%rbp)
	leaq	88(%rbp), %rdi
	orq	$1, 136(%rbp)
	call	pthread_cond_broadcast@PLT
	cmpb	$0, 176(%rbp)
	jne	.L406
	movq	144(%rbp), %rax
	testq	%rax, %rax
	je	.L406
	movb	$1, 176(%rbp)
	leaq	88(%rax), %rdx
	leaq	12(%rsp), %rcx
	movl	$3, %esi
	movq	%rdx, 16(%rsp)
	movl	88(%rax), %edx
	movl	$-2147483639, 12(%rsp)
	movl	96(%rax), %edi
	call	epoll_ctl@PLT
.L406:
	movq	%r13, %rdi
	call	pthread_mutex_unlock@PLT
	jmp	.L405
	.p2align 4,,10
	.p2align 3
.L410:
	movq	88(%rbx), %r13
	testq	%r13, %r13
	jne	.L413
	jmp	.L414
	.p2align 4,,10
	.p2align 3
.L477:
	leaq	48(%rbp), %r13
	movq	%r13, %rdi
	call	pthread_mutex_lock@PLT
	movb	$1, 208(%rbp)
	leaq	88(%rbp), %rdi
	orq	$1, 136(%rbp)
	call	pthread_cond_broadcast@PLT
	cmpb	$0, 176(%rbp)
	jne	.L422
	movq	144(%rbp), %rax
	testq	%rax, %rax
	je	.L422
	movb	$1, 176(%rbp)
	leaq	88(%rax), %rdx
	leaq	12(%rsp), %rcx
	movl	$3, %esi
	movq	%rdx, 16(%rsp)
	movl	88(%rax), %edx
	movl	$-2147483639, 12(%rsp)
	movl	96(%rax), %edi
	call	epoll_ctl@PLT
.L422:
	movq	%r13, %rdi
	call	pthread_mutex_unlock@PLT
	jmp	.L421
	.p2align 4,,10
	.p2align 3
.L475:
	movq	0(%rbp), %rdi
	xorl	%esi, %esi
	call	pthread_join@PLT
	movb	$1, 8(%rbp)
	movq	112(%rbx), %rbp
	testq	%rbp, %rbp
	je	.L412
	cmpb	$0, 8(%rbp)
	jne	.L411
	movq	0(%rbp), %rdi
	call	pthread_detach@PLT
	jmp	.L411
.L478:
	call	__stack_chk_fail@PLT
	.cfi_endproc
.LFE10153:
	.section	.gcc_except_table._ZN4asio2ip16resolver_serviceINS0_3tcpEED2Ev,"aG",@progbits,_ZN4asio2ip16resolver_serviceINS0_3tcpEED5Ev,comdat
.LLSDA10153:
	.byte	0xff
	.byte	0xff
	.byte	0x1
	.uleb128 .LLSDACSE10153-.LLSDACSB10153
.LLSDACSB10153:
.LLSDACSE10153:
	.section	.text._ZN4asio2ip16resolver_serviceINS0_3tcpEED2Ev,"axG",@progbits,_ZN4asio2ip16resolver_serviceINS0_3tcpEED5Ev,comdat
	.size	_ZN4asio2ip16resolver_serviceINS0_3tcpEED2Ev, .-_ZN4asio2ip16resolver_serviceINS0_3tcpEED2Ev
	.weak	_ZN4asio2ip16resolver_serviceINS0_3tcpEED1Ev
	.set	_ZN4asio2ip16resolver_serviceINS0_3tcpEED1Ev,_ZN4asio2ip16resolver_serviceINS0_3tcpEED2Ev
	.section	.text._ZN4asio2ip16resolver_serviceINS0_3tcpEED0Ev,"axG",@progbits,_ZN4asio2ip16resolver_serviceINS0_3tcpEED5Ev,comdat
	.align 2
	.p2align 4
	.weak	_ZN4asio2ip16resolver_serviceINS0_3tcpEED0Ev
	.type	_ZN4asio2ip16resolver_serviceINS0_3tcpEED0Ev, @function
_ZN4asio2ip16resolver_serviceINS0_3tcpEED0Ev:
.LFB10155:
	.cfi_startproc
	.cfi_personality 0x9b,DW.ref.__gxx_personality_v0
	.cfi_lsda 0x1b,.LLSDA10155
	endbr64
	pushq	%r13
	.cfi_def_cfa_offset 16
	.cfi_offset 13, -16
	pushq	%r12
	.cfi_def_cfa_offset 24
	.cfi_offset 12, -24
	pushq	%rbp
	.cfi_def_cfa_offset 32
	.cfi_offset 6, -32
	movq	%rdi, %rbp
	pushq	%rbx
	.cfi_def_cfa_offset 40
	.cfi_offset 3, -40
	subq	$40, %rsp
	.cfi_def_cfa_offset 80
	movq	104(%rdi), %r12
	movq	%fs:40, %rax
	movq	%rax, 24(%rsp)
	movq	_ZTVN4asio2ip16resolver_serviceINS0_3tcpEEE@GOTPCREL(%rip), %rax
	addq	$16, %rax
	movq	%rax, (%rdi)
	testq	%r12, %r12
	je	.L480
	movq	(%r12), %rbx
	lock subq	$1, 184(%rbx)
	je	.L549
.L481:
	movl	$8, %esi
	movq	%r12, %rdi
	call	_ZdlPvm@PLT
.L480:
	movq	88(%rbp), %rax
	movq	$0, 104(%rbp)
	testq	%rax, %rax
	je	.L550
	movq	8(%rax), %rbx
	leaq	48(%rbx), %r12
	movq	%r12, %rdi
	call	pthread_mutex_lock@PLT
	movb	$1, 208(%rbx)
	leaq	88(%rbx), %rdi
	orq	$1, 136(%rbx)
	call	pthread_cond_broadcast@PLT
	cmpb	$0, 176(%rbx)
	jne	.L485
	movq	144(%rbx), %rax
	testq	%rax, %rax
	je	.L485
	movb	$1, 176(%rbx)
	leaq	88(%rax), %rdx
	leaq	12(%rsp), %rcx
	movl	$3, %esi
	movq	%rdx, 16(%rsp)
	movl	88(%rax), %edx
	movl	$-2147483639, 12(%rsp)
	movl	96(%rax), %edi
	call	epoll_ctl@PLT
.L485:
	movq	%r12, %rdi
	call	pthread_mutex_unlock@PLT
	movq	112(%rbp), %r12
	testq	%r12, %r12
	je	.L486
	cmpb	$0, 8(%r12)
	je	.L551
.L487:
	movl	$16, %esi
	movq	%r12, %rdi
	call	_ZdlPvm@PLT
.L488:
	movq	88(%rbp), %r13
	movq	$0, 112(%rbp)
	testq	%r13, %r13
	je	.L490
.L489:
	movq	0(%r13), %r12
	testq	%r12, %r12
	je	.L491
	movq	56(%r12), %rbx
	testq	%rbx, %rbx
	je	.L493
	.p2align 4,,10
	.p2align 3
.L492:
	movq	(%rbx), %rax
	movq	%rbx, %rdi
	call	*16(%rax)
	movq	32(%rbx), %rbx
	testq	%rbx, %rbx
	jne	.L492
	movq	56(%r12), %rbx
	testq	%rbx, %rbx
	je	.L493
	.p2align 4,,10
	.p2align 3
.L494:
	movq	%rbx, %rdi
	movq	32(%rbx), %rbx
	movq	(%rdi), %rax
	call	*8(%rax)
	movq	%rbx, 56(%r12)
	testq	%rbx, %rbx
	jne	.L494
.L493:
	leaq	8(%r12), %rdi
	call	pthread_mutex_destroy@PLT
	movl	$64, %esi
	movq	%r12, %rdi
	call	_ZdlPvm@PLT
.L491:
	movl	$16, %esi
	movq	%r13, %rdi
	call	_ZdlPvm@PLT
	movq	$0, 88(%rbp)
	movq	112(%rbp), %r12
.L484:
	testq	%r12, %r12
	je	.L490
	cmpb	$0, 8(%r12)
	je	.L552
.L495:
	movl	$16, %esi
	movq	%r12, %rdi
	call	_ZdlPvm@PLT
.L490:
	movq	104(%rbp), %r12
	testq	%r12, %r12
	je	.L496
	movq	(%r12), %rbx
	lock subq	$1, 184(%rbx)
	je	.L553
.L497:
	movl	$8, %esi
	movq	%r12, %rdi
	call	_ZdlPvm@PLT
.L496:
	movq	88(%rbp), %r13
	testq	%r13, %r13
	je	.L499
	movq	0(%r13), %r12
	testq	%r12, %r12
	je	.L500
	movq	56(%r12), %rbx
	testq	%rbx, %rbx
	je	.L502
	.p2align 4,,10
	.p2align 3
.L501:
	movq	(%rbx), %rax
	movq	%rbx, %rdi
	call	*16(%rax)
	movq	32(%rbx), %rbx
	testq	%rbx, %rbx
	jne	.L501
	movq	56(%r12), %rbx
	testq	%rbx, %rbx
	je	.L502
	.p2align 4,,10
	.p2align 3
.L503:
	movq	%rbx, %rdi
	movq	32(%rbx), %rbx
	movq	(%rdi), %rax
	call	*8(%rax)
	movq	%rbx, 56(%r12)
	testq	%rbx, %rbx
	jne	.L503
.L502:
	leaq	8(%r12), %rdi
	call	pthread_mutex_destroy@PLT
	movl	$64, %esi
	movq	%r12, %rdi
	call	_ZdlPvm@PLT
.L500:
	movl	$16, %esi
	movq	%r13, %rdi
	call	_ZdlPvm@PLT
.L499:
	leaq	48(%rbp), %rdi
	call	pthread_mutex_destroy@PLT
	movq	24(%rsp), %rax
	subq	%fs:40, %rax
	jne	.L554
	addq	$40, %rsp
	.cfi_remember_state
	.cfi_def_cfa_offset 40
	movq	%rbp, %rdi
	movl	$120, %esi
	popq	%rbx
	.cfi_def_cfa_offset 32
	popq	%rbp
	.cfi_def_cfa_offset 24
	popq	%r12
	.cfi_def_cfa_offset 16
	popq	%r13
	.cfi_def_cfa_offset 8
	jmp	_ZdlPvm@PLT
	.p2align 4,,10
	.p2align 3
.L550:
	.cfi_restore_state
	movq	112(%rbp), %r12
	jmp	.L484
	.p2align 4,,10
	.p2align 3
.L552:
	movq	(%r12), %rdi
	call	pthread_detach@PLT
	jmp	.L495
	.p2align 4,,10
	.p2align 3
.L549:
	leaq	48(%rbx), %r13
	movq	%r13, %rdi
	call	pthread_mutex_lock@PLT
	movb	$1, 208(%rbx)
	leaq	88(%rbx), %rdi
	orq	$1, 136(%rbx)
	call	pthread_cond_broadcast@PLT
	cmpb	$0, 176(%rbx)
	jne	.L482
	movq	144(%rbx), %rax
	testq	%rax, %rax
	je	.L482
	movb	$1, 176(%rbx)
	leaq	88(%rax), %rdx
	leaq	12(%rsp), %rcx
	movl	$3, %esi
	movq	%rdx, 16(%rsp)
	movl	88(%rax), %edx
	movl	$-2147483639, 12(%rsp)
	movl	96(%rax), %edi
	call	epoll_ctl@PLT
.L482:
	movq	%r13, %rdi
	call	pthread_mutex_unlock@PLT
	jmp	.L481
	.p2align 4,,10
	.p2align 3
.L486:
	movq	88(%rbp), %r13
	testq	%r13, %r13
	jne	.L489
	jmp	.L490
	.p2align 4,,10
	.p2align 3
.L553:
	leaq	48(%rbx), %r13
	movq	%r13, %rdi
	call	pthread_mutex_lock@PLT
	movb	$1, 208(%rbx)
	leaq	88(%rbx), %rdi
	orq	$1, 136(%rbx)
	call	pthread_cond_broadcast@PLT
	cmpb	$0, 176(%rbx)
	jne	.L498
	movq	144(%rbx), %rax
	testq	%rax, %rax
	je	.L498
	movb	$1, 176(%rbx)
	leaq	88(%rax), %rdx
	leaq	12(%rsp), %rcx
	movl	$3, %esi
	movq	%rdx, 16(%rsp)
	movl	88(%rax), %edx
	movl	$-2147483639, 12(%rsp)
	movl	96(%rax), %edi
	call	epoll_ctl@PLT
.L498:
	movq	%r13, %rdi
	call	pthread_mutex_unlock@PLT
	jmp	.L497
	.p2align 4,,10
	.p2align 3
.L551:
	movq	(%r12), %rdi
	xorl	%esi, %esi
	call	pthread_join@PLT
	movb	$1, 8(%r12)
	movq	112(%rbp), %r12
	testq	%r12, %r12
	je	.L488
	cmpb	$0, 8(%r12)
	jne	.L487
	movq	(%r12), %rdi
	call	pthread_detach@PLT
	jmp	.L487
.L554:
	call	__stack_chk_fail@PLT
	.cfi_endproc
.LFE10155:
	.section	.gcc_except_table._ZN4asio2ip16resolver_serviceINS0_3tcpEED0Ev,"aG",@progbits,_ZN4asio2ip16resolver_serviceINS0_3tcpEED5Ev,comdat
.LLSDA10155:
	.byte	0xff
	.byte	0xff
	.byte	0x1
	.uleb128 .LLSDACSE10155-.LLSDACSB10155
.LLSDACSB10155:
.LLSDACSE10155:
	.section	.text._ZN4asio2ip16resolver_serviceINS0_3tcpEED0Ev,"axG",@progbits,_ZN4asio2ip16resolver_serviceINS0_3tcpEED5Ev,comdat
	.size	_ZN4asio2ip16resolver_serviceINS0_3tcpEED0Ev, .-_ZN4asio2ip16resolver_serviceINS0_3tcpEED0Ev
	.section	.text._ZNK4asio5error6detail17addrinfo_category7messageB5cxx11Ei,"axG",@progbits,_ZNK4asio5error6detail17addrinfo_category7messageB5cxx11Ei,comdat
	.align 2
	.p2align 4
	.weak	_ZNK4asio5error6detail17addrinfo_category7messageB5cxx11Ei
	.type	_ZNK4asio5error6detail17addrinfo_category7messageB5cxx11Ei, @function
_ZNK4asio5error6detail17addrinfo_category7messageB5cxx11Ei:
.LFB2435:
	.cfi_startproc
	endbr64
	pushq	%r12
	.cfi_def_cfa_offset 16
	.cfi_offset 12, -16
	movq	%rdi, %r12
	subq	$16, %rsp
	.cfi_def_cfa_offset 32
	movq	%fs:40, %rax
	movq	%rax, 8(%rsp)
	xorl	%eax, %eax
	leaq	16(%rdi), %rax
	movq	%rax, (%rdi)
	cmpl	$-8, %edx
	je	.L561
	cmpl	$-7, %edx
	je	.L562
	xorl	%edx, %edx
	movq	%rsp, %rsi
	movq	$19, (%rsp)
	call	_ZNSt7__cxx1112basic_stringIcSt11char_traitsIcESaIcEE9_M_createERmm@PLT
	movq	(%rsp), %rdx
	movdqa	.LC8(%rip), %xmm0
	movq	%rax, (%r12)
	movq	%rdx, 16(%r12)
	movl	$28530, %edx
	movw	%dx, 16(%rax)
	movb	$114, 18(%rax)
	movups	%xmm0, (%rax)
	movq	(%rsp), %rax
	movq	(%r12), %rdx
	movq	%rax, 8(%r12)
	movb	$0, (%rdx,%rax)
.L555:
	movq	8(%rsp), %rax
	subq	%fs:40, %rax
	jne	.L563
	addq	$16, %rsp
	.cfi_remember_state
	.cfi_def_cfa_offset 16
	movq	%r12, %rax
	popq	%r12
	.cfi_def_cfa_offset 8
	ret
	.p2align 4,,10
	.p2align 3
.L562:
	.cfi_restore_state
	xorl	%edx, %edx
	movq	%rsp, %rsi
	movq	$25, (%rsp)
	call	_ZNSt7__cxx1112basic_stringIcSt11char_traitsIcESaIcEE9_M_createERmm@PLT
	movq	(%rsp), %rdx
	movdqa	.LC7(%rip), %xmm0
	movabsq	$7310593918082512243, %rcx
	movq	%rax, (%r12)
	movq	%rdx, 16(%r12)
	movq	%rcx, 16(%rax)
	movb	$100, 24(%rax)
	movups	%xmm0, (%rax)
	movq	(%rsp), %rax
	movq	(%r12), %rdx
	movq	%rax, 8(%r12)
	movb	$0, (%rdx,%rax)
	jmp	.L555
	.p2align 4,,10
	.p2align 3
.L561:
	xorl	%edx, %edx
	movq	%rsp, %rsi
	movq	$17, (%rsp)
	call	_ZNSt7__cxx1112basic_stringIcSt11char_traitsIcESaIcEE9_M_createERmm@PLT
	movq	(%rsp), %rdx
	movdqa	.LC6(%rip), %xmm0
	movq	%rax, (%r12)
	movq	%rdx, 16(%r12)
	movb	$100, 16(%rax)
	movups	%xmm0, (%rax)
	movq	(%rsp), %rax
	movq	(%r12), %rdx
	movq	%rax, 8(%r12)
	movb	$0, (%rdx,%rax)
	jmp	.L555
.L563:
	call	__stack_chk_fail@PLT
	.cfi_endproc
.LFE2435:
	.size	_ZNK4asio5error6detail17addrinfo_category7messageB5cxx11Ei, .-_ZNK4asio5error6detail17addrinfo_category7messageB5cxx11Ei
	.section	.rodata._ZNK4asio5error6detail14netdb_category7messageB5cxx11Ei.str1.8,"aMS",@progbits,1
	.align 8
.LC9:
	.string	"The query is valid, but it does not have associated data"
	.section	.text._ZNK4asio5error6detail14netdb_category7messageB5cxx11Ei,"axG",@progbits,_ZNK4asio5error6detail14netdb_category7messageB5cxx11Ei,comdat
	.align 2
	.p2align 4
	.weak	_ZNK4asio5error6detail14netdb_category7messageB5cxx11Ei
	.type	_ZNK4asio5error6detail14netdb_category7messageB5cxx11Ei, @function
_ZNK4asio5error6detail14netdb_category7messageB5cxx11Ei:
.LFB2429:
	.cfi_startproc
	endbr64
	pushq	%r12
	.cfi_def_cfa_offset 16
	.cfi_offset 12, -16
	movq	%rdi, %r12
	subq	$16, %rsp
	.cfi_def_cfa_offset 32
	movq	%fs:40, %rax
	movq	%rax, 8(%rsp)
	xorl	%eax, %eax
	cmpl	$1, %edx
	je	.L572
	cmpl	$2, %edx
	je	.L573
	cmpl	$4, %edx
	je	.L574
	leaq	16(%rdi), %rax
	movq	%rax, (%rdi)
	cmpl	$3, %edx
	je	.L575
	xorl	%edx, %edx
	movq	%rsp, %rsi
	movq	$16, (%rsp)
	call	_ZNSt7__cxx1112basic_stringIcSt11char_traitsIcESaIcEE9_M_createERmm@PLT
	movq	(%rsp), %rdx
	movdqa	.LC16(%rip), %xmm0
	movq	%rax, (%r12)
	movq	%rdx, 16(%r12)
	movups	%xmm0, (%rax)
	movq	(%rsp), %rax
	movq	(%r12), %rdx
	movq	%rax, 8(%r12)
	movb	$0, (%rdx,%rax)
.L564:
	movq	8(%rsp), %rax
	subq	%fs:40, %rax
	jne	.L576
	addq	$16, %rsp
	.cfi_remember_state
	.cfi_def_cfa_offset 16
	movq	%r12, %rax
	popq	%r12
	.cfi_def_cfa_offset 8
	ret
	.p2align 4,,10
	.p2align 3
.L572:
	.cfi_restore_state
	leaq	16(%rdi), %rax
	movq	%rsp, %rsi
	xorl	%edx, %edx
	movq	$30, (%rsp)
	movq	%rax, (%rdi)
	call	_ZNSt7__cxx1112basic_stringIcSt11char_traitsIcESaIcEE9_M_createERmm@PLT
	movq	(%rsp), %rdx
	movl	$10597, %esi
	movdqa	.LC10(%rip), %xmm0
	movabsq	$8388361603773658465, %rcx
	movq	%rax, (%r12)
	movq	%rdx, 16(%r12)
	movq	%rcx, 16(%rax)
	movl	$1986622561, 24(%rax)
	movw	%si, 28(%rax)
	movups	%xmm0, (%rax)
	movq	(%rsp), %rax
	movq	(%r12), %rdx
	movq	%rax, 8(%r12)
	movb	$0, (%rdx,%rax)
	jmp	.L564
	.p2align 4,,10
	.p2align 3
.L575:
	xorl	%edx, %edx
	movq	%rsp, %rsi
	movq	$55, (%rsp)
	call	_ZNSt7__cxx1112basic_stringIcSt11char_traitsIcESaIcEE9_M_createERmm@PLT
	movq	(%rsp), %rdx
	movdqa	.LC13(%rip), %xmm0
	movq	%rax, (%r12)
	movq	%rdx, 16(%r12)
	movl	$30059, %edx
	movups	%xmm0, (%rax)
	movdqa	.LC14(%rip), %xmm0
	movl	$1869573152, 48(%rax)
	movups	%xmm0, 16(%rax)
	movdqa	.LC15(%rip), %xmm0
	movw	%dx, 52(%rax)
	movb	$112, 54(%rax)
	movups	%xmm0, 32(%rax)
	movq	(%rsp), %rax
	movq	(%r12), %rdx
	movq	%rax, 8(%r12)
	movb	$0, (%rdx,%rax)
	jmp	.L564
	.p2align 4,,10
	.p2align 3
.L573:
	leaq	16(%rdi), %rax
	xorl	%edx, %edx
	movq	%rsp, %rsi
	movq	$51, (%rsp)
	movq	%rax, (%rdi)
	call	_ZNSt7__cxx1112basic_stringIcSt11char_traitsIcESaIcEE9_M_createERmm@PLT
	movq	(%rsp), %rdx
	movl	$25972, %ecx
	movdqa	.LC10(%rip), %xmm0
	movq	%rax, (%r12)
	movq	%rdx, 16(%r12)
	movups	%xmm0, (%rax)
	movdqa	.LC11(%rip), %xmm0
	movw	%cx, 48(%rax)
	movups	%xmm0, 16(%rax)
	movdqa	.LC12(%rip), %xmm0
	movb	$114, 50(%rax)
	movups	%xmm0, 32(%rax)
	movq	(%rsp), %rax
	movq	(%r12), %rdx
	movq	%rax, 8(%r12)
	movb	$0, (%rdx,%rax)
	jmp	.L564
	.p2align 4,,10
	.p2align 3
.L574:
	leaq	.LC9(%rip), %rsi
	call	_ZNSt7__cxx1112basic_stringIcSt11char_traitsIcESaIcEEC2EPKcRKS3_.constprop.0
	jmp	.L564
.L576:
	call	__stack_chk_fail@PLT
	.cfi_endproc
.LFE2429:
	.size	_ZNK4asio5error6detail14netdb_category7messageB5cxx11Ei, .-_ZNK4asio5error6detail14netdb_category7messageB5cxx11Ei
	.section	.rodata._ZNK4asio5error6detail13misc_category7messageB5cxx11Ei.str1.1,"aMS",@progbits,1
.LC17:
	.string	"Element not found"
	.section	.text._ZNK4asio5error6detail13misc_category7messageB5cxx11Ei,"axG",@progbits,_ZNK4asio5error6detail13misc_category7messageB5cxx11Ei,comdat
	.align 2
	.p2align 4
	.weak	_ZNK4asio5error6detail13misc_category7messageB5cxx11Ei
	.type	_ZNK4asio5error6detail13misc_category7messageB5cxx11Ei, @function
_ZNK4asio5error6detail13misc_category7messageB5cxx11Ei:
.LFB2441:
	.cfi_startproc
	endbr64
	pushq	%r12
	.cfi_def_cfa_offset 16
	.cfi_offset 12, -16
	movq	%rdi, %r12
	subq	$16, %rsp
	.cfi_def_cfa_offset 32
	movq	%fs:40, %rax
	movq	%rax, 8(%rsp)
	xorl	%eax, %eax
	cmpl	$1, %edx
	je	.L585
	cmpl	$2, %edx
	je	.L586
	cmpl	$3, %edx
	je	.L587
	leaq	16(%rdi), %rax
	movq	%rax, (%rdi)
	cmpl	$4, %edx
	je	.L588
	movabsq	$8316298233121436513, %rcx
	movl	$28530, %edx
	movq	%rcx, 16(%rdi)
	movl	$1919230051, 8(%rax)
	movw	%dx, 12(%rax)
	movb	$114, 14(%rax)
	movq	$15, 8(%rdi)
	movb	$0, 31(%rdi)
.L577:
	movq	8(%rsp), %rax
	subq	%fs:40, %rax
	jne	.L589
	addq	$16, %rsp
	.cfi_remember_state
	.cfi_def_cfa_offset 16
	movq	%r12, %rax
	popq	%r12
	.cfi_def_cfa_offset 8
	ret
	.p2align 4,,10
	.p2align 3
.L585:
	.cfi_restore_state
	leaq	16(%rdi), %rax
	movl	$1852141679, 24(%rdi)
	movabsq	$2340011850872286273, %rcx
	movq	%rax, (%rdi)
	movq	%rcx, 16(%rdi)
	movq	$12, 8(%rdi)
	movb	$0, 28(%rdi)
	jmp	.L577
	.p2align 4,,10
	.p2align 3
.L588:
	movq	%rsp, %rsi
	xorl	%edx, %edx
	movq	$57, (%rsp)
	call	_ZNSt7__cxx1112basic_stringIcSt11char_traitsIcESaIcEE9_M_createERmm@PLT
	movq	(%rsp), %rdx
	movdqa	.LC18(%rip), %xmm0
	movabsq	$7310291504967217959, %rsi
	movq	%rax, (%r12)
	movq	%rdx, 16(%r12)
	movups	%xmm0, (%rax)
	movdqa	.LC19(%rip), %xmm0
	movq	%rsi, 48(%rax)
	movups	%xmm0, 16(%rax)
	movdqa	.LC20(%rip), %xmm0
	movb	$116, 56(%rax)
	movups	%xmm0, 32(%rax)
	movq	(%rsp), %rax
	movq	(%r12), %rdx
	movq	%rax, 8(%r12)
	movb	$0, (%rdx,%rax)
	jmp	.L577
	.p2align 4,,10
	.p2align 3
.L586:
	movabsq	$7358994418594246213, %rcx
	leaq	16(%rdi), %rax
	movb	$101, 26(%rdi)
	movq	%rcx, 16(%rdi)
	movl	$27753, %ecx
	movq	%rax, (%rdi)
	movw	%cx, 24(%rdi)
	movq	$11, 8(%rdi)
	movb	$0, 27(%rdi)
	jmp	.L577
	.p2align 4,,10
	.p2align 3
.L587:
	leaq	.LC17(%rip), %rsi
	call	_ZNSt7__cxx1112basic_stringIcSt11char_traitsIcESaIcEEC2EPKcRKS3_.constprop.0
	jmp	.L577
.L589:
	call	__stack_chk_fail@PLT
	.cfi_endproc
.LFE2441:
	.size	_ZNK4asio5error6detail13misc_category7messageB5cxx11Ei, .-_ZNK4asio5error6detail13misc_category7messageB5cxx11Ei
	.section	.text._ZN4asio6detail16thread_info_base8allocateEPS1_m,"axG",@progbits,_ZN4asio6detail16thread_info_base8allocateEPS1_m,comdat
	.p2align 4
	.weak	_ZN4asio6detail16thread_info_base8allocateEPS1_m
	.type	_ZN4asio6detail16thread_info_base8allocateEPS1_m, @function
_ZN4asio6detail16thread_info_base8allocateEPS1_m:
.LFB2192:
	.cfi_startproc
	endbr64
	pushq	%rbx
	.cfi_def_cfa_offset 16
	.cfi_offset 3, -16
	movq	%rsi, %rbx
	testq	%rdi, %rdi
	je	.L591
	movq	(%rdi), %rax
	testq	%rax, %rax
	je	.L591
	movq	$0, (%rdi)
	movzbl	(%rax), %ecx
	movq	%rcx, %rdx
	cmpq	%rsi, %rcx
	jb	.L592
	movb	%dl, (%rax,%rbx)
	popq	%rbx
	.cfi_remember_state
	.cfi_def_cfa_offset 8
	ret
	.p2align 4,,10
	.p2align 3
.L592:
	.cfi_restore_state
	movq	%rax, %rdi
	call	_ZdlPv@PLT
.L591:
	leaq	1(%rbx), %rdi
	call	_Znwm@PLT
	xorl	%edx, %edx
	cmpq	$256, %rbx
	cmovb	%rbx, %rdx
	movb	%dl, (%rax,%rbx)
	popq	%rbx
	.cfi_def_cfa_offset 8
	ret
	.cfi_endproc
.LFE2192:
	.size	_ZN4asio6detail16thread_info_base8allocateEPS1_m, .-_ZN4asio6detail16thread_info_base8allocateEPS1_m
	.section	.rodata._ZNSt12system_errorC2ESt10error_codePKc.str1.1,"aMS",@progbits,1
.LC21:
	.string	": "
	.section	.text._ZNSt12system_errorC2ESt10error_codePKc,"axG",@progbits,_ZNSt12system_errorC5ESt10error_codePKc,comdat
	.align 2
	.p2align 4
	.weak	_ZNSt12system_errorC2ESt10error_codePKc
	.type	_ZNSt12system_errorC2ESt10error_codePKc, @function
_ZNSt12system_errorC2ESt10error_codePKc:
.LFB2339:
	.cfi_startproc
	.cfi_personality 0x9b,DW.ref.__gxx_personality_v0
	.cfi_lsda 0x1b,.LLSDA2339
	endbr64
	pushq	%r14
	.cfi_def_cfa_offset 16
	.cfi_offset 14, -16
	movq	%rcx, %r14
	pushq	%r13
	.cfi_def_cfa_offset 24
	.cfi_offset 13, -24
	pushq	%r12
	.cfi_def_cfa_offset 32
	.cfi_offset 12, -32
	movq	%rsi, %r12
	pushq	%rbp
	.cfi_def_cfa_offset 40
	.cfi_offset 6, -40
	movq	%rdx, %rbp
	pushq	%rbx
	.cfi_def_cfa_offset 48
	.cfi_offset 3, -48
	movq	%rdi, %rbx
	subq	$112, %rsp
	.cfi_def_cfa_offset 160
	movq	%fs:40, %rax
	movq	%rax, 104(%rsp)
	xorl	%eax, %eax
	movq	(%rdx), %rax
	leaq	64(%rsp), %r13
	movl	%esi, %edx
	movq	%r13, %rdi
	movq	%rbp, %rsi
.LEHB3:
	call	*32(%rax)
.LEHE3:
	movl	$2, %r8d
	xorl	%edx, %edx
	xorl	%esi, %esi
	leaq	.LC21(%rip), %rcx
	movq	%r13, %rdi
.LEHB4:
	call	_ZNSt7__cxx1112basic_stringIcSt11char_traitsIcESaIcEE10_M_replaceEmmPKcm@PLT
.LEHE4:
	leaq	48(%rsp), %r13
	leaq	16(%rax), %rdx
	movq	%r13, 32(%rsp)
	movq	(%rax), %rcx
	cmpq	%rdx, %rcx
	je	.L624
	movq	%rcx, 32(%rsp)
	movq	16(%rax), %rcx
	movq	%rcx, 48(%rsp)
.L606:
	movq	8(%rax), %rcx
	movb	$0, 16(%rax)
	movq	%r14, %rdi
	movq	%rcx, 40(%rsp)
	movq	%rdx, (%rax)
	movq	$0, 8(%rax)
	call	strlen@PLT
	leaq	32(%rsp), %rdi
	movq	%r14, %rcx
	xorl	%edx, %edx
	movq	%rax, %r8
	xorl	%esi, %esi
.LEHB5:
	call	_ZNSt7__cxx1112basic_stringIcSt11char_traitsIcESaIcEE10_M_replaceEmmPKcm@PLT
.LEHE5:
	leaq	16(%rsp), %r14
	leaq	16(%rax), %rdx
	movq	%r14, (%rsp)
	movq	(%rax), %rcx
	cmpq	%rdx, %rcx
	je	.L625
	movq	%rcx, (%rsp)
	movq	16(%rax), %rcx
	movq	%rcx, 16(%rsp)
.L608:
	movq	8(%rax), %rcx
	movb	$0, 16(%rax)
	movq	%rsp, %rsi
	movq	%rbx, %rdi
	movq	%rcx, 8(%rsp)
	movq	%rdx, (%rax)
	movq	$0, 8(%rax)
.LEHB6:
	call	_ZNSt13runtime_errorC2ERKNSt7__cxx1112basic_stringIcSt11char_traitsIcESaIcEEE@PLT
.LEHE6:
	movq	(%rsp), %rdi
	cmpq	%r14, %rdi
	je	.L609
	movq	16(%rsp), %rax
	leaq	1(%rax), %rsi
	call	_ZdlPvm@PLT
.L609:
	movq	32(%rsp), %rdi
	cmpq	%r13, %rdi
	je	.L610
	movq	48(%rsp), %rax
	leaq	1(%rax), %rsi
	call	_ZdlPvm@PLT
.L610:
	movq	64(%rsp), %rdi
	leaq	80(%rsp), %rax
	cmpq	%rax, %rdi
	je	.L611
	movq	80(%rsp), %rax
	leaq	1(%rax), %rsi
	call	_ZdlPvm@PLT
.L611:
	movq	_ZTVSt12system_error@GOTPCREL(%rip), %rax
	movq	%r12, 16(%rbx)
	movq	%rbp, 24(%rbx)
	addq	$16, %rax
	movq	%rax, (%rbx)
	movq	104(%rsp), %rax
	subq	%fs:40, %rax
	jne	.L626
	addq	$112, %rsp
	.cfi_remember_state
	.cfi_def_cfa_offset 48
	popq	%rbx
	.cfi_def_cfa_offset 40
	popq	%rbp
	.cfi_def_cfa_offset 32
	popq	%r12
	.cfi_def_cfa_offset 24
	popq	%r13
	.cfi_def_cfa_offset 16
	popq	%r14
	.cfi_def_cfa_offset 8
	ret
	.p2align 4,,10
	.p2align 3
.L624:
	.cfi_restore_state
	movdqu	16(%rax), %xmm0
	movaps	%xmm0, 48(%rsp)
	jmp	.L606
	.p2align 4,,10
	.p2align 3
.L625:
	movdqu	16(%rax), %xmm1
	movaps	%xmm1, 16(%rsp)
	jmp	.L608
.L626:
	call	__stack_chk_fail@PLT
.L621:
	endbr64
	movq	%rax, %rbp
	jmp	.L612
.L619:
	endbr64
	movq	%rax, %rbp
	jmp	.L616
.L620:
	endbr64
	movq	%rax, %rbp
	jmp	.L614
.L612:
	movq	(%rsp), %rdi
	cmpq	%r14, %rdi
	je	.L614
	movq	16(%rsp), %rax
	leaq	1(%rax), %rsi
	call	_ZdlPvm@PLT
.L614:
	movq	32(%rsp), %rdi
	cmpq	%r13, %rdi
	je	.L616
	movq	48(%rsp), %rax
	leaq	1(%rax), %rsi
	call	_ZdlPvm@PLT
.L616:
	movq	64(%rsp), %rdi
	leaq	80(%rsp), %rax
	cmpq	%rax, %rdi
	je	.L617
	movq	80(%rsp), %rax
	leaq	1(%rax), %rsi
	call	_ZdlPvm@PLT
.L617:
	movq	%rbp, %rdi
.LEHB7:
	call	_Unwind_Resume@PLT
.LEHE7:
	.cfi_endproc
.LFE2339:
	.section	.gcc_except_table._ZNSt12system_errorC2ESt10error_codePKc,"aG",@progbits,_ZNSt12system_errorC5ESt10error_codePKc,comdat
.LLSDA2339:
	.byte	0xff
	.byte	0xff
	.byte	0x1
	.uleb128 .LLSDACSE2339-.LLSDACSB2339
.LLSDACSB2339:
	.uleb128 .LEHB3-.LFB2339
	.uleb128 .LEHE3-.LEHB3
	.uleb128 0
	.uleb128 0
	.uleb128 .LEHB4-.LFB2339
	.uleb128 .LEHE4-.LEHB4
	.uleb128 .L619-.LFB2339
	.uleb128 0
	.uleb128 .LEHB5-.LFB2339
	.uleb128 .LEHE5-.LEHB5
	.uleb128 .L620-.LFB2339
	.uleb128 0
	.uleb128 .LEHB6-.LFB2339
	.uleb128 .LEHE6-.LEHB6
	.uleb128 .L621-.LFB2339
	.uleb128 0
	.uleb128 .LEHB7-.LFB2339
	.uleb128 .LEHE7-.LEHB7
	.uleb128 0
	.uleb128 0
.LLSDACSE2339:
	.section	.text._ZNSt12system_errorC2ESt10error_codePKc,"axG",@progbits,_ZNSt12system_errorC5ESt10error_codePKc,comdat
	.size	_ZNSt12system_errorC2ESt10error_codePKc, .-_ZNSt12system_errorC2ESt10error_codePKc
	.weak	_ZNSt12system_errorC1ESt10error_codePKc
	.set	_ZNSt12system_errorC1ESt10error_codePKc,_ZNSt12system_errorC2ESt10error_codePKc
	.section	.text._ZN4asio15system_categoryEv,"axG",@progbits,_ZN4asio15system_categoryEv,comdat
	.p2align 4
	.weak	_ZN4asio15system_categoryEv
	.type	_ZN4asio15system_categoryEv, @function
_ZN4asio15system_categoryEv:
.LFB2392:
	.cfi_startproc
	endbr64
	pushq	%r12
	.cfi_def_cfa_offset 16
	.cfi_offset 12, -16
	pushq	%rbp
	.cfi_def_cfa_offset 24
	.cfi_offset 6, -24
	subq	$8, %rsp
	.cfi_def_cfa_offset 32
	movq	_ZGVZN4asio15system_categoryEvE8instance@GOTPCREL(%rip), %rbp
	movzbl	0(%rbp), %eax
	testb	%al, %al
	je	.L628
.L635:
	movq	_ZZN4asio15system_categoryEvE8instance@GOTPCREL(%rip), %r12
	addq	$8, %rsp
	.cfi_remember_state
	.cfi_def_cfa_offset 24
	popq	%rbp
	.cfi_def_cfa_offset 16
	movq	%r12, %rax
	popq	%r12
	.cfi_def_cfa_offset 8
	ret
	.p2align 4,,10
	.p2align 3
.L628:
	.cfi_restore_state
	movq	%rbp, %rdi
	call	__cxa_guard_acquire@PLT
	testl	%eax, %eax
	je	.L635
	movq	_ZZN4asio15system_categoryEvE8instance@GOTPCREL(%rip), %r12
	movq	_ZN4asio6detail15system_categoryD1Ev@GOTPCREL(%rip), %rdi
	leaq	__dso_handle(%rip), %rdx
	movq	%r12, %rsi
	call	__cxa_atexit@PLT
	movq	%rbp, %rdi
	call	__cxa_guard_release@PLT
	addq	$8, %rsp
	.cfi_def_cfa_offset 24
	movq	%r12, %rax
	popq	%rbp
	.cfi_def_cfa_offset 16
	popq	%r12
	.cfi_def_cfa_offset 8
	ret
	.cfi_endproc
.LFE2392:
	.size	_ZN4asio15system_categoryEv, .-_ZN4asio15system_categoryEv
	.section	.text._ZN4asio6detail31reactive_socket_connect_op_base10do_performEPNS0_10reactor_opE,"axG",@progbits,_ZN4asio6detail31reactive_socket_connect_op_base10do_performEPNS0_10reactor_opE,comdat
	.p2align 4
	.weak	_ZN4asio6detail31reactive_socket_connect_op_base10do_performEPNS0_10reactor_opE
	.type	_ZN4asio6detail31reactive_socket_connect_op_base10do_performEPNS0_10reactor_opE, @function
_ZN4asio6detail31reactive_socket_connect_op_base10do_performEPNS0_10reactor_opE:
.LFB3800:
	.cfi_startproc
	endbr64
	pushq	%r12
	.cfi_def_cfa_offset 16
	.cfi_offset 12, -16
	xorl	%edx, %edx
	movl	$1, %esi
	pushq	%rbp
	.cfi_def_cfa_offset 24
	.cfi_offset 6, -24
	pushq	%rbx
	.cfi_def_cfa_offset 32
	.cfi_offset 3, -32
	movq	%rdi, %rbx
	subq	$32, %rsp
	.cfi_def_cfa_offset 64
	movl	56(%rdi), %ebp
	movq	%fs:40, %rax
	movq	%rax, 24(%rsp)
	xorl	%eax, %eax
	leaq	16(%rsp), %rdi
	movl	$4, 20(%rsp)
	movl	%ebp, 16(%rsp)
	call	poll@PLT
	movl	%eax, %r8d
	xorl	%eax, %eax
	testl	%r8d, %r8d
	jne	.L647
.L636:
	movq	24(%rsp), %rdx
	subq	%fs:40, %rdx
	jne	.L648
	addq	$32, %rsp
	.cfi_remember_state
	.cfi_def_cfa_offset 32
	popq	%rbx
	.cfi_def_cfa_offset 24
	popq	%rbp
	.cfi_def_cfa_offset 16
	popq	%r12
	.cfi_def_cfa_offset 8
	ret
	.p2align 4,,10
	.p2align 3
.L647:
	.cfi_restore_state
	movl	$0, 8(%rsp)
	cmpl	$-1, %ebp
	je	.L649
	call	__errno_location@PLT
	movl	$4, %edx
	movl	%ebp, %edi
	leaq	8(%rsp), %rcx
	movl	$0, (%rax)
	leaq	12(%rsp), %r8
	movl	$1, %esi
	movq	%rax, %r12
	movl	$4, 12(%rsp)
	call	getsockopt@PLT
	movl	%eax, %ebp
	call	_ZN4asio15system_categoryEv@PLT
	movl	(%r12), %edx
	movq	%rax, 32(%rbx)
	movl	%edx, 24(%rbx)
	testl	%ebp, %ebp
	jne	.L639
	call	_ZNSt3_V215system_categoryEv@PLT
	movl	$0, 24(%rbx)
	movq	%rax, 32(%rbx)
	movl	8(%rsp), %eax
	testl	%eax, %eax
	jne	.L650
.L639:
	movl	$1, %eax
	jmp	.L636
	.p2align 4,,10
	.p2align 3
.L650:
	call	_ZN4asio15system_categoryEv@PLT
	movl	8(%rsp), %edx
	movq	%rax, 32(%rbx)
	movl	%edx, 24(%rbx)
	jmp	.L639
.L649:
	call	_ZN4asio15system_categoryEv@PLT
	movl	$9, 24(%rbx)
	movq	%rax, 32(%rbx)
	jmp	.L639
.L648:
	call	__stack_chk_fail@PLT
	.cfi_endproc
.LFE3800:
	.size	_ZN4asio6detail31reactive_socket_connect_op_base10do_performEPNS0_10reactor_opE, .-_ZN4asio6detail31reactive_socket_connect_op_base10do_performEPNS0_10reactor_opE
	.text
	.p2align 4
	.type	_ZN4asio6detail10socket_ops5closeEiRhbRSt10error_code.isra.0, @function
_ZN4asio6detail10socket_ops5closeEiRhbRSt10error_code.isra.0:
.LFB10381:
	.cfi_startproc
	pushq	%r14
	.cfi_def_cfa_offset 16
	.cfi_offset 14, -16
	pushq	%r13
	.cfi_def_cfa_offset 24
	.cfi_offset 13, -24
	pushq	%r12
	.cfi_def_cfa_offset 32
	.cfi_offset 12, -32
	pushq	%rbp
	.cfi_def_cfa_offset 40
	.cfi_offset 6, -40
	pushq	%rbx
	.cfi_def_cfa_offset 48
	.cfi_offset 3, -48
	movq	%rcx, %rbx
	subq	$16, %rsp
	.cfi_def_cfa_offset 64
	movq	%fs:40, %rax
	movq	%rax, 8(%rsp)
	xorl	%eax, %eax
	cmpl	$-1, %edi
	je	.L655
	movl	%edi, %ebp
	movq	%rsi, %r12
	movl	%edx, %r14d
	call	__errno_location@PLT
	movq	%rax, %r13
	testb	%r14b, %r14b
	je	.L654
	movzbl	(%r12), %eax
	testb	$8, %al
	jne	.L671
.L654:
	movl	$0, 0(%r13)
	movl	%ebp, %edi
	call	close@PLT
	movl	%eax, %r14d
	call	_ZN4asio15system_categoryEv@PLT
	movl	0(%r13), %edx
	movq	%rax, 8(%rbx)
	movl	%edx, (%rbx)
	testl	%r14d, %r14d
	jne	.L672
.L655:
	call	_ZNSt3_V215system_categoryEv@PLT
	movl	$0, (%rbx)
	movq	%rax, 8(%rbx)
.L651:
	movq	8(%rsp), %rax
	subq	%fs:40, %rax
	jne	.L673
	addq	$16, %rsp
	.cfi_remember_state
	.cfi_def_cfa_offset 48
	popq	%rbx
	.cfi_def_cfa_offset 40
	popq	%rbp
	.cfi_def_cfa_offset 32
	popq	%r12
	.cfi_def_cfa_offset 24
	popq	%r13
	.cfi_def_cfa_offset 16
	popq	%r14
	.cfi_def_cfa_offset 8
	ret
	.p2align 4,,10
	.p2align 3
.L672:
	.cfi_restore_state
	call	_ZN4asio15system_categoryEv@PLT
	cmpq	%rax, 8(%rbx)
	je	.L674
.L656:
	call	_ZN4asio15system_categoryEv@PLT
	cmpq	%rax, 8(%rbx)
	jne	.L651
	cmpl	$11, (%rbx)
	jne	.L651
.L659:
	movq	%rsp, %rdx
	movl	$21537, %esi
	movl	%ebp, %edi
	xorl	%eax, %eax
	movl	$0, (%rsp)
	call	ioctl@PLT
	andb	$-4, (%r12)
	movl	%ebp, %edi
	movl	$0, 0(%r13)
	call	close@PLT
	movl	%eax, %ebp
	call	_ZN4asio15system_categoryEv@PLT
	movl	0(%r13), %edx
	movq	%rax, 8(%rbx)
	movl	%edx, (%rbx)
	testl	%ebp, %ebp
	jne	.L651
	jmp	.L655
	.p2align 4,,10
	.p2align 3
.L671:
	orl	$8, %eax
	movq	%rsp, %rcx
	movl	$8, %r8d
	movl	%ebp, %edi
	movb	%al, (%r12)
	movl	$13, %edx
	movl	$1, %esi
	movl	$0, 0(%r13)
	movq	$0, (%rsp)
	call	setsockopt@PLT
	call	_ZN4asio15system_categoryEv@PLT
	jmp	.L654
	.p2align 4,,10
	.p2align 3
.L674:
	cmpl	$11, (%rbx)
	jne	.L656
	jmp	.L659
.L673:
	call	__stack_chk_fail@PLT
	.cfi_endproc
.LFE10381:
	.size	_ZN4asio6detail10socket_ops5closeEiRhbRSt10error_code.isra.0, .-_ZN4asio6detail10socket_ops5closeEiRhbRSt10error_code.isra.0
	.section	.text._ZN4asio6detail16service_registry14do_use_serviceERKNS_10io_service7service3keyEPFPS3_RS2_E,"axG",@progbits,_ZN4asio6detail16service_registry14do_use_serviceERKNS_10io_service7service3keyEPFPS3_RS2_E,comdat
	.align 2
	.p2align 4
	.weak	_ZN4asio6detail16service_registry14do_use_serviceERKNS_10io_service7service3keyEPFPS3_RS2_E
	.type	_ZN4asio6detail16service_registry14do_use_serviceERKNS_10io_service7service3keyEPFPS3_RS2_E, @function
_ZN4asio6detail16service_registry14do_use_serviceERKNS_10io_service7service3keyEPFPS3_RS2_E:
.LFB2778:
	.cfi_startproc
	endbr64
	pushq	%r15
	.cfi_def_cfa_offset 16
	.cfi_offset 15, -16
	pushq	%r14
	.cfi_def_cfa_offset 24
	.cfi_offset 14, -24
	movq	%rdx, %r14
	pushq	%r13
	.cfi_def_cfa_offset 32
	.cfi_offset 13, -32
	leaq	8(%rdi), %r13
	pushq	%r12
	.cfi_def_cfa_offset 40
	.cfi_offset 12, -40
	pushq	%rbp
	.cfi_def_cfa_offset 48
	.cfi_offset 6, -48
	movq	%rdi, %rbp
	movq	%r13, %rdi
	pushq	%rbx
	.cfi_def_cfa_offset 56
	.cfi_offset 3, -56
	movq	%rsi, %rbx
	subq	$8, %rsp
	.cfi_def_cfa_offset 64
	call	pthread_mutex_lock@PLT
	movq	56(%rbp), %r12
	testq	%r12, %r12
	je	.L676
	.p2align 4,,10
	.p2align 3
.L681:
	movq	16(%r12), %rax
	movq	8(%r12), %rdx
	testq	%rax, %rax
	je	.L677
	movq	8(%rbx), %rcx
	testq	%rcx, %rcx
	je	.L677
	cmpq	%rcx, %rax
	je	.L678
.L677:
	testq	%rdx, %rdx
	je	.L680
	movq	(%rbx), %rax
	testq	%rax, %rax
	je	.L680
	movq	8(%rdx), %rdi
	movq	8(%rax), %rsi
	cmpq	%rsi, %rdi
	je	.L678
	cmpb	$42, (%rdi)
	je	.L680
	call	strcmp@PLT
	testl	%eax, %eax
	jne	.L680
.L678:
	movq	%r13, %rdi
	call	pthread_mutex_unlock@PLT
	addq	$8, %rsp
	.cfi_remember_state
	.cfi_def_cfa_offset 56
	movq	%r12, %rax
	popq	%rbx
	.cfi_def_cfa_offset 48
	popq	%rbp
	.cfi_def_cfa_offset 40
	popq	%r12
	.cfi_def_cfa_offset 32
	popq	%r13
	.cfi_def_cfa_offset 24
	popq	%r14
	.cfi_def_cfa_offset 16
	popq	%r15
	.cfi_def_cfa_offset 8
	ret
	.p2align 4,,10
	.p2align 3
.L680:
	.cfi_restore_state
	movq	32(%r12), %r12
	testq	%r12, %r12
	jne	.L681
.L676:
	movq	%r13, %rdi
	call	pthread_mutex_unlock@PLT
	movq	48(%rbp), %rdi
	call	*%r14
	movdqu	(%rbx), %xmm0
	movq	%r13, %rdi
	movq	%rax, %r15
	movups	%xmm0, 8(%rax)
	call	pthread_mutex_lock@PLT
	movq	56(%rbp), %r14
	testq	%r14, %r14
	je	.L682
	movq	%r14, %r12
	.p2align 4,,10
	.p2align 3
.L687:
	movq	16(%r12), %rax
	movq	8(%r12), %rdx
	testq	%rax, %rax
	je	.L683
	movq	8(%rbx), %rcx
	cmpq	%rcx, %rax
	jne	.L683
	testq	%rcx, %rcx
	jne	.L684
.L683:
	testq	%rdx, %rdx
	je	.L686
	movq	(%rbx), %rax
	testq	%rax, %rax
	je	.L686
	movq	8(%rdx), %rdi
	movq	8(%rax), %rsi
	cmpq	%rsi, %rdi
	je	.L684
	cmpb	$42, (%rdi)
	je	.L686
	call	strcmp@PLT
	testl	%eax, %eax
	jne	.L686
.L684:
	movq	(%r15), %rax
	movq	%r15, %rdi
	call	*8(%rax)
	jmp	.L678
	.p2align 4,,10
	.p2align 3
.L686:
	movq	32(%r12), %r12
	testq	%r12, %r12
	jne	.L687
.L682:
	movq	%r14, 32(%r15)
	movq	%r15, %r12
	movq	%r15, 56(%rbp)
	jmp	.L678
	.cfi_endproc
.LFE2778:
	.size	_ZN4asio6detail16service_registry14do_use_serviceERKNS_10io_service7service3keyEPFPS3_RS2_E, .-_ZN4asio6detail16service_registry14do_use_serviceERKNS_10io_service7service3keyEPFPS3_RS2_E
	.section	.text._ZN4asio6detail13epoll_reactor3runEbRNS0_8op_queueINS0_25task_io_service_operationEEE,"axG",@progbits,_ZN4asio6detail13epoll_reactor3runEbRNS0_8op_queueINS0_25task_io_service_operationEEE,comdat
	.align 2
	.p2align 4
	.weak	_ZN4asio6detail13epoll_reactor3runEbRNS0_8op_queueINS0_25task_io_service_operationEEE
	.type	_ZN4asio6detail13epoll_reactor3runEbRNS0_8op_queueINS0_25task_io_service_operationEEE, @function
_ZN4asio6detail13epoll_reactor3runEbRNS0_8op_queueINS0_25task_io_service_operationEEE:
.LFB3312:
	.cfi_startproc
	.cfi_personality 0x9b,DW.ref.__gxx_personality_v0
	.cfi_lsda 0x1b,.LLSDA3312
	endbr64
	pushq	%r13
	.cfi_def_cfa_offset 16
	.cfi_offset 13, -16
	pushq	%r12
	.cfi_def_cfa_offset 24
	.cfi_offset 12, -24
	movq	%rdi, %r12
	pushq	%rbp
	.cfi_def_cfa_offset 32
	.cfi_offset 6, -32
	movq	%rdx, %rbp
	pushq	%rbx
	.cfi_def_cfa_offset 40
	.cfi_offset 3, -40
	movl	%esi, %ebx
	subq	$1640, %rsp
	.cfi_def_cfa_offset 1680
	movq	%fs:40, %rax
	movq	%rax, 1624(%rsp)
	xorl	%eax, %eax
	cmpl	$-1, 100(%rdi)
	je	.L729
	movzbl	%sil, %esi
	movl	%esi, %ecx
	negl	%ecx
.L730:
	movl	96(%r12), %edi
	leaq	80(%rsp), %rbx
	movl	$128, %edx
	movq	%rbx, %rsi
.LEHB8:
	call	epoll_wait@PLT
.LEHE8:
	cmpl	$-1, 100(%r12)
	sete	%dil
	testl	%eax, %eax
	jle	.L734
	subl	$1, %eax
	leaq	88(%r12), %rsi
	leaq	100(%r12), %r9
	movq	%rbx, %rdx
	leaq	(%rax,%rax,2), %rax
	movl	$1, %r10d
	leaq	92(%rsp,%rax,4), %rcx
	jmp	.L738
	.p2align 4,,10
	.p2align 3
.L735:
	cmpq	%r9, %rax
	je	.L754
	movl	(%rdx), %r8d
	movq	$0, (%rax)
	movl	%r8d, 16(%rax)
	movq	8(%rbp), %r8
	testq	%r8, %r8
	je	.L737
	movq	%rax, (%r8)
	movq	%rax, 8(%rbp)
.L736:
	addq	$12, %rdx
	cmpq	%rcx, %rdx
	je	.L734
.L738:
	movq	4(%rdx), %rax
	movq	%rax, %xmm0
	punpcklqdq	%xmm0, %xmm0
	cmpq	%rsi, %rax
	jne	.L735
	cmpl	$-1, 100(%r12)
	cmove	%r10d, %edi
	addq	$12, %rdx
	cmpq	%rcx, %rdx
	jne	.L738
.L734:
	testb	%dil, %dil
	jne	.L770
.L728:
	movq	1624(%rsp), %rax
	subq	%fs:40, %rax
	jne	.L771
	addq	$1640, %rsp
	.cfi_remember_state
	.cfi_def_cfa_offset 40
	popq	%rbx
	.cfi_def_cfa_offset 32
	popq	%rbp
	.cfi_def_cfa_offset 24
	popq	%r12
	.cfi_def_cfa_offset 16
	popq	%r13
	.cfi_def_cfa_offset 8
	ret
	.p2align 4,,10
	.p2align 3
.L754:
	.cfi_restore_state
	movl	$1, %edi
	jmp	.L736
	.p2align 4,,10
	.p2align 3
.L737:
	movups	%xmm0, 0(%rbp)
	jmp	.L736
	.p2align 4,,10
	.p2align 3
.L770:
	leaq	48(%r12), %r13
	movq	%r13, %rdi
	call	pthread_mutex_lock@PLT
	movq	104(%r12), %rbx
	testq	%rbx, %rbx
	je	.L743
	.p2align 4,,10
	.p2align 3
.L740:
	movq	(%rbx), %rax
	movq	%rbp, %rsi
	movq	%rbx, %rdi
.LEHB9:
	call	*40(%rax)
	movq	8(%rbx), %rbx
	testq	%rbx, %rbx
	jne	.L740
.L743:
	movl	100(%r12), %edi
	cmpl	$-1, %edi
	je	.L742
	movq	104(%r12), %rbx
	pxor	%xmm0, %xmm0
	movaps	%xmm0, 16(%rsp)
	testq	%rbx, %rbx
	je	.L744
	movl	$300000000, %esi
	.p2align 4,,10
	.p2align 3
.L745:
	movq	(%rbx), %rax
	movq	%rbx, %rdi
	call	*32(%rax)
.LEHE9:
	movq	8(%rbx), %rbx
	movq	%rax, %rsi
	testq	%rbx, %rbx
	jne	.L745
	movabsq	$4835703278458516699, %rdx
	xorl	%r8d, %r8d
	movl	100(%r12), %edi
	imulq	%rdx
	movq	%rsi, %rax
	sarq	$63, %rax
	sarq	$18, %rdx
	subq	%rax, %rdx
	testq	%rsi, %rsi
	movl	$1, %eax
	movq	%rdx, 32(%rsp)
	sete	%r8b
	je	.L748
	imulq	$1000000, %rdx, %rdx
	subq	%rdx, %rsi
	imulq	$1000, %rsi, %rax
.L748:
	leaq	48(%rsp), %rcx
	leaq	16(%rsp), %rdx
	movl	%r8d, %esi
	movq	%rax, 40(%rsp)
	call	timerfd_settime@PLT
.L742:
	movq	%r13, %rdi
	call	pthread_mutex_unlock@PLT
	jmp	.L728
	.p2align 4,,10
	.p2align 3
.L729:
	leaq	48(%rdi), %r13
	movq	%r13, %rdi
	call	pthread_mutex_lock@PLT
	testb	%bl, %bl
	je	.L752
	movq	104(%r12), %rbx
	testq	%rbx, %rbx
	je	.L753
	movl	$300000, %esi
	.p2align 4,,10
	.p2align 3
.L733:
	movq	(%rbx), %rax
	movq	%rbx, %rdi
.LEHB10:
	call	*24(%rax)
.LEHE10:
	movq	8(%rbx), %rbx
	movq	%rax, %rsi
	testq	%rbx, %rbx
	jne	.L733
	movl	%eax, %ecx
.L731:
	movq	%r13, %rdi
	movl	%ecx, 12(%rsp)
	call	pthread_mutex_unlock@PLT
	movl	12(%rsp), %ecx
	jmp	.L730
.L752:
	xorl	%ecx, %ecx
	jmp	.L731
.L744:
	movq	$300, 32(%rsp)
	xorl	%r8d, %r8d
	xorl	%eax, %eax
	jmp	.L748
.L753:
	movl	$300000, %ecx
	jmp	.L731
.L771:
	call	__stack_chk_fail@PLT
.L756:
	endbr64
.L769:
	movq	%rax, %rbp
	jmp	.L750
.L757:
	endbr64
	jmp	.L769
.L750:
	movq	%r13, %rdi
	call	pthread_mutex_unlock@PLT
	movq	%rbp, %rdi
.LEHB11:
	call	_Unwind_Resume@PLT
.LEHE11:
	.cfi_endproc
.LFE3312:
	.section	.gcc_except_table._ZN4asio6detail13epoll_reactor3runEbRNS0_8op_queueINS0_25task_io_service_operationEEE,"aG",@progbits,_ZN4asio6detail13epoll_reactor3runEbRNS0_8op_queueINS0_25task_io_service_operationEEE,comdat
.LLSDA3312:
	.byte	0xff
	.byte	0xff
	.byte	0x1
	.uleb128 .LLSDACSE3312-.LLSDACSB3312
.LLSDACSB3312:
	.uleb128 .LEHB8-.LFB3312
	.uleb128 .LEHE8-.LEHB8
	.uleb128 0
	.uleb128 0
	.uleb128 .LEHB9-.LFB3312
	.uleb128 .LEHE9-.LEHB9
	.uleb128 .L757-.LFB3312
	.uleb128 0
	.uleb128 .LEHB10-.LFB3312
	.uleb128 .LEHE10-.LEHB10
	.uleb128 .L756-.LFB3312
	.uleb128 0
	.uleb128 .LEHB11-.LFB3312
	.uleb128 .LEHE11-.LEHB11
	.uleb128 0
	.uleb128 0
.LLSDACSE3312:
	.section	.text._ZN4asio6detail13epoll_reactor3runEbRNS0_8op_queueINS0_25task_io_service_operationEEE,"axG",@progbits,_ZN4asio6detail13epoll_reactor3runEbRNS0_8op_queueINS0_25task_io_service_operationEEE,comdat
	.size	_ZN4asio6detail13epoll_reactor3runEbRNS0_8op_queueINS0_25task_io_service_operationEEE, .-_ZN4asio6detail13epoll_reactor3runEbRNS0_8op_queueINS0_25task_io_service_operationEEE
	.section	.text._ZN4asio6detail15task_io_service12task_cleanupD2Ev,"axG",@progbits,_ZN4asio6detail15task_io_service12task_cleanupD5Ev,comdat
	.align 2
	.p2align 4
	.weak	_ZN4asio6detail15task_io_service12task_cleanupD2Ev
	.type	_ZN4asio6detail15task_io_service12task_cleanupD2Ev, @function
_ZN4asio6detail15task_io_service12task_cleanupD2Ev:
.LFB3335:
	.cfi_startproc
	endbr64
	pushq	%rbp
	.cfi_def_cfa_offset 16
	.cfi_offset 6, -16
	pushq	%rbx
	.cfi_def_cfa_offset 24
	.cfi_offset 3, -24
	movq	%rdi, %rbx
	subq	$8, %rsp
	.cfi_def_cfa_offset 32
	movq	16(%rdi), %rdx
	movq	24(%rdx), %rax
	testq	%rax, %rax
	jle	.L773
	movq	(%rdi), %rdx
	lock addq	%rax, 184(%rdx)
	movq	16(%rdi), %rdx
.L773:
	movq	8(%rbx), %rbp
	movq	$0, 24(%rdx)
	cmpb	$0, 8(%rbp)
	je	.L784
.L774:
	movq	(%rbx), %rax
	movq	8(%rdx), %rcx
	movb	$1, 176(%rax)
	testq	%rcx, %rcx
	je	.L775
	movq	200(%rax), %rsi
	testq	%rsi, %rsi
	je	.L776
	movq	%rcx, (%rsi)
.L777:
	movq	16(%rdx), %rcx
	pxor	%xmm0, %xmm0
	movq	%rcx, 200(%rax)
	movups	%xmm0, 8(%rdx)
.L775:
	leaq	152(%rax), %rdx
	movq	200(%rax), %rcx
	movq	$0, 152(%rax)
	movq	%rdx, %xmm0
	punpcklqdq	%xmm0, %xmm0
	testq	%rcx, %rcx
	je	.L778
	movq	%rdx, (%rcx)
	movq	%rdx, 200(%rax)
	addq	$8, %rsp
	.cfi_remember_state
	.cfi_def_cfa_offset 24
	popq	%rbx
	.cfi_def_cfa_offset 16
	popq	%rbp
	.cfi_def_cfa_offset 8
	ret
	.p2align 4,,10
	.p2align 3
.L776:
	.cfi_restore_state
	movq	%rcx, 192(%rax)
	jmp	.L777
	.p2align 4,,10
	.p2align 3
.L784:
	movq	0(%rbp), %rdi
	call	pthread_mutex_lock@PLT
	movb	$1, 8(%rbp)
	movq	16(%rbx), %rdx
	jmp	.L774
	.p2align 4,,10
	.p2align 3
.L778:
	movups	%xmm0, 192(%rax)
	addq	$8, %rsp
	.cfi_def_cfa_offset 24
	popq	%rbx
	.cfi_def_cfa_offset 16
	popq	%rbp
	.cfi_def_cfa_offset 8
	ret
	.cfi_endproc
.LFE3335:
	.size	_ZN4asio6detail15task_io_service12task_cleanupD2Ev, .-_ZN4asio6detail15task_io_service12task_cleanupD2Ev
	.weak	_ZN4asio6detail15task_io_service12task_cleanupD1Ev
	.set	_ZN4asio6detail15task_io_service12task_cleanupD1Ev,_ZN4asio6detail15task_io_service12task_cleanupD2Ev
	.section	.text._ZN4asio6detail15task_io_service12work_cleanupD2Ev,"axG",@progbits,_ZN4asio6detail15task_io_service12work_cleanupD5Ev,comdat
	.align 2
	.p2align 4
	.weak	_ZN4asio6detail15task_io_service12work_cleanupD2Ev
	.type	_ZN4asio6detail15task_io_service12work_cleanupD2Ev, @function
_ZN4asio6detail15task_io_service12work_cleanupD2Ev:
.LFB3338:
	.cfi_startproc
	endbr64
	pushq	%r12
	.cfi_def_cfa_offset 16
	.cfi_offset 12, -16
	pushq	%rbp
	.cfi_def_cfa_offset 24
	.cfi_offset 6, -24
	pushq	%rbx
	.cfi_def_cfa_offset 32
	.cfi_offset 3, -32
	movq	%rdi, %rbx
	subq	$32, %rsp
	.cfi_def_cfa_offset 64
	movq	%fs:40, %rax
	movq	%rax, 24(%rsp)
	movq	16(%rdi), %rax
	movq	24(%rax), %rdx
	cmpq	$1, %rdx
	jg	.L809
	jne	.L810
.L787:
	movq	8(%rax), %rdx
	movq	$0, 24(%rax)
	testq	%rdx, %rdx
	je	.L785
	movq	8(%rbx), %rbp
	cmpb	$0, 8(%rbp)
	je	.L811
	movq	(%rbx), %rcx
.L796:
	movq	200(%rcx), %rsi
	testq	%rsi, %rsi
	je	.L794
	movq	%rdx, (%rsi)
.L795:
	movq	16(%rax), %rdx
	pxor	%xmm0, %xmm0
	movq	%rdx, 200(%rcx)
	movups	%xmm0, 8(%rax)
.L785:
	movq	24(%rsp), %rax
	subq	%fs:40, %rax
	jne	.L812
	addq	$32, %rsp
	.cfi_remember_state
	.cfi_def_cfa_offset 32
	popq	%rbx
	.cfi_def_cfa_offset 24
	popq	%rbp
	.cfi_def_cfa_offset 16
	popq	%r12
	.cfi_def_cfa_offset 8
	ret
	.p2align 4,,10
	.p2align 3
.L810:
	.cfi_restore_state
	movq	(%rdi), %rbp
	lock subq	$1, 184(%rbp)
	je	.L788
.L808:
	movq	16(%rbx), %rax
	jmp	.L787
	.p2align 4,,10
	.p2align 3
.L811:
	movq	0(%rbp), %rdi
	call	pthread_mutex_lock@PLT
	movq	16(%rbx), %rax
	movq	(%rbx), %rcx
	movb	$1, 8(%rbp)
	movq	8(%rax), %rdx
	testq	%rdx, %rdx
	je	.L785
	jmp	.L796
	.p2align 4,,10
	.p2align 3
.L809:
	movq	(%rdi), %rax
	subq	$1, %rdx
	lock addq	%rdx, 184(%rax)
	movq	16(%rdi), %rax
	jmp	.L787
	.p2align 4,,10
	.p2align 3
.L788:
	leaq	48(%rbp), %r12
	movq	%r12, %rdi
	call	pthread_mutex_lock@PLT
	movb	$1, 208(%rbp)
	leaq	88(%rbp), %rdi
	orq	$1, 136(%rbp)
	call	pthread_cond_broadcast@PLT
	cmpb	$0, 176(%rbp)
	jne	.L789
	movq	144(%rbp), %rax
	testq	%rax, %rax
	je	.L789
	leaq	88(%rax), %rdx
	movb	$1, 176(%rbp)
	movl	96(%rax), %edi
	leaq	12(%rsp), %rcx
	movq	%rdx, 16(%rsp)
	movl	88(%rax), %edx
	movl	$3, %esi
	movl	$-2147483639, 12(%rsp)
	call	epoll_ctl@PLT
.L789:
	movq	%r12, %rdi
	call	pthread_mutex_unlock@PLT
	jmp	.L808
	.p2align 4,,10
	.p2align 3
.L794:
	movq	%rdx, 192(%rcx)
	jmp	.L795
.L812:
	call	__stack_chk_fail@PLT
	.cfi_endproc
.LFE3338:
	.size	_ZN4asio6detail15task_io_service12work_cleanupD2Ev, .-_ZN4asio6detail15task_io_service12work_cleanupD2Ev
	.weak	_ZN4asio6detail15task_io_service12work_cleanupD1Ev
	.set	_ZN4asio6detail15task_io_service12work_cleanupD1Ev,_ZN4asio6detail15task_io_service12work_cleanupD2Ev
	.section	.text._ZN4asio6detail27task_io_service_thread_infoD2Ev,"axG",@progbits,_ZN4asio6detail27task_io_service_thread_infoD5Ev,comdat
	.align 2
	.p2align 4
	.weak	_ZN4asio6detail27task_io_service_thread_infoD2Ev
	.type	_ZN4asio6detail27task_io_service_thread_infoD2Ev, @function
_ZN4asio6detail27task_io_service_thread_infoD2Ev:
.LFB3357:
	.cfi_startproc
	.cfi_personality 0x9b,DW.ref.__gxx_personality_v0
	.cfi_lsda 0x1b,.LLSDA3357
	endbr64
	pushq	%r12
	.cfi_def_cfa_offset 16
	.cfi_offset 12, -16
	pushq	%rbp
	.cfi_def_cfa_offset 24
	.cfi_offset 6, -24
	pushq	%rbx
	.cfi_def_cfa_offset 32
	.cfi_offset 3, -32
	movq	%rdi, %rbx
	subq	$48, %rsp
	.cfi_def_cfa_offset 80
	movq	8(%rdi), %rsi
	movq	%fs:40, %rax
	movq	%rax, 40(%rsp)
	xorl	%eax, %eax
	testq	%rsi, %rsi
	movq	%rsi, 8(%rsp)
	je	.L814
	call	_ZNSt3_V215system_categoryEv@PLT
	leaq	16(%rsp), %r12
	movq	8(%rsp), %rsi
	movq	%rax, %rbp
	jmp	.L817
	.p2align 4,,10
	.p2align 3
.L815:
	movq	$0, (%rsi)
	movq	8(%rsi), %rax
	xorl	%ecx, %ecx
	movq	%r12, %rdx
	movl	$0, 16(%rsp)
	xorl	%edi, %edi
	movq	%rbp, 24(%rsp)
	call	*%rax
	movq	8(%rbx), %rsi
	testq	%rsi, %rsi
	je	.L814
.L817:
	movq	(%rsi), %rax
	movq	%rax, 8(%rbx)
	testq	%rax, %rax
	jne	.L815
	movq	$0, 16(%rbx)
	jmp	.L815
	.p2align 4,,10
	.p2align 3
.L814:
	movq	(%rbx), %rdi
	testq	%rdi, %rdi
	je	.L813
	movq	40(%rsp), %rax
	subq	%fs:40, %rax
	jne	.L832
	addq	$48, %rsp
	.cfi_remember_state
	.cfi_def_cfa_offset 32
	popq	%rbx
	.cfi_def_cfa_offset 24
	popq	%rbp
	.cfi_def_cfa_offset 16
	popq	%r12
	.cfi_def_cfa_offset 8
	jmp	_ZdlPv@PLT
	.p2align 4,,10
	.p2align 3
.L813:
	.cfi_restore_state
	movq	40(%rsp), %rax
	subq	%fs:40, %rax
	jne	.L832
	addq	$48, %rsp
	.cfi_remember_state
	.cfi_def_cfa_offset 32
	popq	%rbx
	.cfi_def_cfa_offset 24
	popq	%rbp
	.cfi_def_cfa_offset 16
	popq	%r12
	.cfi_def_cfa_offset 8
	ret
.L832:
	.cfi_restore_state
	call	__stack_chk_fail@PLT
	.cfi_endproc
.LFE3357:
	.section	.gcc_except_table._ZN4asio6detail27task_io_service_thread_infoD2Ev,"aG",@progbits,_ZN4asio6detail27task_io_service_thread_infoD5Ev,comdat
.LLSDA3357:
	.byte	0xff
	.byte	0xff
	.byte	0x1
	.uleb128 .LLSDACSE3357-.LLSDACSB3357
.LLSDACSB3357:
.LLSDACSE3357:
	.section	.text._ZN4asio6detail27task_io_service_thread_infoD2Ev,"axG",@progbits,_ZN4asio6detail27task_io_service_thread_infoD5Ev,comdat
	.size	_ZN4asio6detail27task_io_service_thread_infoD2Ev, .-_ZN4asio6detail27task_io_service_thread_infoD2Ev
	.weak	_ZN4asio6detail27task_io_service_thread_infoD1Ev
	.set	_ZN4asio6detail27task_io_service_thread_infoD1Ev,_ZN4asio6detail27task_io_service_thread_infoD2Ev
	.section	.text._ZN4asio6detail15task_io_service25post_immediate_completionEPNS0_25task_io_service_operationEb,"axG",@progbits,_ZN4asio6detail15task_io_service25post_immediate_completionEPNS0_25task_io_service_operationEb,comdat
	.align 2
	.p2align 4
	.weak	_ZN4asio6detail15task_io_service25post_immediate_completionEPNS0_25task_io_service_operationEb
	.type	_ZN4asio6detail15task_io_service25post_immediate_completionEPNS0_25task_io_service_operationEb, @function
_ZN4asio6detail15task_io_service25post_immediate_completionEPNS0_25task_io_service_operationEb:
.LFB3365:
	.cfi_startproc
	endbr64
	pushq	%r12
	.cfi_def_cfa_offset 16
	.cfi_offset 12, -16
	movq	%rsi, %xmm0
	pushq	%rbp
	.cfi_def_cfa_offset 24
	.cfi_offset 6, -24
	punpcklqdq	%xmm0, %xmm0
	movq	%rsi, %rbp
	pushq	%rbx
	.cfi_def_cfa_offset 32
	.cfi_offset 3, -32
	movq	%rdi, %rbx
	subq	$48, %rsp
	.cfi_def_cfa_offset 80
	movq	%fs:40, %rax
	movq	%rax, 40(%rsp)
	xorl	%eax, %eax
	cmpb	$0, 40(%rdi)
	movaps	%xmm0, (%rsp)
	jne	.L848
	testb	%dl, %dl
	je	.L834
.L848:
	data16	leaq	_ZN4asio6detail15keyword_tss_ptrINS0_10call_stackINS0_15task_io_serviceENS0_27task_io_service_thread_infoEE7contextEE6value_E@tlsgd(%rip), %rdi
	.value	0x6666
	rex64
	call	__tls_get_addr@PLT
	movq	(%rax), %rax
	testq	%rax, %rax
	jne	.L838
	jmp	.L834
	.p2align 4,,10
	.p2align 3
.L836:
	movq	16(%rax), %rax
	testq	%rax, %rax
	je	.L834
.L838:
	cmpq	(%rax), %rbx
	jne	.L836
	movq	8(%rax), %rax
	testq	%rax, %rax
	je	.L834
	addq	$1, 24(%rax)
	movq	$0, 0(%rbp)
	movq	16(%rax), %rdx
	testq	%rdx, %rdx
	je	.L839
	movq	%rbp, (%rdx)
	movq	%rbp, 16(%rax)
.L833:
	movq	40(%rsp), %rax
	subq	%fs:40, %rax
	jne	.L858
	addq	$48, %rsp
	.cfi_remember_state
	.cfi_def_cfa_offset 32
	popq	%rbx
	.cfi_def_cfa_offset 24
	popq	%rbp
	.cfi_def_cfa_offset 16
	popq	%r12
	.cfi_def_cfa_offset 8
	ret
	.p2align 4,,10
	.p2align 3
.L834:
	.cfi_restore_state
	lock addq	$1, 184(%rbx)
	leaq	48(%rbx), %r12
	movq	%r12, %rdi
	call	pthread_mutex_lock@PLT
	cmpq	$0, 200(%rbx)
	movq	$0, 0(%rbp)
	je	.L841
	movq	200(%rbx), %rax
	movq	%rbp, (%rax)
	movq	%rbp, 200(%rbx)
.L842:
	movq	136(%rbx), %rax
	orq	$1, %rax
	movq	%rax, 136(%rbx)
	cmpq	$1, %rax
	je	.L843
	movq	%r12, %rdi
	call	pthread_mutex_unlock@PLT
	movq	40(%rsp), %rax
	subq	%fs:40, %rax
	jne	.L858
	addq	$48, %rsp
	.cfi_remember_state
	.cfi_def_cfa_offset 32
	leaq	88(%rbx), %rdi
	popq	%rbx
	.cfi_def_cfa_offset 24
	popq	%rbp
	.cfi_def_cfa_offset 16
	popq	%r12
	.cfi_def_cfa_offset 8
	jmp	pthread_cond_signal@PLT
	.p2align 4,,10
	.p2align 3
.L843:
	.cfi_restore_state
	cmpb	$0, 176(%rbx)
	jne	.L845
	movq	144(%rbx), %rax
	testq	%rax, %rax
	je	.L845
	leaq	88(%rax), %rdx
	movb	$1, 176(%rbx)
	movl	96(%rax), %edi
	leaq	28(%rsp), %rcx
	movq	%rdx, 32(%rsp)
	movl	88(%rax), %edx
	movl	$3, %esi
	movl	$-2147483639, 28(%rsp)
	call	epoll_ctl@PLT
.L845:
	movq	40(%rsp), %rax
	subq	%fs:40, %rax
	jne	.L858
	addq	$48, %rsp
	.cfi_remember_state
	.cfi_def_cfa_offset 32
	movq	%r12, %rdi
	popq	%rbx
	.cfi_def_cfa_offset 24
	popq	%rbp
	.cfi_def_cfa_offset 16
	popq	%r12
	.cfi_def_cfa_offset 8
	jmp	pthread_mutex_unlock@PLT
	.p2align 4,,10
	.p2align 3
.L841:
	.cfi_restore_state
	movdqa	(%rsp), %xmm1
	movups	%xmm1, 192(%rbx)
	jmp	.L842
	.p2align 4,,10
	.p2align 3
.L839:
	movdqa	(%rsp), %xmm2
	movups	%xmm2, 8(%rax)
	jmp	.L833
.L858:
	call	__stack_chk_fail@PLT
	.cfi_endproc
.LFE3365:
	.size	_ZN4asio6detail15task_io_service25post_immediate_completionEPNS0_25task_io_service_operationEb, .-_ZN4asio6detail15task_io_service25post_immediate_completionEPNS0_25task_io_service_operationEb
	.section	.text._ZN4asio6detail15task_io_service25post_deferred_completionsERNS0_8op_queueINS0_25task_io_service_operationEEE,"axG",@progbits,_ZN4asio6detail15task_io_service25post_deferred_completionsERNS0_8op_queueINS0_25task_io_service_operationEEE,comdat
	.align 2
	.p2align 4
	.weak	_ZN4asio6detail15task_io_service25post_deferred_completionsERNS0_8op_queueINS0_25task_io_service_operationEEE
	.type	_ZN4asio6detail15task_io_service25post_deferred_completionsERNS0_8op_queueINS0_25task_io_service_operationEEE, @function
_ZN4asio6detail15task_io_service25post_deferred_completionsERNS0_8op_queueINS0_25task_io_service_operationEEE:
.LFB3367:
	.cfi_startproc
	endbr64
	pushq	%r12
	.cfi_def_cfa_offset 16
	.cfi_offset 12, -16
	pushq	%rbp
	.cfi_def_cfa_offset 24
	.cfi_offset 6, -24
	pushq	%rbx
	.cfi_def_cfa_offset 32
	.cfi_offset 3, -32
	subq	$32, %rsp
	.cfi_def_cfa_offset 64
	movq	(%rsi), %r12
	movq	%fs:40, %rax
	movq	%rax, 24(%rsp)
	xorl	%eax, %eax
	testq	%r12, %r12
	je	.L859
	cmpb	$0, 40(%rdi)
	movq	%rdi, %rbx
	movq	%rsi, %rbp
	je	.L861
	data16	leaq	_ZN4asio6detail15keyword_tss_ptrINS0_10call_stackINS0_15task_io_serviceENS0_27task_io_service_thread_infoEE7contextEE6value_E@tlsgd(%rip), %rdi
	.value	0x6666
	rex64
	call	__tls_get_addr@PLT
	movq	(%rax), %rax
	testq	%rax, %rax
	jne	.L864
	jmp	.L861
	.p2align 4,,10
	.p2align 3
.L862:
	movq	16(%rax), %rax
	testq	%rax, %rax
	je	.L861
.L864:
	cmpq	(%rax), %rbx
	jne	.L862
	movq	8(%rax), %rax
	testq	%rax, %rax
	je	.L861
	movq	16(%rax), %rdx
	testq	%rdx, %rdx
	je	.L865
	movq	%r12, (%rdx)
.L866:
	movq	8(%rbp), %rdx
	pxor	%xmm0, %xmm0
	movq	%rdx, 16(%rax)
	movups	%xmm0, 0(%rbp)
.L859:
	movq	24(%rsp), %rax
	subq	%fs:40, %rax
	jne	.L890
	addq	$32, %rsp
	.cfi_remember_state
	.cfi_def_cfa_offset 32
	popq	%rbx
	.cfi_def_cfa_offset 24
	popq	%rbp
	.cfi_def_cfa_offset 16
	popq	%r12
	.cfi_def_cfa_offset 8
	ret
	.p2align 4,,10
	.p2align 3
.L861:
	.cfi_restore_state
	leaq	48(%rbx), %r12
	movq	%r12, %rdi
	call	pthread_mutex_lock@PLT
	movq	0(%rbp), %rax
	testq	%rax, %rax
	je	.L867
	movq	200(%rbx), %rdx
	testq	%rdx, %rdx
	je	.L868
	movq	%rax, (%rdx)
.L869:
	movq	8(%rbp), %rax
	pxor	%xmm0, %xmm0
	movq	%rax, 200(%rbx)
	movups	%xmm0, 0(%rbp)
.L867:
	movq	136(%rbx), %rax
	orq	$1, %rax
	movq	%rax, 136(%rbx)
	cmpq	$1, %rax
	je	.L870
	movq	%r12, %rdi
	call	pthread_mutex_unlock@PLT
	movq	24(%rsp), %rax
	subq	%fs:40, %rax
	jne	.L890
	addq	$32, %rsp
	.cfi_remember_state
	.cfi_def_cfa_offset 32
	leaq	88(%rbx), %rdi
	popq	%rbx
	.cfi_def_cfa_offset 24
	popq	%rbp
	.cfi_def_cfa_offset 16
	popq	%r12
	.cfi_def_cfa_offset 8
	jmp	pthread_cond_signal@PLT
	.p2align 4,,10
	.p2align 3
.L870:
	.cfi_restore_state
	cmpb	$0, 176(%rbx)
	jne	.L872
	movq	144(%rbx), %rax
	testq	%rax, %rax
	je	.L872
	leaq	88(%rax), %rdx
	movb	$1, 176(%rbx)
	movl	96(%rax), %edi
	leaq	12(%rsp), %rcx
	movq	%rdx, 16(%rsp)
	movl	88(%rax), %edx
	movl	$3, %esi
	movl	$-2147483639, 12(%rsp)
	call	epoll_ctl@PLT
.L872:
	movq	24(%rsp), %rax
	subq	%fs:40, %rax
	jne	.L890
	addq	$32, %rsp
	.cfi_remember_state
	.cfi_def_cfa_offset 32
	movq	%r12, %rdi
	popq	%rbx
	.cfi_def_cfa_offset 24
	popq	%rbp
	.cfi_def_cfa_offset 16
	popq	%r12
	.cfi_def_cfa_offset 8
	jmp	pthread_mutex_unlock@PLT
	.p2align 4,,10
	.p2align 3
.L865:
	.cfi_restore_state
	movq	%r12, 8(%rax)
	jmp	.L866
	.p2align 4,,10
	.p2align 3
.L868:
	movq	%rax, 192(%rbx)
	jmp	.L869
.L890:
	call	__stack_chk_fail@PLT
	.cfi_endproc
.LFE3367:
	.size	_ZN4asio6detail15task_io_service25post_deferred_completionsERNS0_8op_queueINS0_25task_io_service_operationEEE, .-_ZN4asio6detail15task_io_service25post_deferred_completionsERNS0_8op_queueINS0_25task_io_service_operationEEE
	.section	.text._ZN4asio6detail15task_io_service26wake_one_thread_and_unlockERNS0_11scoped_lockINS0_11posix_mutexEEE,"axG",@progbits,_ZN4asio6detail15task_io_service26wake_one_thread_and_unlockERNS0_11scoped_lockINS0_11posix_mutexEEE,comdat
	.align 2
	.p2align 4
	.weak	_ZN4asio6detail15task_io_service26wake_one_thread_and_unlockERNS0_11scoped_lockINS0_11posix_mutexEEE
	.type	_ZN4asio6detail15task_io_service26wake_one_thread_and_unlockERNS0_11scoped_lockINS0_11posix_mutexEEE, @function
_ZN4asio6detail15task_io_service26wake_one_thread_and_unlockERNS0_11scoped_lockINS0_11posix_mutexEEE:
.LFB3373:
	.cfi_startproc
	endbr64
	pushq	%rbp
	.cfi_def_cfa_offset 16
	.cfi_offset 6, -16
	movq	%rsi, %rbp
	pushq	%rbx
	.cfi_def_cfa_offset 24
	.cfi_offset 3, -24
	movq	%rdi, %rbx
	subq	$40, %rsp
	.cfi_def_cfa_offset 64
	movq	%fs:40, %rax
	movq	%rax, 24(%rsp)
	movq	136(%rdi), %rax
	orq	$1, %rax
	movq	%rax, 136(%rdi)
	cmpq	$1, %rax
	je	.L892
	cmpb	$0, 8(%rsi)
	jne	.L903
.L893:
	movq	24(%rsp), %rax
	subq	%fs:40, %rax
	jne	.L902
	addq	$40, %rsp
	.cfi_remember_state
	.cfi_def_cfa_offset 24
	leaq	88(%rbx), %rdi
	popq	%rbx
	.cfi_def_cfa_offset 16
	popq	%rbp
	.cfi_def_cfa_offset 8
	jmp	pthread_cond_signal@PLT
	.p2align 4,,10
	.p2align 3
.L892:
	.cfi_restore_state
	cmpb	$0, 176(%rdi)
	jne	.L895
	movq	144(%rdi), %rax
	testq	%rax, %rax
	je	.L895
	leaq	88(%rax), %rdx
	leaq	12(%rsp), %rcx
	movb	$1, 176(%rdi)
	movl	96(%rax), %edi
	movq	%rdx, 16(%rsp)
	movl	88(%rax), %edx
	movl	$3, %esi
	movl	$-2147483639, 12(%rsp)
	call	epoll_ctl@PLT
.L895:
	cmpb	$0, 8(%rbp)
	jne	.L904
.L891:
	movq	24(%rsp), %rax
	subq	%fs:40, %rax
	jne	.L902
	addq	$40, %rsp
	.cfi_remember_state
	.cfi_def_cfa_offset 24
	popq	%rbx
	.cfi_def_cfa_offset 16
	popq	%rbp
	.cfi_def_cfa_offset 8
	ret
	.p2align 4,,10
	.p2align 3
.L904:
	.cfi_restore_state
	movq	0(%rbp), %rdi
	call	pthread_mutex_unlock@PLT
	movb	$0, 8(%rbp)
	jmp	.L891
	.p2align 4,,10
	.p2align 3
.L903:
	movq	(%rsi), %rdi
	call	pthread_mutex_unlock@PLT
	movb	$0, 8(%rbp)
	jmp	.L893
.L902:
	call	__stack_chk_fail@PLT
	.cfi_endproc
.LFE3373:
	.size	_ZN4asio6detail15task_io_service26wake_one_thread_and_unlockERNS0_11scoped_lockINS0_11posix_mutexEEE, .-_ZN4asio6detail15task_io_service26wake_one_thread_and_unlockERNS0_11scoped_lockINS0_11posix_mutexEEE
	.section	.text._ZN4asio6detail13epoll_reactor32perform_io_cleanup_on_block_exitD2Ev,"axG",@progbits,_ZN4asio6detail13epoll_reactor32perform_io_cleanup_on_block_exitD5Ev,comdat
	.align 2
	.p2align 4
	.weak	_ZN4asio6detail13epoll_reactor32perform_io_cleanup_on_block_exitD2Ev
	.type	_ZN4asio6detail13epoll_reactor32perform_io_cleanup_on_block_exitD2Ev, @function
_ZN4asio6detail13epoll_reactor32perform_io_cleanup_on_block_exitD2Ev:
.LFB3327:
	.cfi_startproc
	.cfi_personality 0x9b,DW.ref.__gxx_personality_v0
	.cfi_lsda 0x1b,.LLSDA3327
	endbr64
	pushq	%r12
	.cfi_def_cfa_offset 16
	.cfi_offset 12, -16
	pushq	%rbp
	.cfi_def_cfa_offset 24
	.cfi_offset 6, -24
	pushq	%rbx
	.cfi_def_cfa_offset 32
	.cfi_offset 3, -32
	movq	%rdi, %rbx
	subq	$48, %rsp
	.cfi_def_cfa_offset 80
	movq	%fs:40, %rax
	movq	%rax, 40(%rsp)
	xorl	%eax, %eax
	cmpq	$0, 24(%rdi)
	je	.L906
	movq	8(%rdi), %r12
	testq	%r12, %r12
	je	.L905
	movq	(%rdi), %rax
	movq	40(%rax), %rbp
	cmpb	$0, 40(%rbp)
	je	.L908
	data16	leaq	_ZN4asio6detail15keyword_tss_ptrINS0_10call_stackINS0_15task_io_serviceENS0_27task_io_service_thread_infoEE7contextEE6value_E@tlsgd(%rip), %rdi
	.value	0x6666
	rex64
	call	__tls_get_addr@PLT
	movq	(%rax), %rax
	testq	%rax, %rax
	jne	.L911
	.p2align 4,,10
	.p2align 3
.L908:
	leaq	48(%rbp), %rdi
	movq	%rdi, 16(%rsp)
	call	pthread_mutex_lock@PLT
	movq	8(%rbx), %rax
	movb	$1, 24(%rsp)
	testq	%rax, %rax
	je	.L914
	movq	200(%rbp), %rdx
	testq	%rdx, %rdx
	je	.L915
	movq	%rax, (%rdx)
.L916:
	movq	16(%rbx), %rax
	pxor	%xmm0, %xmm0
	movq	%rax, 200(%rbp)
	movups	%xmm0, 8(%rbx)
.L914:
	leaq	16(%rsp), %r12
	movq	%rbp, %rdi
	movq	%r12, %rsi
	call	_ZN4asio6detail15task_io_service26wake_one_thread_and_unlockERNS0_11scoped_lockINS0_11posix_mutexEEE@PLT
	cmpb	$0, 24(%rsp)
	jne	.L946
.L919:
	movq	8(%rbx), %rsi
	testq	%rsi, %rsi
	je	.L905
	movq	%rsi, 8(%rsp)
	leaq	16(%rsp), %r12
	call	_ZNSt3_V215system_categoryEv@PLT
	movq	8(%rsp), %rsi
	movq	%rax, %rbp
	jmp	.L922
	.p2align 4,,10
	.p2align 3
.L920:
	movq	$0, (%rsi)
	movq	8(%rsi), %rax
	xorl	%ecx, %ecx
	movq	%r12, %rdx
	movl	$0, 16(%rsp)
	xorl	%edi, %edi
	movq	%rbp, 24(%rsp)
	call	*%rax
	movq	8(%rbx), %rsi
	testq	%rsi, %rsi
	je	.L905
.L922:
	movq	(%rsi), %rax
	movq	%rax, 8(%rbx)
	testq	%rax, %rax
	jne	.L920
	movq	$0, 16(%rbx)
	jmp	.L920
	.p2align 4,,10
	.p2align 3
.L909:
	movq	16(%rax), %rax
	testq	%rax, %rax
	je	.L908
.L911:
	cmpq	(%rax), %rbp
	jne	.L909
	movq	8(%rax), %rax
	testq	%rax, %rax
	je	.L908
	movq	16(%rax), %rdx
	testq	%rdx, %rdx
	je	.L912
	movq	%r12, (%rdx)
.L913:
	movq	16(%rbx), %rdx
	movq	%rdx, 16(%rax)
	.p2align 4,,10
	.p2align 3
.L905:
	movq	40(%rsp), %rax
	subq	%fs:40, %rax
	jne	.L947
	addq	$48, %rsp
	.cfi_remember_state
	.cfi_def_cfa_offset 32
	popq	%rbx
	.cfi_def_cfa_offset 24
	popq	%rbp
	.cfi_def_cfa_offset 16
	popq	%r12
	.cfi_def_cfa_offset 8
	ret
	.p2align 4,,10
	.p2align 3
.L906:
	.cfi_restore_state
	movq	(%rdi), %rax
	movq	40(%rax), %rax
	lock addq	$1, 184(%rax)
	jmp	.L919
.L946:
	movq	16(%rsp), %rdi
	call	pthread_mutex_unlock@PLT
	jmp	.L919
.L915:
	movq	%rax, 192(%rbp)
	jmp	.L916
.L912:
	movq	%r12, 8(%rax)
	jmp	.L913
.L947:
	call	__stack_chk_fail@PLT
	.cfi_endproc
.LFE3327:
	.section	.gcc_except_table._ZN4asio6detail13epoll_reactor32perform_io_cleanup_on_block_exitD2Ev,"aG",@progbits,_ZN4asio6detail13epoll_reactor32perform_io_cleanup_on_block_exitD5Ev,comdat
.LLSDA3327:
	.byte	0xff
	.byte	0xff
	.byte	0x1
	.uleb128 .LLSDACSE3327-.LLSDACSB3327
.LLSDACSB3327:
.LLSDACSE3327:
	.section	.text._ZN4asio6detail13epoll_reactor32perform_io_cleanup_on_block_exitD2Ev,"axG",@progbits,_ZN4asio6detail13epoll_reactor32perform_io_cleanup_on_block_exitD5Ev,comdat
	.size	_ZN4asio6detail13epoll_reactor32perform_io_cleanup_on_block_exitD2Ev, .-_ZN4asio6detail13epoll_reactor32perform_io_cleanup_on_block_exitD2Ev
	.weak	_ZN4asio6detail13epoll_reactor32perform_io_cleanup_on_block_exitD1Ev
	.set	_ZN4asio6detail13epoll_reactor32perform_io_cleanup_on_block_exitD1Ev,_ZN4asio6detail13epoll_reactor32perform_io_cleanup_on_block_exitD2Ev
	.section	.text._ZN4asio6detail13epoll_reactor21deregister_descriptorEiRPNS1_16descriptor_stateEb,"axG",@progbits,_ZN4asio6detail13epoll_reactor21deregister_descriptorEiRPNS1_16descriptor_stateEb,comdat
	.align 2
	.p2align 4
	.weak	_ZN4asio6detail13epoll_reactor21deregister_descriptorEiRPNS1_16descriptor_stateEb
	.type	_ZN4asio6detail13epoll_reactor21deregister_descriptorEiRPNS1_16descriptor_stateEb, @function
_ZN4asio6detail13epoll_reactor21deregister_descriptorEiRPNS1_16descriptor_stateEb:
.LFB3310:
	.cfi_startproc
	endbr64
	pushq	%r15
	.cfi_def_cfa_offset 16
	.cfi_offset 15, -16
	pushq	%r14
	.cfi_def_cfa_offset 24
	.cfi_offset 14, -24
	pushq	%r13
	.cfi_def_cfa_offset 32
	.cfi_offset 13, -32
	pushq	%r12
	.cfi_def_cfa_offset 40
	.cfi_offset 12, -40
	pushq	%rbp
	.cfi_def_cfa_offset 48
	.cfi_offset 6, -48
	pushq	%rbx
	.cfi_def_cfa_offset 56
	.cfi_offset 3, -56
	subq	$72, %rsp
	.cfi_def_cfa_offset 128
	movq	(%rdx), %r12
	movq	%rdi, 16(%rsp)
	movq	%fs:40, %rax
	movq	%rax, 56(%rsp)
	xorl	%eax, %eax
	testq	%r12, %r12
	je	.L948
	leaq	40(%r12), %rax
	movq	%rdx, %r15
	movl	%esi, %r13d
	movl	%ecx, %ebx
	movq	%rax, %rdi
	movq	%rax, 24(%rsp)
	call	pthread_mutex_lock@PLT
	movq	(%r15), %rdi
	cmpb	$0, 144(%rdi)
	jne	.L950
	testb	%bl, %bl
	je	.L1004
.L951:
	movq	$0, 8(%rsp)
	xorl	%r12d, %r12d
	movl	$0, 4(%rsp)
.L952:
	movslq	4(%rsp), %r13
	movq	%r13, %rax
	salq	$4, %rax
	movq	96(%rax,%rdi), %rbx
	testq	%rbx, %rbx
	je	.L980
	movq	_ZGVZN4asio15system_categoryEvE8instance@GOTPCREL(%rip), %r14
	movq	_ZZN4asio15system_categoryEvE8instance@GOTPCREL(%rip), %rbp
	movzbl	(%r14), %eax
	testb	%al, %al
	je	.L1005
	.p2align 4,,10
	.p2align 3
.L954:
	movq	(%r15), %rdi
	movq	%r13, %rax
	movl	$125, 24(%rbx)
	salq	$4, %rax
	movq	%rbp, 32(%rbx)
	addq	%rdi, %rax
	movq	96(%rax), %rdx
	testq	%rdx, %rdx
	je	.L956
	movq	(%rdx), %r11
	movq	%r11, 96(%rax)
	testq	%r11, %r11
	je	.L1006
	movq	$0, (%rdx)
	movq	$0, (%rbx)
	testq	%r12, %r12
	je	.L1007
.L977:
	movq	%rbx, (%r12)
	testq	%r11, %r11
	je	.L958
.L959:
	movzbl	(%r14), %eax
	movq	%rbx, %r12
	movq	%r11, %rbx
	testb	%al, %al
	jne	.L954
.L1005:
	movq	%r14, %rdi
	call	__cxa_guard_acquire@PLT
	testl	%eax, %eax
	je	.L954
	movq	_ZN4asio6detail15system_categoryD1Ev@GOTPCREL(%rip), %rdi
	leaq	__dso_handle(%rip), %rdx
	movq	%rbp, %rsi
	call	__cxa_atexit@PLT
	movq	%r14, %rdi
	call	__cxa_guard_release@PLT
	jmp	.L954
	.p2align 4,,10
	.p2align 3
.L960:
	movl	$-1, 88(%rdi)
	movb	$1, 144(%rdi)
	movq	24(%rsp), %rdi
	call	pthread_mutex_unlock@PLT
	movq	16(%rsp), %r14
	movq	(%r15), %r12
	leaq	120(%r14), %r13
	movq	%r13, %rdi
	call	pthread_mutex_lock@PLT
	cmpq	160(%r14), %r12
	je	.L1008
.L962:
	movq	32(%r12), %rax
	testq	%rax, %rax
	je	.L963
	movq	24(%r12), %rdx
	movq	%rdx, 24(%rax)
.L963:
	movq	24(%r12), %rax
	testq	%rax, %rax
	je	.L964
	movq	32(%r12), %rdx
	movq	%rdx, 32(%rax)
.L964:
	movq	16(%rsp), %r14
	movq	%r13, %rdi
	movq	168(%r14), %rax
	movq	$0, 32(%r12)
	movq	%rax, 24(%r12)
	movq	%r12, 168(%r14)
	call	pthread_mutex_unlock@PLT
	cmpq	$0, 8(%rsp)
	movq	$0, (%r15)
	je	.L948
	movq	40(%r14), %rbp
	cmpb	$0, 40(%rbp)
	je	.L966
	data16	leaq	_ZN4asio6detail15keyword_tss_ptrINS0_10call_stackINS0_15task_io_serviceENS0_27task_io_service_thread_infoEE7contextEE6value_E@tlsgd(%rip), %rdi
	.value	0x6666
	rex64
	call	__tls_get_addr@PLT
	movq	(%rax), %rax
	testq	%rax, %rax
	jne	.L969
	jmp	.L966
	.p2align 4,,10
	.p2align 3
.L967:
	movq	16(%rax), %rax
	testq	%rax, %rax
	je	.L966
.L969:
	cmpq	(%rax), %rbp
	jne	.L967
	movq	8(%rax), %rax
	testq	%rax, %rax
	je	.L966
	movq	16(%rax), %rdx
	movq	8(%rsp), %rcx
	testq	%rdx, %rdx
	je	.L970
	movq	%rcx, (%rdx)
.L971:
	movq	%rbx, 16(%rax)
	.p2align 4,,10
	.p2align 3
.L948:
	movq	56(%rsp), %rax
	subq	%fs:40, %rax
	jne	.L1003
	addq	$72, %rsp
	.cfi_remember_state
	.cfi_def_cfa_offset 56
	popq	%rbx
	.cfi_def_cfa_offset 48
	popq	%rbp
	.cfi_def_cfa_offset 40
	popq	%r12
	.cfi_def_cfa_offset 32
	popq	%r13
	.cfi_def_cfa_offset 24
	popq	%r14
	.cfi_def_cfa_offset 16
	popq	%r15
	.cfi_def_cfa_offset 8
	ret
	.p2align 4,,10
	.p2align 3
.L950:
	.cfi_restore_state
	movq	56(%rsp), %rax
	subq	%fs:40, %rax
	jne	.L1003
	movq	24(%rsp), %rdi
.L1002:
	addq	$72, %rsp
	.cfi_remember_state
	.cfi_def_cfa_offset 56
	popq	%rbx
	.cfi_def_cfa_offset 48
	popq	%rbp
	.cfi_def_cfa_offset 40
	popq	%r12
	.cfi_def_cfa_offset 32
	popq	%r13
	.cfi_def_cfa_offset 24
	popq	%r14
	.cfi_def_cfa_offset 16
	popq	%r15
	.cfi_def_cfa_offset 8
	jmp	pthread_mutex_unlock@PLT
	.p2align 4,,10
	.p2align 3
.L956:
	.cfi_restore_state
	movq	$0, (%rbx)
	testq	%r12, %r12
	je	.L981
	movq	%rbx, (%r12)
.L958:
	addl	$1, 4(%rsp)
	movl	4(%rsp), %eax
	cmpl	$3, %eax
	je	.L960
	movq	%rbx, %r12
	jmp	.L952
	.p2align 4,,10
	.p2align 3
.L1006:
	movq	$0, 104(%rax)
	movq	$0, (%rdx)
	movq	$0, (%rbx)
	testq	%r12, %r12
	jne	.L977
	.p2align 4,,10
	.p2align 3
.L981:
	movq	%rbx, 8(%rsp)
	jmp	.L958
	.p2align 4,,10
	.p2align 3
.L1007:
	movq	%rbx, 8(%rsp)
	jmp	.L959
	.p2align 4,,10
	.p2align 3
.L966:
	leaq	48(%rbp), %rdi
	movq	%rdi, 32(%rsp)
	call	pthread_mutex_lock@PLT
	movq	200(%rbp), %rax
	movb	$1, 40(%rsp)
	testq	%rax, %rax
	je	.L972
	movq	8(%rsp), %rcx
	movq	%rcx, (%rax)
.L973:
	movq	%rbx, 200(%rbp)
	leaq	32(%rsp), %rsi
	movq	%rbp, %rdi
	call	_ZN4asio6detail15task_io_service26wake_one_thread_and_unlockERNS0_11scoped_lockINS0_11posix_mutexEEE@PLT
	cmpb	$0, 40(%rsp)
	je	.L948
	movq	56(%rsp), %rax
	subq	%fs:40, %rax
	jne	.L1003
	movq	32(%rsp), %rdi
	jmp	.L1002
	.p2align 4,,10
	.p2align 3
.L980:
	movq	%r12, %rbx
	jmp	.L958
	.p2align 4,,10
	.p2align 3
.L1004:
	movq	16(%rsp), %rax
	leaq	32(%rsp), %rcx
	movl	%r13d, %edx
	movl	$2, %esi
	movl	$0, 32(%rsp)
	movq	$0, 36(%rsp)
	movl	96(%rax), %edi
	call	epoll_ctl@PLT
	movq	(%r15), %rdi
	jmp	.L951
	.p2align 4,,10
	.p2align 3
.L1008:
	movq	24(%r12), %rax
	movq	16(%rsp), %rcx
	movq	%rax, 160(%rcx)
	jmp	.L962
.L972:
	movq	8(%rsp), %rax
	movq	%rax, 192(%rbp)
	jmp	.L973
.L970:
	movq	%rcx, 8(%rax)
	jmp	.L971
.L1003:
	call	__stack_chk_fail@PLT
	.cfi_endproc
.LFE3310:
	.size	_ZN4asio6detail13epoll_reactor21deregister_descriptorEiRPNS1_16descriptor_stateEb, .-_ZN4asio6detail13epoll_reactor21deregister_descriptorEiRPNS1_16descriptor_stateEb
	.section	.text._ZN4asio6detail13epoll_reactor16descriptor_state11do_completeEPNS0_15task_io_serviceEPNS0_25task_io_service_operationERKSt10error_codem,"axG",@progbits,_ZN4asio6detail13epoll_reactor16descriptor_state11do_completeEPNS0_15task_io_serviceEPNS0_25task_io_service_operationERKSt10error_codem,comdat
	.align 2
	.p2align 4
	.weak	_ZN4asio6detail13epoll_reactor16descriptor_state11do_completeEPNS0_15task_io_serviceEPNS0_25task_io_service_operationERKSt10error_codem
	.type	_ZN4asio6detail13epoll_reactor16descriptor_state11do_completeEPNS0_15task_io_serviceEPNS0_25task_io_service_operationERKSt10error_codem, @function
_ZN4asio6detail13epoll_reactor16descriptor_state11do_completeEPNS0_15task_io_serviceEPNS0_25task_io_service_operationERKSt10error_codem:
.LFB3333:
	.cfi_startproc
	.cfi_personality 0x9b,DW.ref.__gxx_personality_v0
	.cfi_lsda 0x1b,.LLSDA3333
	endbr64
	pushq	%r15
	.cfi_def_cfa_offset 16
	.cfi_offset 15, -16
	pushq	%r14
	.cfi_def_cfa_offset 24
	.cfi_offset 14, -24
	pushq	%r13
	.cfi_def_cfa_offset 32
	.cfi_offset 13, -32
	pushq	%r12
	.cfi_def_cfa_offset 40
	.cfi_offset 12, -40
	pushq	%rbp
	.cfi_def_cfa_offset 48
	.cfi_offset 6, -48
	pushq	%rbx
	.cfi_def_cfa_offset 56
	.cfi_offset 3, -56
	subq	$104, %rsp
	.cfi_def_cfa_offset 160
	movq	%rdx, 16(%rsp)
	movq	%fs:40, %rax
	movq	%rax, 88(%rsp)
	xorl	%eax, %eax
	testq	%rdi, %rdi
	je	.L1009
	leaq	40(%rsi), %r15
	movq	%rsi, %rbp
	movq	%rdi, %r14
	movl	%ecx, %r13d
	movq	%r15, %rdi
	subq	$-128, %rbp
	call	pthread_mutex_lock@PLT
	movq	-48(%rbp), %rax
	movq	_ZZN4asio6detail13epoll_reactor16descriptor_state10perform_ioEjE4flag@GOTPCREL(%rip), %r12
	movq	$0, 56(%rsp)
	movq	$0, 64(%rsp)
	movq	%rax, 24(%rsp)
	movq	%rax, 48(%rsp)
	leaq	-12(%r12), %rax
	movq	$0, 72(%rsp)
	movq	%rax, 8(%rsp)
.L1019:
	movl	8(%r12), %eax
	orl	$24, %eax
	testl	%r13d, %eax
	jne	.L1067
.L1012:
	subq	$4, %r12
	subq	$16, %rbp
	cmpq	8(%rsp), %r12
	jne	.L1019
	movq	56(%rsp), %rbp
	movq	%rbp, 72(%rsp)
	testq	%rbp, %rbp
	je	.L1020
	movq	0(%rbp), %rbx
	movq	%rbx, 56(%rsp)
	testq	%rbx, %rbx
	je	.L1068
	movq	$0, 0(%rbp)
	movq	%r15, %rdi
	call	pthread_mutex_unlock@PLT
	movq	24(%rsp), %rax
	movq	40(%rax), %r12
	cmpb	$0, 40(%r12)
	je	.L1023
	data16	leaq	_ZN4asio6detail15keyword_tss_ptrINS0_10call_stackINS0_15task_io_serviceENS0_27task_io_service_thread_infoEE7contextEE6value_E@tlsgd(%rip), %rdi
	.value	0x6666
	rex64
	call	__tls_get_addr@PLT
	movq	(%rax), %rax
	testq	%rax, %rax
	jne	.L1026
	jmp	.L1023
	.p2align 4,,10
	.p2align 3
.L1024:
	movq	16(%rax), %rax
	testq	%rax, %rax
	je	.L1023
.L1026:
	cmpq	(%rax), %r12
	jne	.L1024
	movq	8(%rax), %rax
	testq	%rax, %rax
	je	.L1023
	movq	16(%rax), %rdx
	testq	%rdx, %rdx
	je	.L1027
	movq	%rbx, (%rdx)
.L1028:
	movq	64(%rsp), %rdx
	movq	%rdx, 16(%rax)
	jmp	.L1022
	.p2align 4,,10
	.p2align 3
.L1020:
	movq	%r15, %rdi
	call	pthread_mutex_unlock@PLT
	movq	24(%rsp), %rax
	movq	40(%rax), %rax
	lock addq	$1, 184(%rax)
	movq	56(%rsp), %rsi
	testq	%rsi, %rsi
	movq	%rsi, 8(%rsp)
	je	.L1009
	call	_ZNSt3_V215system_categoryEv@PLT
	movq	8(%rsp), %rsi
	leaq	32(%rsp), %r12
	movq	%rax, %rbp
	movq	(%rsi), %rbx
	movq	8(%rsi), %rax
	movq	%rbx, 56(%rsp)
	testq	%rbx, %rbx
	je	.L1035
	.p2align 4,,10
	.p2align 3
.L1036:
	movq	$0, (%rsi)
	xorl	%ecx, %ecx
	movq	%r12, %rdx
	xorl	%edi, %edi
	movl	$0, 32(%rsp)
	movq	%rbp, 40(%rsp)
	call	*%rax
	movq	%rbx, %rsi
	movq	(%rbx), %rbx
	movq	8(%rsi), %rax
	movq	%rbx, 56(%rsp)
	testq	%rbx, %rbx
	jne	.L1036
.L1035:
	movq	$0, (%rsi)
	xorl	%ecx, %ecx
	movq	%r12, %rdx
	xorl	%edi, %edi
	movl	$0, 32(%rsp)
	movq	%rbp, 40(%rsp)
	call	*%rax
.L1009:
	movq	88(%rsp), %rax
	subq	%fs:40, %rax
	jne	.L1066
	addq	$104, %rsp
	.cfi_remember_state
	.cfi_def_cfa_offset 56
	popq	%rbx
	.cfi_def_cfa_offset 48
	popq	%rbp
	.cfi_def_cfa_offset 40
	popq	%r12
	.cfi_def_cfa_offset 32
	popq	%r13
	.cfi_def_cfa_offset 24
	popq	%r14
	.cfi_def_cfa_offset 16
	popq	%r15
	.cfi_def_cfa_offset 8
	ret
	.p2align 4,,10
	.p2align 3
.L1067:
	.cfi_restore_state
	movq	0(%rbp), %rbx
	testq	%rbx, %rbx
	jne	.L1013
	jmp	.L1012
	.p2align 4,,10
	.p2align 3
.L1070:
	movq	(%rax), %rdx
	movq	%rdx, 0(%rbp)
	testq	%rdx, %rdx
	je	.L1069
	movq	$0, (%rax)
	movq	64(%rsp), %rax
	movq	$0, (%rbx)
	testq	%rax, %rax
	je	.L1017
	movq	%rbx, (%rax)
	movq	%rbx, 64(%rsp)
.L1018:
	movq	%rdx, %rbx
.L1013:
	movq	%rbx, %rdi
.LEHB12:
	call	*48(%rbx)
.LEHE12:
	testb	%al, %al
	je	.L1012
	movq	0(%rbp), %rax
	testq	%rax, %rax
	jne	.L1070
	movq	64(%rsp), %rax
	movq	$0, (%rbx)
	testq	%rax, %rax
	jne	.L1039
.L1016:
	movq	%rbx, 56(%rsp)
	movq	%rbx, 64(%rsp)
	jmp	.L1012
	.p2align 4,,10
	.p2align 3
.L1069:
	movq	$0, 8(%rbp)
	movq	$0, (%rax)
	movq	64(%rsp), %rax
	movq	$0, (%rbx)
	testq	%rax, %rax
	je	.L1016
.L1039:
	movq	%rbx, (%rax)
	movq	%rbx, 64(%rsp)
	jmp	.L1012
	.p2align 4,,10
	.p2align 3
.L1023:
	leaq	48(%r12), %rdi
	movq	%rdi, 32(%rsp)
	call	pthread_mutex_lock@PLT
	movq	200(%r12), %rax
	movb	$1, 40(%rsp)
	testq	%rax, %rax
	je	.L1029
	movq	%rbx, (%rax)
.L1030:
	movq	64(%rsp), %rax
	leaq	32(%rsp), %rsi
	movq	%r12, %rdi
	movq	%rax, 200(%r12)
	call	_ZN4asio6detail15task_io_service26wake_one_thread_and_unlockERNS0_11scoped_lockINS0_11posix_mutexEEE@PLT
	cmpb	$0, 40(%rsp)
	jne	.L1071
.L1022:
	movq	88(%rsp), %rax
	subq	%fs:40, %rax
	jne	.L1066
	movq	8(%rbp), %rax
	movq	16(%rsp), %rdx
	addq	$104, %rsp
	.cfi_remember_state
	.cfi_def_cfa_offset 56
	movq	%rbp, %rsi
	popq	%rbx
	.cfi_def_cfa_offset 48
	movq	%r14, %rdi
	popq	%rbp
	.cfi_def_cfa_offset 40
	xorl	%ecx, %ecx
	popq	%r12
	.cfi_def_cfa_offset 32
	popq	%r13
	.cfi_def_cfa_offset 24
	popq	%r14
	.cfi_def_cfa_offset 16
	popq	%r15
	.cfi_def_cfa_offset 8
.LEHB13:
	jmp	*%rax
	.p2align 4,,10
	.p2align 3
.L1068:
	.cfi_restore_state
	movq	%r15, %rdi
	call	pthread_mutex_unlock@PLT
	jmp	.L1022
	.p2align 4,,10
	.p2align 3
.L1017:
	movq	%rbx, 56(%rsp)
	movq	%rbx, 64(%rsp)
	jmp	.L1018
.L1027:
	movq	%rbx, 8(%rax)
	jmp	.L1028
.L1071:
	movq	32(%rsp), %rdi
	call	pthread_mutex_unlock@PLT
	jmp	.L1022
.L1029:
	movq	%rbx, 192(%r12)
	jmp	.L1030
.L1066:
	call	__stack_chk_fail@PLT
.L1041:
	endbr64
	movq	%rax, %rbp
.L1033:
	movq	%r15, %rdi
	call	pthread_mutex_unlock@PLT
	leaq	48(%rsp), %rdi
	call	_ZN4asio6detail13epoll_reactor32perform_io_cleanup_on_block_exitD1Ev@PLT
	movq	%rbp, %rdi
	call	_Unwind_Resume@PLT
.LEHE13:
	.cfi_endproc
.LFE3333:
	.section	.gcc_except_table._ZN4asio6detail13epoll_reactor16descriptor_state11do_completeEPNS0_15task_io_serviceEPNS0_25task_io_service_operationERKSt10error_codem,"aG",@progbits,_ZN4asio6detail13epoll_reactor16descriptor_state11do_completeEPNS0_15task_io_serviceEPNS0_25task_io_service_operationERKSt10error_codem,comdat
.LLSDA3333:
	.byte	0xff
	.byte	0xff
	.byte	0x1
	.uleb128 .LLSDACSE3333-.LLSDACSB3333
.LLSDACSB3333:
	.uleb128 .LEHB12-.LFB3333
	.uleb128 .LEHE12-.LEHB12
	.uleb128 .L1041-.LFB3333
	.uleb128 0
	.uleb128 .LEHB13-.LFB3333
	.uleb128 .LEHE13-.LEHB13
	.uleb128 0
	.uleb128 0
.LLSDACSE3333:
	.section	.text._ZN4asio6detail13epoll_reactor16descriptor_state11do_completeEPNS0_15task_io_serviceEPNS0_25task_io_service_operationERKSt10error_codem,"axG",@progbits,_ZN4asio6detail13epoll_reactor16descriptor_state11do_completeEPNS0_15task_io_serviceEPNS0_25task_io_service_operationERKSt10error_codem,comdat
	.size	_ZN4asio6detail13epoll_reactor16descriptor_state11do_completeEPNS0_15task_io_serviceEPNS0_25task_io_service_operationERKSt10error_codem, .-_ZN4asio6detail13epoll_reactor16descriptor_state11do_completeEPNS0_15task_io_serviceEPNS0_25task_io_service_operationERKSt10error_codem
	.section	.text._ZN4asio6detail13socket_holderD2Ev,"axG",@progbits,_ZN4asio6detail13socket_holderD5Ev,comdat
	.align 2
	.p2align 4
	.weak	_ZN4asio6detail13socket_holderD2Ev
	.type	_ZN4asio6detail13socket_holderD2Ev, @function
_ZN4asio6detail13socket_holderD2Ev:
.LFB3782:
	.cfi_startproc
	.cfi_personality 0x9b,DW.ref.__gxx_personality_v0
	.cfi_lsda 0x1b,.LLSDA3782
	endbr64
	pushq	%r14
	.cfi_def_cfa_offset 16
	.cfi_offset 14, -16
	pushq	%r13
	.cfi_def_cfa_offset 24
	.cfi_offset 13, -24
	pushq	%r12
	.cfi_def_cfa_offset 32
	.cfi_offset 12, -32
	pushq	%rbp
	.cfi_def_cfa_offset 40
	.cfi_offset 6, -40
	pushq	%rbx
	.cfi_def_cfa_offset 48
	.cfi_offset 3, -48
	subq	$16, %rsp
	.cfi_def_cfa_offset 64
	movl	(%rdi), %ebp
	movq	%fs:40, %rax
	movq	%rax, 8(%rsp)
	xorl	%eax, %eax
	cmpl	$-1, %ebp
	jne	.L1094
.L1072:
	movq	8(%rsp), %rax
	subq	%fs:40, %rax
	jne	.L1095
	addq	$16, %rsp
	.cfi_remember_state
	.cfi_def_cfa_offset 48
	popq	%rbx
	.cfi_def_cfa_offset 40
	popq	%rbp
	.cfi_def_cfa_offset 32
	popq	%r12
	.cfi_def_cfa_offset 24
	popq	%r13
	.cfi_def_cfa_offset 16
	popq	%r14
	.cfi_def_cfa_offset 8
	ret
	.p2align 4,,10
	.p2align 3
.L1094:
	.cfi_restore_state
	call	__errno_location@PLT
	movl	%ebp, %edi
	movl	$0, (%rax)
	movq	%rax, %rbx
	call	close@PLT
	movl	%eax, %r12d
	call	_ZN4asio15system_categoryEv@PLT
	movl	(%rbx), %r14d
	movq	%rax, %r13
	testl	%r12d, %r12d
	je	.L1072
	call	_ZN4asio15system_categoryEv@PLT
	cmpl	$11, %r14d
	sete	%r12b
	cmpq	%rax, %r13
	jne	.L1076
	testb	%r12b, %r12b
	jne	.L1077
.L1076:
	call	_ZN4asio15system_categoryEv@PLT
	cmpq	%rax, %r13
	jne	.L1072
	testb	%r12b, %r12b
	je	.L1072
.L1077:
	leaq	4(%rsp), %rdx
	movl	$21537, %esi
	movl	%ebp, %edi
	xorl	%eax, %eax
	movl	$0, 4(%rsp)
	call	ioctl@PLT
	movl	$0, (%rbx)
	movl	%ebp, %edi
	call	close@PLT
	call	_ZN4asio15system_categoryEv@PLT
	jmp	.L1072
.L1095:
	call	__stack_chk_fail@PLT
	.cfi_endproc
.LFE3782:
	.section	.gcc_except_table._ZN4asio6detail13socket_holderD2Ev,"aG",@progbits,_ZN4asio6detail13socket_holderD5Ev,comdat
.LLSDA3782:
	.byte	0xff
	.byte	0xff
	.byte	0x1
	.uleb128 .LLSDACSE3782-.LLSDACSB3782
.LLSDACSB3782:
.LLSDACSE3782:
	.section	.text._ZN4asio6detail13socket_holderD2Ev,"axG",@progbits,_ZN4asio6detail13socket_holderD5Ev,comdat
	.size	_ZN4asio6detail13socket_holderD2Ev, .-_ZN4asio6detail13socket_holderD2Ev
	.weak	_ZN4asio6detail13socket_holderD1Ev
	.set	_ZN4asio6detail13socket_holderD1Ev,_ZN4asio6detail13socket_holderD2Ev
	.section	.text._ZN4asio6detail28reactive_socket_service_base7destroyERNS1_24base_implementation_typeE,"axG",@progbits,_ZN4asio6detail28reactive_socket_service_base7destroyERNS1_24base_implementation_typeE,comdat
	.align 2
	.p2align 4
	.weak	_ZN4asio6detail28reactive_socket_service_base7destroyERNS1_24base_implementation_typeE
	.type	_ZN4asio6detail28reactive_socket_service_base7destroyERNS1_24base_implementation_typeE, @function
_ZN4asio6detail28reactive_socket_service_base7destroyERNS1_24base_implementation_typeE:
.LFB3865:
	.cfi_startproc
	endbr64
	pushq	%r15
	.cfi_def_cfa_offset 16
	.cfi_offset 15, -16
	pushq	%r14
	.cfi_def_cfa_offset 24
	.cfi_offset 14, -24
	pushq	%r13
	.cfi_def_cfa_offset 32
	.cfi_offset 13, -32
	pushq	%r12
	.cfi_def_cfa_offset 40
	.cfi_offset 12, -40
	pushq	%rbp
	.cfi_def_cfa_offset 48
	.cfi_offset 6, -48
	pushq	%rbx
	.cfi_def_cfa_offset 56
	.cfi_offset 3, -56
	movq	%rsi, %rbx
	subq	$24, %rsp
	.cfi_def_cfa_offset 80
	movl	(%rsi), %esi
	movq	%fs:40, %rax
	movq	%rax, 8(%rsp)
	xorl	%eax, %eax
	cmpl	$-1, %esi
	jne	.L1125
.L1096:
	movq	8(%rsp), %rax
	subq	%fs:40, %rax
	jne	.L1126
	addq	$24, %rsp
	.cfi_remember_state
	.cfi_def_cfa_offset 56
	popq	%rbx
	.cfi_def_cfa_offset 48
	popq	%rbp
	.cfi_def_cfa_offset 40
	popq	%r12
	.cfi_def_cfa_offset 32
	popq	%r13
	.cfi_def_cfa_offset 24
	popq	%r14
	.cfi_def_cfa_offset 16
	popq	%r15
	.cfi_def_cfa_offset 8
	ret
	.p2align 4,,10
	.p2align 3
.L1125:
	.cfi_restore_state
	movzbl	4(%rbx), %ecx
	movq	(%rdi), %rdi
	leaq	8(%rbx), %rdx
	shrb	$6, %cl
	xorl	$1, %ecx
	andl	$1, %ecx
	call	_ZN4asio6detail13epoll_reactor21deregister_descriptorEiRPNS1_16descriptor_stateEb@PLT
	movl	(%rbx), %r12d
	cmpl	$-1, %r12d
	je	.L1096
	call	__errno_location@PLT
	movzbl	4(%rbx), %r13d
	movq	%rax, %rbp
	testb	$8, %r13b
	jne	.L1127
.L1100:
	movl	$0, 0(%rbp)
	movl	%r12d, %edi
	call	close@PLT
	movl	%eax, %r13d
	call	_ZN4asio15system_categoryEv@PLT
	movl	0(%rbp), %r15d
	movq	%rax, %r14
	testl	%r13d, %r13d
	je	.L1096
	call	_ZN4asio15system_categoryEv@PLT
	cmpl	$11, %r15d
	sete	%r13b
	cmpq	%rax, %r14
	jne	.L1102
	testb	%r13b, %r13b
	jne	.L1103
.L1102:
	call	_ZN4asio15system_categoryEv@PLT
	cmpq	%rax, %r14
	jne	.L1096
	testb	%r13b, %r13b
	je	.L1096
.L1103:
	movq	%rsp, %rdx
	movl	$21537, %esi
	movl	%r12d, %edi
	xorl	%eax, %eax
	movl	$0, (%rsp)
	call	ioctl@PLT
	andb	$-4, 4(%rbx)
	movl	%r12d, %edi
	movl	$0, 0(%rbp)
	call	close@PLT
	call	_ZN4asio15system_categoryEv@PLT
	jmp	.L1096
	.p2align 4,,10
	.p2align 3
.L1127:
	orl	$8, %r13d
	movq	%rsp, %rcx
	movl	$8, %r8d
	movl	%r12d, %edi
	movb	%r13b, 4(%rbx)
	movl	$13, %edx
	movl	$1, %esi
	movl	$0, (%rax)
	movq	$0, (%rsp)
	call	setsockopt@PLT
	call	_ZN4asio15system_categoryEv@PLT
	jmp	.L1100
.L1126:
	call	__stack_chk_fail@PLT
	.cfi_endproc
.LFE3865:
	.size	_ZN4asio6detail28reactive_socket_service_base7destroyERNS1_24base_implementation_typeE, .-_ZN4asio6detail28reactive_socket_service_base7destroyERNS1_24base_implementation_typeE
	.section	.text._ZN4asio6detail28reactive_socket_service_base16start_connect_opERNS1_24base_implementation_typeEPNS0_10reactor_opEbPK8sockaddrm,"axG",@progbits,_ZN4asio6detail28reactive_socket_service_base16start_connect_opERNS1_24base_implementation_typeEPNS0_10reactor_opEbPK8sockaddrm,comdat
	.align 2
	.p2align 4
	.weak	_ZN4asio6detail28reactive_socket_service_base16start_connect_opERNS1_24base_implementation_typeEPNS0_10reactor_opEbPK8sockaddrm
	.type	_ZN4asio6detail28reactive_socket_service_base16start_connect_opERNS1_24base_implementation_typeEPNS0_10reactor_opEbPK8sockaddrm, @function
_ZN4asio6detail28reactive_socket_service_base16start_connect_opERNS1_24base_implementation_typeEPNS0_10reactor_opEbPK8sockaddrm:
.LFB3872:
	.cfi_startproc
	endbr64
	pushq	%r15
	.cfi_def_cfa_offset 16
	.cfi_offset 15, -16
	movq	%rdx, %xmm0
	movq	%r8, %r15
	pushq	%r14
	.cfi_def_cfa_offset 24
	.cfi_offset 14, -24
	punpcklqdq	%xmm0, %xmm0
	movq	%rdi, %r14
	pushq	%r13
	.cfi_def_cfa_offset 32
	.cfi_offset 13, -32
	pushq	%r12
	.cfi_def_cfa_offset 40
	.cfi_offset 12, -40
	movq	%rsi, %r12
	pushq	%rbp
	.cfi_def_cfa_offset 48
	.cfi_offset 6, -48
	movq	%rdx, %rbp
	pushq	%rbx
	.cfi_def_cfa_offset 56
	.cfi_offset 3, -56
	movl	%ecx, %ebx
	subq	$72, %rsp
	.cfi_def_cfa_offset 128
	movl	(%rsi), %r13d
	movq	%r9, (%rsp)
	movq	%fs:40, %rax
	movq	%rax, 56(%rsp)
	xorl	%eax, %eax
	movaps	%xmm0, 16(%rsp)
	testb	$3, 4(%rsi)
	jne	.L1129
	cmpl	$-1, %r13d
	je	.L1153
	call	__errno_location@PLT
	movl	%r13d, %edi
	leaq	44(%rsp), %rdx
	movl	$21537, %esi
	movl	$0, (%rax)
	movq	%rax, 8(%rsp)
	xorl	%eax, %eax
	movl	$1, 44(%rsp)
	call	ioctl@PLT
	movl	%eax, %r13d
	call	_ZN4asio15system_categoryEv@PLT
	movq	8(%rsp), %rcx
	movl	(%rcx), %ecx
	movq	%rax, 32(%rbp)
	movl	%ecx, 24(%rbp)
	testl	%r13d, %r13d
	js	.L1131
	call	_ZNSt3_V215system_categoryEv@PLT
	movl	$0, 24(%rbp)
	movl	(%r12), %r13d
	movq	%rax, 32(%rbp)
	orb	$2, 4(%r12)
.L1129:
	cmpl	$-1, %r13d
	je	.L1154
	call	__errno_location@PLT
	movl	(%rsp), %edx
	movl	%r13d, %edi
	movq	%r15, %rsi
	movl	$0, (%rax)
	movq	%rax, 8(%rsp)
	call	connect@PLT
	movl	%eax, %r13d
	call	_ZN4asio15system_categoryEv@PLT
	movq	8(%rsp), %rcx
	movl	(%rcx), %edx
	movq	%rax, 32(%rbp)
	movl	%edx, 24(%rbp)
	testl	%r13d, %r13d
	jne	.L1135
	call	_ZNSt3_V215system_categoryEv@PLT
	movl	$0, 24(%rbp)
	movq	%rax, 32(%rbp)
.L1131:
	movq	56(%rsp), %rax
	subq	%fs:40, %rax
	jne	.L1152
	movq	(%r14), %rax
	movzbl	%bl, %edx
	movq	40(%rax), %rdi
.L1151:
	addq	$72, %rsp
	.cfi_remember_state
	.cfi_def_cfa_offset 56
	movq	%rbp, %rsi
	popq	%rbx
	.cfi_def_cfa_offset 48
	popq	%rbp
	.cfi_def_cfa_offset 40
	popq	%r12
	.cfi_def_cfa_offset 32
	popq	%r13
	.cfi_def_cfa_offset 24
	popq	%r14
	.cfi_def_cfa_offset 16
	popq	%r15
	.cfi_def_cfa_offset 8
	jmp	_ZN4asio6detail15task_io_service25post_immediate_completionEPNS0_25task_io_service_operationEb@PLT
	.p2align 4,,10
	.p2align 3
.L1135:
	.cfi_restore_state
	call	_ZN4asio15system_categoryEv@PLT
	cmpq	%rax, 32(%rbp)
	je	.L1155
.L1134:
	call	_ZN4asio15system_categoryEv@PLT
	cmpq	%rax, 32(%rbp)
	je	.L1156
.L1136:
	call	_ZN4asio15system_categoryEv@PLT
	cmpq	%rax, 32(%rbp)
	jne	.L1131
	cmpl	$11, 24(%rbp)
	jne	.L1131
.L1139:
	call	_ZNSt3_V215system_categoryEv@PLT
	movq	(%r14), %r13
	movzbl	%bl, %r15d
	movl	(%r12), %r14d
	movq	%rax, 32(%rbp)
	movq	8(%r12), %rax
	movl	$0, 24(%rbp)
	testq	%rax, %rax
	je	.L1157
	leaq	40(%rax), %rbx
	movq	%rbx, %rdi
	call	pthread_mutex_lock@PLT
	movq	8(%r12), %rax
	cmpb	$0, 144(%rax)
	jne	.L1158
	cmpq	$0, 112(%rax)
	je	.L1159
.L1143:
	movq	120(%rax), %rdx
	movq	$0, 0(%rbp)
	testq	%rdx, %rdx
	je	.L1144
	movq	%rbp, (%rdx)
	movq	%rbp, 120(%rax)
.L1145:
	movq	40(%r13), %rax
	lock addq	$1, 184(%rax)
	movq	56(%rsp), %rax
	subq	%fs:40, %rax
	jne	.L1152
.L1146:
	addq	$72, %rsp
	.cfi_remember_state
	.cfi_def_cfa_offset 56
	movq	%rbx, %rdi
	popq	%rbx
	.cfi_def_cfa_offset 48
	popq	%rbp
	.cfi_def_cfa_offset 40
	popq	%r12
	.cfi_def_cfa_offset 32
	popq	%r13
	.cfi_def_cfa_offset 24
	popq	%r14
	.cfi_def_cfa_offset 16
	popq	%r15
	.cfi_def_cfa_offset 8
	jmp	pthread_mutex_unlock@PLT
	.p2align 4,,10
	.p2align 3
.L1156:
	.cfi_restore_state
	cmpl	$115, 24(%rbp)
	jne	.L1136
	jmp	.L1139
	.p2align 4,,10
	.p2align 3
.L1155:
	cmpl	$11, 24(%rbp)
	jne	.L1134
	call	_ZN4asio15system_categoryEv@PLT
	movl	$105, 24(%rbp)
	movq	%rax, 32(%rbp)
	jmp	.L1134
	.p2align 4,,10
	.p2align 3
.L1153:
	call	_ZN4asio15system_categoryEv@PLT
	movl	$9, 24(%rbp)
	movq	%rax, 32(%rbp)
	jmp	.L1131
.L1144:
	movdqa	16(%rsp), %xmm1
	movups	%xmm1, 112(%rax)
	jmp	.L1145
.L1159:
	movl	92(%rax), %edx
	leaq	44(%rsp), %rcx
	movl	$3, %esi
	orl	$4, %edx
	movl	%edx, 92(%rax)
	movl	%edx, 44(%rsp)
	movl	%r14d, %edx
	movq	%rax, 48(%rsp)
	movl	96(%r13), %edi
	call	epoll_ctl@PLT
	movq	8(%r12), %rax
	jmp	.L1143
.L1157:
	call	_ZN4asio15system_categoryEv@PLT
	movl	$9, 24(%rbp)
	movq	%rax, 32(%rbp)
	movq	56(%rsp), %rax
	subq	%fs:40, %rax
	jne	.L1152
	movq	40(%r13), %rdi
	movl	%r15d, %edx
	jmp	.L1151
.L1158:
	movq	40(%r13), %rdi
	movl	%r15d, %edx
	movq	%rbp, %rsi
	call	_ZN4asio6detail15task_io_service25post_immediate_completionEPNS0_25task_io_service_operationEb@PLT
	movq	56(%rsp), %rax
	subq	%fs:40, %rax
	je	.L1146
.L1152:
	call	__stack_chk_fail@PLT
	.p2align 4,,10
	.p2align 3
.L1154:
	call	_ZN4asio15system_categoryEv@PLT
	movl	$9, 24(%rbp)
	movq	%rax, 32(%rbp)
	jmp	.L1134
	.cfi_endproc
.LFE3872:
	.size	_ZN4asio6detail28reactive_socket_service_base16start_connect_opERNS1_24base_implementation_typeEPNS0_10reactor_opEbPK8sockaddrm, .-_ZN4asio6detail28reactive_socket_service_base16start_connect_opERNS1_24base_implementation_typeEPNS0_10reactor_opEbPK8sockaddrm
	.section	.text._ZN4asio2ip7address11from_stringEPKcRSt10error_code,"axG",@progbits,_ZN4asio2ip7address11from_stringEPKcRSt10error_code,comdat
	.align 2
	.p2align 4
	.weak	_ZN4asio2ip7address11from_stringEPKcRSt10error_code
	.type	_ZN4asio2ip7address11from_stringEPKcRSt10error_code, @function
_ZN4asio2ip7address11from_stringEPKcRSt10error_code:
.LFB5858:
	.cfi_startproc
	endbr64
	pushq	%r15
	.cfi_def_cfa_offset 16
	.cfi_offset 15, -16
	pxor	%xmm0, %xmm0
	pushq	%r14
	.cfi_def_cfa_offset 24
	.cfi_offset 14, -24
	pushq	%r13
	.cfi_def_cfa_offset 32
	.cfi_offset 13, -32
	pushq	%r12
	.cfi_def_cfa_offset 40
	.cfi_offset 12, -40
	movq	%rdi, %r12
	pushq	%rbp
	.cfi_def_cfa_offset 48
	.cfi_offset 6, -48
	movq	%rsi, %rbp
	pushq	%rbx
	.cfi_def_cfa_offset 56
	.cfi_offset 3, -56
	movq	%rdx, %rbx
	subq	$168, %rsp
	.cfi_def_cfa_offset 224
	movq	%fs:40, %rax
	movq	%rax, 152(%rsp)
	xorl	%eax, %eax
	movaps	%xmm0, 48(%rsp)
	movq	$0, 64(%rsp)
	call	__errno_location@PLT
	movl	$37, %esi
	movq	%rbp, %rdi
	movl	$0, (%rax)
	movq	%rax, %r13
	call	strchr@PLT
	testq	%rax, %rax
	je	.L1161
	movq	%rax, %r15
	movq	%rax, %r14
	subq	%rbp, %r15
	cmpq	$63, %r15
	jg	.L1193
	leaq	80(%rsp), %r8
	movl	$64, %ecx
	movq	%r15, %rdx
	movq	%rbp, %rsi
	movq	%r8, %rdi
	call	__memcpy_chk@PLT
	leaq	48(%rsp), %rdx
	movl	$10, %edi
	movb	$0, 80(%rsp,%r15)
	movq	%rax, %rsi
	call	inet_pton@PLT
	movl	%eax, %r15d
	call	_ZN4asio15system_categoryEv@PLT
	movl	0(%r13), %edx
	movq	%rax, 8(%rbx)
	movl	%edx, (%rbx)
	testl	%r15d, %r15d
	jle	.L1176
	movq	$0, 64(%rsp)
	movzbl	48(%rsp), %eax
	cmpb	$-2, %al
	je	.L1194
	cmpb	$-1, %al
	jne	.L1192
	movzbl	49(%rsp), %eax
	leaq	1(%r14), %r15
	andl	$15, %eax
	cmpb	$2, %al
	je	.L1166
.L1168:
	movl	$10, %edx
	xorl	%esi, %esi
	movq	%r15, %rdi
	call	strtol@PLT
	movl	(%rbx), %edx
	cltq
.L1167:
	movdqa	48(%rsp), %xmm0
	movaps	%xmm0, 16(%rsp)
	testl	%edx, %edx
	jne	.L1163
	movq	.LC22(%rip), %rdx
	movq	%rax, 24(%r12)
	movups	%xmm0, 56(%rsp)
	movq	%rdx, (%r12)
	movups	%xmm0, 8(%r12)
.L1160:
	movq	152(%rsp), %rax
	subq	%fs:40, %rax
	jne	.L1195
	addq	$168, %rsp
	.cfi_remember_state
	.cfi_def_cfa_offset 56
	movq	%r12, %rax
	popq	%rbx
	.cfi_def_cfa_offset 48
	popq	%rbp
	.cfi_def_cfa_offset 40
	popq	%r12
	.cfi_def_cfa_offset 32
	popq	%r13
	.cfi_def_cfa_offset 24
	popq	%r14
	.cfi_def_cfa_offset 16
	popq	%r15
	.cfi_def_cfa_offset 8
	ret
	.p2align 4,,10
	.p2align 3
.L1161:
	.cfi_restore_state
	leaq	48(%rsp), %rdx
	movq	%rbp, %rsi
	movl	$10, %edi
	call	inet_pton@PLT
	movl	%eax, %r14d
	call	_ZN4asio15system_categoryEv@PLT
	movl	0(%r13), %edx
	movq	%rax, 8(%rbx)
	xorl	%eax, %eax
	movl	%edx, (%rbx)
	testl	%r14d, %r14d
	jg	.L1167
.L1176:
	testl	%edx, %edx
	jne	.L1163
.L1193:
	call	_ZN4asio15system_categoryEv@PLT
	movl	$22, (%rbx)
	movq	%rax, 8(%rbx)
.L1163:
	movl	$0, 0(%r13)
	movq	%rbp, %rsi
	leaq	12(%rsp), %rdx
	movl	$2, %edi
	movl	$0, 12(%rsp)
	call	inet_pton@PLT
	movl	%eax, %ebp
	call	_ZN4asio15system_categoryEv@PLT
	movq	%rax, %r8
	movl	0(%r13), %eax
	movq	%r8, 8(%rbx)
	movl	%eax, (%rbx)
	testl	%ebp, %ebp
	jle	.L1196
	movl	12(%rsp), %edx
	testl	%eax, %eax
	jne	.L1173
	pxor	%xmm0, %xmm0
	movl	%edx, 4(%r12)
	movl	$0, (%r12)
	movq	$0, 24(%r12)
	movups	%xmm0, 56(%rsp)
	movups	%xmm0, 8(%r12)
	jmp	.L1160
	.p2align 4,,10
	.p2align 3
.L1196:
	testl	%eax, %eax
	je	.L1197
.L1173:
	pxor	%xmm0, %xmm0
	movq	$0, (%r12)
	movq	$0, 24(%r12)
	movups	%xmm0, 8(%r12)
	jmp	.L1160
	.p2align 4,,10
	.p2align 3
.L1194:
	movzbl	49(%rsp), %eax
	andl	$-64, %eax
	cmpb	$-128, %al
	je	.L1166
.L1192:
	leaq	1(%r14), %r15
	jmp	.L1168
	.p2align 4,,10
	.p2align 3
.L1166:
	leaq	1(%r14), %r15
	movq	%r15, %rdi
	call	if_nametoindex@PLT
	movl	%eax, %eax
	movq	%rax, 64(%rsp)
	testq	%rax, %rax
	je	.L1168
	movl	(%rbx), %edx
	jmp	.L1167
	.p2align 4,,10
	.p2align 3
.L1197:
	call	_ZN4asio15system_categoryEv@PLT
	movl	$22, (%rbx)
	movq	%rax, 8(%rbx)
	jmp	.L1173
.L1195:
	call	__stack_chk_fail@PLT
	.cfi_endproc
.LFE5858:
	.size	_ZN4asio2ip7address11from_stringEPKcRSt10error_code, .-_ZN4asio2ip7address11from_stringEPKcRSt10error_code
	.section	.text._ZN4asio6detail14strand_service16on_dispatch_exitD2Ev,"axG",@progbits,_ZN4asio6detail14strand_service16on_dispatch_exitD5Ev,comdat
	.align 2
	.p2align 4
	.weak	_ZN4asio6detail14strand_service16on_dispatch_exitD2Ev
	.type	_ZN4asio6detail14strand_service16on_dispatch_exitD2Ev, @function
_ZN4asio6detail14strand_service16on_dispatch_exitD2Ev:
.LFB6408:
	.cfi_startproc
	endbr64
	pushq	%rbp
	.cfi_def_cfa_offset 16
	.cfi_offset 6, -16
	pushq	%rbx
	.cfi_def_cfa_offset 24
	.cfi_offset 3, -24
	movq	%rdi, %rbx
	subq	$8, %rsp
	.cfi_def_cfa_offset 32
	movq	8(%rdi), %rax
	leaq	24(%rax), %rdi
	call	pthread_mutex_lock@PLT
	movq	8(%rbx), %rdi
	movq	72(%rdi), %rbp
	testq	%rbp, %rbp
	je	.L1205
	movq	96(%rdi), %rax
	testq	%rax, %rax
	je	.L1201
	movq	%rbp, (%rax)
	movq	88(%rdi), %rbp
.L1202:
	movq	80(%rdi), %rax
	pxor	%xmm0, %xmm0
	movups	%xmm0, 72(%rdi)
	movq	%rax, 96(%rdi)
.L1200:
	testq	%rbp, %rbp
	setne	64(%rdi)
	addq	$24, %rdi
	call	pthread_mutex_unlock@PLT
	testq	%rbp, %rbp
	jne	.L1206
	addq	$8, %rsp
	.cfi_remember_state
	.cfi_def_cfa_offset 24
	popq	%rbx
	.cfi_def_cfa_offset 16
	popq	%rbp
	.cfi_def_cfa_offset 8
	ret
	.p2align 4,,10
	.p2align 3
.L1201:
	.cfi_restore_state
	movq	%rbp, 88(%rdi)
	jmp	.L1202
	.p2align 4,,10
	.p2align 3
.L1206:
	movq	8(%rbx), %rsi
	movq	(%rbx), %rdi
	addq	$8, %rsp
	.cfi_remember_state
	.cfi_def_cfa_offset 24
	xorl	%edx, %edx
	popq	%rbx
	.cfi_def_cfa_offset 16
	popq	%rbp
	.cfi_def_cfa_offset 8
	jmp	_ZN4asio6detail15task_io_service25post_immediate_completionEPNS0_25task_io_service_operationEb@PLT
	.p2align 4,,10
	.p2align 3
.L1205:
	.cfi_restore_state
	movq	88(%rdi), %rbp
	jmp	.L1200
	.cfi_endproc
.LFE6408:
	.size	_ZN4asio6detail14strand_service16on_dispatch_exitD2Ev, .-_ZN4asio6detail14strand_service16on_dispatch_exitD2Ev
	.weak	_ZN4asio6detail14strand_service16on_dispatch_exitD1Ev
	.set	_ZN4asio6detail14strand_service16on_dispatch_exitD1Ev,_ZN4asio6detail14strand_service16on_dispatch_exitD2Ev
	.section	.text._ZN4asio6detail14strand_service11do_dispatchERPNS1_11strand_implEPNS0_25task_io_service_operationE,"axG",@progbits,_ZN4asio6detail14strand_service11do_dispatchERPNS1_11strand_implEPNS0_25task_io_service_operationE,comdat
	.align 2
	.p2align 4
	.weak	_ZN4asio6detail14strand_service11do_dispatchERPNS1_11strand_implEPNS0_25task_io_service_operationE
	.type	_ZN4asio6detail14strand_service11do_dispatchERPNS1_11strand_implEPNS0_25task_io_service_operationE, @function
_ZN4asio6detail14strand_service11do_dispatchERPNS1_11strand_implEPNS0_25task_io_service_operationE:
.LFB6425:
	.cfi_startproc
	endbr64
	pushq	%r14
	.cfi_def_cfa_offset 16
	.cfi_offset 14, -16
	movq	%rdx, %xmm0
	pushq	%r13
	.cfi_def_cfa_offset 24
	.cfi_offset 13, -24
	punpcklqdq	%xmm0, %xmm0
	movq	%rdi, %r13
	pushq	%r12
	.cfi_def_cfa_offset 32
	.cfi_offset 12, -32
	movq	%rsi, %r12
	pushq	%rbp
	.cfi_def_cfa_offset 40
	.cfi_offset 6, -40
	movq	%rdx, %rbp
	pushq	%rbx
	.cfi_def_cfa_offset 48
	.cfi_offset 3, -48
	subq	$16, %rsp
	.cfi_def_cfa_offset 64
	movq	40(%rdi), %rbx
	movaps	%xmm0, (%rsp)
	data16	leaq	_ZN4asio6detail15keyword_tss_ptrINS0_10call_stackINS0_15task_io_serviceENS0_27task_io_service_thread_infoEE7contextEE6value_E@tlsgd(%rip), %rdi
	.value	0x6666
	rex64
	call	__tls_get_addr@PLT
	movq	(%rax), %rax
	testq	%rax, %rax
	jne	.L1212
	jmp	.L1208
	.p2align 4,,10
	.p2align 3
.L1209:
	movq	16(%rax), %rax
	testq	%rax, %rax
	je	.L1208
.L1212:
	cmpq	(%rax), %rbx
	jne	.L1209
	movq	8(%rax), %rbx
	movq	(%r12), %rax
	leaq	24(%rax), %rdi
	call	pthread_mutex_lock@PLT
	testq	%rbx, %rbx
	je	.L1211
	movq	(%r12), %rax
	cmpb	$0, 64(%rax)
	leaq	24(%rax), %rdi
	je	.L1226
.L1213:
	movq	$0, 0(%rbp)
	movq	80(%rax), %rdx
	testq	%rdx, %rdx
	je	.L1216
	movq	%rbp, (%rdx)
	movq	%rbp, 80(%rax)
.L1217:
	call	pthread_mutex_unlock@PLT
	xorl	%r14d, %r14d
	addq	$16, %rsp
	.cfi_remember_state
	.cfi_def_cfa_offset 48
	popq	%rbx
	.cfi_def_cfa_offset 40
	movl	%r14d, %eax
	popq	%rbp
	.cfi_def_cfa_offset 32
	popq	%r12
	.cfi_def_cfa_offset 24
	popq	%r13
	.cfi_def_cfa_offset 16
	popq	%r14
	.cfi_def_cfa_offset 8
	ret
	.p2align 4,,10
	.p2align 3
.L1208:
	.cfi_restore_state
	movq	(%r12), %rax
	leaq	24(%rax), %rdi
	call	pthread_mutex_lock@PLT
.L1211:
	movq	(%r12), %rax
	movzbl	64(%rax), %r14d
	leaq	24(%rax), %rdi
	testb	%r14b, %r14b
	jne	.L1213
	movb	$1, 64(%rax)
	call	pthread_mutex_unlock@PLT
	movq	(%r12), %rsi
	movq	$0, 0(%rbp)
	cmpq	$0, 96(%rsi)
	je	.L1218
	movq	96(%rsi), %rax
	movq	%rbp, (%rax)
	movq	%rbp, 96(%rsi)
.L1219:
	movq	40(%r13), %rdi
	xorl	%edx, %edx
	call	_ZN4asio6detail15task_io_service25post_immediate_completionEPNS0_25task_io_service_operationEb@PLT
	addq	$16, %rsp
	.cfi_remember_state
	.cfi_def_cfa_offset 48
	movl	%r14d, %eax
	popq	%rbx
	.cfi_def_cfa_offset 40
	popq	%rbp
	.cfi_def_cfa_offset 32
	popq	%r12
	.cfi_def_cfa_offset 24
	popq	%r13
	.cfi_def_cfa_offset 16
	popq	%r14
	.cfi_def_cfa_offset 8
	ret
	.p2align 4,,10
	.p2align 3
.L1216:
	.cfi_restore_state
	movdqa	(%rsp), %xmm1
	movups	%xmm1, 72(%rax)
	jmp	.L1217
.L1218:
	movdqa	(%rsp), %xmm2
	movups	%xmm2, 88(%rsi)
	jmp	.L1219
	.p2align 4,,10
	.p2align 3
.L1226:
	movb	$1, 64(%rax)
	movl	$1, %r14d
	call	pthread_mutex_unlock@PLT
	addq	$16, %rsp
	.cfi_def_cfa_offset 48
	movl	%r14d, %eax
	popq	%rbx
	.cfi_def_cfa_offset 40
	popq	%rbp
	.cfi_def_cfa_offset 32
	popq	%r12
	.cfi_def_cfa_offset 24
	popq	%r13
	.cfi_def_cfa_offset 16
	popq	%r14
	.cfi_def_cfa_offset 8
	ret
	.cfi_endproc
.LFE6425:
	.size	_ZN4asio6detail14strand_service11do_dispatchERPNS1_11strand_implEPNS0_25task_io_service_operationE, .-_ZN4asio6detail14strand_service11do_dispatchERPNS1_11strand_implEPNS0_25task_io_service_operationE
	.section	.text._ZN4asio2ip20basic_resolver_queryINS0_3tcpEED2Ev,"axG",@progbits,_ZN4asio2ip20basic_resolver_queryINS0_3tcpEED5Ev,comdat
	.align 2
	.p2align 4
	.weak	_ZN4asio2ip20basic_resolver_queryINS0_3tcpEED2Ev
	.type	_ZN4asio2ip20basic_resolver_queryINS0_3tcpEED2Ev, @function
_ZN4asio2ip20basic_resolver_queryINS0_3tcpEED2Ev:
.LFB7090:
	.cfi_startproc
	endbr64
	pushq	%rbx
	.cfi_def_cfa_offset 16
	.cfi_offset 3, -16
	movq	%rdi, %rbx
	movq	80(%rdi), %rdi
	leaq	96(%rbx), %rax
	cmpq	%rax, %rdi
	je	.L1228
	movq	96(%rbx), %rax
	leaq	1(%rax), %rsi
	call	_ZdlPvm@PLT
.L1228:
	movq	48(%rbx), %rdi
	leaq	64(%rbx), %rax
	cmpq	%rax, %rdi
	je	.L1227
	movq	64(%rbx), %rsi
	popq	%rbx
	.cfi_remember_state
	.cfi_def_cfa_offset 8
	addq	$1, %rsi
	jmp	_ZdlPvm@PLT
	.p2align 4,,10
	.p2align 3
.L1227:
	.cfi_restore_state
	popq	%rbx
	.cfi_def_cfa_offset 8
	ret
	.cfi_endproc
.LFE7090:
	.size	_ZN4asio2ip20basic_resolver_queryINS0_3tcpEED2Ev, .-_ZN4asio2ip20basic_resolver_queryINS0_3tcpEED2Ev
	.weak	_ZN4asio2ip20basic_resolver_queryINS0_3tcpEED1Ev
	.set	_ZN4asio2ip20basic_resolver_queryINS0_3tcpEED1Ev,_ZN4asio2ip20basic_resolver_queryINS0_3tcpEED2Ev
	.section	.text.unlikely._ZN4asio6detail15throw_exceptionISt12system_errorEEvRKT_,"axG",@progbits,_ZN4asio6detail15throw_exceptionISt12system_errorEEvRKT_,comdat
	.weak	_ZN4asio6detail15throw_exceptionISt12system_errorEEvRKT_
	.type	_ZN4asio6detail15throw_exceptionISt12system_errorEEvRKT_, @function
_ZN4asio6detail15throw_exceptionISt12system_errorEEvRKT_:
.LFB7406:
	.cfi_startproc
	endbr64
	pushq	%rbp
	.cfi_def_cfa_offset 16
	.cfi_offset 6, -16
	pushq	%rbx
	.cfi_def_cfa_offset 24
	.cfi_offset 3, -24
	movq	%rdi, %rbx
	movl	$32, %edi
	pushq	%rax
	.cfi_def_cfa_offset 32
	call	__cxa_allocate_exception@PLT
	movq	%rbx, %rsi
	movq	%rax, %rdi
	movq	%rax, %rbp
	call	_ZNSt13runtime_errorC2ERKS_@PLT
	movq	_ZTVSt12system_error@GOTPCREL(%rip), %rax
	movups	16(%rbx), %xmm0
	movq	%rbp, %rdi
	movq	_ZNSt12system_errorD1Ev@GOTPCREL(%rip), %rdx
	movq	_ZTISt12system_error@GOTPCREL(%rip), %rsi
	addq	$16, %rax
	movups	%xmm0, 16(%rbp)
	movq	%rax, 0(%rbp)
	call	__cxa_throw@PLT
	.cfi_endproc
.LFE7406:
	.size	_ZN4asio6detail15throw_exceptionISt12system_errorEEvRKT_, .-_ZN4asio6detail15throw_exceptionISt12system_errorEEvRKT_
	.section	.text._ZN4asio6detail14do_throw_errorERKSt10error_code,"axG",@progbits,_ZN4asio6detail14do_throw_errorERKSt10error_code,comdat
	.p2align 4
	.weak	_ZN4asio6detail14do_throw_errorERKSt10error_code
	.type	_ZN4asio6detail14do_throw_errorERKSt10error_code, @function
_ZN4asio6detail14do_throw_errorERKSt10error_code:
.LFB2421:
	.cfi_startproc
	.cfi_personality 0x9b,DW.ref.__gxx_personality_v0
	.cfi_lsda 0x1b,.LLSDA2421
	endbr64
	pushq	%r13
	.cfi_def_cfa_offset 16
	.cfi_offset 13, -16
	pushq	%r12
	.cfi_def_cfa_offset 24
	.cfi_offset 12, -24
	pushq	%rbp
	.cfi_def_cfa_offset 32
	.cfi_offset 6, -32
	pushq	%rbx
	.cfi_def_cfa_offset 40
	.cfi_offset 3, -40
	subq	$88, %rsp
	.cfi_def_cfa_offset 128
	movq	8(%rdi), %rbx
	movl	(%rdi), %r12d
	movq	%fs:40, %rax
	movq	%rax, 72(%rsp)
	xorl	%eax, %eax
	leaq	32(%rsp), %rbp
	movq	%rsp, %r13
	movq	(%rbx), %rax
	movq	%rbx, %rsi
	movq	%rbp, %rdi
	movl	%r12d, %edx
.LEHB14:
	call	*32(%rax)
.LEHE14:
	movq	%rbp, %rsi
	movq	%r13, %rdi
.LEHB15:
	call	_ZNSt13runtime_errorC2ERKNSt7__cxx1112basic_stringIcSt11char_traitsIcESaIcEEE@PLT
.LEHE15:
	movq	32(%rsp), %rdi
	leaq	48(%rsp), %rax
	cmpq	%rax, %rdi
	je	.L1234
	movq	48(%rsp), %rax
	leaq	1(%rax), %rsi
	call	_ZdlPvm@PLT
.L1234:
	movq	_ZTVSt12system_error@GOTPCREL(%rip), %rax
	movq	%r13, %rdi
	movl	%r12d, 16(%rsp)
	movq	%rbx, 24(%rsp)
	addq	$16, %rax
	movq	%rax, (%rsp)
.LEHB16:
	call	_ZN4asio6detail15throw_exceptionISt12system_errorEEvRKT_@PLT
.LEHE16:
.L1240:
	endbr64
	movq	%rax, %rbp
	jmp	.L1235
.L1239:
	endbr64
	movq	%rax, %rbp
	jmp	.L1237
.L1235:
	movq	32(%rsp), %rdi
	leaq	48(%rsp), %rax
	cmpq	%rax, %rdi
	je	.L1242
	movq	48(%rsp), %rax
	leaq	1(%rax), %rsi
	call	_ZdlPvm@PLT
	jmp	.L1242
.L1237:
	movq	%r13, %rdi
	call	_ZNSt12system_errorD1Ev@PLT
.L1242:
	movq	%rbp, %rdi
.LEHB17:
	call	_Unwind_Resume@PLT
.LEHE17:
	.cfi_endproc
.LFE2421:
	.section	.gcc_except_table._ZN4asio6detail14do_throw_errorERKSt10error_code,"aG",@progbits,_ZN4asio6detail14do_throw_errorERKSt10error_code,comdat
.LLSDA2421:
	.byte	0xff
	.byte	0xff
	.byte	0x1
	.uleb128 .LLSDACSE2421-.LLSDACSB2421
.LLSDACSB2421:
	.uleb128 .LEHB14-.LFB2421
	.uleb128 .LEHE14-.LEHB14
	.uleb128 0
	.uleb128 0
	.uleb128 .LEHB15-.LFB2421
	.uleb128 .LEHE15-.LEHB15
	.uleb128 .L1240-.LFB2421
	.uleb128 0
	.uleb128 .LEHB16-.LFB2421
	.uleb128 .LEHE16-.LEHB16
	.uleb128 .L1239-.LFB2421
	.uleb128 0
	.uleb128 .LEHB17-.LFB2421
	.uleb128 .LEHE17-.LEHB17
	.uleb128 0
	.uleb128 0
.LLSDACSE2421:
	.section	.text._ZN4asio6detail14do_throw_errorERKSt10error_code,"axG",@progbits,_ZN4asio6detail14do_throw_errorERKSt10error_code,comdat
	.size	_ZN4asio6detail14do_throw_errorERKSt10error_code, .-_ZN4asio6detail14do_throw_errorERKSt10error_code
	.section	.text.asio_detail_posix_thread_function,"axG",@progbits,asio_detail_posix_thread_function,comdat
	.p2align 4
	.weak	asio_detail_posix_thread_function
	.type	asio_detail_posix_thread_function, @function
asio_detail_posix_thread_function:
.LFB6034:
	.cfi_startproc
	.cfi_personality 0x9b,DW.ref.__gxx_personality_v0
	.cfi_lsda 0x1b,.LLSDA6034
	endbr64
	pushq	%r15
	.cfi_def_cfa_offset 16
	.cfi_offset 15, -16
	pushq	%r14
	.cfi_def_cfa_offset 24
	.cfi_offset 14, -24
	pushq	%r13
	.cfi_def_cfa_offset 32
	.cfi_offset 13, -32
	pushq	%r12
	.cfi_def_cfa_offset 40
	.cfi_offset 12, -40
	pushq	%rbp
	.cfi_def_cfa_offset 48
	.cfi_offset 6, -48
	pushq	%rbx
	.cfi_def_cfa_offset 56
	.cfi_offset 3, -56
	subq	$216, %rsp
	.cfi_def_cfa_offset 272
	movq	%rdi, 16(%rsp)
	movq	%fs:40, %rax
	movq	%rax, 200(%rsp)
	movq	(%rdi), %rax
	movq	16(%rax), %rax
	cmpq	_ZN4asio6detail12posix_thread4funcINS0_21resolver_service_base22work_io_service_runnerEE3runEv@GOTPCREL(%rip), %rax
	jne	.L1244
	movq	8(%rdi), %rbx
	movl	$0, 64(%rsp)
	call	_ZNSt3_V215system_categoryEv@PLT
	movq	8(%rbx), %rbx
	movq	%rax, 8(%rsp)
	movq	%rax, 72(%rsp)
	leaq	184(%rbx), %rax
	leaq	48(%rbx), %rsi
	movq	%rax, (%rsp)
	movq	184(%rbx), %rax
	movq	%rsi, 24(%rsp)
	testq	%rax, %rax
	je	.L1347
	pxor	%xmm0, %xmm0
	leaq	88(%rbx), %r12
	leaq	160(%rsp), %r13
	movq	$0, 176(%rsp)
	movaps	%xmm0, 160(%rsp)
	movq	$0, 184(%rsp)
	movq	%rbx, 96(%rsp)
	movq	%r13, 104(%rsp)
	data16	leaq	_ZN4asio6detail15keyword_tss_ptrINS0_10call_stackINS0_15task_io_serviceENS0_27task_io_service_thread_infoEE7contextEE6value_E@tlsgd(%rip), %rdi
	.value	0x6666
	rex64
	call	__tls_get_addr@PLT
	movq	(%rax), %rdx
	movq	%rdx, 112(%rsp)
	leaq	96(%rsp), %rdx
	movq	%rdx, (%rax)
	movq	24(%rsp), %rax
	movq	%rax, %rdi
	movq	%rax, 80(%rsp)
	call	pthread_mutex_lock@PLT
	movb	$1, 88(%rsp)
	.p2align 4,,10
	.p2align 3
.L1248:
	cmpb	$0, 208(%rbx)
	jne	.L1348
.L1249:
	movq	192(%rbx), %r8
	testq	%r8, %r8
	je	.L1252
	movq	(%r8), %rax
	leaq	152(%rbx), %rdx
	movq	%rax, 192(%rbx)
	testq	%rax, %rax
	je	.L1349
	movq	$0, (%r8)
	movzbl	40(%rbx), %eax
	cmpq	%rdx, %r8
	jne	.L1350
	movb	$1, 176(%rbx)
	movzbl	88(%rsp), %edx
	xorl	%r15d, %r15d
	testb	%al, %al
	je	.L1351
	cmpb	$0, 88(%rsp)
	jne	.L1352
.L1257:
	movq	144(%rbx), %rdi
	leaq	80(%rsp), %rbp
	movl	%r15d, %esi
	leaq	168(%rsp), %rdx
	movq	%rbx, 128(%rsp)
	movq	%rbp, 136(%rsp)
	movq	%r13, 144(%rsp)
.LEHB18:
	call	_ZN4asio6detail13epoll_reactor3runEbRNS0_8op_queueINS0_25task_io_service_operationEEE@PLT
.LEHE18:
	movq	184(%rsp), %rax
	testq	%rax, %rax
	jg	.L1353
	movq	%rbp, %r14
	movq	%r13, %rbp
	movq	%rbx, %r15
	cmpb	$0, 8(%r14)
	movq	$0, 24(%rbp)
	je	.L1354
.L1259:
	movq	8(%rbp), %rax
	movb	$1, 176(%r15)
	testq	%rax, %rax
	je	.L1260
	movq	200(%r15), %rcx
	testq	%rcx, %rcx
	je	.L1261
	movq	%rax, (%rcx)
.L1262:
	movq	16(%rbp), %rax
	pxor	%xmm0, %xmm0
	movq	%rax, 200(%r15)
	movups	%xmm0, 8(%rbp)
.L1260:
	leaq	152(%r15), %rax
	movq	200(%r15), %rcx
	movq	$0, 152(%r15)
	movq	%rax, %xmm0
	punpcklqdq	%xmm0, %xmm0
	testq	%rcx, %rcx
	je	.L1263
	cmpb	$0, 208(%rbx)
	movq	%rax, (%rcx)
	movq	%rax, 200(%r15)
	je	.L1249
.L1348:
	cmpb	$0, 88(%rsp)
	jne	.L1355
.L1251:
	data16	leaq	_ZN4asio6detail15keyword_tss_ptrINS0_10call_stackINS0_15task_io_serviceENS0_27task_io_service_thread_infoEE7contextEE6value_E@tlsgd(%rip), %rdi
	.value	0x6666
	rex64
	call	__tls_get_addr@PLT
	movq	112(%rsp), %rdx
	movq	168(%rsp), %rsi
	leaq	128(%rsp), %rbx
	movq	%rdx, (%rax)
	testq	%rsi, %rsi
	jne	.L1284
.L1288:
	movq	160(%rsp), %rdi
	testq	%rdi, %rdi
	je	.L1247
	call	_ZdlPv@PLT
.L1247:
	movl	64(%rsp), %eax
	testl	%eax, %eax
	jne	.L1356
.L1294:
	movq	16(%rsp), %rdi
	movq	(%rdi), %rax
	call	*8(%rax)
	movq	200(%rsp), %rax
	subq	%fs:40, %rax
	jne	.L1357
	addq	$216, %rsp
	.cfi_remember_state
	.cfi_def_cfa_offset 56
	xorl	%eax, %eax
	popq	%rbx
	.cfi_def_cfa_offset 48
	popq	%rbp
	.cfi_def_cfa_offset 40
	popq	%r12
	.cfi_def_cfa_offset 32
	popq	%r13
	.cfi_def_cfa_offset 24
	popq	%r14
	.cfi_def_cfa_offset 16
	popq	%r15
	.cfi_def_cfa_offset 8
	ret
	.p2align 4,,10
	.p2align 3
.L1358:
	.cfi_restore_state
	movq	$0, 176(%rsp)
.L1287:
	movq	8(%rsp), %rcx
	movq	8(%rsi), %rax
	movq	%rbx, %rdx
	xorl	%edi, %edi
	movq	$0, (%rsi)
	movq	%rcx, 136(%rsp)
	xorl	%ecx, %ecx
	movl	$0, 128(%rsp)
	call	*%rax
	movq	168(%rsp), %rsi
	testq	%rsi, %rsi
	je	.L1288
.L1284:
	movq	(%rsi), %rax
	movq	%rax, 168(%rsp)
	testq	%rax, %rax
	jne	.L1287
	jmp	.L1358
	.p2align 4,,10
	.p2align 3
.L1353:
	movq	(%rsp), %rsi
	lock addq	%rax, (%rsi)
	movq	136(%rsp), %r14
	movq	144(%rsp), %rbp
	movq	128(%rsp), %r15
	cmpb	$0, 8(%r14)
	movq	$0, 24(%rbp)
	jne	.L1259
.L1354:
	movq	(%r14), %rdi
	call	pthread_mutex_lock@PLT
	movb	$1, 8(%r14)
	jmp	.L1259
	.p2align 4,,10
	.p2align 3
.L1349:
	movq	$0, 200(%rbx)
	movq	$0, (%r8)
	cmpq	%rdx, %r8
	jne	.L1359
	cmpb	$0, 88(%rsp)
	movb	$0, 176(%rbx)
	movl	$1, %r15d
	je	.L1257
.L1352:
	movq	80(%rsp), %rdi
	call	pthread_mutex_unlock@PLT
	movb	$0, 88(%rsp)
	jmp	.L1257
	.p2align 4,,10
	.p2align 3
.L1263:
	movups	%xmm0, 192(%r15)
	jmp	.L1248
	.p2align 4,,10
	.p2align 3
.L1351:
	movq	136(%rbx), %rbp
	orq	$1, %rbp
	movq	%rbp, 136(%rbx)
	testb	%dl, %dl
	jne	.L1360
.L1256:
	xorl	%r15d, %r15d
	cmpq	$1, %rbp
	je	.L1257
	movq	%r12, %rdi
	call	pthread_cond_signal@PLT
	jmp	.L1257
	.p2align 4,,10
	.p2align 3
.L1252:
	movq	136(%rbx), %rax
	andq	$-2, %rax
	.p2align 4,,10
	.p2align 3
.L1279:
	addq	$2, %rax
	movq	80(%rsp), %rsi
	movq	%r12, %rdi
	movq	%rax, 136(%rbx)
.LEHB19:
	call	pthread_cond_wait@PLT
.LEHE19:
	movq	136(%rbx), %rax
	subq	$2, %rax
	movq	%rax, 136(%rbx)
	testb	$1, %al
	je	.L1279
	jmp	.L1248
	.p2align 4,,10
	.p2align 3
.L1261:
	movq	%rax, 192(%r15)
	jmp	.L1262
	.p2align 4,,10
	.p2align 3
.L1360:
	movq	80(%rsp), %rdi
	call	pthread_mutex_unlock@PLT
	movb	$0, 88(%rsp)
	jmp	.L1256
	.p2align 4,,10
	.p2align 3
.L1350:
	movl	16(%r8), %ecx
	testb	%al, %al
	je	.L1361
	cmpb	$0, 88(%rsp)
	leaq	80(%rsp), %rbp
	jne	.L1362
.L1266:
	movq	%rbx, 128(%rsp)
	leaq	64(%rsp), %rdx
	movq	%r8, %rsi
	movq	%rbx, %rdi
	movq	%rbp, 136(%rsp)
	movq	%r13, 144(%rsp)
.LEHB20:
	call	*8(%r8)
.LEHE20:
	movq	184(%rsp), %rax
	cmpq	$1, %rax
	jg	.L1363
	movq	%r13, %rbp
	je	.L1268
	movq	(%rsp), %rsi
	lock subq	$1, (%rsi)
	je	.L1269
.L1345:
	movq	144(%rsp), %rbp
.L1268:
	movq	8(%rbp), %rax
	movq	$0, 24(%rbp)
	testq	%rax, %rax
	je	.L1272
	movq	136(%rsp), %rcx
	movq	128(%rsp), %rdx
	cmpb	$0, 8(%rcx)
	je	.L1364
.L1273:
	movq	200(%rdx), %rcx
	testq	%rcx, %rcx
	je	.L1275
	movq	%rax, (%rcx)
.L1276:
	movq	16(%rbp), %rax
	pxor	%xmm0, %xmm0
	movq	%rax, 200(%rdx)
	movups	%xmm0, 8(%rbp)
.L1272:
	cmpb	$0, 88(%rsp)
	jne	.L1248
	movq	80(%rsp), %rdi
	call	pthread_mutex_lock@PLT
	movb	$1, 88(%rsp)
	jmp	.L1248
	.p2align 4,,10
	.p2align 3
.L1363:
	movq	(%rsp), %rsi
	subq	$1, %rax
	lock addq	%rax, (%rsi)
	movq	144(%rsp), %rbp
	jmp	.L1268
.L1359:
	cmpb	$0, 88(%rsp)
	movl	16(%r8), %ecx
	leaq	80(%rsp), %rbp
	je	.L1266
.L1362:
	movq	80(%rsp), %rdi
	movq	%rcx, 40(%rsp)
	movq	%r8, 32(%rsp)
	call	pthread_mutex_unlock@PLT
	movb	$0, 88(%rsp)
	movq	40(%rsp), %rcx
	movq	32(%rsp), %r8
	jmp	.L1266
.L1364:
	movq	(%rcx), %rdi
	movq	%rdx, 40(%rsp)
	movq	%rcx, 32(%rsp)
	call	pthread_mutex_lock@PLT
	movq	8(%rbp), %rax
	movq	32(%rsp), %rcx
	movq	40(%rsp), %rdx
	testq	%rax, %rax
	movb	$1, 8(%rcx)
	je	.L1272
	jmp	.L1273
	.p2align 4,,10
	.p2align 3
.L1361:
	leaq	80(%rsp), %rbp
	movq	%rbx, %rdi
	movq	%rcx, 40(%rsp)
	movq	%rbp, %rsi
	movq	%r8, 32(%rsp)
	call	_ZN4asio6detail15task_io_service26wake_one_thread_and_unlockERNS0_11scoped_lockINS0_11posix_mutexEEE@PLT
	movq	32(%rsp), %r8
	movq	40(%rsp), %rcx
	jmp	.L1266
.L1275:
	movq	%rax, 192(%rdx)
	jmp	.L1276
.L1347:
	movq	%rsi, %rdi
	call	pthread_mutex_lock@PLT
	movb	$1, 208(%rbx)
	leaq	88(%rbx), %rdi
	orq	$1, 136(%rbx)
	call	pthread_cond_broadcast@PLT
	cmpb	$0, 176(%rbx)
	jne	.L1246
	movq	144(%rbx), %rax
	testq	%rax, %rax
	je	.L1246
	movb	$1, 176(%rbx)
	leaq	88(%rax), %rdx
	movl	$3, %esi
	leaq	160(%rsp), %rcx
	movq	%rdx, 164(%rsp)
	movl	88(%rax), %edx
	movl	$-2147483639, 160(%rsp)
	movl	96(%rax), %edi
	call	epoll_ctl@PLT
.L1246:
	movq	24(%rsp), %rdi
	call	pthread_mutex_unlock@PLT
	jmp	.L1247
.L1244:
.LEHB21:
	call	*%rax
	jmp	.L1294
.L1269:
	movq	24(%rsp), %rdi
	call	pthread_mutex_lock@PLT
	orq	$1, 136(%rbx)
	movq	%r12, %rdi
	movb	$1, 208(%rbx)
	call	pthread_cond_broadcast@PLT
	cmpb	$0, 176(%rbx)
	jne	.L1270
	movq	144(%rbx), %rax
	testq	%rax, %rax
	je	.L1270
	leaq	88(%rax), %rdx
	movb	$1, 176(%rbx)
	movl	96(%rax), %edi
	leaq	52(%rsp), %rcx
	movq	%rdx, 56(%rsp)
	movl	88(%rax), %edx
	movl	$3, %esi
	movl	$-2147483639, 52(%rsp)
	call	epoll_ctl@PLT
.L1270:
	movq	24(%rsp), %rdi
	call	pthread_mutex_unlock@PLT
	jmp	.L1345
	.p2align 4,,10
	.p2align 3
.L1355:
	movq	80(%rsp), %rdi
	call	pthread_mutex_unlock@PLT
	jmp	.L1251
.L1357:
	call	__stack_chk_fail@PLT
.L1356:
	leaq	64(%rsp), %rdi
	call	_ZN4asio6detail14do_throw_errorERKSt10error_code@PLT
.LEHE21:
.L1306:
	endbr64
	movq	%rax, %rbx
	jmp	.L1282
.L1305:
	endbr64
	movq	%rax, %rbx
	jmp	.L1293
.L1281:
	leaq	128(%rsp), %rdi
	call	_ZN4asio6detail15task_io_service12task_cleanupD1Ev@PLT
.L1282:
	cmpb	$0, 88(%rsp)
	je	.L1292
	movq	80(%rsp), %rdi
	call	pthread_mutex_unlock@PLT
.L1292:
	data16	leaq	_ZN4asio6detail15keyword_tss_ptrINS0_10call_stackINS0_15task_io_serviceENS0_27task_io_service_thread_infoEE7contextEE6value_E@tlsgd(%rip), %rdi
	.value	0x6666
	rex64
	call	__tls_get_addr@PLT
	movq	112(%rsp), %rdx
	movq	%r13, %rdi
	movq	%rdx, (%rax)
	call	_ZN4asio6detail27task_io_service_thread_infoD1Ev@PLT
.L1293:
	movq	16(%rsp), %rdi
	movq	(%rdi), %rax
	call	*8(%rax)
	movq	%rbx, %rdi
.LEHB22:
	call	_Unwind_Resume@PLT
.LEHE22:
.L1307:
	endbr64
	movq	%rax, %rbx
	jmp	.L1283
.L1308:
	endbr64
	movq	%rax, %rbx
	jmp	.L1281
.L1283:
	leaq	128(%rsp), %rdi
	call	_ZN4asio6detail15task_io_service12work_cleanupD1Ev@PLT
	jmp	.L1282
	.cfi_endproc
.LFE6034:
	.section	.gcc_except_table.asio_detail_posix_thread_function,"aG",@progbits,asio_detail_posix_thread_function,comdat
.LLSDA6034:
	.byte	0xff
	.byte	0xff
	.byte	0x1
	.uleb128 .LLSDACSE6034-.LLSDACSB6034
.LLSDACSB6034:
	.uleb128 .LEHB18-.LFB6034
	.uleb128 .LEHE18-.LEHB18
	.uleb128 .L1308-.LFB6034
	.uleb128 0
	.uleb128 .LEHB19-.LFB6034
	.uleb128 .LEHE19-.LEHB19
	.uleb128 .L1306-.LFB6034
	.uleb128 0
	.uleb128 .LEHB20-.LFB6034
	.uleb128 .LEHE20-.LEHB20
	.uleb128 .L1307-.LFB6034
	.uleb128 0
	.uleb128 .LEHB21-.LFB6034
	.uleb128 .LEHE21-.LEHB21
	.uleb128 .L1305-.LFB6034
	.uleb128 0
	.uleb128 .LEHB22-.LFB6034
	.uleb128 .LEHE22-.LEHB22
	.uleb128 0
	.uleb128 0
.LLSDACSE6034:
	.section	.text.asio_detail_posix_thread_function,"axG",@progbits,asio_detail_posix_thread_function,comdat
	.size	asio_detail_posix_thread_function, .-asio_detail_posix_thread_function
	.section	.text._ZN4asio6detail12posix_thread4funcINS0_21resolver_service_base22work_io_service_runnerEE3runEv,"axG",@progbits,_ZN4asio6detail12posix_thread4funcINS0_21resolver_service_base22work_io_service_runnerEE3runEv,comdat
	.align 2
	.p2align 4
	.weak	_ZN4asio6detail12posix_thread4funcINS0_21resolver_service_base22work_io_service_runnerEE3runEv
	.type	_ZN4asio6detail12posix_thread4funcINS0_21resolver_service_base22work_io_service_runnerEE3runEv, @function
_ZN4asio6detail12posix_thread4funcINS0_21resolver_service_base22work_io_service_runnerEE3runEv:
.LFB10291:
	.cfi_startproc
	.cfi_personality 0x9b,DW.ref.__gxx_personality_v0
	.cfi_lsda 0x1b,.LLSDA10291
	endbr64
	pushq	%r15
	.cfi_def_cfa_offset 16
	.cfi_offset 15, -16
	pushq	%r14
	.cfi_def_cfa_offset 24
	.cfi_offset 14, -24
	pushq	%r13
	.cfi_def_cfa_offset 32
	.cfi_offset 13, -32
	pushq	%r12
	.cfi_def_cfa_offset 40
	.cfi_offset 12, -40
	pushq	%rbp
	.cfi_def_cfa_offset 48
	.cfi_offset 6, -48
	pushq	%rbx
	.cfi_def_cfa_offset 56
	.cfi_offset 3, -56
	subq	$216, %rsp
	.cfi_def_cfa_offset 272
	movq	8(%rdi), %rbx
	movq	%fs:40, %rax
	movq	%rax, 200(%rsp)
	xorl	%eax, %eax
	movl	$0, 64(%rsp)
	call	_ZNSt3_V215system_categoryEv@PLT
	movq	8(%rbx), %rbx
	movq	%rax, 16(%rsp)
	movq	%rax, 72(%rsp)
	leaq	184(%rbx), %rax
	leaq	48(%rbx), %rsi
	movq	%rax, 8(%rsp)
	movq	184(%rbx), %rax
	movq	%rsi, 24(%rsp)
	testq	%rax, %rax
	je	.L1465
	pxor	%xmm0, %xmm0
	leaq	88(%rbx), %r12
	leaq	160(%rsp), %r13
	movq	$0, 176(%rsp)
	movaps	%xmm0, 160(%rsp)
	movq	$0, 184(%rsp)
	movq	%rbx, 96(%rsp)
	movq	%r13, 104(%rsp)
	data16	leaq	_ZN4asio6detail15keyword_tss_ptrINS0_10call_stackINS0_15task_io_serviceENS0_27task_io_service_thread_infoEE7contextEE6value_E@tlsgd(%rip), %rdi
	.value	0x6666
	rex64
	call	__tls_get_addr@PLT
	movq	(%rax), %rdx
	movq	%rdx, 112(%rsp)
	leaq	96(%rsp), %rdx
	movq	%rdx, (%rax)
	movq	24(%rsp), %rax
	movq	%rax, %rdi
	movq	%rax, 80(%rsp)
	call	pthread_mutex_lock@PLT
	movb	$1, 88(%rsp)
	.p2align 4,,10
	.p2align 3
.L1369:
	cmpb	$0, 208(%rbx)
	jne	.L1466
.L1370:
	movq	192(%rbx), %r8
	testq	%r8, %r8
	je	.L1373
	movq	(%r8), %rax
	leaq	152(%rbx), %rdx
	movq	%rax, 192(%rbx)
	testq	%rax, %rax
	je	.L1467
	movq	$0, (%r8)
	movzbl	40(%rbx), %eax
	cmpq	%rdx, %r8
	jne	.L1468
	movb	$1, 176(%rbx)
	movzbl	88(%rsp), %edx
	xorl	%r15d, %r15d
	testb	%al, %al
	je	.L1469
	cmpb	$0, 88(%rsp)
	jne	.L1470
.L1378:
	movq	144(%rbx), %rdi
	leaq	80(%rsp), %rbp
	movl	%r15d, %esi
	leaq	168(%rsp), %rdx
	movq	%rbx, 128(%rsp)
	movq	%rbp, 136(%rsp)
	movq	%r13, 144(%rsp)
.LEHB23:
	call	_ZN4asio6detail13epoll_reactor3runEbRNS0_8op_queueINS0_25task_io_service_operationEEE@PLT
.LEHE23:
	movq	184(%rsp), %rax
	testq	%rax, %rax
	jg	.L1471
	movq	%rbp, %r14
	movq	%r13, %rbp
	movq	%rbx, %r15
	cmpb	$0, 8(%r14)
	movq	$0, 24(%rbp)
	je	.L1472
.L1380:
	movq	8(%rbp), %rax
	movb	$1, 176(%r15)
	testq	%rax, %rax
	je	.L1381
	movq	200(%r15), %rcx
	testq	%rcx, %rcx
	je	.L1382
	movq	%rax, (%rcx)
.L1383:
	movq	16(%rbp), %rax
	pxor	%xmm0, %xmm0
	movq	%rax, 200(%r15)
	movups	%xmm0, 8(%rbp)
.L1381:
	leaq	152(%r15), %rax
	movq	200(%r15), %rcx
	movq	$0, 152(%r15)
	movq	%rax, %xmm0
	punpcklqdq	%xmm0, %xmm0
	testq	%rcx, %rcx
	je	.L1384
	cmpb	$0, 208(%rbx)
	movq	%rax, (%rcx)
	movq	%rax, 200(%r15)
	je	.L1370
.L1466:
	cmpb	$0, 88(%rsp)
	jne	.L1473
.L1372:
	data16	leaq	_ZN4asio6detail15keyword_tss_ptrINS0_10call_stackINS0_15task_io_serviceENS0_27task_io_service_thread_infoEE7contextEE6value_E@tlsgd(%rip), %rdi
	.value	0x6666
	rex64
	call	__tls_get_addr@PLT
	movq	112(%rsp), %rdx
	movq	168(%rsp), %rsi
	leaq	128(%rsp), %rbx
	movq	%rdx, (%rax)
	testq	%rsi, %rsi
	jne	.L1405
	jmp	.L1409
	.p2align 4,,10
	.p2align 3
.L1408:
	movq	16(%rsp), %rcx
	movq	8(%rsi), %rax
	movq	%rbx, %rdx
	xorl	%edi, %edi
	movq	$0, (%rsi)
	movq	%rcx, 136(%rsp)
	xorl	%ecx, %ecx
	movl	$0, 128(%rsp)
	call	*%rax
	movq	168(%rsp), %rsi
	testq	%rsi, %rsi
	je	.L1409
.L1405:
	movq	(%rsi), %rax
	movq	%rax, 168(%rsp)
	testq	%rax, %rax
	jne	.L1408
	movq	$0, 176(%rsp)
	jmp	.L1408
	.p2align 4,,10
	.p2align 3
.L1471:
	movq	8(%rsp), %rsi
	lock addq	%rax, (%rsi)
	movq	136(%rsp), %r14
	movq	144(%rsp), %rbp
	movq	128(%rsp), %r15
	cmpb	$0, 8(%r14)
	movq	$0, 24(%rbp)
	jne	.L1380
.L1472:
	movq	(%r14), %rdi
	call	pthread_mutex_lock@PLT
	movb	$1, 8(%r14)
	jmp	.L1380
	.p2align 4,,10
	.p2align 3
.L1467:
	movq	$0, 200(%rbx)
	movq	$0, (%r8)
	cmpq	%rdx, %r8
	jne	.L1474
	cmpb	$0, 88(%rsp)
	movb	$0, 176(%rbx)
	movl	$1, %r15d
	je	.L1378
.L1470:
	movq	80(%rsp), %rdi
	call	pthread_mutex_unlock@PLT
	movb	$0, 88(%rsp)
	jmp	.L1378
	.p2align 4,,10
	.p2align 3
.L1384:
	movups	%xmm0, 192(%r15)
	jmp	.L1369
	.p2align 4,,10
	.p2align 3
.L1469:
	movq	136(%rbx), %rbp
	orq	$1, %rbp
	movq	%rbp, 136(%rbx)
	testb	%dl, %dl
	jne	.L1475
.L1377:
	xorl	%r15d, %r15d
	cmpq	$1, %rbp
	je	.L1378
	movq	%r12, %rdi
	call	pthread_cond_signal@PLT
	jmp	.L1378
	.p2align 4,,10
	.p2align 3
.L1373:
	movq	136(%rbx), %rax
	andq	$-2, %rax
	.p2align 4,,10
	.p2align 3
.L1400:
	addq	$2, %rax
	movq	80(%rsp), %rsi
	movq	%r12, %rdi
	movq	%rax, 136(%rbx)
.LEHB24:
	call	pthread_cond_wait@PLT
.LEHE24:
	movq	136(%rbx), %rax
	subq	$2, %rax
	movq	%rax, 136(%rbx)
	testb	$1, %al
	je	.L1400
	jmp	.L1369
	.p2align 4,,10
	.p2align 3
.L1382:
	movq	%rax, 192(%r15)
	jmp	.L1383
	.p2align 4,,10
	.p2align 3
.L1475:
	movq	80(%rsp), %rdi
	call	pthread_mutex_unlock@PLT
	movb	$0, 88(%rsp)
	jmp	.L1377
	.p2align 4,,10
	.p2align 3
.L1468:
	movl	16(%r8), %ecx
	testb	%al, %al
	je	.L1476
	cmpb	$0, 88(%rsp)
	leaq	80(%rsp), %rbp
	jne	.L1477
.L1387:
	movq	%rbx, 128(%rsp)
	leaq	64(%rsp), %rdx
	movq	%r8, %rsi
	movq	%rbx, %rdi
	movq	%rbp, 136(%rsp)
	movq	%r13, 144(%rsp)
.LEHB25:
	call	*8(%r8)
.LEHE25:
	movq	184(%rsp), %rax
	cmpq	$1, %rax
	jg	.L1478
	movq	%r13, %rbp
	je	.L1389
	movq	8(%rsp), %rsi
	lock subq	$1, (%rsi)
	je	.L1390
.L1463:
	movq	144(%rsp), %rbp
.L1389:
	movq	8(%rbp), %rax
	movq	$0, 24(%rbp)
	testq	%rax, %rax
	je	.L1393
	movq	136(%rsp), %rcx
	movq	128(%rsp), %rdx
	cmpb	$0, 8(%rcx)
	je	.L1479
.L1394:
	movq	200(%rdx), %rcx
	testq	%rcx, %rcx
	je	.L1396
	movq	%rax, (%rcx)
.L1397:
	movq	16(%rbp), %rax
	pxor	%xmm0, %xmm0
	movq	%rax, 200(%rdx)
	movups	%xmm0, 8(%rbp)
.L1393:
	cmpb	$0, 88(%rsp)
	jne	.L1369
	movq	80(%rsp), %rdi
	call	pthread_mutex_lock@PLT
	movb	$1, 88(%rsp)
	jmp	.L1369
	.p2align 4,,10
	.p2align 3
.L1478:
	movq	8(%rsp), %rsi
	subq	$1, %rax
	lock addq	%rax, (%rsi)
	movq	144(%rsp), %rbp
	jmp	.L1389
.L1474:
	cmpb	$0, 88(%rsp)
	movl	16(%r8), %ecx
	leaq	80(%rsp), %rbp
	je	.L1387
.L1477:
	movq	80(%rsp), %rdi
	movq	%rcx, 40(%rsp)
	movq	%r8, 32(%rsp)
	call	pthread_mutex_unlock@PLT
	movb	$0, 88(%rsp)
	movq	40(%rsp), %rcx
	movq	32(%rsp), %r8
	jmp	.L1387
.L1409:
	movq	160(%rsp), %rdi
	testq	%rdi, %rdi
	je	.L1368
	call	_ZdlPv@PLT
.L1368:
	movl	64(%rsp), %eax
	testl	%eax, %eax
	jne	.L1480
	movq	200(%rsp), %rax
	subq	%fs:40, %rax
	jne	.L1481
	addq	$216, %rsp
	.cfi_remember_state
	.cfi_def_cfa_offset 56
	popq	%rbx
	.cfi_def_cfa_offset 48
	popq	%rbp
	.cfi_def_cfa_offset 40
	popq	%r12
	.cfi_def_cfa_offset 32
	popq	%r13
	.cfi_def_cfa_offset 24
	popq	%r14
	.cfi_def_cfa_offset 16
	popq	%r15
	.cfi_def_cfa_offset 8
	ret
.L1476:
	.cfi_restore_state
	leaq	80(%rsp), %rbp
	movq	%rbx, %rdi
	movq	%rcx, 40(%rsp)
	movq	%rbp, %rsi
	movq	%r8, 32(%rsp)
	call	_ZN4asio6detail15task_io_service26wake_one_thread_and_unlockERNS0_11scoped_lockINS0_11posix_mutexEEE@PLT
	movq	32(%rsp), %r8
	movq	40(%rsp), %rcx
	jmp	.L1387
.L1479:
	movq	(%rcx), %rdi
	movq	%rdx, 40(%rsp)
	movq	%rcx, 32(%rsp)
	call	pthread_mutex_lock@PLT
	movq	8(%rbp), %rax
	movq	32(%rsp), %rcx
	movq	40(%rsp), %rdx
	testq	%rax, %rax
	movb	$1, 8(%rcx)
	je	.L1393
	jmp	.L1394
.L1396:
	movq	%rax, 192(%rdx)
	jmp	.L1397
.L1465:
	movq	%rsi, %rdi
	call	pthread_mutex_lock@PLT
	movb	$1, 208(%rbx)
	leaq	88(%rbx), %rdi
	orq	$1, 136(%rbx)
	call	pthread_cond_broadcast@PLT
	cmpb	$0, 176(%rbx)
	jne	.L1367
	movq	144(%rbx), %rax
	testq	%rax, %rax
	je	.L1367
	movb	$1, 176(%rbx)
	leaq	88(%rax), %rdx
	movl	$3, %esi
	leaq	160(%rsp), %rcx
	movq	%rdx, 164(%rsp)
	movl	88(%rax), %edx
	movl	$-2147483639, 160(%rsp)
	movl	96(%rax), %edi
	call	epoll_ctl@PLT
.L1367:
	movq	24(%rsp), %rdi
	call	pthread_mutex_unlock@PLT
	jmp	.L1368
.L1390:
	movq	24(%rsp), %rdi
	call	pthread_mutex_lock@PLT
	orq	$1, 136(%rbx)
	movq	%r12, %rdi
	movb	$1, 208(%rbx)
	call	pthread_cond_broadcast@PLT
	cmpb	$0, 176(%rbx)
	jne	.L1391
	movq	144(%rbx), %rax
	testq	%rax, %rax
	je	.L1391
	leaq	88(%rax), %rdx
	movb	$1, 176(%rbx)
	movl	96(%rax), %edi
	leaq	52(%rsp), %rcx
	movq	%rdx, 56(%rsp)
	movl	88(%rax), %edx
	movl	$3, %esi
	movl	$-2147483639, 52(%rsp)
	call	epoll_ctl@PLT
.L1391:
	movq	24(%rsp), %rdi
	call	pthread_mutex_unlock@PLT
	jmp	.L1463
	.p2align 4,,10
	.p2align 3
.L1473:
	movq	80(%rsp), %rdi
	call	pthread_mutex_unlock@PLT
	jmp	.L1372
.L1481:
	call	__stack_chk_fail@PLT
.L1480:
	leaq	64(%rsp), %rdi
.LEHB26:
	call	_ZN4asio6detail14do_throw_errorERKSt10error_code@PLT
.L1424:
	endbr64
	movq	%rax, %rbp
	jmp	.L1403
.L1426:
	endbr64
	movq	%rax, %rbp
	jmp	.L1402
.L1425:
	endbr64
	movq	%rax, %rbp
	jmp	.L1404
.L1402:
	leaq	128(%rsp), %rdi
	call	_ZN4asio6detail15task_io_service12task_cleanupD1Ev@PLT
.L1403:
	cmpb	$0, 88(%rsp)
	je	.L1413
	movq	80(%rsp), %rdi
	call	pthread_mutex_unlock@PLT
.L1413:
	data16	leaq	_ZN4asio6detail15keyword_tss_ptrINS0_10call_stackINS0_15task_io_serviceENS0_27task_io_service_thread_infoEE7contextEE6value_E@tlsgd(%rip), %rdi
	.value	0x6666
	rex64
	call	__tls_get_addr@PLT
	movq	112(%rsp), %rdx
	movq	%r13, %rdi
	movq	%rdx, (%rax)
	call	_ZN4asio6detail27task_io_service_thread_infoD1Ev@PLT
	movq	%rbp, %rdi
	call	_Unwind_Resume@PLT
.LEHE26:
.L1404:
	leaq	128(%rsp), %rdi
	call	_ZN4asio6detail15task_io_service12work_cleanupD1Ev@PLT
	jmp	.L1403
	.cfi_endproc
.LFE10291:
	.section	.gcc_except_table._ZN4asio6detail12posix_thread4funcINS0_21resolver_service_base22work_io_service_runnerEE3runEv,"aG",@progbits,_ZN4asio6detail12posix_thread4funcINS0_21resolver_service_base22work_io_service_runnerEE3runEv,comdat
.LLSDA10291:
	.byte	0xff
	.byte	0xff
	.byte	0x1
	.uleb128 .LLSDACSE10291-.LLSDACSB10291
.LLSDACSB10291:
	.uleb128 .LEHB23-.LFB10291
	.uleb128 .LEHE23-.LEHB23
	.uleb128 .L1426-.LFB10291
	.uleb128 0
	.uleb128 .LEHB24-.LFB10291
	.uleb128 .LEHE24-.LEHB24
	.uleb128 .L1424-.LFB10291
	.uleb128 0
	.uleb128 .LEHB25-.LFB10291
	.uleb128 .LEHE25-.LEHB25
	.uleb128 .L1425-.LFB10291
	.uleb128 0
	.uleb128 .LEHB26-.LFB10291
	.uleb128 .LEHE26-.LEHB26
	.uleb128 0
	.uleb128 0
.LLSDACSE10291:
	.section	.text._ZN4asio6detail12posix_thread4funcINS0_21resolver_service_base22work_io_service_runnerEE3runEv,"axG",@progbits,_ZN4asio6detail12posix_thread4funcINS0_21resolver_service_base22work_io_service_runnerEE3runEv,comdat
	.size	_ZN4asio6detail12posix_thread4funcINS0_21resolver_service_base22work_io_service_runnerEE3runEv, .-_ZN4asio6detail12posix_thread4funcINS0_21resolver_service_base22work_io_service_runnerEE3runEv
	.section	.text._ZN4asio6detail14do_throw_errorERKSt10error_codePKc,"axG",@progbits,_ZN4asio6detail14do_throw_errorERKSt10error_codePKc,comdat
	.p2align 4
	.weak	_ZN4asio6detail14do_throw_errorERKSt10error_codePKc
	.type	_ZN4asio6detail14do_throw_errorERKSt10error_codePKc, @function
_ZN4asio6detail14do_throw_errorERKSt10error_codePKc:
.LFB2422:
	.cfi_startproc
	.cfi_personality 0x9b,DW.ref.__gxx_personality_v0
	.cfi_lsda 0x1b,.LLSDA2422
	endbr64
	pushq	%r12
	.cfi_def_cfa_offset 16
	.cfi_offset 12, -16
	movq	%rsi, %rcx
	pushq	%rbp
	.cfi_def_cfa_offset 24
	.cfi_offset 6, -24
	subq	$56, %rsp
	.cfi_def_cfa_offset 80
	movl	(%rdi), %esi
	movq	8(%rdi), %rdx
	movq	%fs:40, %rax
	movq	%rax, 40(%rsp)
	xorl	%eax, %eax
	movq	%rsp, %rbp
	movq	%rbp, %rdi
.LEHB27:
	call	_ZNSt12system_errorC1ESt10error_codePKc@PLT
.LEHE27:
	movq	%rbp, %rdi
.LEHB28:
	call	_ZN4asio6detail15throw_exceptionISt12system_errorEEvRKT_@PLT
.LEHE28:
.L1485:
	endbr64
	movq	%rax, %r12
.L1483:
	movq	%rbp, %rdi
	call	_ZNSt12system_errorD1Ev@PLT
	movq	%r12, %rdi
.LEHB29:
	call	_Unwind_Resume@PLT
.LEHE29:
	.cfi_endproc
.LFE2422:
	.section	.gcc_except_table._ZN4asio6detail14do_throw_errorERKSt10error_codePKc,"aG",@progbits,_ZN4asio6detail14do_throw_errorERKSt10error_codePKc,comdat
.LLSDA2422:
	.byte	0xff
	.byte	0xff
	.byte	0x1
	.uleb128 .LLSDACSE2422-.LLSDACSB2422
.LLSDACSB2422:
	.uleb128 .LEHB27-.LFB2422
	.uleb128 .LEHE27-.LEHB27
	.uleb128 0
	.uleb128 0
	.uleb128 .LEHB28-.LFB2422
	.uleb128 .LEHE28-.LEHB28
	.uleb128 .L1485-.LFB2422
	.uleb128 0
	.uleb128 .LEHB29-.LFB2422
	.uleb128 .LEHE29-.LEHB29
	.uleb128 0
	.uleb128 0
.LLSDACSE2422:
	.section	.text._ZN4asio6detail14do_throw_errorERKSt10error_codePKc,"axG",@progbits,_ZN4asio6detail14do_throw_errorERKSt10error_codePKc,comdat
	.size	_ZN4asio6detail14do_throw_errorERKSt10error_codePKc, .-_ZN4asio6detail14do_throw_errorERKSt10error_codePKc
	.section	.rodata._ZN4asio6detail13epoll_reactor12fork_serviceENS_10io_service10fork_eventE.str1.1,"aMS",@progbits,1
.LC23:
	.string	"epoll"
.LC25:
	.string	"eventfd_select_interrupter"
.LC26:
	.string	"epoll re-registration"
	.section	.text._ZN4asio6detail13epoll_reactor12fork_serviceENS_10io_service10fork_eventE,"axG",@progbits,_ZN4asio6detail13epoll_reactor12fork_serviceENS_10io_service10fork_eventE,comdat
	.align 2
	.p2align 4
	.weak	_ZN4asio6detail13epoll_reactor12fork_serviceENS_10io_service10fork_eventE
	.type	_ZN4asio6detail13epoll_reactor12fork_serviceENS_10io_service10fork_eventE, @function
_ZN4asio6detail13epoll_reactor12fork_serviceENS_10io_service10fork_eventE:
.LFB3303:
	.cfi_startproc
	.cfi_personality 0x9b,DW.ref.__gxx_personality_v0
	.cfi_lsda 0x1b,.LLSDA3303
	endbr64
	pushq	%r15
	.cfi_def_cfa_offset 16
	.cfi_offset 15, -16
	pushq	%r14
	.cfi_def_cfa_offset 24
	.cfi_offset 14, -24
	pushq	%r13
	.cfi_def_cfa_offset 32
	.cfi_offset 13, -32
	pushq	%r12
	.cfi_def_cfa_offset 40
	.cfi_offset 12, -40
	pushq	%rbp
	.cfi_def_cfa_offset 48
	.cfi_offset 6, -48
	pushq	%rbx
	.cfi_def_cfa_offset 56
	.cfi_offset 3, -56
	subq	$104, %rsp
	.cfi_def_cfa_offset 160
	movq	%fs:40, %rax
	movq	%rax, 88(%rsp)
	xorl	%eax, %eax
	cmpl	$2, %esi
	je	.L1576
.L1487:
	movq	88(%rsp), %rax
	subq	%fs:40, %rax
	jne	.L1577
	addq	$104, %rsp
	.cfi_remember_state
	.cfi_def_cfa_offset 56
	popq	%rbx
	.cfi_def_cfa_offset 48
	popq	%rbp
	.cfi_def_cfa_offset 40
	popq	%r12
	.cfi_def_cfa_offset 32
	popq	%r13
	.cfi_def_cfa_offset 24
	popq	%r14
	.cfi_def_cfa_offset 16
	popq	%r15
	.cfi_def_cfa_offset 8
	ret
	.p2align 4,,10
	.p2align 3
.L1576:
	.cfi_restore_state
	movq	%rdi, %rbx
	movl	96(%rdi), %edi
	cmpl	$-1, %edi
	jne	.L1578
.L1489:
	movl	$-1, 96(%rbx)
	movl	$524288, %edi
	call	epoll_create1@PLT
	movl	%eax, %ebp
	cmpl	$-1, %eax
	je	.L1579
.L1490:
	movl	100(%rbx), %edi
	movl	%ebp, 96(%rbx)
	cmpl	$-1, %edi
	jne	.L1580
.L1493:
	movl	$-1, 100(%rbx)
	movl	$524288, %esi
	movl	$1, %edi
	call	timerfd_create@PLT
	movl	%eax, %ebp
	cmpl	$-1, %eax
	je	.L1581
.L1494:
	movl	92(%rbx), %r8d
	movl	88(%rbx), %edi
	movl	%ebp, 100(%rbx)
	leaq	88(%rbx), %r12
	cmpl	$-1, %r8d
	je	.L1495
	cmpl	%edi, %r8d
	jne	.L1582
.L1496:
.LEHB30:
	call	close@PLT
.L1497:
	movq	.LC24(%rip), %rax
	movl	$526336, %esi
	xorl	%edi, %edi
	movq	%rax, 88(%rbx)
	call	eventfd@PLT
	movd	%eax, %xmm1
	movl	%eax, %edx
	pshufd	$0xe0, %xmm1, %xmm0
	movq	%xmm0, 88(%rbx)
	cmpl	$-1, %eax
	je	.L1583
.L1498:
	movl	96(%rbx), %edi
	leaq	4(%rsp), %rbp
	movl	$1, %esi
	movl	$-2147483639, 4(%rsp)
	movq	%rbp, %rcx
	movq	%r12, 8(%rsp)
	leaq	48(%rsp), %r15
	call	epoll_ctl@PLT
	movl	92(%rbx), %edi
	movl	$8, %edx
	movq	%r15, %rsi
	movq	$1, 48(%rsp)
	call	write@PLT
.LEHE30:
	movl	100(%rbx), %edx
	cmpl	$-1, %edx
	jne	.L1584
.L1503:
	movl	88(%rbx), %edx
	movl	96(%rbx), %edi
	movq	%r15, %rcx
	movl	$3, %esi
	movl	$-2147483639, 48(%rsp)
	movq	%r12, 52(%rsp)
	call	epoll_ctl@PLT
.L1509:
	leaq	120(%rbx), %r14
	movq	%r14, %rdi
	call	pthread_mutex_lock@PLT
	movq	160(%rbx), %r12
	testq	%r12, %r12
	jne	.L1510
	jmp	.L1516
	.p2align 4,,10
	.p2align 3
.L1511:
	movq	24(%r12), %r12
	testq	%r12, %r12
	je	.L1516
.L1510:
	movl	92(%r12), %eax
	movl	96(%rbx), %edi
	movq	%rbp, %rcx
	movl	$1, %esi
	movl	88(%r12), %edx
	movq	%r12, 8(%rsp)
	movl	%eax, 4(%rsp)
	call	epoll_ctl@PLT
	testl	%eax, %eax
	je	.L1511
	movq	_ZGVZN4asio15system_categoryEvE8instance@GOTPCREL(%rip), %rax
	movzbl	(%rax), %eax
	testb	%al, %al
	je	.L1512
.L1575:
	movq	_ZZN4asio15system_categoryEvE8instance@GOTPCREL(%rip), %r13
.L1513:
	call	__errno_location@PLT
	movq	%r13, 56(%rsp)
	movl	(%rax), %eax
	movl	%eax, 48(%rsp)
	testl	%eax, %eax
	je	.L1511
	leaq	.LC26(%rip), %rsi
	movq	%r15, %rdi
.LEHB31:
	call	_ZN4asio6detail14do_throw_errorERKSt10error_codePKc@PLT
.LEHE31:
	.p2align 4,,10
	.p2align 3
.L1582:
	movl	%r8d, %edi
.LEHB32:
	call	close@PLT
	movl	88(%rbx), %edi
.L1495:
	cmpl	$-1, %edi
	je	.L1497
	jmp	.L1496
	.p2align 4,,10
	.p2align 3
.L1584:
	movl	96(%rbx), %edi
	leaq	100(%rbx), %rax
	movq	%rbp, %rcx
	movl	$1, %esi
	movl	$9, 4(%rsp)
	movq	%rax, 8(%rsp)
	call	epoll_ctl@PLT
	movl	100(%rbx), %edi
	cmpl	$-1, %edi
	je	.L1503
	movq	104(%rbx), %r12
	pxor	%xmm0, %xmm0
	movaps	%xmm0, 16(%rsp)
	testq	%r12, %r12
	je	.L1504
	movl	$300000000, %esi
	.p2align 4,,10
	.p2align 3
.L1505:
	movq	(%r12), %rax
	movq	%r12, %rdi
	call	*32(%rax)
	movq	8(%r12), %r12
	movq	%rax, %rsi
	testq	%r12, %r12
	jne	.L1505
	movabsq	$4835703278458516699, %rdx
	xorl	%r8d, %r8d
	movl	100(%rbx), %edi
	imulq	%rdx
	movq	%rsi, %rax
	sarq	$63, %rax
	sarq	$18, %rdx
	subq	%rax, %rdx
	testq	%rsi, %rsi
	movl	$1, %eax
	movq	%rdx, 32(%rsp)
	sete	%r8b
	je	.L1508
	imulq	$1000000, %rdx, %rdx
	subq	%rdx, %rsi
	imulq	$1000, %rsi, %rax
.L1508:
	leaq	16(%rsp), %rdx
	movq	%r15, %rcx
	movl	%r8d, %esi
	movq	%rax, 40(%rsp)
	call	timerfd_settime@PLT
	jmp	.L1509
	.p2align 4,,10
	.p2align 3
.L1580:
	call	close@PLT
	jmp	.L1493
	.p2align 4,,10
	.p2align 3
.L1578:
	call	close@PLT
	jmp	.L1489
	.p2align 4,,10
	.p2align 3
.L1512:
	movq	_ZGVZN4asio15system_categoryEvE8instance@GOTPCREL(%rip), %rdi
	call	__cxa_guard_acquire@PLT
	testl	%eax, %eax
	je	.L1575
	movq	_ZZN4asio15system_categoryEvE8instance@GOTPCREL(%rip), %r13
	movq	_ZN4asio6detail15system_categoryD1Ev@GOTPCREL(%rip), %rdi
	leaq	__dso_handle(%rip), %rdx
	movq	%r13, %rsi
	call	__cxa_atexit@PLT
	movq	_ZGVZN4asio15system_categoryEvE8instance@GOTPCREL(%rip), %rdi
	call	__cxa_guard_release@PLT
	jmp	.L1513
	.p2align 4,,10
	.p2align 3
.L1516:
	movq	%r14, %rdi
	call	pthread_mutex_unlock@PLT
	jmp	.L1487
	.p2align 4,,10
	.p2align 3
.L1583:
	call	__errno_location@PLT
	cmpl	$22, (%rax)
	movq	%rax, %rbp
	je	.L1585
.L1500:
	leaq	80(%rsp), %rdi
	call	pipe@PLT
	testl	%eax, %eax
	je	.L1518
	call	_ZN4asio15system_categoryEv@PLT
	movq	%rax, %r8
	movl	0(%rbp), %eax
	movq	%r8, 56(%rsp)
	movl	%eax, 48(%rsp)
	testl	%eax, %eax
	jne	.L1586
.L1501:
	movl	88(%rbx), %edx
	jmp	.L1498
	.p2align 4,,10
	.p2align 3
.L1581:
	call	__errno_location@PLT
	cmpl	$22, (%rax)
	jne	.L1494
	xorl	%esi, %esi
	movl	$1, %edi
	call	timerfd_create@PLT
	movl	%eax, %ebp
	cmpl	$-1, %eax
	je	.L1494
	movl	%eax, %edi
	movl	$1, %edx
	movl	$2, %esi
	xorl	%eax, %eax
	call	fcntl@PLT
	jmp	.L1494
	.p2align 4,,10
	.p2align 3
.L1579:
	call	__errno_location@PLT
	movq	%rax, %r13
	movl	(%rax), %eax
	subl	$22, %eax
	andl	$-17, %eax
	jne	.L1491
	movl	$20000, %edi
	call	epoll_create@PLT
	movl	%eax, %r12d
	cmpl	$-1, %eax
	je	.L1491
	movl	%eax, %edi
	movl	$1, %edx
	movl	$2, %esi
	xorl	%eax, %eax
	call	fcntl@PLT
	movl	%r12d, %ebp
	jmp	.L1490
.L1491:
	call	_ZN4asio15system_categoryEv@PLT
	movq	%rax, %r8
	movl	0(%r13), %eax
	movq	%r8, 56(%rsp)
	movl	%eax, 48(%rsp)
	testl	%eax, %eax
	je	.L1490
	leaq	48(%rsp), %rdi
	leaq	.LC23(%rip), %rsi
	call	_ZN4asio6detail14do_throw_errorERKSt10error_codePKc@PLT
	.p2align 4,,10
	.p2align 3
.L1518:
	movl	80(%rsp), %edi
	movl	$2048, %edx
	movl	$4, %esi
	xorl	%eax, %eax
	movl	%edi, 88(%rbx)
	call	fcntl@PLT
	movl	88(%rbx), %edi
	movl	$1, %edx
	xorl	%eax, %eax
	movl	$2, %esi
	call	fcntl@PLT
	movl	84(%rsp), %edi
	movl	$2048, %edx
	xorl	%eax, %eax
	movl	$4, %esi
	movl	%edi, 92(%rbx)
	call	fcntl@PLT
	movl	92(%rbx), %edi
	movl	$1, %edx
	xorl	%eax, %eax
	movl	$2, %esi
	call	fcntl@PLT
	jmp	.L1501
.L1585:
	xorl	%edi, %edi
	xorl	%esi, %esi
	call	eventfd@PLT
	movd	%eax, %xmm2
	movl	%eax, %edi
	pshufd	$0xe0, %xmm2, %xmm0
	movq	%xmm0, 88(%rbx)
	cmpl	$-1, %eax
	je	.L1500
	movl	$2048, %edx
	movl	$4, %esi
	xorl	%eax, %eax
	call	fcntl@PLT
	movl	88(%rbx), %edi
	movl	$1, %edx
	xorl	%eax, %eax
	movl	$2, %esi
	call	fcntl@PLT
	movl	88(%rbx), %edx
	cmpl	$-1, %edx
	jne	.L1498
	jmp	.L1500
	.p2align 4,,10
	.p2align 3
.L1504:
	movq	$300, 32(%rsp)
	xorl	%r8d, %r8d
	xorl	%eax, %eax
	jmp	.L1508
.L1577:
	call	__stack_chk_fail@PLT
.L1586:
	leaq	48(%rsp), %rdi
	leaq	.LC25(%rip), %rsi
	call	_ZN4asio6detail14do_throw_errorERKSt10error_codePKc@PLT
.L1522:
	endbr64
	movq	%rax, %rbp
.L1517:
	movq	%r14, %rdi
	call	pthread_mutex_unlock@PLT
	movq	%rbp, %rdi
	call	_Unwind_Resume@PLT
.LEHE32:
	.cfi_endproc
.LFE3303:
	.section	.gcc_except_table._ZN4asio6detail13epoll_reactor12fork_serviceENS_10io_service10fork_eventE,"aG",@progbits,_ZN4asio6detail13epoll_reactor12fork_serviceENS_10io_service10fork_eventE,comdat
.LLSDA3303:
	.byte	0xff
	.byte	0xff
	.byte	0x1
	.uleb128 .LLSDACSE3303-.LLSDACSB3303
.LLSDACSB3303:
	.uleb128 .LEHB30-.LFB3303
	.uleb128 .LEHE30-.LEHB30
	.uleb128 0
	.uleb128 0
	.uleb128 .LEHB31-.LFB3303
	.uleb128 .LEHE31-.LEHB31
	.uleb128 .L1522-.LFB3303
	.uleb128 0
	.uleb128 .LEHB32-.LFB3303
	.uleb128 .LEHE32-.LEHB32
	.uleb128 0
	.uleb128 0
.LLSDACSE3303:
	.section	.text._ZN4asio6detail13epoll_reactor12fork_serviceENS_10io_service10fork_eventE,"axG",@progbits,_ZN4asio6detail13epoll_reactor12fork_serviceENS_10io_service10fork_eventE,comdat
	.size	_ZN4asio6detail13epoll_reactor12fork_serviceENS_10io_service10fork_eventE, .-_ZN4asio6detail13epoll_reactor12fork_serviceENS_10io_service10fork_eventE
	.section	.rodata._ZN4asio6detail11posix_mutexC2Ev.str1.1,"aMS",@progbits,1
.LC27:
	.string	"mutex"
	.section	.text._ZN4asio6detail11posix_mutexC2Ev,"axG",@progbits,_ZN4asio6detail11posix_mutexC5Ev,comdat
	.align 2
	.p2align 4
	.weak	_ZN4asio6detail11posix_mutexC2Ev
	.type	_ZN4asio6detail11posix_mutexC2Ev, @function
_ZN4asio6detail11posix_mutexC2Ev:
.LFB2447:
	.cfi_startproc
	endbr64
	pushq	%r12
	.cfi_def_cfa_offset 16
	.cfi_offset 12, -16
	xorl	%esi, %esi
	pushq	%rbp
	.cfi_def_cfa_offset 24
	.cfi_offset 6, -24
	pushq	%rbx
	.cfi_def_cfa_offset 32
	.cfi_offset 3, -32
	subq	$32, %rsp
	.cfi_def_cfa_offset 64
	movq	%fs:40, %rax
	movq	%rax, 24(%rsp)
	xorl	%eax, %eax
	call	pthread_mutex_init@PLT
	movq	_ZGVZN4asio15system_categoryEvE8instance@GOTPCREL(%rip), %rbp
	movl	%eax, %ebx
	movzbl	0(%rbp), %eax
	testb	%al, %al
	je	.L1588
.L1597:
	movq	_ZZN4asio15system_categoryEvE8instance@GOTPCREL(%rip), %r12
.L1589:
	movl	%ebx, (%rsp)
	movq	%r12, 8(%rsp)
	testl	%ebx, %ebx
	jne	.L1598
	movq	24(%rsp), %rax
	subq	%fs:40, %rax
	jne	.L1599
	addq	$32, %rsp
	.cfi_remember_state
	.cfi_def_cfa_offset 32
	popq	%rbx
	.cfi_def_cfa_offset 24
	popq	%rbp
	.cfi_def_cfa_offset 16
	popq	%r12
	.cfi_def_cfa_offset 8
	ret
	.p2align 4,,10
	.p2align 3
.L1588:
	.cfi_restore_state
	movq	%rbp, %rdi
	call	__cxa_guard_acquire@PLT
	testl	%eax, %eax
	je	.L1597
	movq	_ZZN4asio15system_categoryEvE8instance@GOTPCREL(%rip), %r12
	movq	_ZN4asio6detail15system_categoryD1Ev@GOTPCREL(%rip), %rdi
	leaq	__dso_handle(%rip), %rdx
	movq	%r12, %rsi
	call	__cxa_atexit@PLT
	movq	%rbp, %rdi
	call	__cxa_guard_release@PLT
	jmp	.L1589
.L1598:
	movq	%rsp, %rdi
	leaq	.LC27(%rip), %rsi
	call	_ZN4asio6detail14do_throw_errorERKSt10error_codePKc@PLT
.L1599:
	call	__stack_chk_fail@PLT
	.cfi_endproc
.LFE2447:
	.size	_ZN4asio6detail11posix_mutexC2Ev, .-_ZN4asio6detail11posix_mutexC2Ev
	.weak	_ZN4asio6detail11posix_mutexC1Ev
	.set	_ZN4asio6detail11posix_mutexC1Ev,_ZN4asio6detail11posix_mutexC2Ev
	.section	.rodata._ZN4asio2ip16resolver_serviceINS0_3tcpEE12fork_serviceENS_10io_service10fork_eventE.str1.1,"aMS",@progbits,1
.LC28:
	.string	"thread"
	.section	.text._ZN4asio2ip16resolver_serviceINS0_3tcpEE12fork_serviceENS_10io_service10fork_eventE,"axG",@progbits,_ZN4asio2ip16resolver_serviceINS0_3tcpEE12fork_serviceENS_10io_service10fork_eventE,comdat
	.align 2
	.p2align 4
	.weak	_ZN4asio2ip16resolver_serviceINS0_3tcpEE12fork_serviceENS_10io_service10fork_eventE
	.type	_ZN4asio2ip16resolver_serviceINS0_3tcpEE12fork_serviceENS_10io_service10fork_eventE, @function
_ZN4asio2ip16resolver_serviceINS0_3tcpEE12fork_serviceENS_10io_service10fork_eventE:
.LFB10294:
	.cfi_startproc
	.cfi_personality 0x9b,DW.ref.__gxx_personality_v0
	.cfi_lsda 0x1b,.LLSDA10294
	endbr64
	pushq	%r13
	.cfi_def_cfa_offset 16
	.cfi_offset 13, -16
	pushq	%r12
	.cfi_def_cfa_offset 24
	.cfi_offset 12, -24
	pushq	%rbp
	.cfi_def_cfa_offset 32
	.cfi_offset 6, -32
	pushq	%rbx
	.cfi_def_cfa_offset 40
	.cfi_offset 3, -40
	subq	$40, %rsp
	.cfi_def_cfa_offset 80
	movq	%fs:40, %rax
	movq	%rax, 24(%rsp)
	xorl	%eax, %eax
	cmpq	$0, 112(%rdi)
	je	.L1600
	movq	88(%rdi), %rax
	movq	%rdi, %rbx
	movq	8(%rax), %rbp
	leaq	48(%rbp), %r12
	movq	%r12, %rdi
	testl	%esi, %esi
	je	.L1619
	call	pthread_mutex_lock@PLT
	movb	$0, 208(%rbp)
	movq	%r12, %rdi
	call	pthread_mutex_unlock@PLT
	movl	$16, %edi
	movq	88(%rbx), %r13
.LEHB33:
	call	_Znwm@PLT
.LEHE33:
	movl	$16, %edi
	movb	$0, 8(%rax)
	movq	%rax, %r12
.LEHB34:
	call	_Znwm@PLT
.LEHE34:
	movq	%rax, %rbp
	movq	_ZTVN4asio6detail12posix_thread4funcINS0_21resolver_service_base22work_io_service_runnerEEE@GOTPCREL(%rip), %rax
	xorl	%esi, %esi
	movq	%r12, %rdi
	movq	%r13, 8(%rbp)
	movq	asio_detail_posix_thread_function@GOTPCREL(%rip), %rdx
	movq	%rbp, %rcx
	addq	$16, %rax
	movq	%rax, 0(%rbp)
	call	pthread_create@PLT
	movl	%eax, %r13d
	testl	%eax, %eax
	jne	.L1620
	movq	112(%rbx), %rbp
	testq	%rbp, %rbp
	je	.L1607
	cmpb	$0, 8(%rbp)
	je	.L1621
.L1608:
	movl	$16, %esi
	movq	%rbp, %rdi
	call	_ZdlPvm@PLT
.L1607:
	movq	%r12, 112(%rbx)
.L1600:
	movq	24(%rsp), %rax
	subq	%fs:40, %rax
	jne	.L1622
	addq	$40, %rsp
	.cfi_remember_state
	.cfi_def_cfa_offset 40
	popq	%rbx
	.cfi_def_cfa_offset 32
	popq	%rbp
	.cfi_def_cfa_offset 24
	popq	%r12
	.cfi_def_cfa_offset 16
	popq	%r13
	.cfi_def_cfa_offset 8
	ret
	.p2align 4,,10
	.p2align 3
.L1619:
	.cfi_restore_state
	call	pthread_mutex_lock@PLT
	movb	$1, 208(%rbp)
	leaq	88(%rbp), %rdi
	orq	$1, 136(%rbp)
	call	pthread_cond_broadcast@PLT
	cmpb	$0, 176(%rbp)
	jne	.L1604
	movq	144(%rbp), %rax
	testq	%rax, %rax
	je	.L1604
	movb	$1, 176(%rbp)
	leaq	88(%rax), %rdx
	movq	%rsp, %rcx
	movl	$3, %esi
	movq	%rdx, 4(%rsp)
	movl	88(%rax), %edx
	movl	$-2147483639, (%rsp)
	movl	96(%rax), %edi
	call	epoll_ctl@PLT
.L1604:
	movq	%r12, %rdi
	call	pthread_mutex_unlock@PLT
	movq	112(%rbx), %rbx
	cmpb	$0, 8(%rbx)
	jne	.L1600
	movq	(%rbx), %rdi
	xorl	%esi, %esi
.LEHB35:
	call	pthread_join@PLT
.LEHE35:
	movb	$1, 8(%rbx)
	jmp	.L1600
	.p2align 4,,10
	.p2align 3
.L1621:
	movq	0(%rbp), %rdi
	call	pthread_detach@PLT
	jmp	.L1608
.L1622:
	call	__stack_chk_fail@PLT
.L1620:
	movq	%rbp, %rdi
	call	_ZN4asio6detail12posix_thread4funcINS0_21resolver_service_base22work_io_service_runnerEED0Ev@PLT
	call	_ZN4asio15system_categoryEv@PLT
	movq	%rsp, %rdi
	leaq	.LC28(%rip), %rsi
	movl	%r13d, (%rsp)
	movq	%rax, 8(%rsp)
.LEHB36:
	call	_ZN4asio6detail14do_throw_errorERKSt10error_codePKc@PLT
.LEHE36:
.L1611:
	endbr64
	movq	%rax, %rbp
.L1609:
	movq	%r12, %rdi
	movl	$16, %esi
	call	_ZdlPvm@PLT
	movq	%rbp, %rdi
.LEHB37:
	call	_Unwind_Resume@PLT
.LEHE37:
	.cfi_endproc
.LFE10294:
	.section	.gcc_except_table._ZN4asio2ip16resolver_serviceINS0_3tcpEE12fork_serviceENS_10io_service10fork_eventE,"aG",@progbits,_ZN4asio2ip16resolver_serviceINS0_3tcpEE12fork_serviceENS_10io_service10fork_eventE,comdat
.LLSDA10294:
	.byte	0xff
	.byte	0xff
	.byte	0x1
	.uleb128 .LLSDACSE10294-.LLSDACSB10294
.LLSDACSB10294:
	.uleb128 .LEHB33-.LFB10294
	.uleb128 .LEHE33-.LEHB33
	.uleb128 0
	.uleb128 0
	.uleb128 .LEHB34-.LFB10294
	.uleb128 .LEHE34-.LEHB34
	.uleb128 .L1611-.LFB10294
	.uleb128 0
	.uleb128 .LEHB35-.LFB10294
	.uleb128 .LEHE35-.LEHB35
	.uleb128 0
	.uleb128 0
	.uleb128 .LEHB36-.LFB10294
	.uleb128 .LEHE36-.LEHB36
	.uleb128 .L1611-.LFB10294
	.uleb128 0
	.uleb128 .LEHB37-.LFB10294
	.uleb128 .LEHE37-.LEHB37
	.uleb128 0
	.uleb128 0
.LLSDACSE10294:
	.section	.text._ZN4asio2ip16resolver_serviceINS0_3tcpEE12fork_serviceENS_10io_service10fork_eventE,"axG",@progbits,_ZN4asio2ip16resolver_serviceINS0_3tcpEE12fork_serviceENS_10io_service10fork_eventE,comdat
	.size	_ZN4asio2ip16resolver_serviceINS0_3tcpEE12fork_serviceENS_10io_service10fork_eventE, .-_ZN4asio2ip16resolver_serviceINS0_3tcpEE12fork_serviceENS_10io_service10fork_eventE
	.section	.text._ZN4asio6detail11object_poolINS0_13epoll_reactor16descriptor_stateEED2Ev,"axG",@progbits,_ZN4asio6detail11object_poolINS0_13epoll_reactor16descriptor_stateEED5Ev,comdat
	.align 2
	.p2align 4
	.weak	_ZN4asio6detail11object_poolINS0_13epoll_reactor16descriptor_stateEED2Ev
	.type	_ZN4asio6detail11object_poolINS0_13epoll_reactor16descriptor_stateEED2Ev, @function
_ZN4asio6detail11object_poolINS0_13epoll_reactor16descriptor_stateEED2Ev:
.LFB7471:
	.cfi_startproc
	.cfi_personality 0x9b,DW.ref.__gxx_personality_v0
	.cfi_lsda 0x1b,.LLSDA7471
	endbr64
	pushq	%r15
	.cfi_def_cfa_offset 16
	.cfi_offset 15, -16
	pushq	%r14
	.cfi_def_cfa_offset 24
	.cfi_offset 14, -24
	pushq	%r13
	.cfi_def_cfa_offset 32
	.cfi_offset 13, -32
	pushq	%r12
	.cfi_def_cfa_offset 40
	.cfi_offset 12, -40
	pushq	%rbp
	.cfi_def_cfa_offset 48
	.cfi_offset 6, -48
	pushq	%rbx
	.cfi_def_cfa_offset 56
	.cfi_offset 3, -56
	subq	$56, %rsp
	.cfi_def_cfa_offset 112
	movq	(%rdi), %r13
	movq	%rdi, 8(%rsp)
	movq	%fs:40, %rax
	movq	%rax, 40(%rsp)
	xorl	%eax, %eax
	testq	%r13, %r13
	je	.L1624
	leaq	16(%rsp), %rbp
	.p2align 4,,10
	.p2align 3
.L1630:
	movq	%r13, %r12
	movq	24(%r13), %r13
	leaq	128(%r12), %r15
	leaq	80(%r12), %r14
.L1629:
	movq	(%r15), %rsi
	testq	%rsi, %rsi
	movq	%rsi, (%rsp)
	je	.L1625
	call	_ZNSt3_V215system_categoryEv@PLT
	movq	(%rsp), %rsi
	movq	%rax, %rbx
	jmp	.L1628
	.p2align 4,,10
	.p2align 3
.L1626:
	movq	$0, (%rsi)
	movq	8(%rsi), %rax
	xorl	%ecx, %ecx
	movq	%rbp, %rdx
	movl	$0, 16(%rsp)
	xorl	%edi, %edi
	movq	%rbx, 24(%rsp)
	call	*%rax
	movq	(%r15), %rsi
	testq	%rsi, %rsi
	je	.L1625
.L1628:
	movq	(%rsi), %rax
	movq	%rax, (%r15)
	testq	%rax, %rax
	jne	.L1626
	movq	$0, 8(%r15)
	jmp	.L1626
	.p2align 4,,10
	.p2align 3
.L1625:
	subq	$16, %r15
	cmpq	%r14, %r15
	jne	.L1629
	leaq	40(%r12), %rdi
	call	pthread_mutex_destroy@PLT
	movl	$152, %esi
	movq	%r12, %rdi
	call	_ZdlPvm@PLT
	testq	%r13, %r13
	jne	.L1630
.L1624:
	movq	8(%rsp), %rax
	movq	8(%rax), %r13
	testq	%r13, %r13
	je	.L1623
	leaq	16(%rsp), %rbp
	.p2align 4,,10
	.p2align 3
.L1637:
	movq	%r13, %r12
	movq	24(%r13), %r13
	leaq	128(%r12), %r15
	leaq	80(%r12), %r14
.L1636:
	movq	(%r15), %rsi
	testq	%rsi, %rsi
	movq	%rsi, (%rsp)
	je	.L1632
	call	_ZNSt3_V215system_categoryEv@PLT
	movq	(%rsp), %rsi
	movq	%rax, %rbx
	jmp	.L1635
	.p2align 4,,10
	.p2align 3
.L1633:
	movq	$0, (%rsi)
	movq	8(%rsi), %rax
	xorl	%ecx, %ecx
	movq	%rbp, %rdx
	movl	$0, 16(%rsp)
	xorl	%edi, %edi
	movq	%rbx, 24(%rsp)
	call	*%rax
	movq	(%r15), %rsi
	testq	%rsi, %rsi
	je	.L1632
.L1635:
	movq	(%rsi), %rax
	movq	%rax, (%r15)
	testq	%rax, %rax
	jne	.L1633
	movq	$0, 8(%r15)
	jmp	.L1633
	.p2align 4,,10
	.p2align 3
.L1632:
	subq	$16, %r15
	cmpq	%r14, %r15
	jne	.L1636
	leaq	40(%r12), %rdi
	call	pthread_mutex_destroy@PLT
	movl	$152, %esi
	movq	%r12, %rdi
	call	_ZdlPvm@PLT
	testq	%r13, %r13
	jne	.L1637
.L1623:
	movq	40(%rsp), %rax
	subq	%fs:40, %rax
	jne	.L1670
	addq	$56, %rsp
	.cfi_remember_state
	.cfi_def_cfa_offset 56
	popq	%rbx
	.cfi_def_cfa_offset 48
	popq	%rbp
	.cfi_def_cfa_offset 40
	popq	%r12
	.cfi_def_cfa_offset 32
	popq	%r13
	.cfi_def_cfa_offset 24
	popq	%r14
	.cfi_def_cfa_offset 16
	popq	%r15
	.cfi_def_cfa_offset 8
	ret
.L1670:
	.cfi_restore_state
	call	__stack_chk_fail@PLT
	.cfi_endproc
.LFE7471:
	.section	.gcc_except_table._ZN4asio6detail11object_poolINS0_13epoll_reactor16descriptor_stateEED2Ev,"aG",@progbits,_ZN4asio6detail11object_poolINS0_13epoll_reactor16descriptor_stateEED5Ev,comdat
.LLSDA7471:
	.byte	0xff
	.byte	0xff
	.byte	0x1
	.uleb128 .LLSDACSE7471-.LLSDACSB7471
.LLSDACSB7471:
.LLSDACSE7471:
	.section	.text._ZN4asio6detail11object_poolINS0_13epoll_reactor16descriptor_stateEED2Ev,"axG",@progbits,_ZN4asio6detail11object_poolINS0_13epoll_reactor16descriptor_stateEED5Ev,comdat
	.size	_ZN4asio6detail11object_poolINS0_13epoll_reactor16descriptor_stateEED2Ev, .-_ZN4asio6detail11object_poolINS0_13epoll_reactor16descriptor_stateEED2Ev
	.weak	_ZN4asio6detail11object_poolINS0_13epoll_reactor16descriptor_stateEED1Ev
	.set	_ZN4asio6detail11object_poolINS0_13epoll_reactor16descriptor_stateEED1Ev,_ZN4asio6detail11object_poolINS0_13epoll_reactor16descriptor_stateEED2Ev
	.section	.text._ZN4asio6detail16service_registry6createINS0_13epoll_reactorEEEPNS_10io_service7serviceERS4_,"axG",@progbits,_ZN4asio6detail16service_registry6createINS0_13epoll_reactorEEEPNS_10io_service7serviceERS4_,comdat
	.align 2
	.p2align 4
	.weak	_ZN4asio6detail16service_registry6createINS0_13epoll_reactorEEEPNS_10io_service7serviceERS4_
	.type	_ZN4asio6detail16service_registry6createINS0_13epoll_reactorEEEPNS_10io_service7serviceERS4_, @function
_ZN4asio6detail16service_registry6createINS0_13epoll_reactorEEEPNS_10io_service7serviceERS4_:
.LFB8558:
	.cfi_startproc
	.cfi_personality 0x9b,DW.ref.__gxx_personality_v0
	.cfi_lsda 0x1b,.LLSDA8558
	endbr64
	pushq	%r15
	.cfi_def_cfa_offset 16
	.cfi_offset 15, -16
	pushq	%r14
	.cfi_def_cfa_offset 24
	.cfi_offset 14, -24
	pushq	%r13
	.cfi_def_cfa_offset 32
	.cfi_offset 13, -32
	pushq	%r12
	.cfi_def_cfa_offset 40
	.cfi_offset 12, -40
	pushq	%rbp
	.cfi_def_cfa_offset 48
	.cfi_offset 6, -48
	pushq	%rbx
	.cfi_def_cfa_offset 56
	.cfi_offset 3, -56
	movq	%rdi, %rbx
	movl	$176, %edi
	subq	$56, %rsp
	.cfi_def_cfa_offset 112
	movq	%fs:40, %rax
	movq	%rax, 40(%rsp)
	xorl	%eax, %eax
.LEHB38:
	call	_Znwm@PLT
.LEHE38:
	xorl	%esi, %esi
	movq	%rbx, 24(%rax)
	movq	%rax, %r12
	movq	$0, 8(%rax)
	leaq	48(%r12), %rbp
	movq	$0, 16(%rax)
	movq	%rbp, %rdi
	movq	$0, 32(%rax)
	movq	_ZTVN4asio6detail13epoll_reactorE@GOTPCREL(%rip), %rax
	addq	$16, %rax
	movq	%rax, (%r12)
	movq	8(%rbx), %rax
	movq	%rax, 40(%r12)
	call	pthread_mutex_init@PLT
	movl	%eax, %ebx
	call	_ZN4asio15system_categoryEv@PLT
	movl	%ebx, 16(%rsp)
	movq	%rax, 24(%rsp)
	testl	%ebx, %ebx
	jne	.L1729
	movl	$526336, %esi
	xorl	%edi, %edi
	leaq	88(%r12), %r13
	call	eventfd@PLT
	movd	%eax, %xmm1
	pshufd	$0xe0, %xmm1, %xmm0
	movq	%xmm0, 88(%r12)
	cmpl	$-1, %eax
	je	.L1730
.L1674:
	movl	$524288, %edi
	call	epoll_create1@PLT
	movl	%eax, %ebx
	cmpl	$-1, %eax
	je	.L1731
.L1680:
	movl	$524288, %esi
	movl	$1, %edi
	movl	%ebx, 96(%r12)
	call	timerfd_create@PLT
	movl	%eax, %ebx
	cmpl	$-1, %eax
	je	.L1732
.L1683:
	leaq	120(%r12), %r14
	xorl	%esi, %esi
	movl	%ebx, 100(%r12)
	movq	%r14, %rdi
	movb	$0, 112(%r12)
	movq	$0, 104(%r12)
	call	pthread_mutex_init@PLT
	movl	%eax, %ebx
	call	_ZN4asio15system_categoryEv@PLT
	movl	%ebx, 16(%rsp)
	movq	%rax, 24(%rsp)
	testl	%ebx, %ebx
	jne	.L1733
	movq	%r13, 20(%rsp)
	movl	88(%r12), %edx
	leaq	16(%rsp), %r13
	pxor	%xmm0, %xmm0
	movl	96(%r12), %edi
	movl	$1, %esi
	movq	%r13, %rcx
	movl	$-2147483639, 16(%rsp)
	movups	%xmm0, 160(%r12)
	leaq	160(%r12), %r15
	call	epoll_ctl@PLT
	movl	92(%r12), %edi
	leaq	8(%rsp), %rsi
	movl	$8, %edx
	movq	$1, 8(%rsp)
.LEHB39:
	call	write@PLT
.LEHE39:
	movl	100(%r12), %edx
	cmpl	$-1, %edx
	je	.L1671
	movl	96(%r12), %edi
	leaq	100(%r12), %rax
	movq	%r13, %rcx
	movl	$1, %esi
	movl	$9, 16(%rsp)
	movq	%rax, 20(%rsp)
	call	epoll_ctl@PLT
.L1671:
	movq	40(%rsp), %rax
	subq	%fs:40, %rax
	jne	.L1734
	addq	$56, %rsp
	.cfi_remember_state
	.cfi_def_cfa_offset 56
	movq	%r12, %rax
	popq	%rbx
	.cfi_def_cfa_offset 48
	popq	%rbp
	.cfi_def_cfa_offset 40
	popq	%r12
	.cfi_def_cfa_offset 32
	popq	%r13
	.cfi_def_cfa_offset 24
	popq	%r14
	.cfi_def_cfa_offset 16
	popq	%r15
	.cfi_def_cfa_offset 8
	ret
	.p2align 4,,10
	.p2align 3
.L1731:
	.cfi_restore_state
	call	__errno_location@PLT
	movq	%rax, %r15
	movl	(%rax), %eax
	subl	$22, %eax
	andl	$-17, %eax
	jne	.L1681
	movl	$20000, %edi
	call	epoll_create@PLT
	movl	%eax, %r14d
	cmpl	$-1, %eax
	je	.L1681
	movl	%eax, %edi
	movl	$1, %edx
	movl	$2, %esi
	xorl	%eax, %eax
.LEHB40:
	call	fcntl@PLT
.LEHE40:
	movl	%r14d, %ebx
	jmp	.L1680
	.p2align 4,,10
	.p2align 3
.L1730:
	call	__errno_location@PLT
	cmpl	$22, (%rax)
	movq	%rax, %rbx
	je	.L1735
.L1676:
	leaq	32(%rsp), %rdi
	call	pipe@PLT
	testl	%eax, %eax
	jne	.L1736
	movl	32(%rsp), %edi
	movl	$2048, %edx
	movl	$4, %esi
	xorl	%eax, %eax
	movl	%edi, 88(%r12)
.LEHB41:
	call	fcntl@PLT
	movl	88(%r12), %edi
	movl	$1, %edx
	movl	$2, %esi
	xorl	%eax, %eax
	call	fcntl@PLT
	movl	36(%rsp), %edi
	movl	$2048, %edx
	movl	$4, %esi
	xorl	%eax, %eax
	movl	%edi, 92(%r12)
	call	fcntl@PLT
	movl	92(%r12), %edi
	movl	$1, %edx
	movl	$2, %esi
	xorl	%eax, %eax
	call	fcntl@PLT
.LEHE41:
	jmp	.L1674
	.p2align 4,,10
	.p2align 3
.L1732:
	call	__errno_location@PLT
	cmpl	$22, (%rax)
	jne	.L1683
	xorl	%esi, %esi
	movl	$1, %edi
	call	timerfd_create@PLT
	movl	%eax, %r14d
	cmpl	$-1, %eax
	je	.L1683
	movl	%eax, %edi
	movl	$1, %edx
	movl	$2, %esi
	xorl	%eax, %eax
.LEHB42:
	call	fcntl@PLT
	movl	%r14d, %ebx
	jmp	.L1683
	.p2align 4,,10
	.p2align 3
.L1681:
	call	_ZN4asio15system_categoryEv@PLT
	movq	%rax, %r8
	movl	(%r15), %eax
	movq	%r8, 24(%rsp)
	movl	%eax, 16(%rsp)
	testl	%eax, %eax
	je	.L1680
	leaq	16(%rsp), %rdi
	leaq	.LC23(%rip), %rsi
	call	_ZN4asio6detail14do_throw_errorERKSt10error_codePKc@PLT
.LEHE42:
	.p2align 4,,10
	.p2align 3
.L1736:
	call	_ZN4asio15system_categoryEv@PLT
	movq	%rax, %r8
	movl	(%rbx), %eax
	movq	%r8, 24(%rsp)
	movl	%eax, 16(%rsp)
	testl	%eax, %eax
	je	.L1674
	leaq	16(%rsp), %rdi
	leaq	.LC25(%rip), %rsi
.LEHB43:
	call	_ZN4asio6detail14do_throw_errorERKSt10error_codePKc@PLT
	.p2align 4,,10
	.p2align 3
.L1735:
	xorl	%edi, %edi
	xorl	%esi, %esi
	call	eventfd@PLT
	movd	%eax, %xmm2
	movl	%eax, %edi
	pshufd	$0xe0, %xmm2, %xmm0
	movq	%xmm0, 88(%r12)
	cmpl	$-1, %eax
	je	.L1676
	movl	$2048, %edx
	movl	$4, %esi
	xorl	%eax, %eax
	call	fcntl@PLT
	movl	88(%r12), %edi
	movl	$1, %edx
	movl	$2, %esi
	xorl	%eax, %eax
	call	fcntl@PLT
.LEHE43:
	cmpl	$-1, 88(%r12)
	jne	.L1674
	jmp	.L1676
.L1729:
	leaq	16(%rsp), %rdi
	leaq	.LC27(%rip), %rsi
.LEHB44:
	call	_ZN4asio6detail14do_throw_errorERKSt10error_codePKc@PLT
.LEHE44:
.L1733:
	leaq	16(%rsp), %rdi
	leaq	.LC27(%rip), %rsi
.LEHB45:
	call	_ZN4asio6detail14do_throw_errorERKSt10error_codePKc@PLT
.LEHE45:
.L1734:
	call	__stack_chk_fail@PLT
.L1698:
	endbr64
	movq	%rax, %rbp
	jmp	.L1693
.L1701:
	endbr64
	movq	%rax, %r13
.L1688:
	movq	%r15, %rdi
	movq	%r13, %rbx
	call	_ZN4asio6detail11object_poolINS0_13epoll_reactor16descriptor_stateEED1Ev@PLT
	movq	%r14, %rdi
	call	pthread_mutex_destroy@PLT
.L1689:
	movl	92(%r12), %r8d
	movl	88(%r12), %edi
	cmpl	$-1, %r8d
	je	.L1690
	cmpl	%r8d, %edi
	jne	.L1737
.L1690:
	cmpl	$-1, %edi
	je	.L1692
	call	close@PLT
.L1692:
	movq	%rbp, %rdi
	movq	%rbx, %rbp
	call	pthread_mutex_destroy@PLT
.L1693:
	movq	%r12, %rdi
	movl	$176, %esi
	call	_ZdlPvm@PLT
	movq	%rbp, %rdi
.LEHB46:
	call	_Unwind_Resume@PLT
.LEHE46:
.L1699:
	endbr64
	movq	%rax, %rbx
	jmp	.L1692
.L1700:
	endbr64
	movq	%rax, %rbx
	jmp	.L1689
.L1737:
	movl	%r8d, %edi
	call	close@PLT
	movl	88(%r12), %edi
	jmp	.L1690
	.cfi_endproc
.LFE8558:
	.section	.gcc_except_table._ZN4asio6detail16service_registry6createINS0_13epoll_reactorEEEPNS_10io_service7serviceERS4_,"aG",@progbits,_ZN4asio6detail16service_registry6createINS0_13epoll_reactorEEEPNS_10io_service7serviceERS4_,comdat
.LLSDA8558:
	.byte	0xff
	.byte	0xff
	.byte	0x1
	.uleb128 .LLSDACSE8558-.LLSDACSB8558
.LLSDACSB8558:
	.uleb128 .LEHB38-.LFB8558
	.uleb128 .LEHE38-.LEHB38
	.uleb128 0
	.uleb128 0
	.uleb128 .LEHB39-.LFB8558
	.uleb128 .LEHE39-.LEHB39
	.uleb128 .L1701-.LFB8558
	.uleb128 0
	.uleb128 .LEHB40-.LFB8558
	.uleb128 .LEHE40-.LEHB40
	.uleb128 .L1700-.LFB8558
	.uleb128 0
	.uleb128 .LEHB41-.LFB8558
	.uleb128 .LEHE41-.LEHB41
	.uleb128 .L1699-.LFB8558
	.uleb128 0
	.uleb128 .LEHB42-.LFB8558
	.uleb128 .LEHE42-.LEHB42
	.uleb128 .L1700-.LFB8558
	.uleb128 0
	.uleb128 .LEHB43-.LFB8558
	.uleb128 .LEHE43-.LEHB43
	.uleb128 .L1699-.LFB8558
	.uleb128 0
	.uleb128 .LEHB44-.LFB8558
	.uleb128 .LEHE44-.LEHB44
	.uleb128 .L1698-.LFB8558
	.uleb128 0
	.uleb128 .LEHB45-.LFB8558
	.uleb128 .LEHE45-.LEHB45
	.uleb128 .L1700-.LFB8558
	.uleb128 0
	.uleb128 .LEHB46-.LFB8558
	.uleb128 .LEHE46-.LEHB46
	.uleb128 0
	.uleb128 0
.LLSDACSE8558:
	.section	.text._ZN4asio6detail16service_registry6createINS0_13epoll_reactorEEEPNS_10io_service7serviceERS4_,"axG",@progbits,_ZN4asio6detail16service_registry6createINS0_13epoll_reactorEEEPNS_10io_service7serviceERS4_,comdat
	.size	_ZN4asio6detail16service_registry6createINS0_13epoll_reactorEEEPNS_10io_service7serviceERS4_, .-_ZN4asio6detail16service_registry6createINS0_13epoll_reactorEEEPNS_10io_service7serviceERS4_
	.section	.text._ZN4asio6detail10scoped_ptrINS_10io_serviceEED2Ev,"axG",@progbits,_ZN4asio6detail10scoped_ptrINS_10io_serviceEED5Ev,comdat
	.align 2
	.p2align 4
	.weak	_ZN4asio6detail10scoped_ptrINS_10io_serviceEED2Ev
	.type	_ZN4asio6detail10scoped_ptrINS_10io_serviceEED2Ev, @function
_ZN4asio6detail10scoped_ptrINS_10io_serviceEED2Ev:
.LFB7658:
	.cfi_startproc
	.cfi_personality 0x9b,DW.ref.__gxx_personality_v0
	.cfi_lsda 0x1b,.LLSDA7658
	endbr64
	pushq	%r12
	.cfi_def_cfa_offset 16
	.cfi_offset 12, -16
	pushq	%rbp
	.cfi_def_cfa_offset 24
	.cfi_offset 6, -24
	pushq	%rbx
	.cfi_def_cfa_offset 32
	.cfi_offset 3, -32
	movq	(%rdi), %r12
	testq	%r12, %r12
	je	.L1738
	movq	(%r12), %rbp
	testq	%rbp, %rbp
	je	.L1740
	movq	56(%rbp), %rbx
	testq	%rbx, %rbx
	je	.L1741
	.p2align 4,,10
	.p2align 3
.L1742:
	movq	(%rbx), %rax
	movq	%rbx, %rdi
	call	*16(%rax)
	movq	32(%rbx), %rbx
	testq	%rbx, %rbx
	jne	.L1742
	movq	56(%rbp), %rbx
	testq	%rbx, %rbx
	je	.L1741
	.p2align 4,,10
	.p2align 3
.L1743:
	movq	%rbx, %rdi
	movq	32(%rbx), %rbx
	movq	(%rdi), %rax
	call	*8(%rax)
	movq	%rbx, 56(%rbp)
	testq	%rbx, %rbx
	jne	.L1743
.L1741:
	leaq	8(%rbp), %rdi
	call	pthread_mutex_destroy@PLT
	movl	$64, %esi
	movq	%rbp, %rdi
	call	_ZdlPvm@PLT
.L1740:
	popq	%rbx
	.cfi_remember_state
	.cfi_def_cfa_offset 24
	movq	%r12, %rdi
	popq	%rbp
	.cfi_def_cfa_offset 16
	movl	$16, %esi
	popq	%r12
	.cfi_def_cfa_offset 8
	jmp	_ZdlPvm@PLT
	.p2align 4,,10
	.p2align 3
.L1738:
	.cfi_restore_state
	popq	%rbx
	.cfi_def_cfa_offset 24
	popq	%rbp
	.cfi_def_cfa_offset 16
	popq	%r12
	.cfi_def_cfa_offset 8
	ret
	.cfi_endproc
.LFE7658:
	.section	.gcc_except_table._ZN4asio6detail10scoped_ptrINS_10io_serviceEED2Ev,"aG",@progbits,_ZN4asio6detail10scoped_ptrINS_10io_serviceEED5Ev,comdat
.LLSDA7658:
	.byte	0xff
	.byte	0xff
	.byte	0x1
	.uleb128 .LLSDACSE7658-.LLSDACSB7658
.LLSDACSB7658:
.LLSDACSE7658:
	.section	.text._ZN4asio6detail10scoped_ptrINS_10io_serviceEED2Ev,"axG",@progbits,_ZN4asio6detail10scoped_ptrINS_10io_serviceEED5Ev,comdat
	.size	_ZN4asio6detail10scoped_ptrINS_10io_serviceEED2Ev, .-_ZN4asio6detail10scoped_ptrINS_10io_serviceEED2Ev
	.weak	_ZN4asio6detail10scoped_ptrINS_10io_serviceEED1Ev
	.set	_ZN4asio6detail10scoped_ptrINS_10io_serviceEED1Ev,_ZN4asio6detail10scoped_ptrINS_10io_serviceEED2Ev
	.section	.text._ZNSt14__shared_countILN9__gnu_cxx12_Lock_policyE2EEC2ERKS2_,"axG",@progbits,_ZNSt14__shared_countILN9__gnu_cxx12_Lock_policyE2EEC5ERKS2_,comdat
	.align 2
	.p2align 4
	.weak	_ZNSt14__shared_countILN9__gnu_cxx12_Lock_policyE2EEC2ERKS2_
	.type	_ZNSt14__shared_countILN9__gnu_cxx12_Lock_policyE2EEC2ERKS2_, @function
_ZNSt14__shared_countILN9__gnu_cxx12_Lock_policyE2EEC2ERKS2_:
.LFB7937:
	.cfi_startproc
	endbr64
	movq	(%rsi), %rax
	movq	%rax, (%rdi)
	testq	%rax, %rax
	je	.L1756
	movq	__libc_single_threaded@GOTPCREL(%rip), %rdx
	cmpb	$0, (%rdx)
	je	.L1758
	addl	$1, 8(%rax)
	ret
	.p2align 4,,10
	.p2align 3
.L1758:
	lock addl	$1, 8(%rax)
.L1756:
	ret
	.cfi_endproc
.LFE7937:
	.size	_ZNSt14__shared_countILN9__gnu_cxx12_Lock_policyE2EEC2ERKS2_, .-_ZNSt14__shared_countILN9__gnu_cxx12_Lock_policyE2EEC2ERKS2_
	.weak	_ZNSt14__shared_countILN9__gnu_cxx12_Lock_policyE2EEC1ERKS2_
	.set	_ZNSt14__shared_countILN9__gnu_cxx12_Lock_policyE2EEC1ERKS2_,_ZNSt14__shared_countILN9__gnu_cxx12_Lock_policyE2EEC2ERKS2_
	.section	.text._ZNSt8functionIFvRKSt10shared_ptrIN7asiopal8ExecutorEEN4asio19basic_stream_socketINS6_2ip3tcpENS6_21stream_socket_serviceIS9_EEEERKSt10error_codeEEC2ERKSH_,"axG",@progbits,_ZNSt8functionIFvRKSt10shared_ptrIN7asiopal8ExecutorEEN4asio19basic_stream_socketINS6_2ip3tcpENS6_21stream_socket_serviceIS9_EEEERKSt10error_codeEEC5ERKSH_,comdat
	.align 2
	.p2align 4
	.weak	_ZNSt8functionIFvRKSt10shared_ptrIN7asiopal8ExecutorEEN4asio19basic_stream_socketINS6_2ip3tcpENS6_21stream_socket_serviceIS9_EEEERKSt10error_codeEEC2ERKSH_
	.type	_ZNSt8functionIFvRKSt10shared_ptrIN7asiopal8ExecutorEEN4asio19basic_stream_socketINS6_2ip3tcpENS6_21stream_socket_serviceIS9_EEEERKSt10error_codeEEC2ERKSH_, @function
_ZNSt8functionIFvRKSt10shared_ptrIN7asiopal8ExecutorEEN4asio19basic_stream_socketINS6_2ip3tcpENS6_21stream_socket_serviceIS9_EEEERKSt10error_codeEEC2ERKSH_:
.LFB7985:
	.cfi_startproc
	.cfi_personality 0x9b,DW.ref.__gxx_personality_v0
	.cfi_lsda 0x1b,.LLSDA7985
	endbr64
	movq	16(%rsi), %rax
	pxor	%xmm0, %xmm0
	movq	$0, 16(%rdi)
	movq	$0, 24(%rdi)
	movups	%xmm0, (%rdi)
	testq	%rax, %rax
	je	.L1774
	pushq	%r12
	.cfi_def_cfa_offset 16
	.cfi_offset 12, -16
	movl	$2, %edx
	pushq	%rbp
	.cfi_def_cfa_offset 24
	.cfi_offset 6, -24
	movq	%rdi, %rbp
	pushq	%rbx
	.cfi_def_cfa_offset 32
	.cfi_offset 3, -32
	movq	%rsi, %rbx
.LEHB47:
	call	*%rax
.LEHE47:
	movdqu	16(%rbx), %xmm1
	movups	%xmm1, 16(%rbp)
	popq	%rbx
	.cfi_def_cfa_offset 24
	popq	%rbp
	.cfi_def_cfa_offset 16
	popq	%r12
	.cfi_def_cfa_offset 8
	ret
	.p2align 4,,10
	.p2align 3
.L1774:
	.cfi_restore 3
	.cfi_restore 6
	.cfi_restore 12
	ret
.L1766:
	.cfi_def_cfa_offset 32
	.cfi_offset 3, -32
	.cfi_offset 6, -24
	.cfi_offset 12, -16
	endbr64
	movq	%rax, %r12
.L1764:
	movq	16(%rbp), %rax
	testq	%rax, %rax
	je	.L1765
	movl	$3, %edx
	movq	%rbp, %rsi
	movq	%rbp, %rdi
	call	*%rax
.L1765:
	movq	%r12, %rdi
.LEHB48:
	call	_Unwind_Resume@PLT
.LEHE48:
	.cfi_endproc
.LFE7985:
	.section	.gcc_except_table._ZNSt8functionIFvRKSt10shared_ptrIN7asiopal8ExecutorEEN4asio19basic_stream_socketINS6_2ip3tcpENS6_21stream_socket_serviceIS9_EEEERKSt10error_codeEEC2ERKSH_,"aG",@progbits,_ZNSt8functionIFvRKSt10shared_ptrIN7asiopal8ExecutorEEN4asio19basic_stream_socketINS6_2ip3tcpENS6_21stream_socket_serviceIS9_EEEERKSt10error_codeEEC5ERKSH_,comdat
.LLSDA7985:
	.byte	0xff
	.byte	0xff
	.byte	0x1
	.uleb128 .LLSDACSE7985-.LLSDACSB7985
.LLSDACSB7985:
	.uleb128 .LEHB47-.LFB7985
	.uleb128 .LEHE47-.LEHB47
	.uleb128 .L1766-.LFB7985
	.uleb128 0
	.uleb128 .LEHB48-.LFB7985
	.uleb128 .LEHE48-.LEHB48
	.uleb128 0
	.uleb128 0
.LLSDACSE7985:
	.section	.text._ZNSt8functionIFvRKSt10shared_ptrIN7asiopal8ExecutorEEN4asio19basic_stream_socketINS6_2ip3tcpENS6_21stream_socket_serviceIS9_EEEERKSt10error_codeEEC2ERKSH_,"axG",@progbits,_ZNSt8functionIFvRKSt10shared_ptrIN7asiopal8ExecutorEEN4asio19basic_stream_socketINS6_2ip3tcpENS6_21stream_socket_serviceIS9_EEEERKSt10error_codeEEC5ERKSH_,comdat
	.size	_ZNSt8functionIFvRKSt10shared_ptrIN7asiopal8ExecutorEEN4asio19basic_stream_socketINS6_2ip3tcpENS6_21stream_socket_serviceIS9_EEEERKSt10error_codeEEC2ERKSH_, .-_ZNSt8functionIFvRKSt10shared_ptrIN7asiopal8ExecutorEEN4asio19basic_stream_socketINS6_2ip3tcpENS6_21stream_socket_serviceIS9_EEEERKSt10error_codeEEC2ERKSH_
	.weak	_ZNSt8functionIFvRKSt10shared_ptrIN7asiopal8ExecutorEEN4asio19basic_stream_socketINS6_2ip3tcpENS6_21stream_socket_serviceIS9_EEEERKSt10error_codeEEC1ERKSH_
	.set	_ZNSt8functionIFvRKSt10shared_ptrIN7asiopal8ExecutorEEN4asio19basic_stream_socketINS6_2ip3tcpENS6_21stream_socket_serviceIS9_EEEERKSt10error_codeEEC1ERKSH_,_ZNSt8functionIFvRKSt10shared_ptrIN7asiopal8ExecutorEEN4asio19basic_stream_socketINS6_2ip3tcpENS6_21stream_socket_serviceIS9_EEEERKSt10error_codeEEC2ERKSH_
	.section	.text._ZNSt16_Sp_counted_baseILN9__gnu_cxx12_Lock_policyE2EE10_M_releaseEv,"axG",@progbits,_ZNSt16_Sp_counted_baseILN9__gnu_cxx12_Lock_policyE2EE10_M_releaseEv,comdat
	.align 2
	.p2align 4
	.weak	_ZNSt16_Sp_counted_baseILN9__gnu_cxx12_Lock_policyE2EE10_M_releaseEv
	.type	_ZNSt16_Sp_counted_baseILN9__gnu_cxx12_Lock_policyE2EE10_M_releaseEv, @function
_ZNSt16_Sp_counted_baseILN9__gnu_cxx12_Lock_policyE2EE10_M_releaseEv:
.LFB8271:
	.cfi_startproc
	endbr64
	pushq	%rbp
	.cfi_def_cfa_offset 16
	.cfi_offset 6, -16
	movq	%rdi, %rbp
	pushq	%rbx
	.cfi_def_cfa_offset 24
	.cfi_offset 3, -24
	subq	$8, %rsp
	.cfi_def_cfa_offset 32
	movq	__libc_single_threaded@GOTPCREL(%rip), %rbx
	cmpb	$0, (%rbx)
	je	.L1778
	movl	8(%rdi), %eax
	leal	-1(%rax), %edx
	movl	%edx, 8(%rdi)
.L1779:
	cmpl	$1, %eax
	je	.L1786
.L1777:
	addq	$8, %rsp
	.cfi_remember_state
	.cfi_def_cfa_offset 24
	popq	%rbx
	.cfi_def_cfa_offset 16
	popq	%rbp
	.cfi_def_cfa_offset 8
	ret
	.p2align 4,,10
	.p2align 3
.L1786:
	.cfi_restore_state
	movq	0(%rbp), %rax
	movq	%rbp, %rdi
	call	*16(%rax)
	cmpb	$0, (%rbx)
	je	.L1782
	movl	12(%rbp), %eax
	leal	-1(%rax), %edx
	movl	%edx, 12(%rbp)
.L1783:
	cmpl	$1, %eax
	jne	.L1777
	movq	0(%rbp), %rax
	movq	%rbp, %rdi
	movq	24(%rax), %rax
	addq	$8, %rsp
	.cfi_remember_state
	.cfi_def_cfa_offset 24
	popq	%rbx
	.cfi_def_cfa_offset 16
	popq	%rbp
	.cfi_def_cfa_offset 8
	jmp	*%rax
	.p2align 4,,10
	.p2align 3
.L1778:
	.cfi_restore_state
	movl	$-1, %eax
	lock xaddl	%eax, 8(%rdi)
	jmp	.L1779
	.p2align 4,,10
	.p2align 3
.L1782:
	movl	$-1, %eax
	lock xaddl	%eax, 12(%rbp)
	jmp	.L1783
	.cfi_endproc
.LFE8271:
	.size	_ZNSt16_Sp_counted_baseILN9__gnu_cxx12_Lock_policyE2EE10_M_releaseEv, .-_ZNSt16_Sp_counted_baseILN9__gnu_cxx12_Lock_policyE2EE10_M_releaseEv
	.section	.text._ZN7openpal6LoggerD2Ev,"axG",@progbits,_ZN7openpal6LoggerD5Ev,comdat
	.align 2
	.p2align 4
	.weak	_ZN7openpal6LoggerD2Ev
	.type	_ZN7openpal6LoggerD2Ev, @function
_ZN7openpal6LoggerD2Ev:
.LFB6998:
	.cfi_startproc
	endbr64
	pushq	%r12
	.cfi_def_cfa_offset 16
	.cfi_offset 12, -16
	pushq	%rbp
	.cfi_def_cfa_offset 24
	.cfi_offset 6, -24
	pushq	%rbx
	.cfi_def_cfa_offset 32
	.cfi_offset 3, -32
	movq	24(%rdi), %rbp
	movq	%rdi, %rbx
	testq	%rbp, %rbp
	je	.L1789
	movq	__libc_single_threaded@GOTPCREL(%rip), %r12
	cmpb	$0, (%r12)
	je	.L1790
	movl	8(%rbp), %eax
	leal	-1(%rax), %edx
	movl	%edx, 8(%rbp)
.L1791:
	cmpl	$1, %eax
	je	.L1797
.L1789:
	movq	8(%rbx), %rdi
	testq	%rdi, %rdi
	je	.L1787
	popq	%rbx
	.cfi_remember_state
	.cfi_def_cfa_offset 24
	popq	%rbp
	.cfi_def_cfa_offset 16
	popq	%r12
	.cfi_def_cfa_offset 8
	jmp	_ZNSt16_Sp_counted_baseILN9__gnu_cxx12_Lock_policyE2EE10_M_releaseEv@PLT
	.p2align 4,,10
	.p2align 3
.L1787:
	.cfi_restore_state
	popq	%rbx
	.cfi_remember_state
	.cfi_def_cfa_offset 24
	popq	%rbp
	.cfi_def_cfa_offset 16
	popq	%r12
	.cfi_def_cfa_offset 8
	ret
	.p2align 4,,10
	.p2align 3
.L1797:
	.cfi_restore_state
	movq	0(%rbp), %rax
	movq	%rbp, %rdi
	call	*16(%rax)
	cmpb	$0, (%r12)
	je	.L1793
	movl	12(%rbp), %eax
	leal	-1(%rax), %edx
	movl	%edx, 12(%rbp)
.L1794:
	cmpl	$1, %eax
	jne	.L1789
	movq	0(%rbp), %rax
	movq	%rbp, %rdi
	call	*24(%rax)
	jmp	.L1789
	.p2align 4,,10
	.p2align 3
.L1790:
	movl	$-1, %eax
	lock xaddl	%eax, 8(%rbp)
	jmp	.L1791
	.p2align 4,,10
	.p2align 3
.L1793:
	movl	$-1, %eax
	lock xaddl	%eax, 12(%rbp)
	jmp	.L1794
	.cfi_endproc
.LFE6998:
	.size	_ZN7openpal6LoggerD2Ev, .-_ZN7openpal6LoggerD2Ev
	.weak	_ZN7openpal6LoggerD1Ev
	.set	_ZN7openpal6LoggerD1Ev,_ZN7openpal6LoggerD2Ev
	.text
	.align 2
	.p2align 4
	.type	_ZZN7asiopal9TCPClient12BeginConnectERKSt8functionIFvRKSt10shared_ptrINS_8ExecutorEEN4asio19basic_stream_socketINS7_2ip3tcpENS7_21stream_socket_serviceISA_EEEERKSt10error_codeEEENUlSG_NS9_23basic_resolver_iteratorISA_EEE_D2Ev, @function
_ZZN7asiopal9TCPClient12BeginConnectERKSt8functionIFvRKSt10shared_ptrINS_8ExecutorEEN4asio19basic_stream_socketINS7_2ip3tcpENS7_21stream_socket_serviceISA_EEEERKSt10error_codeEEENUlSG_NS9_23basic_resolver_iteratorISA_EEE_D2Ev:
.LFB7084:
	.cfi_startproc
	.cfi_personality 0x9b,DW.ref.__gxx_personality_v0
	.cfi_lsda 0x1b,.LLSDA7084
	pushq	%rbx
	.cfi_def_cfa_offset 16
	.cfi_offset 3, -16
	movq	32(%rdi), %rax
	movq	%rdi, %rbx
	testq	%rax, %rax
	je	.L1799
	leaq	16(%rdi), %rdi
	movl	$3, %edx
	movq	%rdi, %rsi
	call	*%rax
.L1799:
	movq	8(%rbx), %rdi
	testq	%rdi, %rdi
	je	.L1798
	popq	%rbx
	.cfi_remember_state
	.cfi_def_cfa_offset 8
	jmp	_ZNSt16_Sp_counted_baseILN9__gnu_cxx12_Lock_policyE2EE10_M_releaseEv@PLT
	.p2align 4,,10
	.p2align 3
.L1798:
	.cfi_restore_state
	popq	%rbx
	.cfi_def_cfa_offset 8
	ret
	.cfi_endproc
.LFE7084:
	.section	.gcc_except_table,"a",@progbits
.LLSDA7084:
	.byte	0xff
	.byte	0xff
	.byte	0x1
	.uleb128 .LLSDACSE7084-.LLSDACSB7084
.LLSDACSB7084:
.LLSDACSE7084:
	.text
	.size	_ZZN7asiopal9TCPClient12BeginConnectERKSt8functionIFvRKSt10shared_ptrINS_8ExecutorEEN4asio19basic_stream_socketINS7_2ip3tcpENS7_21stream_socket_serviceISA_EEEERKSt10error_codeEEENUlSG_NS9_23basic_resolver_iteratorISA_EEE_D2Ev, .-_ZZN7asiopal9TCPClient12BeginConnectERKSt8functionIFvRKSt10shared_ptrINS_8ExecutorEEN4asio19basic_stream_socketINS7_2ip3tcpENS7_21stream_socket_serviceISA_EEEERKSt10error_codeEEENUlSG_NS9_23basic_resolver_iteratorISA_EEE_D2Ev
	.set	_ZZN7asiopal9TCPClient12BeginConnectERKSt8functionIFvRKSt10shared_ptrINS_8ExecutorEEN4asio19basic_stream_socketINS7_2ip3tcpENS7_21stream_socket_serviceISA_EEEERKSt10error_codeEEENUlSG_NS9_23basic_resolver_iteratorISA_EEE_D1Ev,_ZZN7asiopal9TCPClient12BeginConnectERKSt8functionIFvRKSt10shared_ptrINS_8ExecutorEEN4asio19basic_stream_socketINS7_2ip3tcpENS7_21stream_socket_serviceISA_EEEERKSt10error_codeEEENUlSG_NS9_23basic_resolver_iteratorISA_EEE_D2Ev
	.align 2
	.p2align 4
	.type	_ZZN7asiopal9TCPClient12BeginConnectERKSt8functionIFvRKSt10shared_ptrINS_8ExecutorEEN4asio19basic_stream_socketINS7_2ip3tcpENS7_21stream_socket_serviceISA_EEEERKSt10error_codeEEENUlSG_E0_D2Ev, @function
_ZZN7asiopal9TCPClient12BeginConnectERKSt8functionIFvRKSt10shared_ptrINS_8ExecutorEEN4asio19basic_stream_socketINS7_2ip3tcpENS7_21stream_socket_serviceISA_EEEERKSt10error_codeEEENUlSG_E0_D2Ev:
.LFB7100:
	.cfi_startproc
	.cfi_personality 0x9b,DW.ref.__gxx_personality_v0
	.cfi_lsda 0x1b,.LLSDA7100
	pushq	%rbx
	.cfi_def_cfa_offset 16
	.cfi_offset 3, -16
	movq	32(%rdi), %rax
	movq	%rdi, %rbx
	testq	%rax, %rax
	je	.L1806
	leaq	16(%rdi), %rdi
	movl	$3, %edx
	movq	%rdi, %rsi
	call	*%rax
.L1806:
	movq	8(%rbx), %rdi
	testq	%rdi, %rdi
	je	.L1805
	popq	%rbx
	.cfi_remember_state
	.cfi_def_cfa_offset 8
	jmp	_ZNSt16_Sp_counted_baseILN9__gnu_cxx12_Lock_policyE2EE10_M_releaseEv@PLT
	.p2align 4,,10
	.p2align 3
.L1805:
	.cfi_restore_state
	popq	%rbx
	.cfi_def_cfa_offset 8
	ret
	.cfi_endproc
.LFE7100:
	.section	.gcc_except_table
.LLSDA7100:
	.byte	0xff
	.byte	0xff
	.byte	0x1
	.uleb128 .LLSDACSE7100-.LLSDACSB7100
.LLSDACSB7100:
.LLSDACSE7100:
	.text
	.size	_ZZN7asiopal9TCPClient12BeginConnectERKSt8functionIFvRKSt10shared_ptrINS_8ExecutorEEN4asio19basic_stream_socketINS7_2ip3tcpENS7_21stream_socket_serviceISA_EEEERKSt10error_codeEEENUlSG_E0_D2Ev, .-_ZZN7asiopal9TCPClient12BeginConnectERKSt8functionIFvRKSt10shared_ptrINS_8ExecutorEEN4asio19basic_stream_socketINS7_2ip3tcpENS7_21stream_socket_serviceISA_EEEERKSt10error_codeEEENUlSG_E0_D2Ev
	.set	_ZZN7asiopal9TCPClient12BeginConnectERKSt8functionIFvRKSt10shared_ptrINS_8ExecutorEEN4asio19basic_stream_socketINS7_2ip3tcpENS7_21stream_socket_serviceISA_EEEERKSt10error_codeEEENUlSG_E0_D1Ev,_ZZN7asiopal9TCPClient12BeginConnectERKSt8functionIFvRKSt10shared_ptrINS_8ExecutorEEN4asio19basic_stream_socketINS7_2ip3tcpENS7_21stream_socket_serviceISA_EEEERKSt10error_codeEEENUlSG_E0_D2Ev
	.align 2
	.p2align 4
	.type	_ZZN7asiopal9TCPClient19HandleResolveResultERKSt8functionIFvRKSt10shared_ptrINS_8ExecutorEEN4asio19basic_stream_socketINS7_2ip3tcpENS7_21stream_socket_serviceISA_EEEERKSt10error_codeEERKNS9_23basic_resolver_iteratorISA_EESG_ENUlSG_SM_E_D2Ev, @function
_ZZN7asiopal9TCPClient19HandleResolveResultERKSt8functionIFvRKSt10shared_ptrINS_8ExecutorEEN4asio19basic_stream_socketINS7_2ip3tcpENS7_21stream_socket_serviceISA_EEEERKSt10error_codeEERKNS9_23basic_resolver_iteratorISA_EESG_ENUlSG_SM_E_D2Ev:
.LFB7114:
	.cfi_startproc
	.cfi_personality 0x9b,DW.ref.__gxx_personality_v0
	.cfi_lsda 0x1b,.LLSDA7114
	pushq	%rbx
	.cfi_def_cfa_offset 16
	.cfi_offset 3, -16
	movq	32(%rdi), %rax
	movq	%rdi, %rbx
	testq	%rax, %rax
	je	.L1813
	leaq	16(%rdi), %rdi
	movl	$3, %edx
	movq	%rdi, %rsi
	call	*%rax
.L1813:
	movq	8(%rbx), %rdi
	testq	%rdi, %rdi
	je	.L1812
	popq	%rbx
	.cfi_remember_state
	.cfi_def_cfa_offset 8
	jmp	_ZNSt16_Sp_counted_baseILN9__gnu_cxx12_Lock_policyE2EE10_M_releaseEv@PLT
	.p2align 4,,10
	.p2align 3
.L1812:
	.cfi_restore_state
	popq	%rbx
	.cfi_def_cfa_offset 8
	ret
	.cfi_endproc
.LFE7114:
	.section	.gcc_except_table
.LLSDA7114:
	.byte	0xff
	.byte	0xff
	.byte	0x1
	.uleb128 .LLSDACSE7114-.LLSDACSB7114
.LLSDACSB7114:
.LLSDACSE7114:
	.text
	.size	_ZZN7asiopal9TCPClient19HandleResolveResultERKSt8functionIFvRKSt10shared_ptrINS_8ExecutorEEN4asio19basic_stream_socketINS7_2ip3tcpENS7_21stream_socket_serviceISA_EEEERKSt10error_codeEERKNS9_23basic_resolver_iteratorISA_EESG_ENUlSG_SM_E_D2Ev, .-_ZZN7asiopal9TCPClient19HandleResolveResultERKSt8functionIFvRKSt10shared_ptrINS_8ExecutorEEN4asio19basic_stream_socketINS7_2ip3tcpENS7_21stream_socket_serviceISA_EEEERKSt10error_codeEERKNS9_23basic_resolver_iteratorISA_EESG_ENUlSG_SM_E_D2Ev
	.set	_ZZN7asiopal9TCPClient19HandleResolveResultERKSt8functionIFvRKSt10shared_ptrINS_8ExecutorEEN4asio19basic_stream_socketINS7_2ip3tcpENS7_21stream_socket_serviceISA_EEEERKSt10error_codeEERKNS9_23basic_resolver_iteratorISA_EESG_ENUlSG_SM_E_D1Ev,_ZZN7asiopal9TCPClient19HandleResolveResultERKSt8functionIFvRKSt10shared_ptrINS_8ExecutorEEN4asio19basic_stream_socketINS7_2ip3tcpENS7_21stream_socket_serviceISA_EEEERKSt10error_codeEERKNS9_23basic_resolver_iteratorISA_EESG_ENUlSG_SM_E_D2Ev
	.section	.text.unlikely
	.align 2
	.type	_ZZN7asiopal9TCPClient16PostConnectErrorERKSt8functionIFvRKSt10shared_ptrINS_8ExecutorEEN4asio19basic_stream_socketINS7_2ip3tcpENS7_21stream_socket_serviceISA_EEEERKSt10error_codeEESG_ENUlvE_D2Ev, @function
_ZZN7asiopal9TCPClient16PostConnectErrorERKSt8functionIFvRKSt10shared_ptrINS_8ExecutorEEN4asio19basic_stream_socketINS7_2ip3tcpENS7_21stream_socket_serviceISA_EEEERKSt10error_codeEESG_ENUlvE_D2Ev:
.LFB7149:
	.cfi_startproc
	.cfi_personality 0x9b,DW.ref.__gxx_personality_v0
	.cfi_lsda 0x1b,.LLSDA7149
	pushq	%rbx
	.cfi_def_cfa_offset 16
	.cfi_offset 3, -16
	movq	48(%rdi), %rax
	movq	%rdi, %rbx
	testq	%rax, %rax
	je	.L1820
	leaq	32(%rdi), %rdi
	movl	$3, %edx
	movq	%rdi, %rsi
	call	*%rax
.L1820:
	movq	8(%rbx), %rdi
	testq	%rdi, %rdi
	je	.L1819
	popq	%rbx
	.cfi_remember_state
	.cfi_def_cfa_offset 8
	jmp	_ZNSt16_Sp_counted_baseILN9__gnu_cxx12_Lock_policyE2EE10_M_releaseEv@PLT
.L1819:
	.cfi_restore_state
	popq	%rbx
	.cfi_def_cfa_offset 8
	ret
	.cfi_endproc
.LFE7149:
	.section	.gcc_except_table
.LLSDA7149:
	.byte	0xff
	.byte	0xff
	.byte	0x1
	.uleb128 .LLSDACSE7149-.LLSDACSB7149
.LLSDACSB7149:
.LLSDACSE7149:
	.section	.text.unlikely
	.size	_ZZN7asiopal9TCPClient16PostConnectErrorERKSt8functionIFvRKSt10shared_ptrINS_8ExecutorEEN4asio19basic_stream_socketINS7_2ip3tcpENS7_21stream_socket_serviceISA_EEEERKSt10error_codeEESG_ENUlvE_D2Ev, .-_ZZN7asiopal9TCPClient16PostConnectErrorERKSt8functionIFvRKSt10shared_ptrINS_8ExecutorEEN4asio19basic_stream_socketINS7_2ip3tcpENS7_21stream_socket_serviceISA_EEEERKSt10error_codeEESG_ENUlvE_D2Ev
	.set	_ZZN7asiopal9TCPClient16PostConnectErrorERKSt8functionIFvRKSt10shared_ptrINS_8ExecutorEEN4asio19basic_stream_socketINS7_2ip3tcpENS7_21stream_socket_serviceISA_EEEERKSt10error_codeEESG_ENUlvE_D1Ev,_ZZN7asiopal9TCPClient16PostConnectErrorERKSt8functionIFvRKSt10shared_ptrINS_8ExecutorEEN4asio19basic_stream_socketINS7_2ip3tcpENS7_21stream_socket_serviceISA_EEEERKSt10error_codeEESG_ENUlvE_D2Ev
	.align 2
.LCOLDB29:
	.text
.LHOTB29:
	.align 2
	.p2align 4
	.type	_ZZN7asiopal9TCPClient12BeginConnectERKSt8functionIFvRKSt10shared_ptrINS_8ExecutorEEN4asio19basic_stream_socketINS7_2ip3tcpENS7_21stream_socket_serviceISA_EEEERKSt10error_codeEEENUlSG_NS9_23basic_resolver_iteratorISA_EEE_C2EOSN_, @function
_ZZN7asiopal9TCPClient12BeginConnectERKSt8functionIFvRKSt10shared_ptrINS_8ExecutorEEN4asio19basic_stream_socketINS7_2ip3tcpENS7_21stream_socket_serviceISA_EEEERKSt10error_codeEEENUlSG_NS9_23basic_resolver_iteratorISA_EEE_C2EOSN_:
.LFB7087:
	.cfi_startproc
	.cfi_personality 0x9b,DW.ref.__gxx_personality_v0
	.cfi_lsda 0x1b,.LLSDA7087
	movq	(%rsi), %rax
	movq	$0, 8(%rdi)
	pxor	%xmm0, %xmm0
	movq	%rax, (%rdi)
	movq	8(%rsi), %rax
	movups	%xmm0, (%rsi)
	pxor	%xmm0, %xmm0
	movq	%rax, 8(%rdi)
	movq	32(%rsi), %rax
	movq	$0, 32(%rdi)
	movq	$0, 40(%rdi)
	movups	%xmm0, 16(%rdi)
	testq	%rax, %rax
	je	.L1842
	pushq	%r12
	.cfi_def_cfa_offset 16
	.cfi_offset 12, -16
	leaq	16(%rdi), %r12
	movl	$2, %edx
	pushq	%rbp
	.cfi_def_cfa_offset 24
	.cfi_offset 6, -24
	movq	%rsi, %rbp
	leaq	16(%rsi), %rsi
	pushq	%rbx
	.cfi_def_cfa_offset 32
	.cfi_offset 3, -32
	movq	%rdi, %rbx
	movq	%r12, %rdi
.LEHB49:
	call	*%rax
.LEHE49:
	movdqu	32(%rbp), %xmm1
	movups	%xmm1, 32(%rbx)
	popq	%rbx
	.cfi_def_cfa_offset 24
	popq	%rbp
	.cfi_def_cfa_offset 16
	popq	%r12
	.cfi_def_cfa_offset 8
	ret
	.p2align 4,,10
	.p2align 3
.L1842:
	.cfi_restore 3
	.cfi_restore 6
	.cfi_restore 12
	ret
.L1831:
	.cfi_def_cfa_offset 32
	.cfi_offset 3, -32
	.cfi_offset 6, -24
	.cfi_offset 12, -16
	endbr64
	movq	%rax, %rbp
	jmp	.L1828
	.section	.gcc_except_table
.LLSDA7087:
	.byte	0xff
	.byte	0xff
	.byte	0x1
	.uleb128 .LLSDACSE7087-.LLSDACSB7087
.LLSDACSB7087:
	.uleb128 .LEHB49-.LFB7087
	.uleb128 .LEHE49-.LEHB49
	.uleb128 .L1831-.LFB7087
	.uleb128 0
.LLSDACSE7087:
	.text
	.cfi_endproc
	.section	.text.unlikely
	.cfi_startproc
	.cfi_personality 0x9b,DW.ref.__gxx_personality_v0
	.cfi_lsda 0x1b,.LLSDAC7087
	.type	_ZZN7asiopal9TCPClient12BeginConnectERKSt8functionIFvRKSt10shared_ptrINS_8ExecutorEEN4asio19basic_stream_socketINS7_2ip3tcpENS7_21stream_socket_serviceISA_EEEERKSt10error_codeEEENUlSG_NS9_23basic_resolver_iteratorISA_EEE_C2EOSN_.cold, @function
_ZZN7asiopal9TCPClient12BeginConnectERKSt8functionIFvRKSt10shared_ptrINS_8ExecutorEEN4asio19basic_stream_socketINS7_2ip3tcpENS7_21stream_socket_serviceISA_EEEERKSt10error_codeEEENUlSG_NS9_23basic_resolver_iteratorISA_EEE_C2EOSN_.cold:
.LFSB7087:
.L1828:
	.cfi_def_cfa_offset 32
	.cfi_offset 3, -32
	.cfi_offset 6, -24
	.cfi_offset 12, -16
	movq	32(%rbx), %rax
	testq	%rax, %rax
	je	.L1829
	movl	$3, %edx
	movq	%r12, %rsi
	movq	%r12, %rdi
	call	*%rax
.L1829:
	movq	8(%rbx), %rdi
	testq	%rdi, %rdi
	je	.L1830
	call	_ZNSt16_Sp_counted_baseILN9__gnu_cxx12_Lock_policyE2EE10_M_releaseEv@PLT
.L1830:
	movq	%rbp, %rdi
.LEHB50:
	call	_Unwind_Resume@PLT
.LEHE50:
	.cfi_endproc
.LFE7087:
	.section	.gcc_except_table
.LLSDAC7087:
	.byte	0xff
	.byte	0xff
	.byte	0x1
	.uleb128 .LLSDACSEC7087-.LLSDACSBC7087
.LLSDACSBC7087:
	.uleb128 .LEHB50-.LCOLDB29
	.uleb128 .LEHE50-.LEHB50
	.uleb128 0
	.uleb128 0
.LLSDACSEC7087:
	.section	.text.unlikely
	.text
	.size	_ZZN7asiopal9TCPClient12BeginConnectERKSt8functionIFvRKSt10shared_ptrINS_8ExecutorEEN4asio19basic_stream_socketINS7_2ip3tcpENS7_21stream_socket_serviceISA_EEEERKSt10error_codeEEENUlSG_NS9_23basic_resolver_iteratorISA_EEE_C2EOSN_, .-_ZZN7asiopal9TCPClient12BeginConnectERKSt8functionIFvRKSt10shared_ptrINS_8ExecutorEEN4asio19basic_stream_socketINS7_2ip3tcpENS7_21stream_socket_serviceISA_EEEERKSt10error_codeEEENUlSG_NS9_23basic_resolver_iteratorISA_EEE_C2EOSN_
	.section	.text.unlikely
	.size	_ZZN7asiopal9TCPClient12BeginConnectERKSt8functionIFvRKSt10shared_ptrINS_8ExecutorEEN4asio19basic_stream_socketINS7_2ip3tcpENS7_21stream_socket_serviceISA_EEEERKSt10error_codeEEENUlSG_NS9_23basic_resolver_iteratorISA_EEE_C2EOSN_.cold, .-_ZZN7asiopal9TCPClient12BeginConnectERKSt8functionIFvRKSt10shared_ptrINS_8ExecutorEEN4asio19basic_stream_socketINS7_2ip3tcpENS7_21stream_socket_serviceISA_EEEERKSt10error_codeEEENUlSG_NS9_23basic_resolver_iteratorISA_EEE_C2EOSN_.cold
.LCOLDE29:
	.text
.LHOTE29:
	.set	_ZZN7asiopal9TCPClient12BeginConnectERKSt8functionIFvRKSt10shared_ptrINS_8ExecutorEEN4asio19basic_stream_socketINS7_2ip3tcpENS7_21stream_socket_serviceISA_EEEERKSt10error_codeEEENUlSG_NS9_23basic_resolver_iteratorISA_EEE_C1EOSN_,_ZZN7asiopal9TCPClient12BeginConnectERKSt8functionIFvRKSt10shared_ptrINS_8ExecutorEEN4asio19basic_stream_socketINS7_2ip3tcpENS7_21stream_socket_serviceISA_EEEERKSt10error_codeEEENUlSG_NS9_23basic_resolver_iteratorISA_EEE_C2EOSN_
	.section	.text.unlikely
	.align 2
.LCOLDB30:
	.text
.LHOTB30:
	.align 2
	.p2align 4
	.type	_ZZN7asiopal9TCPClient12BeginConnectERKSt8functionIFvRKSt10shared_ptrINS_8ExecutorEEN4asio19basic_stream_socketINS7_2ip3tcpENS7_21stream_socket_serviceISA_EEEERKSt10error_codeEEENUlSG_E0_C2EOSL_, @function
_ZZN7asiopal9TCPClient12BeginConnectERKSt8functionIFvRKSt10shared_ptrINS_8ExecutorEEN4asio19basic_stream_socketINS7_2ip3tcpENS7_21stream_socket_serviceISA_EEEERKSt10error_codeEEENUlSG_E0_C2EOSL_:
.LFB7103:
	.cfi_startproc
	.cfi_personality 0x9b,DW.ref.__gxx_personality_v0
	.cfi_lsda 0x1b,.LLSDA7103
	movq	(%rsi), %rax
	movq	$0, 8(%rdi)
	pxor	%xmm0, %xmm0
	movq	%rax, (%rdi)
	movq	8(%rsi), %rax
	movups	%xmm0, (%rsi)
	pxor	%xmm0, %xmm0
	movq	%rax, 8(%rdi)
	movq	32(%rsi), %rax
	movq	$0, 32(%rdi)
	movq	$0, 40(%rdi)
	movups	%xmm0, 16(%rdi)
	testq	%rax, %rax
	je	.L1861
	pushq	%r12
	.cfi_def_cfa_offset 16
	.cfi_offset 12, -16
	leaq	16(%rdi), %r12
	movl	$2, %edx
	pushq	%rbp
	.cfi_def_cfa_offset 24
	.cfi_offset 6, -24
	movq	%rsi, %rbp
	leaq	16(%rsi), %rsi
	pushq	%rbx
	.cfi_def_cfa_offset 32
	.cfi_offset 3, -32
	movq	%rdi, %rbx
	movq	%r12, %rdi
.LEHB51:
	call	*%rax
.LEHE51:
	movdqu	32(%rbp), %xmm1
	movups	%xmm1, 32(%rbx)
	popq	%rbx
	.cfi_def_cfa_offset 24
	popq	%rbp
	.cfi_def_cfa_offset 16
	popq	%r12
	.cfi_def_cfa_offset 8
	ret
	.p2align 4,,10
	.p2align 3
.L1861:
	.cfi_restore 3
	.cfi_restore 6
	.cfi_restore 12
	ret
.L1850:
	.cfi_def_cfa_offset 32
	.cfi_offset 3, -32
	.cfi_offset 6, -24
	.cfi_offset 12, -16
	endbr64
	movq	%rax, %rbp
	jmp	.L1847
	.section	.gcc_except_table
.LLSDA7103:
	.byte	0xff
	.byte	0xff
	.byte	0x1
	.uleb128 .LLSDACSE7103-.LLSDACSB7103
.LLSDACSB7103:
	.uleb128 .LEHB51-.LFB7103
	.uleb128 .LEHE51-.LEHB51
	.uleb128 .L1850-.LFB7103
	.uleb128 0
.LLSDACSE7103:
	.text
	.cfi_endproc
	.section	.text.unlikely
	.cfi_startproc
	.cfi_personality 0x9b,DW.ref.__gxx_personality_v0
	.cfi_lsda 0x1b,.LLSDAC7103
	.type	_ZZN7asiopal9TCPClient12BeginConnectERKSt8functionIFvRKSt10shared_ptrINS_8ExecutorEEN4asio19basic_stream_socketINS7_2ip3tcpENS7_21stream_socket_serviceISA_EEEERKSt10error_codeEEENUlSG_E0_C2EOSL_.cold, @function
_ZZN7asiopal9TCPClient12BeginConnectERKSt8functionIFvRKSt10shared_ptrINS_8ExecutorEEN4asio19basic_stream_socketINS7_2ip3tcpENS7_21stream_socket_serviceISA_EEEERKSt10error_codeEEENUlSG_E0_C2EOSL_.cold:
.LFSB7103:
.L1847:
	.cfi_def_cfa_offset 32
	.cfi_offset 3, -32
	.cfi_offset 6, -24
	.cfi_offset 12, -16
	movq	32(%rbx), %rax
	testq	%rax, %rax
	je	.L1848
	movl	$3, %edx
	movq	%r12, %rsi
	movq	%r12, %rdi
	call	*%rax
.L1848:
	movq	8(%rbx), %rdi
	testq	%rdi, %rdi
	je	.L1849
	call	_ZNSt16_Sp_counted_baseILN9__gnu_cxx12_Lock_policyE2EE10_M_releaseEv@PLT
.L1849:
	movq	%rbp, %rdi
.LEHB52:
	call	_Unwind_Resume@PLT
.LEHE52:
	.cfi_endproc
.LFE7103:
	.section	.gcc_except_table
.LLSDAC7103:
	.byte	0xff
	.byte	0xff
	.byte	0x1
	.uleb128 .LLSDACSEC7103-.LLSDACSBC7103
.LLSDACSBC7103:
	.uleb128 .LEHB52-.LCOLDB30
	.uleb128 .LEHE52-.LEHB52
	.uleb128 0
	.uleb128 0
.LLSDACSEC7103:
	.section	.text.unlikely
	.text
	.size	_ZZN7asiopal9TCPClient12BeginConnectERKSt8functionIFvRKSt10shared_ptrINS_8ExecutorEEN4asio19basic_stream_socketINS7_2ip3tcpENS7_21stream_socket_serviceISA_EEEERKSt10error_codeEEENUlSG_E0_C2EOSL_, .-_ZZN7asiopal9TCPClient12BeginConnectERKSt8functionIFvRKSt10shared_ptrINS_8ExecutorEEN4asio19basic_stream_socketINS7_2ip3tcpENS7_21stream_socket_serviceISA_EEEERKSt10error_codeEEENUlSG_E0_C2EOSL_
	.section	.text.unlikely
	.size	_ZZN7asiopal9TCPClient12BeginConnectERKSt8functionIFvRKSt10shared_ptrINS_8ExecutorEEN4asio19basic_stream_socketINS7_2ip3tcpENS7_21stream_socket_serviceISA_EEEERKSt10error_codeEEENUlSG_E0_C2EOSL_.cold, .-_ZZN7asiopal9TCPClient12BeginConnectERKSt8functionIFvRKSt10shared_ptrINS_8ExecutorEEN4asio19basic_stream_socketINS7_2ip3tcpENS7_21stream_socket_serviceISA_EEEERKSt10error_codeEEENUlSG_E0_C2EOSL_.cold
.LCOLDE30:
	.text
.LHOTE30:
	.set	_ZZN7asiopal9TCPClient12BeginConnectERKSt8functionIFvRKSt10shared_ptrINS_8ExecutorEEN4asio19basic_stream_socketINS7_2ip3tcpENS7_21stream_socket_serviceISA_EEEERKSt10error_codeEEENUlSG_E0_C1EOSL_,_ZZN7asiopal9TCPClient12BeginConnectERKSt8functionIFvRKSt10shared_ptrINS_8ExecutorEEN4asio19basic_stream_socketINS7_2ip3tcpENS7_21stream_socket_serviceISA_EEEERKSt10error_codeEEENUlSG_E0_C2EOSL_
	.section	.text.unlikely
	.align 2
.LCOLDB32:
	.text
.LHOTB32:
	.align 2
	.p2align 4
	.globl	_ZN7asiopal9TCPClient6CancelEv
	.type	_ZN7asiopal9TCPClient6CancelEv, @function
_ZN7asiopal9TCPClient6CancelEv:
.LFB7070:
	.cfi_startproc
	.cfi_personality 0x9b,DW.ref.__gxx_personality_v0
	.cfi_lsda 0x1b,.LLSDA7070
	endbr64
	pushq	%r15
	.cfi_def_cfa_offset 16
	.cfi_offset 15, -16
	pushq	%r14
	.cfi_def_cfa_offset 24
	.cfi_offset 14, -24
	pushq	%r13
	.cfi_def_cfa_offset 32
	.cfi_offset 13, -32
	pushq	%r12
	.cfi_def_cfa_offset 40
	.cfi_offset 12, -40
	pushq	%rbp
	.cfi_def_cfa_offset 48
	.cfi_offset 6, -48
	pushq	%rbx
	.cfi_def_cfa_offset 56
	.cfi_offset 3, -56
	subq	$88, %rsp
	.cfi_def_cfa_offset 144
	movq	%fs:40, %rax
	movq	%rax, 72(%rsp)
	xorl	%eax, %eax
	cmpb	$0, 17(%rdi)
	jne	.L1891
	movzbl	16(%rdi), %r12d
	movq	%rdi, %rbx
	testb	%r12b, %r12b
	jne	.L1912
.L1864:
	movq	72(%rsp), %rax
	subq	%fs:40, %rax
	jne	.L1913
	addq	$88, %rsp
	.cfi_remember_state
	.cfi_def_cfa_offset 56
	movl	%r12d, %eax
	popq	%rbx
	.cfi_def_cfa_offset 48
	popq	%rbp
	.cfi_def_cfa_offset 40
	popq	%r12
	.cfi_def_cfa_offset 32
	popq	%r13
	.cfi_def_cfa_offset 24
	popq	%r14
	.cfi_def_cfa_offset 16
	popq	%r15
	.cfi_def_cfa_offset 8
	ret
	.p2align 4,,10
	.p2align 3
.L1912:
	.cfi_restore_state
	cmpl	$-1, 136(%rdi)
	movq	160(%rdi), %rax
	je	.L1914
	movq	40(%rax), %rax
	movq	144(%rdi), %r13
	movq	%rax, 16(%rsp)
	testq	%r13, %r13
	je	.L1867
	leaq	40(%r13), %rax
	movq	%rax, %rdi
	movq	%rax, 24(%rsp)
	call	pthread_mutex_lock@PLT
	pxor	%xmm0, %xmm0
	movl	$0, 8(%rsp)
	movq	144(%rbx), %r10
	movaps	%xmm0, 32(%rsp)
.L1869:
	movslq	8(%rsp), %rbp
	movq	%rbp, %rax
	salq	$4, %rax
	movq	96(%rax,%r10), %r15
	testq	%r15, %r15
	je	.L1878
	movq	_ZGVZN4asio15system_categoryEvE8instance@GOTPCREL(%rip), %r14
	movq	_ZZN4asio15system_categoryEvE8instance@GOTPCREL(%rip), %r13
	jmp	.L1879
	.p2align 4,,10
	.p2align 3
.L1871:
	movq	144(%rbx), %r10
	movq	%rbp, %rax
	movl	$125, 24(%r15)
	salq	$4, %rax
	movq	%r13, 32(%r15)
	addq	%r10, %rax
	movq	96(%rax), %rdx
	testq	%rdx, %rdx
	je	.L1873
	movq	(%rdx), %rdi
	movq	%rdi, 96(%rax)
	testq	%rdi, %rdi
	je	.L1915
	movq	40(%rsp), %rax
	movq	$0, (%rdx)
	movq	$0, (%r15)
	testq	%rax, %rax
	je	.L1889
	movq	%r15, (%rax)
	movq	%r15, 40(%rsp)
.L1876:
	movq	%rdi, %r15
.L1879:
	movzbl	(%r14), %eax
	testb	%al, %al
	jne	.L1871
	movq	%r14, %rdi
	call	__cxa_guard_acquire@PLT
	testl	%eax, %eax
	je	.L1871
	movq	_ZN4asio6detail15system_categoryD1Ev@GOTPCREL(%rip), %rdi
	leaq	__dso_handle(%rip), %rdx
	movq	%r13, %rsi
	call	__cxa_atexit@PLT
	movq	%r14, %rdi
	call	__cxa_guard_release@PLT
	jmp	.L1871
.L1916:
	movq	%rsi, %rbp
	.p2align 4,,10
	.p2align 3
.L1886:
	movq	$0, 0(%rbp)
	xorl	%ecx, %ecx
	movq	%r14, %rdx
	movq	%rbp, %rsi
	movl	$0, 48(%rsp)
	xorl	%edi, %edi
	movq	%r13, 56(%rsp)
	call	*%r8
.L1867:
	movl	$24, %edi
.LEHB53:
	call	_Znwm@PLT
.LEHE53:
	movq	.LC31(%rip), %rdx
	movq	240(%rbx), %rdi
	movq	$0, 16(%rax)
	movq	$0, 232(%rbx)
	movq	%rdx, 8(%rax)
	movq	_ZTVSt19_Sp_counted_deleterIPvN4asio6detail10socket_ops12noop_deleterESaIvELN9__gnu_cxx12_Lock_policyE2EE@GOTPCREL(%rip), %rdx
	movq	%rax, 240(%rbx)
	addq	$16, %rdx
	movq	%rdx, (%rax)
	testq	%rdi, %rdi
	je	.L1883
	call	_ZNSt16_Sp_counted_baseILN9__gnu_cxx12_Lock_policyE2EE10_M_releaseEv@PLT
.L1883:
	movb	$1, 17(%rbx)
	jmp	.L1864
	.p2align 4,,10
	.p2align 3
.L1891:
	xorl	%r12d, %r12d
	jmp	.L1864
	.p2align 4,,10
	.p2align 3
.L1873:
	movq	40(%rsp), %rax
	movq	$0, (%r15)
	testq	%rax, %rax
	jne	.L1875
	movq	%r15, 32(%rsp)
	movq	%r15, 40(%rsp)
.L1878:
	addl	$1, 8(%rsp)
	movl	8(%rsp), %eax
	cmpl	$3, %eax
	jne	.L1869
	movq	24(%rsp), %rdi
	call	pthread_mutex_unlock@PLT
	movq	16(%rsp), %rax
	leaq	32(%rsp), %rsi
	movq	40(%rax), %rdi
	call	_ZN4asio6detail15task_io_service25post_deferred_completionsERNS0_8op_queueINS0_25task_io_service_operationEEE@PLT
	movq	32(%rsp), %rsi
	testq	%rsi, %rsi
	movq	%rsi, 8(%rsp)
	je	.L1867
	call	_ZNSt3_V215system_categoryEv@PLT
	movq	8(%rsp), %rsi
	leaq	48(%rsp), %r14
	movq	%rax, %r13
	movq	(%rsi), %rbp
	movq	8(%rsi), %r8
	movq	%rbp, 32(%rsp)
	testq	%rbp, %rbp
	je	.L1916
	.p2align 4,,10
	.p2align 3
.L1881:
	movq	$0, (%rsi)
	xorl	%ecx, %ecx
	movq	%r14, %rdx
	xorl	%edi, %edi
	movl	$0, 48(%rsp)
	movq	%r13, 56(%rsp)
	call	*%r8
	movq	0(%rbp), %rax
	movq	8(%rbp), %r8
	movq	%rbp, %rsi
	movq	%rax, 32(%rsp)
	testq	%rax, %rax
	je	.L1886
	movq	%rax, %rbp
	jmp	.L1881
	.p2align 4,,10
	.p2align 3
.L1915:
	movq	$0, 104(%rax)
	movq	40(%rsp), %rax
	movq	$0, (%rdx)
	movq	$0, (%r15)
	testq	%rax, %rax
	jne	.L1875
.L1889:
	movq	%r15, 32(%rsp)
	movq	%r15, 40(%rsp)
	testq	%rdi, %rdi
	jne	.L1876
	jmp	.L1878
	.p2align 4,,10
	.p2align 3
.L1875:
	movq	%r15, (%rax)
	movq	%r15, 40(%rsp)
	jmp	.L1878
	.p2align 4,,10
	.p2align 3
.L1914:
	call	_ZN4asio15system_categoryEv@PLT
	jmp	.L1867
.L1913:
	call	__stack_chk_fail@PLT
.L1893:
	endbr64
	movq	%rax, %rdi
	jmp	.L1884
	.section	.gcc_except_table
	.align 4
.LLSDA7070:
	.byte	0xff
	.byte	0x9b
	.uleb128 .LLSDATT7070-.LLSDATTD7070
.LLSDATTD7070:
	.byte	0x1
	.uleb128 .LLSDACSE7070-.LLSDACSB7070
.LLSDACSB7070:
	.uleb128 .LEHB53-.LFB7070
	.uleb128 .LEHE53-.LEHB53
	.uleb128 .L1893-.LFB7070
	.uleb128 0x1
.LLSDACSE7070:
	.byte	0x1
	.byte	0
	.align 4
	.long	0

.LLSDATT7070:
	.text
	.cfi_endproc
	.section	.text.unlikely
	.cfi_startproc
	.cfi_personality 0x9b,DW.ref.__gxx_personality_v0
	.cfi_lsda 0x1b,.LLSDAC7070
	.type	_ZN7asiopal9TCPClient6CancelEv.cold, @function
_ZN7asiopal9TCPClient6CancelEv.cold:
.LFSB7070:
.L1884:
	.cfi_def_cfa_offset 144
	.cfi_offset 3, -56
	.cfi_offset 6, -48
	.cfi_offset 12, -40
	.cfi_offset 13, -32
	.cfi_offset 14, -24
	.cfi_offset 15, -16
	call	__cxa_begin_catch@PLT
.LEHB54:
	call	__cxa_rethrow@PLT
.LEHE54:
.L1892:
	endbr64
	movq	%rax, %rbp
	call	__cxa_end_catch@PLT
	movq	%rbp, %rdi
.LEHB55:
	call	_Unwind_Resume@PLT
.LEHE55:
	.cfi_endproc
.LFE7070:
	.section	.gcc_except_table
	.align 4
.LLSDAC7070:
	.byte	0xff
	.byte	0x9b
	.uleb128 .LLSDATTC7070-.LLSDATTDC7070
.LLSDATTDC7070:
	.byte	0x1
	.uleb128 .LLSDACSEC7070-.LLSDACSBC7070
.LLSDACSBC7070:
	.uleb128 .LEHB54-.LCOLDB32
	.uleb128 .LEHE54-.LEHB54
	.uleb128 .L1892-.LCOLDB32
	.uleb128 0
	.uleb128 .LEHB55-.LCOLDB32
	.uleb128 .LEHE55-.LEHB55
	.uleb128 0
	.uleb128 0
.LLSDACSEC7070:
	.byte	0x1
	.byte	0
	.align 4
	.long	0

.LLSDATTC7070:
	.section	.text.unlikely
	.text
	.size	_ZN7asiopal9TCPClient6CancelEv, .-_ZN7asiopal9TCPClient6CancelEv
	.section	.text.unlikely
	.size	_ZN7asiopal9TCPClient6CancelEv.cold, .-_ZN7asiopal9TCPClient6CancelEv.cold
.LCOLDE32:
	.text
.LHOTE32:
	.section	.text.unlikely
	.align 2
.LCOLDB33:
	.text
.LHOTB33:
	.align 2
	.p2align 4
	.type	_ZN4asio6detail10connect_opINS_2ip3tcpENS_21stream_socket_serviceIS3_EENS2_23basic_resolver_iteratorIS3_EEN7asiopal26LoggingConnectionConditionENS0_15wrapped_handlerINS_10io_service6strandEZNS8_9TCPClient19HandleResolveResultERKSt8functionIFvRKSt10shared_ptrINS8_8ExecutorEENS_19basic_stream_socketIS3_S5_EERKSt10error_codeEERKS7_SO_EUlSO_S7_E_NS0_26is_continuation_if_runningEEEEC2EOSY_, @function
