	.file	"TCPServer.cpp"
	.text
	.section	.rodata._ZNK4asio6detail15system_category4nameEv.str1.1,"aMS",@progbits,1
.LC0:
	.string	"asio.system"
	.section	.text._ZNK4asio6detail15system_category4nameEv,"axG",@progbits,_ZNK4asio6detail15system_category4nameEv,comdat
	.align 2
	.p2align 4
	.weak	_ZNK4asio6detail15system_category4nameEv
	.type	_ZNK4asio6detail15system_category4nameEv, @function
_ZNK4asio6detail15system_category4nameEv:
.LFB2399:
	.cfi_startproc
	endbr64
	leaq	.LC0(%rip), %rax
	ret
	.cfi_endproc
.LFE2399:
	.size	_ZNK4asio6detail15system_category4nameEv, .-_ZNK4asio6detail15system_category4nameEv
	.section	.rodata._ZNK4asio5error6detail14netdb_category4nameEv.str1.1,"aMS",@progbits,1
.LC1:
	.string	"asio.netdb"
	.section	.text._ZNK4asio5error6detail14netdb_category4nameEv,"axG",@progbits,_ZNK4asio5error6detail14netdb_category4nameEv,comdat
	.align 2
	.p2align 4
	.weak	_ZNK4asio5error6detail14netdb_category4nameEv
	.type	_ZNK4asio5error6detail14netdb_category4nameEv, @function
_ZNK4asio5error6detail14netdb_category4nameEv:
.LFB2439:
	.cfi_startproc
	endbr64
	leaq	.LC1(%rip), %rax
	ret
	.cfi_endproc
.LFE2439:
	.size	_ZNK4asio5error6detail14netdb_category4nameEv, .-_ZNK4asio5error6detail14netdb_category4nameEv
	.section	.rodata._ZNK4asio5error6detail17addrinfo_category4nameEv.str1.1,"aMS",@progbits,1
.LC2:
	.string	"asio.addrinfo"
	.section	.text._ZNK4asio5error6detail17addrinfo_category4nameEv,"axG",@progbits,_ZNK4asio5error6detail17addrinfo_category4nameEv,comdat
	.align 2
	.p2align 4
	.weak	_ZNK4asio5error6detail17addrinfo_category4nameEv
	.type	_ZNK4asio5error6detail17addrinfo_category4nameEv, @function
_ZNK4asio5error6detail17addrinfo_category4nameEv:
.LFB2445:
	.cfi_startproc
	endbr64
	leaq	.LC2(%rip), %rax
	ret
	.cfi_endproc
.LFE2445:
	.size	_ZNK4asio5error6detail17addrinfo_category4nameEv, .-_ZNK4asio5error6detail17addrinfo_category4nameEv
	.section	.rodata._ZNK4asio5error6detail13misc_category4nameEv.str1.1,"aMS",@progbits,1
.LC3:
	.string	"asio.misc"
	.section	.text._ZNK4asio5error6detail13misc_category4nameEv,"axG",@progbits,_ZNK4asio5error6detail13misc_category4nameEv,comdat
	.align 2
	.p2align 4
	.weak	_ZNK4asio5error6detail13misc_category4nameEv
	.type	_ZNK4asio5error6detail13misc_category4nameEv, @function
_ZNK4asio5error6detail13misc_category4nameEv:
.LFB2451:
	.cfi_startproc
	endbr64
	leaq	.LC3(%rip), %rax
	ret
	.cfi_endproc
.LFE2451:
	.size	_ZNK4asio5error6detail13misc_category4nameEv, .-_ZNK4asio5error6detail13misc_category4nameEv
	.section	.text._ZN4asio10io_service7service12fork_serviceENS0_10fork_eventE,"axG",@progbits,_ZN4asio10io_service7service12fork_serviceENS0_10fork_eventE,comdat
	.align 2
	.p2align 4
	.weak	_ZN4asio10io_service7service12fork_serviceENS0_10fork_eventE
	.type	_ZN4asio10io_service7service12fork_serviceENS0_10fork_eventE, @function
_ZN4asio10io_service7service12fork_serviceENS0_10fork_eventE:
.LFB3433:
	.cfi_startproc
	endbr64
	ret
	.cfi_endproc
.LFE3433:
	.size	_ZN4asio10io_service7service12fork_serviceENS0_10fork_eventE, .-_ZN4asio10io_service7service12fork_serviceENS0_10fork_eventE
	.section	.text._ZNKSt5ctypeIcE8do_widenEc,"axG",@progbits,_ZNKSt5ctypeIcE8do_widenEc,comdat
	.align 2
	.p2align 4
	.weak	_ZNKSt5ctypeIcE8do_widenEc
	.type	_ZNKSt5ctypeIcE8do_widenEc, @function
_ZNKSt5ctypeIcE8do_widenEc:
.LFB4619:
	.cfi_startproc
	endbr64
	movl	%esi, %eax
	ret
	.cfi_endproc
.LFE4619:
	.size	_ZNKSt5ctypeIcE8do_widenEc, .-_ZNKSt5ctypeIcE8do_widenEc
	.section	.text._ZN4asio21stream_socket_serviceINS_2ip3tcpEED2Ev,"axG",@progbits,_ZN4asio21stream_socket_serviceINS_2ip3tcpEED5Ev,comdat
	.align 2
	.p2align 4
	.weak	_ZN4asio21stream_socket_serviceINS_2ip3tcpEED2Ev
	.type	_ZN4asio21stream_socket_serviceINS_2ip3tcpEED2Ev, @function
_ZN4asio21stream_socket_serviceINS_2ip3tcpEED2Ev:
.LFB9354:
	.cfi_startproc
	endbr64
	ret
	.cfi_endproc
.LFE9354:
	.size	_ZN4asio21stream_socket_serviceINS_2ip3tcpEED2Ev, .-_ZN4asio21stream_socket_serviceINS_2ip3tcpEED2Ev
	.weak	_ZN4asio21stream_socket_serviceINS_2ip3tcpEED1Ev
	.set	_ZN4asio21stream_socket_serviceINS_2ip3tcpEED1Ev,_ZN4asio21stream_socket_serviceINS_2ip3tcpEED2Ev
	.section	.text._ZN4asio23socket_acceptor_serviceINS_2ip3tcpEED2Ev,"axG",@progbits,_ZN4asio23socket_acceptor_serviceINS_2ip3tcpEED5Ev,comdat
	.align 2
	.p2align 4
	.weak	_ZN4asio23socket_acceptor_serviceINS_2ip3tcpEED2Ev
	.type	_ZN4asio23socket_acceptor_serviceINS_2ip3tcpEED2Ev, @function
_ZN4asio23socket_acceptor_serviceINS_2ip3tcpEED2Ev:
.LFB9358:
	.cfi_startproc
	endbr64
	ret
	.cfi_endproc
.LFE9358:
	.size	_ZN4asio23socket_acceptor_serviceINS_2ip3tcpEED2Ev, .-_ZN4asio23socket_acceptor_serviceINS_2ip3tcpEED2Ev
	.weak	_ZN4asio23socket_acceptor_serviceINS_2ip3tcpEED1Ev
	.set	_ZN4asio23socket_acceptor_serviceINS_2ip3tcpEED1Ev,_ZN4asio23socket_acceptor_serviceINS_2ip3tcpEED2Ev
	.section	.text._ZN4asio6detail7tss_ptrINS0_10call_stackINS0_15task_io_serviceENS0_27task_io_service_thread_infoEE7contextEED2Ev,"axG",@progbits,_ZN4asio6detail7tss_ptrINS0_10call_stackINS0_15task_io_serviceENS0_27task_io_service_thread_infoEE7contextEED5Ev,comdat
	.align 2
	.p2align 4
	.weak	_ZN4asio6detail7tss_ptrINS0_10call_stackINS0_15task_io_serviceENS0_27task_io_service_thread_infoEE7contextEED2Ev
	.type	_ZN4asio6detail7tss_ptrINS0_10call_stackINS0_15task_io_serviceENS0_27task_io_service_thread_infoEE7contextEED2Ev, @function
_ZN4asio6detail7tss_ptrINS0_10call_stackINS0_15task_io_serviceENS0_27task_io_service_thread_infoEE7contextEED2Ev:
.LFB9431:
	.cfi_startproc
	endbr64
	ret
	.cfi_endproc
.LFE9431:
	.size	_ZN4asio6detail7tss_ptrINS0_10call_stackINS0_15task_io_serviceENS0_27task_io_service_thread_infoEE7contextEED2Ev, .-_ZN4asio6detail7tss_ptrINS0_10call_stackINS0_15task_io_serviceENS0_27task_io_service_thread_infoEE7contextEED2Ev
	.weak	_ZN4asio6detail7tss_ptrINS0_10call_stackINS0_15task_io_serviceENS0_27task_io_service_thread_infoEE7contextEED1Ev
	.set	_ZN4asio6detail7tss_ptrINS0_10call_stackINS0_15task_io_serviceENS0_27task_io_service_thread_infoEE7contextEED1Ev,_ZN4asio6detail7tss_ptrINS0_10call_stackINS0_15task_io_serviceENS0_27task_io_service_thread_infoEE7contextEED2Ev
	.section	.text._ZN4asio6detail10service_idINS0_13epoll_reactorEED2Ev,"axG",@progbits,_ZN4asio6detail10service_idINS0_13epoll_reactorEED5Ev,comdat
	.align 2
	.p2align 4
	.weak	_ZN4asio6detail10service_idINS0_13epoll_reactorEED2Ev
	.type	_ZN4asio6detail10service_idINS0_13epoll_reactorEED2Ev, @function
_ZN4asio6detail10service_idINS0_13epoll_reactorEED2Ev:
.LFB9434:
	.cfi_startproc
	endbr64
	ret
	.cfi_endproc
.LFE9434:
	.size	_ZN4asio6detail10service_idINS0_13epoll_reactorEED2Ev, .-_ZN4asio6detail10service_idINS0_13epoll_reactorEED2Ev
	.weak	_ZN4asio6detail10service_idINS0_13epoll_reactorEED1Ev
	.set	_ZN4asio6detail10service_idINS0_13epoll_reactorEED1Ev,_ZN4asio6detail10service_idINS0_13epoll_reactorEED2Ev
	.section	.text._ZN4asio6detail10service_idINS0_15task_io_serviceEED2Ev,"axG",@progbits,_ZN4asio6detail10service_idINS0_15task_io_serviceEED5Ev,comdat
	.align 2
	.p2align 4
	.weak	_ZN4asio6detail10service_idINS0_15task_io_serviceEED2Ev
	.type	_ZN4asio6detail10service_idINS0_15task_io_serviceEED2Ev, @function
_ZN4asio6detail10service_idINS0_15task_io_serviceEED2Ev:
.LFB9437:
	.cfi_startproc
	endbr64
	ret
	.cfi_endproc
.LFE9437:
	.size	_ZN4asio6detail10service_idINS0_15task_io_serviceEED2Ev, .-_ZN4asio6detail10service_idINS0_15task_io_serviceEED2Ev
	.weak	_ZN4asio6detail10service_idINS0_15task_io_serviceEED1Ev
	.set	_ZN4asio6detail10service_idINS0_15task_io_serviceEED1Ev,_ZN4asio6detail10service_idINS0_15task_io_serviceEED2Ev
	.section	.text._ZN4asio6detail7tss_ptrINS0_10call_stackINS0_14strand_service11strand_implEhE7contextEED2Ev,"axG",@progbits,_ZN4asio6detail7tss_ptrINS0_10call_stackINS0_14strand_service11strand_implEhE7contextEED5Ev,comdat
	.align 2
	.p2align 4
	.weak	_ZN4asio6detail7tss_ptrINS0_10call_stackINS0_14strand_service11strand_implEhE7contextEED2Ev
	.type	_ZN4asio6detail7tss_ptrINS0_10call_stackINS0_14strand_service11strand_implEhE7contextEED2Ev, @function
_ZN4asio6detail7tss_ptrINS0_10call_stackINS0_14strand_service11strand_implEhE7contextEED2Ev:
.LFB9440:
	.cfi_startproc
	endbr64
	ret
	.cfi_endproc
.LFE9440:
	.size	_ZN4asio6detail7tss_ptrINS0_10call_stackINS0_14strand_service11strand_implEhE7contextEED2Ev, .-_ZN4asio6detail7tss_ptrINS0_10call_stackINS0_14strand_service11strand_implEhE7contextEED2Ev
	.weak	_ZN4asio6detail7tss_ptrINS0_10call_stackINS0_14strand_service11strand_implEhE7contextEED1Ev
	.set	_ZN4asio6detail7tss_ptrINS0_10call_stackINS0_14strand_service11strand_implEhE7contextEED1Ev,_ZN4asio6detail7tss_ptrINS0_10call_stackINS0_14strand_service11strand_implEhE7contextEED2Ev
	.section	.text._ZN4asio6detail10service_idINS0_14strand_serviceEED2Ev,"axG",@progbits,_ZN4asio6detail10service_idINS0_14strand_serviceEED5Ev,comdat
	.align 2
	.p2align 4
	.weak	_ZN4asio6detail10service_idINS0_14strand_serviceEED2Ev
	.type	_ZN4asio6detail10service_idINS0_14strand_serviceEED2Ev, @function
_ZN4asio6detail10service_idINS0_14strand_serviceEED2Ev:
.LFB9443:
	.cfi_startproc
	endbr64
	ret
	.cfi_endproc
.LFE9443:
	.size	_ZN4asio6detail10service_idINS0_14strand_serviceEED2Ev, .-_ZN4asio6detail10service_idINS0_14strand_serviceEED2Ev
	.weak	_ZN4asio6detail10service_idINS0_14strand_serviceEED1Ev
	.set	_ZN4asio6detail10service_idINS0_14strand_serviceEED1Ev,_ZN4asio6detail10service_idINS0_14strand_serviceEED2Ev
	.section	.text._ZN4asio6detail10service_idINS_23socket_acceptor_serviceINS_2ip3tcpEEEED2Ev,"axG",@progbits,_ZN4asio6detail10service_idINS_23socket_acceptor_serviceINS_2ip3tcpEEEED5Ev,comdat
	.align 2
	.p2align 4
	.weak	_ZN4asio6detail10service_idINS_23socket_acceptor_serviceINS_2ip3tcpEEEED2Ev
	.type	_ZN4asio6detail10service_idINS_23socket_acceptor_serviceINS_2ip3tcpEEEED2Ev, @function
_ZN4asio6detail10service_idINS_23socket_acceptor_serviceINS_2ip3tcpEEEED2Ev:
.LFB9446:
	.cfi_startproc
	endbr64
	ret
	.cfi_endproc
.LFE9446:
	.size	_ZN4asio6detail10service_idINS_23socket_acceptor_serviceINS_2ip3tcpEEEED2Ev, .-_ZN4asio6detail10service_idINS_23socket_acceptor_serviceINS_2ip3tcpEEEED2Ev
	.weak	_ZN4asio6detail10service_idINS_23socket_acceptor_serviceINS_2ip3tcpEEEED1Ev
	.set	_ZN4asio6detail10service_idINS_23socket_acceptor_serviceINS_2ip3tcpEEEED1Ev,_ZN4asio6detail10service_idINS_23socket_acceptor_serviceINS_2ip3tcpEEEED2Ev
	.section	.text._ZN4asio6detail10service_idINS_21stream_socket_serviceINS_2ip3tcpEEEED2Ev,"axG",@progbits,_ZN4asio6detail10service_idINS_21stream_socket_serviceINS_2ip3tcpEEEED5Ev,comdat
	.align 2
	.p2align 4
	.weak	_ZN4asio6detail10service_idINS_21stream_socket_serviceINS_2ip3tcpEEEED2Ev
	.type	_ZN4asio6detail10service_idINS_21stream_socket_serviceINS_2ip3tcpEEEED2Ev, @function
_ZN4asio6detail10service_idINS_21stream_socket_serviceINS_2ip3tcpEEEED2Ev:
.LFB9449:
	.cfi_startproc
	endbr64
	ret
	.cfi_endproc
.LFE9449:
	.size	_ZN4asio6detail10service_idINS_21stream_socket_serviceINS_2ip3tcpEEEED2Ev, .-_ZN4asio6detail10service_idINS_21stream_socket_serviceINS_2ip3tcpEEEED2Ev
	.weak	_ZN4asio6detail10service_idINS_21stream_socket_serviceINS_2ip3tcpEEEED1Ev
	.set	_ZN4asio6detail10service_idINS_21stream_socket_serviceINS_2ip3tcpEEEED1Ev,_ZN4asio6detail10service_idINS_21stream_socket_serviceINS_2ip3tcpEEEED2Ev
	.section	.text._ZN4asio21stream_socket_serviceINS_2ip3tcpEE16shutdown_serviceEv,"axG",@progbits,_ZN4asio21stream_socket_serviceINS_2ip3tcpEE16shutdown_serviceEv,comdat
	.align 2
	.p2align 4
	.weak	_ZN4asio21stream_socket_serviceINS_2ip3tcpEE16shutdown_serviceEv
	.type	_ZN4asio21stream_socket_serviceINS_2ip3tcpEE16shutdown_serviceEv, @function
_ZN4asio21stream_socket_serviceINS_2ip3tcpEE16shutdown_serviceEv:
.LFB9487:
	.cfi_startproc
	endbr64
	ret
	.cfi_endproc
.LFE9487:
	.size	_ZN4asio21stream_socket_serviceINS_2ip3tcpEE16shutdown_serviceEv, .-_ZN4asio21stream_socket_serviceINS_2ip3tcpEE16shutdown_serviceEv
	.section	.text._ZN4asio23socket_acceptor_serviceINS_2ip3tcpEE16shutdown_serviceEv,"axG",@progbits,_ZN4asio23socket_acceptor_serviceINS_2ip3tcpEE16shutdown_serviceEv,comdat
	.align 2
	.p2align 4
	.weak	_ZN4asio23socket_acceptor_serviceINS_2ip3tcpEE16shutdown_serviceEv
	.type	_ZN4asio23socket_acceptor_serviceINS_2ip3tcpEE16shutdown_serviceEv, @function
_ZN4asio23socket_acceptor_serviceINS_2ip3tcpEE16shutdown_serviceEv:
.LFB9488:
	.cfi_startproc
	endbr64
	ret
	.cfi_endproc
.LFE9488:
	.size	_ZN4asio23socket_acceptor_serviceINS_2ip3tcpEE16shutdown_serviceEv, .-_ZN4asio23socket_acceptor_serviceINS_2ip3tcpEE16shutdown_serviceEv
	.section	.text._ZN4asio23socket_acceptor_serviceINS_2ip3tcpEED0Ev,"axG",@progbits,_ZN4asio23socket_acceptor_serviceINS_2ip3tcpEED5Ev,comdat
	.align 2
	.p2align 4
	.weak	_ZN4asio23socket_acceptor_serviceINS_2ip3tcpEED0Ev
	.type	_ZN4asio23socket_acceptor_serviceINS_2ip3tcpEED0Ev, @function
_ZN4asio23socket_acceptor_serviceINS_2ip3tcpEED0Ev:
.LFB9360:
	.cfi_startproc
	endbr64
	movl	$48, %esi
	jmp	_ZdlPvm@PLT
	.cfi_endproc
.LFE9360:
	.size	_ZN4asio23socket_acceptor_serviceINS_2ip3tcpEED0Ev, .-_ZN4asio23socket_acceptor_serviceINS_2ip3tcpEED0Ev
	.section	.text._ZN4asio21stream_socket_serviceINS_2ip3tcpEED0Ev,"axG",@progbits,_ZN4asio21stream_socket_serviceINS_2ip3tcpEED5Ev,comdat
	.align 2
	.p2align 4
	.weak	_ZN4asio21stream_socket_serviceINS_2ip3tcpEED0Ev
	.type	_ZN4asio21stream_socket_serviceINS_2ip3tcpEED0Ev, @function
_ZN4asio21stream_socket_serviceINS_2ip3tcpEED0Ev:
.LFB9356:
	.cfi_startproc
	endbr64
	movl	$48, %esi
	jmp	_ZdlPvm@PLT
	.cfi_endproc
.LFE9356:
	.size	_ZN4asio21stream_socket_serviceINS_2ip3tcpEED0Ev, .-_ZN4asio21stream_socket_serviceINS_2ip3tcpEED0Ev
	.section	.text._ZN4asio6detail15system_categoryD2Ev,"axG",@progbits,_ZN4asio6detail15system_categoryD5Ev,comdat
	.align 2
	.p2align 4
	.weak	_ZN4asio6detail15system_categoryD2Ev
	.type	_ZN4asio6detail15system_categoryD2Ev, @function
_ZN4asio6detail15system_categoryD2Ev:
.LFB9410:
	.cfi_startproc
	endbr64
	movq	_ZTVN4asio6detail15system_categoryE@GOTPCREL(%rip), %rax
	addq	$16, %rax
	movq	%rax, (%rdi)
	jmp	_ZNSt3_V214error_categoryD2Ev@PLT
	.cfi_endproc
.LFE9410:
	.size	_ZN4asio6detail15system_categoryD2Ev, .-_ZN4asio6detail15system_categoryD2Ev
	.weak	_ZN4asio6detail15system_categoryD1Ev
	.set	_ZN4asio6detail15system_categoryD1Ev,_ZN4asio6detail15system_categoryD2Ev
	.section	.text._ZN4asio6detail15system_categoryD0Ev,"axG",@progbits,_ZN4asio6detail15system_categoryD5Ev,comdat
	.align 2
	.p2align 4
	.weak	_ZN4asio6detail15system_categoryD0Ev
	.type	_ZN4asio6detail15system_categoryD0Ev, @function
_ZN4asio6detail15system_categoryD0Ev:
.LFB9412:
	.cfi_startproc
	endbr64
	movq	_ZTVN4asio6detail15system_categoryE@GOTPCREL(%rip), %rax
	pushq	%rbp
	.cfi_def_cfa_offset 16
	.cfi_offset 6, -16
	movq	%rdi, %rbp
	addq	$16, %rax
	movq	%rax, (%rdi)
	call	_ZNSt3_V214error_categoryD2Ev@PLT
	movq	%rbp, %rdi
	movl	$8, %esi
	popq	%rbp
	.cfi_def_cfa_offset 8
	jmp	_ZdlPvm@PLT
	.cfi_endproc
.LFE9412:
	.size	_ZN4asio6detail15system_categoryD0Ev, .-_ZN4asio6detail15system_categoryD0Ev
	.section	.text._ZN4asio5error6detail13misc_categoryD2Ev,"axG",@progbits,_ZN4asio5error6detail13misc_categoryD5Ev,comdat
	.align 2
	.p2align 4
	.weak	_ZN4asio5error6detail13misc_categoryD2Ev
	.type	_ZN4asio5error6detail13misc_categoryD2Ev, @function
_ZN4asio5error6detail13misc_categoryD2Ev:
.LFB9390:
	.cfi_startproc
	endbr64
	movq	_ZTVN4asio5error6detail13misc_categoryE@GOTPCREL(%rip), %rax
	addq	$16, %rax
	movq	%rax, (%rdi)
	jmp	_ZNSt3_V214error_categoryD2Ev@PLT
	.cfi_endproc
.LFE9390:
	.size	_ZN4asio5error6detail13misc_categoryD2Ev, .-_ZN4asio5error6detail13misc_categoryD2Ev
	.weak	_ZN4asio5error6detail13misc_categoryD1Ev
	.set	_ZN4asio5error6detail13misc_categoryD1Ev,_ZN4asio5error6detail13misc_categoryD2Ev
	.section	.text._ZN4asio5error6detail13misc_categoryD0Ev,"axG",@progbits,_ZN4asio5error6detail13misc_categoryD5Ev,comdat
	.align 2
	.p2align 4
	.weak	_ZN4asio5error6detail13misc_categoryD0Ev
	.type	_ZN4asio5error6detail13misc_categoryD0Ev, @function
_ZN4asio5error6detail13misc_categoryD0Ev:
.LFB9392:
	.cfi_startproc
	endbr64
	movq	_ZTVN4asio5error6detail13misc_categoryE@GOTPCREL(%rip), %rax
	pushq	%rbp
	.cfi_def_cfa_offset 16
	.cfi_offset 6, -16
	movq	%rdi, %rbp
	addq	$16, %rax
	movq	%rax, (%rdi)
	call	_ZNSt3_V214error_categoryD2Ev@PLT
	movq	%rbp, %rdi
	movl	$8, %esi
	popq	%rbp
	.cfi_def_cfa_offset 8
	jmp	_ZdlPvm@PLT
	.cfi_endproc
.LFE9392:
	.size	_ZN4asio5error6detail13misc_categoryD0Ev, .-_ZN4asio5error6detail13misc_categoryD0Ev
	.section	.text._ZN4asio5error6detail14netdb_categoryD2Ev,"axG",@progbits,_ZN4asio5error6detail14netdb_categoryD5Ev,comdat
	.align 2
	.p2align 4
	.weak	_ZN4asio5error6detail14netdb_categoryD2Ev
	.type	_ZN4asio5error6detail14netdb_categoryD2Ev, @function
_ZN4asio5error6detail14netdb_categoryD2Ev:
.LFB9398:
	.cfi_startproc
	endbr64
	movq	_ZTVN4asio5error6detail14netdb_categoryE@GOTPCREL(%rip), %rax
	addq	$16, %rax
	movq	%rax, (%rdi)
	jmp	_ZNSt3_V214error_categoryD2Ev@PLT
	.cfi_endproc
.LFE9398:
	.size	_ZN4asio5error6detail14netdb_categoryD2Ev, .-_ZN4asio5error6detail14netdb_categoryD2Ev
	.weak	_ZN4asio5error6detail14netdb_categoryD1Ev
	.set	_ZN4asio5error6detail14netdb_categoryD1Ev,_ZN4asio5error6detail14netdb_categoryD2Ev
	.section	.text._ZN4asio5error6detail14netdb_categoryD0Ev,"axG",@progbits,_ZN4asio5error6detail14netdb_categoryD5Ev,comdat
	.align 2
	.p2align 4
	.weak	_ZN4asio5error6detail14netdb_categoryD0Ev
	.type	_ZN4asio5error6detail14netdb_categoryD0Ev, @function
_ZN4asio5error6detail14netdb_categoryD0Ev:
.LFB9400:
	.cfi_startproc
	endbr64
	movq	_ZTVN4asio5error6detail14netdb_categoryE@GOTPCREL(%rip), %rax
	pushq	%rbp
	.cfi_def_cfa_offset 16
	.cfi_offset 6, -16
	movq	%rdi, %rbp
	addq	$16, %rax
	movq	%rax, (%rdi)
	call	_ZNSt3_V214error_categoryD2Ev@PLT
	movq	%rbp, %rdi
	movl	$8, %esi
	popq	%rbp
	.cfi_def_cfa_offset 8
	jmp	_ZdlPvm@PLT
	.cfi_endproc
.LFE9400:
	.size	_ZN4asio5error6detail14netdb_categoryD0Ev, .-_ZN4asio5error6detail14netdb_categoryD0Ev
	.section	.text._ZN4asio5error6detail17addrinfo_categoryD2Ev,"axG",@progbits,_ZN4asio5error6detail17addrinfo_categoryD5Ev,comdat
	.align 2
	.p2align 4
	.weak	_ZN4asio5error6detail17addrinfo_categoryD2Ev
	.type	_ZN4asio5error6detail17addrinfo_categoryD2Ev, @function
_ZN4asio5error6detail17addrinfo_categoryD2Ev:
.LFB9394:
	.cfi_startproc
	endbr64
	movq	_ZTVN4asio5error6detail17addrinfo_categoryE@GOTPCREL(%rip), %rax
	addq	$16, %rax
	movq	%rax, (%rdi)
	jmp	_ZNSt3_V214error_categoryD2Ev@PLT
	.cfi_endproc
.LFE9394:
	.size	_ZN4asio5error6detail17addrinfo_categoryD2Ev, .-_ZN4asio5error6detail17addrinfo_categoryD2Ev
	.weak	_ZN4asio5error6detail17addrinfo_categoryD1Ev
	.set	_ZN4asio5error6detail17addrinfo_categoryD1Ev,_ZN4asio5error6detail17addrinfo_categoryD2Ev
	.section	.text._ZN4asio5error6detail17addrinfo_categoryD0Ev,"axG",@progbits,_ZN4asio5error6detail17addrinfo_categoryD5Ev,comdat
	.align 2
	.p2align 4
	.weak	_ZN4asio5error6detail17addrinfo_categoryD0Ev
	.type	_ZN4asio5error6detail17addrinfo_categoryD0Ev, @function
_ZN4asio5error6detail17addrinfo_categoryD0Ev:
.LFB9396:
	.cfi_startproc
	endbr64
	movq	_ZTVN4asio5error6detail17addrinfo_categoryE@GOTPCREL(%rip), %rax
	pushq	%rbp
	.cfi_def_cfa_offset 16
	.cfi_offset 6, -16
	movq	%rdi, %rbp
	addq	$16, %rax
	movq	%rax, (%rdi)
	call	_ZNSt3_V214error_categoryD2Ev@PLT
	movq	%rbp, %rdi
	movl	$8, %esi
	popq	%rbp
	.cfi_def_cfa_offset 8
	jmp	_ZdlPvm@PLT
	.cfi_endproc
.LFE9396:
	.size	_ZN4asio5error6detail17addrinfo_categoryD0Ev, .-_ZN4asio5error6detail17addrinfo_categoryD0Ev
	.section	.text.unlikely,"ax",@progbits
	.type	_ZN4asio6detail15throw_exceptionISt8bad_castEEvRKT_.isra.0, @function
_ZN4asio6detail15throw_exceptionISt8bad_castEEvRKT_.isra.0:
.LFB9557:
	.cfi_startproc
	pushq	%rax
	.cfi_def_cfa_offset 16
	popq	%rax
	.cfi_def_cfa_offset 8
	movl	$8, %edi
	pushq	%rax
	.cfi_def_cfa_offset 16
	call	__cxa_allocate_exception@PLT
	movq	_ZNSt8bad_castD1Ev@GOTPCREL(%rip), %rdx
	movq	_ZTISt8bad_cast@GOTPCREL(%rip), %rsi
	movq	%rax, %rdi
	movq	_ZTVSt8bad_cast@GOTPCREL(%rip), %rax
	addq	$16, %rax
	movq	%rax, (%rdi)
	call	__cxa_throw@PLT
	.cfi_endproc
.LFE9557:
	.size	_ZN4asio6detail15throw_exceptionISt8bad_castEEvRKT_.isra.0, .-_ZN4asio6detail15throw_exceptionISt8bad_castEEvRKT_.isra.0
	.section	.text._ZN4asio6detail13epoll_reactorD2Ev,"axG",@progbits,_ZN4asio6detail13epoll_reactorD5Ev,comdat
	.align 2
	.p2align 4
	.weak	_ZN4asio6detail13epoll_reactorD2Ev
	.type	_ZN4asio6detail13epoll_reactorD2Ev, @function
_ZN4asio6detail13epoll_reactorD2Ev:
.LFB3310:
	.cfi_startproc
	.cfi_personality 0x9b,DW.ref.__gxx_personality_v0
	.cfi_lsda 0x1b,.LLSDA3310
	endbr64
	pushq	%r15
	.cfi_def_cfa_offset 16
	.cfi_offset 15, -16
	pushq	%r14
	.cfi_def_cfa_offset 24
	.cfi_offset 14, -24
	pushq	%r13
	.cfi_def_cfa_offset 32
	.cfi_offset 13, -32
	pushq	%r12
	.cfi_def_cfa_offset 40
	.cfi_offset 12, -40
	pushq	%rbp
	.cfi_def_cfa_offset 48
	.cfi_offset 6, -48
	pushq	%rbx
	.cfi_def_cfa_offset 56
	.cfi_offset 3, -56
	subq	$56, %rsp
	.cfi_def_cfa_offset 112
	movq	%rdi, 8(%rsp)
	movq	%fs:40, %rax
	movq	%rax, 40(%rsp)
	movq	_ZTVN4asio6detail13epoll_reactorE@GOTPCREL(%rip), %rax
	addq	$16, %rax
	movq	%rax, (%rdi)
	movl	96(%rdi), %edi
	cmpl	$-1, %edi
	je	.L36
	call	close@PLT
.L36:
	movq	8(%rsp), %rax
	movl	100(%rax), %edi
	cmpl	$-1, %edi
	je	.L37
	call	close@PLT
.L37:
	movq	8(%rsp), %rax
	leaq	16(%rsp), %rbp
	movq	160(%rax), %r13
	testq	%r13, %r13
	je	.L48
	.p2align 4,,10
	.p2align 3
.L38:
	movq	%r13, %r12
	movq	24(%r13), %r13
	leaq	128(%r12), %r15
	leaq	80(%r12), %r14
.L43:
	movq	(%r15), %rsi
	testq	%rsi, %rsi
	je	.L45
	movq	%rsi, (%rsp)
	call	_ZNSt3_V215system_categoryEv@PLT
	movq	(%rsp), %rsi
	movq	%rax, %rbx
	jmp	.L47
	.p2align 4,,10
	.p2align 3
.L44:
	movq	$0, (%rsi)
	movq	8(%rsi), %rax
	xorl	%ecx, %ecx
	movq	%rbp, %rdx
	movl	$0, 16(%rsp)
	xorl	%edi, %edi
	movq	%rbx, 24(%rsp)
	call	*%rax
	movq	(%r15), %rsi
	testq	%rsi, %rsi
	je	.L45
.L47:
	movq	(%rsi), %rax
	movq	%rax, (%r15)
	testq	%rax, %rax
	jne	.L44
	movq	$0, 8(%r15)
	jmp	.L44
	.p2align 4,,10
	.p2align 3
.L45:
	subq	$16, %r15
	cmpq	%r14, %r15
	jne	.L43
	leaq	40(%r12), %rdi
	call	pthread_mutex_destroy@PLT
	movl	$152, %esi
	movq	%r12, %rdi
	call	_ZdlPvm@PLT
	testq	%r13, %r13
	jne	.L38
.L48:
	movq	8(%rsp), %rax
	leaq	16(%rsp), %rbp
	movq	168(%rax), %r13
	testq	%r13, %r13
	je	.L40
	.p2align 4,,10
	.p2align 3
.L39:
	movq	%r13, %r12
	movq	24(%r13), %r13
	leaq	128(%r12), %r15
	leaq	80(%r12), %r14
.L53:
	movq	(%r15), %rsi
	testq	%rsi, %rsi
	je	.L55
	movq	%rsi, (%rsp)
	call	_ZNSt3_V215system_categoryEv@PLT
	movq	(%rsp), %rsi
	movq	%rax, %rbx
	jmp	.L57
	.p2align 4,,10
	.p2align 3
.L54:
	movq	$0, (%rsi)
	movq	8(%rsi), %rax
	xorl	%ecx, %ecx
	movq	%rbp, %rdx
	movl	$0, 16(%rsp)
	xorl	%edi, %edi
	movq	%rbx, 24(%rsp)
	call	*%rax
	movq	(%r15), %rsi
	testq	%rsi, %rsi
	je	.L55
.L57:
	movq	(%rsi), %rax
	movq	%rax, (%r15)
	testq	%rax, %rax
	jne	.L54
	movq	$0, 8(%r15)
	jmp	.L54
	.p2align 4,,10
	.p2align 3
.L55:
	subq	$16, %r15
	cmpq	%r14, %r15
	jne	.L53
	leaq	40(%r12), %rdi
	call	pthread_mutex_destroy@PLT
	movl	$152, %esi
	movq	%r12, %rdi
	call	_ZdlPvm@PLT
	testq	%r13, %r13
	jne	.L39
.L40:
	movq	8(%rsp), %rbx
	leaq	120(%rbx), %rdi
	call	pthread_mutex_destroy@PLT
	movl	92(%rbx), %r8d
	cmpl	$-1, %r8d
	je	.L92
	movq	8(%rsp), %rbx
	movl	88(%rbx), %edi
	cmpl	%edi, %r8d
	jne	.L93
.L59:
	call	close@PLT
.L60:
	movq	40(%rsp), %rax
	subq	%fs:40, %rax
	jne	.L94
	movq	8(%rsp), %rdi
	addq	$56, %rsp
	.cfi_remember_state
	.cfi_def_cfa_offset 56
	popq	%rbx
	.cfi_def_cfa_offset 48
	popq	%rbp
	.cfi_def_cfa_offset 40
	addq	$48, %rdi
	popq	%r12
	.cfi_def_cfa_offset 32
	popq	%r13
	.cfi_def_cfa_offset 24
	popq	%r14
	.cfi_def_cfa_offset 16
	popq	%r15
	.cfi_def_cfa_offset 8
	jmp	pthread_mutex_destroy@PLT
.L93:
	.cfi_restore_state
	movl	%r8d, %edi
	call	close@PLT
	movl	88(%rbx), %edi
.L58:
	cmpl	$-1, %edi
	je	.L60
	jmp	.L59
.L92:
	movq	8(%rsp), %rax
	movl	88(%rax), %edi
	jmp	.L58
.L94:
	call	__stack_chk_fail@PLT
	.cfi_endproc
.LFE3310:
	.globl	__gxx_personality_v0
	.section	.gcc_except_table._ZN4asio6detail13epoll_reactorD2Ev,"aG",@progbits,_ZN4asio6detail13epoll_reactorD5Ev,comdat
.LLSDA3310:
	.byte	0xff
	.byte	0xff
	.byte	0x1
	.uleb128 .LLSDACSE3310-.LLSDACSB3310
.LLSDACSB3310:
.LLSDACSE3310:
	.section	.text._ZN4asio6detail13epoll_reactorD2Ev,"axG",@progbits,_ZN4asio6detail13epoll_reactorD5Ev,comdat
	.size	_ZN4asio6detail13epoll_reactorD2Ev, .-_ZN4asio6detail13epoll_reactorD2Ev
	.weak	_ZN4asio6detail13epoll_reactorD1Ev
	.set	_ZN4asio6detail13epoll_reactorD1Ev,_ZN4asio6detail13epoll_reactorD2Ev
	.section	.text._ZN4asio6detail13epoll_reactorD0Ev,"axG",@progbits,_ZN4asio6detail13epoll_reactorD5Ev,comdat
	.align 2
	.p2align 4
	.weak	_ZN4asio6detail13epoll_reactorD0Ev
	.type	_ZN4asio6detail13epoll_reactorD0Ev, @function
_ZN4asio6detail13epoll_reactorD0Ev:
.LFB3312:
	.cfi_startproc
	.cfi_personality 0x9b,DW.ref.__gxx_personality_v0
	.cfi_lsda 0x1b,.LLSDA3312
	endbr64
	pushq	%r15
	.cfi_def_cfa_offset 16
	.cfi_offset 15, -16
	pushq	%r14
	.cfi_def_cfa_offset 24
	.cfi_offset 14, -24
	pushq	%r13
	.cfi_def_cfa_offset 32
	.cfi_offset 13, -32
	pushq	%r12
	.cfi_def_cfa_offset 40
	.cfi_offset 12, -40
	pushq	%rbp
	.cfi_def_cfa_offset 48
	.cfi_offset 6, -48
	pushq	%rbx
	.cfi_def_cfa_offset 56
	.cfi_offset 3, -56
	subq	$56, %rsp
	.cfi_def_cfa_offset 112
	movq	%rdi, 8(%rsp)
	movq	%fs:40, %rax
	movq	%rax, 40(%rsp)
	movq	_ZTVN4asio6detail13epoll_reactorE@GOTPCREL(%rip), %rax
	addq	$16, %rax
	movq	%rax, (%rdi)
	movl	96(%rdi), %edi
	cmpl	$-1, %edi
	je	.L96
	call	close@PLT
.L96:
	movq	8(%rsp), %rax
	movl	100(%rax), %edi
	cmpl	$-1, %edi
	je	.L97
	call	close@PLT
.L97:
	movq	8(%rsp), %rax
	leaq	16(%rsp), %rbp
	movq	160(%rax), %r13
	testq	%r13, %r13
	je	.L108
	.p2align 4,,10
	.p2align 3
.L98:
	movq	%r13, %r12
	movq	24(%r13), %r13
	leaq	144(%r12), %r15
	leaq	96(%r12), %r14
.L103:
	movq	-16(%r15), %rsi
	subq	$16, %r15
	testq	%rsi, %rsi
	je	.L105
	movq	%rsi, (%rsp)
	call	_ZNSt3_V215system_categoryEv@PLT
	movq	(%rsp), %rsi
	movq	%rax, %rbx
	jmp	.L107
	.p2align 4,,10
	.p2align 3
.L104:
	movq	$0, (%rsi)
	movq	8(%rsi), %rax
	xorl	%ecx, %ecx
	movq	%rbp, %rdx
	movl	$0, 16(%rsp)
	xorl	%edi, %edi
	movq	%rbx, 24(%rsp)
	call	*%rax
	movq	(%r15), %rsi
	testq	%rsi, %rsi
	je	.L105
.L107:
	movq	(%rsi), %rax
	movq	%rax, (%r15)
	testq	%rax, %rax
	jne	.L104
	movq	$0, 8(%r15)
	jmp	.L104
	.p2align 4,,10
	.p2align 3
.L105:
	cmpq	%r14, %r15
	jne	.L103
	leaq	40(%r12), %rdi
	call	pthread_mutex_destroy@PLT
	movl	$152, %esi
	movq	%r12, %rdi
	call	_ZdlPvm@PLT
	testq	%r13, %r13
	jne	.L98
.L108:
	movq	8(%rsp), %rax
	leaq	16(%rsp), %rbp
	movq	168(%rax), %r13
	testq	%r13, %r13
	je	.L100
	.p2align 4,,10
	.p2align 3
.L99:
	movq	%r13, %r12
	movq	24(%r13), %r13
	leaq	128(%r12), %r15
	leaq	80(%r12), %r14
.L113:
	movq	(%r15), %rsi
	testq	%rsi, %rsi
	je	.L115
	movq	%rsi, (%rsp)
	call	_ZNSt3_V215system_categoryEv@PLT
	movq	(%rsp), %rsi
	movq	%rax, %rbx
	jmp	.L117
	.p2align 4,,10
	.p2align 3
.L114:
	movq	$0, (%rsi)
	movq	8(%rsi), %rax
	xorl	%ecx, %ecx
	movq	%rbp, %rdx
	movl	$0, 16(%rsp)
	xorl	%edi, %edi
	movq	%rbx, 24(%rsp)
	call	*%rax
	movq	(%r15), %rsi
	testq	%rsi, %rsi
	je	.L115
.L117:
	movq	(%rsi), %rax
	movq	%rax, (%r15)
	testq	%rax, %rax
	jne	.L114
	movq	$0, 8(%r15)
	jmp	.L114
	.p2align 4,,10
	.p2align 3
.L115:
	subq	$16, %r15
	cmpq	%r14, %r15
	jne	.L113
	leaq	40(%r12), %rdi
	call	pthread_mutex_destroy@PLT
	movl	$152, %esi
	movq	%r12, %rdi
	call	_ZdlPvm@PLT
	testq	%r13, %r13
	jne	.L99
.L100:
	movq	8(%rsp), %rbx
	leaq	120(%rbx), %rdi
	call	pthread_mutex_destroy@PLT
	movl	92(%rbx), %r8d
	cmpl	$-1, %r8d
	je	.L152
	movq	8(%rsp), %rbx
	movl	88(%rbx), %edi
	cmpl	%edi, %r8d
	jne	.L153
.L119:
	call	close@PLT
.L120:
	movq	8(%rsp), %rax
	leaq	48(%rax), %rdi
	call	pthread_mutex_destroy@PLT
	movq	40(%rsp), %rax
	subq	%fs:40, %rax
	jne	.L154
	movq	8(%rsp), %rdi
	addq	$56, %rsp
	.cfi_remember_state
	.cfi_def_cfa_offset 56
	movl	$176, %esi
	popq	%rbx
	.cfi_def_cfa_offset 48
	popq	%rbp
	.cfi_def_cfa_offset 40
	popq	%r12
	.cfi_def_cfa_offset 32
	popq	%r13
	.cfi_def_cfa_offset 24
	popq	%r14
	.cfi_def_cfa_offset 16
	popq	%r15
	.cfi_def_cfa_offset 8
	jmp	_ZdlPvm@PLT
.L153:
	.cfi_restore_state
	movl	%r8d, %edi
	call	close@PLT
	movl	88(%rbx), %edi
.L118:
	cmpl	$-1, %edi
	je	.L120
	jmp	.L119
.L152:
	movq	8(%rsp), %rax
	movl	88(%rax), %edi
	jmp	.L118
.L154:
	call	__stack_chk_fail@PLT
	.cfi_endproc
.LFE3312:
	.section	.gcc_except_table._ZN4asio6detail13epoll_reactorD0Ev,"aG",@progbits,_ZN4asio6detail13epoll_reactorD5Ev,comdat
.LLSDA3312:
	.byte	0xff
	.byte	0xff
	.byte	0x1
	.uleb128 .LLSDACSE3312-.LLSDACSB3312
.LLSDACSB3312:
.LLSDACSE3312:
	.section	.text._ZN4asio6detail13epoll_reactorD0Ev,"axG",@progbits,_ZN4asio6detail13epoll_reactorD5Ev,comdat
	.size	_ZN4asio6detail13epoll_reactorD0Ev, .-_ZN4asio6detail13epoll_reactorD0Ev
	.section	.text._ZN4asio6detail13epoll_reactor16shutdown_serviceEv,"axG",@progbits,_ZN4asio6detail13epoll_reactor16shutdown_serviceEv,comdat
	.align 2
	.p2align 4
	.weak	_ZN4asio6detail13epoll_reactor16shutdown_serviceEv
	.type	_ZN4asio6detail13epoll_reactor16shutdown_serviceEv, @function
_ZN4asio6detail13epoll_reactor16shutdown_serviceEv:
.LFB3313:
	.cfi_startproc
	.cfi_personality 0x9b,DW.ref.__gxx_personality_v0
	.cfi_lsda 0x1b,.LLSDA3313
	endbr64
	pushq	%r13
	.cfi_def_cfa_offset 16
	.cfi_offset 13, -16
	pushq	%r12
	.cfi_def_cfa_offset 24
	.cfi_offset 12, -24
	pushq	%rbp
	.cfi_def_cfa_offset 32
	.cfi_offset 6, -32
	leaq	48(%rdi), %rbp
	pushq	%rbx
	.cfi_def_cfa_offset 40
	.cfi_offset 3, -40
	movq	%rdi, %rbx
	movq	%rbp, %rdi
	subq	$72, %rsp
	.cfi_def_cfa_offset 112
	movq	%fs:40, %rax
	movq	%rax, 56(%rsp)
	xorl	%eax, %eax
	call	pthread_mutex_lock@PLT
	movb	$1, 112(%rbx)
	movq	%rbp, %rdi
	call	pthread_mutex_unlock@PLT
	movq	160(%rbx), %rax
	pxor	%xmm0, %xmm0
	movaps	%xmm0, 16(%rsp)
	testq	%rax, %rax
	jne	.L156
	jmp	.L173
	.p2align 4,,10
	.p2align 3
.L160:
	movq	%rdx, (%rcx)
.L162:
	movq	104(%rax), %rdx
	movups	%xmm0, 96(%rax)
	movq	%rdx, 24(%rsp)
.L159:
	movq	112(%rax), %rdx
	testq	%rdx, %rdx
	je	.L163
	movq	24(%rsp), %rcx
	testq	%rcx, %rcx
	je	.L223
	movq	%rdx, (%rcx)
.L166:
	movq	120(%rax), %rdx
	movups	%xmm0, 112(%rax)
	movq	%rdx, 24(%rsp)
.L163:
	movq	128(%rax), %rdx
	testq	%rdx, %rdx
	je	.L167
	movq	24(%rsp), %rcx
	testq	%rcx, %rcx
	je	.L224
	movq	%rdx, (%rcx)
.L170:
	movq	136(%rax), %rdx
	movups	%xmm0, 128(%rax)
	movq	%rdx, 24(%rsp)
.L167:
	movq	24(%rax), %rdx
	movb	$1, 144(%rax)
	movq	%rdx, 160(%rbx)
	movq	32(%rax), %rdx
	testq	%rdx, %rdx
	je	.L171
	movq	24(%rax), %rcx
	movq	%rcx, 24(%rdx)
.L171:
	movq	24(%rax), %rdx
	testq	%rdx, %rdx
	je	.L172
	movq	32(%rax), %rcx
	movq	%rcx, 32(%rdx)
.L172:
	movq	168(%rbx), %rdx
	movq	$0, 32(%rax)
	movq	%rdx, 24(%rax)
	movq	%rax, 168(%rbx)
	movq	160(%rbx), %rax
	testq	%rax, %rax
	je	.L173
.L156:
	movq	96(%rax), %rdx
	testq	%rdx, %rdx
	je	.L159
	movq	24(%rsp), %rcx
	testq	%rcx, %rcx
	jne	.L160
	movq	%rdx, 16(%rsp)
	jmp	.L162
	.p2align 4,,10
	.p2align 3
.L223:
	movq	%rdx, 16(%rsp)
	jmp	.L166
	.p2align 4,,10
	.p2align 3
.L224:
	movq	%rdx, 16(%rsp)
	jmp	.L170
	.p2align 4,,10
	.p2align 3
.L173:
	movq	104(%rbx), %rbx
	leaq	16(%rsp), %rbp
	testq	%rbx, %rbx
	je	.L158
	.p2align 4,,10
	.p2align 3
.L157:
	movq	(%rbx), %rax
	movq	%rbp, %rsi
	movq	%rbx, %rdi
.LEHB0:
	call	*48(%rax)
.LEHE0:
	movq	8(%rbx), %rbx
	testq	%rbx, %rbx
	jne	.L157
.L158:
	movq	16(%rsp), %rbx
	testq	%rbx, %rbx
	je	.L155
	pxor	%xmm0, %xmm0
	leaq	32(%rsp), %rbp
	movaps	%xmm0, 16(%rsp)
	call	_ZNSt3_V215system_categoryEv@PLT
	movq	%rax, %r12
	.p2align 4,,10
	.p2align 3
.L177:
	movq	%rbx, %rsi
	movq	(%rbx), %rbx
	xorl	%ecx, %ecx
	xorl	%edi, %edi
	movq	$0, (%rsi)
	movq	8(%rsi), %rax
	movq	%rbp, %rdx
	movl	$0, 32(%rsp)
	movq	%r12, 40(%rsp)
	call	*%rax
	testq	%rbx, %rbx
	jne	.L177
	movq	16(%rsp), %rsi
	testq	%rsi, %rsi
	movq	%rsi, 8(%rsp)
	je	.L155
	call	_ZNSt3_V215system_categoryEv@PLT
	movq	8(%rsp), %rsi
	movq	%rax, %rbx
	jmp	.L182
	.p2align 4,,10
	.p2align 3
.L179:
	movq	$0, (%rsi)
	movq	8(%rsi), %rax
	xorl	%ecx, %ecx
	movq	%rbp, %rdx
	movl	$0, 32(%rsp)
	xorl	%edi, %edi
	movq	%rbx, 40(%rsp)
	call	*%rax
	movq	16(%rsp), %rsi
	testq	%rsi, %rsi
	je	.L155
.L182:
	movq	(%rsi), %rax
	movq	%rax, 16(%rsp)
	testq	%rax, %rax
	jne	.L179
	movq	$0, 24(%rsp)
	jmp	.L179
	.p2align 4,,10
	.p2align 3
.L155:
	movq	56(%rsp), %rax
	subq	%fs:40, %rax
	jne	.L225
	addq	$72, %rsp
	.cfi_remember_state
	.cfi_def_cfa_offset 40
	popq	%rbx
	.cfi_def_cfa_offset 32
	popq	%rbp
	.cfi_def_cfa_offset 24
	popq	%r12
	.cfi_def_cfa_offset 16
	popq	%r13
	.cfi_def_cfa_offset 8
	ret
.L225:
	.cfi_restore_state
	call	__stack_chk_fail@PLT
.L187:
	endbr64
	movq	%rax, %r12
	leaq	32(%rsp), %rbx
.L183:
	movq	16(%rsp), %rbp
	testq	%rbp, %rbp
	jne	.L226
	movq	%r12, %rdi
.LEHB1:
	call	_Unwind_Resume@PLT
.LEHE1:
.L226:
	movq	0(%rbp), %rax
	movq	%rax, 16(%rsp)
	testq	%rax, %rax
	jne	.L185
	movq	$0, 24(%rsp)
.L185:
	movq	$0, 0(%rbp)
	movq	8(%rbp), %r13
	movl	$0, 32(%rsp)
	call	_ZNSt3_V215system_categoryEv@PLT
	xorl	%ecx, %ecx
	movq	%rbx, %rdx
	movq	%rbp, %rsi
	movq	%rax, 40(%rsp)
	xorl	%edi, %edi
	call	*%r13
	jmp	.L183
	.cfi_endproc
.LFE3313:
	.section	.gcc_except_table._ZN4asio6detail13epoll_reactor16shutdown_serviceEv,"aG",@progbits,_ZN4asio6detail13epoll_reactor16shutdown_serviceEv,comdat
.LLSDA3313:
	.byte	0xff
	.byte	0xff
	.byte	0x1
	.uleb128 .LLSDACSE3313-.LLSDACSB3313
.LLSDACSB3313:
	.uleb128 .LEHB0-.LFB3313
	.uleb128 .LEHE0-.LEHB0
	.uleb128 .L187-.LFB3313
	.uleb128 0
	.uleb128 .LEHB1-.LFB3313
	.uleb128 .LEHE1-.LEHB1
	.uleb128 0
	.uleb128 0
.LLSDACSE3313:
	.section	.text._ZN4asio6detail13epoll_reactor16shutdown_serviceEv,"axG",@progbits,_ZN4asio6detail13epoll_reactor16shutdown_serviceEv,comdat
	.size	_ZN4asio6detail13epoll_reactor16shutdown_serviceEv, .-_ZN4asio6detail13epoll_reactor16shutdown_serviceEv
	.section	.rodata._ZNK4asio6detail15system_category7messageB5cxx11Ei.str1.8,"aMS",@progbits,1
	.align 8
.LC4:
	.string	"basic_string::_M_construct null not valid"
	.section	.text._ZNK4asio6detail15system_category7messageB5cxx11Ei,"axG",@progbits,_ZNK4asio6detail15system_category7messageB5cxx11Ei,comdat
	.align 2
	.p2align 4
	.weak	_ZNK4asio6detail15system_category7messageB5cxx11Ei
	.type	_ZNK4asio6detail15system_category7messageB5cxx11Ei, @function
_ZNK4asio6detail15system_category7messageB5cxx11Ei:
.LFB2400:
	.cfi_startproc
	endbr64
	pushq	%r14
	.cfi_def_cfa_offset 16
	.cfi_offset 14, -16
	pushq	%r13
	.cfi_def_cfa_offset 24
	.cfi_offset 13, -24
	pushq	%r12
	.cfi_def_cfa_offset 32
	.cfi_offset 12, -32
	movq	%rdi, %r12
	pushq	%rbp
	.cfi_def_cfa_offset 40
	.cfi_offset 6, -40
	leaq	16(%rdi), %rbp
	subq	$296, %rsp
	.cfi_def_cfa_offset 336
	movq	%fs:40, %rax
	movq	%rax, 280(%rsp)
	xorl	%eax, %eax
	cmpl	$125, %edx
	je	.L242
	pxor	%xmm0, %xmm0
	movl	%edx, %edi
	leaq	16(%rsp), %rsi
	movl	$256, %edx
	movaps	%xmm0, 16(%rsp)
	movaps	%xmm0, 32(%rsp)
	movaps	%xmm0, 48(%rsp)
	movaps	%xmm0, 64(%rsp)
	movaps	%xmm0, 80(%rsp)
	movaps	%xmm0, 96(%rsp)
	movaps	%xmm0, 112(%rsp)
	movaps	%xmm0, 128(%rsp)
	movaps	%xmm0, 144(%rsp)
	movaps	%xmm0, 160(%rsp)
	movaps	%xmm0, 176(%rsp)
	movaps	%xmm0, 192(%rsp)
	movaps	%xmm0, 208(%rsp)
	movaps	%xmm0, 224(%rsp)
	movaps	%xmm0, 240(%rsp)
	movaps	%xmm0, 256(%rsp)
	call	strerror_r@PLT
	movq	%rbp, (%r12)
	movq	%rax, %r13
	testq	%rax, %rax
	je	.L230
	movq	%rax, %rdi
	call	strlen@PLT
	movq	%rax, 8(%rsp)
	movq	%rax, %r14
	cmpq	$15, %rax
	ja	.L243
	cmpq	$1, %rax
	jne	.L234
	movzbl	0(%r13), %edx
	movb	%dl, 16(%r12)
.L235:
	movq	%rax, 8(%r12)
	movb	$0, 0(%rbp,%rax)
.L227:
	movq	280(%rsp), %rax
	subq	%fs:40, %rax
	jne	.L244
	addq	$296, %rsp
	.cfi_remember_state
	.cfi_def_cfa_offset 40
	movq	%r12, %rax
	popq	%rbp
	.cfi_def_cfa_offset 32
	popq	%r12
	.cfi_def_cfa_offset 24
	popq	%r13
	.cfi_def_cfa_offset 16
	popq	%r14
	.cfi_def_cfa_offset 8
	ret
	.p2align 4,,10
	.p2align 3
.L243:
	.cfi_restore_state
	leaq	8(%rsp), %rsi
	xorl	%edx, %edx
	movq	%r12, %rdi
	call	_ZNSt7__cxx1112basic_stringIcSt11char_traitsIcESaIcEE9_M_createERmm@PLT
	movq	%rax, (%r12)
	movq	%rax, %rbp
	movq	8(%rsp), %rax
	movq	%rax, 16(%r12)
.L233:
	movq	%rbp, %rdi
	movq	%r14, %rdx
	movq	%r13, %rsi
	call	memcpy@PLT
	movq	8(%rsp), %rax
	movq	(%r12), %rbp
	jmp	.L235
	.p2align 4,,10
	.p2align 3
.L242:
	movq	%rbp, (%rdi)
	xorl	%edx, %edx
	leaq	8(%rsp), %rsi
	movq	$18, 8(%rsp)
	call	_ZNSt7__cxx1112basic_stringIcSt11char_traitsIcESaIcEE9_M_createERmm@PLT
	movq	8(%rsp), %rdx
	movdqa	.LC5(%rip), %xmm0
	movq	%rax, (%r12)
	movq	%rdx, 16(%r12)
	movl	$11876, %edx
	movw	%dx, 16(%rax)
	movups	%xmm0, (%rax)
	movq	8(%rsp), %rax
	movq	(%r12), %rdx
	movq	%rax, 8(%r12)
	movb	$0, (%rdx,%rax)
	jmp	.L227
	.p2align 4,,10
	.p2align 3
.L234:
	testq	%rax, %rax
	je	.L235
	jmp	.L233
.L230:
	leaq	.LC4(%rip), %rdi
	call	_ZSt19__throw_logic_errorPKc@PLT
.L244:
	call	__stack_chk_fail@PLT
	.cfi_endproc
.LFE2400:
	.size	_ZNK4asio6detail15system_category7messageB5cxx11Ei, .-_ZNK4asio6detail15system_category7messageB5cxx11Ei
	.section	.text._ZNK4asio5error6detail17addrinfo_category7messageB5cxx11Ei,"axG",@progbits,_ZNK4asio5error6detail17addrinfo_category7messageB5cxx11Ei,comdat
	.align 2
	.p2align 4
	.weak	_ZNK4asio5error6detail17addrinfo_category7messageB5cxx11Ei
	.type	_ZNK4asio5error6detail17addrinfo_category7messageB5cxx11Ei, @function
_ZNK4asio5error6detail17addrinfo_category7messageB5cxx11Ei:
.LFB2446:
	.cfi_startproc
	endbr64
	pushq	%r12
	.cfi_def_cfa_offset 16
	.cfi_offset 12, -16
	movq	%rdi, %r12
	subq	$16, %rsp
	.cfi_def_cfa_offset 32
	movq	%fs:40, %rax
	movq	%rax, 8(%rsp)
	xorl	%eax, %eax
	leaq	16(%rdi), %rax
	movq	%rax, (%rdi)
	cmpl	$-8, %edx
	je	.L251
	cmpl	$-7, %edx
	je	.L252
	xorl	%edx, %edx
	movq	%rsp, %rsi
	movq	$19, (%rsp)
	call	_ZNSt7__cxx1112basic_stringIcSt11char_traitsIcESaIcEE9_M_createERmm@PLT
	movq	(%rsp), %rdx
	movdqa	.LC8(%rip), %xmm0
	movq	%rax, (%r12)
	movq	%rdx, 16(%r12)
	movl	$28530, %edx
	movw	%dx, 16(%rax)
	movb	$114, 18(%rax)
	movups	%xmm0, (%rax)
	movq	(%rsp), %rax
	movq	(%r12), %rdx
	movq	%rax, 8(%r12)
	movb	$0, (%rdx,%rax)
.L245:
	movq	8(%rsp), %rax
	subq	%fs:40, %rax
	jne	.L253
	addq	$16, %rsp
	.cfi_remember_state
	.cfi_def_cfa_offset 16
	movq	%r12, %rax
	popq	%r12
	.cfi_def_cfa_offset 8
	ret
	.p2align 4,,10
	.p2align 3
.L252:
	.cfi_restore_state
	xorl	%edx, %edx
	movq	%rsp, %rsi
	movq	$25, (%rsp)
	call	_ZNSt7__cxx1112basic_stringIcSt11char_traitsIcESaIcEE9_M_createERmm@PLT
	movq	(%rsp), %rdx
	movdqa	.LC7(%rip), %xmm0
	movabsq	$7310593918082512243, %rcx
	movq	%rax, (%r12)
	movq	%rdx, 16(%r12)
	movq	%rcx, 16(%rax)
	movb	$100, 24(%rax)
	movups	%xmm0, (%rax)
	movq	(%rsp), %rax
	movq	(%r12), %rdx
	movq	%rax, 8(%r12)
	movb	$0, (%rdx,%rax)
	jmp	.L245
	.p2align 4,,10
	.p2align 3
.L251:
	xorl	%edx, %edx
	movq	%rsp, %rsi
	movq	$17, (%rsp)
	call	_ZNSt7__cxx1112basic_stringIcSt11char_traitsIcESaIcEE9_M_createERmm@PLT
	movq	(%rsp), %rdx
	movdqa	.LC6(%rip), %xmm0
	movq	%rax, (%r12)
	movq	%rdx, 16(%r12)
	movb	$100, 16(%rax)
	movups	%xmm0, (%rax)
	movq	(%rsp), %rax
	movq	(%r12), %rdx
	movq	%rax, 8(%r12)
	movb	$0, (%rdx,%rax)
	jmp	.L245
.L253:
	call	__stack_chk_fail@PLT
	.cfi_endproc
.LFE2446:
	.size	_ZNK4asio5error6detail17addrinfo_category7messageB5cxx11Ei, .-_ZNK4asio5error6detail17addrinfo_category7messageB5cxx11Ei
	.section	.text._ZNK4asio5error6detail13misc_category7messageB5cxx11Ei,"axG",@progbits,_ZNK4asio5error6detail13misc_category7messageB5cxx11Ei,comdat
	.align 2
	.p2align 4
	.weak	_ZNK4asio5error6detail13misc_category7messageB5cxx11Ei
	.type	_ZNK4asio5error6detail13misc_category7messageB5cxx11Ei, @function
_ZNK4asio5error6detail13misc_category7messageB5cxx11Ei:
.LFB2452:
	.cfi_startproc
	endbr64
	pushq	%r12
	.cfi_def_cfa_offset 16
	.cfi_offset 12, -16
	movq	%rdi, %r12
	subq	$16, %rsp
	.cfi_def_cfa_offset 32
	movq	%fs:40, %rax
	movq	%rax, 8(%rsp)
	xorl	%eax, %eax
	leaq	16(%rdi), %rax
	movq	%rax, (%rdi)
	cmpl	$1, %edx
	je	.L262
	cmpl	$2, %edx
	je	.L263
	cmpl	$3, %edx
	je	.L264
	cmpl	$4, %edx
	je	.L265
	movabsq	$8316298233121436513, %rcx
	movl	$28530, %edx
	movq	%rcx, 16(%rdi)
	movl	$1919230051, 8(%rax)
	movw	%dx, 12(%rax)
	movb	$114, 14(%rax)
	movq	$15, 8(%rdi)
	movb	$0, 31(%rdi)
.L254:
	movq	8(%rsp), %rax
	subq	%fs:40, %rax
	jne	.L266
	addq	$16, %rsp
	.cfi_remember_state
	.cfi_def_cfa_offset 16
	movq	%r12, %rax
	popq	%r12
	.cfi_def_cfa_offset 8
	ret
	.p2align 4,,10
	.p2align 3
.L262:
	.cfi_restore_state
	movabsq	$2340011850872286273, %rcx
	movq	%rcx, 16(%rdi)
	movl	$1852141679, 8(%rax)
	movq	$12, 8(%rdi)
	movb	$0, 28(%rdi)
	jmp	.L254
	.p2align 4,,10
	.p2align 3
.L265:
	movq	%rsp, %rsi
	xorl	%edx, %edx
	movq	$57, (%rsp)
	call	_ZNSt7__cxx1112basic_stringIcSt11char_traitsIcESaIcEE9_M_createERmm@PLT
	movq	(%rsp), %rdx
	movdqa	.LC10(%rip), %xmm0
	movabsq	$7310291504967217959, %rsi
	movq	%rax, (%r12)
	movq	%rdx, 16(%r12)
	movups	%xmm0, (%rax)
	movdqa	.LC11(%rip), %xmm0
	movq	%rsi, 48(%rax)
	movups	%xmm0, 16(%rax)
	movdqa	.LC12(%rip), %xmm0
	movb	$116, 56(%rax)
	movups	%xmm0, 32(%rax)
	movq	(%rsp), %rax
	movq	(%r12), %rdx
	movq	%rax, 8(%r12)
	movb	$0, (%rdx,%rax)
	jmp	.L254
	.p2align 4,,10
	.p2align 3
.L263:
	movabsq	$7358994418594246213, %rcx
	movq	%rcx, 16(%rdi)
	movl	$27753, %ecx
	movw	%cx, 8(%rax)
	movb	$101, 10(%rax)
	movq	$11, 8(%rdi)
	movb	$0, 27(%rdi)
	jmp	.L254
	.p2align 4,,10
	.p2align 3
.L264:
	xorl	%edx, %edx
	movq	%rsp, %rsi
	movq	$17, (%rsp)
	call	_ZNSt7__cxx1112basic_stringIcSt11char_traitsIcESaIcEE9_M_createERmm@PLT
	movq	(%rsp), %rdx
	movdqa	.LC9(%rip), %xmm0
	movq	%rax, (%r12)
	movq	%rdx, 16(%r12)
	movb	$100, 16(%rax)
	movups	%xmm0, (%rax)
	movq	(%rsp), %rax
	movq	(%r12), %rdx
	movq	%rax, 8(%r12)
	movb	$0, (%rdx,%rax)
	jmp	.L254
.L266:
	call	__stack_chk_fail@PLT
	.cfi_endproc
.LFE2452:
	.size	_ZNK4asio5error6detail13misc_category7messageB5cxx11Ei, .-_ZNK4asio5error6detail13misc_category7messageB5cxx11Ei
	.section	.text._ZNK4asio5error6detail14netdb_category7messageB5cxx11Ei,"axG",@progbits,_ZNK4asio5error6detail14netdb_category7messageB5cxx11Ei,comdat
	.align 2
	.p2align 4
	.weak	_ZNK4asio5error6detail14netdb_category7messageB5cxx11Ei
	.type	_ZNK4asio5error6detail14netdb_category7messageB5cxx11Ei, @function
_ZNK4asio5error6detail14netdb_category7messageB5cxx11Ei:
.LFB2440:
	.cfi_startproc
	endbr64
	pushq	%r12
	.cfi_def_cfa_offset 16
	.cfi_offset 12, -16
	movq	%rdi, %r12
	subq	$16, %rsp
	.cfi_def_cfa_offset 32
	movq	%fs:40, %rax
	movq	%rax, 8(%rsp)
	xorl	%eax, %eax
	leaq	16(%rdi), %rax
	movq	%rax, (%rdi)
	cmpl	$1, %edx
	je	.L275
	cmpl	$2, %edx
	je	.L276
	cmpl	$4, %edx
	je	.L277
	cmpl	$3, %edx
	je	.L278
	xorl	%edx, %edx
	movq	%rsp, %rsi
	movq	$16, (%rsp)
	call	_ZNSt7__cxx1112basic_stringIcSt11char_traitsIcESaIcEE9_M_createERmm@PLT
	movq	(%rsp), %rdx
	movdqa	.LC22(%rip), %xmm0
	movq	%rax, (%r12)
	movq	%rdx, 16(%r12)
	movups	%xmm0, (%rax)
	movq	(%rsp), %rax
	movq	(%r12), %rdx
	movq	%rax, 8(%r12)
	movb	$0, (%rdx,%rax)
.L267:
	movq	8(%rsp), %rax
	subq	%fs:40, %rax
	jne	.L279
	addq	$16, %rsp
	.cfi_remember_state
	.cfi_def_cfa_offset 16
	movq	%r12, %rax
	popq	%r12
	.cfi_def_cfa_offset 8
	ret
	.p2align 4,,10
	.p2align 3
.L275:
	.cfi_restore_state
	movq	%rsp, %rsi
	xorl	%edx, %edx
	movq	$30, (%rsp)
	call	_ZNSt7__cxx1112basic_stringIcSt11char_traitsIcESaIcEE9_M_createERmm@PLT
	movq	(%rsp), %rdx
	movl	$10597, %esi
	movdqa	.LC13(%rip), %xmm0
	movabsq	$8388361603773658465, %rcx
	movq	%rax, (%r12)
	movq	%rdx, 16(%r12)
	movq	%rcx, 16(%rax)
	movl	$1986622561, 24(%rax)
	movw	%si, 28(%rax)
	movups	%xmm0, (%rax)
	movq	(%rsp), %rax
	movq	(%r12), %rdx
	movq	%rax, 8(%r12)
	movb	$0, (%rdx,%rax)
	jmp	.L267
	.p2align 4,,10
	.p2align 3
.L278:
	xorl	%edx, %edx
	movq	%rsp, %rsi
	movq	$55, (%rsp)
	call	_ZNSt7__cxx1112basic_stringIcSt11char_traitsIcESaIcEE9_M_createERmm@PLT
	movq	(%rsp), %rdx
	movdqa	.LC19(%rip), %xmm0
	movq	%rax, (%r12)
	movq	%rdx, 16(%r12)
	movl	$30059, %edx
	movups	%xmm0, (%rax)
	movdqa	.LC20(%rip), %xmm0
	movl	$1869573152, 48(%rax)
	movups	%xmm0, 16(%rax)
	movdqa	.LC21(%rip), %xmm0
	movw	%dx, 52(%rax)
	movb	$112, 54(%rax)
	movups	%xmm0, 32(%rax)
	movq	(%rsp), %rax
	movq	(%r12), %rdx
	movq	%rax, 8(%r12)
	movb	$0, (%rdx,%rax)
	jmp	.L267
	.p2align 4,,10
	.p2align 3
.L276:
	xorl	%edx, %edx
	movq	%rsp, %rsi
	movq	$51, (%rsp)
	call	_ZNSt7__cxx1112basic_stringIcSt11char_traitsIcESaIcEE9_M_createERmm@PLT
	movq	(%rsp), %rdx
	movl	$25972, %ecx
	movdqa	.LC13(%rip), %xmm0
	movq	%rax, (%r12)
	movq	%rdx, 16(%r12)
	movups	%xmm0, (%rax)
	movdqa	.LC14(%rip), %xmm0
	movw	%cx, 48(%rax)
	movups	%xmm0, 16(%rax)
	movdqa	.LC15(%rip), %xmm0
	movb	$114, 50(%rax)
	movups	%xmm0, 32(%rax)
	movq	(%rsp), %rax
	movq	(%r12), %rdx
	movq	%rax, 8(%r12)
	movb	$0, (%rdx,%rax)
	jmp	.L267
	.p2align 4,,10
	.p2align 3
.L277:
	xorl	%edx, %edx
	movq	%rsp, %rsi
	movq	$56, (%rsp)
	call	_ZNSt7__cxx1112basic_stringIcSt11char_traitsIcESaIcEE9_M_createERmm@PLT
	movq	(%rsp), %rdx
	movdqa	.LC16(%rip), %xmm0
	movabsq	$7022344801645520244, %rcx
	movq	%rax, (%r12)
	movq	%rdx, 16(%r12)
	movups	%xmm0, (%rax)
	movdqa	.LC17(%rip), %xmm0
	movq	%rcx, 48(%rax)
	movups	%xmm0, 16(%rax)
	movdqa	.LC18(%rip), %xmm0
	movups	%xmm0, 32(%rax)
	movq	(%rsp), %rax
	movq	(%r12), %rdx
	movq	%rax, 8(%r12)
	movb	$0, (%rdx,%rax)
	jmp	.L267
.L279:
	call	__stack_chk_fail@PLT
	.cfi_endproc
.LFE2440:
	.size	_ZNK4asio5error6detail14netdb_category7messageB5cxx11Ei, .-_ZNK4asio5error6detail14netdb_category7messageB5cxx11Ei
	.section	.text.unlikely
	.align 2
	.type	_ZN4asio6detail17rewrapped_handlerINS0_7binder1INS0_15wrapped_handlerINS_10io_service6strandEZN7asiopal9TCPServer11StartAcceptEvEUlSt10error_codeE_NS0_26is_continuation_if_runningEEES8_EES9_ED2Ev, @function
_ZN4asio6detail17rewrapped_handlerINS0_7binder1INS0_15wrapped_handlerINS_10io_service6strandEZN7asiopal9TCPServer11StartAcceptEvEUlSt10error_codeE_NS0_26is_continuation_if_runningEEES8_EES9_ED2Ev:
.LFB9189:
	.cfi_startproc
	pushq	%r12
	.cfi_def_cfa_offset 16
	.cfi_offset 12, -16
	pushq	%rbp
	.cfi_def_cfa_offset 24
	.cfi_offset 6, -24
	pushq	%rbx
	.cfi_def_cfa_offset 32
	.cfi_offset 3, -32
	movq	40(%rdi), %rbp
	movq	%rdi, %rbx
	testq	%rbp, %rbp
	je	.L282
	movq	__libc_single_threaded@GOTPCREL(%rip), %r12
	cmpb	$0, (%r12)
	je	.L283
	movl	8(%rbp), %eax
	leal	-1(%rax), %edx
	movl	%edx, 8(%rbp)
	jmp	.L284
.L283:
	orl	$-1, %eax
	lock xaddl	%eax, 8(%rbp)
.L284:
	decl	%eax
	jne	.L282
	movq	0(%rbp), %rax
	movq	%rbp, %rdi
	call	*16(%rax)
	cmpb	$0, (%r12)
	je	.L286
	movl	12(%rbp), %eax
	leal	-1(%rax), %edx
	movl	%edx, 12(%rbp)
	jmp	.L287
.L286:
	orl	$-1, %eax
	lock xaddl	%eax, 12(%rbp)
.L287:
	decl	%eax
	jne	.L282
	movq	0(%rbp), %rax
	movq	%rbp, %rdi
	call	*24(%rax)
.L282:
	movq	8(%rbx), %rbp
	testq	%rbp, %rbp
	je	.L280
	movq	__libc_single_threaded@GOTPCREL(%rip), %rbx
	cmpb	$0, (%rbx)
	je	.L290
	movl	8(%rbp), %eax
	leal	-1(%rax), %edx
	movl	%edx, 8(%rbp)
	jmp	.L291
.L290:
	orl	$-1, %eax
	lock xaddl	%eax, 8(%rbp)
.L291:
	decl	%eax
	jne	.L280
	movq	0(%rbp), %rax
	movq	%rbp, %rdi
	call	*16(%rax)
	cmpb	$0, (%rbx)
	je	.L293
	movl	12(%rbp), %eax
	leal	-1(%rax), %edx
	movl	%edx, 12(%rbp)
	jmp	.L294
.L293:
	orl	$-1, %eax
	lock xaddl	%eax, 12(%rbp)
.L294:
	decl	%eax
	jne	.L280
	movq	0(%rbp), %rax
	popq	%rbx
	.cfi_remember_state
	.cfi_def_cfa_offset 24
	movq	%rbp, %rdi
	popq	%rbp
	.cfi_def_cfa_offset 16
	popq	%r12
	.cfi_def_cfa_offset 8
	movq	24(%rax), %rax
	jmp	*%rax
.L280:
	.cfi_restore_state
	popq	%rbx
	.cfi_def_cfa_offset 24
	popq	%rbp
	.cfi_def_cfa_offset 16
	popq	%r12
	.cfi_def_cfa_offset 8
	ret
	.cfi_endproc
.LFE9189:
	.size	_ZN4asio6detail17rewrapped_handlerINS0_7binder1INS0_15wrapped_handlerINS_10io_service6strandEZN7asiopal9TCPServer11StartAcceptEvEUlSt10error_codeE_NS0_26is_continuation_if_runningEEES8_EES9_ED2Ev, .-_ZN4asio6detail17rewrapped_handlerINS0_7binder1INS0_15wrapped_handlerINS_10io_service6strandEZN7asiopal9TCPServer11StartAcceptEvEUlSt10error_codeE_NS0_26is_continuation_if_runningEEES8_EES9_ED2Ev
	.set	_ZN4asio6detail17rewrapped_handlerINS0_7binder1INS0_15wrapped_handlerINS_10io_service6strandEZN7asiopal9TCPServer11StartAcceptEvEUlSt10error_codeE_NS0_26is_continuation_if_runningEEES8_EES9_ED1Ev,_ZN4asio6detail17rewrapped_handlerINS0_7binder1INS0_15wrapped_handlerINS_10io_service6strandEZN7asiopal9TCPServer11StartAcceptEvEUlSt10error_codeE_NS0_26is_continuation_if_runningEEES8_EES9_ED2Ev
	.align 2
	.type	_ZN4asio6detail18completion_handlerINS0_7binder1IZN7asiopal9TCPServer11StartAcceptEvEUlSt10error_codeE_S5_EEE3ptr5resetEv, @function
_ZN4asio6detail18completion_handlerINS0_7binder1IZN7asiopal9TCPServer11StartAcceptEvEUlSt10error_codeE_S5_EEE3ptr5resetEv:
.LFB9340:
	.cfi_startproc
	pushq	%r12
	.cfi_def_cfa_offset 16
	.cfi_offset 12, -16
	pushq	%rbp
	.cfi_def_cfa_offset 24
	.cfi_offset 6, -24
	pushq	%rbx
	.cfi_def_cfa_offset 32
	.cfi_offset 3, -32
	movq	16(%rdi), %rax
	movq	%rdi, %rbx
	testq	%rax, %rax
	je	.L297
	movq	32(%rax), %rbp
	testq	%rbp, %rbp
	je	.L299
	movq	__libc_single_threaded@GOTPCREL(%rip), %r12
	cmpb	$0, (%r12)
	je	.L300
	movl	8(%rbp), %eax
	leal	-1(%rax), %edx
	movl	%edx, 8(%rbp)
	jmp	.L301
.L300:
	orl	$-1, %eax
	lock xaddl	%eax, 8(%rbp)
.L301:
	decl	%eax
	jne	.L299
	movq	0(%rbp), %rax
	movq	%rbp, %rdi
	call	*16(%rax)
	cmpb	$0, (%r12)
	je	.L303
	movl	12(%rbp), %eax
	leal	-1(%rax), %edx
	movl	%edx, 12(%rbp)
	jmp	.L304
.L303:
	orl	$-1, %eax
	lock xaddl	%eax, 12(%rbp)
.L304:
	decl	%eax
	jne	.L299
	movq	0(%rbp), %rax
	movq	%rbp, %rdi
	call	*24(%rax)
.L299:
	movq	$0, 16(%rbx)
.L297:
	movq	8(%rbx), %rbp
	testq	%rbp, %rbp
	je	.L296
	data16	leaq	_ZN4asio6detail15keyword_tss_ptrINS0_10call_stackINS0_15task_io_serviceENS0_27task_io_service_thread_infoEE7contextEE6value_E@tlsgd(%rip), %rdi
	.value	0x6666
	rex64
	call	__tls_get_addr@PLT
	movq	(%rax), %rax
	testq	%rax, %rax
	je	.L306
	movq	8(%rax), %rax
	testq	%rax, %rax
	je	.L306
	cmpq	$0, (%rax)
	jne	.L306
	movb	56(%rbp), %dl
	movb	%dl, 0(%rbp)
	movq	%rbp, (%rax)
	jmp	.L307
.L306:
	movq	%rbp, %rdi
	call	_ZdlPv@PLT
.L307:
	movq	$0, 8(%rbx)
.L296:
	popq	%rbx
	.cfi_def_cfa_offset 24
	popq	%rbp
	.cfi_def_cfa_offset 16
	popq	%r12
	.cfi_def_cfa_offset 8
	ret
	.cfi_endproc
.LFE9340:
	.size	_ZN4asio6detail18completion_handlerINS0_7binder1IZN7asiopal9TCPServer11StartAcceptEvEUlSt10error_codeE_S5_EEE3ptr5resetEv, .-_ZN4asio6detail18completion_handlerINS0_7binder1IZN7asiopal9TCPServer11StartAcceptEvEUlSt10error_codeE_S5_EEE3ptr5resetEv
	.align 2
	.type	_ZN4asio6detail25reactive_socket_accept_opINS_12basic_socketINS_2ip3tcpENS_21stream_socket_serviceIS4_EEEES4_NS0_15wrapped_handlerINS_10io_service6strandEZN7asiopal9TCPServer11StartAcceptEvEUlSt10error_codeE_NS0_26is_continuation_if_runningEEEE3ptr5resetEv, @function
_ZN4asio6detail25reactive_socket_accept_opINS_12basic_socketINS_2ip3tcpENS_21stream_socket_serviceIS4_EEEES4_NS0_15wrapped_handlerINS_10io_service6strandEZN7asiopal9TCPServer11StartAcceptEvEUlSt10error_codeE_NS0_26is_continuation_if_runningEEEE3ptr5resetEv:
.LFB8870:
	.cfi_startproc
	pushq	%r12
	.cfi_def_cfa_offset 16
	.cfi_offset 12, -16
	pushq	%rbp
	.cfi_def_cfa_offset 24
	.cfi_offset 6, -24
	pushq	%rbx
	.cfi_def_cfa_offset 32
	.cfi_offset 3, -32
	movq	16(%rdi), %rax
	movq	%rdi, %rbx
	testq	%rax, %rax
	je	.L322
	movq	112(%rax), %rbp
	testq	%rbp, %rbp
	je	.L324
	movq	__libc_single_threaded@GOTPCREL(%rip), %r12
	cmpb	$0, (%r12)
	je	.L325
	movl	8(%rbp), %eax
	leal	-1(%rax), %edx
	movl	%edx, 8(%rbp)
	jmp	.L326
.L325:
	orl	$-1, %eax
	lock xaddl	%eax, 8(%rbp)
.L326:
	decl	%eax
	jne	.L324
	movq	0(%rbp), %rax
	movq	%rbp, %rdi
	call	*16(%rax)
	cmpb	$0, (%r12)
	je	.L328
	movl	12(%rbp), %eax
	leal	-1(%rax), %edx
	movl	%edx, 12(%rbp)
	jmp	.L329
.L328:
	orl	$-1, %eax
	lock xaddl	%eax, 12(%rbp)
.L329:
	decl	%eax
	jne	.L324
	movq	0(%rbp), %rax
	movq	%rbp, %rdi
	call	*24(%rax)
.L324:
	movq	$0, 16(%rbx)
.L322:
	movq	8(%rbx), %rbp
	testq	%rbp, %rbp
	je	.L321
	data16	leaq	_ZN4asio6detail15keyword_tss_ptrINS0_10call_stackINS0_15task_io_serviceENS0_27task_io_service_thread_infoEE7contextEE6value_E@tlsgd(%rip), %rdi
	.value	0x6666
	rex64
	call	__tls_get_addr@PLT
	movq	(%rax), %rax
	testq	%rax, %rax
	je	.L331
	movq	8(%rax), %rax
	testq	%rax, %rax
	je	.L331
	cmpq	$0, (%rax)
	jne	.L331
	movb	120(%rbp), %dl
	movb	%dl, 0(%rbp)
	movq	%rbp, (%rax)
	jmp	.L332
.L331:
	movq	%rbp, %rdi
	call	_ZdlPv@PLT
.L332:
	movq	$0, 8(%rbx)
.L321:
	popq	%rbx
	.cfi_def_cfa_offset 24
	popq	%rbp
	.cfi_def_cfa_offset 16
	popq	%r12
	.cfi_def_cfa_offset 8
	ret
	.cfi_endproc
.LFE8870:
	.size	_ZN4asio6detail25reactive_socket_accept_opINS_12basic_socketINS_2ip3tcpENS_21stream_socket_serviceIS4_EEEES4_NS0_15wrapped_handlerINS_10io_service6strandEZN7asiopal9TCPServer11StartAcceptEvEUlSt10error_codeE_NS0_26is_continuation_if_runningEEEE3ptr5resetEv, .-_ZN4asio6detail25reactive_socket_accept_opINS_12basic_socketINS_2ip3tcpENS_21stream_socket_serviceIS4_EEEES4_NS0_15wrapped_handlerINS_10io_service6strandEZN7asiopal9TCPServer11StartAcceptEvEUlSt10error_codeE_NS0_26is_continuation_if_runningEEEE3ptr5resetEv
	.align 2
	.type	_ZN4asio6detail18completion_handlerINS0_17rewrapped_handlerINS0_7binder1INS0_15wrapped_handlerINS_10io_service6strandEZN7asiopal9TCPServer11StartAcceptEvEUlSt10error_codeE_NS0_26is_continuation_if_runningEEES9_EESA_EEE3ptr5resetEv, @function
_ZN4asio6detail18completion_handlerINS0_17rewrapped_handlerINS0_7binder1INS0_15wrapped_handlerINS_10io_service6strandEZN7asiopal9TCPServer11StartAcceptEvEUlSt10error_codeE_NS0_26is_continuation_if_runningEEES9_EESA_EEE3ptr5resetEv:
.LFB9294:
	.cfi_startproc
	pushq	%r13
	.cfi_def_cfa_offset 16
	.cfi_offset 13, -16
	pushq	%r12
	.cfi_def_cfa_offset 24
	.cfi_offset 12, -24
	pushq	%rbp
	.cfi_def_cfa_offset 32
	.cfi_offset 6, -32
	pushq	%rbx
	.cfi_def_cfa_offset 40
	.cfi_offset 3, -40
	movq	%rdi, %rbx
	pushq	%rdx
	.cfi_def_cfa_offset 48
	movq	16(%rdi), %r12
	testq	%r12, %r12
	je	.L347
	movq	64(%r12), %rbp
	testq	%rbp, %rbp
	je	.L349
	movq	__libc_single_threaded@GOTPCREL(%rip), %r13
	cmpb	$0, 0(%r13)
	je	.L350
	movl	8(%rbp), %eax
	leal	-1(%rax), %edx
	movl	%edx, 8(%rbp)
	jmp	.L351
.L350:
	orl	$-1, %eax
	lock xaddl	%eax, 8(%rbp)
.L351:
	decl	%eax
	jne	.L349
	movq	0(%rbp), %rax
	movq	%rbp, %rdi
	call	*16(%rax)
	cmpb	$0, 0(%r13)
	je	.L353
	movl	12(%rbp), %eax
	leal	-1(%rax), %edx
	movl	%edx, 12(%rbp)
	jmp	.L354
.L353:
	orl	$-1, %eax
	lock xaddl	%eax, 12(%rbp)
.L354:
	decl	%eax
	jne	.L349
	movq	0(%rbp), %rax
	movq	%rbp, %rdi
	call	*24(%rax)
.L349:
	movq	32(%r12), %rbp
	testq	%rbp, %rbp
	je	.L356
	movq	__libc_single_threaded@GOTPCREL(%rip), %r12
	cmpb	$0, (%r12)
	je	.L357
	movl	8(%rbp), %eax
	leal	-1(%rax), %edx
	movl	%edx, 8(%rbp)
	jmp	.L358
.L357:
	orl	$-1, %eax
	lock xaddl	%eax, 8(%rbp)
.L358:
	decl	%eax
	jne	.L356
	movq	0(%rbp), %rax
	movq	%rbp, %rdi
	call	*16(%rax)
	cmpb	$0, (%r12)
	je	.L360
	movl	12(%rbp), %eax
	leal	-1(%rax), %edx
	movl	%edx, 12(%rbp)
	jmp	.L361
.L360:
	orl	$-1, %eax
	lock xaddl	%eax, 12(%rbp)
.L361:
	decl	%eax
	jne	.L356
	movq	0(%rbp), %rax
	movq	%rbp, %rdi
	call	*24(%rax)
.L356:
	movq	$0, 16(%rbx)
.L347:
	movq	8(%rbx), %rbp
	testq	%rbp, %rbp
	je	.L346
	data16	leaq	_ZN4asio6detail15keyword_tss_ptrINS0_10call_stackINS0_15task_io_serviceENS0_27task_io_service_thread_infoEE7contextEE6value_E@tlsgd(%rip), %rdi
	.value	0x6666
	rex64
	call	__tls_get_addr@PLT
	movq	(%rax), %rax
	testq	%rax, %rax
	je	.L363
	movq	8(%rax), %rax
	testq	%rax, %rax
	je	.L363
	cmpq	$0, (%rax)
	jne	.L363
	movb	88(%rbp), %dl
	movb	%dl, 0(%rbp)
	movq	%rbp, (%rax)
	jmp	.L364
.L363:
	movq	%rbp, %rdi
	call	_ZdlPv@PLT
.L364:
	movq	$0, 8(%rbx)
.L346:
	popq	%rax
	.cfi_def_cfa_offset 40
	popq	%rbx
	.cfi_def_cfa_offset 32
	popq	%rbp
	.cfi_def_cfa_offset 24
	popq	%r12
	.cfi_def_cfa_offset 16
	popq	%r13
	.cfi_def_cfa_offset 8
	ret
	.cfi_endproc
.LFE9294:
	.size	_ZN4asio6detail18completion_handlerINS0_17rewrapped_handlerINS0_7binder1INS0_15wrapped_handlerINS_10io_service6strandEZN7asiopal9TCPServer11StartAcceptEvEUlSt10error_codeE_NS0_26is_continuation_if_runningEEES9_EESA_EEE3ptr5resetEv, .-_ZN4asio6detail18completion_handlerINS0_17rewrapped_handlerINS0_7binder1INS0_15wrapped_handlerINS_10io_service6strandEZN7asiopal9TCPServer11StartAcceptEvEUlSt10error_codeE_NS0_26is_continuation_if_runningEEES9_EESA_EEE3ptr5resetEv
	.section	.rodata._ZNSt12system_errorC2ESt10error_codePKc.str1.1,"aMS",@progbits,1
.LC23:
	.string	": "
	.section	.text._ZNSt12system_errorC2ESt10error_codePKc,"axG",@progbits,_ZNSt12system_errorC5ESt10error_codePKc,comdat
	.align 2
	.p2align 4
	.weak	_ZNSt12system_errorC2ESt10error_codePKc
	.type	_ZNSt12system_errorC2ESt10error_codePKc, @function
_ZNSt12system_errorC2ESt10error_codePKc:
.LFB2350:
	.cfi_startproc
	.cfi_personality 0x9b,DW.ref.__gxx_personality_v0
	.cfi_lsda 0x1b,.LLSDA2350
	endbr64
	pushq	%r14
	.cfi_def_cfa_offset 16
	.cfi_offset 14, -16
	movq	%rcx, %r14
	pushq	%r13
	.cfi_def_cfa_offset 24
	.cfi_offset 13, -24
	pushq	%r12
	.cfi_def_cfa_offset 32
	.cfi_offset 12, -32
	movq	%rsi, %r12
	pushq	%rbp
	.cfi_def_cfa_offset 40
	.cfi_offset 6, -40
	movq	%rdx, %rbp
	pushq	%rbx
	.cfi_def_cfa_offset 48
	.cfi_offset 3, -48
	movq	%rdi, %rbx
	subq	$112, %rsp
	.cfi_def_cfa_offset 160
	movq	%fs:40, %rax
	movq	%rax, 104(%rsp)
	xorl	%eax, %eax
	movq	(%rdx), %rax
	leaq	64(%rsp), %r13
	movl	%esi, %edx
	movq	%r13, %rdi
	movq	%rbp, %rsi
.LEHB2:
	call	*32(%rax)
.LEHE2:
	movl	$2, %r8d
	xorl	%edx, %edx
	xorl	%esi, %esi
	leaq	.LC23(%rip), %rcx
	movq	%r13, %rdi
.LEHB3:
	call	_ZNSt7__cxx1112basic_stringIcSt11char_traitsIcESaIcEE10_M_replaceEmmPKcm@PLT
.LEHE3:
	leaq	48(%rsp), %r13
	leaq	16(%rax), %rdx
	movq	%r13, 32(%rsp)
	movq	(%rax), %rcx
	cmpq	%rdx, %rcx
	je	.L398
	movq	%rcx, 32(%rsp)
	movq	16(%rax), %rcx
	movq	%rcx, 48(%rsp)
.L380:
	movq	8(%rax), %rcx
	movb	$0, 16(%rax)
	movq	%r14, %rdi
	movq	%rcx, 40(%rsp)
	movq	%rdx, (%rax)
	movq	$0, 8(%rax)
	call	strlen@PLT
	leaq	32(%rsp), %rdi
	movq	%r14, %rcx
	xorl	%edx, %edx
	movq	%rax, %r8
	xorl	%esi, %esi
.LEHB4:
	call	_ZNSt7__cxx1112basic_stringIcSt11char_traitsIcESaIcEE10_M_replaceEmmPKcm@PLT
.LEHE4:
	leaq	16(%rsp), %r14
	leaq	16(%rax), %rdx
	movq	%r14, (%rsp)
	movq	(%rax), %rcx
	cmpq	%rdx, %rcx
	je	.L399
	movq	%rcx, (%rsp)
	movq	16(%rax), %rcx
	movq	%rcx, 16(%rsp)
.L382:
	movq	8(%rax), %rcx
	movb	$0, 16(%rax)
	movq	%rsp, %rsi
	movq	%rbx, %rdi
	movq	%rcx, 8(%rsp)
	movq	%rdx, (%rax)
	movq	$0, 8(%rax)
.LEHB5:
	call	_ZNSt13runtime_errorC2ERKNSt7__cxx1112basic_stringIcSt11char_traitsIcESaIcEEE@PLT
.LEHE5:
	movq	(%rsp), %rdi
	cmpq	%r14, %rdi
	je	.L383
	movq	16(%rsp), %rax
	leaq	1(%rax), %rsi
	call	_ZdlPvm@PLT
.L383:
	movq	32(%rsp), %rdi
	cmpq	%r13, %rdi
	je	.L384
	movq	48(%rsp), %rax
	leaq	1(%rax), %rsi
	call	_ZdlPvm@PLT
.L384:
	movq	64(%rsp), %rdi
	leaq	80(%rsp), %rax
	cmpq	%rax, %rdi
	je	.L385
	movq	80(%rsp), %rax
	leaq	1(%rax), %rsi
	call	_ZdlPvm@PLT
.L385:
	movq	_ZTVSt12system_error@GOTPCREL(%rip), %rax
	movq	%r12, 16(%rbx)
	movq	%rbp, 24(%rbx)
	addq	$16, %rax
	movq	%rax, (%rbx)
	movq	104(%rsp), %rax
	subq	%fs:40, %rax
	jne	.L400
	addq	$112, %rsp
	.cfi_remember_state
	.cfi_def_cfa_offset 48
	popq	%rbx
	.cfi_def_cfa_offset 40
	popq	%rbp
	.cfi_def_cfa_offset 32
	popq	%r12
	.cfi_def_cfa_offset 24
	popq	%r13
	.cfi_def_cfa_offset 16
	popq	%r14
	.cfi_def_cfa_offset 8
	ret
	.p2align 4,,10
	.p2align 3
.L398:
	.cfi_restore_state
	movdqu	16(%rax), %xmm0
	movaps	%xmm0, 48(%rsp)
	jmp	.L380
	.p2align 4,,10
	.p2align 3
.L399:
	movdqu	16(%rax), %xmm1
	movaps	%xmm1, 16(%rsp)
	jmp	.L382
.L400:
	call	__stack_chk_fail@PLT
.L395:
	endbr64
	movq	%rax, %rbp
	jmp	.L386
.L393:
	endbr64
	movq	%rax, %rbp
	jmp	.L390
.L394:
	endbr64
	movq	%rax, %rbp
	jmp	.L388
.L386:
	movq	(%rsp), %rdi
	cmpq	%r14, %rdi
	je	.L388
	movq	16(%rsp), %rax
	leaq	1(%rax), %rsi
	call	_ZdlPvm@PLT
.L388:
	movq	32(%rsp), %rdi
	cmpq	%r13, %rdi
	je	.L390
	movq	48(%rsp), %rax
	leaq	1(%rax), %rsi
	call	_ZdlPvm@PLT
.L390:
	movq	64(%rsp), %rdi
	leaq	80(%rsp), %rax
	cmpq	%rax, %rdi
	je	.L391
	movq	80(%rsp), %rax
	leaq	1(%rax), %rsi
	call	_ZdlPvm@PLT
.L391:
	movq	%rbp, %rdi
.LEHB6:
	call	_Unwind_Resume@PLT
.LEHE6:
	.cfi_endproc
.LFE2350:
	.section	.gcc_except_table._ZNSt12system_errorC2ESt10error_codePKc,"aG",@progbits,_ZNSt12system_errorC5ESt10error_codePKc,comdat
.LLSDA2350:
	.byte	0xff
	.byte	0xff
	.byte	0x1
	.uleb128 .LLSDACSE2350-.LLSDACSB2350
.LLSDACSB2350:
	.uleb128 .LEHB2-.LFB2350
	.uleb128 .LEHE2-.LEHB2
	.uleb128 0
	.uleb128 0
	.uleb128 .LEHB3-.LFB2350
	.uleb128 .LEHE3-.LEHB3
	.uleb128 .L393-.LFB2350
	.uleb128 0
	.uleb128 .LEHB4-.LFB2350
	.uleb128 .LEHE4-.LEHB4
	.uleb128 .L394-.LFB2350
	.uleb128 0
	.uleb128 .LEHB5-.LFB2350
	.uleb128 .LEHE5-.LEHB5
	.uleb128 .L395-.LFB2350
	.uleb128 0
	.uleb128 .LEHB6-.LFB2350
	.uleb128 .LEHE6-.LEHB6
	.uleb128 0
	.uleb128 0
.LLSDACSE2350:
	.section	.text._ZNSt12system_errorC2ESt10error_codePKc,"axG",@progbits,_ZNSt12system_errorC5ESt10error_codePKc,comdat
	.size	_ZNSt12system_errorC2ESt10error_codePKc, .-_ZNSt12system_errorC2ESt10error_codePKc
	.weak	_ZNSt12system_errorC1ESt10error_codePKc
	.set	_ZNSt12system_errorC1ESt10error_codePKc,_ZNSt12system_errorC2ESt10error_codePKc
	.section	.text._ZN4asio15system_categoryEv,"axG",@progbits,_ZN4asio15system_categoryEv,comdat
	.p2align 4
	.weak	_ZN4asio15system_categoryEv
	.type	_ZN4asio15system_categoryEv, @function
_ZN4asio15system_categoryEv:
.LFB2403:
	.cfi_startproc
	endbr64
	pushq	%r12
	.cfi_def_cfa_offset 16
	.cfi_offset 12, -16
	pushq	%rbp
	.cfi_def_cfa_offset 24
	.cfi_offset 6, -24
	subq	$8, %rsp
	.cfi_def_cfa_offset 32
	movq	_ZGVZN4asio15system_categoryEvE8instance@GOTPCREL(%rip), %rbp
	movzbl	0(%rbp), %eax
	testb	%al, %al
	je	.L402
.L409:
	movq	_ZZN4asio15system_categoryEvE8instance@GOTPCREL(%rip), %r12
	addq	$8, %rsp
	.cfi_remember_state
	.cfi_def_cfa_offset 24
	popq	%rbp
	.cfi_def_cfa_offset 16
	movq	%r12, %rax
	popq	%r12
	.cfi_def_cfa_offset 8
	ret
	.p2align 4,,10
	.p2align 3
.L402:
	.cfi_restore_state
	movq	%rbp, %rdi
	call	__cxa_guard_acquire@PLT
	testl	%eax, %eax
	je	.L409
	movq	_ZZN4asio15system_categoryEvE8instance@GOTPCREL(%rip), %r12
	movq	_ZN4asio6detail15system_categoryD1Ev@GOTPCREL(%rip), %rdi
	leaq	__dso_handle(%rip), %rdx
	movq	%r12, %rsi
	call	__cxa_atexit@PLT
	movq	%rbp, %rdi
	call	__cxa_guard_release@PLT
	addq	$8, %rsp
	.cfi_def_cfa_offset 24
	movq	%r12, %rax
	popq	%rbp
	.cfi_def_cfa_offset 16
	popq	%r12
	.cfi_def_cfa_offset 8
	ret
	.cfi_endproc
.LFE2403:
	.size	_ZN4asio15system_categoryEv, .-_ZN4asio15system_categoryEv
	.section	.rodata.str1.8,"aMS",@progbits,1
	.align 8
.LC24:
	.string	"/home/saptarshi/Desktop/OpenPLC61850/utils/dnp3_src/cpp/libs/src/asiopal/TCPServer.cpp(57)"
	.section	.text.unlikely
	.align 2
.LCOLDB25:
	.text
.LHOTB25:
	.align 2
	.p2align 4
	.globl	_ZN7asiopal9TCPServer8ShutdownEv
	.type	_ZN7asiopal9TCPServer8ShutdownEv, @function
_ZN7asiopal9TCPServer8ShutdownEv:
.LFB7072:
	.cfi_startproc
	.cfi_personality 0x9b,DW.ref.__gxx_personality_v0
	.cfi_lsda 0x1b,.LLSDA7072
	endbr64
	pushq	%r15
	.cfi_def_cfa_offset 16
	.cfi_offset 15, -16
	movq	%rdi, %r15
	pushq	%r14
	.cfi_def_cfa_offset 24
	.cfi_offset 14, -24
	pushq	%r13
	.cfi_def_cfa_offset 32
	.cfi_offset 13, -32
	pushq	%r12
	.cfi_def_cfa_offset 40
	.cfi_offset 12, -40
	pushq	%rbp
	.cfi_def_cfa_offset 48
	.cfi_offset 6, -48
	pushq	%rbx
	.cfi_def_cfa_offset 56
	.cfi_offset 3, -56
	subq	$104, %rsp
	.cfi_def_cfa_offset 160
	movl	104(%rdi), %r12d
	movq	%fs:40, %rax
	movq	%rax, 88(%rsp)
	movq	128(%rdi), %rax
	cmpl	$-1, %r12d
	jne	.L411
.L442:
	movl	$-1, 104(%r15)
	movb	$0, 108(%r15)
.L410:
	movq	88(%rsp), %rax
	subq	%fs:40, %rax
	jne	.L515
	addq	$104, %rsp
	.cfi_remember_state
	.cfi_def_cfa_offset 56
	popq	%rbx
	.cfi_def_cfa_offset 48
	popq	%rbp
	.cfi_def_cfa_offset 40
	popq	%r12
	.cfi_def_cfa_offset 32
	popq	%r13
	.cfi_def_cfa_offset 24
	popq	%r14
	.cfi_def_cfa_offset 16
	popq	%r15
	.cfi_def_cfa_offset 8
	ret
	.p2align 4,,10
	.p2align 3
.L411:
	.cfi_restore_state
	movq	40(%rax), %rax
	movq	112(%rdi), %rbp
	movzbl	108(%rdi), %ebx
	movq	%rax, 16(%rsp)
	testq	%rbp, %rbp
	je	.L413
	leaq	40(%rbp), %rax
	movq	%rax, %rdi
	movq	%rax, 24(%rsp)
	call	pthread_mutex_lock@PLT
	movq	112(%r15), %rdi
	cmpb	$0, 144(%rdi)
	jne	.L414
	andl	$64, %ebx
	jne	.L516
.L415:
	movq	$0, 8(%rsp)
	xorl	%ebp, %ebp
	movl	$0, 4(%rsp)
.L416:
	movslq	4(%rsp), %r12
	movq	%r12, %rax
	salq	$4, %rax
	movq	96(%rax,%rdi), %rbx
	testq	%rbx, %rbx
	je	.L462
	movq	_ZGVZN4asio15system_categoryEvE8instance@GOTPCREL(%rip), %r14
	movq	_ZZN4asio15system_categoryEvE8instance@GOTPCREL(%rip), %r13
	movzbl	(%r14), %eax
	testb	%al, %al
	je	.L517
	.p2align 4,,10
	.p2align 3
.L418:
	movq	112(%r15), %rdi
	movq	%r12, %rax
	movl	$125, 24(%rbx)
	salq	$4, %rax
	movq	%r13, 32(%rbx)
	addq	%rdi, %rax
	movq	96(%rax), %rdx
	testq	%rdx, %rdx
	je	.L420
	movq	(%rdx), %r11
	movq	%r11, 96(%rax)
	testq	%r11, %r11
	je	.L518
	movq	$0, (%rdx)
	movq	$0, (%rbx)
	testq	%rbp, %rbp
	je	.L519
.L459:
	movq	%rbx, 0(%rbp)
	testq	%r11, %r11
	je	.L422
.L423:
	movzbl	(%r14), %eax
	movq	%rbx, %rbp
	movq	%r11, %rbx
	testb	%al, %al
	jne	.L418
.L517:
	movq	%r14, %rdi
	call	__cxa_guard_acquire@PLT
	testl	%eax, %eax
	je	.L418
	movq	_ZN4asio6detail15system_categoryD1Ev@GOTPCREL(%rip), %rdi
	leaq	__dso_handle(%rip), %rdx
	movq	%r13, %rsi
	call	__cxa_atexit@PLT
	movq	%r14, %rdi
	call	__cxa_guard_release@PLT
	jmp	.L418
	.p2align 4,,10
	.p2align 3
.L414:
	movq	24(%rsp), %rdi
	call	pthread_mutex_unlock@PLT
.L436:
	movl	104(%r15), %r12d
	cmpl	$-1, %r12d
	je	.L442
.L413:
	call	__errno_location@PLT
	movl	%r12d, %edi
	movl	$0, (%rax)
	movq	%rax, %rbx
.LEHB7:
	call	close@PLT
	movq	_ZGVZN4asio15system_categoryEvE8instance@GOTPCREL(%rip), %r14
	movl	%eax, %ebp
	movzbl	(%r14), %eax
	testb	%al, %al
	je	.L520
.L444:
	movl	(%rbx), %r13d
	testl	%ebp, %ebp
	je	.L442
	movzbl	(%r14), %eax
	testb	%al, %al
	je	.L521
.L447:
	cmpl	$11, %r13d
	je	.L449
	movzbl	(%r14), %eax
	testb	%al, %al
	je	.L522
.L450:
	movl	$-1, 104(%r15)
	movb	$0, 108(%r15)
	testl	%r13d, %r13d
	je	.L410
	addq	$24, %r15
	leaq	36(%rsp), %r12
	movl	$2, 36(%rsp)
	movq	%r12, %rsi
	movq	%r15, %rdi
	call	_ZNK7openpal6Logger9IsEnabledERKNS_10LogFiltersE@PLT
	testb	%al, %al
	je	.L410
	movq	_ZZN4asio15system_categoryEvE8instance@GOTPCREL(%rip), %rsi
	leaq	48(%rsp), %rdi
	movl	%r13d, %edx
	call	_ZNK4asio6detail15system_category7messageB5cxx11Ei@PLT
.LEHE7:
	movq	48(%rsp), %rcx
	movq	%r12, %rsi
	movq	%r15, %rdi
	leaq	.LC24(%rip), %rdx
	movl	$2, 36(%rsp)
.LEHB8:
	call	_ZN7openpal6Logger3LogERKNS_10LogFiltersEPKcS5_@PLT
.LEHE8:
	movq	48(%rsp), %rdi
	leaq	64(%rsp), %rax
	cmpq	%rax, %rdi
	je	.L410
	movq	64(%rsp), %rax
	leaq	1(%rax), %rsi
	call	_ZdlPvm@PLT
	jmp	.L410
	.p2align 4,,10
	.p2align 3
.L520:
	movq	%r14, %rdi
	call	__cxa_guard_acquire@PLT
	testl	%eax, %eax
	je	.L444
	movq	_ZZN4asio15system_categoryEvE8instance@GOTPCREL(%rip), %rsi
	movq	_ZN4asio6detail15system_categoryD1Ev@GOTPCREL(%rip), %rdi
	leaq	__dso_handle(%rip), %rdx
	call	__cxa_atexit@PLT
	movq	%r14, %rdi
	call	__cxa_guard_release@PLT
	jmp	.L444
	.p2align 4,,10
	.p2align 3
.L521:
	movq	%r14, %rdi
	call	__cxa_guard_acquire@PLT
	testl	%eax, %eax
	je	.L447
	movq	_ZZN4asio15system_categoryEvE8instance@GOTPCREL(%rip), %rsi
	movq	_ZN4asio6detail15system_categoryD1Ev@GOTPCREL(%rip), %rdi
	leaq	__dso_handle(%rip), %rdx
	call	__cxa_atexit@PLT
	movq	%r14, %rdi
	call	__cxa_guard_release@PLT
	jmp	.L447
	.p2align 4,,10
	.p2align 3
.L420:
	movq	$0, (%rbx)
	testq	%rbp, %rbp
	je	.L463
	movq	%rbx, 0(%rbp)
.L422:
	addl	$1, 4(%rsp)
	movl	4(%rsp), %eax
	cmpl	$3, %eax
	je	.L424
.L523:
	movq	%rbx, %rbp
	jmp	.L416
	.p2align 4,,10
	.p2align 3
.L518:
	movq	$0, 104(%rax)
	movq	$0, (%rdx)
	movq	$0, (%rbx)
	testq	%rbp, %rbp
	jne	.L459
	.p2align 4,,10
	.p2align 3
.L463:
	addl	$1, 4(%rsp)
	movl	4(%rsp), %eax
	movq	%rbx, 8(%rsp)
	cmpl	$3, %eax
	jne	.L523
.L424:
	movl	$-1, 88(%rdi)
	movb	$1, 144(%rdi)
	movq	24(%rsp), %rdi
	call	pthread_mutex_unlock@PLT
	movq	16(%rsp), %r14
	movq	112(%r15), %rbp
	leaq	120(%r14), %r12
	movq	%r12, %rdi
	call	pthread_mutex_lock@PLT
	cmpq	160(%r14), %rbp
	je	.L524
.L426:
	movq	32(%rbp), %rax
	testq	%rax, %rax
	je	.L427
	movq	24(%rbp), %rdx
	movq	%rdx, 24(%rax)
.L427:
	movq	24(%rbp), %rax
	testq	%rax, %rax
	je	.L428
	movq	32(%rbp), %rdx
	movq	%rdx, 32(%rax)
.L428:
	movq	16(%rsp), %r14
	movq	%r12, %rdi
	movq	168(%r14), %rax
	movq	$0, 32(%rbp)
	movq	%rax, 24(%rbp)
	movq	%rbp, 168(%r14)
	call	pthread_mutex_unlock@PLT
	cmpq	$0, 8(%rsp)
	movq	$0, 112(%r15)
	je	.L436
	movq	40(%r14), %rbp
	cmpb	$0, 40(%rbp)
	je	.L430
	data16	leaq	_ZN4asio6detail15keyword_tss_ptrINS0_10call_stackINS0_15task_io_serviceENS0_27task_io_service_thread_infoEE7contextEE6value_E@tlsgd(%rip), %rdi
	.value	0x6666
	rex64
	call	__tls_get_addr@PLT
	movq	(%rax), %rax
	testq	%rax, %rax
	jne	.L433
	jmp	.L430
	.p2align 4,,10
	.p2align 3
.L431:
	movq	16(%rax), %rax
	testq	%rax, %rax
	je	.L430
.L433:
	cmpq	(%rax), %rbp
	jne	.L431
	movq	8(%rax), %rax
	testq	%rax, %rax
	je	.L430
	movq	16(%rax), %rdx
	movq	8(%rsp), %rcx
	testq	%rdx, %rdx
	je	.L434
	movq	%rcx, (%rdx)
.L435:
	movq	%rbx, 16(%rax)
	jmp	.L436
	.p2align 4,,10
	.p2align 3
.L519:
	movq	%rbx, 8(%rsp)
	jmp	.L423
	.p2align 4,,10
	.p2align 3
.L430:
	leaq	48(%rbp), %r12
	movq	%r12, %rdi
	call	pthread_mutex_lock@PLT
	movq	200(%rbp), %rax
	testq	%rax, %rax
	je	.L437
	movq	8(%rsp), %rcx
	movq	%rcx, (%rax)
.L438:
	movq	136(%rbp), %rax
	movq	%rbx, 200(%rbp)
	orq	$1, %rax
	movq	%rax, 136(%rbp)
	cmpq	$1, %rax
	je	.L439
	movq	%r12, %rdi
	call	pthread_mutex_unlock@PLT
	leaq	88(%rbp), %rdi
	call	pthread_cond_signal@PLT
	jmp	.L436
.L439:
	cmpb	$0, 176(%rbp)
	jne	.L441
	movq	144(%rbp), %rax
	testq	%rax, %rax
	je	.L441
	movb	$1, 176(%rbp)
	leaq	88(%rax), %rdx
	leaq	36(%rsp), %rcx
	movl	$3, %esi
	movq	%rdx, 40(%rsp)
	movl	88(%rax), %edx
	movl	$-2147483639, 36(%rsp)
	movl	96(%rax), %edi
	call	epoll_ctl@PLT
.L441:
	movq	%r12, %rdi
	call	pthread_mutex_unlock@PLT
	jmp	.L436
	.p2align 4,,10
	.p2align 3
.L522:
	movq	%r14, %rdi
	call	__cxa_guard_acquire@PLT
	testl	%eax, %eax
	je	.L450
	movq	_ZZN4asio15system_categoryEvE8instance@GOTPCREL(%rip), %rsi
	movq	_ZN4asio6detail15system_categoryD1Ev@GOTPCREL(%rip), %rdi
	leaq	__dso_handle(%rip), %rdx
	call	__cxa_atexit@PLT
	movq	%r14, %rdi
	call	__cxa_guard_release@PLT
	jmp	.L450
	.p2align 4,,10
	.p2align 3
.L462:
	movq	%rbp, %rbx
	jmp	.L422
	.p2align 4,,10
	.p2align 3
.L516:
	movq	16(%rsp), %rax
	movl	$0, 36(%rsp)
	leaq	36(%rsp), %rcx
	movl	%r12d, %edx
	movq	$0, 40(%rsp)
	movl	$2, %esi
	movl	96(%rax), %edi
	call	epoll_ctl@PLT
	movq	112(%r15), %rdi
	jmp	.L415
	.p2align 4,,10
	.p2align 3
.L524:
	movq	24(%rbp), %rax
	movq	16(%rsp), %rcx
	movq	%rax, 160(%rcx)
	jmp	.L426
	.p2align 4,,10
	.p2align 3
.L449:
	leaq	36(%rsp), %rdx
	movl	$21537, %esi
	movl	%r12d, %edi
	xorl	%eax, %eax
	movl	$0, 36(%rsp)
	call	ioctl@PLT
	andb	$-4, 108(%r15)
	movl	%r12d, %edi
	movl	$0, (%rbx)
.LEHB9:
	call	close@PLT
.LEHE9:
	movl	%eax, %ebp
	movzbl	(%r14), %eax
	testb	%al, %al
	je	.L525
.L452:
	movl	(%rbx), %r13d
	testl	%ebp, %ebp
	jne	.L450
	jmp	.L442
	.p2align 4,,10
	.p2align 3
.L437:
	movq	8(%rsp), %rax
	movq	%rax, 192(%rbp)
	jmp	.L438
.L525:
	movq	%r14, %rdi
	call	__cxa_guard_acquire@PLT
	testl	%eax, %eax
	je	.L452
	movq	_ZZN4asio15system_categoryEvE8instance@GOTPCREL(%rip), %rsi
	movq	_ZN4asio6detail15system_categoryD1Ev@GOTPCREL(%rip), %rdi
	leaq	__dso_handle(%rip), %rdx
	call	__cxa_atexit@PLT
	movq	%r14, %rdi
	call	__cxa_guard_release@PLT
	jmp	.L452
.L434:
	movq	%rcx, 8(%rax)
	jmp	.L435
.L515:
	call	__stack_chk_fail@PLT
.L464:
	endbr64
	movq	%rax, %rbp
	jmp	.L457
	.section	.gcc_except_table,"a",@progbits
.LLSDA7072:
	.byte	0xff
	.byte	0xff
	.byte	0x1
	.uleb128 .LLSDACSE7072-.LLSDACSB7072
.LLSDACSB7072:
	.uleb128 .LEHB7-.LFB7072
	.uleb128 .LEHE7-.LEHB7
	.uleb128 0
	.uleb128 0
	.uleb128 .LEHB8-.LFB7072
	.uleb128 .LEHE8-.LEHB8
	.uleb128 .L464-.LFB7072
	.uleb128 0
	.uleb128 .LEHB9-.LFB7072
	.uleb128 .LEHE9-.LEHB9
	.uleb128 0
	.uleb128 0
.LLSDACSE7072:
	.text
	.cfi_endproc
	.section	.text.unlikely
	.cfi_startproc
	.cfi_personality 0x9b,DW.ref.__gxx_personality_v0
	.cfi_lsda 0x1b,.LLSDAC7072
	.type	_ZN7asiopal9TCPServer8ShutdownEv.cold, @function
_ZN7asiopal9TCPServer8ShutdownEv.cold:
.LFSB7072:
.L457:
	.cfi_def_cfa_offset 160
	.cfi_offset 3, -56
	.cfi_offset 6, -48
	.cfi_offset 12, -40
	.cfi_offset 13, -32
	.cfi_offset 14, -24
	.cfi_offset 15, -16
	movq	48(%rsp), %rdi
	leaq	64(%rsp), %rax
	cmpq	%rax, %rdi
	je	.L458
	movq	64(%rsp), %rax
	leaq	1(%rax), %rsi
	call	_ZdlPvm@PLT
.L458:
	movq	%rbp, %rdi
.LEHB10:
	call	_Unwind_Resume@PLT
.LEHE10:
	.cfi_endproc
.LFE7072:
	.section	.gcc_except_table
.LLSDAC7072:
	.byte	0xff
	.byte	0xff
	.byte	0x1
	.uleb128 .LLSDACSEC7072-.LLSDACSBC7072
.LLSDACSBC7072:
	.uleb128 .LEHB10-.LCOLDB25
	.uleb128 .LEHE10-.LEHB10
	.uleb128 0
	.uleb128 0
.LLSDACSEC7072:
	.section	.text.unlikely
	.text
	.size	_ZN7asiopal9TCPServer8ShutdownEv, .-_ZN7asiopal9TCPServer8ShutdownEv
	.section	.text.unlikely
	.size	_ZN7asiopal9TCPServer8ShutdownEv.cold, .-_ZN7asiopal9TCPServer8ShutdownEv.cold
.LCOLDE25:
	.text
.LHOTE25:
	.section	.text._ZN4asio6detail13epoll_reactor32perform_io_cleanup_on_block_exitD2Ev,"axG",@progbits,_ZN4asio6detail13epoll_reactor32perform_io_cleanup_on_block_exitD5Ev,comdat
	.align 2
	.p2align 4
	.weak	_ZN4asio6detail13epoll_reactor32perform_io_cleanup_on_block_exitD2Ev
	.type	_ZN4asio6detail13epoll_reactor32perform_io_cleanup_on_block_exitD2Ev, @function
_ZN4asio6detail13epoll_reactor32perform_io_cleanup_on_block_exitD2Ev:
.LFB3338:
	.cfi_startproc
	.cfi_personality 0x9b,DW.ref.__gxx_personality_v0
	.cfi_lsda 0x1b,.LLSDA3338
	endbr64
	pushq	%r13
	.cfi_def_cfa_offset 16
	.cfi_offset 13, -16
	pushq	%r12
	.cfi_def_cfa_offset 24
	.cfi_offset 12, -24
	pushq	%rbp
	.cfi_def_cfa_offset 32
	.cfi_offset 6, -32
	pushq	%rbx
	.cfi_def_cfa_offset 40
	.cfi_offset 3, -40
	movq	%rdi, %rbx
	subq	$56, %rsp
	.cfi_def_cfa_offset 96
	movq	%fs:40, %rax
	movq	%rax, 40(%rsp)
	xorl	%eax, %eax
	cmpq	$0, 24(%rdi)
	je	.L527
	movq	8(%rdi), %r12
	testq	%r12, %r12
	je	.L526
	movq	(%rdi), %rax
	movq	40(%rax), %rbp
	cmpb	$0, 40(%rbp)
	je	.L529
	data16	leaq	_ZN4asio6detail15keyword_tss_ptrINS0_10call_stackINS0_15task_io_serviceENS0_27task_io_service_thread_infoEE7contextEE6value_E@tlsgd(%rip), %rdi
	.value	0x6666
	rex64
	call	__tls_get_addr@PLT
	movq	(%rax), %rax
	testq	%rax, %rax
	jne	.L532
	.p2align 4,,10
	.p2align 3
.L529:
	leaq	48(%rbp), %r13
	movq	%r13, %rdi
	call	pthread_mutex_lock@PLT
	movq	8(%rbx), %rax
	testq	%rax, %rax
	je	.L535
	movq	200(%rbp), %rdx
	testq	%rdx, %rdx
	je	.L536
	movq	%rax, (%rdx)
.L537:
	movq	16(%rbx), %rax
	pxor	%xmm0, %xmm0
	movq	%rax, 200(%rbp)
	movups	%xmm0, 8(%rbx)
.L535:
	movq	136(%rbp), %rax
	orq	$1, %rax
	movq	%rax, 136(%rbp)
	cmpq	$1, %rax
	je	.L538
	movq	%r13, %rdi
	call	pthread_mutex_unlock@PLT
	leaq	88(%rbp), %rdi
	call	pthread_cond_signal@PLT
.L542:
	movq	8(%rbx), %rsi
	testq	%rsi, %rsi
	je	.L526
	movq	%rsi, 8(%rsp)
	leaq	16(%rsp), %r12
	call	_ZNSt3_V215system_categoryEv@PLT
	movq	8(%rsp), %rsi
	movq	%rax, %rbp
	jmp	.L545
	.p2align 4,,10
	.p2align 3
.L543:
	movq	$0, (%rsi)
	movq	8(%rsi), %rax
	xorl	%ecx, %ecx
	movq	%r12, %rdx
	movl	$0, 16(%rsp)
	xorl	%edi, %edi
	movq	%rbp, 24(%rsp)
	call	*%rax
	movq	8(%rbx), %rsi
	testq	%rsi, %rsi
	je	.L526
.L545:
	movq	(%rsi), %rax
	movq	%rax, 8(%rbx)
	testq	%rax, %rax
	jne	.L543
	movq	$0, 16(%rbx)
	jmp	.L543
	.p2align 4,,10
	.p2align 3
.L530:
	movq	16(%rax), %rax
	testq	%rax, %rax
	je	.L529
.L532:
	cmpq	(%rax), %rbp
	jne	.L530
	movq	8(%rax), %rax
	testq	%rax, %rax
	je	.L529
	movq	16(%rax), %rdx
	testq	%rdx, %rdx
	je	.L533
	movq	%r12, (%rdx)
.L534:
	movq	16(%rbx), %rdx
	movq	%rdx, 16(%rax)
	.p2align 4,,10
	.p2align 3
.L526:
	movq	40(%rsp), %rax
	subq	%fs:40, %rax
	jne	.L572
	addq	$56, %rsp
	.cfi_remember_state
	.cfi_def_cfa_offset 40
	popq	%rbx
	.cfi_def_cfa_offset 32
	popq	%rbp
	.cfi_def_cfa_offset 24
	popq	%r12
	.cfi_def_cfa_offset 16
	popq	%r13
	.cfi_def_cfa_offset 8
	ret
	.p2align 4,,10
	.p2align 3
.L527:
	.cfi_restore_state
	movq	(%rdi), %rax
	movq	40(%rax), %rax
	lock addq	$1, 184(%rax)
	jmp	.L542
	.p2align 4,,10
	.p2align 3
.L538:
	cmpb	$0, 176(%rbp)
	jne	.L540
	movq	144(%rbp), %rax
	testq	%rax, %rax
	je	.L540
	movb	$1, 176(%rbp)
	leaq	88(%rax), %rdx
	leaq	16(%rsp), %r12
	movl	$3, %esi
	movq	%rdx, 20(%rsp)
	movl	88(%rax), %edx
	movq	%r12, %rcx
	movl	$-2147483639, 16(%rsp)
	movl	96(%rax), %edi
	call	epoll_ctl@PLT
.L540:
	movq	%r13, %rdi
	call	pthread_mutex_unlock@PLT
	jmp	.L542
.L536:
	movq	%rax, 192(%rbp)
	jmp	.L537
.L533:
	movq	%r12, 8(%rax)
	jmp	.L534
.L572:
	call	__stack_chk_fail@PLT
	.cfi_endproc
.LFE3338:
	.section	.gcc_except_table
.LLSDA3338:
	.byte	0xff
	.byte	0xff
	.byte	0x1
	.uleb128 .LLSDACSE3338-.LLSDACSB3338
.LLSDACSB3338:
.LLSDACSE3338:
	.section	.text._ZN4asio6detail13epoll_reactor32perform_io_cleanup_on_block_exitD2Ev,"axG",@progbits,_ZN4asio6detail13epoll_reactor32perform_io_cleanup_on_block_exitD5Ev,comdat
	.size	_ZN4asio6detail13epoll_reactor32perform_io_cleanup_on_block_exitD2Ev, .-_ZN4asio6detail13epoll_reactor32perform_io_cleanup_on_block_exitD2Ev
	.weak	_ZN4asio6detail13epoll_reactor32perform_io_cleanup_on_block_exitD1Ev
	.set	_ZN4asio6detail13epoll_reactor32perform_io_cleanup_on_block_exitD1Ev,_ZN4asio6detail13epoll_reactor32perform_io_cleanup_on_block_exitD2Ev
	.section	.text._ZN4asio6detail13epoll_reactor16descriptor_state11do_completeEPNS0_15task_io_serviceEPNS0_25task_io_service_operationERKSt10error_codem,"axG",@progbits,_ZN4asio6detail13epoll_reactor16descriptor_state11do_completeEPNS0_15task_io_serviceEPNS0_25task_io_service_operationERKSt10error_codem,comdat
	.align 2
	.p2align 4
	.weak	_ZN4asio6detail13epoll_reactor16descriptor_state11do_completeEPNS0_15task_io_serviceEPNS0_25task_io_service_operationERKSt10error_codem
	.type	_ZN4asio6detail13epoll_reactor16descriptor_state11do_completeEPNS0_15task_io_serviceEPNS0_25task_io_service_operationERKSt10error_codem, @function
_ZN4asio6detail13epoll_reactor16descriptor_state11do_completeEPNS0_15task_io_serviceEPNS0_25task_io_service_operationERKSt10error_codem:
.LFB3344:
	.cfi_startproc
	.cfi_personality 0x9b,DW.ref.__gxx_personality_v0
	.cfi_lsda 0x1b,.LLSDA3344
	endbr64
	pushq	%r15
	.cfi_def_cfa_offset 16
	.cfi_offset 15, -16
	pushq	%r14
	.cfi_def_cfa_offset 24
	.cfi_offset 14, -24
	pushq	%r13
	.cfi_def_cfa_offset 32
	.cfi_offset 13, -32
	pushq	%r12
	.cfi_def_cfa_offset 40
	.cfi_offset 12, -40
	pushq	%rbp
	.cfi_def_cfa_offset 48
	.cfi_offset 6, -48
	pushq	%rbx
	.cfi_def_cfa_offset 56
	.cfi_offset 3, -56
	subq	$104, %rsp
	.cfi_def_cfa_offset 160
	movq	%rdx, 16(%rsp)
	movq	%fs:40, %rax
	movq	%rax, 88(%rsp)
	xorl	%eax, %eax
	testq	%rdi, %rdi
	je	.L573
	leaq	40(%rsi), %r15
	movq	%rsi, %rbp
	movq	%rdi, %r14
	movl	%ecx, %r13d
	movq	%r15, %rdi
	subq	$-128, %rbp
	call	pthread_mutex_lock@PLT
	movq	-48(%rbp), %rax
	movq	_ZZN4asio6detail13epoll_reactor16descriptor_state10perform_ioEjE4flag@GOTPCREL(%rip), %r12
	movq	$0, 56(%rsp)
	movq	$0, 64(%rsp)
	movq	%rax, 24(%rsp)
	movq	%rax, 48(%rsp)
	leaq	-12(%r12), %rax
	movq	$0, 72(%rsp)
	movq	%rax, 8(%rsp)
.L583:
	movl	8(%r12), %eax
	orl	$24, %eax
	testl	%r13d, %eax
	jne	.L636
.L576:
	subq	$4, %r12
	subq	$16, %rbp
	cmpq	8(%rsp), %r12
	jne	.L583
	movq	56(%rsp), %rbp
	movq	%rbp, 72(%rsp)
	testq	%rbp, %rbp
	je	.L584
	movq	0(%rbp), %r12
	movq	%r12, 56(%rsp)
	testq	%r12, %r12
	je	.L637
	movq	$0, 0(%rbp)
	movq	%r15, %rdi
	call	pthread_mutex_unlock@PLT
	movq	24(%rsp), %rax
	movq	40(%rax), %rbx
	cmpb	$0, 40(%rbx)
	je	.L587
	data16	leaq	_ZN4asio6detail15keyword_tss_ptrINS0_10call_stackINS0_15task_io_serviceENS0_27task_io_service_thread_infoEE7contextEE6value_E@tlsgd(%rip), %rdi
	.value	0x6666
	rex64
	call	__tls_get_addr@PLT
	movq	(%rax), %rax
	testq	%rax, %rax
	jne	.L590
	jmp	.L587
	.p2align 4,,10
	.p2align 3
.L588:
	movq	16(%rax), %rax
	testq	%rax, %rax
	je	.L587
.L590:
	cmpq	(%rax), %rbx
	jne	.L588
	movq	8(%rax), %rax
	testq	%rax, %rax
	je	.L587
	movq	16(%rax), %rdx
	testq	%rdx, %rdx
	je	.L591
	movq	%r12, (%rdx)
.L592:
	movq	64(%rsp), %rdx
	movq	%rdx, 16(%rax)
	jmp	.L586
	.p2align 4,,10
	.p2align 3
.L584:
	movq	%r15, %rdi
	call	pthread_mutex_unlock@PLT
	movq	24(%rsp), %rax
	movq	40(%rax), %rax
	lock addq	$1, 184(%rax)
	movq	56(%rsp), %rsi
	testq	%rsi, %rsi
	movq	%rsi, 8(%rsp)
	je	.L573
	call	_ZNSt3_V215system_categoryEv@PLT
	movq	8(%rsp), %rsi
	leaq	32(%rsp), %r12
	movq	%rax, %rbp
	movq	(%rsi), %rbx
	movq	8(%rsi), %rax
	movq	%rbx, 56(%rsp)
	testq	%rbx, %rbx
	je	.L601
	.p2align 4,,10
	.p2align 3
.L602:
	movq	$0, (%rsi)
	xorl	%ecx, %ecx
	movq	%r12, %rdx
	xorl	%edi, %edi
	movl	$0, 32(%rsp)
	movq	%rbp, 40(%rsp)
	call	*%rax
	movq	%rbx, %rsi
	movq	(%rbx), %rbx
	movq	8(%rsi), %rax
	movq	%rbx, 56(%rsp)
	testq	%rbx, %rbx
	jne	.L602
.L601:
	movq	$0, (%rsi)
	xorl	%ecx, %ecx
	movq	%r12, %rdx
	xorl	%edi, %edi
	movl	$0, 32(%rsp)
	movq	%rbp, 40(%rsp)
	call	*%rax
.L573:
	movq	88(%rsp), %rax
	subq	%fs:40, %rax
	jne	.L635
	addq	$104, %rsp
	.cfi_remember_state
	.cfi_def_cfa_offset 56
	popq	%rbx
	.cfi_def_cfa_offset 48
	popq	%rbp
	.cfi_def_cfa_offset 40
	popq	%r12
	.cfi_def_cfa_offset 32
	popq	%r13
	.cfi_def_cfa_offset 24
	popq	%r14
	.cfi_def_cfa_offset 16
	popq	%r15
	.cfi_def_cfa_offset 8
	ret
	.p2align 4,,10
	.p2align 3
.L636:
	.cfi_restore_state
	movq	0(%rbp), %rbx
	testq	%rbx, %rbx
	jne	.L577
	jmp	.L576
	.p2align 4,,10
	.p2align 3
.L639:
	movq	(%rax), %rdx
	movq	%rdx, 0(%rbp)
	testq	%rdx, %rdx
	je	.L638
	movq	$0, (%rax)
	movq	64(%rsp), %rax
	movq	$0, (%rbx)
	testq	%rax, %rax
	je	.L581
	movq	%rbx, (%rax)
	movq	%rbx, 64(%rsp)
.L582:
	movq	%rdx, %rbx
.L577:
	movq	%rbx, %rdi
.LEHB11:
	call	*48(%rbx)
.LEHE11:
	testb	%al, %al
	je	.L576
	movq	0(%rbp), %rax
	testq	%rax, %rax
	jne	.L639
	movq	64(%rsp), %rax
	movq	$0, (%rbx)
	testq	%rax, %rax
	jne	.L605
.L580:
	movq	%rbx, 56(%rsp)
	movq	%rbx, 64(%rsp)
	jmp	.L576
	.p2align 4,,10
	.p2align 3
.L638:
	movq	$0, 8(%rbp)
	movq	$0, (%rax)
	movq	64(%rsp), %rax
	movq	$0, (%rbx)
	testq	%rax, %rax
	je	.L580
.L605:
	movq	%rbx, (%rax)
	movq	%rbx, 64(%rsp)
	jmp	.L576
	.p2align 4,,10
	.p2align 3
.L587:
	leaq	48(%rbx), %r13
	movq	%r13, %rdi
	call	pthread_mutex_lock@PLT
	movq	200(%rbx), %rax
	testq	%rax, %rax
	je	.L593
	movq	%r12, (%rax)
.L594:
	movq	64(%rsp), %rax
	pxor	%xmm0, %xmm0
	movups	%xmm0, 56(%rsp)
	movq	%rax, 200(%rbx)
	movq	136(%rbx), %rax
	orq	$1, %rax
	movq	%rax, 136(%rbx)
	cmpq	$1, %rax
	je	.L595
	movq	%r13, %rdi
	call	pthread_mutex_unlock@PLT
	leaq	88(%rbx), %rdi
	call	pthread_cond_signal@PLT
	.p2align 4,,10
	.p2align 3
.L586:
	movq	88(%rsp), %rax
	subq	%fs:40, %rax
	jne	.L635
	movq	8(%rbp), %rax
	movq	16(%rsp), %rdx
	addq	$104, %rsp
	.cfi_remember_state
	.cfi_def_cfa_offset 56
	movq	%rbp, %rsi
	popq	%rbx
	.cfi_def_cfa_offset 48
	movq	%r14, %rdi
	popq	%rbp
	.cfi_def_cfa_offset 40
	xorl	%ecx, %ecx
	popq	%r12
	.cfi_def_cfa_offset 32
	popq	%r13
	.cfi_def_cfa_offset 24
	popq	%r14
	.cfi_def_cfa_offset 16
	popq	%r15
	.cfi_def_cfa_offset 8
.LEHB12:
	jmp	*%rax
	.p2align 4,,10
	.p2align 3
.L637:
	.cfi_restore_state
	movq	%r15, %rdi
	call	pthread_mutex_unlock@PLT
	jmp	.L586
	.p2align 4,,10
	.p2align 3
.L581:
	movq	%rbx, 56(%rsp)
	movq	%rbx, 64(%rsp)
	jmp	.L582
	.p2align 4,,10
	.p2align 3
.L595:
	cmpb	$0, 176(%rbx)
	jne	.L597
	movq	144(%rbx), %rax
	testq	%rax, %rax
	je	.L597
	movb	$1, 176(%rbx)
	leaq	88(%rax), %rdx
	leaq	32(%rsp), %rcx
	movl	$3, %esi
	movq	%rdx, 36(%rsp)
	movl	88(%rax), %edx
	movl	$-2147483639, 32(%rsp)
	movl	96(%rax), %edi
	call	epoll_ctl@PLT
.L597:
	movq	%r13, %rdi
	call	pthread_mutex_unlock@PLT
	jmp	.L586
.L591:
	movq	%r12, 8(%rax)
	jmp	.L592
.L593:
	movq	%r12, 192(%rbx)
	jmp	.L594
.L635:
	call	__stack_chk_fail@PLT
.L607:
	endbr64
	movq	%rax, %rbp
.L599:
	movq	%r15, %rdi
	call	pthread_mutex_unlock@PLT
	leaq	48(%rsp), %rdi
	call	_ZN4asio6detail13epoll_reactor32perform_io_cleanup_on_block_exitD1Ev@PLT
	movq	%rbp, %rdi
	call	_Unwind_Resume@PLT
.LEHE12:
	.cfi_endproc
.LFE3344:
	.section	.gcc_except_table
.LLSDA3344:
	.byte	0xff
	.byte	0xff
	.byte	0x1
	.uleb128 .LLSDACSE3344-.LLSDACSB3344
.LLSDACSB3344:
	.uleb128 .LEHB11-.LFB3344
	.uleb128 .LEHE11-.LEHB11
	.uleb128 .L607-.LFB3344
	.uleb128 0
	.uleb128 .LEHB12-.LFB3344
	.uleb128 .LEHE12-.LEHB12
	.uleb128 0
	.uleb128 0
.LLSDACSE3344:
	.section	.text._ZN4asio6detail13epoll_reactor16descriptor_state11do_completeEPNS0_15task_io_serviceEPNS0_25task_io_service_operationERKSt10error_codem,"axG",@progbits,_ZN4asio6detail13epoll_reactor16descriptor_state11do_completeEPNS0_15task_io_serviceEPNS0_25task_io_service_operationERKSt10error_codem,comdat
	.size	_ZN4asio6detail13epoll_reactor16descriptor_state11do_completeEPNS0_15task_io_serviceEPNS0_25task_io_service_operationERKSt10error_codem, .-_ZN4asio6detail13epoll_reactor16descriptor_state11do_completeEPNS0_15task_io_serviceEPNS0_25task_io_service_operationERKSt10error_codem
	.section	.text._ZN4asio6detail13socket_holderD2Ev,"axG",@progbits,_ZN4asio6detail13socket_holderD5Ev,comdat
	.align 2
	.p2align 4
	.weak	_ZN4asio6detail13socket_holderD2Ev
	.type	_ZN4asio6detail13socket_holderD2Ev, @function
_ZN4asio6detail13socket_holderD2Ev:
.LFB3793:
	.cfi_startproc
	.cfi_personality 0x9b,DW.ref.__gxx_personality_v0
	.cfi_lsda 0x1b,.LLSDA3793
	endbr64
	pushq	%r14
	.cfi_def_cfa_offset 16
	.cfi_offset 14, -16
	pushq	%r13
	.cfi_def_cfa_offset 24
	.cfi_offset 13, -24
	pushq	%r12
	.cfi_def_cfa_offset 32
	.cfi_offset 12, -32
	pushq	%rbp
	.cfi_def_cfa_offset 40
	.cfi_offset 6, -40
	pushq	%rbx
	.cfi_def_cfa_offset 48
	.cfi_offset 3, -48
	subq	$16, %rsp
	.cfi_def_cfa_offset 64
	movl	(%rdi), %ebp
	movq	%fs:40, %rax
	movq	%rax, 8(%rsp)
	xorl	%eax, %eax
	cmpl	$-1, %ebp
	jne	.L674
.L640:
	movq	8(%rsp), %rax
	subq	%fs:40, %rax
	jne	.L673
	addq	$16, %rsp
	.cfi_remember_state
	.cfi_def_cfa_offset 48
	popq	%rbx
	.cfi_def_cfa_offset 40
	popq	%rbp
	.cfi_def_cfa_offset 32
	popq	%r12
	.cfi_def_cfa_offset 24
	popq	%r13
	.cfi_def_cfa_offset 16
	popq	%r14
	.cfi_def_cfa_offset 8
	ret
	.p2align 4,,10
	.p2align 3
.L674:
	.cfi_restore_state
	call	__errno_location@PLT
	movl	%ebp, %edi
	movl	$0, (%rax)
	movq	%rax, %rbx
	call	close@PLT
	movq	_ZGVZN4asio15system_categoryEvE8instance@GOTPCREL(%rip), %r13
	movl	%eax, %r12d
	movzbl	0(%r13), %eax
	testb	%al, %al
	je	.L675
.L643:
	movl	(%rbx), %r14d
	testl	%r12d, %r12d
	je	.L640
	movzbl	0(%r13), %eax
	testb	%al, %al
	je	.L676
.L648:
	cmpl	$11, %r14d
	je	.L650
	movzbl	0(%r13), %eax
	testb	%al, %al
	jne	.L640
	movq	%r13, %rdi
	call	__cxa_guard_acquire@PLT
	testl	%eax, %eax
	je	.L640
	movq	_ZZN4asio15system_categoryEvE8instance@GOTPCREL(%rip), %rsi
	movq	_ZN4asio6detail15system_categoryD1Ev@GOTPCREL(%rip), %rdi
	leaq	__dso_handle(%rip), %rdx
	call	__cxa_atexit@PLT
	movq	8(%rsp), %rax
	subq	%fs:40, %rax
	jne	.L673
	addq	$16, %rsp
	.cfi_remember_state
	.cfi_def_cfa_offset 48
	movq	%r13, %rdi
	popq	%rbx
	.cfi_def_cfa_offset 40
	popq	%rbp
	.cfi_def_cfa_offset 32
	popq	%r12
	.cfi_def_cfa_offset 24
	popq	%r13
	.cfi_def_cfa_offset 16
	popq	%r14
	.cfi_def_cfa_offset 8
	jmp	__cxa_guard_release@PLT
	.p2align 4,,10
	.p2align 3
.L675:
	.cfi_restore_state
	movq	%r13, %rdi
	call	__cxa_guard_acquire@PLT
	testl	%eax, %eax
	je	.L643
	movq	_ZZN4asio15system_categoryEvE8instance@GOTPCREL(%rip), %rsi
	movq	_ZN4asio6detail15system_categoryD1Ev@GOTPCREL(%rip), %rdi
	leaq	__dso_handle(%rip), %rdx
	call	__cxa_atexit@PLT
	movq	%r13, %rdi
	call	__cxa_guard_release@PLT
	jmp	.L643
	.p2align 4,,10
	.p2align 3
.L676:
	movq	%r13, %rdi
	call	__cxa_guard_acquire@PLT
	testl	%eax, %eax
	je	.L648
	movq	_ZZN4asio15system_categoryEvE8instance@GOTPCREL(%rip), %rsi
	movq	_ZN4asio6detail15system_categoryD1Ev@GOTPCREL(%rip), %rdi
	leaq	__dso_handle(%rip), %rdx
	call	__cxa_atexit@PLT
	movq	%r13, %rdi
	call	__cxa_guard_release@PLT
	jmp	.L648
	.p2align 4,,10
	.p2align 3
.L650:
	leaq	4(%rsp), %rdx
	movl	$21537, %esi
	movl	%ebp, %edi
	xorl	%eax, %eax
	movl	$0, 4(%rsp)
	call	ioctl@PLT
	movl	$0, (%rbx)
	movl	%ebp, %edi
	call	close@PLT
	movzbl	0(%r13), %eax
	testb	%al, %al
	jne	.L640
	movq	%r13, %rdi
	call	__cxa_guard_acquire@PLT
	testl	%eax, %eax
	je	.L640
	movq	_ZZN4asio15system_categoryEvE8instance@GOTPCREL(%rip), %rsi
	movq	_ZN4asio6detail15system_categoryD1Ev@GOTPCREL(%rip), %rdi
	leaq	__dso_handle(%rip), %rdx
	call	__cxa_atexit@PLT
	movq	%r13, %rdi
	call	__cxa_guard_release@PLT
	jmp	.L640
.L673:
	call	__stack_chk_fail@PLT
	.cfi_endproc
.LFE3793:
	.section	.gcc_except_table
.LLSDA3793:
	.byte	0xff
	.byte	0xff
	.byte	0x1
	.uleb128 .LLSDACSE3793-.LLSDACSB3793
.LLSDACSB3793:
.LLSDACSE3793:
	.section	.text._ZN4asio6detail13socket_holderD2Ev,"axG",@progbits,_ZN4asio6detail13socket_holderD5Ev,comdat
	.size	_ZN4asio6detail13socket_holderD2Ev, .-_ZN4asio6detail13socket_holderD2Ev
	.weak	_ZN4asio6detail13socket_holderD1Ev
	.set	_ZN4asio6detail13socket_holderD1Ev,_ZN4asio6detail13socket_holderD2Ev
	.section	.text._ZN4asio6detail28reactive_socket_service_base7destroyERNS1_24base_implementation_typeE,"axG",@progbits,_ZN4asio6detail28reactive_socket_service_base7destroyERNS1_24base_implementation_typeE,comdat
	.align 2
	.p2align 4
	.weak	_ZN4asio6detail28reactive_socket_service_base7destroyERNS1_24base_implementation_typeE
	.type	_ZN4asio6detail28reactive_socket_service_base7destroyERNS1_24base_implementation_typeE, @function
_ZN4asio6detail28reactive_socket_service_base7destroyERNS1_24base_implementation_typeE:
.LFB3876:
	.cfi_startproc
	endbr64
	pushq	%r15
	.cfi_def_cfa_offset 16
	.cfi_offset 15, -16
	pushq	%r14
	.cfi_def_cfa_offset 24
	.cfi_offset 14, -24
	pushq	%r13
	.cfi_def_cfa_offset 32
	.cfi_offset 13, -32
	pushq	%r12
	.cfi_def_cfa_offset 40
	.cfi_offset 12, -40
	pushq	%rbp
	.cfi_def_cfa_offset 48
	.cfi_offset 6, -48
	pushq	%rbx
	.cfi_def_cfa_offset 56
	.cfi_offset 3, -56
	subq	$72, %rsp
	.cfi_def_cfa_offset 128
	movl	(%rsi), %r12d
	movq	%fs:40, %rax
	movq	%rax, 56(%rsp)
	xorl	%eax, %eax
	cmpl	$-1, %r12d
	jne	.L783
.L677:
	movq	56(%rsp), %rax
	subq	%fs:40, %rax
	jne	.L782
	addq	$72, %rsp
	.cfi_remember_state
	.cfi_def_cfa_offset 56
	popq	%rbx
	.cfi_def_cfa_offset 48
	popq	%rbp
	.cfi_def_cfa_offset 40
	popq	%r12
	.cfi_def_cfa_offset 32
	popq	%r13
	.cfi_def_cfa_offset 24
	popq	%r14
	.cfi_def_cfa_offset 16
	popq	%r15
	.cfi_def_cfa_offset 8
	ret
	.p2align 4,,10
	.p2align 3
.L783:
	.cfi_restore_state
	movq	8(%rsi), %rbp
	movq	%rsi, %r15
	testq	%rbp, %rbp
	je	.L708
	movq	(%rdi), %rax
	movzbl	4(%rsi), %ebx
	movq	%rax, 16(%rsp)
	leaq	40(%rbp), %rax
	movq	%rax, %rdi
	movq	%rax, 24(%rsp)
	call	pthread_mutex_lock@PLT
	movq	8(%r15), %rdi
	cmpb	$0, 144(%rdi)
	jne	.L680
	andl	$64, %ebx
	jne	.L784
.L681:
	movq	$0, 8(%rsp)
	xorl	%ebp, %ebp
	movl	$0, 4(%rsp)
.L682:
	movslq	4(%rsp), %r12
	movq	%r12, %rax
	salq	$4, %rax
	movq	96(%rax,%rdi), %rbx
	testq	%rbx, %rbx
	je	.L729
	movq	_ZGVZN4asio15system_categoryEvE8instance@GOTPCREL(%rip), %r14
	movq	_ZZN4asio15system_categoryEvE8instance@GOTPCREL(%rip), %r13
	movzbl	(%r14), %eax
	testb	%al, %al
	je	.L785
	.p2align 4,,10
	.p2align 3
.L684:
	movq	8(%r15), %rdi
	movq	%r12, %rax
	movl	$125, 24(%rbx)
	salq	$4, %rax
	movq	%r13, 32(%rbx)
	addq	%rdi, %rax
	movq	96(%rax), %rdx
	testq	%rdx, %rdx
	je	.L686
	movq	(%rdx), %r11
	movq	%r11, 96(%rax)
	testq	%r11, %r11
	je	.L786
	movq	$0, (%rdx)
	movq	$0, (%rbx)
	testq	%rbp, %rbp
	je	.L787
.L726:
	movq	%rbx, 0(%rbp)
	testq	%r11, %r11
	je	.L688
.L689:
	movzbl	(%r14), %eax
	movq	%rbx, %rbp
	movq	%r11, %rbx
	testb	%al, %al
	jne	.L684
.L785:
	movq	%r14, %rdi
	call	__cxa_guard_acquire@PLT
	testl	%eax, %eax
	je	.L684
	movq	_ZN4asio6detail15system_categoryD1Ev@GOTPCREL(%rip), %rdi
	leaq	__dso_handle(%rip), %rdx
	movq	%r13, %rsi
	call	__cxa_atexit@PLT
	movq	%r14, %rdi
	call	__cxa_guard_release@PLT
	jmp	.L684
	.p2align 4,,10
	.p2align 3
.L680:
	movq	24(%rsp), %rdi
	call	pthread_mutex_unlock@PLT
.L781:
	movl	(%r15), %r12d
	cmpl	$-1, %r12d
	je	.L677
.L708:
	call	__errno_location@PLT
	movzbl	4(%r15), %ebp
	movq	%rax, %rbx
	testb	$8, %bpl
	jne	.L779
	movq	_ZGVZN4asio15system_categoryEvE8instance@GOTPCREL(%rip), %r14
.L710:
	movl	$0, (%rbx)
	movl	%r12d, %edi
	call	close@PLT
	movl	%eax, %ebp
	movzbl	(%r14), %eax
	testb	%al, %al
	je	.L788
.L715:
	movl	(%rbx), %r13d
	testl	%ebp, %ebp
	je	.L677
	movzbl	(%r14), %eax
	testb	%al, %al
	je	.L789
.L719:
	cmpl	$11, %r13d
	je	.L721
	movzbl	(%r14), %eax
	testb	%al, %al
	jne	.L677
	movq	%r14, %rdi
	call	__cxa_guard_acquire@PLT
	testl	%eax, %eax
	je	.L677
	movq	_ZZN4asio15system_categoryEvE8instance@GOTPCREL(%rip), %rsi
	movq	_ZN4asio6detail15system_categoryD1Ev@GOTPCREL(%rip), %rdi
	leaq	__dso_handle(%rip), %rdx
	call	__cxa_atexit@PLT
	movq	56(%rsp), %rax
	subq	%fs:40, %rax
	jne	.L782
	addq	$72, %rsp
	.cfi_remember_state
	.cfi_def_cfa_offset 56
	movq	%r14, %rdi
	popq	%rbx
	.cfi_def_cfa_offset 48
	popq	%rbp
	.cfi_def_cfa_offset 40
	popq	%r12
	.cfi_def_cfa_offset 32
	popq	%r13
	.cfi_def_cfa_offset 24
	popq	%r14
	.cfi_def_cfa_offset 16
	popq	%r15
	.cfi_def_cfa_offset 8
	jmp	__cxa_guard_release@PLT
	.p2align 4,,10
	.p2align 3
.L686:
	.cfi_restore_state
	movq	$0, (%rbx)
	testq	%rbp, %rbp
	je	.L730
	movq	%rbx, 0(%rbp)
.L688:
	addl	$1, 4(%rsp)
	movl	4(%rsp), %eax
	cmpl	$3, %eax
	je	.L690
.L790:
	movq	%rbx, %rbp
	jmp	.L682
	.p2align 4,,10
	.p2align 3
.L786:
	movq	$0, 104(%rax)
	movq	$0, (%rdx)
	movq	$0, (%rbx)
	testq	%rbp, %rbp
	jne	.L726
	.p2align 4,,10
	.p2align 3
.L730:
	addl	$1, 4(%rsp)
	movl	4(%rsp), %eax
	movq	%rbx, 8(%rsp)
	cmpl	$3, %eax
	jne	.L790
.L690:
	movl	$-1, 88(%rdi)
	movb	$1, 144(%rdi)
	movq	24(%rsp), %rdi
	call	pthread_mutex_unlock@PLT
	movq	16(%rsp), %r14
	movq	8(%r15), %rbp
	leaq	120(%r14), %r12
	movq	%r12, %rdi
	call	pthread_mutex_lock@PLT
	cmpq	160(%r14), %rbp
	je	.L791
.L692:
	movq	32(%rbp), %rax
	testq	%rax, %rax
	je	.L693
	movq	24(%rbp), %rdx
	movq	%rdx, 24(%rax)
.L693:
	movq	24(%rbp), %rax
	testq	%rax, %rax
	je	.L694
	movq	32(%rbp), %rdx
	movq	%rdx, 32(%rax)
.L694:
	movq	16(%rsp), %r14
	movq	%r12, %rdi
	movq	168(%r14), %rax
	movq	$0, 32(%rbp)
	movq	%rax, 24(%rbp)
	movq	%rbp, 168(%r14)
	call	pthread_mutex_unlock@PLT
	cmpq	$0, 8(%rsp)
	movq	$0, 8(%r15)
	je	.L781
	movq	40(%r14), %rbp
	cmpb	$0, 40(%rbp)
	je	.L696
	data16	leaq	_ZN4asio6detail15keyword_tss_ptrINS0_10call_stackINS0_15task_io_serviceENS0_27task_io_service_thread_infoEE7contextEE6value_E@tlsgd(%rip), %rdi
	.value	0x6666
	rex64
	call	__tls_get_addr@PLT
	movq	(%rax), %rax
	testq	%rax, %rax
	jne	.L699
	jmp	.L696
	.p2align 4,,10
	.p2align 3
.L697:
	movq	16(%rax), %rax
	testq	%rax, %rax
	je	.L696
.L699:
	cmpq	(%rax), %rbp
	jne	.L697
	movq	8(%rax), %rax
	testq	%rax, %rax
	je	.L696
	movq	16(%rax), %rdx
	movq	8(%rsp), %rcx
	testq	%rdx, %rdx
	je	.L700
	movq	%rcx, (%rdx)
.L701:
	movq	%rbx, 16(%rax)
	jmp	.L781
	.p2align 4,,10
	.p2align 3
.L787:
	movq	%rbx, 8(%rsp)
	jmp	.L689
	.p2align 4,,10
	.p2align 3
.L788:
	movq	%r14, %rdi
	call	__cxa_guard_acquire@PLT
	testl	%eax, %eax
	je	.L715
	movq	_ZZN4asio15system_categoryEvE8instance@GOTPCREL(%rip), %rsi
	movq	_ZN4asio6detail15system_categoryD1Ev@GOTPCREL(%rip), %rdi
	leaq	__dso_handle(%rip), %rdx
	call	__cxa_atexit@PLT
	movq	%r14, %rdi
	call	__cxa_guard_release@PLT
	jmp	.L715
	.p2align 4,,10
	.p2align 3
.L779:
	orl	$8, %ebp
	leaq	40(%rsp), %rcx
	movl	$13, %edx
	movl	%r12d, %edi
	movb	%bpl, 4(%r15)
	movl	$8, %r8d
	movl	$1, %esi
	movl	$0, (%rax)
	movq	$0, 40(%rsp)
	call	setsockopt@PLT
	movq	_ZGVZN4asio15system_categoryEvE8instance@GOTPCREL(%rip), %r14
	movzbl	(%r14), %eax
	testb	%al, %al
	jne	.L710
	movq	%r14, %rdi
	call	__cxa_guard_acquire@PLT
	testl	%eax, %eax
	je	.L710
	movq	_ZZN4asio15system_categoryEvE8instance@GOTPCREL(%rip), %rsi
	movq	_ZN4asio6detail15system_categoryD1Ev@GOTPCREL(%rip), %rdi
	leaq	__dso_handle(%rip), %rdx
	call	__cxa_atexit@PLT
	movq	%r14, %rdi
	call	__cxa_guard_release@PLT
	jmp	.L710
	.p2align 4,,10
	.p2align 3
.L696:
	leaq	48(%rbp), %r12
	movq	%r12, %rdi
	call	pthread_mutex_lock@PLT
	movq	200(%rbp), %rax
	testq	%rax, %rax
	je	.L703
	movq	8(%rsp), %rcx
	movq	%rcx, (%rax)
.L704:
	movq	136(%rbp), %rax
	movq	%rbx, 200(%rbp)
	orq	$1, %rax
	movq	%rax, 136(%rbp)
	cmpq	$1, %rax
	je	.L705
	movq	%r12, %rdi
	call	pthread_mutex_unlock@PLT
	leaq	88(%rbp), %rdi
	call	pthread_cond_signal@PLT
	jmp	.L781
.L705:
	cmpb	$0, 176(%rbp)
	jne	.L707
	movq	144(%rbp), %rax
	testq	%rax, %rax
	je	.L707
	movb	$1, 176(%rbp)
	leaq	88(%rax), %rdx
	leaq	40(%rsp), %rcx
	movl	$3, %esi
	movq	%rdx, 44(%rsp)
	movl	88(%rax), %edx
	movl	$-2147483639, 40(%rsp)
	movl	96(%rax), %edi
	call	epoll_ctl@PLT
.L707:
	movq	%r12, %rdi
	call	pthread_mutex_unlock@PLT
	jmp	.L781
	.p2align 4,,10
	.p2align 3
.L729:
	movq	%rbp, %rbx
	jmp	.L688
	.p2align 4,,10
	.p2align 3
.L784:
	movq	16(%rsp), %rax
	movl	$0, 40(%rsp)
	leaq	40(%rsp), %rcx
	movl	%r12d, %edx
	movq	$0, 44(%rsp)
	movl	$2, %esi
	movl	96(%rax), %edi
	call	epoll_ctl@PLT
	movq	8(%r15), %rdi
	jmp	.L681
	.p2align 4,,10
	.p2align 3
.L791:
	movq	24(%rbp), %rax
	movq	16(%rsp), %rcx
	movq	%rax, 160(%rcx)
	jmp	.L692
.L789:
	movq	%r14, %rdi
	call	__cxa_guard_acquire@PLT
	testl	%eax, %eax
	je	.L719
	movq	_ZZN4asio15system_categoryEvE8instance@GOTPCREL(%rip), %rsi
	movq	_ZN4asio6detail15system_categoryD1Ev@GOTPCREL(%rip), %rdi
	leaq	__dso_handle(%rip), %rdx
	call	__cxa_atexit@PLT
	movq	%r14, %rdi
	call	__cxa_guard_release@PLT
	jmp	.L719
.L721:
	leaq	40(%rsp), %rdx
	movl	$21537, %esi
	movl	%r12d, %edi
	xorl	%eax, %eax
	movl	$0, 40(%rsp)
	call	ioctl@PLT
	andb	$-4, 4(%r15)
	movl	%r12d, %edi
	movl	$0, (%rbx)
	call	close@PLT
	movzbl	(%r14), %eax
	testb	%al, %al
	jne	.L677
	movq	%r14, %rdi
	call	__cxa_guard_acquire@PLT
	testl	%eax, %eax
	je	.L677
	movq	_ZZN4asio15system_categoryEvE8instance@GOTPCREL(%rip), %rsi
	movq	_ZN4asio6detail15system_categoryD1Ev@GOTPCREL(%rip), %rdi
	leaq	__dso_handle(%rip), %rdx
	call	__cxa_atexit@PLT
	movq	%r14, %rdi
	call	__cxa_guard_release@PLT
	jmp	.L677
.L703:
	movq	8(%rsp), %rax
	movq	%rax, 192(%rbp)
	jmp	.L704
.L700:
	movq	%rcx, 8(%rax)
	jmp	.L701
.L782:
	call	__stack_chk_fail@PLT
	.cfi_endproc
.LFE3876:
	.size	_ZN4asio6detail28reactive_socket_service_base7destroyERNS1_24base_implementation_typeE, .-_ZN4asio6detail28reactive_socket_service_base7destroyERNS1_24base_implementation_typeE
	.section	.text._ZN4asio6detail14strand_service16on_dispatch_exitD2Ev,"axG",@progbits,_ZN4asio6detail14strand_service16on_dispatch_exitD5Ev,comdat
	.align 2
	.p2align 4
	.weak	_ZN4asio6detail14strand_service16on_dispatch_exitD2Ev
	.type	_ZN4asio6detail14strand_service16on_dispatch_exitD2Ev, @function
_ZN4asio6detail14strand_service16on_dispatch_exitD2Ev:
.LFB6419:
	.cfi_startproc
	endbr64
	pushq	%r12
	.cfi_def_cfa_offset 16
	.cfi_offset 12, -16
	pushq	%rbp
	.cfi_def_cfa_offset 24
	.cfi_offset 6, -24
	pushq	%rbx
	.cfi_def_cfa_offset 32
	.cfi_offset 3, -32
	movq	%rdi, %rbx
	subq	$48, %rsp
	.cfi_def_cfa_offset 80
	movq	%fs:40, %rax
	movq	%rax, 40(%rsp)
	movq	8(%rdi), %rax
	leaq	24(%rax), %rdi
	call	pthread_mutex_lock@PLT
	movq	8(%rbx), %rdi
	movq	72(%rdi), %rbp
	testq	%rbp, %rbp
	je	.L823
	movq	96(%rdi), %rax
	testq	%rax, %rax
	je	.L795
	movq	%rbp, (%rax)
	movq	88(%rdi), %rbp
.L796:
	movq	80(%rdi), %rax
	pxor	%xmm0, %xmm0
	movups	%xmm0, 72(%rdi)
	movq	%rax, 96(%rdi)
.L794:
	testq	%rbp, %rbp
	setne	64(%rdi)
	addq	$24, %rdi
	call	pthread_mutex_unlock@PLT
	testq	%rbp, %rbp
	jne	.L824
.L792:
	movq	40(%rsp), %rax
	subq	%fs:40, %rax
	jne	.L822
	addq	$48, %rsp
	.cfi_remember_state
	.cfi_def_cfa_offset 32
	popq	%rbx
	.cfi_def_cfa_offset 24
	popq	%rbp
	.cfi_def_cfa_offset 16
	popq	%r12
	.cfi_def_cfa_offset 8
	ret
	.p2align 4,,10
	.p2align 3
.L795:
	.cfi_restore_state
	movq	%rbp, 88(%rdi)
	jmp	.L796
	.p2align 4,,10
	.p2align 3
.L824:
	movdqu	(%rbx), %xmm0
	movq	(%rbx), %rbp
	movdqa	%xmm0, %xmm1
	movhlps	%xmm0, %xmm2
	cmpb	$0, 40(%rbp)
	punpckhqdq	%xmm0, %xmm1
	movq	%xmm2, %rbx
	movaps	%xmm1, (%rsp)
	je	.L798
	data16	leaq	_ZN4asio6detail15keyword_tss_ptrINS0_10call_stackINS0_15task_io_serviceENS0_27task_io_service_thread_infoEE7contextEE6value_E@tlsgd(%rip), %rdi
	.value	0x6666
	rex64
	call	__tls_get_addr@PLT
	movq	(%rax), %rax
	testq	%rax, %rax
	jne	.L801
	jmp	.L798
	.p2align 4,,10
	.p2align 3
.L799:
	movq	16(%rax), %rax
	testq	%rax, %rax
	je	.L798
.L801:
	cmpq	(%rax), %rbp
	jne	.L799
	movq	8(%rax), %rax
	testq	%rax, %rax
	je	.L798
	addq	$1, 24(%rax)
	movq	$0, (%rbx)
	movq	16(%rax), %rdx
	testq	%rdx, %rdx
	je	.L802
	movq	%rbx, (%rdx)
	movq	%rbx, 16(%rax)
	jmp	.L792
	.p2align 4,,10
	.p2align 3
.L798:
	lock addq	$1, 184(%rbp)
	leaq	48(%rbp), %r12
	movq	%r12, %rdi
	call	pthread_mutex_lock@PLT
	cmpq	$0, 200(%rbp)
	movq	$0, (%rbx)
	je	.L803
	movq	200(%rbp), %rax
	movq	%rbx, (%rax)
	movq	%rbx, 200(%rbp)
.L804:
	movq	136(%rbp), %rax
	orq	$1, %rax
	movq	%rax, 136(%rbp)
	cmpq	$1, %rax
	je	.L805
	movq	%r12, %rdi
	call	pthread_mutex_unlock@PLT
	movq	40(%rsp), %rax
	subq	%fs:40, %rax
	jne	.L822
	addq	$48, %rsp
	.cfi_remember_state
	.cfi_def_cfa_offset 32
	leaq	88(%rbp), %rdi
	popq	%rbx
	.cfi_def_cfa_offset 24
	popq	%rbp
	.cfi_def_cfa_offset 16
	popq	%r12
	.cfi_def_cfa_offset 8
	jmp	pthread_cond_signal@PLT
	.p2align 4,,10
	.p2align 3
.L823:
	.cfi_restore_state
	movq	88(%rdi), %rbp
	jmp	.L794
	.p2align 4,,10
	.p2align 3
.L803:
	movdqa	(%rsp), %xmm3
	movups	%xmm3, 192(%rbp)
	jmp	.L804
	.p2align 4,,10
	.p2align 3
.L805:
	cmpb	$0, 176(%rbp)
	jne	.L807
	movq	144(%rbp), %rax
	testq	%rax, %rax
	je	.L807
	leaq	88(%rax), %rdx
	movb	$1, 176(%rbp)
	movl	96(%rax), %edi
	leaq	28(%rsp), %rcx
	movq	%rdx, 32(%rsp)
	movl	88(%rax), %edx
	movl	$3, %esi
	movl	$-2147483639, 28(%rsp)
	call	epoll_ctl@PLT
.L807:
	movq	40(%rsp), %rax
	subq	%fs:40, %rax
	jne	.L822
	addq	$48, %rsp
	.cfi_remember_state
	.cfi_def_cfa_offset 32
	movq	%r12, %rdi
	popq	%rbx
	.cfi_def_cfa_offset 24
	popq	%rbp
	.cfi_def_cfa_offset 16
	popq	%r12
	.cfi_def_cfa_offset 8
	jmp	pthread_mutex_unlock@PLT
	.p2align 4,,10
	.p2align 3
.L802:
	.cfi_restore_state
	movdqa	(%rsp), %xmm4
	movups	%xmm4, 8(%rax)
	jmp	.L792
.L822:
	call	__stack_chk_fail@PLT
	.cfi_endproc
.LFE6419:
	.size	_ZN4asio6detail14strand_service16on_dispatch_exitD2Ev, .-_ZN4asio6detail14strand_service16on_dispatch_exitD2Ev
	.weak	_ZN4asio6detail14strand_service16on_dispatch_exitD1Ev
	.set	_ZN4asio6detail14strand_service16on_dispatch_exitD1Ev,_ZN4asio6detail14strand_service16on_dispatch_exitD2Ev
	.section	.text.unlikely._ZN4asio6detail15throw_exceptionISt12system_errorEEvRKT_,"axG",@progbits,_ZN4asio6detail15throw_exceptionISt12system_errorEEvRKT_,comdat
	.weak	_ZN4asio6detail15throw_exceptionISt12system_errorEEvRKT_
	.type	_ZN4asio6detail15throw_exceptionISt12system_errorEEvRKT_, @function
_ZN4asio6detail15throw_exceptionISt12system_errorEEvRKT_:
.LFB7355:
	.cfi_startproc
	endbr64
	pushq	%rbp
	.cfi_def_cfa_offset 16
	.cfi_offset 6, -16
	pushq	%rbx
	.cfi_def_cfa_offset 24
	.cfi_offset 3, -24
	movq	%rdi, %rbx
	movl	$32, %edi
	pushq	%rax
	.cfi_def_cfa_offset 32
	call	__cxa_allocate_exception@PLT
	movq	%rbx, %rsi
	movq	%rax, %rdi
	movq	%rax, %rbp
	call	_ZNSt13runtime_errorC2ERKS_@PLT
	movq	_ZTVSt12system_error@GOTPCREL(%rip), %rax
	movups	16(%rbx), %xmm0
	movq	%rbp, %rdi
	movq	_ZNSt12system_errorD1Ev@GOTPCREL(%rip), %rdx
	movq	_ZTISt12system_error@GOTPCREL(%rip), %rsi
	addq	$16, %rax
	movups	%xmm0, 16(%rbp)
	movq	%rax, 0(%rbp)
	call	__cxa_throw@PLT
	.cfi_endproc
.LFE7355:
	.size	_ZN4asio6detail15throw_exceptionISt12system_errorEEvRKT_, .-_ZN4asio6detail15throw_exceptionISt12system_errorEEvRKT_
	.section	.text._ZN4asio6detail14do_throw_errorERKSt10error_code,"axG",@progbits,_ZN4asio6detail14do_throw_errorERKSt10error_code,comdat
	.p2align 4
	.weak	_ZN4asio6detail14do_throw_errorERKSt10error_code
	.type	_ZN4asio6detail14do_throw_errorERKSt10error_code, @function
_ZN4asio6detail14do_throw_errorERKSt10error_code:
.LFB2432:
	.cfi_startproc
	.cfi_personality 0x9b,DW.ref.__gxx_personality_v0
	.cfi_lsda 0x1b,.LLSDA2432
	endbr64
	pushq	%r13
	.cfi_def_cfa_offset 16
	.cfi_offset 13, -16
	pushq	%r12
	.cfi_def_cfa_offset 24
	.cfi_offset 12, -24
	pushq	%rbp
	.cfi_def_cfa_offset 32
	.cfi_offset 6, -32
	pushq	%rbx
	.cfi_def_cfa_offset 40
	.cfi_offset 3, -40
	subq	$88, %rsp
	.cfi_def_cfa_offset 128
	movq	8(%rdi), %rbx
	movl	(%rdi), %r12d
	movq	%fs:40, %rax
	movq	%rax, 72(%rsp)
	xorl	%eax, %eax
	leaq	32(%rsp), %rbp
	movq	%rsp, %r13
	movq	(%rbx), %rax
	movq	%rbx, %rsi
	movq	%rbp, %rdi
	movl	%r12d, %edx
.LEHB13:
	call	*32(%rax)
.LEHE13:
	movq	%rbp, %rsi
	movq	%r13, %rdi
.LEHB14:
	call	_ZNSt13runtime_errorC2ERKNSt7__cxx1112basic_stringIcSt11char_traitsIcESaIcEEE@PLT
.LEHE14:
	movq	32(%rsp), %rdi
	leaq	48(%rsp), %rax
	cmpq	%rax, %rdi
	je	.L828
	movq	48(%rsp), %rax
	leaq	1(%rax), %rsi
	call	_ZdlPvm@PLT
.L828:
	movq	_ZTVSt12system_error@GOTPCREL(%rip), %rax
	movq	%r13, %rdi
	movl	%r12d, 16(%rsp)
	movq	%rbx, 24(%rsp)
	addq	$16, %rax
	movq	%rax, (%rsp)
.LEHB15:
	call	_ZN4asio6detail15throw_exceptionISt12system_errorEEvRKT_@PLT
.LEHE15:
.L834:
	endbr64
	movq	%rax, %rbp
	jmp	.L829
.L833:
	endbr64
	movq	%rax, %rbp
	jmp	.L831
.L829:
	movq	32(%rsp), %rdi
	leaq	48(%rsp), %rax
	cmpq	%rax, %rdi
	je	.L836
	movq	48(%rsp), %rax
	leaq	1(%rax), %rsi
	call	_ZdlPvm@PLT
	jmp	.L836
.L831:
	movq	%r13, %rdi
	call	_ZNSt12system_errorD1Ev@PLT
.L836:
	movq	%rbp, %rdi
.LEHB16:
	call	_Unwind_Resume@PLT
.LEHE16:
	.cfi_endproc
.LFE2432:
	.section	.gcc_except_table
.LLSDA2432:
	.byte	0xff
	.byte	0xff
	.byte	0x1
	.uleb128 .LLSDACSE2432-.LLSDACSB2432
.LLSDACSB2432:
	.uleb128 .LEHB13-.LFB2432
	.uleb128 .LEHE13-.LEHB13
	.uleb128 0
	.uleb128 0
	.uleb128 .LEHB14-.LFB2432
	.uleb128 .LEHE14-.LEHB14
	.uleb128 .L834-.LFB2432
	.uleb128 0
	.uleb128 .LEHB15-.LFB2432
	.uleb128 .LEHE15-.LEHB15
	.uleb128 .L833-.LFB2432
	.uleb128 0
	.uleb128 .LEHB16-.LFB2432
	.uleb128 .LEHE16-.LEHB16
	.uleb128 0
	.uleb128 0
.LLSDACSE2432:
	.section	.text._ZN4asio6detail14do_throw_errorERKSt10error_code,"axG",@progbits,_ZN4asio6detail14do_throw_errorERKSt10error_code,comdat
	.size	_ZN4asio6detail14do_throw_errorERKSt10error_code, .-_ZN4asio6detail14do_throw_errorERKSt10error_code
	.section	.text._ZN4asio6detail14do_throw_errorERKSt10error_codePKc,"axG",@progbits,_ZN4asio6detail14do_throw_errorERKSt10error_codePKc,comdat
	.p2align 4
	.weak	_ZN4asio6detail14do_throw_errorERKSt10error_codePKc
	.type	_ZN4asio6detail14do_throw_errorERKSt10error_codePKc, @function
_ZN4asio6detail14do_throw_errorERKSt10error_codePKc:
.LFB2433:
	.cfi_startproc
	.cfi_personality 0x9b,DW.ref.__gxx_personality_v0
	.cfi_lsda 0x1b,.LLSDA2433
	endbr64
	pushq	%r12
	.cfi_def_cfa_offset 16
	.cfi_offset 12, -16
	movq	%rsi, %rcx
	pushq	%rbp
	.cfi_def_cfa_offset 24
	.cfi_offset 6, -24
	subq	$56, %rsp
	.cfi_def_cfa_offset 80
	movl	(%rdi), %esi
	movq	8(%rdi), %rdx
	movq	%fs:40, %rax
	movq	%rax, 40(%rsp)
	xorl	%eax, %eax
	movq	%rsp, %rbp
	movq	%rbp, %rdi
.LEHB17:
	call	_ZNSt12system_errorC1ESt10error_codePKc@PLT
.LEHE17:
	movq	%rbp, %rdi
.LEHB18:
	call	_ZN4asio6detail15throw_exceptionISt12system_errorEEvRKT_@PLT
.LEHE18:
.L840:
	endbr64
	movq	%rax, %r12
.L838:
	movq	%rbp, %rdi
	call	_ZNSt12system_errorD1Ev@PLT
	movq	%r12, %rdi
.LEHB19:
	call	_Unwind_Resume@PLT
.LEHE19:
	.cfi_endproc
.LFE2433:
	.section	.gcc_except_table
.LLSDA2433:
	.byte	0xff
	.byte	0xff
	.byte	0x1
	.uleb128 .LLSDACSE2433-.LLSDACSB2433
.LLSDACSB2433:
	.uleb128 .LEHB17-.LFB2433
	.uleb128 .LEHE17-.LEHB17
	.uleb128 0
	.uleb128 0
	.uleb128 .LEHB18-.LFB2433
	.uleb128 .LEHE18-.LEHB18
	.uleb128 .L840-.LFB2433
	.uleb128 0
	.uleb128 .LEHB19-.LFB2433
	.uleb128 .LEHE19-.LEHB19
	.uleb128 0
	.uleb128 0
.LLSDACSE2433:
	.section	.text._ZN4asio6detail14do_throw_errorERKSt10error_codePKc,"axG",@progbits,_ZN4asio6detail14do_throw_errorERKSt10error_codePKc,comdat
	.size	_ZN4asio6detail14do_throw_errorERKSt10error_codePKc, .-_ZN4asio6detail14do_throw_errorERKSt10error_codePKc
	.section	.rodata._ZN4asio6detail13epoll_reactor12fork_serviceENS_10io_service10fork_eventE.str1.1,"aMS",@progbits,1
.LC26:
	.string	"epoll"
.LC28:
	.string	"eventfd_select_interrupter"
.LC29:
	.string	"epoll re-registration"
	.section	.text._ZN4asio6detail13epoll_reactor12fork_serviceENS_10io_service10fork_eventE,"axG",@progbits,_ZN4asio6detail13epoll_reactor12fork_serviceENS_10io_service10fork_eventE,comdat
	.align 2
	.p2align 4
	.weak	_ZN4asio6detail13epoll_reactor12fork_serviceENS_10io_service10fork_eventE
	.type	_ZN4asio6detail13epoll_reactor12fork_serviceENS_10io_service10fork_eventE, @function
_ZN4asio6detail13epoll_reactor12fork_serviceENS_10io_service10fork_eventE:
.LFB3314:
	.cfi_startproc
	.cfi_personality 0x9b,DW.ref.__gxx_personality_v0
	.cfi_lsda 0x1b,.LLSDA3314
	endbr64
	pushq	%r15
	.cfi_def_cfa_offset 16
	.cfi_offset 15, -16
	pushq	%r14
	.cfi_def_cfa_offset 24
	.cfi_offset 14, -24
	pushq	%r13
	.cfi_def_cfa_offset 32
	.cfi_offset 13, -32
	pushq	%r12
	.cfi_def_cfa_offset 40
	.cfi_offset 12, -40
	pushq	%rbp
	.cfi_def_cfa_offset 48
	.cfi_offset 6, -48
	pushq	%rbx
	.cfi_def_cfa_offset 56
	.cfi_offset 3, -56
	subq	$120, %rsp
	.cfi_def_cfa_offset 176
	movq	%fs:40, %rax
	movq	%rax, 104(%rsp)
	xorl	%eax, %eax
	cmpl	$2, %esi
	je	.L945
.L842:
	movq	104(%rsp), %rax
	subq	%fs:40, %rax
	jne	.L946
	addq	$120, %rsp
	.cfi_remember_state
	.cfi_def_cfa_offset 56
	popq	%rbx
	.cfi_def_cfa_offset 48
	popq	%rbp
	.cfi_def_cfa_offset 40
	popq	%r12
	.cfi_def_cfa_offset 32
	popq	%r13
	.cfi_def_cfa_offset 24
	popq	%r14
	.cfi_def_cfa_offset 16
	popq	%r15
	.cfi_def_cfa_offset 8
	ret
	.p2align 4,,10
	.p2align 3
.L945:
	.cfi_restore_state
	movq	%rdi, %rbx
	movl	96(%rdi), %edi
	cmpl	$-1, %edi
	jne	.L947
.L844:
	movl	$-1, 96(%rbx)
	movl	$524288, %edi
	call	epoll_create1@PLT
	movl	%eax, %ebp
	cmpl	$-1, %eax
	je	.L948
.L845:
	movl	100(%rbx), %edi
	movl	%ebp, 96(%rbx)
	cmpl	$-1, %edi
	jne	.L949
.L851:
	movl	$-1, 100(%rbx)
	movl	$524288, %esi
	movl	$1, %edi
	call	timerfd_create@PLT
	movl	%eax, %ebp
	cmpl	$-1, %eax
	je	.L950
.L852:
	movl	92(%rbx), %r8d
	movl	88(%rbx), %edi
	movl	%ebp, 100(%rbx)
	leaq	88(%rbx), %r12
	cmpl	$-1, %r8d
	je	.L853
	cmpl	%edi, %r8d
	jne	.L951
.L854:
.LEHB20:
	call	close@PLT
.L855:
	movq	.LC27(%rip), %rax
	movl	$526336, %esi
	xorl	%edi, %edi
	movq	%rax, 88(%rbx)
	call	eventfd@PLT
	movd	%eax, %xmm1
	movl	%eax, %edx
	pshufd	$0xe0, %xmm1, %xmm0
	movq	%xmm0, 88(%rbx)
	cmpl	$-1, %eax
	je	.L952
.L856:
	movl	96(%rbx), %edi
	leaq	20(%rsp), %rbp
	movl	$1, %esi
	movl	$-2147483639, 20(%rsp)
	movq	%rbp, %rcx
	movq	%r12, 24(%rsp)
	call	epoll_ctl@PLT
	leaq	64(%rsp), %rax
	movl	92(%rbx), %edi
	movl	$8, %edx
	movq	%rax, %rsi
	movq	%rax, 8(%rsp)
	movq	$1, 64(%rsp)
	call	write@PLT
.LEHE20:
	movl	100(%rbx), %edx
	cmpl	$-1, %edx
	jne	.L953
.L864:
	movl	88(%rbx), %edx
	movl	96(%rbx), %edi
	movl	$3, %esi
	movq	%r12, 68(%rsp)
	movq	8(%rsp), %rcx
	movl	$-2147483639, 64(%rsp)
	call	epoll_ctl@PLT
.L870:
	leaq	120(%rbx), %r13
	movq	%r13, %rdi
	call	pthread_mutex_lock@PLT
	movq	160(%rbx), %r15
	testq	%r15, %r15
	jne	.L871
	jmp	.L877
	.p2align 4,,10
	.p2align 3
.L872:
	movq	24(%r15), %r15
	testq	%r15, %r15
	je	.L877
.L871:
	movl	92(%r15), %eax
	movl	88(%r15), %edx
	movq	%rbp, %rcx
	movl	$1, %esi
	movl	96(%rbx), %edi
	movq	%r15, 24(%rsp)
	movl	%eax, 20(%rsp)
	call	epoll_ctl@PLT
	testl	%eax, %eax
	je	.L872
	movq	_ZGVZN4asio15system_categoryEvE8instance@GOTPCREL(%rip), %r12
	movzbl	(%r12), %eax
	testb	%al, %al
	je	.L873
.L944:
	movq	_ZZN4asio15system_categoryEvE8instance@GOTPCREL(%rip), %r14
.L874:
	call	__errno_location@PLT
	movq	%r14, 72(%rsp)
	movl	(%rax), %eax
	movl	%eax, 64(%rsp)
	testl	%eax, %eax
	je	.L872
	movq	8(%rsp), %rdi
	leaq	.LC29(%rip), %rsi
.LEHB21:
	call	_ZN4asio6detail14do_throw_errorERKSt10error_codePKc@PLT
.LEHE21:
	.p2align 4,,10
	.p2align 3
.L951:
	movl	%r8d, %edi
.LEHB22:
	call	close@PLT
	movl	88(%rbx), %edi
.L853:
	cmpl	$-1, %edi
	je	.L855
	jmp	.L854
	.p2align 4,,10
	.p2align 3
.L953:
	movl	96(%rbx), %edi
	leaq	100(%rbx), %rax
	movq	%rbp, %rcx
	movl	$1, %esi
	movl	$9, 20(%rsp)
	movq	%rax, 24(%rsp)
	call	epoll_ctl@PLT
	movl	100(%rbx), %edi
	cmpl	$-1, %edi
	je	.L864
	movq	104(%rbx), %r12
	pxor	%xmm0, %xmm0
	movaps	%xmm0, 32(%rsp)
	testq	%r12, %r12
	je	.L865
	movl	$300000000, %esi
	.p2align 4,,10
	.p2align 3
.L866:
	movq	(%r12), %rax
	movq	%r12, %rdi
	call	*32(%rax)
	movq	8(%r12), %r12
	movq	%rax, %rsi
	testq	%r12, %r12
	jne	.L866
	movabsq	$4835703278458516699, %rdx
	xorl	%r8d, %r8d
	movl	100(%rbx), %edi
	imulq	%rdx
	movq	%rsi, %rax
	sarq	$63, %rax
	sarq	$18, %rdx
	subq	%rax, %rdx
	testq	%rsi, %rsi
	movl	$1, %eax
	movq	%rdx, 48(%rsp)
	sete	%r8b
	je	.L869
	imulq	$1000000, %rdx, %rdx
	subq	%rdx, %rsi
	imulq	$1000, %rsi, %rax
.L869:
	movq	8(%rsp), %rcx
	leaq	32(%rsp), %rdx
	movl	%r8d, %esi
	movq	%rax, 56(%rsp)
	call	timerfd_settime@PLT
	jmp	.L870
	.p2align 4,,10
	.p2align 3
.L949:
	call	close@PLT
	jmp	.L851
	.p2align 4,,10
	.p2align 3
.L947:
	call	close@PLT
	jmp	.L844
	.p2align 4,,10
	.p2align 3
.L873:
	movq	%r12, %rdi
	call	__cxa_guard_acquire@PLT
	testl	%eax, %eax
	je	.L944
	movq	_ZZN4asio15system_categoryEvE8instance@GOTPCREL(%rip), %r14
	movq	_ZN4asio6detail15system_categoryD1Ev@GOTPCREL(%rip), %rdi
	leaq	__dso_handle(%rip), %rdx
	movq	%r14, %rsi
	call	__cxa_atexit@PLT
	movq	%r12, %rdi
	call	__cxa_guard_release@PLT
	jmp	.L874
	.p2align 4,,10
	.p2align 3
.L877:
	movq	%r13, %rdi
	call	pthread_mutex_unlock@PLT
	jmp	.L842
	.p2align 4,,10
	.p2align 3
.L952:
	call	__errno_location@PLT
	cmpl	$22, (%rax)
	movq	%rax, %rbp
	je	.L954
.L858:
	leaq	96(%rsp), %rdi
	call	pipe@PLT
	testl	%eax, %eax
	je	.L879
	movq	_ZGVZN4asio15system_categoryEvE8instance@GOTPCREL(%rip), %r13
	movzbl	0(%r13), %eax
	testb	%al, %al
	je	.L860
.L943:
	movq	_ZZN4asio15system_categoryEvE8instance@GOTPCREL(%rip), %r14
.L861:
	movl	0(%rbp), %eax
	movq	%r14, 72(%rsp)
	movl	%eax, 64(%rsp)
	testl	%eax, %eax
	jne	.L955
.L859:
	movl	88(%rbx), %edx
	jmp	.L856
	.p2align 4,,10
	.p2align 3
.L950:
	call	__errno_location@PLT
	cmpl	$22, (%rax)
	jne	.L852
	xorl	%esi, %esi
	movl	$1, %edi
	call	timerfd_create@PLT
	movl	%eax, %ebp
	cmpl	$-1, %eax
	je	.L852
	movl	%eax, %edi
	movl	$1, %edx
	movl	$2, %esi
	xorl	%eax, %eax
	call	fcntl@PLT
	jmp	.L852
	.p2align 4,,10
	.p2align 3
.L948:
	call	__errno_location@PLT
	movq	%rax, %r13
	movl	(%rax), %eax
	subl	$22, %eax
	andl	$-17, %eax
	jne	.L846
	movl	$20000, %edi
	call	epoll_create@PLT
	movl	%eax, %r12d
	cmpl	$-1, %eax
	je	.L846
	movl	%eax, %edi
	movl	$1, %edx
	movl	$2, %esi
	xorl	%eax, %eax
	call	fcntl@PLT
	movl	%r12d, %ebp
	jmp	.L845
.L846:
	movq	_ZGVZN4asio15system_categoryEvE8instance@GOTPCREL(%rip), %r12
	movzbl	(%r12), %eax
	testb	%al, %al
	je	.L847
.L942:
	movq	_ZZN4asio15system_categoryEvE8instance@GOTPCREL(%rip), %r14
.L848:
	movl	0(%r13), %eax
	movq	%r14, 72(%rsp)
	movl	%eax, 64(%rsp)
	testl	%eax, %eax
	je	.L845
	leaq	64(%rsp), %rdi
	leaq	.LC26(%rip), %rsi
	call	_ZN4asio6detail14do_throw_errorERKSt10error_codePKc@PLT
	.p2align 4,,10
	.p2align 3
.L879:
	movl	96(%rsp), %edi
	movl	$2048, %edx
	movl	$4, %esi
	xorl	%eax, %eax
	movl	%edi, 88(%rbx)
	call	fcntl@PLT
	movl	88(%rbx), %edi
	movl	$1, %edx
	xorl	%eax, %eax
	movl	$2, %esi
	call	fcntl@PLT
	movl	100(%rsp), %edi
	movl	$2048, %edx
	xorl	%eax, %eax
	movl	$4, %esi
	movl	%edi, 92(%rbx)
	call	fcntl@PLT
	movl	92(%rbx), %edi
	movl	$1, %edx
	xorl	%eax, %eax
	movl	$2, %esi
	call	fcntl@PLT
	jmp	.L859
.L847:
	movq	%r12, %rdi
	call	__cxa_guard_acquire@PLT
	testl	%eax, %eax
	je	.L942
	movq	_ZZN4asio15system_categoryEvE8instance@GOTPCREL(%rip), %r14
	movq	_ZN4asio6detail15system_categoryD1Ev@GOTPCREL(%rip), %rdi
	leaq	__dso_handle(%rip), %rdx
	movq	%r14, %rsi
	call	__cxa_atexit@PLT
	movq	%r12, %rdi
	call	__cxa_guard_release@PLT
	jmp	.L848
.L954:
	xorl	%edi, %edi
	xorl	%esi, %esi
	call	eventfd@PLT
	movd	%eax, %xmm2
	movl	%eax, %edi
	pshufd	$0xe0, %xmm2, %xmm0
	movq	%xmm0, 88(%rbx)
	cmpl	$-1, %eax
	je	.L858
	movl	$2048, %edx
	movl	$4, %esi
	xorl	%eax, %eax
	call	fcntl@PLT
	movl	88(%rbx), %edi
	movl	$1, %edx
	xorl	%eax, %eax
	movl	$2, %esi
	call	fcntl@PLT
	movl	88(%rbx), %edx
	cmpl	$-1, %edx
	jne	.L856
	jmp	.L858
	.p2align 4,,10
	.p2align 3
.L865:
	movq	$300, 48(%rsp)
	xorl	%r8d, %r8d
	xorl	%eax, %eax
	jmp	.L869
.L860:
	movq	%r13, %rdi
	call	__cxa_guard_acquire@PLT
	testl	%eax, %eax
	je	.L943
	movq	_ZZN4asio15system_categoryEvE8instance@GOTPCREL(%rip), %r14
	movq	_ZN4asio6detail15system_categoryD1Ev@GOTPCREL(%rip), %rdi
	leaq	__dso_handle(%rip), %rdx
	movq	%r14, %rsi
	call	__cxa_atexit@PLT
	movq	%r13, %rdi
	call	__cxa_guard_release@PLT
	jmp	.L861
.L946:
	call	__stack_chk_fail@PLT
.L955:
	leaq	64(%rsp), %rdi
	leaq	.LC28(%rip), %rsi
	call	_ZN4asio6detail14do_throw_errorERKSt10error_codePKc@PLT
.L883:
	endbr64
	movq	%rax, %rbp
.L878:
	movq	%r13, %rdi
	call	pthread_mutex_unlock@PLT
	movq	%rbp, %rdi
	call	_Unwind_Resume@PLT
.LEHE22:
	.cfi_endproc
.LFE3314:
	.section	.gcc_except_table
.LLSDA3314:
	.byte	0xff
	.byte	0xff
	.byte	0x1
	.uleb128 .LLSDACSE3314-.LLSDACSB3314
.LLSDACSB3314:
	.uleb128 .LEHB20-.LFB3314
	.uleb128 .LEHE20-.LEHB20
	.uleb128 0
	.uleb128 0
	.uleb128 .LEHB21-.LFB3314
	.uleb128 .LEHE21-.LEHB21
	.uleb128 .L883-.LFB3314
	.uleb128 0
	.uleb128 .LEHB22-.LFB3314
	.uleb128 .LEHE22-.LEHB22
	.uleb128 0
	.uleb128 0
.LLSDACSE3314:
	.section	.text._ZN4asio6detail13epoll_reactor12fork_serviceENS_10io_service10fork_eventE,"axG",@progbits,_ZN4asio6detail13epoll_reactor12fork_serviceENS_10io_service10fork_eventE,comdat
	.size	_ZN4asio6detail13epoll_reactor12fork_serviceENS_10io_service10fork_eventE, .-_ZN4asio6detail13epoll_reactor12fork_serviceENS_10io_service10fork_eventE
	.section	.rodata._ZN4asio6detail30reactive_socket_accept_op_baseINS_12basic_socketINS_2ip3tcpENS_21stream_socket_serviceIS4_EEEES4_E10do_performEPNS0_10reactor_opE.str1.1,"aMS",@progbits,1
.LC30:
	.string	"mutex"
	.section	.text._ZN4asio6detail30reactive_socket_accept_op_baseINS_12basic_socketINS_2ip3tcpENS_21stream_socket_serviceIS4_EEEES4_E10do_performEPNS0_10reactor_opE,"axG",@progbits,_ZN4asio6detail30reactive_socket_accept_op_baseINS_12basic_socketINS_2ip3tcpENS_21stream_socket_serviceIS4_EEEES4_E10do_performEPNS0_10reactor_opE,comdat
	.p2align 4
	.weak	_ZN4asio6detail30reactive_socket_accept_op_baseINS_12basic_socketINS_2ip3tcpENS_21stream_socket_serviceIS4_EEEES4_E10do_performEPNS0_10reactor_opE
	.type	_ZN4asio6detail30reactive_socket_accept_op_baseINS_12basic_socketINS_2ip3tcpENS_21stream_socket_serviceIS4_EEEES4_E10do_performEPNS0_10reactor_opE, @function
_ZN4asio6detail30reactive_socket_accept_op_baseINS_12basic_socketINS_2ip3tcpENS_21stream_socket_serviceIS4_EEEES4_E10do_performEPNS0_10reactor_opE:
.LFB9063:
	.cfi_startproc
	.cfi_personality 0x9b,DW.ref.__gxx_personality_v0
	.cfi_lsda 0x1b,.LLSDA9063
	endbr64
	pushq	%r15
	.cfi_def_cfa_offset 16
	.cfi_offset 15, -16
	xorl	%edx, %edx
	pushq	%r14
	.cfi_def_cfa_offset 24
	.cfi_offset 14, -24
	pushq	%r13
	.cfi_def_cfa_offset 32
	.cfi_offset 13, -32
	pushq	%r12
	.cfi_def_cfa_offset 40
	.cfi_offset 12, -40
	pushq	%rbp
	.cfi_def_cfa_offset 48
	.cfi_offset 6, -48
	pushq	%rbx
	.cfi_def_cfa_offset 56
	.cfi_offset 3, -56
	movq	%rdi, %rbx
	subq	$104, %rsp
	.cfi_def_cfa_offset 160
	movq	80(%rdi), %r15
	movq	_ZGVZN4asio15system_categoryEvE8instance@GOTPCREL(%rip), %rbp
	movq	%fs:40, %rax
	movq	%rax, 88(%rsp)
	xorl	%eax, %eax
	movl	$28, %eax
	leaq	56(%rsp), %r14
	movq	_ZZN4asio15system_categoryEvE8instance@GOTPCREL(%rip), %r12
	testq	%r15, %r15
	cmove	%rdx, %rax
	cmove	%rdx, %r14
	movq	%rax, 56(%rsp)
	movzbl	60(%rdi), %eax
	movb	%al, 16(%rsp)
	movl	56(%rdi), %eax
	movl	%eax, 8(%rsp)
.L970:
	cmpl	$-1, 8(%rsp)
	je	.L1090
	call	__errno_location@PLT
	movl	$0, (%rax)
	movq	%rax, %r13
	testq	%r14, %r14
	je	.L963
	movq	(%r14), %rax
	movl	8(%rsp), %edi
	leaq	64(%rsp), %rdx
	movq	%r15, %rsi
	movl	%eax, 64(%rsp)
.LEHB23:
	call	accept@PLT
	movl	%eax, 40(%rsp)
	movl	64(%rsp), %eax
	movq	%rax, (%r14)
.L1023:
	movzbl	0(%rbp), %eax
	testb	%al, %al
	je	.L1091
.L965:
	movl	0(%r13), %eax
	cmpl	$-1, 40(%rsp)
	movq	%r12, 32(%rbx)
	movl	%eax, 24(%rbx)
	jne	.L1092
.L962:
	movzbl	0(%rbp), %eax
	testb	%al, %al
	je	.L1093
.L967:
	cmpq	%r12, 32(%rbx)
	je	.L1094
.L969:
	movzbl	0(%rbp), %eax
	testb	%al, %al
	je	.L1095
.L972:
	cmpq	%r12, 32(%rbx)
	je	.L1096
.L974:
	movzbl	0(%rbp), %eax
	testb	%al, %al
	je	.L1097
.L977:
	cmpq	%r12, 32(%rbx)
	je	.L1098
	movzbl	0(%rbp), %eax
	testb	%al, %al
	je	.L1099
.L981:
	movl	24(%rbx), %edx
	cmpq	%r12, 32(%rbx)
	je	.L1100
.L984:
	movzbl	16(%rsp), %eax
	shrb	$2, %al
	andl	$1, %eax
	cmpl	$71, %edx
	movl	$1, %edx
	cmovne	%edx, %eax
.L956:
	movq	88(%rsp), %rdx
	subq	%fs:40, %rdx
	jne	.L1101
	addq	$104, %rsp
	.cfi_remember_state
	.cfi_def_cfa_offset 56
	popq	%rbx
	.cfi_def_cfa_offset 48
	popq	%rbp
	.cfi_def_cfa_offset 40
	popq	%r12
	.cfi_def_cfa_offset 32
	popq	%r13
	.cfi_def_cfa_offset 24
	popq	%r14
	.cfi_def_cfa_offset 16
	popq	%r15
	.cfi_def_cfa_offset 8
	ret
	.p2align 4,,10
	.p2align 3
.L1091:
	.cfi_restore_state
	movq	%rbp, %rdi
	call	__cxa_guard_acquire@PLT
	testl	%eax, %eax
	je	.L965
	movq	_ZN4asio6detail15system_categoryD1Ev@GOTPCREL(%rip), %rdi
	leaq	__dso_handle(%rip), %rdx
	movq	%r12, %rsi
	call	__cxa_atexit@PLT
	movq	%rbp, %rdi
	call	__cxa_guard_release@PLT
	jmp	.L965
	.p2align 4,,10
	.p2align 3
.L1093:
	movq	%rbp, %rdi
	call	__cxa_guard_acquire@PLT
	testl	%eax, %eax
	je	.L967
	movq	_ZN4asio6detail15system_categoryD1Ev@GOTPCREL(%rip), %rdi
	leaq	__dso_handle(%rip), %rdx
	movq	%r12, %rsi
	call	__cxa_atexit@PLT
	movq	%rbp, %rdi
	call	__cxa_guard_release@PLT
	cmpq	%r12, 32(%rbx)
	jne	.L969
	.p2align 4,,10
	.p2align 3
.L1094:
	cmpl	$4, 24(%rbx)
	je	.L970
	movzbl	0(%rbp), %eax
	testb	%al, %al
	jne	.L972
.L1095:
	movq	%rbp, %rdi
	call	__cxa_guard_acquire@PLT
	testl	%eax, %eax
	je	.L972
	movq	_ZN4asio6detail15system_categoryD1Ev@GOTPCREL(%rip), %rdi
	leaq	__dso_handle(%rip), %rdx
	movq	%r12, %rsi
	call	__cxa_atexit@PLT
	movq	%rbp, %rdi
	call	__cxa_guard_release@PLT
	cmpq	%r12, 32(%rbx)
	jne	.L974
	.p2align 4,,10
	.p2align 3
.L1096:
	cmpl	$11, 24(%rbx)
	jne	.L974
.L975:
	movzbl	16(%rsp), %eax
	andl	$1, %eax
	jmp	.L956
	.p2align 4,,10
	.p2align 3
.L963:
	movl	8(%rsp), %edi
	xorl	%edx, %edx
	movq	%r15, %rsi
	movl	$0, 64(%rsp)
	call	accept@PLT
.LEHE23:
	movl	%eax, 40(%rsp)
	jmp	.L1023
	.p2align 4,,10
	.p2align 3
.L1097:
	movq	%rbp, %rdi
	call	__cxa_guard_acquire@PLT
	testl	%eax, %eax
	je	.L977
	movq	_ZN4asio6detail15system_categoryD1Ev@GOTPCREL(%rip), %rdi
	leaq	__dso_handle(%rip), %rdx
	movq	%r12, %rsi
	call	__cxa_atexit@PLT
	movq	%rbp, %rdi
	call	__cxa_guard_release@PLT
	jmp	.L977
	.p2align 4,,10
	.p2align 3
.L1098:
	cmpl	$11, 24(%rbx)
	je	.L975
	movzbl	0(%rbp), %eax
	testb	%al, %al
	jne	.L981
.L1099:
	movq	%rbp, %rdi
	call	__cxa_guard_acquire@PLT
	testl	%eax, %eax
	je	.L981
	movq	_ZN4asio6detail15system_categoryD1Ev@GOTPCREL(%rip), %rdi
	leaq	__dso_handle(%rip), %rdx
	movq	%r12, %rsi
	call	__cxa_atexit@PLT
	movq	%rbp, %rdi
	call	__cxa_guard_release@PLT
	jmp	.L981
	.p2align 4,,10
	.p2align 3
.L1100:
	cmpl	$103, %edx
	jne	.L984
	movzbl	16(%rsp), %eax
	shrb	$2, %al
	andl	$1, %eax
	jmp	.L956
	.p2align 4,,10
	.p2align 3
.L1092:
	call	_ZNSt3_V215system_categoryEv@PLT
	cmpq	$0, 80(%rbx)
	movl	$0, 24(%rbx)
	movq	%rax, 32(%rsp)
	movq	%rax, 32(%rbx)
	movl	40(%rsp), %eax
	movl	%eax, 52(%rsp)
	je	.L986
	cmpq	$128, 56(%rsp)
	ja	.L1102
.L986:
	movq	64(%rbx), %r14
	cmpl	$-1, (%r14)
	movq	24(%r14), %rax
	je	.L987
	movq	_ZGVZN4asio5error17get_misc_categoryEvE8instance@GOTPCREL(%rip), %r14
	movzbl	(%r14), %eax
	testb	%al, %al
	je	.L988
.L1084:
	movq	_ZZN4asio5error17get_misc_categoryEvE8instance@GOTPCREL(%rip), %r15
.L989:
	movl	$1, 24(%rbx)
	movq	%r15, 32(%rbx)
.L991:
	movl	52(%rsp), %r14d
	cmpl	$-1, %r14d
	je	.L1007
	movl	$0, 0(%r13)
	movl	%r14d, %edi
	call	close@PLT
	movl	%eax, %ebx
	movzbl	0(%rbp), %eax
	testb	%al, %al
	je	.L1103
.L1009:
	movl	0(%r13), %r15d
	testl	%ebx, %ebx
	jne	.L1104
.L1007:
	movl	$1, %eax
	jmp	.L956
	.p2align 4,,10
	.p2align 3
.L987:
	movq	40(%rax), %r15
	leaq	120(%r15), %rax
	movq	%r15, 8(%rsp)
	movq	%rax, %rdi
	movq	%rax, 16(%rsp)
	call	pthread_mutex_lock@PLT
	movq	%r15, %rcx
	movq	168(%r15), %r15
	testq	%r15, %r15
	je	.L992
	movq	24(%r15), %rax
	leaq	40(%r15), %r8
	movq	%rax, 168(%rcx)
.L993:
	movq	8(%rsp), %rsi
	movq	160(%rsi), %rax
	movq	$0, 32(%r15)
	movq	%rax, 24(%r15)
	movq	160(%rsi), %rax
	testq	%rax, %rax
	je	.L1000
	movq	%r15, 32(%rax)
.L1000:
	movq	8(%rsp), %rax
	movq	16(%rsp), %rdi
	movq	%r8, 24(%rsp)
	movq	%r15, 160(%rax)
	call	pthread_mutex_unlock@PLT
	movq	24(%rsp), %r8
	movq	%r15, 8(%r14)
	movq	%r8, %rdi
	movq	%r8, 16(%rsp)
	call	pthread_mutex_lock@PLT
	movq	8(%r14), %rax
	movq	8(%rsp), %r15
	movl	40(%rsp), %ecx
	movq	16(%rsp), %rdi
	movq	%r15, 80(%rax)
	movl	%ecx, 88(%rax)
	movb	$0, 144(%rax)
	call	pthread_mutex_unlock@PLT
	movq	8(%r14), %rax
	movl	40(%rsp), %edx
	movl	$-2147483621, 64(%rsp)
	leaq	64(%rsp), %rcx
	movl	$1, %esi
	movl	$-2147483621, 92(%rax)
	movq	%rax, 68(%rsp)
	movl	96(%r15), %edi
	call	epoll_ctl@PLT
	testl	%eax, %eax
	jne	.L1105
.L1002:
	movl	40(%rsp), %eax
	movb	$80, 4(%r14)
	movl	%eax, (%r14)
	movq	32(%rsp), %rax
	movl	$0, 24(%rbx)
	movq	%rax, 32(%rbx)
	movl	72(%rbx), %eax
	movl	%eax, 16(%r14)
	jmp	.L1007
	.p2align 4,,10
	.p2align 3
.L988:
	movq	%r14, %rdi
	call	__cxa_guard_acquire@PLT
	testl	%eax, %eax
	je	.L1084
	movq	_ZZN4asio5error17get_misc_categoryEvE8instance@GOTPCREL(%rip), %r15
	movq	_ZN4asio5error6detail13misc_categoryD1Ev@GOTPCREL(%rip), %rdi
	leaq	__dso_handle(%rip), %rdx
	movq	%r15, %rsi
	call	__cxa_atexit@PLT
	movq	%r14, %rdi
	call	__cxa_guard_release@PLT
	jmp	.L989
	.p2align 4,,10
	.p2align 3
.L1105:
	movl	0(%r13), %r15d
	testl	%r15d, %r15d
	je	.L1002
	movzbl	0(%rbp), %eax
	testb	%al, %al
	je	.L1106
.L1005:
	movl	%r15d, 24(%rbx)
	movq	%r12, 32(%rbx)
	jmp	.L991
	.p2align 4,,10
	.p2align 3
.L1104:
	movzbl	0(%rbp), %eax
	testb	%al, %al
	je	.L1107
.L1014:
	cmpl	$11, %r15d
	je	.L1016
.L1089:
	movzbl	0(%rbp), %eax
	testb	%al, %al
	jne	.L1007
	movq	%rbp, %rdi
	call	__cxa_guard_acquire@PLT
	testl	%eax, %eax
	je	.L1007
	movq	_ZN4asio6detail15system_categoryD1Ev@GOTPCREL(%rip), %rdi
	leaq	__dso_handle(%rip), %rdx
	movq	%r12, %rsi
	call	__cxa_atexit@PLT
	movq	%rbp, %rdi
	call	__cxa_guard_release@PLT
	jmp	.L1007
	.p2align 4,,10
	.p2align 3
.L1103:
	movq	%rbp, %rdi
	call	__cxa_guard_acquire@PLT
	testl	%eax, %eax
	je	.L1009
	movq	_ZN4asio6detail15system_categoryD1Ev@GOTPCREL(%rip), %rdi
	leaq	__dso_handle(%rip), %rdx
	movq	%r12, %rsi
	call	__cxa_atexit@PLT
	movq	%rbp, %rdi
	call	__cxa_guard_release@PLT
	jmp	.L1009
	.p2align 4,,10
	.p2align 3
.L992:
	movl	$152, %edi
.LEHB24:
	call	_Znwm@PLT
.LEHE24:
	movq	$0, (%rax)
	movq	%rax, %r15
	xorl	%esi, %esi
	movq	_ZN4asio6detail13epoll_reactor16descriptor_state11do_completeEPNS0_15task_io_serviceEPNS0_25task_io_service_operationERKSt10error_codem@GOTPCREL(%rip), %rax
	movl	$0, 16(%r15)
	leaq	40(%r15), %r8
	movq	%rax, 8(%r15)
	movq	%r8, %rdi
	movq	%r8, 24(%rsp)
	call	pthread_mutex_init@PLT
	movl	%eax, %ecx
	movzbl	0(%rbp), %eax
	testb	%al, %al
	movq	24(%rsp), %r8
	je	.L1108
.L995:
	movl	%ecx, 64(%rsp)
	movq	%r12, 72(%rsp)
	testl	%ecx, %ecx
	jne	.L1109
	pxor	%xmm0, %xmm0
	movups	%xmm0, 96(%r15)
	movups	%xmm0, 112(%r15)
	movups	%xmm0, 128(%r15)
	jmp	.L993
	.p2align 4,,10
	.p2align 3
.L1106:
	movq	%rbp, %rdi
	call	__cxa_guard_acquire@PLT
	testl	%eax, %eax
	je	.L1005
	movq	_ZN4asio6detail15system_categoryD1Ev@GOTPCREL(%rip), %rdi
	leaq	__dso_handle(%rip), %rdx
	movq	%r12, %rsi
	call	__cxa_atexit@PLT
	movq	%rbp, %rdi
	call	__cxa_guard_release@PLT
	jmp	.L1005
	.p2align 4,,10
	.p2align 3
.L1107:
	movq	%rbp, %rdi
	call	__cxa_guard_acquire@PLT
	testl	%eax, %eax
	je	.L1014
	movq	_ZN4asio6detail15system_categoryD1Ev@GOTPCREL(%rip), %rdi
	leaq	__dso_handle(%rip), %rdx
	movq	%r12, %rsi
	call	__cxa_atexit@PLT
	movq	%rbp, %rdi
	call	__cxa_guard_release@PLT
	jmp	.L1014
	.p2align 4,,10
	.p2align 3
.L1016:
	movl	%r14d, %edi
	leaq	64(%rsp), %rdx
	movl	$21537, %esi
	xorl	%eax, %eax
	movl	$0, 64(%rsp)
	call	ioctl@PLT
	movl	$0, 0(%r13)
	movl	%r14d, %edi
	call	close@PLT
	jmp	.L1089
	.p2align 4,,10
	.p2align 3
.L1108:
	movq	%rbp, %rdi
	movl	%ecx, 44(%rsp)
	call	__cxa_guard_acquire@PLT
	movq	24(%rsp), %r8
	movl	44(%rsp), %ecx
	testl	%eax, %eax
	je	.L995
	movq	_ZN4asio6detail15system_categoryD1Ev@GOTPCREL(%rip), %rdi
	leaq	__dso_handle(%rip), %rdx
	movq	%r12, %rsi
	call	__cxa_atexit@PLT
	movq	%rbp, %rdi
	call	__cxa_guard_release@PLT
	movl	44(%rsp), %ecx
	movq	24(%rsp), %r8
	jmp	.L995
.L1090:
	movzbl	0(%rbp), %eax
	testb	%al, %al
	je	.L1110
.L960:
	movl	$9, 24(%rbx)
	movq	%r12, 32(%rbx)
	jmp	.L962
.L1110:
	movq	%rbp, %rdi
	call	__cxa_guard_acquire@PLT
	testl	%eax, %eax
	je	.L960
	movq	_ZN4asio6detail15system_categoryD1Ev@GOTPCREL(%rip), %rdi
	leaq	__dso_handle(%rip), %rdx
	movq	%r12, %rsi
	call	__cxa_atexit@PLT
	movq	%rbp, %rdi
	call	__cxa_guard_release@PLT
	jmp	.L960
.L1101:
	call	__stack_chk_fail@PLT
.L1102:
	call	_ZN4asio15system_categoryEv@PLT
	leaq	64(%rsp), %rdi
	movl	$22, 64(%rsp)
	movq	%rax, 72(%rsp)
.LEHB25:
	call	_ZN4asio6detail14do_throw_errorERKSt10error_code@PLT
.LEHE25:
.L1109:
	leaq	64(%rsp), %rdi
	leaq	.LC30(%rip), %rsi
.LEHB26:
	call	_ZN4asio6detail14do_throw_errorERKSt10error_codePKc@PLT
.LEHE26:
.L1028:
	endbr64
	movq	%rax, %rbx
	jmp	.L999
.L1027:
	endbr64
	movq	%rax, %rbx
	jmp	.L1003
.L1029:
	endbr64
	movq	%rax, %rbx
.L998:
	movl	$152, %esi
	movq	%r15, %rdi
	call	_ZdlPvm@PLT
.L999:
	movq	16(%rsp), %rdi
	call	pthread_mutex_unlock@PLT
.L1003:
	leaq	52(%rsp), %rdi
	call	_ZN4asio6detail13socket_holderD1Ev@PLT
	movq	%rbx, %rdi
.LEHB27:
	call	_Unwind_Resume@PLT
.LEHE27:
	.cfi_endproc
.LFE9063:
	.section	.gcc_except_table
.LLSDA9063:
	.byte	0xff
	.byte	0xff
	.byte	0x1
	.uleb128 .LLSDACSE9063-.LLSDACSB9063
.LLSDACSB9063:
	.uleb128 .LEHB23-.LFB9063
	.uleb128 .LEHE23-.LEHB23
	.uleb128 0
	.uleb128 0
	.uleb128 .LEHB24-.LFB9063
	.uleb128 .LEHE24-.LEHB24
	.uleb128 .L1028-.LFB9063
	.uleb128 0
	.uleb128 .LEHB25-.LFB9063
	.uleb128 .LEHE25-.LEHB25
	.uleb128 .L1027-.LFB9063
	.uleb128 0
	.uleb128 .LEHB26-.LFB9063
	.uleb128 .LEHE26-.LEHB26
	.uleb128 .L1029-.LFB9063
	.uleb128 0
	.uleb128 .LEHB27-.LFB9063
	.uleb128 .LEHE27-.LEHB27
	.uleb128 0
	.uleb128 0
.LLSDACSE9063:
	.section	.text._ZN4asio6detail30reactive_socket_accept_op_baseINS_12basic_socketINS_2ip3tcpENS_21stream_socket_serviceIS4_EEEES4_E10do_performEPNS0_10reactor_opE,"axG",@progbits,_ZN4asio6detail30reactive_socket_accept_op_baseINS_12basic_socketINS_2ip3tcpENS_21stream_socket_serviceIS4_EEEES4_E10do_performEPNS0_10reactor_opE,comdat
	.size	_ZN4asio6detail30reactive_socket_accept_op_baseINS_12basic_socketINS_2ip3tcpENS_21stream_socket_serviceIS4_EEEES4_E10do_performEPNS0_10reactor_opE, .-_ZN4asio6detail30reactive_socket_accept_op_baseINS_12basic_socketINS_2ip3tcpENS_21stream_socket_serviceIS4_EEEES4_E10do_performEPNS0_10reactor_opE
	.section	.text._ZN4asio6detail11object_poolINS0_13epoll_reactor16descriptor_stateEED2Ev,"axG",@progbits,_ZN4asio6detail11object_poolINS0_13epoll_reactor16descriptor_stateEED5Ev,comdat
	.align 2
	.p2align 4
	.weak	_ZN4asio6detail11object_poolINS0_13epoll_reactor16descriptor_stateEED2Ev
	.type	_ZN4asio6detail11object_poolINS0_13epoll_reactor16descriptor_stateEED2Ev, @function
_ZN4asio6detail11object_poolINS0_13epoll_reactor16descriptor_stateEED2Ev:
.LFB7420:
	.cfi_startproc
	.cfi_personality 0x9b,DW.ref.__gxx_personality_v0
	.cfi_lsda 0x1b,.LLSDA7420
	endbr64
	pushq	%r15
	.cfi_def_cfa_offset 16
	.cfi_offset 15, -16
	pushq	%r14
	.cfi_def_cfa_offset 24
	.cfi_offset 14, -24
	pushq	%r13
	.cfi_def_cfa_offset 32
	.cfi_offset 13, -32
	pushq	%r12
	.cfi_def_cfa_offset 40
	.cfi_offset 12, -40
	pushq	%rbp
	.cfi_def_cfa_offset 48
	.cfi_offset 6, -48
	pushq	%rbx
	.cfi_def_cfa_offset 56
	.cfi_offset 3, -56
	subq	$56, %rsp
	.cfi_def_cfa_offset 112
	movq	(%rdi), %r13
	movq	%rdi, 8(%rsp)
	movq	%fs:40, %rax
	movq	%rax, 40(%rsp)
	xorl	%eax, %eax
	testq	%r13, %r13
	je	.L1112
	leaq	16(%rsp), %rbp
	.p2align 4,,10
	.p2align 3
.L1118:
	movq	%r13, %r12
	movq	24(%r13), %r13
	leaq	128(%r12), %r15
	leaq	80(%r12), %r14
.L1117:
	movq	(%r15), %rsi
	testq	%rsi, %rsi
	movq	%rsi, (%rsp)
	je	.L1113
	call	_ZNSt3_V215system_categoryEv@PLT
	movq	(%rsp), %rsi
	movq	%rax, %rbx
	jmp	.L1116
	.p2align 4,,10
	.p2align 3
.L1114:
	movq	$0, (%rsi)
	movq	8(%rsi), %rax
	xorl	%ecx, %ecx
	movq	%rbp, %rdx
	movl	$0, 16(%rsp)
	xorl	%edi, %edi
	movq	%rbx, 24(%rsp)
	call	*%rax
	movq	(%r15), %rsi
	testq	%rsi, %rsi
	je	.L1113
.L1116:
	movq	(%rsi), %rax
	movq	%rax, (%r15)
	testq	%rax, %rax
	jne	.L1114
	movq	$0, 8(%r15)
	jmp	.L1114
	.p2align 4,,10
	.p2align 3
.L1113:
	subq	$16, %r15
	cmpq	%r14, %r15
	jne	.L1117
	leaq	40(%r12), %rdi
	call	pthread_mutex_destroy@PLT
	movl	$152, %esi
	movq	%r12, %rdi
	call	_ZdlPvm@PLT
	testq	%r13, %r13
	jne	.L1118
.L1112:
	movq	8(%rsp), %rax
	movq	8(%rax), %r13
	testq	%r13, %r13
	je	.L1111
	leaq	16(%rsp), %rbp
	.p2align 4,,10
	.p2align 3
.L1125:
	movq	%r13, %r12
	movq	24(%r13), %r13
	leaq	128(%r12), %r15
	leaq	80(%r12), %r14
.L1124:
	movq	(%r15), %rsi
	testq	%rsi, %rsi
	movq	%rsi, (%rsp)
	je	.L1120
	call	_ZNSt3_V215system_categoryEv@PLT
	movq	(%rsp), %rsi
	movq	%rax, %rbx
	jmp	.L1123
	.p2align 4,,10
	.p2align 3
.L1121:
	movq	$0, (%rsi)
	movq	8(%rsi), %rax
	xorl	%ecx, %ecx
	movq	%rbp, %rdx
	movl	$0, 16(%rsp)
	xorl	%edi, %edi
	movq	%rbx, 24(%rsp)
	call	*%rax
	movq	(%r15), %rsi
	testq	%rsi, %rsi
	je	.L1120
.L1123:
	movq	(%rsi), %rax
	movq	%rax, (%r15)
	testq	%rax, %rax
	jne	.L1121
	movq	$0, 8(%r15)
	jmp	.L1121
	.p2align 4,,10
	.p2align 3
.L1120:
	subq	$16, %r15
	cmpq	%r14, %r15
	jne	.L1124
	leaq	40(%r12), %rdi
	call	pthread_mutex_destroy@PLT
	movl	$152, %esi
	movq	%r12, %rdi
	call	_ZdlPvm@PLT
	testq	%r13, %r13
	jne	.L1125
.L1111:
	movq	40(%rsp), %rax
	subq	%fs:40, %rax
	jne	.L1158
	addq	$56, %rsp
	.cfi_remember_state
	.cfi_def_cfa_offset 56
	popq	%rbx
	.cfi_def_cfa_offset 48
	popq	%rbp
	.cfi_def_cfa_offset 40
	popq	%r12
	.cfi_def_cfa_offset 32
	popq	%r13
	.cfi_def_cfa_offset 24
	popq	%r14
	.cfi_def_cfa_offset 16
	popq	%r15
	.cfi_def_cfa_offset 8
	ret
.L1158:
	.cfi_restore_state
	call	__stack_chk_fail@PLT
	.cfi_endproc
.LFE7420:
	.section	.gcc_except_table
.LLSDA7420:
	.byte	0xff
	.byte	0xff
	.byte	0x1
	.uleb128 .LLSDACSE7420-.LLSDACSB7420
.LLSDACSB7420:
.LLSDACSE7420:
	.section	.text._ZN4asio6detail11object_poolINS0_13epoll_reactor16descriptor_stateEED2Ev,"axG",@progbits,_ZN4asio6detail11object_poolINS0_13epoll_reactor16descriptor_stateEED5Ev,comdat
	.size	_ZN4asio6detail11object_poolINS0_13epoll_reactor16descriptor_stateEED2Ev, .-_ZN4asio6detail11object_poolINS0_13epoll_reactor16descriptor_stateEED2Ev
	.weak	_ZN4asio6detail11object_poolINS0_13epoll_reactor16descriptor_stateEED1Ev
	.set	_ZN4asio6detail11object_poolINS0_13epoll_reactor16descriptor_stateEED1Ev,_ZN4asio6detail11object_poolINS0_13epoll_reactor16descriptor_stateEED2Ev
	.section	.text.unlikely._ZN4asio6detail15throw_exceptionISt12out_of_rangeEEvRKT_,"axG",@progbits,_ZN4asio6detail15throw_exceptionISt12out_of_rangeEEvRKT_,comdat
	.weak	_ZN4asio6detail15throw_exceptionISt12out_of_rangeEEvRKT_
	.type	_ZN4asio6detail15throw_exceptionISt12out_of_rangeEEvRKT_, @function
_ZN4asio6detail15throw_exceptionISt12out_of_rangeEEvRKT_:
.LFB7506:
	.cfi_startproc
	endbr64
	pushq	%r12
	.cfi_def_cfa_offset 16
	.cfi_offset 12, -16
	movq	%rdi, %r12
	movl	$16, %edi
	pushq	%rbp
	.cfi_def_cfa_offset 24
	.cfi_offset 6, -24
	pushq	%rax
	.cfi_def_cfa_offset 32
	call	__cxa_allocate_exception@PLT
	movq	%r12, %rsi
	movq	%rax, %rdi
	movq	%rax, %rbp
	call	_ZNSt11logic_errorC2ERKS_@PLT
	movq	_ZTVSt12out_of_range@GOTPCREL(%rip), %rax
	movq	_ZNSt12out_of_rangeD1Ev@GOTPCREL(%rip), %rdx
	movq	%rbp, %rdi
	movq	_ZTISt12out_of_range@GOTPCREL(%rip), %rsi
	addq	$16, %rax
	movq	%rax, 0(%rbp)
	call	__cxa_throw@PLT
	.cfi_endproc
.LFE7506:
	.size	_ZN4asio6detail15throw_exceptionISt12out_of_rangeEEvRKT_, .-_ZN4asio6detail15throw_exceptionISt12out_of_rangeEEvRKT_
	.section	.text._ZNSt7__cxx1115basic_stringbufIcSt11char_traitsIcESaIcEED2Ev,"axG",@progbits,_ZNSt7__cxx1115basic_stringbufIcSt11char_traitsIcESaIcEED5Ev,comdat
	.align 2
	.p2align 4
	.weak	_ZNSt7__cxx1115basic_stringbufIcSt11char_traitsIcESaIcEED2Ev
	.type	_ZNSt7__cxx1115basic_stringbufIcSt11char_traitsIcESaIcEED2Ev, @function
_ZNSt7__cxx1115basic_stringbufIcSt11char_traitsIcESaIcEED2Ev:
.LFB7589:
	.cfi_startproc
	endbr64
	movq	_ZTVNSt7__cxx1115basic_stringbufIcSt11char_traitsIcESaIcEEE@GOTPCREL(%rip), %rax
	pushq	%rbx
	.cfi_def_cfa_offset 16
	.cfi_offset 3, -16
	movq	%rdi, %rbx
	addq	$16, %rax
	movq	%rax, (%rdi)
	movq	72(%rdi), %rdi
	leaq	88(%rbx), %rax
	cmpq	%rax, %rdi
	je	.L1162
	movq	88(%rbx), %rax
	leaq	1(%rax), %rsi
	call	_ZdlPvm@PLT
.L1162:
	movq	_ZTVSt15basic_streambufIcSt11char_traitsIcEE@GOTPCREL(%rip), %rax
	leaq	56(%rbx), %rdi
	addq	$16, %rax
	movq	%rax, (%rbx)
	popq	%rbx
	.cfi_def_cfa_offset 8
	jmp	_ZNSt6localeD1Ev@PLT
	.cfi_endproc
.LFE7589:
	.size	_ZNSt7__cxx1115basic_stringbufIcSt11char_traitsIcESaIcEED2Ev, .-_ZNSt7__cxx1115basic_stringbufIcSt11char_traitsIcESaIcEED2Ev
	.weak	_ZNSt7__cxx1115basic_stringbufIcSt11char_traitsIcESaIcEED1Ev
	.set	_ZNSt7__cxx1115basic_stringbufIcSt11char_traitsIcESaIcEED1Ev,_ZNSt7__cxx1115basic_stringbufIcSt11char_traitsIcESaIcEED2Ev
	.section	.text._ZNSt7__cxx1115basic_stringbufIcSt11char_traitsIcESaIcEED0Ev,"axG",@progbits,_ZNSt7__cxx1115basic_stringbufIcSt11char_traitsIcESaIcEED5Ev,comdat
	.align 2
	.p2align 4
	.weak	_ZNSt7__cxx1115basic_stringbufIcSt11char_traitsIcESaIcEED0Ev
	.type	_ZNSt7__cxx1115basic_stringbufIcSt11char_traitsIcESaIcEED0Ev, @function
_ZNSt7__cxx1115basic_stringbufIcSt11char_traitsIcESaIcEED0Ev:
.LFB7591:
	.cfi_startproc
	endbr64
	movq	_ZTVNSt7__cxx1115basic_stringbufIcSt11char_traitsIcESaIcEEE@GOTPCREL(%rip), %rax
	pushq	%rbp
	.cfi_def_cfa_offset 16
	.cfi_offset 6, -16
	movq	%rdi, %rbp
	addq	$16, %rax
	movq	%rax, (%rdi)
	movq	72(%rdi), %rdi
	leaq	88(%rbp), %rax
	cmpq	%rax, %rdi
	je	.L1165
	movq	88(%rbp), %rax
	leaq	1(%rax), %rsi
	call	_ZdlPvm@PLT
.L1165:
	movq	_ZTVSt15basic_streambufIcSt11char_traitsIcEE@GOTPCREL(%rip), %rax
	leaq	56(%rbp), %rdi
	addq	$16, %rax
	movq	%rax, 0(%rbp)
	call	_ZNSt6localeD1Ev@PLT
	movq	%rbp, %rdi
	movl	$104, %esi
	popq	%rbp
	.cfi_def_cfa_offset 8
	jmp	_ZdlPvm@PLT
	.cfi_endproc
.LFE7591:
	.size	_ZNSt7__cxx1115basic_stringbufIcSt11char_traitsIcESaIcEED0Ev, .-_ZNSt7__cxx1115basic_stringbufIcSt11char_traitsIcESaIcEED0Ev
	.section	.rodata._ZNK4asio2ip6detail8endpoint9to_stringB5cxx11ERSt10error_code.str1.1,"aMS",@progbits,1
.LC32:
	.string	"%lu"
	.section	.text._ZNK4asio2ip6detail8endpoint9to_stringB5cxx11ERSt10error_code,"axG",@progbits,_ZNK4asio2ip6detail8endpoint9to_stringB5cxx11ERSt10error_code,comdat
	.align 2
	.p2align 4
	.weak	_ZNK4asio2ip6detail8endpoint9to_stringB5cxx11ERSt10error_code
	.type	_ZNK4asio2ip6detail8endpoint9to_stringB5cxx11ERSt10error_code, @function
_ZNK4asio2ip6detail8endpoint9to_stringB5cxx11ERSt10error_code:
.LFB5960:
	.cfi_startproc
	.cfi_personality 0x9b,DW.ref.__gxx_personality_v0
	.cfi_lsda 0x1b,.LLSDA5960
	endbr64
	pushq	%r15
	.cfi_def_cfa_offset 16
	.cfi_offset 15, -16
	pushq	%r14
	.cfi_def_cfa_offset 24
	.cfi_offset 14, -24
	pushq	%r13
	.cfi_def_cfa_offset 32
	.cfi_offset 13, -32
	movq	%rdx, %r13
	pushq	%r12
	.cfi_def_cfa_offset 40
	.cfi_offset 12, -40
	movq	%rdi, %r12
	pushq	%rbp
	.cfi_def_cfa_offset 48
	.cfi_offset 6, -48
	pushq	%rbx
	.cfi_def_cfa_offset 56
	.cfi_offset 3, -56
	movq	%rsi, %rbx
	subq	$616, %rsp
	.cfi_def_cfa_offset 672
	movq	%fs:40, %rax
	movq	%rax, 600(%rsp)
	movq	_ZTVNSt7__cxx1119basic_ostringstreamIcSt11char_traitsIcESaIcEEE@GOTPCREL(%rip), %rax
	leaq	24(%rax), %rcx
	movq	_ZTVSt15basic_streambufIcSt11char_traitsIcEE@GOTPCREL(%rip), %rax
	movq	%rcx, %xmm1
	movq	%rcx, (%rsp)
	addq	$16, %rax
	movq	%rax, %xmm2
	punpcklqdq	%xmm2, %xmm1
	movaps	%xmm1, 16(%rsp)
	call	__errno_location@PLT
	cmpw	$2, (%rbx)
	movq	%rax, %rbp
	je	.L1269
	movl	24(%rbx), %r14d
	movdqu	8(%rbx), %xmm4
	movl	$0, 0(%rbp)
	leaq	528(%rsp), %r15
	movq	.LC31(%rip), %rax
	leaq	120(%rsp), %rsi
	movl	$63, %ecx
	movq	%r15, %rdx
	movl	$10, %edi
	movl	%r14d, 32(%rsp)
	movq	%rax, 112(%rsp)
	movq	%r14, 136(%rsp)
	movups	%xmm4, 120(%rsp)
	call	inet_ntop@PLT
	movq	_ZGVZN4asio15system_categoryEvE8instance@GOTPCREL(%rip), %r8
	movq	%rax, %r9
	movzbl	(%r8), %eax
	testb	%al, %al
	je	.L1171
.L1259:
	movq	_ZZN4asio15system_categoryEvE8instance@GOTPCREL(%rip), %rcx
.L1172:
	movl	0(%rbp), %eax
	movq	%rcx, 8(%r13)
	movl	%eax, 0(%r13)
	testq	%r9, %r9
	je	.L1268
	testq	%r14, %r14
	je	.L1184
	movzbl	120(%rsp), %eax
	movb	$0, 512(%rsp)
	movq	$37, 496(%rsp)
	movq	$0, 504(%rsp)
	cmpb	$-2, %al
	je	.L1270
	cmpb	$-1, %al
	jne	.L1260
	movzbl	121(%rsp), %eax
	leaq	497(%rsp), %rbp
	andl	$15, %eax
	cmpb	$2, %al
	je	.L1181
.L1183:
	movq	%r14, %r8
	leaq	.LC32(%rip), %rcx
	movq	%rbp, %rdi
	xorl	%eax, %eax
	movl	$16, %edx
	movl	$1, %esi
	movq	%r9, 32(%rsp)
	call	__sprintf_chk@PLT
	movq	32(%rsp), %r9
.L1182:
	leaq	496(%rsp), %rsi
	movl	$63, %edx
	movq	%r15, %rdi
	movq	%r9, 32(%rsp)
	call	__strcat_chk@PLT
	movq	32(%rsp), %r9
.L1184:
	movq	%r9, %rdi
	leaq	96(%rsp), %rbp
	movq	%r9, 32(%rsp)
	leaq	80(%rsp), %r14
	movq	%rbp, 80(%rsp)
	call	strlen@PLT
	movq	32(%rsp), %r9
	cmpq	$15, %rax
	movq	%rax, 72(%rsp)
	movq	%rax, %r15
	ja	.L1271
	cmpq	$1, %rax
	jne	.L1186
	movzbl	(%r9), %edx
	movb	%dl, 96(%rsp)
	movq	%rbp, %rdx
	jmp	.L1197
	.p2align 4,,10
	.p2align 3
.L1269:
	movl	4(%rbx), %eax
	movl	$0, 0(%rbp)
	pxor	%xmm0, %xmm0
	leaq	528(%rsp), %rdx
	leaq	116(%rsp), %rsi
	movl	$16, %ecx
	movl	$2, %edi
	movl	$0, 112(%rsp)
	movl	%eax, 116(%rsp)
	movq	$0, 136(%rsp)
	movups	%xmm0, 120(%rsp)
	call	inet_ntop@PLT
	movq	_ZGVZN4asio15system_categoryEvE8instance@GOTPCREL(%rip), %r8
	movq	%rax, %r15
	movzbl	(%r8), %eax
	testb	%al, %al
	je	.L1169
.L1261:
	movq	_ZZN4asio15system_categoryEvE8instance@GOTPCREL(%rip), %rcx
.L1170:
	movl	0(%rbp), %eax
	movq	%rcx, 8(%r13)
	movl	%eax, 0(%r13)
	testq	%r15, %r15
	je	.L1268
	leaq	96(%rsp), %rbp
	movq	%r15, %rdi
	leaq	80(%rsp), %r14
	movq	%rbp, 80(%rsp)
	call	strlen@PLT
	movq	%rax, 72(%rsp)
	movq	%rax, %r8
	cmpq	$15, %rax
	ja	.L1272
	cmpq	$1, %rax
	jne	.L1196
	movzbl	(%r15), %edx
	movb	%dl, 96(%rsp)
	movq	%rbp, %rdx
.L1197:
	movq	%rax, 88(%rsp)
	movb	$0, (%rdx,%rax)
	movl	0(%r13), %eax
	testl	%eax, %eax
	jne	.L1179
.L1198:
	leaq	224(%rsp), %r13
	leaq	112(%rsp), %r14
	movq	%r13, %rdi
	call	_ZNSt8ios_baseC2Ev@PLT
	movq	_ZTVSt9basic_iosIcSt11char_traitsIcEE@GOTPCREL(%rip), %rax
	pxor	%xmm0, %xmm0
	xorl	%esi, %esi
	movups	%xmm0, 456(%rsp)
	addq	$16, %rax
	movups	%xmm0, 472(%rsp)
	movq	%rax, 224(%rsp)
	xorl	%eax, %eax
	movw	%ax, 448(%rsp)
	movq	_ZTTNSt7__cxx1119basic_ostringstreamIcSt11char_traitsIcESaIcEEE@GOTPCREL(%rip), %rax
	movq	$0, 440(%rsp)
	movq	8(%rax), %rdx
	movq	16(%rax), %rax
	movq	-24(%rdx), %rdi
	movq	%rdx, 112(%rsp)
	movq	%rdx, 32(%rsp)
	addq	%r14, %rdi
	movq	%rax, 40(%rsp)
	movq	%rax, (%rdi)
.LEHB28:
	call	_ZNSt9basic_iosIcSt11char_traitsIcEE4initEPSt15basic_streambufIcS1_E@PLT
.LEHE28:
	movq	_ZTVNSt7__cxx1119basic_ostringstreamIcSt11char_traitsIcESaIcEEE@GOTPCREL(%rip), %rax
	movdqa	16(%rsp), %xmm5
	pxor	%xmm0, %xmm0
	leaq	120(%rsp), %r15
	movaps	%xmm0, 128(%rsp)
	addq	$64, %rax
	movaps	%xmm5, 112(%rsp)
	movq	%rax, 224(%rsp)
	leaq	176(%rsp), %rax
	movq	%rax, %rdi
	movq	%rax, 48(%rsp)
	movaps	%xmm0, 144(%rsp)
	movaps	%xmm0, 160(%rsp)
	call	_ZNSt6localeC1Ev@PLT
	movq	_ZTVNSt7__cxx1115basic_stringbufIcSt11char_traitsIcESaIcEEE@GOTPCREL(%rip), %rax
	movq	%r15, %rsi
	movq	%r13, %rdi
	movl	$16, 184(%rsp)
	addq	$16, %rax
	movb	$0, 208(%rsp)
	movq	%rax, 120(%rsp)
	leaq	208(%rsp), %rax
	movq	%rax, 16(%rsp)
	movq	%rax, 192(%rsp)
	movq	$0, 200(%rsp)
.LEHB29:
	call	_ZNSt9basic_iosIcSt11char_traitsIcEE4initEPSt15basic_streambufIcS1_E@PLT
.LEHE29:
.LEHB30:
	call	_ZNSt6locale7classicEv@PLT
	leaq	72(%rsp), %r15
	movq	%rax, %rdx
	movq	%r13, %rsi
	movq	%r15, %rdi
	call	_ZNSt9basic_iosIcSt11char_traitsIcEE5imbueERKSt6locale@PLT
	movq	%r15, %rdi
	call	_ZNSt6localeD1Ev@PLT
	cmpw	$2, (%rbx)
	je	.L1273
	leaq	69(%rsp), %rsi
	movl	$1, %edx
	movq	%r14, %rdi
	movb	$91, 69(%rsp)
	call	_ZSt16__ostream_insertIcSt11char_traitsIcEERSt13basic_ostreamIT_T0_ES6_PKS3_l@PLT
	movq	88(%rsp), %rdx
	movq	80(%rsp), %rsi
	movq	%rax, %rdi
	call	_ZSt16__ostream_insertIcSt11char_traitsIcEERSt13basic_ostreamIT_T0_ES6_PKS3_l@PLT
	movq	%rax, %rdi
	leaq	70(%rsp), %rsi
	movl	$1, %edx
	movb	$93, 70(%rsp)
	call	_ZSt16__ostream_insertIcSt11char_traitsIcEERSt13basic_ostreamIT_T0_ES6_PKS3_l@PLT
.L1205:
	leaq	71(%rsp), %rsi
	movl	$1, %edx
	movq	%r14, %rdi
	movb	$58, 71(%rsp)
	call	_ZSt16__ostream_insertIcSt11char_traitsIcEERSt13basic_ostreamIT_T0_ES6_PKS3_l@PLT
	movq	%rax, %rdi
	movq	_ZTVNSt7__cxx1115basic_stringbufIcSt11char_traitsIcESaIcEEE@GOTPCREL(%rip), %rax
	movzwl	2(%rbx), %esi
	movq	(%rsp), %xmm3
	addq	$16, %rax
	rolw	$8, %si
	movq	%rax, %xmm6
	movzwl	%si, %esi
	punpcklqdq	%xmm6, %xmm3
	movaps	%xmm3, (%rsp)
	call	_ZNSo9_M_insertImEERSoT_@PLT
.LEHE30:
	movq	160(%rsp), %rax
	leaq	16(%r12), %rbx
	movq	$0, 8(%r12)
	movq	%rbx, (%r12)
	movb	$0, 16(%r12)
	testq	%rax, %rax
	je	.L1206
	movq	144(%rsp), %r8
	testq	%r8, %r8
	je	.L1232
	cmpq	%r8, %rax
	ja	.L1232
.L1207:
	movq	152(%rsp), %rcx
	xorl	%edx, %edx
	xorl	%esi, %esi
	movq	%r12, %rdi
	subq	%rcx, %r8
.LEHB31:
	call	_ZNSt7__cxx1112basic_stringIcSt11char_traitsIcESaIcEE10_M_replaceEmmPKcm@PLT
.LEHE31:
.L1209:
	movq	_ZTVNSt7__cxx1119basic_ostringstreamIcSt11char_traitsIcESaIcEEE@GOTPCREL(%rip), %rax
	movdqa	(%rsp), %xmm7
	movq	192(%rsp), %rdi
	addq	$64, %rax
	movaps	%xmm7, 112(%rsp)
	movq	%rax, 224(%rsp)
	cmpq	16(%rsp), %rdi
	je	.L1211
	movq	208(%rsp), %rax
	leaq	1(%rax), %rsi
	call	_ZdlPvm@PLT
.L1211:
	movq	_ZTVSt15basic_streambufIcSt11char_traitsIcEE@GOTPCREL(%rip), %rax
	movq	48(%rsp), %rdi
	addq	$16, %rax
	movq	%rax, 120(%rsp)
	call	_ZNSt6localeD1Ev@PLT
	movq	32(%rsp), %rax
	movq	40(%rsp), %rbx
	movq	%r13, %rdi
	movq	%rax, 112(%rsp)
	movq	-24(%rax), %rax
	movq	%rbx, 112(%rsp,%rax)
	movq	_ZTVSt9basic_iosIcSt11char_traitsIcEE@GOTPCREL(%rip), %rax
	addq	$16, %rax
	movq	%rax, 224(%rsp)
	call	_ZNSt8ios_baseD2Ev@PLT
	jmp	.L1199
	.p2align 4,,10
	.p2align 3
.L1169:
	movq	%r8, %rdi
	movq	%r8, 32(%rsp)
	call	__cxa_guard_acquire@PLT
	movq	32(%rsp), %r8
	testl	%eax, %eax
	je	.L1261
	movq	_ZZN4asio15system_categoryEvE8instance@GOTPCREL(%rip), %rcx
	movq	_ZN4asio6detail15system_categoryD1Ev@GOTPCREL(%rip), %rdi
	movq	%r8, 32(%rsp)
	leaq	__dso_handle(%rip), %rdx
	movq	%rcx, %rsi
	movq	%rcx, 40(%rsp)
	call	__cxa_atexit@PLT
	movq	32(%rsp), %rdi
	call	__cxa_guard_release@PLT
	movq	40(%rsp), %rcx
	movq	32(%rsp), %r8
	jmp	.L1170
	.p2align 4,,10
	.p2align 3
.L1268:
	testl	%eax, %eax
	je	.L1274
	leaq	96(%rsp), %rbp
	movb	$0, 96(%rsp)
	movq	%rbp, 80(%rsp)
	movq	$0, 88(%rsp)
	testl	%eax, %eax
	je	.L1198
.L1179:
	leaq	16(%r12), %rax
	movb	$0, 16(%r12)
	movq	%rax, (%r12)
	movq	$0, 8(%r12)
.L1199:
	movq	80(%rsp), %rdi
	cmpq	%rbp, %rdi
	je	.L1167
	movq	96(%rsp), %rax
	leaq	1(%rax), %rsi
	call	_ZdlPvm@PLT
.L1167:
	movq	600(%rsp), %rax
	subq	%fs:40, %rax
	jne	.L1275
	addq	$616, %rsp
	.cfi_remember_state
	.cfi_def_cfa_offset 56
	movq	%r12, %rax
	popq	%rbx
	.cfi_def_cfa_offset 48
	popq	%rbp
	.cfi_def_cfa_offset 40
	popq	%r12
	.cfi_def_cfa_offset 32
	popq	%r13
	.cfi_def_cfa_offset 24
	popq	%r14
	.cfi_def_cfa_offset 16
	popq	%r15
	.cfi_def_cfa_offset 8
	ret
	.p2align 4,,10
	.p2align 3
.L1196:
	.cfi_restore_state
	testq	%r8, %r8
	jne	.L1276
.L1227:
	movq	%rbp, %rdx
	jmp	.L1197
	.p2align 4,,10
	.p2align 3
.L1232:
	movq	%rax, %r8
	jmp	.L1207
	.p2align 4,,10
	.p2align 3
.L1272:
	movq	%r14, %rdi
	leaq	72(%rsp), %rsi
	xorl	%edx, %edx
	movq	%r8, 32(%rsp)
.LEHB32:
	call	_ZNSt7__cxx1112basic_stringIcSt11char_traitsIcESaIcEE9_M_createERmm@PLT
.LEHE32:
	movq	32(%rsp), %r8
	movq	%rax, 80(%rsp)
	movq	%rax, %rdi
	movq	72(%rsp), %rax
	movq	%rax, 96(%rsp)
.L1195:
	movq	%r8, %rdx
	movq	%r15, %rsi
	call	memcpy@PLT
	movq	72(%rsp), %rax
	movq	80(%rsp), %rdx
	jmp	.L1197
	.p2align 4,,10
	.p2align 3
.L1171:
	movq	%r8, %rdi
	movq	%r9, 48(%rsp)
	movq	%r8, 40(%rsp)
	call	__cxa_guard_acquire@PLT
	movq	40(%rsp), %r8
	movq	48(%rsp), %r9
	testl	%eax, %eax
	je	.L1259
	movq	_ZZN4asio15system_categoryEvE8instance@GOTPCREL(%rip), %rcx
	movq	_ZN4asio6detail15system_categoryD1Ev@GOTPCREL(%rip), %rdi
	movq	%r8, 40(%rsp)
	leaq	__dso_handle(%rip), %rdx
	movq	%r9, 56(%rsp)
	movq	%rcx, %rsi
	movq	%rcx, 48(%rsp)
	call	__cxa_atexit@PLT
	movq	40(%rsp), %rdi
	call	__cxa_guard_release@PLT
	movq	56(%rsp), %r9
	movq	48(%rsp), %rcx
	movq	40(%rsp), %r8
	jmp	.L1172
	.p2align 4,,10
	.p2align 3
.L1273:
	movq	88(%rsp), %rdx
	movq	80(%rsp), %rsi
	movq	%r14, %rdi
.LEHB33:
	call	_ZSt16__ostream_insertIcSt11char_traitsIcEERSt13basic_ostreamIT_T0_ES6_PKS3_l@PLT
.LEHE33:
	jmp	.L1205
	.p2align 4,,10
	.p2align 3
.L1274:
	movzbl	(%r8), %eax
	testb	%al, %al
	je	.L1277
.L1193:
	leaq	96(%rsp), %rbp
	movl	$22, 0(%r13)
	movq	%rcx, 8(%r13)
	movb	$0, 96(%rsp)
	movq	%rbp, 80(%rsp)
	movq	$0, 88(%rsp)
	jmp	.L1179
	.p2align 4,,10
	.p2align 3
.L1206:
	leaq	192(%rsp), %rsi
	movq	%r12, %rdi
.LEHB34:
	call	_ZNSt7__cxx1112basic_stringIcSt11char_traitsIcESaIcEE9_M_assignERKS4_@PLT
.LEHE34:
	jmp	.L1209
	.p2align 4,,10
	.p2align 3
.L1186:
	testq	%r15, %r15
	je	.L1227
	movq	%rbp, %rdi
	jmp	.L1185
	.p2align 4,,10
	.p2align 3
.L1271:
	movq	%r14, %rdi
	leaq	72(%rsp), %rsi
	xorl	%edx, %edx
	movq	%r9, 32(%rsp)
.LEHB35:
	call	_ZNSt7__cxx1112basic_stringIcSt11char_traitsIcESaIcEE9_M_createERmm@PLT
	movq	32(%rsp), %r9
	movq	%rax, 80(%rsp)
	movq	%rax, %rdi
	movq	72(%rsp), %rax
	movq	%rax, 96(%rsp)
.L1185:
	movq	%r15, %rdx
	movq	%r9, %rsi
	call	memcpy@PLT
	movq	72(%rsp), %rax
	movq	80(%rsp), %rdx
	jmp	.L1197
	.p2align 4,,10
	.p2align 3
.L1270:
	movzbl	121(%rsp), %eax
	andl	$-64, %eax
	cmpb	$-128, %al
	je	.L1181
.L1260:
	leaq	497(%rsp), %rbp
	jmp	.L1183
	.p2align 4,,10
	.p2align 3
.L1181:
	movl	32(%rsp), %edi
	leaq	497(%rsp), %rbp
	movq	%r9, 40(%rsp)
	movq	%rbp, %rsi
	call	if_indextoname@PLT
	movq	40(%rsp), %r9
	testq	%rax, %rax
	jne	.L1182
	jmp	.L1183
	.p2align 4,,10
	.p2align 3
.L1277:
	movq	%r8, %rdi
	movq	%rcx, 16(%rsp)
	movq	%r8, (%rsp)
	call	__cxa_guard_acquire@PLT
	movq	(%rsp), %r8
	movq	16(%rsp), %rcx
	testl	%eax, %eax
	je	.L1193
	movq	_ZN4asio6detail15system_categoryD1Ev@GOTPCREL(%rip), %rdi
	movq	%rcx, %rsi
	leaq	__dso_handle(%rip), %rdx
	movq	%rcx, (%rsp)
	movq	%r8, 16(%rsp)
	call	__cxa_atexit@PLT
	movq	16(%rsp), %rdi
	call	__cxa_guard_release@PLT
	movq	(%rsp), %rcx
	jmp	.L1193
.L1275:
	call	__stack_chk_fail@PLT
.L1276:
	movq	%rbp, %rdi
	jmp	.L1195
.L1229:
	endbr64
	movq	%rax, %rbx
	jmp	.L1202
.L1231:
	endbr64
	movq	%rax, %r13
	jmp	.L1212
.L1201:
	movq	%r15, %rdi
	call	_ZNSt7__cxx1115basic_stringbufIcSt11char_traitsIcESaIcEED1Ev@PLT
	movq	32(%rsp), %rax
	movq	40(%rsp), %rcx
	movq	%rax, 112(%rsp)
	movq	-24(%rax), %rax
	movq	%rcx, 112(%rsp,%rax)
.L1202:
	movq	_ZTVSt9basic_iosIcSt11char_traitsIcEE@GOTPCREL(%rip), %rax
	movq	%r13, %rdi
	movq	%rbx, %r12
	addq	$16, %rax
	movq	%rax, 224(%rsp)
	call	_ZNSt8ios_baseD2Ev@PLT
.L1203:
	movq	80(%rsp), %rdi
	cmpq	%rbp, %rdi
	je	.L1216
	movq	96(%rsp), %rax
	leaq	1(%rax), %rsi
	call	_ZdlPvm@PLT
.L1216:
	movq	%r12, %rdi
	call	_Unwind_Resume@PLT
.LEHE35:
.L1212:
	movq	(%r12), %rdi
	cmpq	%rdi, %rbx
	je	.L1213
	movq	16(%r12), %rsi
	addq	$1, %rsi
	call	_ZdlPvm@PLT
.L1213:
	movq	%r13, %r12
.L1214:
	movq	%r14, %rdi
	call	_ZNSt7__cxx1119basic_ostringstreamIcSt11char_traitsIcESaIcEED1Ev@PLT
	jmp	.L1203
.L1230:
	endbr64
	movq	%rax, %rbx
	jmp	.L1201
.L1228:
	endbr64
	movq	%rax, %r12
	jmp	.L1214
	.cfi_endproc
.LFE5960:
	.section	.gcc_except_table
.LLSDA5960:
	.byte	0xff
	.byte	0xff
	.byte	0x1
	.uleb128 .LLSDACSE5960-.LLSDACSB5960
.LLSDACSB5960:
	.uleb128 .LEHB28-.LFB5960
	.uleb128 .LEHE28-.LEHB28
	.uleb128 .L1229-.LFB5960
	.uleb128 0
	.uleb128 .LEHB29-.LFB5960
	.uleb128 .LEHE29-.LEHB29
	.uleb128 .L1230-.LFB5960
	.uleb128 0
	.uleb128 .LEHB30-.LFB5960
	.uleb128 .LEHE30-.LEHB30
	.uleb128 .L1228-.LFB5960
	.uleb128 0
	.uleb128 .LEHB31-.LFB5960
	.uleb128 .LEHE31-.LEHB31
	.uleb128 .L1231-.LFB5960
	.uleb128 0
	.uleb128 .LEHB32-.LFB5960
	.uleb128 .LEHE32-.LEHB32
	.uleb128 0
	.uleb128 0
	.uleb128 .LEHB33-.LFB5960
	.uleb128 .LEHE33-.LEHB33
	.uleb128 .L1228-.LFB5960
	.uleb128 0
	.uleb128 .LEHB34-.LFB5960
	.uleb128 .LEHE34-.LEHB34
	.uleb128 .L1231-.LFB5960
	.uleb128 0
	.uleb128 .LEHB35-.LFB5960
	.uleb128 .LEHE35-.LEHB35
	.uleb128 0
	.uleb128 0
.LLSDACSE5960:
	.section	.text._ZNK4asio2ip6detail8endpoint9to_stringB5cxx11ERSt10error_code,"axG",@progbits,_ZNK4asio2ip6detail8endpoint9to_stringB5cxx11ERSt10error_code,comdat
	.size	_ZNK4asio2ip6detail8endpoint9to_stringB5cxx11ERSt10error_code, .-_ZNK4asio2ip6detail8endpoint9to_stringB5cxx11ERSt10error_code
	.section	.rodata.str1.1,"aMS",@progbits,1
.LC33:
	.string	"Listening on: %s"
	.section	.rodata.str1.8
	.align 8
.LC34:
	.string	"/home/saptarshi/Desktop/OpenPLC61850/utils/dnp3_src/cpp/libs/src/asiopal/TCPServer.cpp(98)"
	.section	.text.unlikely
	.align 2
.LCOLDB35:
	.text
.LHOTB35:
	.align 2
	.p2align 4
	.globl	_ZN7asiopal9TCPServer9ConfigureERKNSt7__cxx1112basic_stringIcSt11char_traitsIcESaIcEEERSt10error_code
	.type	_ZN7asiopal9TCPServer9ConfigureERKNSt7__cxx1112basic_stringIcSt11char_traitsIcESaIcEEERSt10error_code, @function
_ZN7asiopal9TCPServer9ConfigureERKNSt7__cxx1112basic_stringIcSt11char_traitsIcESaIcEEERSt10error_code:
.LFB7073:
	.cfi_startproc
	.cfi_personality 0x9b,DW.ref.__gxx_personality_v0
	.cfi_lsda 0x1b,.LLSDA7073
	endbr64
	pushq	%r15
	.cfi_def_cfa_offset 16
	.cfi_offset 15, -16
	pxor	%xmm0, %xmm0
	pushq	%r14
	.cfi_def_cfa_offset 24
	.cfi_offset 14, -24
	pushq	%r13
	.cfi_def_cfa_offset 32
	.cfi_offset 13, -32
	movq	%rdi, %r13
	pushq	%r12
	.cfi_def_cfa_offset 40
	.cfi_offset 12, -40
	pushq	%rbp
	.cfi_def_cfa_offset 48
	.cfi_offset 6, -48
	pushq	%rbx
	.cfi_def_cfa_offset 56
	.cfi_offset 3, -56
	movq	%rdx, %rbx
	subq	$728, %rsp
	.cfi_def_cfa_offset 784
	movq	(%rsi), %r14
	movq	%fs:40, %rax
	movq	%rax, 712(%rsp)
	xorl	%eax, %eax
	movaps	%xmm0, 208(%rsp)
	movq	$0, 224(%rsp)
	call	__errno_location@PLT
	movl	$37, %esi
	movq	%r14, %rdi
	movl	$0, (%rax)
	movq	%rax, %rbp
	call	strchr@PLT
	movq	%rax, %r15
	testq	%rax, %rax
	je	.L1403
	movq	%rax, %r12
	subq	%r14, %r12
	cmpq	$63, %r12
	jg	.L1502
	movq	%r14, %rsi
	leaq	592(%rsp), %rdi
	movl	$64, %ecx
	movq	%r12, %rdx
	call	__memcpy_chk@PLT
	movb	$0, 592(%rsp,%r12)
	movq	%rax, %rsi
.L1279:
	leaq	208(%rsp), %rdx
	movl	$10, %edi
	call	inet_pton@PLT
	movq	_ZGVZN4asio15system_categoryEvE8instance@GOTPCREL(%rip), %r12
	movl	%eax, %ecx
	movzbl	(%r12), %eax
	testb	%al, %al
	je	.L1285
.L1492:
	movq	_ZZN4asio15system_categoryEvE8instance@GOTPCREL(%rip), %rax
	movq	%rax, (%rsp)
.L1286:
	movl	0(%rbp), %edx
	movq	%rax, 8(%rbx)
	movl	%edx, (%rbx)
	testl	%ecx, %ecx
	jle	.L1503
	movq	$0, 224(%rsp)
	xorl	%eax, %eax
	testq	%r15, %r15
	je	.L1295
	movzbl	208(%rsp), %eax
	cmpb	$-2, %al
	je	.L1504
	cmpb	$-1, %al
	jne	.L1493
	movzbl	209(%rsp), %eax
	leaq	1(%r15), %rdi
	andl	$15, %eax
	cmpb	$2, %al
	je	.L1294
.L1296:
	movl	$10, %edx
	xorl	%esi, %esi
	call	strtol@PLT
	movl	(%rbx), %edx
	cltq
.L1295:
	movdqa	208(%rsp), %xmm0
	movaps	%xmm0, 176(%rsp)
	testl	%edx, %edx
	jne	.L1284
	movzwl	74(%r13), %edx
	leaq	72(%r13), %rcx
	movl	%eax, 96(%r13)
	movl	$10, %r14d
	movq	%rcx, 32(%rsp)
	movq	128(%r13), %r15
	sall	$16, %edx
	movl	$0, 76(%r13)
	orl	$10, %edx
	cmpl	$-1, 104(%r13)
	movups	%xmm0, 80(%r13)
	movl	%edx, 72(%r13)
	movups	%xmm0, 216(%rsp)
	movups	%xmm0, 152(%rsp)
	je	.L1308
.L1508:
	movq	_ZGVZN4asio5error17get_misc_categoryEvE8instance@GOTPCREL(%rip), %rbp
	movzbl	0(%rbp), %eax
	testb	%al, %al
	je	.L1309
.L1494:
	movq	_ZZN4asio5error17get_misc_categoryEvE8instance@GOTPCREL(%rip), %r12
.L1310:
	movl	$1, (%rbx)
	movq	%r12, 8(%rbx)
.L1278:
	movq	712(%rsp), %rax
	subq	%fs:40, %rax
	jne	.L1505
	addq	$728, %rsp
	.cfi_remember_state
	.cfi_def_cfa_offset 56
	popq	%rbx
	.cfi_def_cfa_offset 48
	popq	%rbp
	.cfi_def_cfa_offset 40
	popq	%r12
	.cfi_def_cfa_offset 32
	popq	%r13
	.cfi_def_cfa_offset 24
	popq	%r14
	.cfi_def_cfa_offset 16
	popq	%r15
	.cfi_def_cfa_offset 8
	ret
	.p2align 4,,10
	.p2align 3
.L1502:
	.cfi_restore_state
	movq	_ZGVZN4asio15system_categoryEvE8instance@GOTPCREL(%rip), %r12
	movzbl	(%r12), %eax
	testb	%al, %al
	je	.L1281
.L1491:
	movq	_ZZN4asio15system_categoryEvE8instance@GOTPCREL(%rip), %rax
	movq	%rax, (%rsp)
.L1282:
	movl	$22, (%rbx)
	movq	%rax, 8(%rbx)
.L1284:
	movl	$0, 0(%rbp)
	movq	%r14, %rsi
	leaq	96(%rsp), %rdx
	movl	$2, %edi
	movl	$0, 96(%rsp)
	call	inet_pton@PLT
	movl	%eax, %r14d
	movzbl	(%r12), %eax
	testb	%al, %al
	je	.L1506
.L1300:
	movl	0(%rbp), %eax
	movq	(%rsp), %rcx
	movl	%eax, (%rbx)
	movq	%rcx, 8(%rbx)
	testl	%r14d, %r14d
	jle	.L1507
	movl	96(%rsp), %edx
	testl	%eax, %eax
	jne	.L1278
	leaq	72(%r13), %rax
	pxor	%xmm0, %xmm0
	movl	%edx, 76(%r13)
	movq	128(%r13), %r15
	movq	%rax, 32(%rsp)
	movzwl	74(%r13), %eax
	movl	$2, %r14d
	movl	$0, 96(%r13)
	sall	$16, %eax
	movups	%xmm0, 80(%r13)
	orl	$2, %eax
	cmpl	$-1, 104(%r13)
	movl	%eax, 72(%r13)
	jne	.L1508
.L1308:
	movl	$0, 0(%rbp)
	movl	$6, %edx
	movl	$1, %esi
	movl	%r14d, %edi
	call	socket@PLT
	movl	%eax, 16(%rsp)
	movzbl	(%r12), %eax
	testb	%al, %al
	je	.L1509
.L1313:
	movq	(%rsp), %rcx
	movl	0(%rbp), %eax
	movq	%rcx, 8(%rbx)
	movl	16(%rsp), %ecx
	movl	%eax, (%rbx)
	testl	%ecx, %ecx
	js	.L1315
	call	_ZNSt3_V215system_categoryEv@PLT
	movl	16(%rsp), %ecx
	movl	$0, (%rbx)
	movq	%rax, 8(%rbx)
	movl	%ecx, 92(%rsp)
.L1316:
	movq	40(%r15), %r15
	leaq	120(%r15), %rax
	movq	%r15, 40(%rsp)
	movq	%rax, %rdi
	movq	%rax, 48(%rsp)
	call	pthread_mutex_lock@PLT
	movq	%r15, %rcx
	movq	168(%r15), %r15
	testq	%r15, %r15
	je	.L1318
	movq	24(%r15), %rax
	leaq	40(%r15), %r8
	movq	%rax, 168(%rcx)
.L1319:
	movq	40(%rsp), %rsi
	movq	160(%rsi), %rax
	movq	$0, 32(%r15)
	movq	%rax, 24(%r15)
	movq	160(%rsi), %rax
	testq	%rax, %rax
	je	.L1326
	movq	%r15, 32(%rax)
.L1326:
	movq	40(%rsp), %rax
	movq	48(%rsp), %rdi
	movq	%r8, 56(%rsp)
	movq	%r15, 160(%rax)
	call	pthread_mutex_unlock@PLT
	movq	56(%rsp), %r8
	movq	%r15, 112(%r13)
	leaq	96(%rsp), %r15
	movq	%r8, %rdi
	movq	%r8, 48(%rsp)
	call	pthread_mutex_lock@PLT
	movq	112(%r13), %rax
	movq	40(%rsp), %rcx
	movl	16(%rsp), %esi
	movq	48(%rsp), %rdi
	movq	%rcx, 80(%rax)
	movl	%esi, 88(%rax)
	movb	$0, 144(%rax)
	call	pthread_mutex_unlock@PLT
	movq	112(%r13), %rax
	movq	40(%rsp), %rcx
	movl	$-2147483621, 96(%rsp)
	movl	16(%rsp), %edx
	movl	$1, %esi
	movl	$-2147483621, 92(%rax)
	movq	%rax, 100(%rsp)
	movl	96(%rcx), %edi
	movq	%r15, %rcx
	call	epoll_ctl@PLT
	testl	%eax, %eax
	jne	.L1510
.L1328:
	movl	16(%rsp), %eax
	movb	$16, 108(%r13)
	movl	%eax, 104(%r13)
	call	_ZNSt3_V215system_categoryEv@PLT
	movl	$0, (%rbx)
	movq	%rax, 8(%rbx)
.L1334:
	movl	%r14d, 120(%r13)
.L1496:
	movq	_ZTVNSt7__cxx1119basic_ostringstreamIcSt11char_traitsIcESaIcEEE@GOTPCREL(%rip), %rcx
	movq	_ZTVSt15basic_streambufIcSt11char_traitsIcEE@GOTPCREL(%rip), %rsi
	movl	(%rbx), %eax
	addq	$24, %rcx
	leaq	16(%rsi), %rdx
	movq	%rcx, %xmm1
	movq	%rdx, %xmm2
	movq	%rcx, 40(%rsp)
	punpcklqdq	%xmm2, %xmm1
	movaps	%xmm1, 16(%rsp)
	testl	%eax, %eax
	jne	.L1278
	movl	104(%r13), %edi
	movl	$1, 96(%rsp)
	cmpl	$-1, %edi
	je	.L1497
	leaq	96(%rsp), %r15
	movl	$4, %r8d
	movl	$2, %edx
	movl	$0, 0(%rbp)
	movq	%r15, %rcx
	movl	$1, %esi
	call	setsockopt@PLT
	movl	%eax, %r14d
	movzbl	(%r12), %eax
	testb	%al, %al
	je	.L1511
.L1352:
	movl	0(%rbp), %eax
	movq	(%rsp), %rcx
	movl	%eax, (%rbx)
	movq	%rcx, 8(%rbx)
	testl	%r14d, %r14d
	jne	.L1354
	call	_ZNSt3_V215system_categoryEv@PLT
	movl	$0, (%rbx)
	movq	%rax, 8(%rbx)
.L1355:
	movl	104(%r13), %edi
	cmpw	$2, 72(%r13)
	movl	$16, %edx
	movl	$28, %eax
	cmovne	%eax, %edx
	cmpl	$-1, %edi
	je	.L1497
	movl	$0, 0(%rbp)
	movq	32(%rsp), %rsi
	call	bind@PLT
	movl	%eax, %r14d
	movzbl	(%r12), %eax
	testb	%al, %al
	je	.L1512
.L1359:
	movl	0(%rbp), %eax
	movq	(%rsp), %rcx
	movl	%eax, (%rbx)
	movq	%rcx, 8(%rbx)
	testl	%r14d, %r14d
	jne	.L1361
	call	_ZNSt3_V215system_categoryEv@PLT
	movl	$0, (%rbx)
	movq	%rax, 8(%rbx)
.L1362:
	movl	104(%r13), %edi
	cmpl	$-1, %edi
	je	.L1497
	movl	$0, 0(%rbp)
	movl	$4096, %esi
	call	listen@PLT
	movl	%eax, %r14d
	movzbl	(%r12), %eax
	testb	%al, %al
	je	.L1513
.L1365:
	movl	0(%rbp), %eax
	movq	(%rsp), %rcx
	movl	%eax, (%rbx)
	movq	%rcx, 8(%rbx)
	testl	%r14d, %r14d
	jne	.L1367
	call	_ZNSt3_V215system_categoryEv@PLT
	movl	$0, (%rbx)
	movq	%rax, 8(%rbx)
.L1368:
	leaq	320(%rsp), %rbx
	leaq	208(%rsp), %r14
	movq	%rbx, %rdi
	movq	%rbx, 56(%rsp)
	call	_ZNSt8ios_baseC2Ev@PLT
	movq	_ZTVSt9basic_iosIcSt11char_traitsIcEE@GOTPCREL(%rip), %rax
	xorl	%edx, %edx
	xorl	%esi, %esi
	pxor	%xmm0, %xmm0
	movw	%dx, 544(%rsp)
	addq	$16, %rax
	movups	%xmm0, 552(%rsp)
	movq	%rax, 320(%rsp)
	movq	_ZTTNSt7__cxx1119basic_ostringstreamIcSt11char_traitsIcESaIcEEE@GOTPCREL(%rip), %rax
	movups	%xmm0, 568(%rsp)
	movq	$0, 536(%rsp)
	movq	8(%rax), %rcx
	movq	16(%rax), %rax
	movq	-24(%rcx), %rdi
	movq	%rcx, 208(%rsp)
	movq	%rcx, 32(%rsp)
	addq	%r14, %rdi
	movq	%rax, 48(%rsp)
	movq	%rax, (%rdi)
.LEHB36:
	call	_ZNSt9basic_iosIcSt11char_traitsIcEE4initEPSt15basic_streambufIcS1_E@PLT
.LEHE36:
	movq	_ZTVNSt7__cxx1119basic_ostringstreamIcSt11char_traitsIcESaIcEEE@GOTPCREL(%rip), %rax
	movdqa	16(%rsp), %xmm4
	pxor	%xmm0, %xmm0
	leaq	216(%rsp), %rbp
	movaps	%xmm0, 224(%rsp)
	addq	$64, %rax
	movaps	%xmm4, 208(%rsp)
	movq	%rax, 320(%rsp)
	leaq	272(%rsp), %rax
	movq	%rax, %rdi
	movq	%rax, 16(%rsp)
	movaps	%xmm0, 240(%rsp)
	movaps	%xmm0, 256(%rsp)
	call	_ZNSt6localeC1Ev@PLT
	movq	_ZTVNSt7__cxx1115basic_stringbufIcSt11char_traitsIcESaIcEEE@GOTPCREL(%rip), %rax
	movq	%rbp, %rsi
	movq	%rbx, %rdi
	movl	$16, 280(%rsp)
	addq	$16, %rax
	movb	$0, 304(%rsp)
	movq	%rax, 216(%rsp)
	leaq	304(%rsp), %rax
	movq	%rax, 64(%rsp)
	movq	%rax, 288(%rsp)
	movq	$0, 296(%rsp)
.LEHB37:
	call	_ZNSt9basic_iosIcSt11char_traitsIcEE4initEPSt15basic_streambufIcS1_E@PLT
.LEHE37:
	cmpw	$2, 72(%r13)
	movzwl	74(%r13), %eax
	je	.L1514
	movl	96(%r13), %edx
	movdqu	80(%r13), %xmm7
	movq	$10, 112(%rsp)
	movw	%ax, 114(%rsp)
	movl	%edx, 136(%rsp)
	movups	%xmm7, 120(%rsp)
.L1373:
	movl	$0, 96(%rsp)
	call	_ZNSt3_V215system_categoryEv@PLT
	leaq	112(%rsp), %rsi
	movq	%r15, %rdx
	movq	%rax, 104(%rsp)
	leaq	176(%rsp), %rax
	movq	%rax, %rdi
	movq	%rax, 72(%rsp)
.LEHB38:
	call	_ZNK4asio2ip6detail8endpoint9to_stringB5cxx11ERSt10error_code@PLT
.LEHE38:
	movl	96(%rsp), %eax
	testl	%eax, %eax
	je	.L1374
	movq	208(%rsp), %rax
	movq	-24(%rax), %rdi
	addq	%r14, %rdi
	testb	$4, 28(%rdi)
	jne	.L1515
	movl	32(%rdi), %esi
	orl	$4, %esi
.LEHB39:
	call	_ZNSt9basic_iosIcSt11char_traitsIcEE5clearESt12_Ios_Iostate@PLT
.LEHE39:
	movq	176(%rsp), %rdi
.L1377:
	leaq	192(%rsp), %rbx
	cmpq	%rbx, %rdi
	je	.L1382
	movq	192(%rsp), %rax
	leaq	1(%rax), %rsi
	call	_ZdlPvm@PLT
.L1382:
	addq	$24, %r13
	movq	%r15, %rsi
	movl	$8, 96(%rsp)
	movq	%r13, %rdi
.LEHB40:
	call	_ZNK7openpal6Logger9IsEnabledERKNS_10LogFiltersE@PLT
.LEHE40:
	movq	_ZTVNSt7__cxx1115basic_stringbufIcSt11char_traitsIcESaIcEEE@GOTPCREL(%rip), %rcx
	movq	40(%rsp), %xmm3
	leaq	16(%rcx), %rdx
	movq	%rdx, %xmm5
	punpcklqdq	%xmm5, %xmm3
	movaps	%xmm3, (%rsp)
	testb	%al, %al
	je	.L1387
	movq	256(%rsp), %rax
	movq	%rbx, 176(%rsp)
	movq	$0, 184(%rsp)
	movb	$0, 192(%rsp)
	testq	%rax, %rax
	je	.L1388
	movq	240(%rsp), %r8
	testq	%r8, %r8
	je	.L1412
	cmpq	%r8, %rax
	ja	.L1412
.L1389:
	movq	248(%rsp), %rcx
	movq	72(%rsp), %rdi
	xorl	%edx, %edx
	xorl	%esi, %esi
	subq	%rcx, %r8
.LEHB41:
	call	_ZNSt7__cxx1112basic_stringIcSt11char_traitsIcESaIcEE10_M_replaceEmmPKcm@PLT
.LEHE41:
.L1391:
	movq	176(%rsp), %r9
	leaq	592(%rsp), %r12
	movl	$120, %ecx
	xorl	%eax, %eax
	movq	%r12, %rdi
	movl	$1, %edx
	movl	$120, %esi
	leaq	.LC33(%rip), %r8
	call	__snprintf_chk@PLT
	movq	176(%rsp), %rdi
	cmpq	%rbx, %rdi
	je	.L1393
	movq	192(%rsp), %rax
	leaq	1(%rax), %rsi
	call	_ZdlPvm@PLT
.L1393:
	movq	%r12, %rcx
	leaq	.LC34(%rip), %rdx
	movq	%r15, %rsi
	movq	%r13, %rdi
	movl	$8, 96(%rsp)
.LEHB42:
	call	_ZN7openpal6Logger3LogERKNS_10LogFiltersEPKcS5_@PLT
.LEHE42:
.L1387:
	movq	_ZTVNSt7__cxx1119basic_ostringstreamIcSt11char_traitsIcESaIcEEE@GOTPCREL(%rip), %rax
	movdqa	(%rsp), %xmm6
	movq	288(%rsp), %rdi
	addq	$64, %rax
	movaps	%xmm6, 208(%rsp)
	movq	%rax, 320(%rsp)
	cmpq	64(%rsp), %rdi
	je	.L1396
	movq	304(%rsp), %rax
	leaq	1(%rax), %rsi
	call	_ZdlPvm@PLT
.L1396:
	movq	_ZTVSt15basic_streambufIcSt11char_traitsIcEE@GOTPCREL(%rip), %rax
	movq	16(%rsp), %rdi
	addq	$16, %rax
	movq	%rax, 216(%rsp)
	call	_ZNSt6localeD1Ev@PLT
	movq	32(%rsp), %rax
	movq	48(%rsp), %rbx
	movq	56(%rsp), %rdi
	movq	%rax, 208(%rsp)
	movq	-24(%rax), %rax
	movq	%rbx, 208(%rsp,%rax)
	movq	_ZTVSt9basic_iosIcSt11char_traitsIcEE@GOTPCREL(%rip), %rax
	addq	$16, %rax
	movq	%rax, 320(%rsp)
	call	_ZNSt8ios_baseD2Ev@PLT
	jmp	.L1278
	.p2align 4,,10
	.p2align 3
.L1503:
	testl	%edx, %edx
	jne	.L1284
	movzbl	(%r12), %eax
	testb	%al, %al
	je	.L1516
.L1291:
	movq	(%rsp), %rax
	movl	$22, (%rbx)
	movq	%rax, 8(%rbx)
	jmp	.L1284
	.p2align 4,,10
	.p2align 3
.L1403:
	movq	%r14, %rsi
	jmp	.L1279
	.p2align 4,,10
	.p2align 3
.L1285:
	movq	%r12, %rdi
	movl	%ecx, (%rsp)
	call	__cxa_guard_acquire@PLT
	movl	(%rsp), %ecx
	testl	%eax, %eax
	je	.L1492
	movq	_ZZN4asio15system_categoryEvE8instance@GOTPCREL(%rip), %rax
	movq	_ZN4asio6detail15system_categoryD1Ev@GOTPCREL(%rip), %rdi
	leaq	__dso_handle(%rip), %rdx
	movl	%ecx, 32(%rsp)
	movq	%rax, %rsi
	movq	%rax, (%rsp)
	call	__cxa_atexit@PLT
	movq	%r12, %rdi
	call	__cxa_guard_release@PLT
	movl	32(%rsp), %ecx
	movq	(%rsp), %rax
	jmp	.L1286
	.p2align 4,,10
	.p2align 3
.L1507:
	testl	%eax, %eax
	jne	.L1278
	movzbl	(%r12), %eax
	testb	%al, %al
	je	.L1517
.L1305:
	movq	(%rsp), %rax
	movl	$22, (%rbx)
	movq	%rax, 8(%rbx)
	jmp	.L1278
	.p2align 4,,10
	.p2align 3
.L1504:
	movzbl	209(%rsp), %eax
	andl	$-64, %eax
	cmpb	$-128, %al
	je	.L1294
.L1493:
	leaq	1(%r15), %rdi
	jmp	.L1296
	.p2align 4,,10
	.p2align 3
.L1281:
	movq	%r12, %rdi
	call	__cxa_guard_acquire@PLT
	testl	%eax, %eax
	je	.L1491
	movq	_ZZN4asio15system_categoryEvE8instance@GOTPCREL(%rip), %rax
	movq	_ZN4asio6detail15system_categoryD1Ev@GOTPCREL(%rip), %rdi
	leaq	__dso_handle(%rip), %rdx
	movq	%rax, %rsi
	movq	%rax, (%rsp)
	call	__cxa_atexit@PLT
	movq	%r12, %rdi
	call	__cxa_guard_release@PLT
	movq	(%rsp), %rax
	jmp	.L1282
	.p2align 4,,10
	.p2align 3
.L1294:
	leaq	1(%r15), %rdi
	movq	%rdi, 32(%rsp)
	call	if_nametoindex@PLT
	movq	32(%rsp), %rdi
	movl	%eax, %eax
	testq	%rax, %rax
	movq	%rax, 224(%rsp)
	je	.L1296
	movl	(%rbx), %edx
	jmp	.L1295
	.p2align 4,,10
	.p2align 3
.L1367:
	testl	%eax, %eax
	jne	.L1278
	jmp	.L1368
	.p2align 4,,10
	.p2align 3
.L1354:
	testl	%eax, %eax
	je	.L1355
	jmp	.L1278
	.p2align 4,,10
	.p2align 3
.L1506:
	movq	%r12, %rdi
	call	__cxa_guard_acquire@PLT
	testl	%eax, %eax
	je	.L1300
	movq	(%rsp), %rsi
	movq	_ZN4asio6detail15system_categoryD1Ev@GOTPCREL(%rip), %rdi
	leaq	__dso_handle(%rip), %rdx
	call	__cxa_atexit@PLT
	movq	%r12, %rdi
	call	__cxa_guard_release@PLT
	jmp	.L1300
	.p2align 4,,10
	.p2align 3
.L1309:
	movq	%rbp, %rdi
	call	__cxa_guard_acquire@PLT
	testl	%eax, %eax
	je	.L1494
	movq	_ZZN4asio5error17get_misc_categoryEvE8instance@GOTPCREL(%rip), %r12
	movq	_ZN4asio5error6detail13misc_categoryD1Ev@GOTPCREL(%rip), %rdi
	leaq	__dso_handle(%rip), %rdx
	movq	%r12, %rsi
	call	__cxa_atexit@PLT
	movq	%rbp, %rdi
	call	__cxa_guard_release@PLT
	jmp	.L1310
	.p2align 4,,10
	.p2align 3
.L1315:
	movl	16(%rsp), %ecx
	movl	%ecx, 92(%rsp)
	cmpl	$-1, %ecx
	jne	.L1316
	testl	%eax, %eax
	je	.L1334
	jmp	.L1496
	.p2align 4,,10
	.p2align 3
.L1361:
	testl	%eax, %eax
	jne	.L1278
	jmp	.L1362
	.p2align 4,,10
	.p2align 3
.L1509:
	movq	%r12, %rdi
	call	__cxa_guard_acquire@PLT
	testl	%eax, %eax
	je	.L1313
	movq	(%rsp), %rsi
	movq	_ZN4asio6detail15system_categoryD1Ev@GOTPCREL(%rip), %rdi
	leaq	__dso_handle(%rip), %rdx
	call	__cxa_atexit@PLT
	movq	%r12, %rdi
	call	__cxa_guard_release@PLT
	jmp	.L1313
	.p2align 4,,10
	.p2align 3
.L1512:
	movq	%r12, %rdi
	call	__cxa_guard_acquire@PLT
	testl	%eax, %eax
	je	.L1359
	movq	(%rsp), %rsi
	movq	_ZN4asio6detail15system_categoryD1Ev@GOTPCREL(%rip), %rdi
	leaq	__dso_handle(%rip), %rdx
	call	__cxa_atexit@PLT
	movq	%r12, %rdi
	call	__cxa_guard_release@PLT
	jmp	.L1359
	.p2align 4,,10
	.p2align 3
.L1511:
	movq	%r12, %rdi
	call	__cxa_guard_acquire@PLT
	testl	%eax, %eax
	je	.L1352
	movq	(%rsp), %rsi
	movq	_ZN4asio6detail15system_categoryD1Ev@GOTPCREL(%rip), %rdi
	leaq	__dso_handle(%rip), %rdx
	call	__cxa_atexit@PLT
	movq	%r12, %rdi
	call	__cxa_guard_release@PLT
	jmp	.L1352
	.p2align 4,,10
	.p2align 3
.L1516:
	movq	%r12, %rdi
	call	__cxa_guard_acquire@PLT
	testl	%eax, %eax
	je	.L1291
	movq	(%rsp), %rsi
	movq	_ZN4asio6detail15system_categoryD1Ev@GOTPCREL(%rip), %rdi
	leaq	__dso_handle(%rip), %rdx
	call	__cxa_atexit@PLT
	movq	%r12, %rdi
	call	__cxa_guard_release@PLT
	jmp	.L1291
	.p2align 4,,10
	.p2align 3
.L1510:
	movl	0(%rbp), %ecx
	testl	%ecx, %ecx
	je	.L1328
	movzbl	(%r12), %eax
	testb	%al, %al
	je	.L1518
.L1330:
	movq	(%rsp), %rax
	movl	92(%rsp), %r14d
	movl	%ecx, (%rbx)
	movq	%rax, 8(%rbx)
	cmpl	$-1, %r14d
	je	.L1496
	movl	$0, 0(%rbp)
	movl	%r14d, %edi
	call	close@PLT
	movl	%eax, %r8d
	movzbl	(%r12), %eax
	testb	%al, %al
	je	.L1519
.L1336:
	movl	0(%rbp), %ecx
	testl	%r8d, %r8d
	je	.L1496
	movzbl	(%r12), %eax
	testb	%al, %al
	je	.L1520
.L1341:
	cmpl	$11, %ecx
	je	.L1343
.L1501:
	movzbl	(%r12), %eax
	testb	%al, %al
	jne	.L1496
	movq	%r12, %rdi
	call	__cxa_guard_acquire@PLT
	testl	%eax, %eax
	je	.L1496
	movq	(%rsp), %rsi
	movq	_ZN4asio6detail15system_categoryD1Ev@GOTPCREL(%rip), %rdi
	leaq	__dso_handle(%rip), %rdx
	call	__cxa_atexit@PLT
	movq	%r12, %rdi
	call	__cxa_guard_release@PLT
	jmp	.L1496
	.p2align 4,,10
	.p2align 3
.L1513:
	movq	%r12, %rdi
	call	__cxa_guard_acquire@PLT
	testl	%eax, %eax
	je	.L1365
	movq	(%rsp), %rsi
	movq	_ZN4asio6detail15system_categoryD1Ev@GOTPCREL(%rip), %rdi
	leaq	__dso_handle(%rip), %rdx
	call	__cxa_atexit@PLT
	movq	%r12, %rdi
	call	__cxa_guard_release@PLT
	jmp	.L1365
	.p2align 4,,10
	.p2align 3
.L1519:
	movq	%r12, %rdi
	movl	%r8d, 16(%rsp)
	call	__cxa_guard_acquire@PLT
	movl	16(%rsp), %r8d
	testl	%eax, %eax
	je	.L1336
	movq	(%rsp), %rsi
	movq	_ZN4asio6detail15system_categoryD1Ev@GOTPCREL(%rip), %rdi
	leaq	__dso_handle(%rip), %rdx
	call	__cxa_atexit@PLT
	movq	%r12, %rdi
	call	__cxa_guard_release@PLT
	movl	16(%rsp), %r8d
	jmp	.L1336
	.p2align 4,,10
	.p2align 3
.L1517:
	movq	%r12, %rdi
	call	__cxa_guard_acquire@PLT
	testl	%eax, %eax
	je	.L1305
	movq	(%rsp), %rsi
	movq	_ZN4asio6detail15system_categoryD1Ev@GOTPCREL(%rip), %rdi
	leaq	__dso_handle(%rip), %rdx
	call	__cxa_atexit@PLT
	movq	%r12, %rdi
	call	__cxa_guard_release@PLT
	jmp	.L1305
	.p2align 4,,10
	.p2align 3
.L1318:
	movl	$152, %edi
.LEHB43:
	call	_Znwm@PLT
.LEHE43:
	movq	$0, (%rax)
	movq	%rax, %r15
	xorl	%esi, %esi
	movq	_ZN4asio6detail13epoll_reactor16descriptor_state11do_completeEPNS0_15task_io_serviceEPNS0_25task_io_service_operationERKSt10error_codem@GOTPCREL(%rip), %rax
	movl	$0, 16(%r15)
	leaq	40(%r15), %r8
	movq	%rax, 8(%r15)
	movq	%r8, %rdi
	movq	%r8, 56(%rsp)
	call	pthread_mutex_init@PLT
	movl	%eax, %ecx
	movzbl	(%r12), %eax
	testb	%al, %al
	movq	56(%rsp), %r8
	je	.L1521
.L1321:
	movq	(%rsp), %rax
	movl	%ecx, 96(%rsp)
	movq	%rax, 104(%rsp)
	testl	%ecx, %ecx
	jne	.L1522
	pxor	%xmm0, %xmm0
	movups	%xmm0, 96(%r15)
	movups	%xmm0, 112(%r15)
	movups	%xmm0, 128(%r15)
	jmp	.L1319
	.p2align 4,,10
	.p2align 3
.L1374:
	cmpq	$0, 184(%rsp)
	movq	176(%rsp), %rdi
	je	.L1377
	leaq	92(%rsp), %rax
	movq	%rdi, %r12
	movq	%rax, (%rsp)
	jmp	.L1381
	.p2align 4,,10
	.p2align 3
.L1524:
	movzbl	57(%rbp,%rbx), %ebx
.L1380:
	movq	(%rsp), %rsi
	movl	$1, %edx
	movq	%r14, %rdi
	movb	%bl, 92(%rsp)
.LEHB44:
	call	_ZSt16__ostream_insertIcSt11char_traitsIcEERSt13basic_ostreamIT_T0_ES6_PKS3_l@PLT
	movq	176(%rsp), %rdi
	movq	184(%rsp), %rax
	addq	$1, %r12
	addq	%rdi, %rax
	cmpq	%r12, %rax
	je	.L1377
.L1381:
	movq	208(%rsp), %rax
	movzbl	(%r12), %ebx
	movq	-24(%rax), %rax
	movq	448(%rsp,%rax), %rbp
	testq	%rbp, %rbp
	je	.L1523
	cmpb	$0, 56(%rbp)
	jne	.L1524
	movq	%rbp, %rdi
	call	_ZNKSt5ctypeIcE13_M_widen_initEv@PLT
	movq	0(%rbp), %rax
	movq	48(%rax), %rax
	cmpq	_ZNKSt5ctypeIcE8do_widenEc@GOTPCREL(%rip), %rax
	je	.L1380
	movsbl	%bl, %esi
	movq	%rbp, %rdi
	call	*%rax
.LEHE44:
	movl	%eax, %ebx
	jmp	.L1380
.L1514:
	movl	76(%r13), %edx
	pxor	%xmm0, %xmm0
	movq	$2, 112(%rsp)
	movl	$0, 136(%rsp)
	movw	%ax, 114(%rsp)
	movl	%edx, 116(%rsp)
	movups	%xmm0, 120(%rsp)
	jmp	.L1373
.L1518:
	movq	%r12, %rdi
	movl	%ecx, 16(%rsp)
	call	__cxa_guard_acquire@PLT
	movl	16(%rsp), %ecx
	testl	%eax, %eax
	je	.L1330
	movq	(%rsp), %rsi
	movq	_ZN4asio6detail15system_categoryD1Ev@GOTPCREL(%rip), %rdi
	leaq	__dso_handle(%rip), %rdx
	call	__cxa_atexit@PLT
	movq	%r12, %rdi
	call	__cxa_guard_release@PLT
	movl	16(%rsp), %ecx
	jmp	.L1330
.L1520:
	movq	%r12, %rdi
	movl	%ecx, 16(%rsp)
	call	__cxa_guard_acquire@PLT
	movl	16(%rsp), %ecx
	testl	%eax, %eax
	je	.L1341
	movq	(%rsp), %rsi
	movq	_ZN4asio6detail15system_categoryD1Ev@GOTPCREL(%rip), %rdi
	leaq	__dso_handle(%rip), %rdx
	call	__cxa_atexit@PLT
	movq	%r12, %rdi
	call	__cxa_guard_release@PLT
	movl	16(%rsp), %ecx
	jmp	.L1341
.L1521:
	movq	%r12, %rdi
	movl	%ecx, 64(%rsp)
	call	__cxa_guard_acquire@PLT
	movq	56(%rsp), %r8
	movl	64(%rsp), %ecx
	testl	%eax, %eax
	je	.L1321
	movq	(%rsp), %rsi
	movq	_ZN4asio6detail15system_categoryD1Ev@GOTPCREL(%rip), %rdi
	leaq	__dso_handle(%rip), %rdx
	call	__cxa_atexit@PLT
	movq	%r12, %rdi
	call	__cxa_guard_release@PLT
	movl	64(%rsp), %ecx
	movq	56(%rsp), %r8
	jmp	.L1321
.L1412:
	movq	%rax, %r8
	jmp	.L1389
.L1343:
	movl	%r14d, %edi
	movq	%r15, %rdx
	movl	$21537, %esi
	xorl	%eax, %eax
	movl	$0, 96(%rsp)
	call	ioctl@PLT
	movl	$0, 0(%rbp)
	movl	%r14d, %edi
	call	close@PLT
	jmp	.L1501
.L1388:
	movq	72(%rsp), %rdi
	leaq	288(%rsp), %rsi
.LEHB45:
	call	_ZNSt7__cxx1112basic_stringIcSt11char_traitsIcESaIcEE9_M_assignERKS4_@PLT
.LEHE45:
	jmp	.L1391
.L1497:
	call	_ZN4asio15system_categoryEv@PLT
	movl	$9, (%rbx)
	movq	%rax, 8(%rbx)
	jmp	.L1278
.L1505:
	call	__stack_chk_fail@PLT
.L1515:
	movq	%r15, %rdi
.LEHB46:
	call	_ZN4asio6detail14do_throw_errorERKSt10error_code@PLT
.LEHE46:
.L1522:
	leaq	96(%rsp), %rdi
	leaq	.LC30(%rip), %rsi
.LEHB47:
	call	_ZN4asio6detail14do_throw_errorERKSt10error_codePKc@PLT
.LEHE47:
.L1523:
.LEHB48:
	call	_ZSt16__throw_bad_castv@PLT
.LEHE48:
.L1406:
	endbr64
	movq	%rax, %rbp
	jmp	.L1325
.L1411:
	endbr64
	movq	%rax, %rbp
	jmp	.L1394
.L1408:
	endbr64
	movq	%rax, %rbp
	jmp	.L1384
.L1410:
	endbr64
	movq	%rax, %rbx
	jmp	.L1370
.L1409:
	endbr64
	movq	%rax, %rbp
	jmp	.L1371
.L1405:
	endbr64
	movq	%rax, %rbp
	jmp	.L1386
.L1407:
	endbr64
	movq	%rax, %rbp
	jmp	.L1324
	.section	.gcc_except_table
.LLSDA7073:
	.byte	0xff
	.byte	0xff
	.byte	0x1
	.uleb128 .LLSDACSE7073-.LLSDACSB7073
.LLSDACSB7073:
	.uleb128 .LEHB36-.LFB7073
	.uleb128 .LEHE36-.LEHB36
	.uleb128 .L1409-.LFB7073
	.uleb128 0
	.uleb128 .LEHB37-.LFB7073
	.uleb128 .LEHE37-.LEHB37
	.uleb128 .L1410-.LFB7073
	.uleb128 0
	.uleb128 .LEHB38-.LFB7073
	.uleb128 .LEHE38-.LEHB38
	.uleb128 .L1405-.LFB7073
	.uleb128 0
	.uleb128 .LEHB39-.LFB7073
	.uleb128 .LEHE39-.LEHB39
	.uleb128 .L1408-.LFB7073
	.uleb128 0
	.uleb128 .LEHB40-.LFB7073
	.uleb128 .LEHE40-.LEHB40
	.uleb128 .L1405-.LFB7073
	.uleb128 0
	.uleb128 .LEHB41-.LFB7073
	.uleb128 .LEHE41-.LEHB41
	.uleb128 .L1411-.LFB7073
	.uleb128 0
	.uleb128 .LEHB42-.LFB7073
	.uleb128 .LEHE42-.LEHB42
	.uleb128 .L1405-.LFB7073
	.uleb128 0
	.uleb128 .LEHB43-.LFB7073
	.uleb128 .LEHE43-.LEHB43
	.uleb128 .L1406-.LFB7073
	.uleb128 0
	.uleb128 .LEHB44-.LFB7073
	.uleb128 .LEHE44-.LEHB44
	.uleb128 .L1408-.LFB7073
	.uleb128 0
	.uleb128 .LEHB45-.LFB7073
	.uleb128 .LEHE45-.LEHB45
	.uleb128 .L1411-.LFB7073
	.uleb128 0
	.uleb128 .LEHB46-.LFB7073
	.uleb128 .LEHE46-.LEHB46
	.uleb128 .L1408-.LFB7073
	.uleb128 0
	.uleb128 .LEHB47-.LFB7073
	.uleb128 .LEHE47-.LEHB47
	.uleb128 .L1407-.LFB7073
	.uleb128 0
	.uleb128 .LEHB48-.LFB7073
	.uleb128 .LEHE48-.LEHB48
	.uleb128 .L1408-.LFB7073
	.uleb128 0
.LLSDACSE7073:
	.text
	.cfi_endproc
	.section	.text.unlikely
	.cfi_startproc
	.cfi_personality 0x9b,DW.ref.__gxx_personality_v0
	.cfi_lsda 0x1b,.LLSDAC7073
	.type	_ZN7asiopal9TCPServer9ConfigureERKNSt7__cxx1112basic_stringIcSt11char_traitsIcESaIcEEERSt10error_code.cold, @function
_ZN7asiopal9TCPServer9ConfigureERKNSt7__cxx1112basic_stringIcSt11char_traitsIcESaIcEEERSt10error_code.cold:
.LFSB7073:
.L1324:
	.cfi_def_cfa_offset 784
	.cfi_offset 3, -56
	.cfi_offset 6, -48
	.cfi_offset 12, -40
	.cfi_offset 13, -32
	.cfi_offset 14, -24
	.cfi_offset 15, -16
	movl	$152, %esi
	movq	%r15, %rdi
	call	_ZdlPvm@PLT
.L1325:
	movq	48(%rsp), %rdi
	call	pthread_mutex_unlock@PLT
	leaq	92(%rsp), %rdi
	call	_ZN4asio6detail13socket_holderD1Ev@PLT
	movq	%rbp, %rdi
.LEHB49:
	call	_Unwind_Resume@PLT
.L1394:
	movq	176(%rsp), %rdi
	cmpq	%rbx, %rdi
	je	.L1386
	movq	192(%rsp), %rax
	leaq	1(%rax), %rsi
	call	_ZdlPvm@PLT
.L1386:
	movq	%r14, %rdi
	call	_ZNSt7__cxx1119basic_ostringstreamIcSt11char_traitsIcESaIcEED1Ev@PLT
	movq	%rbp, %rdi
	call	_Unwind_Resume@PLT
.L1384:
	movq	176(%rsp), %rdi
	leaq	192(%rsp), %rax
	cmpq	%rax, %rdi
	je	.L1386
	movq	192(%rsp), %rax
	leaq	1(%rax), %rsi
	call	_ZdlPvm@PLT
	jmp	.L1386
.L1370:
	movq	%rbp, %rdi
	movq	%rbx, %rbp
	call	_ZNSt7__cxx1115basic_stringbufIcSt11char_traitsIcESaIcEED1Ev@PLT
	movq	32(%rsp), %rax
	movq	48(%rsp), %rcx
	movq	%rax, 208(%rsp)
	movq	-24(%rax), %rax
	movq	%rcx, 208(%rsp,%rax)
.L1371:
	movq	_ZTVSt9basic_iosIcSt11char_traitsIcEE@GOTPCREL(%rip), %rax
	movq	56(%rsp), %rdi
	addq	$16, %rax
	movq	%rax, 320(%rsp)
	call	_ZNSt8ios_baseD2Ev@PLT
	movq	%rbp, %rdi
	call	_Unwind_Resume@PLT
.LEHE49:
	.cfi_endproc
.LFE7073:
	.section	.gcc_except_table
.LLSDAC7073:
	.byte	0xff
	.byte	0xff
	.byte	0x1
	.uleb128 .LLSDACSEC7073-.LLSDACSBC7073
.LLSDACSBC7073:
	.uleb128 .LEHB49-.LCOLDB35
	.uleb128 .LEHE49-.LEHB49
	.uleb128 0
	.uleb128 0
.LLSDACSEC7073:
	.section	.text.unlikely
	.text
	.size	_ZN7asiopal9TCPServer9ConfigureERKNSt7__cxx1112basic_stringIcSt11char_traitsIcESaIcEEERSt10error_code, .-_ZN7asiopal9TCPServer9ConfigureERKNSt7__cxx1112basic_stringIcSt11char_traitsIcESaIcEEERSt10error_code
	.section	.text.unlikely
	.size	_ZN7asiopal9TCPServer9ConfigureERKNSt7__cxx1112basic_stringIcSt11char_traitsIcESaIcEEERSt10error_code.cold, .-_ZN7asiopal9TCPServer9ConfigureERKNSt7__cxx1112basic_stringIcSt11char_traitsIcESaIcEEERSt10error_code.cold
.LCOLDE35:
	.text
.LHOTE35:
	.section	.text._ZNSt16_Sp_counted_baseILN9__gnu_cxx12_Lock_policyE2EE10_M_releaseEv,"axG",@progbits,_ZNSt16_Sp_counted_baseILN9__gnu_cxx12_Lock_policyE2EE10_M_releaseEv,comdat
	.align 2
	.p2align 4
	.weak	_ZNSt16_Sp_counted_baseILN9__gnu_cxx12_Lock_policyE2EE10_M_releaseEv
	.type	_ZNSt16_Sp_counted_baseILN9__gnu_cxx12_Lock_policyE2EE10_M_releaseEv, @function
_ZNSt16_Sp_counted_baseILN9__gnu_cxx12_Lock_policyE2EE10_M_releaseEv:
.LFB8181:
	.cfi_startproc
	endbr64
	pushq	%rbp
	.cfi_def_cfa_offset 16
	.cfi_offset 6, -16
	movq	%rdi, %rbp
	pushq	%rbx
	.cfi_def_cfa_offset 24
	.cfi_offset 3, -24
	subq	$8, %rsp
	.cfi_def_cfa_offset 32
	movq	__libc_single_threaded@GOTPCREL(%rip), %rbx
	cmpb	$0, (%rbx)
	je	.L1526
	movl	8(%rdi), %eax
	leal	-1(%rax), %edx
	movl	%edx, 8(%rdi)
.L1527:
	cmpl	$1, %eax
	je	.L1534
.L1525:
	addq	$8, %rsp
	.cfi_remember_state
	.cfi_def_cfa_offset 24
	popq	%rbx
	.cfi_def_cfa_offset 16
	popq	%rbp
	.cfi_def_cfa_offset 8
	ret
	.p2align 4,,10
	.p2align 3
.L1534:
	.cfi_restore_state
	movq	0(%rbp), %rax
	movq	%rbp, %rdi
	call	*16(%rax)
	cmpb	$0, (%rbx)
	je	.L1530
	movl	12(%rbp), %eax
	leal	-1(%rax), %edx
	movl	%edx, 12(%rbp)
.L1531:
	cmpl	$1, %eax
	jne	.L1525
	movq	0(%rbp), %rax
	movq	%rbp, %rdi
	movq	24(%rax), %rax
	addq	$8, %rsp
	.cfi_remember_state
	.cfi_def_cfa_offset 24
	popq	%rbx
	.cfi_def_cfa_offset 16
	popq	%rbp
	.cfi_def_cfa_offset 8
	jmp	*%rax
	.p2align 4,,10
	.p2align 3
.L1526:
	.cfi_restore_state
	movl	$-1, %eax
	lock xaddl	%eax, 8(%rdi)
	jmp	.L1527
	.p2align 4,,10
	.p2align 3
.L1530:
	movl	$-1, %eax
	lock xaddl	%eax, 12(%rbp)
	jmp	.L1531
	.cfi_endproc
.LFE8181:
	.size	_ZNSt16_Sp_counted_baseILN9__gnu_cxx12_Lock_policyE2EE10_M_releaseEv, .-_ZNSt16_Sp_counted_baseILN9__gnu_cxx12_Lock_policyE2EE10_M_releaseEv
	.section	.text.unlikely
	.align 2
.LCOLDB36:
	.text
.LHOTB36:
	.align 2
	.p2align 4
	.globl	_ZN7asiopal9TCPServer11StartAcceptEv
	.type	_ZN7asiopal9TCPServer11StartAcceptEv, @function
_ZN7asiopal9TCPServer11StartAcceptEv:
.LFB7074:
	.cfi_startproc
	.cfi_personality 0x9b,DW.ref.__gxx_personality_v0
	.cfi_lsda 0x1b,.LLSDA7074
	endbr64
	pushq	%r15
	.cfi_def_cfa_offset 16
	.cfi_offset 15, -16
	pushq	%r14
	.cfi_def_cfa_offset 24
	.cfi_offset 14, -24
	pushq	%r13
	.cfi_def_cfa_offset 32
	.cfi_offset 13, -32
	pushq	%r12
	.cfi_def_cfa_offset 40
	.cfi_offset 12, -40
	pushq	%rbp
	.cfi_def_cfa_offset 48
	.cfi_offset 6, -48
	pushq	%rbx
	.cfi_def_cfa_offset 56
	.cfi_offset 3, -56
	subq	$184, %rsp
	.cfi_def_cfa_offset 240
	movq	16(%rdi), %r13
	movq	%fs:40, %rax
	movq	%rax, 168(%rsp)
	xorl	%eax, %eax
	testq	%r13, %r13
	je	.L1536
	leaq	8(%r13), %rax
	movq	%rdi, %r12
	movq	%rax, 8(%rsp)
	movl	8(%r13), %eax
.L1538:
	testl	%eax, %eax
	je	.L1536
	movq	8(%rsp), %rsi
	leal	1(%rax), %edx
	lock cmpxchgl	%edx, (%rsi)
	jne	.L1538
	movq	8(%r12), %r15
	movq	%r13, %xmm5
	movq	56(%r12), %rax
	movq	__libc_single_threaded@GOTPCREL(%rip), %r14
	movq	%r15, %xmm1
	cmpb	$0, (%r14)
	punpcklqdq	%xmm5, %xmm1
	je	.L1746
	addl	$1, 8(%r13)
.L1539:
	movdqu	40(%rax), %xmm0
	leaq	168(%r12), %rax
	movaps	%xmm1, 144(%rsp)
	movq	%rax, 16(%rsp)
	leaq	136(%r12), %rax
	movq	%rax, 24(%rsp)
	movq	128(%r12), %rax
	movhlps	%xmm0, %xmm3
	movq	%xmm3, %rbp
	movaps	%xmm0, 128(%rsp)
	movq	%rax, 56(%rsp)
	data16	leaq	_ZN4asio6detail15keyword_tss_ptrINS0_10call_stackINS0_14strand_service11strand_implEhE7contextEE6value_E@tlsgd(%rip), %rdi
	.value	0x6666
	rex64
	call	__tls_get_addr@PLT
	movq	(%rax), %rbx
	testq	%rbx, %rbx
	jne	.L1542
	jmp	.L1540
	.p2align 4,,10
	.p2align 3
.L1541:
	movq	16(%rbx), %rbx
	testq	%rbx, %rbx
	je	.L1540
.L1542:
	cmpq	%rbp, (%rbx)
	jne	.L1541
	movq	8(%rbx), %rbx
.L1540:
	pxor	%xmm0, %xmm0
	leaq	128(%rsp), %rax
	movq	%rax, 96(%rsp)
	movups	%xmm0, 104(%rsp)
	data16	leaq	_ZN4asio6detail15keyword_tss_ptrINS0_10call_stackINS0_15task_io_serviceENS0_27task_io_service_thread_infoEE7contextEE6value_E@tlsgd(%rip), %rdi
	.value	0x6666
	rex64
	call	__tls_get_addr@PLT
	movq	(%rax), %rax
	testq	%rax, %rax
	je	.L1543
	movq	8(%rax), %rax
	testq	%rax, %rax
	je	.L1543
	movq	(%rax), %rbp
	testq	%rbp, %rbp
	je	.L1543
	movq	$0, (%rax)
	movzbl	0(%rbp), %eax
	cmpb	$119, %al
	jbe	.L1544
	movb	%al, 120(%rbp)
	movq	%r13, 48(%rsp)
	jmp	.L1545
	.p2align 4,,10
	.p2align 3
.L1544:
	movq	%rbp, %rdi
	call	_ZdlPv@PLT
.L1543:
	movl	$121, %edi
.LEHB50:
	call	_Znwm@PLT
.LEHE50:
	movb	$120, 120(%rax)
	movq	%rax, %rbp
	movq	152(%rsp), %rax
	movq	144(%rsp), %r15
	movq	%rax, 48(%rsp)
.L1545:
	movzbl	108(%r12), %edx
	movq	%r15, %xmm0
	movl	104(%r12), %r15d
	leaq	_ZN4asio6detail25reactive_socket_accept_opINS_12basic_socketINS_2ip3tcpENS_21stream_socket_serviceIS4_EEEES4_NS0_15wrapped_handlerINS_10io_service6strandEZN7asiopal9TCPServer11StartAcceptEvEUlSt10error_codeE_NS0_26is_continuation_if_runningEEEE11do_completeEPNS0_15task_io_serviceEPNS0_25task_io_service_operationERKSD_m(%rip), %rax
	movq	%rax, 8(%rbp)
	movq	%rbp, %xmm2
	movhps	48(%rsp), %xmm0
	movq	$0, 0(%rbp)
	punpcklqdq	%xmm2, %xmm2
	movl	$0, 16(%rbp)
	movl	$0, 24(%rbp)
	movb	%dl, 48(%rsp)
	movaps	%xmm0, 32(%rsp)
	movq	%rbp, 104(%rsp)
	movaps	%xmm2, 64(%rsp)
	call	_ZNSt3_V215system_categoryEv@PLT
	movdqa	32(%rsp), %xmm0
	movzbl	48(%rsp), %edx
	movq	$0, 40(%rbp)
	movdqa	128(%rsp), %xmm4
	movq	%rax, 32(%rbp)
	movq	%rax, %rcx
	movq	_ZN4asio6detail30reactive_socket_accept_op_baseINS_12basic_socketINS_2ip3tcpENS_21stream_socket_serviceIS4_EEEES4_E10do_performEPNS0_10reactor_opE@GOTPCREL(%rip), %rax
	movb	%dl, 60(%rbp)
	movl	%r15d, 56(%rbp)
	movq	%rax, 48(%rbp)
	movq	24(%rsp), %rax
	movq	%rbp, 112(%rsp)
	movq	%rax, 64(%rbp)
	movl	120(%r12), %eax
	movups	%xmm0, 104(%rbp)
	pxor	%xmm0, %xmm0
	cmpl	$-1, 136(%r12)
	movl	%eax, 72(%rbp)
	movq	16(%rsp), %rax
	movups	%xmm4, 88(%rbp)
	movq	%rax, 80(%rbp)
	movaps	%xmm0, 144(%rsp)
	jne	.L1546
	andl	$3, %edx
	jne	.L1547
	cmpl	$-1, %r15d
	je	.L1747
	movq	%rcx, 24(%rsp)
	call	__errno_location@PLT
	movl	%r15d, %edi
	leaq	84(%rsp), %rdx
	movl	$21537, %esi
	movl	$0, (%rax)
	movq	%rax, 16(%rsp)
	xorl	%eax, %eax
	movl	$1, 84(%rsp)
	call	ioctl@PLT
	movl	%eax, %r15d
	movq	_ZGVZN4asio15system_categoryEvE8instance@GOTPCREL(%rip), %rax
	movzbl	(%rax), %eax
	testb	%al, %al
	movq	16(%rsp), %r8
	movq	24(%rsp), %rcx
	je	.L1553
.L1726:
	movq	_ZZN4asio15system_categoryEvE8instance@GOTPCREL(%rip), %rsi
.L1554:
	movl	(%r8), %eax
	movq	%rsi, 32(%rbp)
	movl	%eax, 24(%rbp)
	testl	%r15d, %r15d
	jns	.L1748
.L1552:
	movq	56(%rsp), %rax
	movq	40(%rax), %rax
	movq	40(%rax), %rbx
	data16	leaq	_ZN4asio6detail15keyword_tss_ptrINS0_10call_stackINS0_15task_io_serviceENS0_27task_io_service_thread_infoEE7contextEE6value_E@tlsgd(%rip), %rdi
	.value	0x6666
	rex64
	call	__tls_get_addr@PLT
	movq	(%rax), %rax
	testq	%rax, %rax
	jne	.L1603
	jmp	.L1600
	.p2align 4,,10
	.p2align 3
.L1601:
	movq	16(%rax), %rax
	testq	%rax, %rax
	je	.L1600
.L1603:
	cmpq	(%rax), %rbx
	jne	.L1601
	movq	8(%rax), %rax
	testq	%rax, %rax
	jne	.L1616
.L1600:
	lock addq	$1, 184(%rbx)
	leaq	48(%rbx), %r12
	movq	%r12, %rdi
	call	pthread_mutex_lock@PLT
	cmpq	$0, 200(%rbx)
	movq	$0, 0(%rbp)
	je	.L1605
.L1743:
	movq	200(%rbx), %rax
	movq	%rbp, (%rax)
	movq	%rbp, 200(%rbx)
.L1606:
	movq	136(%rbx), %rax
	orq	$1, %rax
	movq	%rax, 136(%rbx)
	cmpq	$1, %rax
	je	.L1607
	movq	%r12, %rdi
	call	pthread_mutex_unlock@PLT
	leaq	88(%rbx), %rdi
	call	pthread_cond_signal@PLT
	jmp	.L1565
	.p2align 4,,10
	.p2align 3
.L1546:
	movq	_ZGVZN4asio5error17get_misc_categoryEvE8instance@GOTPCREL(%rip), %r12
	movzbl	(%r12), %eax
	testb	%al, %al
	je	.L1610
.L1729:
	movq	_ZZN4asio5error17get_misc_categoryEvE8instance@GOTPCREL(%rip), %r15
.L1611:
	movq	56(%rsp), %rax
	movl	$1, 24(%rbp)
	movq	%r15, 32(%rbp)
	movq	40(%rax), %rax
	movq	40(%rax), %r12
	cmpb	$0, 40(%r12)
	jne	.L1646
	testq	%rbx, %rbx
	je	.L1613
.L1646:
	data16	leaq	_ZN4asio6detail15keyword_tss_ptrINS0_10call_stackINS0_15task_io_serviceENS0_27task_io_service_thread_infoEE7contextEE6value_E@tlsgd(%rip), %rdi
	.value	0x6666
	rex64
	call	__tls_get_addr@PLT
	movq	(%rax), %rax
	testq	%rax, %rax
	jne	.L1617
	jmp	.L1613
	.p2align 4,,10
	.p2align 3
.L1615:
	movq	16(%rax), %rax
	testq	%rax, %rax
	je	.L1613
.L1617:
	cmpq	(%rax), %r12
	jne	.L1615
	movq	8(%rax), %rax
	testq	%rax, %rax
	je	.L1613
.L1616:
	addq	$1, 24(%rax)
	movq	$0, 0(%rbp)
	movq	16(%rax), %rdx
	testq	%rdx, %rdx
	je	.L1618
.L1730:
	movq	%rbp, (%rdx)
	movq	%rbp, 16(%rax)
.L1565:
	movq	152(%rsp), %rbp
	movzbl	(%r14), %eax
	testq	%rbp, %rbp
	je	.L1625
	testb	%al, %al
	je	.L1626
	movl	8(%rbp), %eax
	leal	-1(%rax), %edx
	movl	%edx, 8(%rbp)
.L1627:
	cmpl	$1, %eax
	je	.L1749
.L1625:
	cmpb	$0, (%r14)
	je	.L1750
	movl	8(%r13), %eax
	leal	-1(%rax), %edx
	movl	%edx, 8(%r13)
.L1634:
	cmpl	$1, %eax
	je	.L1751
.L1535:
	movq	168(%rsp), %rax
	subq	%fs:40, %rax
	jne	.L1732
	addq	$184, %rsp
	.cfi_remember_state
	.cfi_def_cfa_offset 56
	popq	%rbx
	.cfi_def_cfa_offset 48
	popq	%rbp
	.cfi_def_cfa_offset 40
	popq	%r12
	.cfi_def_cfa_offset 32
	popq	%r13
	.cfi_def_cfa_offset 24
	popq	%r14
	.cfi_def_cfa_offset 16
	popq	%r15
	.cfi_def_cfa_offset 8
	ret
	.p2align 4,,10
	.p2align 3
.L1748:
	.cfi_restore_state
	movl	$0, 24(%rbp)
	movl	104(%r12), %r15d
	movq	%rcx, 32(%rbp)
	orb	$2, 108(%r12)
.L1547:
	movq	56(%rsp), %rax
	movq	40(%rax), %rax
	movq	%rax, 16(%rsp)
	movq	112(%r12), %rax
	testq	%rax, %rax
	je	.L1752
	addq	$40, %rax
	movq	%rax, %rdi
	movq	%rax, 24(%rsp)
	call	pthread_mutex_lock@PLT
	movq	112(%r12), %rax
	cmpb	$0, 144(%rax)
	jne	.L1753
	cmpq	$0, 96(%rax)
	je	.L1754
.L1583:
	movq	104(%rax), %rdx
	movq	$0, 0(%rbp)
	testq	%rdx, %rdx
	je	.L1596
	movq	%rbp, (%rdx)
	movq	%rbp, 104(%rax)
.L1597:
	movq	16(%rsp), %rax
	movq	40(%rax), %rax
	lock addq	$1, 184(%rax)
	movq	24(%rsp), %rdi
	call	pthread_mutex_unlock@PLT
	jmp	.L1565
	.p2align 4,,10
	.p2align 3
.L1613:
	lock addq	$1, 184(%r12)
	leaq	48(%r12), %r15
	movq	%r15, %rdi
	call	pthread_mutex_lock@PLT
	movq	$0, 0(%rbp)
	cmpq	$0, 200(%r12)
	je	.L1619
	movq	200(%r12), %rax
	movq	%rbp, (%rax)
	movq	%rbp, 200(%r12)
.L1620:
	movq	136(%r12), %rax
	orq	$1, %rax
	movq	%rax, 136(%r12)
	cmpq	$1, %rax
	je	.L1621
	movq	%r15, %rdi
	call	pthread_mutex_unlock@PLT
	leaq	88(%r12), %rdi
	call	pthread_cond_signal@PLT
	jmp	.L1565
	.p2align 4,,10
	.p2align 3
.L1621:
	cmpb	$0, 176(%r12)
	jne	.L1623
	movq	144(%r12), %rax
	testq	%rax, %rax
	je	.L1623
	leaq	88(%rax), %rdx
	leaq	84(%rsp), %rcx
	movl	$3, %esi
	movb	$1, 176(%r12)
	movq	%rdx, 88(%rsp)
	movl	88(%rax), %edx
	movl	$-2147483639, 84(%rsp)
	movl	96(%rax), %edi
	call	epoll_ctl@PLT
.L1623:
	movq	%r15, %rdi
	call	pthread_mutex_unlock@PLT
	jmp	.L1565
	.p2align 4,,10
	.p2align 3
.L1746:
	lock addl	$1, 8(%r13)
	jmp	.L1539
	.p2align 4,,10
	.p2align 3
.L1610:
	movq	%r12, %rdi
	call	__cxa_guard_acquire@PLT
	testl	%eax, %eax
	je	.L1729
	movq	_ZZN4asio5error17get_misc_categoryEvE8instance@GOTPCREL(%rip), %r15
	movq	_ZN4asio5error6detail13misc_categoryD1Ev@GOTPCREL(%rip), %rdi
	leaq	__dso_handle(%rip), %rdx
	movq	%r15, %rsi
	call	__cxa_atexit@PLT
	movq	%r12, %rdi
	call	__cxa_guard_release@PLT
	jmp	.L1611
	.p2align 4,,10
	.p2align 3
.L1553:
	movq	_ZGVZN4asio15system_categoryEvE8instance@GOTPCREL(%rip), %rdi
	movq	%r8, 24(%rsp)
	movq	%rcx, 16(%rsp)
	call	__cxa_guard_acquire@PLT
	movq	16(%rsp), %rcx
	movq	24(%rsp), %r8
	testl	%eax, %eax
	je	.L1726
	movq	_ZZN4asio15system_categoryEvE8instance@GOTPCREL(%rip), %rsi
	movq	_ZN4asio6detail15system_categoryD1Ev@GOTPCREL(%rip), %rdi
	movq	%r8, 48(%rsp)
	leaq	__dso_handle(%rip), %rdx
	movq	%rcx, 24(%rsp)
	movq	%rsi, 16(%rsp)
	call	__cxa_atexit@PLT
	movq	_ZGVZN4asio15system_categoryEvE8instance@GOTPCREL(%rip), %rdi
	call	__cxa_guard_release@PLT
	movq	48(%rsp), %r8
	movq	24(%rsp), %rcx
	movq	16(%rsp), %rsi
	jmp	.L1554
	.p2align 4,,10
	.p2align 3
.L1751:
	movq	0(%r13), %rax
	movq	%r13, %rdi
	call	*16(%rax)
	cmpb	$0, (%r14)
	je	.L1637
	movl	12(%r13), %eax
	leal	-1(%rax), %edx
	movl	%edx, 12(%r13)
.L1638:
	cmpl	$1, %eax
	jne	.L1535
	movq	168(%rsp), %rax
	subq	%fs:40, %rax
	jne	.L1732
	movq	0(%r13), %rax
	movq	%r13, %rdi
	movq	24(%rax), %rax
	addq	$184, %rsp
	.cfi_remember_state
	.cfi_def_cfa_offset 56
	popq	%rbx
	.cfi_def_cfa_offset 48
	popq	%rbp
	.cfi_def_cfa_offset 40
	popq	%r12
	.cfi_def_cfa_offset 32
	popq	%r13
	.cfi_def_cfa_offset 24
	popq	%r14
	.cfi_def_cfa_offset 16
	popq	%r15
	.cfi_def_cfa_offset 8
	jmp	*%rax
	.p2align 4,,10
	.p2align 3
.L1749:
	.cfi_restore_state
	movq	0(%rbp), %rax
	movq	%rbp, %rdi
	call	*16(%rax)
	cmpb	$0, (%r14)
	je	.L1629
	movl	12(%rbp), %eax
	leal	-1(%rax), %edx
	movl	%edx, 12(%rbp)
.L1630:
	cmpl	$1, %eax
	jne	.L1625
	movq	0(%rbp), %rax
	movq	%rbp, %rdi
	call	*24(%rax)
	jmp	.L1625
	.p2align 4,,10
	.p2align 3
.L1626:
	movl	$-1, %eax
	lock xaddl	%eax, 8(%rbp)
	jmp	.L1627
	.p2align 4,,10
	.p2align 3
.L1750:
	movq	8(%rsp), %rsi
	movl	$-1, %eax
	lock xaddl	%eax, (%rsi)
	jmp	.L1634
.L1607:
	cmpb	$0, 176(%rbx)
	jne	.L1609
	movq	144(%rbx), %rax
	testq	%rax, %rax
	je	.L1609
	movb	$1, 176(%rbx)
	leaq	88(%rax), %rdx
	leaq	84(%rsp), %rcx
	movl	$3, %esi
	movl	$-2147483639, 84(%rsp)
	movq	%rdx, 88(%rsp)
	movl	88(%rax), %edx
	movl	96(%rax), %edi
	call	epoll_ctl@PLT
.L1609:
	movq	%r12, %rdi
	call	pthread_mutex_unlock@PLT
	jmp	.L1565
.L1619:
	movdqa	64(%rsp), %xmm6
	movups	%xmm6, 192(%r12)
	jmp	.L1620
.L1618:
	movdqa	64(%rsp), %xmm7
	movups	%xmm7, 8(%rax)
	jmp	.L1565
.L1629:
	movl	$-1, %eax
	lock xaddl	%eax, 12(%rbp)
	jmp	.L1630
.L1637:
	movl	$-1, %eax
	lock xaddl	%eax, 12(%r13)
	jmp	.L1638
.L1596:
	movdqa	64(%rsp), %xmm7
	movups	%xmm7, 96(%rax)
	jmp	.L1597
.L1754:
	testq	%rbx, %rbx
	je	.L1584
	cmpq	$0, 128(%rax)
	jne	.L1584
	movq	%rbp, %rdi
.LEHB51:
	call	*48(%rbp)
.LEHE51:
	testb	%al, %al
	je	.L1728
	movq	24(%rsp), %rdi
	call	pthread_mutex_unlock@PLT
	movq	16(%rsp), %rax
	movq	40(%rax), %rbx
	data16	leaq	_ZN4asio6detail15keyword_tss_ptrINS0_10call_stackINS0_15task_io_serviceENS0_27task_io_service_thread_infoEE7contextEE6value_E@tlsgd(%rip), %rdi
	.value	0x6666
	rex64
	call	__tls_get_addr@PLT
	movq	(%rax), %rax
	testq	%rax, %rax
	jne	.L1589
	jmp	.L1586
	.p2align 4,,10
	.p2align 3
.L1587:
	movq	16(%rax), %rax
	testq	%rax, %rax
	je	.L1586
.L1589:
	cmpq	(%rax), %rbx
	jne	.L1587
.L1745:
	movq	8(%rax), %rax
	testq	%rax, %rax
	je	.L1586
	addq	$1, 24(%rax)
	movq	$0, 0(%rbp)
	movq	16(%rax), %rdx
	testq	%rdx, %rdx
	jne	.L1730
	movdqa	64(%rsp), %xmm6
	movups	%xmm6, 8(%rax)
	jmp	.L1565
.L1752:
	movq	_ZGVZN4asio15system_categoryEvE8instance@GOTPCREL(%rip), %r12
	movzbl	(%r12), %eax
	testb	%al, %al
	je	.L1557
.L1727:
	movq	_ZZN4asio15system_categoryEvE8instance@GOTPCREL(%rip), %rsi
.L1558:
	movl	$9, 24(%rbp)
	movq	16(%rsp), %rax
	movq	%rsi, 32(%rbp)
	movq	40(%rax), %rbx
	data16	leaq	_ZN4asio6detail15keyword_tss_ptrINS0_10call_stackINS0_15task_io_serviceENS0_27task_io_service_thread_infoEE7contextEE6value_E@tlsgd(%rip), %rdi
	.value	0x6666
	rex64
	call	__tls_get_addr@PLT
	movq	(%rax), %rax
	testq	%rax, %rax
	jne	.L1563
	jmp	.L1586
	.p2align 4,,10
	.p2align 3
.L1561:
	movq	16(%rax), %rax
	testq	%rax, %rax
	je	.L1586
.L1563:
	cmpq	(%rax), %rbx
	jne	.L1561
	jmp	.L1745
.L1753:
	movq	16(%rsp), %rax
	movq	40(%rax), %rbx
	data16	leaq	_ZN4asio6detail15keyword_tss_ptrINS0_10call_stackINS0_15task_io_serviceENS0_27task_io_service_thread_infoEE7contextEE6value_E@tlsgd(%rip), %rdi
	.value	0x6666
	rex64
	call	__tls_get_addr@PLT
	movq	(%rax), %rax
	testq	%rax, %rax
	jne	.L1575
	jmp	.L1572
	.p2align 4,,10
	.p2align 3
.L1573:
	movq	16(%rax), %rax
	testq	%rax, %rax
	je	.L1572
.L1575:
	cmpq	(%rax), %rbx
	jne	.L1573
	movq	8(%rax), %rax
	testq	%rax, %rax
	je	.L1572
	addq	$1, 24(%rax)
	movq	$0, 0(%rbp)
	movq	16(%rax), %rdx
	testq	%rdx, %rdx
	je	.L1576
	movq	%rbp, (%rdx)
	movq	%rbp, 16(%rax)
.L1577:
	movq	24(%rsp), %rdi
	call	pthread_mutex_unlock@PLT
	jmp	.L1565
.L1584:
	movl	92(%rax), %edx
	movq	%rax, 88(%rsp)
	leaq	84(%rsp), %rcx
	movl	$3, %esi
	movq	16(%rsp), %rax
	movl	%edx, 84(%rsp)
	movl	%r15d, %edx
	movl	96(%rax), %edi
	call	epoll_ctl@PLT
.L1728:
	movq	112(%r12), %rax
	jmp	.L1583
.L1557:
	movq	%r12, %rdi
	call	__cxa_guard_acquire@PLT
	testl	%eax, %eax
	je	.L1727
	movq	_ZZN4asio15system_categoryEvE8instance@GOTPCREL(%rip), %rsi
	movq	_ZN4asio6detail15system_categoryD1Ev@GOTPCREL(%rip), %rdi
	leaq	__dso_handle(%rip), %rdx
	movq	%rsi, 24(%rsp)
	call	__cxa_atexit@PLT
	movq	%r12, %rdi
	call	__cxa_guard_release@PLT
	movq	24(%rsp), %rsi
	jmp	.L1558
.L1747:
	movq	_ZGVZN4asio15system_categoryEvE8instance@GOTPCREL(%rip), %r12
	movzbl	(%r12), %eax
	testb	%al, %al
	je	.L1549
.L1725:
	movq	_ZZN4asio15system_categoryEvE8instance@GOTPCREL(%rip), %rsi
.L1550:
	movl	$9, 24(%rbp)
	movq	%rsi, 32(%rbp)
	jmp	.L1552
.L1605:
	movdqa	64(%rsp), %xmm6
	movups	%xmm6, 192(%rbx)
	jmp	.L1606
.L1586:
	lock addq	$1, 184(%rbx)
	leaq	48(%rbx), %r12
	movq	%r12, %rdi
	call	pthread_mutex_lock@PLT
	movq	$0, 0(%rbp)
	cmpq	$0, 200(%rbx)
	jne	.L1743
	movdqa	64(%rsp), %xmm7
	movups	%xmm7, 192(%rbx)
	jmp	.L1606
.L1572:
	lock addq	$1, 184(%rbx)
	leaq	48(%rbx), %r12
	movq	%r12, %rdi
	call	pthread_mutex_lock@PLT
	cmpq	$0, 200(%rbx)
	movq	$0, 0(%rbp)
	je	.L1578
	movq	200(%rbx), %rax
	movq	%rbp, (%rax)
	movq	%rbp, 200(%rbx)
.L1579:
	movq	136(%rbx), %rax
	orq	$1, %rax
	movq	%rax, 136(%rbx)
	cmpq	$1, %rax
	je	.L1580
	movq	%r12, %rdi
	call	pthread_mutex_unlock@PLT
	leaq	88(%rbx), %rdi
	call	pthread_cond_signal@PLT
	jmp	.L1577
.L1580:
	cmpb	$0, 176(%rbx)
	jne	.L1582
	movq	144(%rbx), %rax
	testq	%rax, %rax
	je	.L1582
	movb	$1, 176(%rbx)
	leaq	88(%rax), %rdx
	leaq	84(%rsp), %rcx
	movl	$3, %esi
	movq	%rdx, 88(%rsp)
	movl	88(%rax), %edx
	movl	$-2147483639, 84(%rsp)
	movl	96(%rax), %edi
	call	epoll_ctl@PLT
.L1582:
	movq	%r12, %rdi
	call	pthread_mutex_unlock@PLT
	jmp	.L1577
.L1549:
	movq	%r12, %rdi
	call	__cxa_guard_acquire@PLT
	testl	%eax, %eax
	je	.L1725
	movq	_ZZN4asio15system_categoryEvE8instance@GOTPCREL(%rip), %rsi
	movq	_ZN4asio6detail15system_categoryD1Ev@GOTPCREL(%rip), %rdi
	leaq	__dso_handle(%rip), %rdx
	movq	%rsi, 16(%rsp)
	call	__cxa_atexit@PLT
	movq	%r12, %rdi
	call	__cxa_guard_release@PLT
	movq	16(%rsp), %rsi
	jmp	.L1550
.L1578:
	movdqa	64(%rsp), %xmm7
	movups	%xmm7, 192(%rbx)
	jmp	.L1579
.L1576:
	movdqa	64(%rsp), %xmm6
	movups	%xmm6, 8(%rax)
	jmp	.L1577
.L1732:
	call	__stack_chk_fail@PLT
.L1645:
	endbr64
	movq	%rax, %rbp
	jmp	.L1598
.L1644:
	endbr64
	movq	%rax, %rbp
	jmp	.L1599
	.section	.gcc_except_table
.LLSDA7074:
	.byte	0xff
	.byte	0xff
	.byte	0x1
	.uleb128 .LLSDACSE7074-.LLSDACSB7074
.LLSDACSB7074:
	.uleb128 .LEHB50-.LFB7074
	.uleb128 .LEHE50-.LEHB50
	.uleb128 .L1644-.LFB7074
	.uleb128 0
	.uleb128 .LEHB51-.LFB7074
	.uleb128 .LEHE51-.LEHB51
	.uleb128 .L1645-.LFB7074
	.uleb128 0
.LLSDACSE7074:
	.text
	.cfi_endproc
	.section	.text.unlikely
	.cfi_startproc
	.cfi_personality 0x9b,DW.ref.__gxx_personality_v0
	.cfi_lsda 0x1b,.LLSDAC7074
	.type	_ZN7asiopal9TCPServer11StartAcceptEv.cold, @function
_ZN7asiopal9TCPServer11StartAcceptEv.cold:
.LFSB7074:
.L1536:
	.cfi_def_cfa_offset 240
	.cfi_offset 3, -56
	.cfi_offset 6, -48
	.cfi_offset 12, -40
	.cfi_offset 13, -32
	.cfi_offset 14, -24
	.cfi_offset 15, -16
	movl	$8, %edi
	call	__cxa_allocate_exception@PLT
	movq	_ZNSt12bad_weak_ptrD1Ev@GOTPCREL(%rip), %rdx
	movq	_ZTISt12bad_weak_ptr@GOTPCREL(%rip), %rsi
	movq	%rax, %rdi
	movq	_ZTVSt12bad_weak_ptr@GOTPCREL(%rip), %rax
	addq	$16, %rax
	movq	%rax, (%rdi)
.LEHB52:
	call	__cxa_throw@PLT
.L1598:
	movq	24(%rsp), %rdi
	call	pthread_mutex_unlock@PLT
	leaq	96(%rsp), %rdi
	call	_ZN4asio6detail25reactive_socket_accept_opINS_12basic_socketINS_2ip3tcpENS_21stream_socket_serviceIS4_EEEES4_NS0_15wrapped_handlerINS_10io_service6strandEZN7asiopal9TCPServer11StartAcceptEvEUlSt10error_codeE_NS0_26is_continuation_if_runningEEEE3ptr5resetEv
.L1599:
	movq	152(%rsp), %rdi
	testq	%rdi, %rdi
	je	.L1633
	call	_ZNSt16_Sp_counted_baseILN9__gnu_cxx12_Lock_policyE2EE10_M_releaseEv@PLT
.L1633:
	movq	%r13, %rdi
	call	_ZNSt16_Sp_counted_baseILN9__gnu_cxx12_Lock_policyE2EE10_M_releaseEv@PLT
	movq	%rbp, %rdi
	call	_Unwind_Resume@PLT
.LEHE52:
	.cfi_endproc
.LFE7074:
	.section	.gcc_except_table
.LLSDAC7074:
	.byte	0xff
	.byte	0xff
	.byte	0x1
	.uleb128 .LLSDACSEC7074-.LLSDACSBC7074
.LLSDACSBC7074:
	.uleb128 .LEHB52-.LCOLDB36
	.uleb128 .LEHE52-.LEHB52
	.uleb128 0
	.uleb128 0
.LLSDACSEC7074:
	.section	.text.unlikely
	.text
	.size	_ZN7asiopal9TCPServer11StartAcceptEv, .-_ZN7asiopal9TCPServer11StartAcceptEv
	.section	.text.unlikely
	.size	_ZN7asiopal9TCPServer11StartAcceptEv.cold, .-_ZN7asiopal9TCPServer11StartAcceptEv.cold
.LCOLDE36:
	.text
.LHOTE36:
	.section	.rodata.str1.8
	.align 8
.LC37:
	.string	"/home/saptarshi/Desktop/OpenPLC61850/utils/dnp3_src/cpp/libs/src/asiopal/TCPServer.cpp(109)"
	.section	.rodata.str1.1
.LC38:
	.string	"Accepted connection from: %s"
	.section	.rodata.str1.8
	.align 8
.LC39:
	.string	"/home/saptarshi/Desktop/OpenPLC61850/utils/dnp3_src/cpp/libs/src/asiopal/TCPServer.cpp(118)"
	.section	.text.unlikely
	.align 2
.LCOLDB40:
	.text
.LHOTB40:
	.align 2
	.p2align 4
	.type	_ZZN7asiopal9TCPServer11StartAcceptEvENKUlSt10error_codeE_clES1_.isra.0, @function
_ZZN7asiopal9TCPServer11StartAcceptEvENKUlSt10error_codeE_clES1_.isra.0:
.LFB9584:
	.cfi_startproc
	.cfi_personality 0x9b,DW.ref.__gxx_personality_v0
	.cfi_lsda 0x1b,.LLSDA9584
	pushq	%r15
	.cfi_def_cfa_offset 16
	.cfi_offset 15, -16
	pushq	%r14
	.cfi_def_cfa_offset 24
	.cfi_offset 14, -24
	pushq	%r13
	.cfi_def_cfa_offset 32
	.cfi_offset 13, -32
	pushq	%r12
	.cfi_def_cfa_offset 40
	.cfi_offset 12, -40
	movl	%esi, %r12d
	pushq	%rbp
	.cfi_def_cfa_offset 48
	.cfi_offset 6, -48
	pushq	%rbx
	.cfi_def_cfa_offset 56
	.cfi_offset 3, -56
	movq	%rdi, %rbx
	subq	$328, %rsp
	.cfi_def_cfa_offset 384
	movq	%fs:40, %rax
	movq	%rax, 312(%rsp)
	movq	(%rdi), %rax
	leaq	24(%rax), %rdi
	testl	%esi, %esi
	je	.L1756
	leaq	64(%rsp), %r13
	movl	$8, 64(%rsp)
	movq	%rdx, %rbp
	movq	%r13, %rsi
.LEHB53:
	call	_ZNK7openpal6Logger9IsEnabledERKNS_10LogFiltersE@PLT
	testb	%al, %al
	je	.L1757
	movq	(%rbx), %rax
	leaq	128(%rsp), %rdi
	movl	%r12d, %edx
	movq	%rbp, %rsi
	leaq	24(%rax), %r14
	movq	0(%rbp), %rax
	call	*32(%rax)
.LEHE53:
	leaq	.LC37(%rip), %rdx
	movq	%r13, %rsi
	movq	%r14, %rdi
	movq	128(%rsp), %rcx
	movl	$8, 64(%rsp)
.LEHB54:
	call	_ZN7openpal6Logger3LogERKNS_10LogFiltersEPKcS5_@PLT
.LEHE54:
	movq	128(%rsp), %rdi
	leaq	144(%rsp), %rax
	cmpq	%rax, %rdi
	je	.L1757
	movq	144(%rsp), %rax
	leaq	1(%rax), %rsi
	call	_ZdlPvm@PLT
.L1757:
	movq	(%rbx), %rdi
	movq	312(%rsp), %rax
	subq	%fs:40, %rax
	jne	.L1955
	movq	(%rdi), %rax
	movq	24(%rax), %rax
	addq	$328, %rsp
	.cfi_remember_state
	.cfi_def_cfa_offset 56
	popq	%rbx
	.cfi_def_cfa_offset 48
	popq	%rbp
	.cfi_def_cfa_offset 40
	popq	%r12
	.cfi_def_cfa_offset 32
	popq	%r13
	.cfi_def_cfa_offset 24
	popq	%r14
	.cfi_def_cfa_offset 16
	popq	%r15
	.cfi_def_cfa_offset 8
.LEHB55:
	jmp	*%rax
	.p2align 4,,10
	.p2align 3
.L1756:
	.cfi_restore_state
	movq	200(%rax), %r13
	leaq	64(%rsp), %rbp
	movq	%rbp, %rsi
	leaq	1(%r13), %rdx
	movq	%rdx, 200(%rax)
	movl	$8, 64(%rsp)
	call	_ZNK7openpal6Logger9IsEnabledERKNS_10LogFiltersE@PLT
.LEHE55:
	testb	%al, %al
	jne	.L1962
.L1760:
	movq	(%rbx), %rdi
	movq	%rbp, %rcx
	movq	%r13, %rsi
	movq	(%rdi), %rax
	movq	160(%rdi), %rdx
	movq	32(%rax), %rax
	movq	%rdx, 88(%rsp)
	movl	136(%rdi), %edx
	movl	%edx, 64(%rsp)
	movzbl	140(%rdi), %edx
	movl	$-1, 136(%rdi)
	movb	%dl, 68(%rsp)
	movq	144(%rdi), %rdx
	movb	$0, 140(%rdi)
	movq	%rdx, 72(%rsp)
	movl	152(%rdi), %edx
	movq	$0, 144(%rdi)
	movl	%edx, 80(%rsp)
	leaq	56(%rdi), %rdx
	movl	$2, 152(%rdi)
.LEHB56:
	call	*%rax
.LEHE56:
	movl	64(%rsp), %r15d
	cmpl	$-1, %r15d
	je	.L1799
	movq	72(%rsp), %rbp
	testq	%rbp, %rbp
	je	.L1829
	movq	88(%rsp), %rax
	movzbl	68(%rsp), %r13d
	movq	40(%rax), %rax
	movq	%rax, 24(%rsp)
	leaq	40(%rbp), %rax
	movq	%rax, %rdi
	movq	%rax, 32(%rsp)
	call	pthread_mutex_lock@PLT
	movq	72(%rsp), %rdi
	cmpb	$0, 144(%rdi)
	je	.L1963
	movq	32(%rsp), %rdi
	call	pthread_mutex_unlock@PLT
.L1953:
	movl	64(%rsp), %r15d
	cmpl	$-1, %r15d
	je	.L1799
.L1829:
	call	__errno_location@PLT
	movzbl	68(%rsp), %r12d
	movq	%rax, %rbp
	testb	$8, %r12b
	jne	.L1946
	movq	_ZGVZN4asio15system_categoryEvE8instance@GOTPCREL(%rip), %r14
.L1831:
	movl	$0, 0(%rbp)
	movl	%r15d, %edi
	call	close@PLT
	movl	%eax, %r12d
	movzbl	(%r14), %eax
	testb	%al, %al
	je	.L1964
.L1836:
	movl	0(%rbp), %r13d
	testl	%r12d, %r12d
	je	.L1799
	movzbl	(%r14), %eax
	testb	%al, %al
	je	.L1965
.L1840:
	cmpl	$11, %r13d
	je	.L1842
.L1960:
	movzbl	(%r14), %eax
	testb	%al, %al
	je	.L1966
	.p2align 4,,10
	.p2align 3
.L1799:
	movq	312(%rsp), %rax
	subq	%fs:40, %rax
	jne	.L1955
	movq	(%rbx), %rdi
	addq	$328, %rsp
	.cfi_remember_state
	.cfi_def_cfa_offset 56
	popq	%rbx
	.cfi_def_cfa_offset 48
	popq	%rbp
	.cfi_def_cfa_offset 40
	popq	%r12
	.cfi_def_cfa_offset 32
	popq	%r13
	.cfi_def_cfa_offset 24
	popq	%r14
	.cfi_def_cfa_offset 16
	popq	%r15
	.cfi_def_cfa_offset 8
.LEHB57:
	jmp	_ZN7asiopal9TCPServer11StartAcceptEv@PLT
	.p2align 4,,10
	.p2align 3
.L1962:
	.cfi_restore_state
	call	_ZNSt3_V215system_categoryEv@PLT
	movq	(%rbx), %r14
	movq	%rax, %r15
	call	__errno_location@PLT
	cmpw	$2, 168(%r14)
	movq	%rax, 8(%rsp)
	je	.L1967
	movl	192(%r14), %eax
	leaq	104(%rsp), %rsi
	movl	$10, %edi
	movdqu	176(%r14), %xmm0
	movq	%r15, 72(%rsp)
	leaq	192(%rsp), %r15
	movq	%rax, %rcx
	movl	%eax, 24(%rsp)
	movq	%r15, %rdx
	movq	%rax, 16(%rsp)
	movq	.LC31(%rip), %rax
	movq	%rcx, 120(%rsp)
	movl	$63, %ecx
	movq	%rax, 96(%rsp)
	movq	8(%rsp), %rax
	movl	$0, 64(%rsp)
	movl	$0, (%rax)
	movups	%xmm0, 104(%rsp)
	call	inet_ntop@PLT
	movq	_ZGVZN4asio15system_categoryEvE8instance@GOTPCREL(%rip), %r14
	movq	%rax, %r10
	movzbl	(%r14), %eax
	testb	%al, %al
	je	.L1764
.L1950:
	movq	_ZZN4asio15system_categoryEvE8instance@GOTPCREL(%rip), %rsi
.L1765:
	movq	8(%rsp), %rax
	movq	%rsi, 72(%rsp)
	movl	(%rax), %r11d
	movl	%r11d, 64(%rsp)
	testq	%r10, %r10
	je	.L1968
	cmpq	$0, 16(%rsp)
	je	.L1777
	movzbl	104(%rsp), %eax
	movb	$0, 176(%rsp)
	movq	$37, 160(%rsp)
	movq	$0, 168(%rsp)
	cmpb	$-2, %al
	je	.L1969
	cmpb	$-1, %al
	jne	.L1951
	movzbl	105(%rsp), %eax
	leaq	161(%rsp), %r14
	andl	$15, %eax
	cmpb	$2, %al
	je	.L1774
.L1776:
	movq	16(%rsp), %r8
	movl	$16, %edx
	movq	%r14, %rdi
	xorl	%eax, %eax
	leaq	.LC32(%rip), %rcx
	movl	$1, %esi
	movl	%r11d, 24(%rsp)
	movq	%r10, 8(%rsp)
	call	__sprintf_chk@PLT
	movq	8(%rsp), %r10
	movl	24(%rsp), %r11d
.L1775:
	leaq	160(%rsp), %rsi
	movl	$63, %edx
	movq	%r15, %rdi
	movl	%r11d, 16(%rsp)
	movq	%r10, 8(%rsp)
	call	__strcat_chk@PLT
	movq	8(%rsp), %r10
	movl	16(%rsp), %r11d
.L1777:
	leaq	128(%rsp), %rax
	movq	%r10, %rdi
	movl	%r11d, 16(%rsp)
	leaq	144(%rsp), %r14
	movq	%r10, 8(%rsp)
	movq	%rax, 24(%rsp)
	movq	%r14, 128(%rsp)
	call	strlen@PLT
	movq	8(%rsp), %r10
	movl	16(%rsp), %r11d
	cmpq	$15, %rax
	movq	%rax, 48(%rsp)
	movq	%rax, %r8
	ja	.L1970
	cmpq	$1, %rax
	jne	.L1779
	movzbl	(%r10), %edx
	movb	%dl, 144(%rsp)
	movq	%r14, %rdx
.L1780:
	movq	%rax, 136(%rsp)
	movb	$0, (%rdx,%rax)
	testl	%r11d, %r11d
	jne	.L1772
.L1782:
	movq	%r15, %rdi
	movl	$120, %ecx
	movl	$1, %edx
	xorl	%eax, %eax
	movq	128(%rsp), %r9
	leaq	.LC38(%rip), %r8
	movl	$120, %esi
	call	__snprintf_chk@PLT
	movq	128(%rsp), %rdi
	cmpq	%r14, %rdi
	je	.L1798
	movq	144(%rsp), %rax
	leaq	1(%rax), %rsi
	call	_ZdlPvm@PLT
.L1798:
	movq	(%rbx), %rax
	movq	%r15, %rcx
	leaq	.LC39(%rip), %rdx
	movq	%rbp, %rsi
	movl	$8, 64(%rsp)
	leaq	24(%rax), %rdi
	call	_ZN7openpal6Logger3LogERKNS_10LogFiltersEPKcS5_@PLT
.LEHE57:
	jmp	.L1760
	.p2align 4,,10
	.p2align 3
.L1967:
	movl	172(%r14), %eax
	movq	%r15, 72(%rsp)
	pxor	%xmm0, %xmm0
	leaq	192(%rsp), %r15
	leaq	100(%rsp), %rsi
	movl	$16, %ecx
	movq	%r15, %rdx
	movl	$2, %edi
	movl	%eax, 100(%rsp)
	movq	8(%rsp), %rax
	movl	$0, 96(%rsp)
	movl	$0, (%rax)
	movq	$0, 120(%rsp)
	movl	$0, 64(%rsp)
	movups	%xmm0, 104(%rsp)
	call	inet_ntop@PLT
	movq	_ZGVZN4asio15system_categoryEvE8instance@GOTPCREL(%rip), %r14
	movq	%rax, %r8
	movzbl	(%r14), %eax
	testb	%al, %al
	je	.L1762
.L1952:
	movq	_ZZN4asio15system_categoryEvE8instance@GOTPCREL(%rip), %rsi
.L1763:
	movq	8(%rsp), %rax
	movq	%rsi, 72(%rsp)
	movl	(%rax), %ecx
	movl	%ecx, 64(%rsp)
	testq	%r8, %r8
	je	.L1971
	leaq	128(%rsp), %rax
	movq	%r8, %rdi
	movl	%ecx, 16(%rsp)
	leaq	144(%rsp), %r14
	movq	%r8, 8(%rsp)
	movq	%rax, 24(%rsp)
	movq	%r14, 128(%rsp)
	call	strlen@PLT
	movq	8(%rsp), %r8
	movl	16(%rsp), %ecx
	cmpq	$15, %rax
	movq	%rax, 48(%rsp)
	movq	%rax, %r9
	ja	.L1972
	cmpq	$1, %rax
	jne	.L1793
	movzbl	(%r8), %edx
	movb	%dl, 144(%rsp)
	movq	%r14, %rdx
.L1794:
	movq	%rax, 136(%rsp)
	movb	$0, (%rdx,%rax)
	testl	%ecx, %ecx
	je	.L1782
.L1791:
	movq	%rbp, %rdi
.LEHB58:
	call	_ZN4asio6detail14do_throw_errorERKSt10error_code@PLT
.LEHE58:
	.p2align 4,,10
	.p2align 3
.L1963:
	andl	$64, %r13d
	jne	.L1973
.L1802:
	movq	$0, 16(%rsp)
	xorl	%ebp, %ebp
.L1803:
	movslq	%r12d, %r13
	movq	%r13, %rax
	salq	$4, %rax
	movq	96(%rax,%rdi), %r15
	testq	%r15, %r15
	je	.L1861
	movq	_ZGVZN4asio15system_categoryEvE8instance@GOTPCREL(%rip), %r14
	movq	_ZZN4asio15system_categoryEvE8instance@GOTPCREL(%rip), %rsi
	movzbl	(%r14), %eax
	testb	%al, %al
	je	.L1974
	.p2align 4,,10
	.p2align 3
.L1805:
	movq	72(%rsp), %rdi
	movq	%r13, %rax
	movl	$125, 24(%r15)
	salq	$4, %rax
	movq	%rsi, 32(%r15)
	addq	%rdi, %rax
	movq	96(%rax), %rdx
	testq	%rdx, %rdx
	je	.L1807
	movq	(%rdx), %r11
	movq	%r11, 96(%rax)
	testq	%r11, %r11
	je	.L1975
	movq	$0, (%rdx)
	movq	$0, (%r15)
	testq	%rbp, %rbp
	je	.L1976
.L1856:
	movq	%r15, 0(%rbp)
	testq	%r11, %r11
	je	.L1809
.L1810:
	movzbl	(%r14), %eax
	movq	%r15, %rbp
	movq	%r11, %r15
	testb	%al, %al
	jne	.L1805
.L1974:
	movq	%r14, %rdi
	movq	%rsi, 8(%rsp)
	call	__cxa_guard_acquire@PLT
	movq	8(%rsp), %rsi
	testl	%eax, %eax
	je	.L1805
	movq	_ZN4asio6detail15system_categoryD1Ev@GOTPCREL(%rip), %rdi
	leaq	__dso_handle(%rip), %rdx
	call	__cxa_atexit@PLT
	movq	%r14, %rdi
	call	__cxa_guard_release@PLT
	movq	8(%rsp), %rsi
	jmp	.L1805
	.p2align 4,,10
	.p2align 3
.L1807:
	movq	$0, (%r15)
	testq	%rbp, %rbp
	je	.L1862
	movq	%r15, 0(%rbp)
.L1809:
	addl	$1, %r12d
	cmpl	$3, %r12d
	je	.L1811
	movq	%r15, %rbp
	jmp	.L1803
	.p2align 4,,10
	.p2align 3
.L1975:
	movq	$0, 104(%rax)
	movq	$0, (%rdx)
	movq	$0, (%r15)
	testq	%rbp, %rbp
	jne	.L1856
	.p2align 4,,10
	.p2align 3
.L1862:
	movq	%r15, 16(%rsp)
	jmp	.L1809
	.p2align 4,,10
	.p2align 3
.L1976:
	movq	%r15, 16(%rsp)
	jmp	.L1810
	.p2align 4,,10
	.p2align 3
.L1811:
	movl	$-1, 88(%rdi)
	movb	$1, 144(%rdi)
	movq	32(%rsp), %rdi
	call	pthread_mutex_unlock@PLT
	movq	24(%rsp), %r14
	movq	72(%rsp), %rbp
	leaq	120(%r14), %r12
	movq	%r12, %rdi
	call	pthread_mutex_lock@PLT
	cmpq	160(%r14), %rbp
	je	.L1977
.L1813:
	movq	32(%rbp), %rax
	testq	%rax, %rax
	je	.L1814
	movq	24(%rbp), %rdx
	movq	%rdx, 24(%rax)
.L1814:
	movq	24(%rbp), %rax
	testq	%rax, %rax
	je	.L1815
	movq	32(%rbp), %rdx
	movq	%rdx, 32(%rax)
.L1815:
	movq	24(%rsp), %r14
	movq	%r12, %rdi
	movq	168(%r14), %rax
	movq	$0, 32(%rbp)
	movq	%rax, 24(%rbp)
	movq	%rbp, 168(%r14)
	call	pthread_mutex_unlock@PLT
	cmpq	$0, 16(%rsp)
	movq	$0, 72(%rsp)
	je	.L1953
	movq	40(%r14), %rbp
	cmpb	$0, 40(%rbp)
	je	.L1817
	data16	leaq	_ZN4asio6detail15keyword_tss_ptrINS0_10call_stackINS0_15task_io_serviceENS0_27task_io_service_thread_infoEE7contextEE6value_E@tlsgd(%rip), %rdi
	.value	0x6666
	rex64
	call	__tls_get_addr@PLT
	movq	(%rax), %rax
	testq	%rax, %rax
	jne	.L1820
	jmp	.L1817
	.p2align 4,,10
	.p2align 3
.L1818:
	movq	16(%rax), %rax
	testq	%rax, %rax
	je	.L1817
.L1820:
	cmpq	(%rax), %rbp
	jne	.L1818
	movq	8(%rax), %rax
	testq	%rax, %rax
	je	.L1817
	movq	16(%rax), %rdx
	movq	16(%rsp), %rcx
	testq	%rdx, %rdx
	je	.L1821
	movq	%rcx, (%rdx)
.L1822:
	movq	%r15, 16(%rax)
	jmp	.L1953
	.p2align 4,,10
	.p2align 3
.L1964:
	movq	%r14, %rdi
	call	__cxa_guard_acquire@PLT
	testl	%eax, %eax
	je	.L1836
	movq	_ZZN4asio15system_categoryEvE8instance@GOTPCREL(%rip), %rsi
	movq	_ZN4asio6detail15system_categoryD1Ev@GOTPCREL(%rip), %rdi
	leaq	__dso_handle(%rip), %rdx
	call	__cxa_atexit@PLT
	movq	%r14, %rdi
	call	__cxa_guard_release@PLT
	jmp	.L1836
	.p2align 4,,10
	.p2align 3
.L1946:
	movl	$0, (%rax)
	orl	$8, %r12d
	leaq	48(%rsp), %rcx
	movl	$8, %r8d
	movl	$13, %edx
	movl	$1, %esi
	movl	%r15d, %edi
	movq	$0, 48(%rsp)
	movb	%r12b, 68(%rsp)
	call	setsockopt@PLT
	movq	_ZGVZN4asio15system_categoryEvE8instance@GOTPCREL(%rip), %r14
	movzbl	(%r14), %eax
	testb	%al, %al
	jne	.L1831
	movq	%r14, %rdi
	call	__cxa_guard_acquire@PLT
	testl	%eax, %eax
	je	.L1831
	movq	_ZZN4asio15system_categoryEvE8instance@GOTPCREL(%rip), %rsi
	movq	_ZN4asio6detail15system_categoryD1Ev@GOTPCREL(%rip), %rdi
	leaq	__dso_handle(%rip), %rdx
	call	__cxa_atexit@PLT
	movq	%r14, %rdi
	call	__cxa_guard_release@PLT
	jmp	.L1831
	.p2align 4,,10
	.p2align 3
.L1817:
	leaq	48(%rbp), %r12
	movq	%r12, %rdi
	call	pthread_mutex_lock@PLT
	movq	200(%rbp), %rax
	testq	%rax, %rax
	je	.L1824
	movq	16(%rsp), %rcx
	movq	%rcx, (%rax)
.L1825:
	movq	136(%rbp), %rax
	movq	%r15, 200(%rbp)
	orq	$1, %rax
	movq	%rax, 136(%rbp)
	cmpq	$1, %rax
	je	.L1826
	movq	%r12, %rdi
	call	pthread_mutex_unlock@PLT
	leaq	88(%rbp), %rdi
	call	pthread_cond_signal@PLT
	jmp	.L1953
.L1972:
	movq	24(%rsp), %rdi
	leaq	48(%rsp), %rsi
	xorl	%edx, %edx
	movl	%ecx, 16(%rsp)
	movq	%r9, 32(%rsp)
	movq	%r8, 8(%rsp)
.LEHB59:
	call	_ZNSt7__cxx1112basic_stringIcSt11char_traitsIcESaIcEE9_M_createERmm@PLT
.LEHE59:
	movq	8(%rsp), %r8
	movl	16(%rsp), %ecx
	movq	%rax, 128(%rsp)
	movq	%rax, %rdi
	movq	48(%rsp), %rax
	movq	32(%rsp), %r9
	movq	%rax, 144(%rsp)
.L1792:
	movq	%r9, %rdx
	movq	%r8, %rsi
	movl	%ecx, 8(%rsp)
	call	memcpy@PLT
	movq	48(%rsp), %rax
	movl	8(%rsp), %ecx
	movq	128(%rsp), %rdx
	jmp	.L1794
.L1966:
	movq	%r14, %rdi
	call	__cxa_guard_acquire@PLT
	testl	%eax, %eax
	je	.L1799
	movq	_ZZN4asio15system_categoryEvE8instance@GOTPCREL(%rip), %rsi
	movq	_ZN4asio6detail15system_categoryD1Ev@GOTPCREL(%rip), %rdi
	leaq	__dso_handle(%rip), %rdx
	call	__cxa_atexit@PLT
	movq	%r14, %rdi
	call	__cxa_guard_release@PLT
	jmp	.L1799
.L1842:
	movl	%r15d, %edi
	leaq	48(%rsp), %rdx
	movl	$21537, %esi
	xorl	%eax, %eax
	movl	$0, 48(%rsp)
	call	ioctl@PLT
	movl	$0, 0(%rbp)
	movl	%r15d, %edi
	andb	$-4, 68(%rsp)
	call	close@PLT
	jmp	.L1960
.L1965:
	movq	%r14, %rdi
	call	__cxa_guard_acquire@PLT
	testl	%eax, %eax
	je	.L1840
	movq	_ZZN4asio15system_categoryEvE8instance@GOTPCREL(%rip), %rsi
	movq	_ZN4asio6detail15system_categoryD1Ev@GOTPCREL(%rip), %rdi
	leaq	__dso_handle(%rip), %rdx
	call	__cxa_atexit@PLT
	movq	%r14, %rdi
	call	__cxa_guard_release@PLT
	jmp	.L1840
.L1968:
	testl	%r11d, %r11d
	je	.L1978
	leaq	144(%rsp), %r14
	movb	$0, 144(%rsp)
	movq	%r14, 128(%rsp)
	movq	$0, 136(%rsp)
.L1772:
	movq	%rbp, %rdi
.LEHB60:
	call	_ZN4asio6detail14do_throw_errorERKSt10error_code@PLT
.LEHE60:
.L1955:
	call	__stack_chk_fail@PLT
	.p2align 4,,10
	.p2align 3
.L1762:
	movq	%r14, %rdi
	movq	%r8, 16(%rsp)
	call	__cxa_guard_acquire@PLT
	movq	16(%rsp), %r8
	testl	%eax, %eax
	je	.L1952
	movq	_ZZN4asio15system_categoryEvE8instance@GOTPCREL(%rip), %rsi
	movq	_ZN4asio6detail15system_categoryD1Ev@GOTPCREL(%rip), %rdi
	movq	%r8, 24(%rsp)
	leaq	__dso_handle(%rip), %rdx
	movq	%rsi, 16(%rsp)
	call	__cxa_atexit@PLT
	movq	%r14, %rdi
	call	__cxa_guard_release@PLT
	movq	24(%rsp), %r8
	movq	16(%rsp), %rsi
	jmp	.L1763
	.p2align 4,,10
	.p2align 3
.L1971:
	testl	%ecx, %ecx
	je	.L1979
	leaq	144(%rsp), %r14
	movb	$0, 144(%rsp)
	movq	%r14, 128(%rsp)
	movq	$0, 136(%rsp)
	jmp	.L1791
.L1826:
	cmpb	$0, 176(%rbp)
	jne	.L1828
	movq	144(%rbp), %rax
	testq	%rax, %rax
	je	.L1828
	movb	$1, 176(%rbp)
	leaq	88(%rax), %rdx
	leaq	48(%rsp), %rcx
	movl	$3, %esi
	movq	%rdx, 52(%rsp)
	movl	88(%rax), %edx
	movl	$-2147483639, 48(%rsp)
	movl	96(%rax), %edi
	call	epoll_ctl@PLT
.L1828:
	movq	%r12, %rdi
	call	pthread_mutex_unlock@PLT
	jmp	.L1953
	.p2align 4,,10
	.p2align 3
.L1861:
	movq	%rbp, %r15
	jmp	.L1809
	.p2align 4,,10
	.p2align 3
.L1973:
	movq	24(%rsp), %rax
	movl	$0, 48(%rsp)
	leaq	48(%rsp), %rcx
	movl	%r15d, %edx
	movq	$0, 52(%rsp)
	movl	$2, %esi
	movl	96(%rax), %edi
	call	epoll_ctl@PLT
	movq	72(%rsp), %rdi
	jmp	.L1802
	.p2align 4,,10
	.p2align 3
.L1977:
	movq	24(%rbp), %rax
	movq	24(%rsp), %rcx
	movq	%rax, 160(%rcx)
	jmp	.L1813
.L1793:
	testq	%r9, %r9
	jne	.L1980
	movq	%r14, %rdx
	jmp	.L1794
	.p2align 4,,10
	.p2align 3
.L1764:
	movq	%r14, %rdi
	movq	%r10, 32(%rsp)
	call	__cxa_guard_acquire@PLT
	movq	32(%rsp), %r10
	testl	%eax, %eax
	je	.L1950
	movq	_ZZN4asio15system_categoryEvE8instance@GOTPCREL(%rip), %rsi
	movq	_ZN4asio6detail15system_categoryD1Ev@GOTPCREL(%rip), %rdi
	movq	%r10, 40(%rsp)
	leaq	__dso_handle(%rip), %rdx
	movq	%rsi, 32(%rsp)
	call	__cxa_atexit@PLT
	movq	%r14, %rdi
	call	__cxa_guard_release@PLT
	movq	40(%rsp), %r10
	movq	32(%rsp), %rsi
	jmp	.L1765
.L1979:
	movzbl	(%r14), %eax
	testb	%al, %al
	je	.L1981
.L1789:
	leaq	144(%rsp), %r14
	movl	$22, 64(%rsp)
	movq	%rsi, 72(%rsp)
	movq	%r14, 128(%rsp)
	movq	$0, 136(%rsp)
	movb	$0, 144(%rsp)
	jmp	.L1791
.L1779:
	testq	%r8, %r8
	jne	.L1982
	movq	%r14, %rdx
	jmp	.L1780
.L1970:
	movq	24(%rsp), %rdi
	leaq	48(%rsp), %rsi
	xorl	%edx, %edx
	movq	%r8, 32(%rsp)
	movl	%r11d, 16(%rsp)
	movq	%r10, 8(%rsp)
.LEHB61:
	call	_ZNSt7__cxx1112basic_stringIcSt11char_traitsIcESaIcEE9_M_createERmm@PLT
.LEHE61:
	movq	8(%rsp), %r10
	movl	16(%rsp), %r11d
	movq	%rax, 128(%rsp)
	movq	%rax, %rdi
	movq	48(%rsp), %rax
	movq	32(%rsp), %r8
	movq	%rax, 144(%rsp)
.L1778:
	movq	%r8, %rdx
	movq	%r10, %rsi
	movl	%r11d, 8(%rsp)
	call	memcpy@PLT
	movq	48(%rsp), %rax
	movl	8(%rsp), %r11d
	movq	128(%rsp), %rdx
	jmp	.L1780
.L1824:
	movq	16(%rsp), %rax
	movq	%rax, 192(%rbp)
	jmp	.L1825
.L1969:
	movzbl	105(%rsp), %eax
	andl	$-64, %eax
	cmpb	$-128, %al
	je	.L1774
.L1951:
	leaq	161(%rsp), %r14
	jmp	.L1776
.L1774:
	movl	24(%rsp), %edi
	leaq	161(%rsp), %r14
	movl	%r11d, 32(%rsp)
	movq	%r14, %rsi
	movq	%r10, 8(%rsp)
	call	if_indextoname@PLT
	movq	8(%rsp), %r10
	movl	32(%rsp), %r11d
	testq	%rax, %rax
	jne	.L1775
	jmp	.L1776
.L1821:
	movq	%rcx, 8(%rax)
	jmp	.L1822
.L1978:
	movzbl	(%r14), %eax
	testb	%al, %al
	je	.L1983
.L1770:
	leaq	144(%rsp), %r14
	movl	$22, 64(%rsp)
	movq	%rsi, 72(%rsp)
	movq	%r14, 128(%rsp)
	movq	$0, 136(%rsp)
	movb	$0, 144(%rsp)
	jmp	.L1772
.L1981:
	movq	%r14, %rdi
	movq	%rsi, 8(%rsp)
	call	__cxa_guard_acquire@PLT
	movq	8(%rsp), %rsi
	testl	%eax, %eax
	je	.L1789
	movq	_ZN4asio6detail15system_categoryD1Ev@GOTPCREL(%rip), %rdi
	leaq	__dso_handle(%rip), %rdx
	call	__cxa_atexit@PLT
	movq	%r14, %rdi
	call	__cxa_guard_release@PLT
	movq	8(%rsp), %rsi
	jmp	.L1789
.L1983:
	movq	%r14, %rdi
	movq	%rsi, 8(%rsp)
	call	__cxa_guard_acquire@PLT
	movq	8(%rsp), %rsi
	testl	%eax, %eax
	je	.L1770
	movq	_ZN4asio6detail15system_categoryD1Ev@GOTPCREL(%rip), %rdi
	leaq	__dso_handle(%rip), %rdx
	call	__cxa_atexit@PLT
	movq	%r14, %rdi
	call	__cxa_guard_release@PLT
	movq	8(%rsp), %rsi
	jmp	.L1770
.L1982:
	movq	%r14, %rdi
	jmp	.L1778
.L1980:
	movq	%r14, %rdi
	jmp	.L1792
.L1866:
	endbr64
	movq	%rax, %rbp
	jmp	.L1796
.L1864:
	endbr64
	movq	%rax, %rbp
	jmp	.L1847
.L1863:
	endbr64
	movq	%rax, %r12
	jmp	.L1849
.L1865:
	endbr64
	movq	%rax, %rbp
	jmp	.L1796
	.section	.gcc_except_table
.LLSDA9584:
	.byte	0xff
	.byte	0xff
	.byte	0x1
	.uleb128 .LLSDACSE9584-.LLSDACSB9584
.LLSDACSB9584:
	.uleb128 .LEHB53-.LFB9584
	.uleb128 .LEHE53-.LEHB53
	.uleb128 0
	.uleb128 0
	.uleb128 .LEHB54-.LFB9584
	.uleb128 .LEHE54-.LEHB54
	.uleb128 .L1864-.LFB9584
	.uleb128 0
	.uleb128 .LEHB55-.LFB9584
	.uleb128 .LEHE55-.LEHB55
	.uleb128 0
	.uleb128 0
	.uleb128 .LEHB56-.LFB9584
	.uleb128 .LEHE56-.LEHB56
	.uleb128 .L1863-.LFB9584
	.uleb128 0
	.uleb128 .LEHB57-.LFB9584
	.uleb128 .LEHE57-.LEHB57
	.uleb128 0
	.uleb128 0
	.uleb128 .LEHB58-.LFB9584
	.uleb128 .LEHE58-.LEHB58
	.uleb128 .L1866-.LFB9584
	.uleb128 0
	.uleb128 .LEHB59-.LFB9584
	.uleb128 .LEHE59-.LEHB59
	.uleb128 0
	.uleb128 0
	.uleb128 .LEHB60-.LFB9584
	.uleb128 .LEHE60-.LEHB60
	.uleb128 .L1865-.LFB9584
	.uleb128 0
	.uleb128 .LEHB61-.LFB9584
	.uleb128 .LEHE61-.LEHB61
	.uleb128 0
	.uleb128 0
.LLSDACSE9584:
	.text
	.cfi_endproc
	.section	.text.unlikely
	.cfi_startproc
	.cfi_personality 0x9b,DW.ref.__gxx_personality_v0
	.cfi_lsda 0x1b,.LLSDAC9584
	.type	_ZZN7asiopal9TCPServer11StartAcceptEvENKUlSt10error_codeE_clES1_.isra.0.cold, @function
_ZZN7asiopal9TCPServer11StartAcceptEvENKUlSt10error_codeE_clES1_.isra.0.cold:
.LFSB9584:
.L1796:
	.cfi_def_cfa_offset 384
	.cfi_offset 3, -56
	.cfi_offset 6, -48
	.cfi_offset 12, -40
	.cfi_offset 13, -32
	.cfi_offset 14, -24
	.cfi_offset 15, -16
	movq	128(%rsp), %rdi
	cmpq	%r14, %rdi
	je	.L1848
.L1958:
	movq	144(%rsp), %rax
	leaq	1(%rax), %rsi
	call	_ZdlPvm@PLT
.L1848:
	movq	%rbp, %rdi
.LEHB62:
	call	_Unwind_Resume@PLT
.LEHE62:
.L1847:
	movq	128(%rsp), %rdi
	leaq	144(%rsp), %rax
	cmpq	%rax, %rdi
	jne	.L1958
	jmp	.L1848
.L1849:
	movq	88(%rsp), %rax
	movq	%rbp, %rsi
	leaq	40(%rax), %rdi
	call	_ZN4asio6detail28reactive_socket_service_base7destroyERNS1_24base_implementation_typeE@PLT
	movq	%r12, %rdi
.LEHB63:
	call	_Unwind_Resume@PLT
.LEHE63:
	.cfi_endproc
.LFE9584:
	.section	.gcc_except_table
.LLSDAC9584:
	.byte	0xff
	.byte	0xff
	.byte	0x1
	.uleb128 .LLSDACSEC9584-.LLSDACSBC9584
.LLSDACSBC9584:
	.uleb128 .LEHB62-.LCOLDB40
	.uleb128 .LEHE62-.LEHB62
	.uleb128 0
	.uleb128 0
	.uleb128 .LEHB63-.LCOLDB40
	.uleb128 .LEHE63-.LEHB63
	.uleb128 0
	.uleb128 0
.LLSDACSEC9584:
	.section	.text.unlikely
	.text
	.size	_ZZN7asiopal9TCPServer11StartAcceptEvENKUlSt10error_codeE_clES1_.isra.0, .-_ZZN7asiopal9TCPServer11StartAcceptEvENKUlSt10error_codeE_clES1_.isra.0
	.section	.text.unlikely
	.size	_ZZN7asiopal9TCPServer11StartAcceptEvENKUlSt10error_codeE_clES1_.isra.0.cold, .-_ZZN7asiopal9TCPServer11StartAcceptEvENKUlSt10error_codeE_clES1_.isra.0.cold
.LCOLDE40:
	.text
.LHOTE40:
	.section	.text.unlikely
.LCOLDB41:
	.text
.LHOTB41:
	.p2align 4
	.type	_ZN4asio6detail18completion_handlerINS0_7binder1IZN7asiopal9TCPServer11StartAcceptEvEUlSt10error_codeE_S5_EEE11do_completeEPNS0_15task_io_serviceEPNS0_25task_io_service_operationERKS5_m, @function
_ZN4asio6detail18completion_handlerINS0_7binder1IZN7asiopal9TCPServer11StartAcceptEvEUlSt10error_codeE_S5_EEE11do_completeEPNS0_15task_io_serviceEPNS0_25task_io_service_operationERKS5_m:
.LFB9337:
	.cfi_startproc
	.cfi_personality 0x9b,DW.ref.__gxx_personality_v0
	.cfi_lsda 0x1b,.LLSDA9337
	endbr64
	pushq	%r12
	.cfi_def_cfa_offset 16
	.cfi_offset 12, -16
	pushq	%rbp
	.cfi_def_cfa_offset 24
	.cfi_offset 6, -24
	movq	%rsi, %rbp
	pushq	%rbx
	.cfi_def_cfa_offset 32
	.cfi_offset 3, -32
	movq	%rdi, %rbx
	subq	$80, %rsp
	.cfi_def_cfa_offset 112
	movdqu	24(%rsi), %xmm0
	movdqu	40(%rsi), %xmm1
	movq	%fs:40, %rax
	movq	%rax, 72(%rsp)
	xorl	%eax, %eax
	leaq	32(%rsp), %r12
	movq	%rsi, 8(%rsp)
	movq	%r12, (%rsp)
	movq	$0, 16(%rsp)
	movaps	%xmm0, 32(%rsp)
	movaps	%xmm1, 48(%rsp)
	data16	leaq	_ZN4asio6detail15keyword_tss_ptrINS0_10call_stackINS0_15task_io_serviceENS0_27task_io_service_thread_infoEE7contextEE6value_E@tlsgd(%rip), %rdi
	.value	0x6666
	rex64
	call	__tls_get_addr@PLT
	movq	(%rax), %rax
	testq	%rax, %rax
	je	.L1985
	movq	8(%rax), %rax
	testq	%rax, %rax
	je	.L1985
	cmpq	$0, (%rax)
	je	.L2036
.L1985:
	movq	%rbp, %rdi
	call	_ZdlPv@PLT
.L1986:
	movq	$0, 8(%rsp)
	testq	%rbx, %rbx
	je	.L1987
	movq	56(%rsp), %rdx
	movl	48(%rsp), %esi
	movq	%r12, %rdi
.LEHB64:
	call	_ZZN7asiopal9TCPServer11StartAcceptEvENKUlSt10error_codeE_clES1_.isra.0
.LEHE64:
	sfence
.L1987:
	movq	40(%rsp), %rbp
	testq	%rbp, %rbp
	je	.L1984
	movq	__libc_single_threaded@GOTPCREL(%rip), %r12
	cmpb	$0, (%r12)
	je	.L1990
	movl	8(%rbp), %eax
	leal	-1(%rax), %edx
	movl	%edx, 8(%rbp)
	cmpl	$1, %eax
	je	.L1992
.L2039:
	movq	16(%rsp), %rbx
.L1993:
	testq	%rbx, %rbx
	je	.L1996
	movq	32(%rbx), %rbp
	testq	%rbp, %rbp
	je	.L1998
	cmpb	$0, (%r12)
	je	.L1999
	movl	8(%rbp), %eax
	leal	-1(%rax), %edx
	movl	%edx, 8(%rbp)
.L2000:
	cmpl	$1, %eax
	je	.L2037
.L1998:
	movq	$0, 16(%rsp)
.L1996:
	movq	8(%rsp), %rbp
	testq	%rbp, %rbp
	je	.L1984
	data16	leaq	_ZN4asio6detail15keyword_tss_ptrINS0_10call_stackINS0_15task_io_serviceENS0_27task_io_service_thread_infoEE7contextEE6value_E@tlsgd(%rip), %rdi
	.value	0x6666
	rex64
	call	__tls_get_addr@PLT
	movq	(%rax), %rax
	testq	%rax, %rax
	je	.L2004
	movq	8(%rax), %rax
	testq	%rax, %rax
	je	.L2004
	cmpq	$0, (%rax)
	je	.L2038
.L2004:
	movq	72(%rsp), %rax
	subq	%fs:40, %rax
	jne	.L2035
	addq	$80, %rsp
	.cfi_remember_state
	.cfi_def_cfa_offset 32
	movq	%rbp, %rdi
	popq	%rbx
	.cfi_def_cfa_offset 24
	popq	%rbp
	.cfi_def_cfa_offset 16
	popq	%r12
	.cfi_def_cfa_offset 8
	jmp	_ZdlPv@PLT
	.p2align 4,,10
	.p2align 3
.L2038:
	.cfi_restore_state
	movzbl	56(%rbp), %edx
	movb	%dl, 0(%rbp)
	movq	%rbp, (%rax)
	.p2align 4,,10
	.p2align 3
.L1984:
	movq	72(%rsp), %rax
	subq	%fs:40, %rax
	jne	.L2035
	addq	$80, %rsp
	.cfi_remember_state
	.cfi_def_cfa_offset 32
	popq	%rbx
	.cfi_def_cfa_offset 24
	popq	%rbp
	.cfi_def_cfa_offset 16
	popq	%r12
	.cfi_def_cfa_offset 8
	ret
	.p2align 4,,10
	.p2align 3
.L1990:
	.cfi_restore_state
	movl	$-1, %eax
	lock xaddl	%eax, 8(%rbp)
	cmpl	$1, %eax
	jne	.L2039
.L1992:
	movq	0(%rbp), %rax
	movq	%rbp, %rdi
	call	*16(%rax)
	cmpb	$0, (%r12)
	je	.L1994
	movl	12(%rbp), %eax
	leal	-1(%rax), %edx
	movl	%edx, 12(%rbp)
.L1995:
	movq	16(%rsp), %rbx
	cmpl	$1, %eax
	jne	.L1993
	movq	0(%rbp), %rax
	movq	%rbp, %rdi
	call	*24(%rax)
	jmp	.L1993
	.p2align 4,,10
	.p2align 3
.L2036:
	movzbl	56(%rbp), %edx
	movb	%dl, 0(%rbp)
	movq	%rbp, (%rax)
	jmp	.L1986
	.p2align 4,,10
	.p2align 3
.L2037:
	movq	0(%rbp), %rax
	movq	%rbp, %rdi
	call	*16(%rax)
	cmpb	$0, (%r12)
	je	.L2002
	movl	12(%rbp), %eax
	leal	-1(%rax), %edx
	movl	%edx, 12(%rbp)
.L2003:
	cmpl	$1, %eax
	jne	.L1998
	movq	0(%rbp), %rax
	movq	%rbp, %rdi
	call	*24(%rax)
	jmp	.L1998
	.p2align 4,,10
	.p2align 3
.L1999:
	movl	$-1, %eax
	lock xaddl	%eax, 8(%rbp)
	jmp	.L2000
	.p2align 4,,10
	.p2align 3
.L1994:
	movl	$-1, %eax
	lock xaddl	%eax, 12(%rbp)
	jmp	.L1995
	.p2align 4,,10
	.p2align 3
.L2002:
	movl	$-1, %eax
	lock xaddl	%eax, 12(%rbp)
	jmp	.L2003
.L2035:
	call	__stack_chk_fail@PLT
.L2009:
	endbr64
	movq	%rax, %rbp
	jmp	.L2006
	.section	.gcc_except_table
.LLSDA9337:
	.byte	0xff
	.byte	0xff
	.byte	0x1
	.uleb128 .LLSDACSE9337-.LLSDACSB9337
.LLSDACSB9337:
	.uleb128 .LEHB64-.LFB9337
	.uleb128 .LEHE64-.LEHB64
	.uleb128 .L2009-.LFB9337
	.uleb128 0
.LLSDACSE9337:
	.text
	.cfi_endproc
	.section	.text.unlikely
	.cfi_startproc
	.cfi_personality 0x9b,DW.ref.__gxx_personality_v0
	.cfi_lsda 0x1b,.LLSDAC9337
	.type	_ZN4asio6detail18completion_handlerINS0_7binder1IZN7asiopal9TCPServer11StartAcceptEvEUlSt10error_codeE_S5_EEE11do_completeEPNS0_15task_io_serviceEPNS0_25task_io_service_operationERKS5_m.cold, @function
_ZN4asio6detail18completion_handlerINS0_7binder1IZN7asiopal9TCPServer11StartAcceptEvEUlSt10error_codeE_S5_EEE11do_completeEPNS0_15task_io_serviceEPNS0_25task_io_service_operationERKS5_m.cold:
.LFSB9337:
.L2006:
	.cfi_def_cfa_offset 112
	.cfi_offset 3, -32
	.cfi_offset 6, -24
	.cfi_offset 12, -16
	sfence
	movq	40(%rsp), %rdi
	testq	%rdi, %rdi
	je	.L2007
	call	_ZNSt16_Sp_counted_baseILN9__gnu_cxx12_Lock_policyE2EE10_M_releaseEv@PLT
.L2007:
	movq	%rsp, %rdi
	call	_ZN4asio6detail18completion_handlerINS0_7binder1IZN7asiopal9TCPServer11StartAcceptEvEUlSt10error_codeE_S5_EEE3ptr5resetEv
	movq	%rbp, %rdi
.LEHB65:
	call	_Unwind_Resume@PLT
.LEHE65:
	.cfi_endproc
.LFE9337:
	.section	.gcc_except_table
.LLSDAC9337:
	.byte	0xff
	.byte	0xff
	.byte	0x1
	.uleb128 .LLSDACSEC9337-.LLSDACSBC9337
.LLSDACSBC9337:
	.uleb128 .LEHB65-.LCOLDB41
	.uleb128 .LEHE65-.LEHB65
	.uleb128 0
	.uleb128 0
.LLSDACSEC9337:
	.section	.text.unlikely
	.text
	.size	_ZN4asio6detail18completion_handlerINS0_7binder1IZN7asiopal9TCPServer11StartAcceptEvEUlSt10error_codeE_S5_EEE11do_completeEPNS0_15task_io_serviceEPNS0_25task_io_service_operationERKS5_m, .-_ZN4asio6detail18completion_handlerINS0_7binder1IZN7asiopal9TCPServer11StartAcceptEvEUlSt10error_codeE_S5_EEE11do_completeEPNS0_15task_io_serviceEPNS0_25task_io_service_operationERKS5_m
	.section	.text.unlikely
	.size	_ZN4asio6detail18completion_handlerINS0_7binder1IZN7asiopal9TCPServer11StartAcceptEvEUlSt10error_codeE_S5_EEE11do_completeEPNS0_15task_io_serviceEPNS0_25task_io_service_operationERKS5_m.cold, .-_ZN4asio6detail18completion_handlerINS0_7binder1IZN7asiopal9TCPServer11StartAcceptEvEUlSt10error_codeE_S5_EEE11do_completeEPNS0_15task_io_serviceEPNS0_25task_io_service_operationERKS5_m.cold
.LCOLDE41:
	.text
.LHOTE41:
	.section	.text.unlikely
.LCOLDB42:
	.text
.LHOTB42:
	.p2align 4
	.type	_ZN4asio6detail18completion_handlerINS0_17rewrapped_handlerINS0_7binder1INS0_15wrapped_handlerINS_10io_service6strandEZN7asiopal9TCPServer11StartAcceptEvEUlSt10error_codeE_NS0_26is_continuation_if_runningEEES9_EESA_EEE11do_completeEPNS0_15task_io_serviceEPNS0_25task_io_service_operationERKS9_m, @function
_ZN4asio6detail18completion_handlerINS0_17rewrapped_handlerINS0_7binder1INS0_15wrapped_handlerINS_10io_service6strandEZN7asiopal9TCPServer11StartAcceptEvEUlSt10error_codeE_NS0_26is_continuation_if_runningEEES9_EESA_EEE11do_completeEPNS0_15task_io_serviceEPNS0_25task_io_service_operationERKS9_m:
.LFB9290:
	.cfi_startproc
	.cfi_personality 0x9b,DW.ref.__gxx_personality_v0
	.cfi_lsda 0x1b,.LLSDA9290
	endbr64
	pushq	%r14
	.cfi_def_cfa_offset 16
	.cfi_offset 14, -16
	pushq	%r13
	.cfi_def_cfa_offset 24
	.cfi_offset 13, -24
	pushq	%r12
	.cfi_def_cfa_offset 32
	.cfi_offset 12, -32
	pushq	%rbp
	.cfi_def_cfa_offset 40
	.cfi_offset 6, -40
	movq	%rsi, %rbp
	pushq	%rbx
	.cfi_def_cfa_offset 48
	.cfi_offset 3, -48
	movq	%rdi, %rbx
	subq	$336, %rsp
	.cfi_def_cfa_offset 384
	movdqu	24(%rsi), %xmm3
	movq	64(%rsi), %r12
	movdqu	40(%rsi), %xmm4
	movdqu	56(%rsi), %xmm5
	leaq	256(%rsp), %r13
	movq	%fs:40, %rax
	movq	%rax, 328(%rsp)
	xorl	%eax, %eax
	movdqu	72(%rsi), %xmm6
	movq	%rsi, 56(%rsp)
	movq	%r13, 48(%rsp)
	movq	$0, 64(%rsp)
	movaps	%xmm3, 256(%rsp)
	movaps	%xmm4, 272(%rsp)
	movaps	%xmm5, 288(%rsp)
	movaps	%xmm6, 304(%rsp)
	data16	leaq	_ZN4asio6detail15keyword_tss_ptrINS0_10call_stackINS0_15task_io_serviceENS0_27task_io_service_thread_infoEE7contextEE6value_E@tlsgd(%rip), %rdi
	.value	0x6666
	rex64
	call	__tls_get_addr@PLT
	movq	(%rax), %rax
	testq	%rax, %rax
	je	.L2041
	movq	8(%rax), %rax
	testq	%rax, %rax
	je	.L2041
	cmpq	$0, (%rax)
	je	.L2260
.L2041:
	movq	%rbp, %rdi
	call	_ZdlPv@PLT
	movq	296(%rsp), %r12
.L2042:
	movq	$0, 56(%rsp)
	testq	%rbx, %rbx
	je	.L2043
	movq	288(%rsp), %rax
	movq	%r12, %xmm7
	movq	%rax, %xmm1
	punpcklqdq	%xmm7, %xmm1
	movaps	%xmm1, (%rsp)
	testq	%r12, %r12
	je	.L2044
	movq	__libc_single_threaded@GOTPCREL(%rip), %rax
	cmpb	$0, (%rax)
	je	.L2045
	addl	$1, 8(%r12)
.L2044:
	movl	304(%rsp), %eax
	movdqa	(%rsp), %xmm3
	movq	272(%rsp), %r12
	movq	280(%rsp), %rbp
	movl	%eax, 224(%rsp)
	movq	312(%rsp), %rax
	movaps	%xmm3, 208(%rsp)
	movq	%rax, 232(%rsp)
	data16	leaq	_ZN4asio6detail15keyword_tss_ptrINS0_10call_stackINS0_14strand_service11strand_implEhE7contextEE6value_E@tlsgd(%rip), %rdi
	.value	0x6666
	rex64
	call	__tls_get_addr@PLT
	movq	(%rax), %rax
	testq	%rax, %rax
	jne	.L2049
	jmp	.L2046
	.p2align 4,,10
	.p2align 3
.L2047:
	movq	16(%rax), %rax
	testq	%rax, %rax
	je	.L2046
.L2049:
	cmpq	(%rax), %rbp
	jne	.L2047
	cmpq	$0, 8(%rax)
	je	.L2046
	lfence
	movq	232(%rsp), %rdx
	leaq	208(%rsp), %rdi
	movl	224(%rsp), %esi
.LEHB66:
	call	_ZZN7asiopal9TCPServer11StartAcceptEvENKUlSt10error_codeE_clES1_.isra.0
.LEHE66:
	sfence
.L2050:
	movq	216(%rsp), %r12
	testq	%r12, %r12
	je	.L2120
	movq	__libc_single_threaded@GOTPCREL(%rip), %rbp
	cmpb	$0, 0(%rbp)
	je	.L2122
	movl	8(%r12), %eax
	leal	-1(%rax), %edx
	movl	%edx, 8(%r12)
.L2123:
	cmpl	$1, %eax
	je	.L2261
.L2120:
	sfence
	movq	296(%rsp), %r12
.L2043:
	testq	%r12, %r12
	je	.L2129
	movq	__libc_single_threaded@GOTPCREL(%rip), %rbp
	cmpb	$0, 0(%rbp)
	je	.L2130
	movl	8(%r12), %eax
	leal	-1(%rax), %edx
	movl	%edx, 8(%r12)
.L2131:
	cmpl	$1, %eax
	je	.L2262
.L2129:
	movq	264(%rsp), %r12
	testq	%r12, %r12
	je	.L2136
	movq	__libc_single_threaded@GOTPCREL(%rip), %rbp
	cmpb	$0, 0(%rbp)
	je	.L2137
	movl	8(%r12), %eax
	leal	-1(%rax), %edx
	movl	%edx, 8(%r12)
.L2138:
	cmpl	$1, %eax
	je	.L2263
.L2136:
	movq	64(%rsp), %rbx
	testq	%rbx, %rbx
	je	.L2142
	movq	64(%rbx), %r12
	testq	%r12, %r12
	je	.L2144
	movq	__libc_single_threaded@GOTPCREL(%rip), %rbp
	cmpb	$0, 0(%rbp)
	je	.L2145
	movl	8(%r12), %eax
	leal	-1(%rax), %edx
	movl	%edx, 8(%r12)
.L2146:
	cmpl	$1, %eax
	jne	.L2144
	movq	(%r12), %rax
	movq	%r12, %rdi
	call	*16(%rax)
	cmpb	$0, 0(%rbp)
	je	.L2148
	movl	12(%r12), %eax
	leal	-1(%rax), %edx
	movl	%edx, 12(%r12)
.L2149:
	cmpl	$1, %eax
	je	.L2264
	.p2align 4,,10
	.p2align 3
.L2144:
	movq	32(%rbx), %r12
	testq	%r12, %r12
	je	.L2151
	movq	__libc_single_threaded@GOTPCREL(%rip), %rbp
	cmpb	$0, 0(%rbp)
	je	.L2152
	movl	8(%r12), %eax
	leal	-1(%rax), %edx
	movl	%edx, 8(%r12)
.L2153:
	cmpl	$1, %eax
	jne	.L2151
	movq	(%r12), %rax
	movq	%r12, %rdi
	call	*16(%rax)
	cmpb	$0, 0(%rbp)
	je	.L2155
	movl	12(%r12), %eax
	leal	-1(%rax), %edx
	movl	%edx, 12(%r12)
.L2156:
	cmpl	$1, %eax
	je	.L2265
	.p2align 4,,10
	.p2align 3
.L2151:
	movq	$0, 64(%rsp)
.L2142:
	movq	56(%rsp), %rbp
	testq	%rbp, %rbp
	je	.L2040
	data16	leaq	_ZN4asio6detail15keyword_tss_ptrINS0_10call_stackINS0_15task_io_serviceENS0_27task_io_service_thread_infoEE7contextEE6value_E@tlsgd(%rip), %rdi
	.value	0x6666
	rex64
	call	__tls_get_addr@PLT
	movq	(%rax), %rax
	testq	%rax, %rax
	je	.L2158
	movq	8(%rax), %rax
	testq	%rax, %rax
	je	.L2158
	cmpq	$0, (%rax)
	je	.L2266
.L2158:
	movq	328(%rsp), %rax
	subq	%fs:40, %rax
	jne	.L2259
	addq	$336, %rsp
	.cfi_remember_state
	.cfi_def_cfa_offset 48
	movq	%rbp, %rdi
	popq	%rbx
	.cfi_def_cfa_offset 40
	popq	%rbp
	.cfi_def_cfa_offset 32
	popq	%r12
	.cfi_def_cfa_offset 24
	popq	%r13
	.cfi_def_cfa_offset 16
	popq	%r14
	.cfi_def_cfa_offset 8
	jmp	_ZdlPv@PLT
	.p2align 4,,10
	.p2align 3
.L2046:
	.cfi_restore_state
	pxor	%xmm0, %xmm0
	leaq	208(%rsp), %rax
	movq	%rax, 80(%rsp)
	movups	%xmm0, 88(%rsp)
	data16	leaq	_ZN4asio6detail15keyword_tss_ptrINS0_10call_stackINS0_15task_io_serviceENS0_27task_io_service_thread_infoEE7contextEE6value_E@tlsgd(%rip), %rdi
	.value	0x6666
	rex64
	call	__tls_get_addr@PLT
	movq	(%rax), %rax
	testq	%rax, %rax
	je	.L2051
	movq	8(%rax), %rax
	testq	%rax, %rax
	je	.L2051
	movq	(%rax), %rbp
	testq	%rbp, %rbp
	je	.L2051
	movq	$0, (%rax)
	movzbl	0(%rbp), %eax
	cmpb	$55, %al
	jbe	.L2052
	movb	%al, 56(%rbp)
	jmp	.L2053
	.p2align 4,,10
	.p2align 3
.L2266:
	movzbl	88(%rbp), %edx
	movb	%dl, 0(%rbp)
	movq	%rbp, (%rax)
.L2040:
	movq	328(%rsp), %rax
	subq	%fs:40, %rax
	jne	.L2259
	addq	$336, %rsp
	.cfi_remember_state
	.cfi_def_cfa_offset 48
	popq	%rbx
	.cfi_def_cfa_offset 40
	popq	%rbp
	.cfi_def_cfa_offset 32
	popq	%r12
	.cfi_def_cfa_offset 24
	popq	%r13
	.cfi_def_cfa_offset 16
	popq	%r14
	.cfi_def_cfa_offset 8
	ret
	.p2align 4,,10
	.p2align 3
.L2052:
	.cfi_restore_state
	movq	%rbp, %rdi
	call	_ZdlPv@PLT
.L2051:
	movl	$57, %edi
.LEHB67:
	call	_Znwm@PLT
.LEHE67:
	movb	$56, 56(%rax)
	movq	%rax, %rbp
	movq	208(%rsp), %rax
	movq	%rax, %xmm7
	movhps	216(%rsp), %xmm7
	movaps	%xmm7, (%rsp)
.L2053:
	movdqa	(%rsp), %xmm5
	movq	%rbp, %xmm2
	pxor	%xmm0, %xmm0
	leaq	_ZN4asio6detail18completion_handlerINS0_7binder1IZN7asiopal9TCPServer11StartAcceptEvEUlSt10error_codeE_S5_EEE11do_completeEPNS0_15task_io_serviceEPNS0_25task_io_service_operationERKS5_m(%rip), %rax
	movq	$0, 0(%rbp)
	punpcklqdq	%xmm2, %xmm2
	movups	%xmm5, 24(%rbp)
	movq	40(%r12), %rbx
	movdqa	224(%rsp), %xmm6
	movq	%rax, 8(%rbp)
	movl	$0, 16(%rbp)
	movups	%xmm6, 40(%rbp)
	movaps	%xmm2, 16(%rsp)
	movaps	%xmm0, 208(%rsp)
	data16	leaq	_ZN4asio6detail15keyword_tss_ptrINS0_10call_stackINS0_15task_io_serviceENS0_27task_io_service_thread_infoEE7contextEE6value_E@tlsgd(%rip), %rdi
	.value	0x6666
	rex64
	call	__tls_get_addr@PLT
	movq	(%rax), %rax
	testq	%rax, %rax
	jne	.L2058
	jmp	.L2054
	.p2align 4,,10
	.p2align 3
.L2055:
	movq	16(%rax), %rax
	testq	%rax, %rax
	je	.L2054
.L2058:
	cmpq	(%rax), %rbx
	jne	.L2055
	movq	8(%rax), %rbx
	movq	280(%rsp), %rax
	leaq	24(%rax), %rdi
	call	pthread_mutex_lock@PLT
	testq	%rbx, %rbx
	je	.L2057
	movq	280(%rsp), %rax
	cmpb	$0, 64(%rax)
	leaq	24(%rax), %rdi
	je	.L2267
.L2059:
	movq	$0, 0(%rbp)
	movq	80(%rax), %rdx
	testq	%rdx, %rdx
	je	.L2063
	movq	%rbp, (%rdx)
	movq	%rbp, 80(%rax)
.L2258:
	call	pthread_mutex_unlock@PLT
	jmp	.L2050
.L2267:
	movb	$1, 64(%rax)
	call	pthread_mutex_unlock@PLT
	movq	280(%rsp), %r14
	movq	%r14, 112(%rsp)
	data16	leaq	_ZN4asio6detail15keyword_tss_ptrINS0_10call_stackINS0_14strand_service11strand_implEhE7contextEE6value_E@tlsgd(%rip), %rdi
	.value	0x6666
	rex64
	call	__tls_get_addr@PLT
	movq	40(%r12), %rbx
	movdqu	24(%rbp), %xmm5
	movq	%r14, %xmm2
	leaq	176(%rsp), %r12
	movq	%rbp, 152(%rsp)
	movaps	%xmm5, 176(%rsp)
	movq	%rbx, %xmm0
	movdqu	40(%rbp), %xmm6
	punpcklqdq	%xmm2, %xmm0
	movq	%r12, 144(%rsp)
	movq	$0, 160(%rsp)
	movaps	%xmm0, 32(%rsp)
	movq	(%rax), %rdx
	movaps	%xmm6, 192(%rsp)
	movq	%rdx, 128(%rsp)
	leaq	112(%rsp), %rdx
	movq	%rdx, (%rax)
	movq	%rdx, 120(%rsp)
	data16	leaq	_ZN4asio6detail15keyword_tss_ptrINS0_10call_stackINS0_15task_io_serviceENS0_27task_io_service_thread_infoEE7contextEE6value_E@tlsgd(%rip), %rdi
	.value	0x6666
	rex64
	call	__tls_get_addr@PLT
	movq	(%rax), %rax
	testq	%rax, %rax
	je	.L2061
	movq	8(%rax), %rax
	testq	%rax, %rax
	je	.L2061
	cmpq	$0, (%rax)
	je	.L2268
.L2061:
	movq	%rbp, %rdi
	call	_ZdlPv@PLT
.L2078:
	movq	$0, 152(%rsp)
	testq	%rbx, %rbx
	je	.L2079
	movq	200(%rsp), %rdx
	movl	192(%rsp), %esi
	movq	%r12, %rdi
.LEHB68:
	call	_ZZN7asiopal9TCPServer11StartAcceptEvENKUlSt10error_codeE_clES1_.isra.0
.LEHE68:
	sfence
.L2079:
	movq	184(%rsp), %r13
	testq	%r13, %r13
	je	.L2081
	movq	__libc_single_threaded@GOTPCREL(%rip), %rbp
	cmpb	$0, 0(%rbp)
	je	.L2082
	movl	8(%r13), %eax
	leal	-1(%rax), %edx
	movl	%edx, 8(%r13)
.L2083:
	cmpl	$1, %eax
	je	.L2084
	movq	160(%rsp), %rbx
.L2085:
	testq	%rbx, %rbx
	je	.L2088
	movq	32(%rbx), %r13
	testq	%r13, %r13
	je	.L2090
	cmpb	$0, 0(%rbp)
	je	.L2091
	movl	8(%r13), %eax
	leal	-1(%rax), %edx
	movl	%edx, 8(%r13)
.L2092:
	cmpl	$1, %eax
	je	.L2269
.L2090:
	movq	$0, 160(%rsp)
.L2088:
	movq	152(%rsp), %rbp
	testq	%rbp, %rbp
	je	.L2081
	data16	leaq	_ZN4asio6detail15keyword_tss_ptrINS0_10call_stackINS0_15task_io_serviceENS0_27task_io_service_thread_infoEE7contextEE6value_E@tlsgd(%rip), %rdi
	.value	0x6666
	rex64
	call	__tls_get_addr@PLT
	movq	(%rax), %rax
	testq	%rax, %rax
	je	.L2096
	movq	8(%rax), %rax
	testq	%rax, %rax
	je	.L2096
	cmpq	$0, (%rax)
	je	.L2270
.L2096:
	movq	%rbp, %rdi
	call	_ZdlPv@PLT
.L2081:
	movq	40(%rsp), %rbx
	movq	%rbx, %xmm4
	leaq	24(%rbx), %r13
	punpcklqdq	%xmm4, %xmm4
	movq	%r13, %rdi
	movaps	%xmm4, (%rsp)
	call	pthread_mutex_lock@PLT
	movq	72(%rbx), %rbp
	testq	%rbp, %rbp
	je	.L2271
	movq	96(%rbx), %rax
	testq	%rax, %rax
	je	.L2102
	movq	%rbp, (%rax)
	movq	88(%rbx), %rbp
.L2103:
	movq	80(%rbx), %rax
	pxor	%xmm0, %xmm0
	movups	%xmm0, 72(%rbx)
	movq	%rax, 96(%rbx)
.L2098:
	testq	%rbp, %rbp
	movq	%r13, %rdi
	setne	64(%rbx)
	call	pthread_mutex_unlock@PLT
	testq	%rbp, %rbp
	jne	.L2272
.L2104:
	data16	leaq	_ZN4asio6detail15keyword_tss_ptrINS0_10call_stackINS0_14strand_service11strand_implEhE7contextEE6value_E@tlsgd(%rip), %rdi
	.value	0x6666
	rex64
	call	__tls_get_addr@PLT
	movq	128(%rsp), %rdx
	cmpq	$0, 96(%rsp)
	movq	%rdx, (%rax)
	je	.L2257
	movq	$0, 96(%rsp)
.L2257:
	movq	88(%rsp), %rbp
	testq	%rbp, %rbp
	je	.L2050
	data16	leaq	_ZN4asio6detail15keyword_tss_ptrINS0_10call_stackINS0_15task_io_serviceENS0_27task_io_service_thread_infoEE7contextEE6value_E@tlsgd(%rip), %rdi
	.value	0x6666
	rex64
	call	__tls_get_addr@PLT
	movq	(%rax), %rax
	testq	%rax, %rax
	je	.L2118
	movq	8(%rax), %rax
	testq	%rax, %rax
	je	.L2118
	cmpq	$0, (%rax)
	je	.L2273
.L2118:
	movq	%rbp, %rdi
	call	_ZdlPv@PLT
	jmp	.L2050
	.p2align 4,,10
	.p2align 3
.L2262:
	movq	(%r12), %rax
	movq	%r12, %rdi
	call	*16(%rax)
	cmpb	$0, 0(%rbp)
	je	.L2133
	movl	12(%r12), %eax
	leal	-1(%rax), %edx
	movl	%edx, 12(%r12)
.L2134:
	cmpl	$1, %eax
	jne	.L2129
	movq	(%r12), %rax
	movq	%r12, %rdi
	call	*24(%rax)
	jmp	.L2129
	.p2align 4,,10
	.p2align 3
.L2263:
	movq	(%r12), %rax
	movq	%r12, %rdi
	call	*16(%rax)
	cmpb	$0, 0(%rbp)
	je	.L2140
	movl	12(%r12), %eax
	leal	-1(%rax), %edx
	movl	%edx, 12(%r12)
.L2141:
	cmpl	$1, %eax
	jne	.L2136
	movq	(%r12), %rax
	movq	%r12, %rdi
	call	*24(%rax)
	jmp	.L2136
	.p2align 4,,10
	.p2align 3
.L2130:
	movl	$-1, %eax
	lock xaddl	%eax, 8(%r12)
	jmp	.L2131
	.p2align 4,,10
	.p2align 3
.L2137:
	movl	$-1, %eax
	lock xaddl	%eax, 8(%r12)
	jmp	.L2138
	.p2align 4,,10
	.p2align 3
.L2145:
	movl	$-1, %eax
	lock xaddl	%eax, 8(%r12)
	jmp	.L2146
	.p2align 4,,10
	.p2align 3
.L2152:
	movl	$-1, %eax
	lock xaddl	%eax, 8(%r12)
	jmp	.L2153
	.p2align 4,,10
	.p2align 3
.L2260:
	movzbl	88(%rbp), %edx
	movb	%dl, 0(%rbp)
	movq	%rbp, (%rax)
	jmp	.L2042
	.p2align 4,,10
	.p2align 3
.L2063:
	movdqa	16(%rsp), %xmm7
	movups	%xmm7, 72(%rax)
	jmp	.L2258
	.p2align 4,,10
	.p2align 3
.L2045:
	lock addl	$1, 8(%r12)
	jmp	.L2044
	.p2align 4,,10
	.p2align 3
.L2054:
	movq	280(%rsp), %rax
	leaq	24(%rax), %rdi
	call	pthread_mutex_lock@PLT
.L2057:
	movq	280(%rsp), %rax
	cmpb	$0, 64(%rax)
	leaq	24(%rax), %rdi
	jne	.L2059
	movb	$1, 64(%rax)
	call	pthread_mutex_unlock@PLT
	movq	280(%rsp), %r13
	movq	$0, 0(%rbp)
	movq	%r13, %xmm2
	cmpq	$0, 96(%r13)
	punpcklqdq	%xmm2, %xmm2
	movaps	%xmm2, (%rsp)
	je	.L2066
	movq	96(%r13), %rax
	movq	%rbp, (%rax)
	movq	%rbp, 96(%r13)
.L2067:
	movq	40(%r12), %rbx
	cmpb	$0, 40(%rbx)
	je	.L2068
	data16	leaq	_ZN4asio6detail15keyword_tss_ptrINS0_10call_stackINS0_15task_io_serviceENS0_27task_io_service_thread_infoEE7contextEE6value_E@tlsgd(%rip), %rdi
	.value	0x6666
	rex64
	call	__tls_get_addr@PLT
	movq	(%rax), %rax
	testq	%rax, %rax
	jne	.L2071
	jmp	.L2068
	.p2align 4,,10
	.p2align 3
.L2069:
	movq	16(%rax), %rax
	testq	%rax, %rax
	je	.L2068
.L2071:
	cmpq	(%rax), %rbx
	jne	.L2069
	movq	8(%rax), %rax
	testq	%rax, %rax
	je	.L2068
	addq	$1, 24(%rax)
	movq	$0, 0(%r13)
	movq	16(%rax), %rdx
	testq	%rdx, %rdx
	je	.L2072
	movq	%r13, (%rdx)
	movq	%r13, 16(%rax)
	jmp	.L2050
	.p2align 4,,10
	.p2align 3
.L2261:
	movq	(%r12), %rax
	movq	%r12, %rdi
	call	*16(%rax)
	cmpb	$0, 0(%rbp)
	je	.L2125
	movl	12(%r12), %eax
	leal	-1(%rax), %edx
	movl	%edx, 12(%r12)
.L2126:
	cmpl	$1, %eax
	jne	.L2120
	movq	(%r12), %rax
	movq	%r12, %rdi
	call	*24(%rax)
	jmp	.L2120
	.p2align 4,,10
	.p2align 3
.L2122:
	movl	$-1, %eax
	lock xaddl	%eax, 8(%r12)
	jmp	.L2123
	.p2align 4,,10
	.p2align 3
.L2068:
	lock addq	$1, 184(%rbx)
	leaq	48(%rbx), %rbp
	movq	%rbp, %rdi
	call	pthread_mutex_lock@PLT
	cmpq	$0, 200(%rbx)
	movq	$0, 0(%r13)
	je	.L2073
	movq	200(%rbx), %rax
	movq	%r13, (%rax)
	movq	%r13, 200(%rbx)
.L2074:
	movq	136(%rbx), %rax
	orq	$1, %rax
	movq	%rax, 136(%rbx)
	cmpq	$1, %rax
	je	.L2075
	movq	%rbp, %rdi
	call	pthread_mutex_unlock@PLT
	leaq	88(%rbx), %rdi
	call	pthread_cond_signal@PLT
	jmp	.L2050
.L2075:
	cmpb	$0, 176(%rbx)
	jne	.L2077
	movq	144(%rbx), %rax
	testq	%rax, %rax
	je	.L2077
	movb	$1, 176(%rbx)
	leaq	88(%rax), %rdx
	movl	$3, %esi
	leaq	176(%rsp), %rcx
	movq	%rdx, 180(%rsp)
	movl	88(%rax), %edx
	movl	$-2147483639, 176(%rsp)
	movl	96(%rax), %edi
	call	epoll_ctl@PLT
.L2077:
	movq	%rbp, %rdi
	jmp	.L2258
	.p2align 4,,10
	.p2align 3
.L2272:
	movq	32(%rsp), %rbp
	cmpb	$0, 40(%rbp)
	je	.L2105
	data16	leaq	_ZN4asio6detail15keyword_tss_ptrINS0_10call_stackINS0_15task_io_serviceENS0_27task_io_service_thread_infoEE7contextEE6value_E@tlsgd(%rip), %rdi
	.value	0x6666
	rex64
	call	__tls_get_addr@PLT
	movq	(%rax), %rax
	testq	%rax, %rax
	jne	.L2108
	jmp	.L2105
	.p2align 4,,10
	.p2align 3
.L2106:
	movq	16(%rax), %rax
	testq	%rax, %rax
	je	.L2105
.L2108:
	cmpq	(%rax), %rbp
	jne	.L2106
	movq	8(%rax), %rax
	testq	%rax, %rax
	je	.L2105
	addq	$1, 24(%rax)
	movq	$0, (%rbx)
	movq	16(%rax), %rdx
	testq	%rdx, %rdx
	je	.L2109
	movq	%rbx, (%rdx)
	movq	%rbx, 16(%rax)
	jmp	.L2104
.L2105:
	lock addq	$1, 184(%rbp)
	leaq	48(%rbp), %r13
	movq	%r13, %rdi
	call	pthread_mutex_lock@PLT
	cmpq	$0, 200(%rbp)
	movq	$0, (%rbx)
	je	.L2110
	movq	200(%rbp), %rax
	movq	%rbx, (%rax)
	movq	%rbx, 200(%rbp)
.L2111:
	movq	136(%rbp), %rax
	orq	$1, %rax
	movq	%rax, 136(%rbp)
	cmpq	$1, %rax
	je	.L2112
	movq	%r13, %rdi
	call	pthread_mutex_unlock@PLT
	leaq	88(%rbp), %rdi
	call	pthread_cond_signal@PLT
	jmp	.L2104
	.p2align 4,,10
	.p2align 3
.L2271:
	movq	88(%rbx), %rbp
	jmp	.L2098
.L2133:
	movl	$-1, %eax
	lock xaddl	%eax, 12(%r12)
	jmp	.L2134
.L2140:
	movl	$-1, %eax
	lock xaddl	%eax, 12(%r12)
	jmp	.L2141
.L2265:
	movq	(%r12), %rax
	movq	%r12, %rdi
	call	*24(%rax)
	jmp	.L2151
.L2264:
	movq	(%r12), %rax
	movq	%r12, %rdi
	call	*24(%rax)
	jmp	.L2144
.L2110:
	movdqa	(%rsp), %xmm4
	movups	%xmm4, 192(%rbp)
	jmp	.L2111
.L2102:
	movq	%rbp, 88(%rbx)
	jmp	.L2103
.L2125:
	movl	$-1, %eax
	lock xaddl	%eax, 12(%r12)
	jmp	.L2126
.L2084:
	movq	0(%r13), %rax
	movq	%r13, %rdi
	call	*16(%rax)
	cmpb	$0, 0(%rbp)
	je	.L2086
	movl	12(%r13), %eax
	leal	-1(%rax), %edx
	movl	%edx, 12(%r13)
.L2087:
	movq	160(%rsp), %rbx
	cmpl	$1, %eax
	jne	.L2085
	movq	0(%r13), %rax
	movq	%r13, %rdi
	call	*24(%rax)
	jmp	.L2085
.L2112:
	cmpb	$0, 176(%rbp)
	jne	.L2114
	movq	144(%rbp), %rax
	testq	%rax, %rax
	je	.L2114
	movb	$1, 176(%rbp)
	leaq	88(%rax), %rdx
	movq	%r12, %rcx
	movl	$3, %esi
	movq	%rdx, 180(%rsp)
	movl	88(%rax), %edx
	movl	$-2147483639, 176(%rsp)
	movl	96(%rax), %edi
	call	epoll_ctl@PLT
.L2114:
	movq	%r13, %rdi
	call	pthread_mutex_unlock@PLT
	jmp	.L2104
.L2273:
	movzbl	56(%rbp), %edx
	movb	%dl, 0(%rbp)
	movq	%rbp, (%rax)
	jmp	.L2050
.L2082:
	movl	$-1, %eax
	lock xaddl	%eax, 8(%r13)
	jmp	.L2083
.L2066:
	movdqa	16(%rsp), %xmm4
	movups	%xmm4, 88(%r13)
	jmp	.L2067
.L2155:
	movl	$-1, %eax
	lock xaddl	%eax, 12(%r12)
	jmp	.L2156
.L2148:
	movl	$-1, %eax
	lock xaddl	%eax, 12(%r12)
	jmp	.L2149
.L2269:
	movq	0(%r13), %rax
	movq	%r13, %rdi
	call	*16(%rax)
	cmpb	$0, 0(%rbp)
	je	.L2094
	movl	12(%r13), %eax
	leal	-1(%rax), %edx
	movl	%edx, 12(%r13)
.L2095:
	cmpl	$1, %eax
	jne	.L2090
	movq	0(%r13), %rax
	movq	%r13, %rdi
	call	*24(%rax)
	jmp	.L2090
.L2073:
	movdqa	(%rsp), %xmm7
	movups	%xmm7, 192(%rbx)
	jmp	.L2074
.L2091:
	movl	$-1, %eax
	lock xaddl	%eax, 8(%r13)
	jmp	.L2092
.L2270:
	movzbl	56(%rbp), %edx
	movb	%dl, 0(%rbp)
	movq	%rbp, (%rax)
	jmp	.L2081
.L2268:
	movzbl	56(%rbp), %edx
	movb	%dl, 0(%rbp)
	movq	%rbp, (%rax)
	jmp	.L2078
.L2086:
	movl	$-1, %eax
	lock xaddl	%eax, 12(%r13)
	jmp	.L2087
.L2072:
	movdqa	(%rsp), %xmm7
	movups	%xmm7, 8(%rax)
	jmp	.L2050
.L2094:
	movl	$-1, %eax
	lock xaddl	%eax, 12(%r13)
	jmp	.L2095
.L2109:
	movdqa	(%rsp), %xmm7
	movups	%xmm7, 8(%rax)
	jmp	.L2104
.L2259:
	call	__stack_chk_fail@PLT
.L2161:
	endbr64
	movq	%rax, %rbp
	jmp	.L2101
.L2163:
	endbr64
	movq	%rax, %rbp
	jmp	.L2099
.L2162:
	endbr64
	movq	%rax, %rbp
	jmp	.L2121
	.section	.gcc_except_table
.LLSDA9290:
	.byte	0xff
	.byte	0xff
	.byte	0x1
	.uleb128 .LLSDACSE9290-.LLSDACSB9290
.LLSDACSB9290:
	.uleb128 .LEHB66-.LFB9290
	.uleb128 .LEHE66-.LEHB66
	.uleb128 .L2162-.LFB9290
	.uleb128 0
	.uleb128 .LEHB67-.LFB9290
	.uleb128 .LEHE67-.LEHB67
	.uleb128 .L2161-.LFB9290
	.uleb128 0
	.uleb128 .LEHB68-.LFB9290
	.uleb128 .LEHE68-.LEHB68
	.uleb128 .L2163-.LFB9290
	.uleb128 0
.LLSDACSE9290:
	.text
	.cfi_endproc
	.section	.text.unlikely
	.cfi_startproc
	.cfi_personality 0x9b,DW.ref.__gxx_personality_v0
	.cfi_lsda 0x1b,.LLSDAC9290
	.type	_ZN4asio6detail18completion_handlerINS0_17rewrapped_handlerINS0_7binder1INS0_15wrapped_handlerINS_10io_service6strandEZN7asiopal9TCPServer11StartAcceptEvEUlSt10error_codeE_NS0_26is_continuation_if_runningEEES9_EESA_EEE11do_completeEPNS0_15task_io_serviceEPNS0_25task_io_service_operationERKS9_m.cold, @function
_ZN4asio6detail18completion_handlerINS0_17rewrapped_handlerINS0_7binder1INS0_15wrapped_handlerINS_10io_service6strandEZN7asiopal9TCPServer11StartAcceptEvEUlSt10error_codeE_NS0_26is_continuation_if_runningEEES9_EESA_EEE11do_completeEPNS0_15task_io_serviceEPNS0_25task_io_service_operationERKS9_m.cold:
.LFSB9290:
.L2099:
	.cfi_def_cfa_offset 384
	.cfi_offset 3, -48
	.cfi_offset 6, -40
	.cfi_offset 12, -32
	.cfi_offset 13, -24
	.cfi_offset 14, -16
	sfence
	movq	184(%rsp), %rdi
	testq	%rdi, %rdi
	jne	.L2274
.L2100:
	leaq	144(%rsp), %rdi
	call	_ZN4asio6detail18completion_handlerINS0_7binder1IZN7asiopal9TCPServer11StartAcceptEvEUlSt10error_codeE_S5_EEE3ptr5resetEv
	leaq	32(%rsp), %rdi
	call	_ZN4asio6detail14strand_service16on_dispatch_exitD1Ev@PLT
	data16	leaq	_ZN4asio6detail15keyword_tss_ptrINS0_10call_stackINS0_14strand_service11strand_implEhE7contextEE6value_E@tlsgd(%rip), %rdi
	.value	0x6666
	rex64
	call	__tls_get_addr@PLT
	movq	128(%rsp), %rdx
	leaq	80(%rsp), %rdi
	movq	%rdx, (%rax)
	call	_ZN4asio6detail18completion_handlerINS0_7binder1IZN7asiopal9TCPServer11StartAcceptEvEUlSt10error_codeE_S5_EEE3ptr5resetEv
.L2101:
	movq	216(%rsp), %rdi
	testq	%rdi, %rdi
	je	.L2127
	call	_ZNSt16_Sp_counted_baseILN9__gnu_cxx12_Lock_policyE2EE10_M_releaseEv@PLT
.L2127:
	sfence
	movq	%r13, %rdi
	call	_ZN4asio6detail17rewrapped_handlerINS0_7binder1INS0_15wrapped_handlerINS_10io_service6strandEZN7asiopal9TCPServer11StartAcceptEvEUlSt10error_codeE_NS0_26is_continuation_if_runningEEES8_EES9_ED1Ev
	leaq	48(%rsp), %rdi
	call	_ZN4asio6detail18completion_handlerINS0_17rewrapped_handlerINS0_7binder1INS0_15wrapped_handlerINS_10io_service6strandEZN7asiopal9TCPServer11StartAcceptEvEUlSt10error_codeE_NS0_26is_continuation_if_runningEEES9_EESA_EEE3ptr5resetEv
	movq	%rbp, %rdi
.LEHB69:
	call	_Unwind_Resume@PLT
.LEHE69:
.L2121:
	sfence
	jmp	.L2101
.L2274:
	call	_ZNSt16_Sp_counted_baseILN9__gnu_cxx12_Lock_policyE2EE10_M_releaseEv@PLT
	jmp	.L2100
	.cfi_endproc
.LFE9290:
	.section	.gcc_except_table
.LLSDAC9290:
	.byte	0xff
	.byte	0xff
	.byte	0x1
	.uleb128 .LLSDACSEC9290-.LLSDACSBC9290
.LLSDACSBC9290:
	.uleb128 .LEHB69-.LCOLDB42
	.uleb128 .LEHE69-.LEHB69
	.uleb128 0
	.uleb128 0
.LLSDACSEC9290:
	.section	.text.unlikely
	.text
	.size	_ZN4asio6detail18completion_handlerINS0_17rewrapped_handlerINS0_7binder1INS0_15wrapped_handlerINS_10io_service6strandEZN7asiopal9TCPServer11StartAcceptEvEUlSt10error_codeE_NS0_26is_continuation_if_runningEEES9_EESA_EEE11do_completeEPNS0_15task_io_serviceEPNS0_25task_io_service_operationERKS9_m, .-_ZN4asio6detail18completion_handlerINS0_17rewrapped_handlerINS0_7binder1INS0_15wrapped_handlerINS_10io_service6strandEZN7asiopal9TCPServer11StartAcceptEvEUlSt10error_codeE_NS0_26is_continuation_if_runningEEES9_EESA_EEE11do_completeEPNS0_15task_io_serviceEPNS0_25task_io_service_operationERKS9_m
	.section	.text.unlikely
	.size	_ZN4asio6detail18completion_handlerINS0_17rewrapped_handlerINS0_7binder1INS0_15wrapped_handlerINS_10io_service6strandEZN7asiopal9TCPServer11StartAcceptEvEUlSt10error_codeE_NS0_26is_continuation_if_runningEEES9_EESA_EEE11do_completeEPNS0_15task_io_serviceEPNS0_25task_io_service_operationERKS9_m.cold, .-_ZN4asio6detail18completion_handlerINS0_17rewrapped_handlerINS0_7binder1INS0_15wrapped_handlerINS_10io_service6strandEZN7asiopal9TCPServer11StartAcceptEvEUlSt10error_codeE_NS0_26is_continuation_if_runningEEES9_EESA_EEE11do_completeEPNS0_15task_io_serviceEPNS0_25task_io_service_operationERKS9_m.cold
.LCOLDE42:
	.text
.LHOTE42:
	.section	.text.unlikely
.LCOLDB43:
	.text
.LHOTB43:
	.p2align 4
	.type	_ZN4asio6detail25reactive_socket_accept_opINS_12basic_socketINS_2ip3tcpENS_21stream_socket_serviceIS4_EEEES4_NS0_15wrapped_handlerINS_10io_service6strandEZN7asiopal9TCPServer11StartAcceptEvEUlSt10error_codeE_NS0_26is_continuation_if_runningEEEE11do_completeEPNS0_15task_io_serviceEPNS0_25task_io_service_operationERKSD_m, @function
_ZN4asio6detail25reactive_socket_accept_opINS_12basic_socketINS_2ip3tcpENS_21stream_socket_serviceIS4_EEEES4_NS0_15wrapped_handlerINS_10io_service6strandEZN7asiopal9TCPServer11StartAcceptEvEUlSt10error_codeE_NS0_26is_continuation_if_runningEEEE11do_completeEPNS0_15task_io_serviceEPNS0_25task_io_service_operationERKSD_m:
.LFB8874:
	.cfi_startproc
	.cfi_personality 0x9b,DW.ref.__gxx_personality_v0
	.cfi_lsda 0x1b,.LLSDA8874
	endbr64
	pushq	%r14
	.cfi_def_cfa_offset 16
	.cfi_offset 14, -16
	pushq	%r13
	.cfi_def_cfa_offset 24
	.cfi_offset 13, -24
	pushq	%r12
	.cfi_def_cfa_offset 32
	.cfi_offset 12, -32
	movq	%rsi, %r12
	pushq	%rbp
	.cfi_def_cfa_offset 40
	.cfi_offset 6, -40
	pushq	%rbx
	.cfi_def_cfa_offset 48
	.cfi_offset 3, -48
	movq	%rdi, %rbx
	subq	$448, %rsp
	.cfi_def_cfa_offset 496
	movdqu	88(%rsi), %xmm3
	movdqu	104(%rsi), %xmm4
	movq	%fs:40, %rax
	movq	%rax, 440(%rsp)
	xorl	%eax, %eax
	movdqu	24(%rsi), %xmm5
	movq	112(%rsi), %rbp
	movq	%rsi, 56(%rsp)
	leaq	256(%rsp), %rax
	movaps	%xmm3, 256(%rsp)
	movq	%rax, 48(%rsp)
	movq	$0, 64(%rsp)
	movaps	%xmm4, 272(%rsp)
	movaps	%xmm5, 288(%rsp)
	data16	leaq	_ZN4asio6detail15keyword_tss_ptrINS0_10call_stackINS0_15task_io_serviceENS0_27task_io_service_thread_infoEE7contextEE6value_E@tlsgd(%rip), %rdi
	.value	0x6666
	rex64
	call	__tls_get_addr@PLT
	movq	(%rax), %rax
	testq	%rax, %rax
	je	.L2276
	movq	8(%rax), %rax
	testq	%rax, %rax
	je	.L2276
	cmpq	$0, (%rax)
	je	.L2614
.L2276:
	movq	%r12, %rdi
	call	_ZdlPv@PLT
	movq	280(%rsp), %rbp
.L2277:
	movq	$0, 56(%rsp)
	testq	%rbx, %rbx
	je	.L2278
	movq	272(%rsp), %rax
	movq	%rbp, %xmm7
	movq	%rax, %xmm0
	punpcklqdq	%xmm7, %xmm0
	movaps	%xmm0, 304(%rsp)
	testq	%rbp, %rbp
	je	.L2467
	movq	__libc_single_threaded@GOTPCREL(%rip), %rdx
	cmpb	$0, (%rdx)
	je	.L2280
	addl	$1, 8(%rbp)
	movq	%rbp, %rbx
	movq	%rax, %r12
.L2279:
	movdqa	256(%rsp), %xmm2
	pxor	%xmm0, %xmm0
	movdqa	288(%rsp), %xmm1
	movq	%rbp, 408(%rsp)
	movq	%r12, 368(%rsp)
	movq	256(%rsp), %r13
	movq	%rbx, 376(%rsp)
	movq	264(%rsp), %rbp
	movq	%rax, 400(%rsp)
	movaps	%xmm2, 320(%rsp)
	movaps	%xmm0, 272(%rsp)
	movaps	%xmm1, 352(%rsp)
	movaps	%xmm0, 304(%rsp)
	movaps	%xmm2, 384(%rsp)
	movaps	%xmm0, 336(%rsp)
	movaps	%xmm1, 416(%rsp)
	data16	leaq	_ZN4asio6detail15keyword_tss_ptrINS0_10call_stackINS0_14strand_service11strand_implEhE7contextEE6value_E@tlsgd(%rip), %rdi
	.value	0x6666
	rex64
	call	__tls_get_addr@PLT
	movq	(%rax), %rax
	testq	%rax, %rax
	jne	.L2284
	jmp	.L2281
	.p2align 4,,10
	.p2align 3
.L2282:
	movq	16(%rax), %rax
	testq	%rax, %rax
	je	.L2281
.L2284:
	cmpq	(%rax), %rbp
	jne	.L2282
	cmpq	$0, 8(%rax)
	je	.L2281
	lfence
	movdqa	400(%rsp), %xmm0
	movhlps	%xmm0, %xmm5
	movq	%xmm0, %r14
	movq	%xmm5, %r13
	testq	%r13, %r13
	je	.L2285
