	.file	"ThreadPool.cpp"
	.text
	.section	.rodata._ZNK4asio6detail15system_category4nameEv.str1.1,"aMS",@progbits,1
.LC0:
	.string	"asio.system"
	.section	.text._ZNK4asio6detail15system_category4nameEv,"axG",@progbits,_ZNK4asio6detail15system_category4nameEv,comdat
	.align 2
	.p2align 4
	.weak	_ZNK4asio6detail15system_category4nameEv
	.type	_ZNK4asio6detail15system_category4nameEv, @function
_ZNK4asio6detail15system_category4nameEv:
.LFB2744:
	.cfi_startproc
	endbr64
	leaq	.LC0(%rip), %rax
	ret
	.cfi_endproc
.LFE2744:
	.size	_ZNK4asio6detail15system_category4nameEv, .-_ZNK4asio6detail15system_category4nameEv
	.section	.rodata._ZNK4asio5error6detail14netdb_category4nameEv.str1.1,"aMS",@progbits,1
.LC1:
	.string	"asio.netdb"
	.section	.text._ZNK4asio5error6detail14netdb_category4nameEv,"axG",@progbits,_ZNK4asio5error6detail14netdb_category4nameEv,comdat
	.align 2
	.p2align 4
	.weak	_ZNK4asio5error6detail14netdb_category4nameEv
	.type	_ZNK4asio5error6detail14netdb_category4nameEv, @function
_ZNK4asio5error6detail14netdb_category4nameEv:
.LFB2784:
	.cfi_startproc
	endbr64
	leaq	.LC1(%rip), %rax
	ret
	.cfi_endproc
.LFE2784:
	.size	_ZNK4asio5error6detail14netdb_category4nameEv, .-_ZNK4asio5error6detail14netdb_category4nameEv
	.section	.rodata._ZNK4asio5error6detail17addrinfo_category4nameEv.str1.1,"aMS",@progbits,1
.LC2:
	.string	"asio.addrinfo"
	.section	.text._ZNK4asio5error6detail17addrinfo_category4nameEv,"axG",@progbits,_ZNK4asio5error6detail17addrinfo_category4nameEv,comdat
	.align 2
	.p2align 4
	.weak	_ZNK4asio5error6detail17addrinfo_category4nameEv
	.type	_ZNK4asio5error6detail17addrinfo_category4nameEv, @function
_ZNK4asio5error6detail17addrinfo_category4nameEv:
.LFB2790:
	.cfi_startproc
	endbr64
	leaq	.LC2(%rip), %rax
	ret
	.cfi_endproc
.LFE2790:
	.size	_ZNK4asio5error6detail17addrinfo_category4nameEv, .-_ZNK4asio5error6detail17addrinfo_category4nameEv
	.section	.rodata._ZNK4asio5error6detail13misc_category4nameEv.str1.1,"aMS",@progbits,1
.LC3:
	.string	"asio.misc"
	.section	.text._ZNK4asio5error6detail13misc_category4nameEv,"axG",@progbits,_ZNK4asio5error6detail13misc_category4nameEv,comdat
	.align 2
	.p2align 4
	.weak	_ZNK4asio5error6detail13misc_category4nameEv
	.type	_ZNK4asio5error6detail13misc_category4nameEv, @function
_ZNK4asio5error6detail13misc_category4nameEv:
.LFB2796:
	.cfi_startproc
	endbr64
	leaq	.LC3(%rip), %rax
	ret
	.cfi_endproc
.LFE2796:
	.size	_ZNK4asio5error6detail13misc_category4nameEv, .-_ZNK4asio5error6detail13misc_category4nameEv
	.section	.text._ZN4asio10io_service7service12fork_serviceENS0_10fork_eventE,"axG",@progbits,_ZN4asio10io_service7service12fork_serviceENS0_10fork_eventE,comdat
	.align 2
	.p2align 4
	.weak	_ZN4asio10io_service7service12fork_serviceENS0_10fork_eventE
	.type	_ZN4asio10io_service7service12fork_serviceENS0_10fork_eventE, @function
_ZN4asio10io_service7service12fork_serviceENS0_10fork_eventE:
.LFB3589:
	.cfi_startproc
	endbr64
	ret
	.cfi_endproc
.LFE3589:
	.size	_ZN4asio10io_service7service12fork_serviceENS0_10fork_eventE, .-_ZN4asio10io_service7service12fork_serviceENS0_10fork_eventE
	.section	.text._ZN4asio6detail7tss_ptrINS0_10call_stackINS0_15task_io_serviceENS0_27task_io_service_thread_infoEE7contextEED2Ev,"axG",@progbits,_ZN4asio6detail7tss_ptrINS0_10call_stackINS0_15task_io_serviceENS0_27task_io_service_thread_infoEE7contextEED5Ev,comdat
	.align 2
	.p2align 4
	.weak	_ZN4asio6detail7tss_ptrINS0_10call_stackINS0_15task_io_serviceENS0_27task_io_service_thread_infoEE7contextEED2Ev
	.type	_ZN4asio6detail7tss_ptrINS0_10call_stackINS0_15task_io_serviceENS0_27task_io_service_thread_infoEE7contextEED2Ev, @function
_ZN4asio6detail7tss_ptrINS0_10call_stackINS0_15task_io_serviceENS0_27task_io_service_thread_infoEE7contextEED2Ev:
.LFB9603:
	.cfi_startproc
	endbr64
	ret
	.cfi_endproc
.LFE9603:
	.size	_ZN4asio6detail7tss_ptrINS0_10call_stackINS0_15task_io_serviceENS0_27task_io_service_thread_infoEE7contextEED2Ev, .-_ZN4asio6detail7tss_ptrINS0_10call_stackINS0_15task_io_serviceENS0_27task_io_service_thread_infoEE7contextEED2Ev
	.weak	_ZN4asio6detail7tss_ptrINS0_10call_stackINS0_15task_io_serviceENS0_27task_io_service_thread_infoEE7contextEED1Ev
	.set	_ZN4asio6detail7tss_ptrINS0_10call_stackINS0_15task_io_serviceENS0_27task_io_service_thread_infoEE7contextEED1Ev,_ZN4asio6detail7tss_ptrINS0_10call_stackINS0_15task_io_serviceENS0_27task_io_service_thread_infoEE7contextEED2Ev
	.section	.text._ZN4asio6detail10service_idINS0_13epoll_reactorEED2Ev,"axG",@progbits,_ZN4asio6detail10service_idINS0_13epoll_reactorEED5Ev,comdat
	.align 2
	.p2align 4
	.weak	_ZN4asio6detail10service_idINS0_13epoll_reactorEED2Ev
	.type	_ZN4asio6detail10service_idINS0_13epoll_reactorEED2Ev, @function
_ZN4asio6detail10service_idINS0_13epoll_reactorEED2Ev:
.LFB9606:
	.cfi_startproc
	endbr64
	ret
	.cfi_endproc
.LFE9606:
	.size	_ZN4asio6detail10service_idINS0_13epoll_reactorEED2Ev, .-_ZN4asio6detail10service_idINS0_13epoll_reactorEED2Ev
	.weak	_ZN4asio6detail10service_idINS0_13epoll_reactorEED1Ev
	.set	_ZN4asio6detail10service_idINS0_13epoll_reactorEED1Ev,_ZN4asio6detail10service_idINS0_13epoll_reactorEED2Ev
	.section	.text._ZN4asio6detail10service_idINS0_15task_io_serviceEED2Ev,"axG",@progbits,_ZN4asio6detail10service_idINS0_15task_io_serviceEED5Ev,comdat
	.align 2
	.p2align 4
	.weak	_ZN4asio6detail10service_idINS0_15task_io_serviceEED2Ev
	.type	_ZN4asio6detail10service_idINS0_15task_io_serviceEED2Ev, @function
_ZN4asio6detail10service_idINS0_15task_io_serviceEED2Ev:
.LFB9609:
	.cfi_startproc
	endbr64
	ret
	.cfi_endproc
.LFE9609:
	.size	_ZN4asio6detail10service_idINS0_15task_io_serviceEED2Ev, .-_ZN4asio6detail10service_idINS0_15task_io_serviceEED2Ev
	.weak	_ZN4asio6detail10service_idINS0_15task_io_serviceEED1Ev
	.set	_ZN4asio6detail10service_idINS0_15task_io_serviceEED1Ev,_ZN4asio6detail10service_idINS0_15task_io_serviceEED2Ev
	.section	.text._ZN4asio6detail7tss_ptrINS0_10call_stackINS0_14strand_service11strand_implEhE7contextEED2Ev,"axG",@progbits,_ZN4asio6detail7tss_ptrINS0_10call_stackINS0_14strand_service11strand_implEhE7contextEED5Ev,comdat
	.align 2
	.p2align 4
	.weak	_ZN4asio6detail7tss_ptrINS0_10call_stackINS0_14strand_service11strand_implEhE7contextEED2Ev
	.type	_ZN4asio6detail7tss_ptrINS0_10call_stackINS0_14strand_service11strand_implEhE7contextEED2Ev, @function
_ZN4asio6detail7tss_ptrINS0_10call_stackINS0_14strand_service11strand_implEhE7contextEED2Ev:
.LFB9612:
	.cfi_startproc
	endbr64
	ret
	.cfi_endproc
.LFE9612:
	.size	_ZN4asio6detail7tss_ptrINS0_10call_stackINS0_14strand_service11strand_implEhE7contextEED2Ev, .-_ZN4asio6detail7tss_ptrINS0_10call_stackINS0_14strand_service11strand_implEhE7contextEED2Ev
	.weak	_ZN4asio6detail7tss_ptrINS0_10call_stackINS0_14strand_service11strand_implEhE7contextEED1Ev
	.set	_ZN4asio6detail7tss_ptrINS0_10call_stackINS0_14strand_service11strand_implEhE7contextEED1Ev,_ZN4asio6detail7tss_ptrINS0_10call_stackINS0_14strand_service11strand_implEhE7contextEED2Ev
	.section	.text._ZN4asio6detail10service_idINS0_14strand_serviceEED2Ev,"axG",@progbits,_ZN4asio6detail10service_idINS0_14strand_serviceEED5Ev,comdat
	.align 2
	.p2align 4
	.weak	_ZN4asio6detail10service_idINS0_14strand_serviceEED2Ev
	.type	_ZN4asio6detail10service_idINS0_14strand_serviceEED2Ev, @function
_ZN4asio6detail10service_idINS0_14strand_serviceEED2Ev:
.LFB9615:
	.cfi_startproc
	endbr64
	ret
	.cfi_endproc
.LFE9615:
	.size	_ZN4asio6detail10service_idINS0_14strand_serviceEED2Ev, .-_ZN4asio6detail10service_idINS0_14strand_serviceEED2Ev
	.weak	_ZN4asio6detail10service_idINS0_14strand_serviceEED1Ev
	.set	_ZN4asio6detail10service_idINS0_14strand_serviceEED1Ev,_ZN4asio6detail10service_idINS0_14strand_serviceEED2Ev
	.section	.text._ZN4asio6detail10service_idINS_22waitable_timer_serviceINSt6chrono3_V212steady_clockENS_11wait_traitsIS5_EEEEED2Ev,"axG",@progbits,_ZN4asio6detail10service_idINS_22waitable_timer_serviceINSt6chrono3_V212steady_clockENS_11wait_traitsIS5_EEEEED5Ev,comdat
	.align 2
	.p2align 4
	.weak	_ZN4asio6detail10service_idINS_22waitable_timer_serviceINSt6chrono3_V212steady_clockENS_11wait_traitsIS5_EEEEED2Ev
	.type	_ZN4asio6detail10service_idINS_22waitable_timer_serviceINSt6chrono3_V212steady_clockENS_11wait_traitsIS5_EEEEED2Ev, @function
_ZN4asio6detail10service_idINS_22waitable_timer_serviceINSt6chrono3_V212steady_clockENS_11wait_traitsIS5_EEEEED2Ev:
.LFB9618:
	.cfi_startproc
	endbr64
	ret
	.cfi_endproc
.LFE9618:
	.size	_ZN4asio6detail10service_idINS_22waitable_timer_serviceINSt6chrono3_V212steady_clockENS_11wait_traitsIS5_EEEEED2Ev, .-_ZN4asio6detail10service_idINS_22waitable_timer_serviceINSt6chrono3_V212steady_clockENS_11wait_traitsIS5_EEEEED2Ev
	.weak	_ZN4asio6detail10service_idINS_22waitable_timer_serviceINSt6chrono3_V212steady_clockENS_11wait_traitsIS5_EEEEED1Ev
	.set	_ZN4asio6detail10service_idINS_22waitable_timer_serviceINSt6chrono3_V212steady_clockENS_11wait_traitsIS5_EEEEED1Ev,_ZN4asio6detail10service_idINS_22waitable_timer_serviceINSt6chrono3_V212steady_clockENS_11wait_traitsIS5_EEEEED2Ev
	.section	.text._ZN4asio22waitable_timer_serviceINSt6chrono3_V212steady_clockENS_11wait_traitsIS3_EEE16shutdown_serviceEv,"axG",@progbits,_ZN4asio22waitable_timer_serviceINSt6chrono3_V212steady_clockENS_11wait_traitsIS3_EEE16shutdown_serviceEv,comdat
	.align 2
	.p2align 4
	.weak	_ZN4asio22waitable_timer_serviceINSt6chrono3_V212steady_clockENS_11wait_traitsIS3_EEE16shutdown_serviceEv
	.type	_ZN4asio22waitable_timer_serviceINSt6chrono3_V212steady_clockENS_11wait_traitsIS3_EEE16shutdown_serviceEv, @function
_ZN4asio22waitable_timer_serviceINSt6chrono3_V212steady_clockENS_11wait_traitsIS3_EEE16shutdown_serviceEv:
.LFB9657:
	.cfi_startproc
	endbr64
	ret
	.cfi_endproc
.LFE9657:
	.size	_ZN4asio22waitable_timer_serviceINSt6chrono3_V212steady_clockENS_11wait_traitsIS3_EEE16shutdown_serviceEv, .-_ZN4asio22waitable_timer_serviceINSt6chrono3_V212steady_clockENS_11wait_traitsIS3_EEE16shutdown_serviceEv
	.section	.text._ZNK4asio6detail11timer_queueINS0_18chrono_time_traitsINSt6chrono3_V212steady_clockENS_11wait_traitsIS5_EEEEE5emptyEv,"axG",@progbits,_ZNK4asio6detail11timer_queueINS0_18chrono_time_traitsINSt6chrono3_V212steady_clockENS_11wait_traitsIS5_EEEEE5emptyEv,comdat
	.align 2
	.p2align 4
	.weak	_ZNK4asio6detail11timer_queueINS0_18chrono_time_traitsINSt6chrono3_V212steady_clockENS_11wait_traitsIS5_EEEEE5emptyEv
	.type	_ZNK4asio6detail11timer_queueINS0_18chrono_time_traitsINSt6chrono3_V212steady_clockENS_11wait_traitsIS5_EEEEE5emptyEv, @function
_ZNK4asio6detail11timer_queueINS0_18chrono_time_traitsINSt6chrono3_V212steady_clockENS_11wait_traitsIS5_EEEEE5emptyEv:
.LFB9658:
	.cfi_startproc
	endbr64
	cmpq	$0, 16(%rdi)
	sete	%al
	ret
	.cfi_endproc
.LFE9658:
	.size	_ZNK4asio6detail11timer_queueINS0_18chrono_time_traitsINSt6chrono3_V212steady_clockENS_11wait_traitsIS5_EEEEE5emptyEv, .-_ZNK4asio6detail11timer_queueINS0_18chrono_time_traitsINSt6chrono3_V212steady_clockENS_11wait_traitsIS5_EEEEE5emptyEv
	.section	.text._ZN4asio6detail11timer_queueINS0_18chrono_time_traitsINSt6chrono3_V212steady_clockENS_11wait_traitsIS5_EEEEE14get_all_timersERNS0_8op_queueINS0_25task_io_service_operationEEE,"axG",@progbits,_ZN4asio6detail11timer_queueINS0_18chrono_time_traitsINSt6chrono3_V212steady_clockENS_11wait_traitsIS5_EEEEE14get_all_timersERNS0_8op_queueINS0_25task_io_service_operationEEE,comdat
	.align 2
	.p2align 4
	.weak	_ZN4asio6detail11timer_queueINS0_18chrono_time_traitsINSt6chrono3_V212steady_clockENS_11wait_traitsIS5_EEEEE14get_all_timersERNS0_8op_queueINS0_25task_io_service_operationEEE
	.type	_ZN4asio6detail11timer_queueINS0_18chrono_time_traitsINSt6chrono3_V212steady_clockENS_11wait_traitsIS5_EEEEE14get_all_timersERNS0_8op_queueINS0_25task_io_service_operationEEE, @function
_ZN4asio6detail11timer_queueINS0_18chrono_time_traitsINSt6chrono3_V212steady_clockENS_11wait_traitsIS5_EEEEE14get_all_timersERNS0_8op_queueINS0_25task_io_service_operationEEE:
.LFB9662:
	.cfi_startproc
	endbr64
	movq	16(%rdi), %rax
	testq	%rax, %rax
	je	.L16
	pxor	%xmm0, %xmm0
	jmp	.L20
	.p2align 4,,10
	.p2align 3
.L29:
	movq	%rcx, (%r8)
.L19:
	movq	8(%rdx), %rcx
	movq	%rcx, 8(%rsi)
	movups	%xmm0, (%rdx)
.L17:
	movups	%xmm0, 24(%rdx)
	testq	%rax, %rax
	je	.L16
.L20:
	movq	%rax, %rdx
	movq	24(%rax), %rax
	movq	(%rdx), %rcx
	movq	%rax, 16(%rdi)
	testq	%rcx, %rcx
	je	.L17
	movq	8(%rsi), %r8
	testq	%r8, %r8
	jne	.L29
	movq	%rcx, (%rsi)
	jmp	.L19
	.p2align 4,,10
	.p2align 3
.L16:
	movq	24(%rdi), %rax
	cmpq	32(%rdi), %rax
	je	.L15
	movq	%rax, 32(%rdi)
.L15:
	ret
	.cfi_endproc
.LFE9662:
	.size	_ZN4asio6detail11timer_queueINS0_18chrono_time_traitsINSt6chrono3_V212steady_clockENS_11wait_traitsIS5_EEEEE14get_all_timersERNS0_8op_queueINS0_25task_io_service_operationEEE, .-_ZN4asio6detail11timer_queueINS0_18chrono_time_traitsINSt6chrono3_V212steady_clockENS_11wait_traitsIS5_EEEEE14get_all_timersERNS0_8op_queueINS0_25task_io_service_operationEEE
	.section	.text._ZN4asio6detail11timer_queueINS0_18chrono_time_traitsINSt6chrono3_V212steady_clockENS_11wait_traitsIS5_EEEEED2Ev,"axG",@progbits,_ZN4asio6detail11timer_queueINS0_18chrono_time_traitsINSt6chrono3_V212steady_clockENS_11wait_traitsIS5_EEEEED5Ev,comdat
	.align 2
	.p2align 4
	.weak	_ZN4asio6detail11timer_queueINS0_18chrono_time_traitsINSt6chrono3_V212steady_clockENS_11wait_traitsIS5_EEEEED2Ev
	.type	_ZN4asio6detail11timer_queueINS0_18chrono_time_traitsINSt6chrono3_V212steady_clockENS_11wait_traitsIS5_EEEEED2Ev, @function
_ZN4asio6detail11timer_queueINS0_18chrono_time_traitsINSt6chrono3_V212steady_clockENS_11wait_traitsIS5_EEEEED2Ev:
.LFB9327:
	.cfi_startproc
	endbr64
	movq	_ZTVN4asio6detail11timer_queueINS0_18chrono_time_traitsINSt6chrono3_V212steady_clockENS_11wait_traitsIS5_EEEEEE@GOTPCREL(%rip), %rax
	movq	24(%rdi), %r8
	addq	$16, %rax
	movq	%rax, (%rdi)
	testq	%r8, %r8
	je	.L30
	movq	40(%rdi), %rsi
	movq	%r8, %rdi
	subq	%r8, %rsi
	jmp	_ZdlPvm@PLT
	.p2align 4,,10
	.p2align 3
.L30:
	ret
	.cfi_endproc
.LFE9327:
	.size	_ZN4asio6detail11timer_queueINS0_18chrono_time_traitsINSt6chrono3_V212steady_clockENS_11wait_traitsIS5_EEEEED2Ev, .-_ZN4asio6detail11timer_queueINS0_18chrono_time_traitsINSt6chrono3_V212steady_clockENS_11wait_traitsIS5_EEEEED2Ev
	.weak	_ZN4asio6detail11timer_queueINS0_18chrono_time_traitsINSt6chrono3_V212steady_clockENS_11wait_traitsIS5_EEEEED1Ev
	.set	_ZN4asio6detail11timer_queueINS0_18chrono_time_traitsINSt6chrono3_V212steady_clockENS_11wait_traitsIS5_EEEEED1Ev,_ZN4asio6detail11timer_queueINS0_18chrono_time_traitsINSt6chrono3_V212steady_clockENS_11wait_traitsIS5_EEEEED2Ev
	.section	.text._ZN4asio6detail11timer_queueINS0_18chrono_time_traitsINSt6chrono3_V212steady_clockENS_11wait_traitsIS5_EEEEED0Ev,"axG",@progbits,_ZN4asio6detail11timer_queueINS0_18chrono_time_traitsINSt6chrono3_V212steady_clockENS_11wait_traitsIS5_EEEEED5Ev,comdat
	.align 2
	.p2align 4
	.weak	_ZN4asio6detail11timer_queueINS0_18chrono_time_traitsINSt6chrono3_V212steady_clockENS_11wait_traitsIS5_EEEEED0Ev
	.type	_ZN4asio6detail11timer_queueINS0_18chrono_time_traitsINSt6chrono3_V212steady_clockENS_11wait_traitsIS5_EEEEED0Ev, @function
_ZN4asio6detail11timer_queueINS0_18chrono_time_traitsINSt6chrono3_V212steady_clockENS_11wait_traitsIS5_EEEEED0Ev:
.LFB9329:
	.cfi_startproc
	endbr64
	movq	_ZTVN4asio6detail11timer_queueINS0_18chrono_time_traitsINSt6chrono3_V212steady_clockENS_11wait_traitsIS5_EEEEEE@GOTPCREL(%rip), %rax
	pushq	%rbp
	.cfi_def_cfa_offset 16
	.cfi_offset 6, -16
	movq	%rdi, %rbp
	addq	$16, %rax
	movq	%rax, (%rdi)
	movq	24(%rdi), %rdi
	testq	%rdi, %rdi
	je	.L33
	movq	40(%rbp), %rsi
	subq	%rdi, %rsi
	call	_ZdlPvm@PLT
.L33:
	movq	%rbp, %rdi
	movl	$48, %esi
	popq	%rbp
	.cfi_def_cfa_offset 8
	jmp	_ZdlPvm@PLT
	.cfi_endproc
.LFE9329:
	.size	_ZN4asio6detail11timer_queueINS0_18chrono_time_traitsINSt6chrono3_V212steady_clockENS_11wait_traitsIS5_EEEEED0Ev, .-_ZN4asio6detail11timer_queueINS0_18chrono_time_traitsINSt6chrono3_V212steady_clockENS_11wait_traitsIS5_EEEEED0Ev
	.section	.text._ZN4asio22waitable_timer_serviceINSt6chrono3_V212steady_clockENS_11wait_traitsIS3_EEED0Ev,"axG",@progbits,_ZN4asio22waitable_timer_serviceINSt6chrono3_V212steady_clockENS_11wait_traitsIS3_EEED5Ev,comdat
	.align 2
	.p2align 4
	.weak	_ZN4asio22waitable_timer_serviceINSt6chrono3_V212steady_clockENS_11wait_traitsIS3_EEED0Ev
	.type	_ZN4asio22waitable_timer_serviceINSt6chrono3_V212steady_clockENS_11wait_traitsIS3_EEED0Ev, @function
_ZN4asio22waitable_timer_serviceINSt6chrono3_V212steady_clockENS_11wait_traitsIS3_EEED0Ev:
.LFB9548:
	.cfi_startproc
	endbr64
	movq	_ZTVN4asio22waitable_timer_serviceINSt6chrono3_V212steady_clockENS_11wait_traitsIS3_EEEE@GOTPCREL(%rip), %rax
	pushq	%r12
	.cfi_def_cfa_offset 16
	.cfi_offset 12, -16
	pushq	%rbp
	.cfi_def_cfa_offset 24
	.cfi_offset 6, -24
	movq	%rdi, %rbp
	pushq	%rbx
	.cfi_def_cfa_offset 32
	.cfi_offset 3, -32
	addq	$16, %rax
	movq	88(%rdi), %rbx
	movq	%rax, (%rdi)
	leaq	48(%rbx), %r12
	movq	%r12, %rdi
	call	pthread_mutex_lock@PLT
	movq	104(%rbx), %rax
	testq	%rax, %rax
	je	.L39
	leaq	40(%rbp), %rdx
	cmpq	%rax, %rdx
	jne	.L40
	jmp	.L52
	.p2align 4,,10
	.p2align 3
.L41:
	cmpq	%rax, %rdx
	je	.L53
.L40:
	movq	%rax, %rcx
	movq	8(%rax), %rax
	testq	%rax, %rax
	jne	.L41
.L39:
	movq	%r12, %rdi
	call	pthread_mutex_unlock@PLT
	movq	_ZTVN4asio6detail11timer_queueINS0_18chrono_time_traitsINSt6chrono3_V212steady_clockENS_11wait_traitsIS5_EEEEEE@GOTPCREL(%rip), %rax
	movq	64(%rbp), %rdi
	addq	$16, %rax
	movq	%rax, 40(%rbp)
	testq	%rdi, %rdi
	je	.L42
	movq	80(%rbp), %rsi
	subq	%rdi, %rsi
	call	_ZdlPvm@PLT
.L42:
	popq	%rbx
	.cfi_remember_state
	.cfi_def_cfa_offset 24
	movq	%rbp, %rdi
	movl	$96, %esi
	popq	%rbp
	.cfi_def_cfa_offset 16
	popq	%r12
	.cfi_def_cfa_offset 8
	jmp	_ZdlPvm@PLT
	.p2align 4,,10
	.p2align 3
.L53:
	.cfi_restore_state
	movq	48(%rbp), %rax
	movq	%rax, 8(%rcx)
	movq	$0, 48(%rbp)
	jmp	.L39
	.p2align 4,,10
	.p2align 3
.L52:
	movq	48(%rbp), %rax
	movq	%rax, 104(%rbx)
	movq	$0, 48(%rbp)
	jmp	.L39
	.cfi_endproc
.LFE9548:
	.size	_ZN4asio22waitable_timer_serviceINSt6chrono3_V212steady_clockENS_11wait_traitsIS3_EEED0Ev, .-_ZN4asio22waitable_timer_serviceINSt6chrono3_V212steady_clockENS_11wait_traitsIS3_EEED0Ev
	.section	.text._ZN4asio6detail15system_categoryD2Ev,"axG",@progbits,_ZN4asio6detail15system_categoryD5Ev,comdat
	.align 2
	.p2align 4
	.weak	_ZN4asio6detail15system_categoryD2Ev
	.type	_ZN4asio6detail15system_categoryD2Ev, @function
_ZN4asio6detail15system_categoryD2Ev:
.LFB9582:
	.cfi_startproc
	endbr64
	movq	_ZTVN4asio6detail15system_categoryE@GOTPCREL(%rip), %rax
	addq	$16, %rax
	movq	%rax, (%rdi)
	jmp	_ZNSt3_V214error_categoryD2Ev@PLT
	.cfi_endproc
.LFE9582:
	.size	_ZN4asio6detail15system_categoryD2Ev, .-_ZN4asio6detail15system_categoryD2Ev
	.weak	_ZN4asio6detail15system_categoryD1Ev
	.set	_ZN4asio6detail15system_categoryD1Ev,_ZN4asio6detail15system_categoryD2Ev
	.section	.text._ZN4asio6detail15system_categoryD0Ev,"axG",@progbits,_ZN4asio6detail15system_categoryD5Ev,comdat
	.align 2
	.p2align 4
	.weak	_ZN4asio6detail15system_categoryD0Ev
	.type	_ZN4asio6detail15system_categoryD0Ev, @function
_ZN4asio6detail15system_categoryD0Ev:
.LFB9584:
	.cfi_startproc
	endbr64
	movq	_ZTVN4asio6detail15system_categoryE@GOTPCREL(%rip), %rax
	pushq	%rbp
	.cfi_def_cfa_offset 16
	.cfi_offset 6, -16
	movq	%rdi, %rbp
	addq	$16, %rax
	movq	%rax, (%rdi)
	call	_ZNSt3_V214error_categoryD2Ev@PLT
	movq	%rbp, %rdi
	movl	$8, %esi
	popq	%rbp
	.cfi_def_cfa_offset 8
	jmp	_ZdlPvm@PLT
	.cfi_endproc
.LFE9584:
	.size	_ZN4asio6detail15system_categoryD0Ev, .-_ZN4asio6detail15system_categoryD0Ev
	.section	.text._ZN4asio5error6detail14netdb_categoryD2Ev,"axG",@progbits,_ZN4asio5error6detail14netdb_categoryD5Ev,comdat
	.align 2
	.p2align 4
	.weak	_ZN4asio5error6detail14netdb_categoryD2Ev
	.type	_ZN4asio5error6detail14netdb_categoryD2Ev, @function
_ZN4asio5error6detail14netdb_categoryD2Ev:
.LFB9570:
	.cfi_startproc
	endbr64
	movq	_ZTVN4asio5error6detail14netdb_categoryE@GOTPCREL(%rip), %rax
	addq	$16, %rax
	movq	%rax, (%rdi)
	jmp	_ZNSt3_V214error_categoryD2Ev@PLT
	.cfi_endproc
.LFE9570:
	.size	_ZN4asio5error6detail14netdb_categoryD2Ev, .-_ZN4asio5error6detail14netdb_categoryD2Ev
	.weak	_ZN4asio5error6detail14netdb_categoryD1Ev
	.set	_ZN4asio5error6detail14netdb_categoryD1Ev,_ZN4asio5error6detail14netdb_categoryD2Ev
	.section	.text._ZN4asio5error6detail14netdb_categoryD0Ev,"axG",@progbits,_ZN4asio5error6detail14netdb_categoryD5Ev,comdat
	.align 2
	.p2align 4
	.weak	_ZN4asio5error6detail14netdb_categoryD0Ev
	.type	_ZN4asio5error6detail14netdb_categoryD0Ev, @function
_ZN4asio5error6detail14netdb_categoryD0Ev:
.LFB9572:
	.cfi_startproc
	endbr64
	movq	_ZTVN4asio5error6detail14netdb_categoryE@GOTPCREL(%rip), %rax
	pushq	%rbp
	.cfi_def_cfa_offset 16
	.cfi_offset 6, -16
	movq	%rdi, %rbp
	addq	$16, %rax
	movq	%rax, (%rdi)
	call	_ZNSt3_V214error_categoryD2Ev@PLT
	movq	%rbp, %rdi
	movl	$8, %esi
	popq	%rbp
	.cfi_def_cfa_offset 8
	jmp	_ZdlPvm@PLT
	.cfi_endproc
.LFE9572:
	.size	_ZN4asio5error6detail14netdb_categoryD0Ev, .-_ZN4asio5error6detail14netdb_categoryD0Ev
	.section	.text._ZN4asio5error6detail17addrinfo_categoryD2Ev,"axG",@progbits,_ZN4asio5error6detail17addrinfo_categoryD5Ev,comdat
	.align 2
	.p2align 4
	.weak	_ZN4asio5error6detail17addrinfo_categoryD2Ev
	.type	_ZN4asio5error6detail17addrinfo_categoryD2Ev, @function
_ZN4asio5error6detail17addrinfo_categoryD2Ev:
.LFB9566:
	.cfi_startproc
	endbr64
	movq	_ZTVN4asio5error6detail17addrinfo_categoryE@GOTPCREL(%rip), %rax
	addq	$16, %rax
	movq	%rax, (%rdi)
	jmp	_ZNSt3_V214error_categoryD2Ev@PLT
	.cfi_endproc
.LFE9566:
	.size	_ZN4asio5error6detail17addrinfo_categoryD2Ev, .-_ZN4asio5error6detail17addrinfo_categoryD2Ev
	.weak	_ZN4asio5error6detail17addrinfo_categoryD1Ev
	.set	_ZN4asio5error6detail17addrinfo_categoryD1Ev,_ZN4asio5error6detail17addrinfo_categoryD2Ev
	.section	.text._ZN4asio5error6detail17addrinfo_categoryD0Ev,"axG",@progbits,_ZN4asio5error6detail17addrinfo_categoryD5Ev,comdat
	.align 2
	.p2align 4
	.weak	_ZN4asio5error6detail17addrinfo_categoryD0Ev
	.type	_ZN4asio5error6detail17addrinfo_categoryD0Ev, @function
_ZN4asio5error6detail17addrinfo_categoryD0Ev:
.LFB9568:
	.cfi_startproc
	endbr64
	movq	_ZTVN4asio5error6detail17addrinfo_categoryE@GOTPCREL(%rip), %rax
	pushq	%rbp
	.cfi_def_cfa_offset 16
	.cfi_offset 6, -16
	movq	%rdi, %rbp
	addq	$16, %rax
	movq	%rax, (%rdi)
	call	_ZNSt3_V214error_categoryD2Ev@PLT
	movq	%rbp, %rdi
	movl	$8, %esi
	popq	%rbp
	.cfi_def_cfa_offset 8
	jmp	_ZdlPvm@PLT
	.cfi_endproc
.LFE9568:
	.size	_ZN4asio5error6detail17addrinfo_categoryD0Ev, .-_ZN4asio5error6detail17addrinfo_categoryD0Ev
	.section	.text._ZN4asio5error6detail13misc_categoryD2Ev,"axG",@progbits,_ZN4asio5error6detail13misc_categoryD5Ev,comdat
	.align 2
	.p2align 4
	.weak	_ZN4asio5error6detail13misc_categoryD2Ev
	.type	_ZN4asio5error6detail13misc_categoryD2Ev, @function
_ZN4asio5error6detail13misc_categoryD2Ev:
.LFB9562:
	.cfi_startproc
	endbr64
	movq	_ZTVN4asio5error6detail13misc_categoryE@GOTPCREL(%rip), %rax
	addq	$16, %rax
	movq	%rax, (%rdi)
	jmp	_ZNSt3_V214error_categoryD2Ev@PLT
	.cfi_endproc
.LFE9562:
	.size	_ZN4asio5error6detail13misc_categoryD2Ev, .-_ZN4asio5error6detail13misc_categoryD2Ev
	.weak	_ZN4asio5error6detail13misc_categoryD1Ev
	.set	_ZN4asio5error6detail13misc_categoryD1Ev,_ZN4asio5error6detail13misc_categoryD2Ev
	.section	.text._ZN4asio5error6detail13misc_categoryD0Ev,"axG",@progbits,_ZN4asio5error6detail13misc_categoryD5Ev,comdat
	.align 2
	.p2align 4
	.weak	_ZN4asio5error6detail13misc_categoryD0Ev
	.type	_ZN4asio5error6detail13misc_categoryD0Ev, @function
_ZN4asio5error6detail13misc_categoryD0Ev:
.LFB9564:
	.cfi_startproc
	endbr64
	movq	_ZTVN4asio5error6detail13misc_categoryE@GOTPCREL(%rip), %rax
	pushq	%rbp
	.cfi_def_cfa_offset 16
	.cfi_offset 6, -16
	movq	%rdi, %rbp
	addq	$16, %rax
	movq	%rax, (%rdi)
	call	_ZNSt3_V214error_categoryD2Ev@PLT
	movq	%rbp, %rdi
	movl	$8, %esi
	popq	%rbp
	.cfi_def_cfa_offset 8
	jmp	_ZdlPvm@PLT
	.cfi_endproc
.LFE9564:
	.size	_ZN4asio5error6detail13misc_categoryD0Ev, .-_ZN4asio5error6detail13misc_categoryD0Ev
	.text
	.align 2
	.p2align 4
	.type	_ZNSt6thread11_State_implINS_8_InvokerISt5tupleIJZN7asiopal10ThreadPoolC4ERKN7openpal6LoggerERKSt10shared_ptrINS3_2IOEEjSt8functionIFvvEESG_EUlvE0_EEEEED2Ev, @function
_ZNSt6thread11_State_implINS_8_InvokerISt5tupleIJZN7asiopal10ThreadPoolC4ERKN7openpal6LoggerERKSt10shared_ptrINS3_2IOEEjSt8functionIFvvEESG_EUlvE0_EEEEED2Ev:
.LFB9522:
	.cfi_startproc
	endbr64
	leaq	16+_ZTVNSt6thread11_State_implINS_8_InvokerISt5tupleIJZN7asiopal10ThreadPoolC4ERKN7openpal6LoggerERKSt10shared_ptrINS3_2IOEEjSt8functionIFvvEESG_EUlvE0_EEEEEE(%rip), %rax
	movq	%rax, (%rdi)
	jmp	_ZNSt6thread6_StateD2Ev@PLT
	.cfi_endproc
.LFE9522:
	.size	_ZNSt6thread11_State_implINS_8_InvokerISt5tupleIJZN7asiopal10ThreadPoolC4ERKN7openpal6LoggerERKSt10shared_ptrINS3_2IOEEjSt8functionIFvvEESG_EUlvE0_EEEEED2Ev, .-_ZNSt6thread11_State_implINS_8_InvokerISt5tupleIJZN7asiopal10ThreadPoolC4ERKN7openpal6LoggerERKSt10shared_ptrINS3_2IOEEjSt8functionIFvvEESG_EUlvE0_EEEEED2Ev
	.set	_ZNSt6thread11_State_implINS_8_InvokerISt5tupleIJZN7asiopal10ThreadPoolC4ERKN7openpal6LoggerERKSt10shared_ptrINS3_2IOEEjSt8functionIFvvEESG_EUlvE0_EEEEED1Ev,_ZNSt6thread11_State_implINS_8_InvokerISt5tupleIJZN7asiopal10ThreadPoolC4ERKN7openpal6LoggerERKSt10shared_ptrINS3_2IOEEjSt8functionIFvvEESG_EUlvE0_EEEEED2Ev
	.align 2
	.p2align 4
	.type	_ZNSt6thread11_State_implINS_8_InvokerISt5tupleIJZN7asiopal10ThreadPoolC4ERKN7openpal6LoggerERKSt10shared_ptrINS3_2IOEEjSt8functionIFvvEESG_EUlvE0_EEEEED0Ev, @function
_ZNSt6thread11_State_implINS_8_InvokerISt5tupleIJZN7asiopal10ThreadPoolC4ERKN7openpal6LoggerERKSt10shared_ptrINS3_2IOEEjSt8functionIFvvEESG_EUlvE0_EEEEED0Ev:
.LFB9524:
	.cfi_startproc
	endbr64
	leaq	16+_ZTVNSt6thread11_State_implINS_8_InvokerISt5tupleIJZN7asiopal10ThreadPoolC4ERKN7openpal6LoggerERKSt10shared_ptrINS3_2IOEEjSt8functionIFvvEESG_EUlvE0_EEEEEE(%rip), %rax
	pushq	%rbp
	.cfi_def_cfa_offset 16
	.cfi_offset 6, -16
	movq	%rdi, %rbp
	movq	%rax, (%rdi)
	call	_ZNSt6thread6_StateD2Ev@PLT
	movq	%rbp, %rdi
	movl	$24, %esi
	popq	%rbp
	.cfi_def_cfa_offset 8
	jmp	_ZdlPvm@PLT
	.cfi_endproc
.LFE9524:
	.size	_ZNSt6thread11_State_implINS_8_InvokerISt5tupleIJZN7asiopal10ThreadPoolC4ERKN7openpal6LoggerERKSt10shared_ptrINS3_2IOEEjSt8functionIFvvEESG_EUlvE0_EEEEED0Ev, .-_ZNSt6thread11_State_implINS_8_InvokerISt5tupleIJZN7asiopal10ThreadPoolC4ERKN7openpal6LoggerERKSt10shared_ptrINS3_2IOEEjSt8functionIFvvEESG_EUlvE0_EEEEED0Ev
	.section	.text._ZNK4asio6detail11timer_queueINS0_18chrono_time_traitsINSt6chrono3_V212steady_clockENS_11wait_traitsIS5_EEEEE18wait_duration_usecEl,"axG",@progbits,_ZNK4asio6detail11timer_queueINS0_18chrono_time_traitsINSt6chrono3_V212steady_clockENS_11wait_traitsIS5_EEEEE18wait_duration_usecEl,comdat
	.align 2
	.p2align 4
	.weak	_ZNK4asio6detail11timer_queueINS0_18chrono_time_traitsINSt6chrono3_V212steady_clockENS_11wait_traitsIS5_EEEEE18wait_duration_usecEl
	.type	_ZNK4asio6detail11timer_queueINS0_18chrono_time_traitsINSt6chrono3_V212steady_clockENS_11wait_traitsIS5_EEEEE18wait_duration_usecEl, @function
_ZNK4asio6detail11timer_queueINS0_18chrono_time_traitsINSt6chrono3_V212steady_clockENS_11wait_traitsIS5_EEEEE18wait_duration_usecEl:
.LFB9660:
	.cfi_startproc
	endbr64
	movq	32(%rdi), %rax
	cmpq	%rax, 24(%rdi)
	je	.L85
	pushq	%rbp
	.cfi_def_cfa_offset 16
	.cfi_offset 6, -16
	movq	%rsi, %rbp
	pushq	%rbx
	.cfi_def_cfa_offset 24
	.cfi_offset 3, -24
	movq	%rdi, %rbx
	subq	$8, %rsp
	.cfi_def_cfa_offset 32
	call	_ZNSt6chrono3_V212steady_clock3nowEv@PLT
	movq	24(%rbx), %rdx
	movq	(%rdx), %rdx
	testq	%rdx, %rdx
	js	.L71
	testq	%rax, %rax
	js	.L72
.L88:
	movq	%rdx, %rcx
	subq	%rax, %rcx
	testq	%rcx, %rcx
	jle	.L81
	movabsq	$2361183241434822607, %rdx
	movq	%rcx, %rax
	sarq	$63, %rcx
	imulq	%rdx
	sarq	$7, %rdx
	subq	%rcx, %rdx
.L75:
	movl	$1, %r8d
	testq	%rdx, %rdx
	je	.L69
.L74:
	cmpq	%rdx, %rbp
	cmovle	%rbp, %rdx
	movq	%rdx, %r8
.L69:
	addq	$8, %rsp
	.cfi_remember_state
	.cfi_def_cfa_offset 24
	movq	%r8, %rax
	popq	%rbx
	.cfi_def_cfa_offset 16
	popq	%rbp
	.cfi_def_cfa_offset 8
	ret
	.p2align 4,,10
	.p2align 3
.L71:
	.cfi_restore_state
	xorl	%r8d, %r8d
	testq	%rax, %rax
	js	.L88
	addq	$8, %rsp
	.cfi_def_cfa_offset 24
	movq	%r8, %rax
	popq	%rbx
	.cfi_def_cfa_offset 16
	popq	%rbp
	.cfi_def_cfa_offset 8
	ret
	.p2align 4,,10
	.p2align 3
.L85:
	.cfi_restore 3
	.cfi_restore 6
	movq	%rsi, %rax
	ret
	.p2align 4,,10
	.p2align 3
.L72:
	.cfi_def_cfa_offset 32
	.cfi_offset 3, -24
	.cfi_offset 6, -16
	movabsq	$-9223372036854775808, %rcx
	cmpq	%rcx, %rax
	je	.L79
	movq	%rax, %rsi
	subq	$1, %rcx
	negq	%rsi
	subq	%rdx, %rcx
	cmpq	%rcx, %rsi
	jg	.L79
	movabsq	$2361183241434822607, %rcx
	subq	%rax, %rdx
	shrq	$3, %rdx
	movq	%rdx, %rax
	mulq	%rcx
	shrq	$4, %rdx
	jmp	.L75
	.p2align 4,,10
	.p2align 3
.L79:
	movabsq	$9223372036854775, %rdx
	jmp	.L74
	.p2align 4,,10
	.p2align 3
.L81:
	xorl	%r8d, %r8d
	jmp	.L69
	.cfi_endproc
.LFE9660:
	.size	_ZNK4asio6detail11timer_queueINS0_18chrono_time_traitsINSt6chrono3_V212steady_clockENS_11wait_traitsIS5_EEEEE18wait_duration_usecEl, .-_ZNK4asio6detail11timer_queueINS0_18chrono_time_traitsINSt6chrono3_V212steady_clockENS_11wait_traitsIS5_EEEEE18wait_duration_usecEl
	.section	.text._ZN4asio22waitable_timer_serviceINSt6chrono3_V212steady_clockENS_11wait_traitsIS3_EEED2Ev,"axG",@progbits,_ZN4asio22waitable_timer_serviceINSt6chrono3_V212steady_clockENS_11wait_traitsIS3_EEED5Ev,comdat
	.align 2
	.p2align 4
	.weak	_ZN4asio22waitable_timer_serviceINSt6chrono3_V212steady_clockENS_11wait_traitsIS3_EEED2Ev
	.type	_ZN4asio22waitable_timer_serviceINSt6chrono3_V212steady_clockENS_11wait_traitsIS3_EEED2Ev, @function
_ZN4asio22waitable_timer_serviceINSt6chrono3_V212steady_clockENS_11wait_traitsIS3_EEED2Ev:
.LFB9546:
	.cfi_startproc
	endbr64
	movq	_ZTVN4asio22waitable_timer_serviceINSt6chrono3_V212steady_clockENS_11wait_traitsIS3_EEEE@GOTPCREL(%rip), %rax
	pushq	%r12
	.cfi_def_cfa_offset 16
	.cfi_offset 12, -16
	pushq	%rbp
	.cfi_def_cfa_offset 24
	.cfi_offset 6, -24
	addq	$16, %rax
	pushq	%rbx
	.cfi_def_cfa_offset 32
	.cfi_offset 3, -32
	movq	88(%rdi), %rbp
	movq	%rdi, %rbx
	movq	%rax, (%rdi)
	leaq	48(%rbp), %r12
	movq	%r12, %rdi
	call	pthread_mutex_lock@PLT
	movq	104(%rbp), %rax
	testq	%rax, %rax
	je	.L91
	leaq	40(%rbx), %rdx
	cmpq	%rax, %rdx
	jne	.L92
	jmp	.L101
	.p2align 4,,10
	.p2align 3
.L93:
	cmpq	%rax, %rdx
	je	.L102
.L92:
	movq	%rax, %rcx
	movq	8(%rax), %rax
	testq	%rax, %rax
	jne	.L93
.L91:
	movq	%r12, %rdi
	call	pthread_mutex_unlock@PLT
	movq	_ZTVN4asio6detail11timer_queueINS0_18chrono_time_traitsINSt6chrono3_V212steady_clockENS_11wait_traitsIS5_EEEEEE@GOTPCREL(%rip), %rax
	movq	64(%rbx), %rdi
	addq	$16, %rax
	movq	%rax, 40(%rbx)
	testq	%rdi, %rdi
	je	.L90
	movq	80(%rbx), %rsi
	popq	%rbx
	.cfi_remember_state
	.cfi_def_cfa_offset 24
	popq	%rbp
	.cfi_def_cfa_offset 16
	popq	%r12
	.cfi_def_cfa_offset 8
	subq	%rdi, %rsi
	jmp	_ZdlPvm@PLT
	.p2align 4,,10
	.p2align 3
.L90:
	.cfi_restore_state
	popq	%rbx
	.cfi_remember_state
	.cfi_def_cfa_offset 24
	popq	%rbp
	.cfi_def_cfa_offset 16
	popq	%r12
	.cfi_def_cfa_offset 8
	ret
	.p2align 4,,10
	.p2align 3
.L102:
	.cfi_restore_state
	movq	48(%rbx), %rax
	movq	%rax, 8(%rcx)
	movq	$0, 48(%rbx)
	jmp	.L91
	.p2align 4,,10
	.p2align 3
.L101:
	movq	48(%rbx), %rax
	movq	%rax, 104(%rbp)
	movq	$0, 48(%rbx)
	jmp	.L91
	.cfi_endproc
.LFE9546:
	.size	_ZN4asio22waitable_timer_serviceINSt6chrono3_V212steady_clockENS_11wait_traitsIS3_EEED2Ev, .-_ZN4asio22waitable_timer_serviceINSt6chrono3_V212steady_clockENS_11wait_traitsIS3_EEED2Ev
	.weak	_ZN4asio22waitable_timer_serviceINSt6chrono3_V212steady_clockENS_11wait_traitsIS3_EEED1Ev
	.set	_ZN4asio22waitable_timer_serviceINSt6chrono3_V212steady_clockENS_11wait_traitsIS3_EEED1Ev,_ZN4asio22waitable_timer_serviceINSt6chrono3_V212steady_clockENS_11wait_traitsIS3_EEED2Ev
	.text
	.p2align 4
	.type	_ZN4asio6detail12wait_handlerIZN7asiopal10ThreadPoolC4ERKN7openpal6LoggerERKSt10shared_ptrINS2_2IOEEjSt8functionIFvvEESF_EUlRKSt10error_codeE_E11do_completeEPNS0_15task_io_serviceEPNS0_25task_io_service_operationESI_m, @function
_ZN4asio6detail12wait_handlerIZN7asiopal10ThreadPoolC4ERKN7openpal6LoggerERKSt10shared_ptrINS2_2IOEEjSt8functionIFvvEESF_EUlRKSt10error_codeE_E11do_completeEPNS0_15task_io_serviceEPNS0_25task_io_service_operationESI_m:
.LFB8977:
	.cfi_startproc
	.cfi_personality 0x9b,DW.ref.__gxx_personality_v0
	endbr64
	pushq	%rbp
	.cfi_def_cfa_offset 16
	.cfi_offset 6, -16
	movq	%rsi, %rbp
	pushq	%rbx
	.cfi_def_cfa_offset 24
	.cfi_offset 3, -24
	movq	%rdi, %rbx
	subq	$8, %rsp
	.cfi_def_cfa_offset 32
	data16	leaq	_ZN4asio6detail15keyword_tss_ptrINS0_10call_stackINS0_15task_io_serviceENS0_27task_io_service_thread_infoEE7contextEE6value_E@tlsgd(%rip), %rdi
	.value	0x6666
	rex64
	call	__tls_get_addr@PLT
	movq	(%rax), %rax
	testq	%rax, %rax
	je	.L104
	movq	8(%rax), %rax
	testq	%rax, %rax
	je	.L104
	cmpq	$0, (%rax)
	je	.L117
.L104:
	movq	%rbp, %rdi
	call	_ZdlPv@PLT
.L105:
	testq	%rbx, %rbx
	je	.L103
	sfence
.L103:
	addq	$8, %rsp
	.cfi_remember_state
	.cfi_def_cfa_offset 24
	popq	%rbx
	.cfi_def_cfa_offset 16
	popq	%rbp
	.cfi_def_cfa_offset 8
	ret
	.p2align 4,,10
	.p2align 3
.L117:
	.cfi_restore_state
	movzbl	48(%rbp), %edx
	movb	%dl, 0(%rbp)
	movq	%rbp, (%rax)
	jmp	.L105
	.cfi_endproc
.LFE8977:
	.size	_ZN4asio6detail12wait_handlerIZN7asiopal10ThreadPoolC4ERKN7openpal6LoggerERKSt10shared_ptrINS2_2IOEEjSt8functionIFvvEESF_EUlRKSt10error_codeE_E11do_completeEPNS0_15task_io_serviceEPNS0_25task_io_service_operationESI_m, .-_ZN4asio6detail12wait_handlerIZN7asiopal10ThreadPoolC4ERKN7openpal6LoggerERKSt10shared_ptrINS2_2IOEEjSt8functionIFvvEESF_EUlRKSt10error_codeE_E11do_completeEPNS0_15task_io_serviceEPNS0_25task_io_service_operationESI_m
	.section	.text._ZN4asio6detail13epoll_reactorD2Ev,"axG",@progbits,_ZN4asio6detail13epoll_reactorD5Ev,comdat
	.align 2
	.p2align 4
	.weak	_ZN4asio6detail13epoll_reactorD2Ev
	.type	_ZN4asio6detail13epoll_reactorD2Ev, @function
_ZN4asio6detail13epoll_reactorD2Ev:
.LFB3466:
	.cfi_startproc
	.cfi_personality 0x9b,DW.ref.__gxx_personality_v0
	.cfi_lsda 0x1b,.LLSDA3466
	endbr64
	pushq	%r15
	.cfi_def_cfa_offset 16
	.cfi_offset 15, -16
	pushq	%r14
	.cfi_def_cfa_offset 24
	.cfi_offset 14, -24
	pushq	%r13
	.cfi_def_cfa_offset 32
	.cfi_offset 13, -32
	pushq	%r12
	.cfi_def_cfa_offset 40
	.cfi_offset 12, -40
	pushq	%rbp
	.cfi_def_cfa_offset 48
	.cfi_offset 6, -48
	pushq	%rbx
	.cfi_def_cfa_offset 56
	.cfi_offset 3, -56
	subq	$56, %rsp
	.cfi_def_cfa_offset 112
	movq	%rdi, 8(%rsp)
	movq	%fs:40, %rax
	movq	%rax, 40(%rsp)
	movq	_ZTVN4asio6detail13epoll_reactorE@GOTPCREL(%rip), %rax
	addq	$16, %rax
	movq	%rax, (%rdi)
	movl	96(%rdi), %edi
	cmpl	$-1, %edi
	je	.L119
	call	close@PLT
.L119:
	movq	8(%rsp), %rax
	movl	100(%rax), %edi
	cmpl	$-1, %edi
	je	.L120
	call	close@PLT
.L120:
	movq	8(%rsp), %rax
	leaq	16(%rsp), %rbp
	movq	160(%rax), %r13
	testq	%r13, %r13
	je	.L131
	.p2align 4,,10
	.p2align 3
.L121:
	movq	%r13, %r12
	movq	24(%r13), %r13
	leaq	128(%r12), %r15
	leaq	80(%r12), %r14
.L126:
	movq	(%r15), %rsi
	testq	%rsi, %rsi
	je	.L128
	movq	%rsi, (%rsp)
	call	_ZNSt3_V215system_categoryEv@PLT
	movq	(%rsp), %rsi
	movq	%rax, %rbx
	jmp	.L130
	.p2align 4,,10
	.p2align 3
.L127:
	movq	$0, (%rsi)
	movq	8(%rsi), %rax
	xorl	%ecx, %ecx
	movq	%rbp, %rdx
	movl	$0, 16(%rsp)
	xorl	%edi, %edi
	movq	%rbx, 24(%rsp)
	call	*%rax
	movq	(%r15), %rsi
	testq	%rsi, %rsi
	je	.L128
.L130:
	movq	(%rsi), %rax
	movq	%rax, (%r15)
	testq	%rax, %rax
	jne	.L127
	movq	$0, 8(%r15)
	jmp	.L127
	.p2align 4,,10
	.p2align 3
.L128:
	subq	$16, %r15
	cmpq	%r14, %r15
	jne	.L126
	leaq	40(%r12), %rdi
	call	pthread_mutex_destroy@PLT
	movl	$152, %esi
	movq	%r12, %rdi
	call	_ZdlPvm@PLT
	testq	%r13, %r13
	jne	.L121
.L131:
	movq	8(%rsp), %rax
	leaq	16(%rsp), %rbp
	movq	168(%rax), %r13
	testq	%r13, %r13
	je	.L123
	.p2align 4,,10
	.p2align 3
.L122:
	movq	%r13, %r12
	movq	24(%r13), %r13
	leaq	128(%r12), %r15
	leaq	80(%r12), %r14
.L136:
	movq	(%r15), %rsi
	testq	%rsi, %rsi
	je	.L138
	movq	%rsi, (%rsp)
	call	_ZNSt3_V215system_categoryEv@PLT
	movq	(%rsp), %rsi
	movq	%rax, %rbx
	jmp	.L140
	.p2align 4,,10
	.p2align 3
.L137:
	movq	$0, (%rsi)
	movq	8(%rsi), %rax
	xorl	%ecx, %ecx
	movq	%rbp, %rdx
	movl	$0, 16(%rsp)
	xorl	%edi, %edi
	movq	%rbx, 24(%rsp)
	call	*%rax
	movq	(%r15), %rsi
	testq	%rsi, %rsi
	je	.L138
.L140:
	movq	(%rsi), %rax
	movq	%rax, (%r15)
	testq	%rax, %rax
	jne	.L137
	movq	$0, 8(%r15)
	jmp	.L137
	.p2align 4,,10
	.p2align 3
.L138:
	subq	$16, %r15
	cmpq	%r14, %r15
	jne	.L136
	leaq	40(%r12), %rdi
	call	pthread_mutex_destroy@PLT
	movl	$152, %esi
	movq	%r12, %rdi
	call	_ZdlPvm@PLT
	testq	%r13, %r13
	jne	.L122
.L123:
	movq	8(%rsp), %rbx
	leaq	120(%rbx), %rdi
	call	pthread_mutex_destroy@PLT
	movl	92(%rbx), %r8d
	cmpl	$-1, %r8d
	je	.L175
	movq	8(%rsp), %rbx
	movl	88(%rbx), %edi
	cmpl	%edi, %r8d
	jne	.L176
.L142:
	call	close@PLT
.L143:
	movq	40(%rsp), %rax
	subq	%fs:40, %rax
	jne	.L177
	movq	8(%rsp), %rdi
	addq	$56, %rsp
	.cfi_remember_state
	.cfi_def_cfa_offset 56
	popq	%rbx
	.cfi_def_cfa_offset 48
	popq	%rbp
	.cfi_def_cfa_offset 40
	addq	$48, %rdi
	popq	%r12
	.cfi_def_cfa_offset 32
	popq	%r13
	.cfi_def_cfa_offset 24
	popq	%r14
	.cfi_def_cfa_offset 16
	popq	%r15
	.cfi_def_cfa_offset 8
	jmp	pthread_mutex_destroy@PLT
.L176:
	.cfi_restore_state
	movl	%r8d, %edi
	call	close@PLT
	movl	88(%rbx), %edi
.L141:
	cmpl	$-1, %edi
	je	.L143
	jmp	.L142
.L175:
	movq	8(%rsp), %rax
	movl	88(%rax), %edi
	jmp	.L141
.L177:
	call	__stack_chk_fail@PLT
	.cfi_endproc
.LFE3466:
	.globl	__gxx_personality_v0
	.section	.gcc_except_table._ZN4asio6detail13epoll_reactorD2Ev,"aG",@progbits,_ZN4asio6detail13epoll_reactorD5Ev,comdat
.LLSDA3466:
	.byte	0xff
	.byte	0xff
	.byte	0x1
	.uleb128 .LLSDACSE3466-.LLSDACSB3466
.LLSDACSB3466:
.LLSDACSE3466:
	.section	.text._ZN4asio6detail13epoll_reactorD2Ev,"axG",@progbits,_ZN4asio6detail13epoll_reactorD5Ev,comdat
	.size	_ZN4asio6detail13epoll_reactorD2Ev, .-_ZN4asio6detail13epoll_reactorD2Ev
	.weak	_ZN4asio6detail13epoll_reactorD1Ev
	.set	_ZN4asio6detail13epoll_reactorD1Ev,_ZN4asio6detail13epoll_reactorD2Ev
	.section	.text._ZN4asio6detail13epoll_reactorD0Ev,"axG",@progbits,_ZN4asio6detail13epoll_reactorD5Ev,comdat
	.align 2
	.p2align 4
	.weak	_ZN4asio6detail13epoll_reactorD0Ev
	.type	_ZN4asio6detail13epoll_reactorD0Ev, @function
_ZN4asio6detail13epoll_reactorD0Ev:
.LFB3468:
	.cfi_startproc
	.cfi_personality 0x9b,DW.ref.__gxx_personality_v0
	.cfi_lsda 0x1b,.LLSDA3468
	endbr64
	pushq	%r15
	.cfi_def_cfa_offset 16
	.cfi_offset 15, -16
	pushq	%r14
	.cfi_def_cfa_offset 24
	.cfi_offset 14, -24
	pushq	%r13
	.cfi_def_cfa_offset 32
	.cfi_offset 13, -32
	pushq	%r12
	.cfi_def_cfa_offset 40
	.cfi_offset 12, -40
	pushq	%rbp
	.cfi_def_cfa_offset 48
	.cfi_offset 6, -48
	pushq	%rbx
	.cfi_def_cfa_offset 56
	.cfi_offset 3, -56
	subq	$56, %rsp
	.cfi_def_cfa_offset 112
	movq	%rdi, 8(%rsp)
	movq	%fs:40, %rax
	movq	%rax, 40(%rsp)
	movq	_ZTVN4asio6detail13epoll_reactorE@GOTPCREL(%rip), %rax
	addq	$16, %rax
	movq	%rax, (%rdi)
	movl	96(%rdi), %edi
	cmpl	$-1, %edi
	je	.L179
	call	close@PLT
.L179:
	movq	8(%rsp), %rax
	movl	100(%rax), %edi
	cmpl	$-1, %edi
	je	.L180
	call	close@PLT
.L180:
	movq	8(%rsp), %rax
	leaq	16(%rsp), %rbp
	movq	160(%rax), %r13
	testq	%r13, %r13
	je	.L191
	.p2align 4,,10
	.p2align 3
.L181:
	movq	%r13, %r12
	movq	24(%r13), %r13
	leaq	144(%r12), %r15
	leaq	96(%r12), %r14
.L186:
	movq	-16(%r15), %rsi
	subq	$16, %r15
	testq	%rsi, %rsi
	je	.L188
	movq	%rsi, (%rsp)
	call	_ZNSt3_V215system_categoryEv@PLT
	movq	(%rsp), %rsi
	movq	%rax, %rbx
	jmp	.L190
	.p2align 4,,10
	.p2align 3
.L187:
	movq	$0, (%rsi)
	movq	8(%rsi), %rax
	xorl	%ecx, %ecx
	movq	%rbp, %rdx
	movl	$0, 16(%rsp)
	xorl	%edi, %edi
	movq	%rbx, 24(%rsp)
	call	*%rax
	movq	(%r15), %rsi
	testq	%rsi, %rsi
	je	.L188
.L190:
	movq	(%rsi), %rax
	movq	%rax, (%r15)
	testq	%rax, %rax
	jne	.L187
	movq	$0, 8(%r15)
	jmp	.L187
	.p2align 4,,10
	.p2align 3
.L188:
	cmpq	%r14, %r15
	jne	.L186
	leaq	40(%r12), %rdi
	call	pthread_mutex_destroy@PLT
	movl	$152, %esi
	movq	%r12, %rdi
	call	_ZdlPvm@PLT
	testq	%r13, %r13
	jne	.L181
.L191:
	movq	8(%rsp), %rax
	leaq	16(%rsp), %rbp
	movq	168(%rax), %r13
	testq	%r13, %r13
	je	.L183
	.p2align 4,,10
	.p2align 3
.L182:
	movq	%r13, %r12
	movq	24(%r13), %r13
	leaq	128(%r12), %r15
	leaq	80(%r12), %r14
.L196:
	movq	(%r15), %rsi
	testq	%rsi, %rsi
	je	.L198
	movq	%rsi, (%rsp)
	call	_ZNSt3_V215system_categoryEv@PLT
	movq	(%rsp), %rsi
	movq	%rax, %rbx
	jmp	.L200
	.p2align 4,,10
	.p2align 3
.L197:
	movq	$0, (%rsi)
	movq	8(%rsi), %rax
	xorl	%ecx, %ecx
	movq	%rbp, %rdx
	movl	$0, 16(%rsp)
	xorl	%edi, %edi
	movq	%rbx, 24(%rsp)
	call	*%rax
	movq	(%r15), %rsi
	testq	%rsi, %rsi
	je	.L198
.L200:
	movq	(%rsi), %rax
	movq	%rax, (%r15)
	testq	%rax, %rax
	jne	.L197
	movq	$0, 8(%r15)
	jmp	.L197
	.p2align 4,,10
	.p2align 3
.L198:
	subq	$16, %r15
	cmpq	%r14, %r15
	jne	.L196
	leaq	40(%r12), %rdi
	call	pthread_mutex_destroy@PLT
	movl	$152, %esi
	movq	%r12, %rdi
	call	_ZdlPvm@PLT
	testq	%r13, %r13
	jne	.L182
.L183:
	movq	8(%rsp), %rbx
	leaq	120(%rbx), %rdi
	call	pthread_mutex_destroy@PLT
	movl	92(%rbx), %r8d
	cmpl	$-1, %r8d
	je	.L235
	movq	8(%rsp), %rbx
	movl	88(%rbx), %edi
	cmpl	%edi, %r8d
	jne	.L236
.L202:
	call	close@PLT
.L203:
	movq	8(%rsp), %rax
	leaq	48(%rax), %rdi
	call	pthread_mutex_destroy@PLT
	movq	40(%rsp), %rax
	subq	%fs:40, %rax
	jne	.L237
	movq	8(%rsp), %rdi
	addq	$56, %rsp
	.cfi_remember_state
	.cfi_def_cfa_offset 56
	movl	$176, %esi
	popq	%rbx
	.cfi_def_cfa_offset 48
	popq	%rbp
	.cfi_def_cfa_offset 40
	popq	%r12
	.cfi_def_cfa_offset 32
	popq	%r13
	.cfi_def_cfa_offset 24
	popq	%r14
	.cfi_def_cfa_offset 16
	popq	%r15
	.cfi_def_cfa_offset 8
	jmp	_ZdlPvm@PLT
.L236:
	.cfi_restore_state
	movl	%r8d, %edi
	call	close@PLT
	movl	88(%rbx), %edi
.L201:
	cmpl	$-1, %edi
	je	.L203
	jmp	.L202
.L235:
	movq	8(%rsp), %rax
	movl	88(%rax), %edi
	jmp	.L201
.L237:
	call	__stack_chk_fail@PLT
	.cfi_endproc
.LFE3468:
	.section	.gcc_except_table._ZN4asio6detail13epoll_reactorD0Ev,"aG",@progbits,_ZN4asio6detail13epoll_reactorD5Ev,comdat
.LLSDA3468:
	.byte	0xff
	.byte	0xff
	.byte	0x1
	.uleb128 .LLSDACSE3468-.LLSDACSB3468
.LLSDACSB3468:
.LLSDACSE3468:
	.section	.text._ZN4asio6detail13epoll_reactorD0Ev,"axG",@progbits,_ZN4asio6detail13epoll_reactorD5Ev,comdat
	.size	_ZN4asio6detail13epoll_reactorD0Ev, .-_ZN4asio6detail13epoll_reactorD0Ev
	.section	.text._ZNK4asio6detail11timer_queueINS0_18chrono_time_traitsINSt6chrono3_V212steady_clockENS_11wait_traitsIS5_EEEEE18wait_duration_msecEl,"axG",@progbits,_ZNK4asio6detail11timer_queueINS0_18chrono_time_traitsINSt6chrono3_V212steady_clockENS_11wait_traitsIS5_EEEEE18wait_duration_msecEl,comdat
	.align 2
	.p2align 4
	.weak	_ZNK4asio6detail11timer_queueINS0_18chrono_time_traitsINSt6chrono3_V212steady_clockENS_11wait_traitsIS5_EEEEE18wait_duration_msecEl
	.type	_ZNK4asio6detail11timer_queueINS0_18chrono_time_traitsINSt6chrono3_V212steady_clockENS_11wait_traitsIS5_EEEEE18wait_duration_msecEl, @function
_ZNK4asio6detail11timer_queueINS0_18chrono_time_traitsINSt6chrono3_V212steady_clockENS_11wait_traitsIS5_EEEEE18wait_duration_msecEl:
.LFB9659:
	.cfi_startproc
	endbr64
	movq	32(%rdi), %rax
	cmpq	%rax, 24(%rdi)
	je	.L254
	pushq	%rbp
	.cfi_def_cfa_offset 16
	.cfi_offset 6, -16
	movq	%rsi, %rbp
	pushq	%rbx
	.cfi_def_cfa_offset 24
	.cfi_offset 3, -24
	movq	%rdi, %rbx
	subq	$8, %rsp
	.cfi_def_cfa_offset 32
	call	_ZNSt6chrono3_V212steady_clock3nowEv@PLT
	movq	24(%rbx), %rdx
	movq	(%rdx), %rdx
	testq	%rdx, %rdx
	js	.L240
	testq	%rax, %rax
	js	.L241
.L257:
	movq	%rdx, %rcx
	subq	%rax, %rcx
	testq	%rcx, %rcx
	jle	.L250
	movabsq	$4835703278458516699, %rdx
	movq	%rcx, %rax
	sarq	$63, %rcx
	imulq	%rdx
	sarq	$18, %rdx
	subq	%rcx, %rdx
.L244:
	movl	$1, %r8d
	testq	%rdx, %rdx
	je	.L238
.L243:
	cmpq	%rdx, %rbp
	cmovle	%rbp, %rdx
	movq	%rdx, %r8
.L238:
	addq	$8, %rsp
	.cfi_remember_state
	.cfi_def_cfa_offset 24
	movq	%r8, %rax
	popq	%rbx
	.cfi_def_cfa_offset 16
	popq	%rbp
	.cfi_def_cfa_offset 8
	ret
	.p2align 4,,10
	.p2align 3
.L240:
	.cfi_restore_state
	xorl	%r8d, %r8d
	testq	%rax, %rax
	js	.L257
	addq	$8, %rsp
	.cfi_def_cfa_offset 24
	movq	%r8, %rax
	popq	%rbx
	.cfi_def_cfa_offset 16
	popq	%rbp
	.cfi_def_cfa_offset 8
	ret
	.p2align 4,,10
	.p2align 3
.L254:
	.cfi_restore 3
	.cfi_restore 6
	movq	%rsi, %rax
	ret
	.p2align 4,,10
	.p2align 3
.L241:
	.cfi_def_cfa_offset 32
	.cfi_offset 3, -24
	.cfi_offset 6, -16
	movabsq	$-9223372036854775808, %rcx
	cmpq	%rcx, %rax
	je	.L248
	movq	%rax, %rsi
	subq	$1, %rcx
	negq	%rsi
	subq	%rdx, %rcx
	cmpq	%rcx, %rsi
	jg	.L248
	movabsq	$4835703278458516699, %rcx
	subq	%rax, %rdx
	movq	%rdx, %rax
	mulq	%rcx
	shrq	$18, %rdx
	jmp	.L244
	.p2align 4,,10
	.p2align 3
.L248:
	movabsq	$9223372036854, %rdx
	jmp	.L243
	.p2align 4,,10
	.p2align 3
.L250:
	xorl	%r8d, %r8d
	jmp	.L238
	.cfi_endproc
.LFE9659:
	.size	_ZNK4asio6detail11timer_queueINS0_18chrono_time_traitsINSt6chrono3_V212steady_clockENS_11wait_traitsIS5_EEEEE18wait_duration_msecEl, .-_ZNK4asio6detail11timer_queueINS0_18chrono_time_traitsINSt6chrono3_V212steady_clockENS_11wait_traitsIS5_EEEEE18wait_duration_msecEl
	.section	.text._ZN4asio6detail13epoll_reactor16shutdown_serviceEv,"axG",@progbits,_ZN4asio6detail13epoll_reactor16shutdown_serviceEv,comdat
	.align 2
	.p2align 4
	.weak	_ZN4asio6detail13epoll_reactor16shutdown_serviceEv
	.type	_ZN4asio6detail13epoll_reactor16shutdown_serviceEv, @function
_ZN4asio6detail13epoll_reactor16shutdown_serviceEv:
.LFB3469:
	.cfi_startproc
	.cfi_personality 0x9b,DW.ref.__gxx_personality_v0
	.cfi_lsda 0x1b,.LLSDA3469
	endbr64
	pushq	%r13
	.cfi_def_cfa_offset 16
	.cfi_offset 13, -16
	pushq	%r12
	.cfi_def_cfa_offset 24
	.cfi_offset 12, -24
	pushq	%rbp
	.cfi_def_cfa_offset 32
	.cfi_offset 6, -32
	leaq	48(%rdi), %rbp
	pushq	%rbx
	.cfi_def_cfa_offset 40
	.cfi_offset 3, -40
	movq	%rdi, %rbx
	movq	%rbp, %rdi
	subq	$72, %rsp
	.cfi_def_cfa_offset 112
	movq	%fs:40, %rax
	movq	%rax, 56(%rsp)
	xorl	%eax, %eax
	call	pthread_mutex_lock@PLT
	movb	$1, 112(%rbx)
	movq	%rbp, %rdi
	call	pthread_mutex_unlock@PLT
	movq	160(%rbx), %rax
	pxor	%xmm0, %xmm0
	movaps	%xmm0, 16(%rsp)
	testq	%rax, %rax
	jne	.L260
	jmp	.L277
	.p2align 4,,10
	.p2align 3
.L264:
	movq	%rdx, (%rcx)
.L266:
	movq	104(%rax), %rdx
	movups	%xmm0, 96(%rax)
	movq	%rdx, 24(%rsp)
.L263:
	movq	112(%rax), %rdx
	testq	%rdx, %rdx
	je	.L267
	movq	24(%rsp), %rcx
	testq	%rcx, %rcx
	je	.L340
	movq	%rdx, (%rcx)
.L270:
	movq	120(%rax), %rdx
	movups	%xmm0, 112(%rax)
	movq	%rdx, 24(%rsp)
.L267:
	movq	128(%rax), %rdx
	testq	%rdx, %rdx
	je	.L271
	movq	24(%rsp), %rcx
	testq	%rcx, %rcx
	je	.L341
	movq	%rdx, (%rcx)
.L274:
	movq	136(%rax), %rdx
	movups	%xmm0, 128(%rax)
	movq	%rdx, 24(%rsp)
.L271:
	movq	24(%rax), %rdx
	movb	$1, 144(%rax)
	movq	%rdx, 160(%rbx)
	movq	32(%rax), %rdx
	testq	%rdx, %rdx
	je	.L275
	movq	24(%rax), %rcx
	movq	%rcx, 24(%rdx)
.L275:
	movq	24(%rax), %rdx
	testq	%rdx, %rdx
	je	.L276
	movq	32(%rax), %rcx
	movq	%rcx, 32(%rdx)
.L276:
	movq	168(%rbx), %rdx
	movq	$0, 32(%rax)
	movq	%rdx, 24(%rax)
	movq	%rax, 168(%rbx)
	movq	160(%rbx), %rax
	testq	%rax, %rax
	je	.L277
.L260:
	movq	96(%rax), %rdx
	testq	%rdx, %rdx
	je	.L263
	movq	24(%rsp), %rcx
	testq	%rcx, %rcx
	jne	.L264
	movq	%rdx, 16(%rsp)
	jmp	.L266
	.p2align 4,,10
	.p2align 3
.L340:
	movq	%rdx, 16(%rsp)
	jmp	.L270
	.p2align 4,,10
	.p2align 3
.L341:
	movq	%rdx, 16(%rsp)
	jmp	.L274
	.p2align 4,,10
	.p2align 3
.L277:
	movq	104(%rbx), %rbx
	testq	%rbx, %rbx
	je	.L262
	movq	_ZN4asio6detail11timer_queueINS0_18chrono_time_traitsINSt6chrono3_V212steady_clockENS_11wait_traitsIS5_EEEEE14get_all_timersERNS0_8op_queueINS0_25task_io_service_operationEEE@GOTPCREL(%rip), %rbp
	leaq	16(%rsp), %r12
	.p2align 4,,10
	.p2align 3
.L261:
	movq	(%rbx), %rax
	movq	48(%rax), %rax
	cmpq	%rbp, %rax
	jne	.L281
	movq	16(%rbx), %rax
	testq	%rax, %rax
	jne	.L282
	jmp	.L288
	.p2align 4,,10
	.p2align 3
.L342:
	movq	%rcx, (%rsi)
.L287:
	movq	8(%rdx), %rcx
	pxor	%xmm2, %xmm2
	movq	%rcx, 24(%rsp)
	movups	%xmm2, (%rdx)
.L285:
	pxor	%xmm1, %xmm1
	movups	%xmm1, 24(%rdx)
	testq	%rax, %rax
	je	.L288
.L282:
	movq	%rax, %rdx
	movq	24(%rax), %rax
	movq	(%rdx), %rcx
	movq	%rax, 16(%rbx)
	testq	%rcx, %rcx
	je	.L285
	movq	24(%rsp), %rsi
	testq	%rsi, %rsi
	jne	.L342
	movq	%rcx, 16(%rsp)
	jmp	.L287
	.p2align 4,,10
	.p2align 3
.L288:
	movq	24(%rbx), %rax
	cmpq	32(%rbx), %rax
	je	.L289
	movq	%rax, 32(%rbx)
.L289:
	movq	8(%rbx), %rbx
	testq	%rbx, %rbx
	jne	.L261
.L262:
	movq	16(%rsp), %rbx
	testq	%rbx, %rbx
	je	.L259
	pxor	%xmm0, %xmm0
	leaq	32(%rsp), %rbp
	movaps	%xmm0, 16(%rsp)
	call	_ZNSt3_V215system_categoryEv@PLT
	movq	%rax, %r12
	.p2align 4,,10
	.p2align 3
.L290:
	movq	%rbx, %rsi
	movq	(%rbx), %rbx
	xorl	%ecx, %ecx
	xorl	%edi, %edi
	movq	$0, (%rsi)
	movq	8(%rsi), %rax
	movq	%rbp, %rdx
	movl	$0, 32(%rsp)
	movq	%r12, 40(%rsp)
	call	*%rax
	testq	%rbx, %rbx
	jne	.L290
	movq	16(%rsp), %rsi
	testq	%rsi, %rsi
	movq	%rsi, 8(%rsp)
	je	.L259
	call	_ZNSt3_V215system_categoryEv@PLT
	movq	8(%rsp), %rsi
	movq	%rax, %rbx
	jmp	.L295
	.p2align 4,,10
	.p2align 3
.L292:
	movq	$0, (%rsi)
	movq	8(%rsi), %rax
	xorl	%ecx, %ecx
	movq	%rbp, %rdx
	movl	$0, 32(%rsp)
	xorl	%edi, %edi
	movq	%rbx, 40(%rsp)
	call	*%rax
	movq	16(%rsp), %rsi
	testq	%rsi, %rsi
	je	.L259
.L295:
	movq	(%rsi), %rax
	movq	%rax, 16(%rsp)
	testq	%rax, %rax
	jne	.L292
	movq	$0, 24(%rsp)
	jmp	.L292
	.p2align 4,,10
	.p2align 3
.L281:
	movq	%r12, %rsi
	movq	%rbx, %rdi
.LEHB0:
	call	*%rax
.LEHE0:
	jmp	.L289
	.p2align 4,,10
	.p2align 3
.L259:
	movq	56(%rsp), %rax
	subq	%fs:40, %rax
	jne	.L343
	addq	$72, %rsp
	.cfi_remember_state
	.cfi_def_cfa_offset 40
	popq	%rbx
	.cfi_def_cfa_offset 32
	popq	%rbp
	.cfi_def_cfa_offset 24
	popq	%r12
	.cfi_def_cfa_offset 16
	popq	%r13
	.cfi_def_cfa_offset 8
	ret
.L343:
	.cfi_restore_state
	call	__stack_chk_fail@PLT
.L300:
	endbr64
	movq	%rax, %r12
	leaq	32(%rsp), %rbx
.L296:
	movq	16(%rsp), %rbp
	testq	%rbp, %rbp
	jne	.L344
	movq	%r12, %rdi
.LEHB1:
	call	_Unwind_Resume@PLT
.LEHE1:
.L344:
	movq	0(%rbp), %rax
	movq	%rax, 16(%rsp)
	testq	%rax, %rax
	jne	.L298
	movq	$0, 24(%rsp)
.L298:
	movq	$0, 0(%rbp)
	movq	8(%rbp), %r13
	movl	$0, 32(%rsp)
	call	_ZNSt3_V215system_categoryEv@PLT
	xorl	%ecx, %ecx
	movq	%rbx, %rdx
	movq	%rbp, %rsi
	movq	%rax, 40(%rsp)
	xorl	%edi, %edi
	call	*%r13
	jmp	.L296
	.cfi_endproc
.LFE3469:
	.section	.gcc_except_table._ZN4asio6detail13epoll_reactor16shutdown_serviceEv,"aG",@progbits,_ZN4asio6detail13epoll_reactor16shutdown_serviceEv,comdat
.LLSDA3469:
	.byte	0xff
	.byte	0xff
	.byte	0x1
	.uleb128 .LLSDACSE3469-.LLSDACSB3469
.LLSDACSB3469:
	.uleb128 .LEHB0-.LFB3469
	.uleb128 .LEHE0-.LEHB0
	.uleb128 .L300-.LFB3469
	.uleb128 0
	.uleb128 .LEHB1-.LFB3469
	.uleb128 .LEHE1-.LEHB1
	.uleb128 0
	.uleb128 0
.LLSDACSE3469:
	.section	.text._ZN4asio6detail13epoll_reactor16shutdown_serviceEv,"axG",@progbits,_ZN4asio6detail13epoll_reactor16shutdown_serviceEv,comdat
	.size	_ZN4asio6detail13epoll_reactor16shutdown_serviceEv, .-_ZN4asio6detail13epoll_reactor16shutdown_serviceEv
	.section	.text._ZN4asio6detail11timer_queueINS0_18chrono_time_traitsINSt6chrono3_V212steady_clockENS_11wait_traitsIS5_EEEEE16get_ready_timersERNS0_8op_queueINS0_25task_io_service_operationEEE,"axG",@progbits,_ZN4asio6detail11timer_queueINS0_18chrono_time_traitsINSt6chrono3_V212steady_clockENS_11wait_traitsIS5_EEEEE16get_ready_timersERNS0_8op_queueINS0_25task_io_service_operationEEE,comdat
	.align 2
	.p2align 4
	.weak	_ZN4asio6detail11timer_queueINS0_18chrono_time_traitsINSt6chrono3_V212steady_clockENS_11wait_traitsIS5_EEEEE16get_ready_timersERNS0_8op_queueINS0_25task_io_service_operationEEE
	.type	_ZN4asio6detail11timer_queueINS0_18chrono_time_traitsINSt6chrono3_V212steady_clockENS_11wait_traitsIS5_EEEEE16get_ready_timersERNS0_8op_queueINS0_25task_io_service_operationEEE, @function
_ZN4asio6detail11timer_queueINS0_18chrono_time_traitsINSt6chrono3_V212steady_clockENS_11wait_traitsIS5_EEEEE16get_ready_timersERNS0_8op_queueINS0_25task_io_service_operationEEE:
.LFB9661:
	.cfi_startproc
	endbr64
	movq	32(%rdi), %rax
	cmpq	%rax, 24(%rdi)
	je	.L376
	pushq	%r15
	.cfi_def_cfa_offset 16
	.cfi_offset 15, -16
	pushq	%r14
	.cfi_def_cfa_offset 24
	.cfi_offset 14, -24
	pushq	%r13
	.cfi_def_cfa_offset 32
	.cfi_offset 13, -32
	pushq	%r12
	.cfi_def_cfa_offset 40
	.cfi_offset 12, -40
	pushq	%rbp
	.cfi_def_cfa_offset 48
	.cfi_offset 6, -48
	movq	%rsi, %rbp
	pushq	%rbx
	.cfi_def_cfa_offset 56
	.cfi_offset 3, -56
	movq	%rdi, %rbx
	subq	$8, %rsp
	.cfi_def_cfa_offset 64
	call	_ZNSt6chrono3_V212steady_clock3nowEv@PLT
	movq	32(%rbx), %r10
	pxor	%xmm0, %xmm0
	movq	%rax, %r12
	movq	24(%rbx), %rax
	cmpq	%r10, %rax
	je	.L345
	.p2align 4,,10
	.p2align 3
.L347:
	cmpq	(%rax), %r12
	jl	.L345
	movq	8(%rax), %rcx
	movq	(%rcx), %rdx
	testq	%rdx, %rdx
	je	.L363
	movq	8(%rbp), %rsi
	testq	%rsi, %rsi
	je	.L348
	movq	%rdx, (%rsi)
.L349:
	movq	8(%rcx), %rdx
	movq	%rdx, 8(%rbp)
	movups	%xmm0, (%rcx)
.L363:
	movq	%r10, %r8
	movq	16(%rcx), %rsi
	subq	%rax, %r8
	movq	%r8, %rdx
	sarq	$4, %rdx
	cmpq	%rdx, %rsi
	jnb	.L380
	subq	$1, %rdx
	subq	$16, %r10
	cmpq	%rdx, %rsi
	je	.L381
	movq	%rsi, %rdi
	leaq	-16(%rax,%r8), %r8
	salq	$4, %rdi
	movdqu	(%r8), %xmm3
	addq	%rax, %rdi
	movq	(%rdi), %r11
	movq	8(%rdi), %r9
	movups	%xmm3, (%rdi)
	movq	%r11, (%r8)
	movq	%r9, 8(%r8)
	movq	8(%rdi), %r8
	movq	%rsi, 16(%r8)
	movq	%rdx, 16(%r9)
	movq	%r10, 32(%rbx)
	testq	%rsi, %rsi
	je	.L353
	leaq	-1(%rsi), %r8
	movq	(%rdi), %r11
	shrq	%r8
	movq	%r8, %rdx
	salq	$4, %rdx
	addq	%rax, %rdx
	cmpq	%r11, (%rdx)
	jg	.L354
.L353:
	movq	%r10, %r11
	leaq	1(%rsi,%rsi), %rdx
	subq	%rax, %r11
	sarq	$4, %r11
	cmpq	%r11, %rdx
	jnb	.L351
	movq	(%rdi), %r13
	jmp	.L356
	.p2align 4,,10
	.p2align 3
.L382:
	leaq	16(%rax,%r14), %r14
	movq	(%r14), %r15
	cmpq	%r9, %r15
	jg	.L365
	movq	%rsi, %rdx
	movq	%r15, %r9
	movq	%r14, %r8
	salq	$4, %rdx
	addq	%rax, %rdx
	cmpq	%r9, %r13
	jl	.L351
.L383:
	movq	8(%rdx), %r9
	movdqu	(%r8), %xmm1
	movups	%xmm1, (%rdx)
	movq	%r9, 8(%r8)
	movq	8(%rdx), %rdx
	movq	%r13, (%r8)
	movq	%rsi, 16(%rdx)
	leaq	1(%rdi,%rdi), %rdx
	movq	%rdi, 16(%r9)
	cmpq	%r11, %rdx
	jnb	.L351
	movq	%rdi, %rsi
.L356:
	movq	%rdx, %r14
	leaq	1(%rdx), %rdi
	salq	$4, %r14
	leaq	(%rax,%r14), %r8
	movq	(%r8), %r9
	cmpq	%r11, %rdi
	jne	.L382
.L365:
	movq	%rdx, %rdi
	movq	%rsi, %rdx
	salq	$4, %rdx
	addq	%rax, %rdx
	cmpq	%r9, %r13
	jge	.L383
	.p2align 4,,10
	.p2align 3
.L351:
	movq	24(%rcx), %rdx
	cmpq	16(%rbx), %rcx
	je	.L384
.L358:
	movq	32(%rcx), %rsi
	testq	%rsi, %rsi
	je	.L359
	movq	%rdx, 24(%rsi)
	movq	24(%rcx), %rdx
.L359:
	testq	%rdx, %rdx
	je	.L360
	movq	%rsi, 32(%rdx)
	movups	%xmm0, 24(%rcx)
	cmpq	%r10, %rax
	jne	.L347
.L345:
	addq	$8, %rsp
	.cfi_remember_state
	.cfi_def_cfa_offset 56
	popq	%rbx
	.cfi_def_cfa_offset 48
	popq	%rbp
	.cfi_def_cfa_offset 40
	popq	%r12
	.cfi_def_cfa_offset 32
	popq	%r13
	.cfi_def_cfa_offset 24
	popq	%r14
	.cfi_def_cfa_offset 16
	popq	%r15
	.cfi_def_cfa_offset 8
	ret
	.p2align 4,,10
	.p2align 3
.L385:
	.cfi_restore_state
	movq	%r9, %r8
.L354:
	movq	8(%rdi), %r9
	movdqu	(%rdx), %xmm2
	movups	%xmm2, (%rdi)
	movq	%r11, (%rdx)
	movq	%r9, 8(%rdx)
	movq	8(%rdi), %rdx
	movq	%rsi, 16(%rdx)
	movq	%r8, 16(%r9)
	testq	%r8, %r8
	je	.L351
	leaq	-1(%r8), %r9
	movq	%r8, %rdi
	movq	%r8, %rsi
	shrq	%r9
	salq	$4, %rdi
	movq	%r9, %rdx
	addq	%rax, %rdi
	salq	$4, %rdx
	movq	(%rdi), %r11
	addq	%rax, %rdx
	cmpq	%r11, (%rdx)
	jg	.L385
	movq	24(%rcx), %rdx
	cmpq	16(%rbx), %rcx
	jne	.L358
	.p2align 4,,10
	.p2align 3
.L384:
	movq	%rdx, 16(%rbx)
	jmp	.L358
	.p2align 4,,10
	.p2align 3
.L380:
	movq	32(%rbx), %r10
	jmp	.L351
	.p2align 4,,10
	.p2align 3
.L360:
	movups	%xmm0, 24(%rcx)
	cmpq	%r10, %rax
	jne	.L347
	jmp	.L345
	.p2align 4,,10
	.p2align 3
.L348:
	movq	%rdx, 0(%rbp)
	jmp	.L349
	.p2align 4,,10
	.p2align 3
.L381:
	movq	%r10, 32(%rbx)
	jmp	.L351
	.p2align 4,,10
	.p2align 3
.L376:
	.cfi_def_cfa_offset 8
	.cfi_restore 3
	.cfi_restore 6
	.cfi_restore 12
	.cfi_restore 13
	.cfi_restore 14
	.cfi_restore 15
	ret
	.cfi_endproc
.LFE9661:
	.size	_ZN4asio6detail11timer_queueINS0_18chrono_time_traitsINSt6chrono3_V212steady_clockENS_11wait_traitsIS5_EEEEE16get_ready_timersERNS0_8op_queueINS0_25task_io_service_operationEEE, .-_ZN4asio6detail11timer_queueINS0_18chrono_time_traitsINSt6chrono3_V212steady_clockENS_11wait_traitsIS5_EEEEE16get_ready_timersERNS0_8op_queueINS0_25task_io_service_operationEEE
	.section	.rodata._ZNK4asio6detail15system_category7messageB5cxx11Ei.str1.8,"aMS",@progbits,1
	.align 8
.LC4:
	.string	"basic_string::_M_construct null not valid"
	.section	.text._ZNK4asio6detail15system_category7messageB5cxx11Ei,"axG",@progbits,_ZNK4asio6detail15system_category7messageB5cxx11Ei,comdat
	.align 2
	.p2align 4
	.weak	_ZNK4asio6detail15system_category7messageB5cxx11Ei
	.type	_ZNK4asio6detail15system_category7messageB5cxx11Ei, @function
_ZNK4asio6detail15system_category7messageB5cxx11Ei:
.LFB2745:
	.cfi_startproc
	endbr64
	pushq	%r14
	.cfi_def_cfa_offset 16
	.cfi_offset 14, -16
	pushq	%r13
	.cfi_def_cfa_offset 24
	.cfi_offset 13, -24
	pushq	%r12
	.cfi_def_cfa_offset 32
	.cfi_offset 12, -32
	movq	%rdi, %r12
	pushq	%rbp
	.cfi_def_cfa_offset 40
	.cfi_offset 6, -40
	leaq	16(%rdi), %rbp
	subq	$296, %rsp
	.cfi_def_cfa_offset 336
	movq	%fs:40, %rax
	movq	%rax, 280(%rsp)
	xorl	%eax, %eax
	cmpl	$125, %edx
	je	.L401
	pxor	%xmm0, %xmm0
	movl	%edx, %edi
	leaq	16(%rsp), %rsi
	movl	$256, %edx
	movaps	%xmm0, 16(%rsp)
	movaps	%xmm0, 32(%rsp)
	movaps	%xmm0, 48(%rsp)
	movaps	%xmm0, 64(%rsp)
	movaps	%xmm0, 80(%rsp)
	movaps	%xmm0, 96(%rsp)
	movaps	%xmm0, 112(%rsp)
	movaps	%xmm0, 128(%rsp)
	movaps	%xmm0, 144(%rsp)
	movaps	%xmm0, 160(%rsp)
	movaps	%xmm0, 176(%rsp)
	movaps	%xmm0, 192(%rsp)
	movaps	%xmm0, 208(%rsp)
	movaps	%xmm0, 224(%rsp)
	movaps	%xmm0, 240(%rsp)
	movaps	%xmm0, 256(%rsp)
	call	strerror_r@PLT
	movq	%rbp, (%r12)
	movq	%rax, %r13
	testq	%rax, %rax
	je	.L389
	movq	%rax, %rdi
	call	strlen@PLT
	movq	%rax, 8(%rsp)
	movq	%rax, %r14
	cmpq	$15, %rax
	ja	.L402
	cmpq	$1, %rax
	jne	.L393
	movzbl	0(%r13), %edx
	movb	%dl, 16(%r12)
.L394:
	movq	%rax, 8(%r12)
	movb	$0, 0(%rbp,%rax)
.L386:
	movq	280(%rsp), %rax
	subq	%fs:40, %rax
	jne	.L403
	addq	$296, %rsp
	.cfi_remember_state
	.cfi_def_cfa_offset 40
	movq	%r12, %rax
	popq	%rbp
	.cfi_def_cfa_offset 32
	popq	%r12
	.cfi_def_cfa_offset 24
	popq	%r13
	.cfi_def_cfa_offset 16
	popq	%r14
	.cfi_def_cfa_offset 8
	ret
	.p2align 4,,10
	.p2align 3
.L402:
	.cfi_restore_state
	leaq	8(%rsp), %rsi
	xorl	%edx, %edx
	movq	%r12, %rdi
	call	_ZNSt7__cxx1112basic_stringIcSt11char_traitsIcESaIcEE9_M_createERmm@PLT
	movq	%rax, (%r12)
	movq	%rax, %rbp
	movq	8(%rsp), %rax
	movq	%rax, 16(%r12)
.L392:
	movq	%rbp, %rdi
	movq	%r14, %rdx
	movq	%r13, %rsi
	call	memcpy@PLT
	movq	8(%rsp), %rax
	movq	(%r12), %rbp
	jmp	.L394
	.p2align 4,,10
	.p2align 3
.L401:
	movq	%rbp, (%rdi)
	xorl	%edx, %edx
	leaq	8(%rsp), %rsi
	movq	$18, 8(%rsp)
	call	_ZNSt7__cxx1112basic_stringIcSt11char_traitsIcESaIcEE9_M_createERmm@PLT
	movq	8(%rsp), %rdx
	movdqa	.LC5(%rip), %xmm0
	movq	%rax, (%r12)
	movq	%rdx, 16(%r12)
	movl	$11876, %edx
	movw	%dx, 16(%rax)
	movups	%xmm0, (%rax)
	movq	8(%rsp), %rax
	movq	(%r12), %rdx
	movq	%rax, 8(%r12)
	movb	$0, (%rdx,%rax)
	jmp	.L386
	.p2align 4,,10
	.p2align 3
.L393:
	testq	%rax, %rax
	je	.L394
	jmp	.L392
.L389:
	leaq	.LC4(%rip), %rdi
	call	_ZSt19__throw_logic_errorPKc@PLT
.L403:
	call	__stack_chk_fail@PLT
	.cfi_endproc
.LFE2745:
	.size	_ZNK4asio6detail15system_category7messageB5cxx11Ei, .-_ZNK4asio6detail15system_category7messageB5cxx11Ei
	.section	.text._ZNK4asio5error6detail17addrinfo_category7messageB5cxx11Ei,"axG",@progbits,_ZNK4asio5error6detail17addrinfo_category7messageB5cxx11Ei,comdat
	.align 2
	.p2align 4
	.weak	_ZNK4asio5error6detail17addrinfo_category7messageB5cxx11Ei
	.type	_ZNK4asio5error6detail17addrinfo_category7messageB5cxx11Ei, @function
_ZNK4asio5error6detail17addrinfo_category7messageB5cxx11Ei:
.LFB2791:
	.cfi_startproc
	endbr64
	pushq	%r12
	.cfi_def_cfa_offset 16
	.cfi_offset 12, -16
	movq	%rdi, %r12
	subq	$16, %rsp
	.cfi_def_cfa_offset 32
	movq	%fs:40, %rax
	movq	%rax, 8(%rsp)
	xorl	%eax, %eax
	leaq	16(%rdi), %rax
	movq	%rax, (%rdi)
	cmpl	$-8, %edx
	je	.L410
	cmpl	$-7, %edx
	je	.L411
	xorl	%edx, %edx
	movq	%rsp, %rsi
	movq	$19, (%rsp)
	call	_ZNSt7__cxx1112basic_stringIcSt11char_traitsIcESaIcEE9_M_createERmm@PLT
	movq	(%rsp), %rdx
	movdqa	.LC8(%rip), %xmm0
	movq	%rax, (%r12)
	movq	%rdx, 16(%r12)
	movl	$28530, %edx
	movw	%dx, 16(%rax)
	movb	$114, 18(%rax)
	movups	%xmm0, (%rax)
	movq	(%rsp), %rax
	movq	(%r12), %rdx
	movq	%rax, 8(%r12)
	movb	$0, (%rdx,%rax)
.L404:
	movq	8(%rsp), %rax
	subq	%fs:40, %rax
	jne	.L412
	addq	$16, %rsp
	.cfi_remember_state
	.cfi_def_cfa_offset 16
	movq	%r12, %rax
	popq	%r12
	.cfi_def_cfa_offset 8
	ret
	.p2align 4,,10
	.p2align 3
.L411:
	.cfi_restore_state
	xorl	%edx, %edx
	movq	%rsp, %rsi
	movq	$25, (%rsp)
	call	_ZNSt7__cxx1112basic_stringIcSt11char_traitsIcESaIcEE9_M_createERmm@PLT
	movq	(%rsp), %rdx
	movdqa	.LC7(%rip), %xmm0
	movabsq	$7310593918082512243, %rcx
	movq	%rax, (%r12)
	movq	%rdx, 16(%r12)
	movq	%rcx, 16(%rax)
	movb	$100, 24(%rax)
	movups	%xmm0, (%rax)
	movq	(%rsp), %rax
	movq	(%r12), %rdx
	movq	%rax, 8(%r12)
	movb	$0, (%rdx,%rax)
	jmp	.L404
	.p2align 4,,10
	.p2align 3
.L410:
	xorl	%edx, %edx
	movq	%rsp, %rsi
	movq	$17, (%rsp)
	call	_ZNSt7__cxx1112basic_stringIcSt11char_traitsIcESaIcEE9_M_createERmm@PLT
	movq	(%rsp), %rdx
	movdqa	.LC6(%rip), %xmm0
	movq	%rax, (%r12)
	movq	%rdx, 16(%r12)
	movb	$100, 16(%rax)
	movups	%xmm0, (%rax)
	movq	(%rsp), %rax
	movq	(%r12), %rdx
	movq	%rax, 8(%r12)
	movb	$0, (%rdx,%rax)
	jmp	.L404
.L412:
	call	__stack_chk_fail@PLT
	.cfi_endproc
.LFE2791:
	.size	_ZNK4asio5error6detail17addrinfo_category7messageB5cxx11Ei, .-_ZNK4asio5error6detail17addrinfo_category7messageB5cxx11Ei
	.text
	.align 2
	.p2align 4
	.type	_ZN4asio6detail13epoll_reactor12cancel_timerINS0_18chrono_time_traitsINSt6chrono3_V212steady_clockENS_11wait_traitsIS6_EEEEEEmRNS0_11timer_queueIT_EERNSC_14per_timer_dataEm.constprop.0.isra.0, @function
_ZN4asio6detail13epoll_reactor12cancel_timerINS0_18chrono_time_traitsINSt6chrono3_V212steady_clockENS_11wait_traitsIS6_EEEEEEmRNS0_11timer_queueIT_EERNSC_14per_timer_dataEm.constprop.0.isra.0:
.LFB9770:
	.cfi_startproc
	pushq	%r15
	.cfi_def_cfa_offset 16
	.cfi_offset 15, -16
	pushq	%r14
	.cfi_def_cfa_offset 24
	.cfi_offset 14, -24
	leaq	48(%rdi), %r14
	pushq	%r13
	.cfi_def_cfa_offset 32
	.cfi_offset 13, -32
	pushq	%r12
	.cfi_def_cfa_offset 40
	.cfi_offset 12, -40
	pushq	%rbp
	.cfi_def_cfa_offset 48
	.cfi_offset 6, -48
	pushq	%rbx
	.cfi_def_cfa_offset 56
	.cfi_offset 3, -56
	movq	%rdx, %rbx
	subq	$72, %rsp
	.cfi_def_cfa_offset 128
	movq	%rdi, 8(%rsp)
	movq	%r14, %rdi
	movq	%rsi, 16(%rsp)
	movq	%fs:40, %rax
	movq	%rax, 56(%rsp)
	xorl	%eax, %eax
	call	pthread_mutex_lock@PLT
	cmpq	$0, 32(%rbx)
	je	.L493
.L414:
	movq	(%rbx), %r13
	movq	$-1, %r12
	xorl	%r15d, %r15d
	movq	%rbx, %rbp
	movq	$0, (%rsp)
	jmp	.L423
	.p2align 4,,10
	.p2align 3
.L490:
	movq	_ZZN4asio15system_categoryEvE8instance@GOTPCREL(%rip), %rcx
.L418:
	movq	0(%rbp), %rdx
	movl	$125, 24(%r13)
	xorl	%eax, %eax
	movq	%rcx, 32(%r13)
	testq	%rdx, %rdx
	je	.L420
	movq	(%rdx), %rax
	movq	%rax, 0(%rbp)
	testq	%rax, %rax
	je	.L494
.L421:
	movq	$0, (%rdx)
.L420:
	movq	$0, 0(%r13)
	testq	%r15, %r15
	je	.L453
	movq	%r13, (%r15)
	movq	%r13, %r15
	subq	$1, %r12
	je	.L495
.L454:
	movq	%rax, %r13
.L423:
	testq	%r13, %r13
	je	.L485
	movq	_ZGVZN4asio15system_categoryEvE8instance@GOTPCREL(%rip), %rbx
	movzbl	(%rbx), %eax
	testb	%al, %al
	jne	.L490
	movq	%rbx, %rdi
	call	__cxa_guard_acquire@PLT
	testl	%eax, %eax
	je	.L490
	movq	_ZZN4asio15system_categoryEvE8instance@GOTPCREL(%rip), %rcx
	movq	_ZN4asio6detail15system_categoryD1Ev@GOTPCREL(%rip), %rdi
	leaq	__dso_handle(%rip), %rdx
	movq	%rcx, %rsi
	movq	%rcx, 24(%rsp)
	call	__cxa_atexit@PLT
	movq	%rbx, %rdi
	call	__cxa_guard_release@PLT
	movq	24(%rsp), %rcx
	jmp	.L418
	.p2align 4,,10
	.p2align 3
.L453:
	movq	%r13, (%rsp)
	movq	%r13, %r15
	subq	$1, %r12
	jne	.L454
.L495:
	movq	%rbp, %rbx
	testq	%rax, %rax
	je	.L416
.L424:
	movq	%r14, %rdi
	call	pthread_mutex_unlock@PLT
	movq	8(%rsp), %rax
	cmpq	$0, (%rsp)
	movq	40(%rax), %rbx
	je	.L413
	cmpb	$0, 40(%rbx)
	je	.L438
	data16	leaq	_ZN4asio6detail15keyword_tss_ptrINS0_10call_stackINS0_15task_io_serviceENS0_27task_io_service_thread_infoEE7contextEE6value_E@tlsgd(%rip), %rdi
	.value	0x6666
	rex64
	call	__tls_get_addr@PLT
	movq	(%rax), %rax
	testq	%rax, %rax
	jne	.L441
	jmp	.L438
	.p2align 4,,10
	.p2align 3
.L439:
	movq	16(%rax), %rax
	testq	%rax, %rax
	je	.L438
.L441:
	cmpq	(%rax), %rbx
	jne	.L439
	movq	8(%rax), %rax
	testq	%rax, %rax
	je	.L438
	movq	16(%rax), %rdx
	movq	(%rsp), %rsi
	testq	%rdx, %rdx
	je	.L442
	movq	%rsi, (%rdx)
.L443:
	movq	%r13, 16(%rax)
.L413:
	movq	56(%rsp), %rax
	subq	%fs:40, %rax
	jne	.L492
	addq	$72, %rsp
	.cfi_remember_state
	.cfi_def_cfa_offset 56
	popq	%rbx
	.cfi_def_cfa_offset 48
	popq	%rbp
	.cfi_def_cfa_offset 40
	popq	%r12
	.cfi_def_cfa_offset 32
	popq	%r13
	.cfi_def_cfa_offset 24
	popq	%r14
	.cfi_def_cfa_offset 16
	popq	%r15
	.cfi_def_cfa_offset 8
	ret
	.p2align 4,,10
	.p2align 3
.L494:
	.cfi_restore_state
	movq	$0, 8(%rbp)
	jmp	.L421
	.p2align 4,,10
	.p2align 3
.L438:
	leaq	48(%rbx), %rbp
	movq	%rbp, %rdi
	call	pthread_mutex_lock@PLT
	movq	200(%rbx), %rax
	testq	%rax, %rax
	je	.L444
	movq	(%rsp), %rsi
	movq	%rsi, (%rax)
.L445:
	movq	136(%rbx), %rax
	movq	%r13, 200(%rbx)
	orq	$1, %rax
	movq	%rax, 136(%rbx)
	cmpq	$1, %rax
	je	.L446
	movq	%rbp, %rdi
	call	pthread_mutex_unlock@PLT
	movq	56(%rsp), %rax
	subq	%fs:40, %rax
	jne	.L492
	addq	$72, %rsp
	.cfi_remember_state
	.cfi_def_cfa_offset 56
	leaq	88(%rbx), %rdi
	popq	%rbx
	.cfi_def_cfa_offset 48
	popq	%rbp
	.cfi_def_cfa_offset 40
	popq	%r12
	.cfi_def_cfa_offset 32
	popq	%r13
	.cfi_def_cfa_offset 24
	popq	%r14
	.cfi_def_cfa_offset 16
	popq	%r15
	.cfi_def_cfa_offset 8
	jmp	pthread_cond_signal@PLT
	.p2align 4,,10
	.p2align 3
.L485:
	.cfi_restore_state
	movq	%rbp, %rbx
.L416:
	movq	16(%rsp), %rcx
	movq	16(%rbx), %rsi
	movq	32(%rcx), %rax
	movq	24(%rcx), %rdx
	cmpq	%rdx, %rax
	je	.L426
	movq	%rax, %r9
	subq	%rdx, %r9
	movq	%r9, %rdi
	sarq	$4, %rdi
	cmpq	%rdi, %rsi
	jnb	.L426
	subq	$1, %rdi
	leaq	-16(%rax), %r10
	cmpq	%rdi, %rsi
	je	.L496
	movq	%rsi, %rax
	leaq	-16(%rdx,%r9), %r9
	salq	$4, %rax
	movdqu	(%r9), %xmm3
	addq	%rdx, %rax
	movq	(%rax), %rbp
	movq	8(%rax), %r11
	movups	%xmm3, (%rax)
	movq	%rbp, (%r9)
	movq	%r11, 8(%r9)
	movq	8(%rax), %r9
	movq	%rsi, 16(%r9)
	movq	%rdi, 16(%r11)
	movq	%r10, 32(%rcx)
	testq	%rsi, %rsi
	je	.L429
	leaq	-1(%rsi), %r9
	movq	(%rax), %r11
	shrq	%r9
	movq	%r9, %rdi
	salq	$4, %rdi
	addq	%rdx, %rdi
	cmpq	%r11, (%rdi)
	jg	.L430
.L429:
	subq	%rdx, %r10
	leaq	1(%rsi,%rsi), %r9
	movq	%r10, %rcx
	sarq	$4, %rcx
	cmpq	%rcx, %r9
	jnb	.L426
	movq	(%rax), %r11
	jmp	.L432
	.p2align 4,,10
	.p2align 3
.L497:
	leaq	16(%rdx,%rax), %rax
	movq	(%rax), %rbp
	cmpq	%r10, %rbp
	jg	.L456
	movq	%rbp, %r10
	movq	%rax, %r8
.L431:
	movq	%rsi, %rax
	salq	$4, %rax
	addq	%rdx, %rax
	cmpq	%r10, %r11
	jl	.L426
	movq	8(%rax), %r9
	movdqu	(%r8), %xmm1
	movups	%xmm1, (%rax)
	movq	%r9, 8(%r8)
	movq	8(%rax), %rax
	movq	%r11, (%r8)
	movq	%rsi, 16(%rax)
	movq	%rdi, 16(%r9)
	leaq	1(%rdi,%rdi), %r9
	cmpq	%rcx, %r9
	jnb	.L426
	movq	%rdi, %rsi
.L432:
	movq	%r9, %rax
	leaq	1(%r9), %rdi
	salq	$4, %rax
	leaq	(%rdx,%rax), %r8
	movq	(%r8), %r10
	cmpq	%rcx, %rdi
	jne	.L497
.L456:
	movq	%r9, %rdi
	jmp	.L431
	.p2align 4,,10
	.p2align 3
.L446:
	cmpb	$0, 176(%rbx)
	je	.L498
.L448:
	movq	56(%rsp), %rax
	subq	%fs:40, %rax
	jne	.L492
	movq	%rbp, %rdi
.L491:
	addq	$72, %rsp
	.cfi_remember_state
	.cfi_def_cfa_offset 56
	popq	%rbx
	.cfi_def_cfa_offset 48
	popq	%rbp
	.cfi_def_cfa_offset 40
	popq	%r12
	.cfi_def_cfa_offset 32
	popq	%r13
	.cfi_def_cfa_offset 24
	popq	%r14
	.cfi_def_cfa_offset 16
	popq	%r15
	.cfi_def_cfa_offset 8
	jmp	pthread_mutex_unlock@PLT
	.p2align 4,,10
	.p2align 3
.L493:
	.cfi_restore_state
	movq	16(%rsp), %rax
	cmpq	16(%rax), %rbx
	je	.L414
	movq	56(%rsp), %rax
	subq	%fs:40, %rax
	jne	.L492
	movq	%r14, %rdi
	jmp	.L491
	.p2align 4,,10
	.p2align 3
.L498:
	movq	144(%rbx), %rax
	testq	%rax, %rax
	je	.L448
	leaq	88(%rax), %rdx
	movb	$1, 176(%rbx)
	movl	96(%rax), %edi
	leaq	44(%rsp), %rcx
	movq	%rdx, 48(%rsp)
	movl	88(%rax), %edx
	movl	$3, %esi
	movl	$-2147483639, 44(%rsp)
	call	epoll_ctl@PLT
	jmp	.L448
.L442:
	movq	%rsi, 8(%rax)
	jmp	.L443
.L496:
	movq	%r10, 32(%rcx)
	.p2align 4,,10
	.p2align 3
.L426:
	movq	16(%rsp), %rsi
	movq	24(%rbx), %rax
	cmpq	16(%rsi), %rbx
	je	.L499
.L434:
	movq	32(%rbx), %rdx
	testq	%rdx, %rdx
	je	.L435
	movq	%rax, 24(%rdx)
	movq	24(%rbx), %rax
.L435:
	testq	%rax, %rax
	je	.L436
	movq	%rdx, 32(%rax)
.L436:
	pxor	%xmm0, %xmm0
	movq	%r15, %r13
	movups	%xmm0, 24(%rbx)
	jmp	.L424
	.p2align 4,,10
	.p2align 3
.L444:
	movq	(%rsp), %rax
	movq	%rax, 192(%rbx)
	jmp	.L445
.L500:
	movq	%rcx, %r9
.L430:
	movq	8(%rax), %rcx
	movdqu	(%rdi), %xmm2
	movups	%xmm2, (%rax)
	movq	%rcx, 8(%rdi)
	movq	8(%rax), %rax
	movq	%r11, (%rdi)
	movq	%rsi, 16(%rax)
	movq	%r9, 16(%rcx)
	testq	%r9, %r9
	je	.L426
	leaq	-1(%r9), %rcx
	movq	%r9, %rax
	movq	%r9, %rsi
	shrq	%rcx
	salq	$4, %rax
	movq	%rcx, %rdi
	addq	%rdx, %rax
	salq	$4, %rdi
	movq	(%rax), %r11
	addq	%rdx, %rdi
	cmpq	%r11, (%rdi)
	jg	.L500
	jmp	.L426
	.p2align 4,,10
	.p2align 3
.L499:
	movq	%rax, 16(%rsi)
	jmp	.L434
.L492:
	call	__stack_chk_fail@PLT
	.cfi_endproc
.LFE9770:
	.size	_ZN4asio6detail13epoll_reactor12cancel_timerINS0_18chrono_time_traitsINSt6chrono3_V212steady_clockENS_11wait_traitsIS6_EEEEEEmRNS0_11timer_queueIT_EERNSC_14per_timer_dataEm.constprop.0.isra.0, .-_ZN4asio6detail13epoll_reactor12cancel_timerINS0_18chrono_time_traitsINSt6chrono3_V212steady_clockENS_11wait_traitsIS6_EEEEEEmRNS0_11timer_queueIT_EERNSC_14per_timer_dataEm.constprop.0.isra.0
	.section	.text._ZNK4asio5error6detail13misc_category7messageB5cxx11Ei,"axG",@progbits,_ZNK4asio5error6detail13misc_category7messageB5cxx11Ei,comdat
	.align 2
	.p2align 4
	.weak	_ZNK4asio5error6detail13misc_category7messageB5cxx11Ei
	.type	_ZNK4asio5error6detail13misc_category7messageB5cxx11Ei, @function
_ZNK4asio5error6detail13misc_category7messageB5cxx11Ei:
.LFB2797:
	.cfi_startproc
	endbr64
	pushq	%r12
	.cfi_def_cfa_offset 16
	.cfi_offset 12, -16
	movq	%rdi, %r12
	subq	$16, %rsp
	.cfi_def_cfa_offset 32
	movq	%fs:40, %rax
	movq	%rax, 8(%rsp)
	xorl	%eax, %eax
	leaq	16(%rdi), %rax
	movq	%rax, (%rdi)
	cmpl	$1, %edx
	je	.L509
	cmpl	$2, %edx
	je	.L510
	cmpl	$3, %edx
	je	.L511
	cmpl	$4, %edx
	je	.L512
	movabsq	$8316298233121436513, %rcx
	movl	$28530, %edx
	movq	%rcx, 16(%rdi)
	movl	$1919230051, 8(%rax)
	movw	%dx, 12(%rax)
	movb	$114, 14(%rax)
	movq	$15, 8(%rdi)
	movb	$0, 31(%rdi)
.L501:
	movq	8(%rsp), %rax
	subq	%fs:40, %rax
	jne	.L513
	addq	$16, %rsp
	.cfi_remember_state
	.cfi_def_cfa_offset 16
	movq	%r12, %rax
	popq	%r12
	.cfi_def_cfa_offset 8
	ret
	.p2align 4,,10
	.p2align 3
.L509:
	.cfi_restore_state
	movabsq	$2340011850872286273, %rcx
	movq	%rcx, 16(%rdi)
	movl	$1852141679, 8(%rax)
	movq	$12, 8(%rdi)
	movb	$0, 28(%rdi)
	jmp	.L501
	.p2align 4,,10
	.p2align 3
.L512:
	movq	%rsp, %rsi
	xorl	%edx, %edx
	movq	$57, (%rsp)
	call	_ZNSt7__cxx1112basic_stringIcSt11char_traitsIcESaIcEE9_M_createERmm@PLT
	movq	(%rsp), %rdx
	movdqa	.LC10(%rip), %xmm0
	movabsq	$7310291504967217959, %rsi
	movq	%rax, (%r12)
	movq	%rdx, 16(%r12)
	movups	%xmm0, (%rax)
	movdqa	.LC11(%rip), %xmm0
	movq	%rsi, 48(%rax)
	movups	%xmm0, 16(%rax)
	movdqa	.LC12(%rip), %xmm0
	movb	$116, 56(%rax)
	movups	%xmm0, 32(%rax)
	movq	(%rsp), %rax
	movq	(%r12), %rdx
	movq	%rax, 8(%r12)
	movb	$0, (%rdx,%rax)
	jmp	.L501
	.p2align 4,,10
	.p2align 3
.L510:
	movabsq	$7358994418594246213, %rcx
	movq	%rcx, 16(%rdi)
	movl	$27753, %ecx
	movw	%cx, 8(%rax)
	movb	$101, 10(%rax)
	movq	$11, 8(%rdi)
	movb	$0, 27(%rdi)
	jmp	.L501
	.p2align 4,,10
	.p2align 3
.L511:
	xorl	%edx, %edx
	movq	%rsp, %rsi
	movq	$17, (%rsp)
	call	_ZNSt7__cxx1112basic_stringIcSt11char_traitsIcESaIcEE9_M_createERmm@PLT
	movq	(%rsp), %rdx
	movdqa	.LC9(%rip), %xmm0
	movq	%rax, (%r12)
	movq	%rdx, 16(%r12)
	movb	$100, 16(%rax)
	movups	%xmm0, (%rax)
	movq	(%rsp), %rax
	movq	(%r12), %rdx
	movq	%rax, 8(%r12)
	movb	$0, (%rdx,%rax)
	jmp	.L501
.L513:
	call	__stack_chk_fail@PLT
	.cfi_endproc
.LFE2797:
	.size	_ZNK4asio5error6detail13misc_category7messageB5cxx11Ei, .-_ZNK4asio5error6detail13misc_category7messageB5cxx11Ei
	.section	.text._ZNK4asio5error6detail14netdb_category7messageB5cxx11Ei,"axG",@progbits,_ZNK4asio5error6detail14netdb_category7messageB5cxx11Ei,comdat
	.align 2
	.p2align 4
	.weak	_ZNK4asio5error6detail14netdb_category7messageB5cxx11Ei
	.type	_ZNK4asio5error6detail14netdb_category7messageB5cxx11Ei, @function
_ZNK4asio5error6detail14netdb_category7messageB5cxx11Ei:
.LFB2785:
	.cfi_startproc
	endbr64
	pushq	%r12
	.cfi_def_cfa_offset 16
	.cfi_offset 12, -16
	movq	%rdi, %r12
	subq	$16, %rsp
	.cfi_def_cfa_offset 32
	movq	%fs:40, %rax
	movq	%rax, 8(%rsp)
	xorl	%eax, %eax
	leaq	16(%rdi), %rax
	movq	%rax, (%rdi)
	cmpl	$1, %edx
	je	.L522
	cmpl	$2, %edx
	je	.L523
	cmpl	$4, %edx
	je	.L524
	cmpl	$3, %edx
	je	.L525
	xorl	%edx, %edx
	movq	%rsp, %rsi
	movq	$16, (%rsp)
	call	_ZNSt7__cxx1112basic_stringIcSt11char_traitsIcESaIcEE9_M_createERmm@PLT
	movq	(%rsp), %rdx
	movdqa	.LC22(%rip), %xmm0
	movq	%rax, (%r12)
	movq	%rdx, 16(%r12)
	movups	%xmm0, (%rax)
	movq	(%rsp), %rax
	movq	(%r12), %rdx
	movq	%rax, 8(%r12)
	movb	$0, (%rdx,%rax)
.L514:
	movq	8(%rsp), %rax
	subq	%fs:40, %rax
	jne	.L526
	addq	$16, %rsp
	.cfi_remember_state
	.cfi_def_cfa_offset 16
	movq	%r12, %rax
	popq	%r12
	.cfi_def_cfa_offset 8
	ret
	.p2align 4,,10
	.p2align 3
.L522:
	.cfi_restore_state
	movq	%rsp, %rsi
	xorl	%edx, %edx
	movq	$30, (%rsp)
	call	_ZNSt7__cxx1112basic_stringIcSt11char_traitsIcESaIcEE9_M_createERmm@PLT
	movq	(%rsp), %rdx
	movl	$10597, %esi
	movdqa	.LC13(%rip), %xmm0
	movabsq	$8388361603773658465, %rcx
	movq	%rax, (%r12)
	movq	%rdx, 16(%r12)
	movq	%rcx, 16(%rax)
	movl	$1986622561, 24(%rax)
	movw	%si, 28(%rax)
	movups	%xmm0, (%rax)
	movq	(%rsp), %rax
	movq	(%r12), %rdx
	movq	%rax, 8(%r12)
	movb	$0, (%rdx,%rax)
	jmp	.L514
	.p2align 4,,10
	.p2align 3
.L525:
	xorl	%edx, %edx
	movq	%rsp, %rsi
	movq	$55, (%rsp)
	call	_ZNSt7__cxx1112basic_stringIcSt11char_traitsIcESaIcEE9_M_createERmm@PLT
	movq	(%rsp), %rdx
	movdqa	.LC19(%rip), %xmm0
	movq	%rax, (%r12)
	movq	%rdx, 16(%r12)
	movl	$30059, %edx
	movups	%xmm0, (%rax)
	movdqa	.LC20(%rip), %xmm0
	movl	$1869573152, 48(%rax)
	movups	%xmm0, 16(%rax)
	movdqa	.LC21(%rip), %xmm0
	movw	%dx, 52(%rax)
	movb	$112, 54(%rax)
	movups	%xmm0, 32(%rax)
	movq	(%rsp), %rax
	movq	(%r12), %rdx
	movq	%rax, 8(%r12)
	movb	$0, (%rdx,%rax)
	jmp	.L514
	.p2align 4,,10
	.p2align 3
.L523:
	xorl	%edx, %edx
	movq	%rsp, %rsi
	movq	$51, (%rsp)
	call	_ZNSt7__cxx1112basic_stringIcSt11char_traitsIcESaIcEE9_M_createERmm@PLT
	movq	(%rsp), %rdx
	movl	$25972, %ecx
	movdqa	.LC13(%rip), %xmm0
	movq	%rax, (%r12)
	movq	%rdx, 16(%r12)
	movups	%xmm0, (%rax)
	movdqa	.LC14(%rip), %xmm0
	movw	%cx, 48(%rax)
	movups	%xmm0, 16(%rax)
	movdqa	.LC15(%rip), %xmm0
	movb	$114, 50(%rax)
	movups	%xmm0, 32(%rax)
	movq	(%rsp), %rax
	movq	(%r12), %rdx
	movq	%rax, 8(%r12)
	movb	$0, (%rdx,%rax)
	jmp	.L514
	.p2align 4,,10
	.p2align 3
.L524:
	xorl	%edx, %edx
	movq	%rsp, %rsi
	movq	$56, (%rsp)
	call	_ZNSt7__cxx1112basic_stringIcSt11char_traitsIcESaIcEE9_M_createERmm@PLT
	movq	(%rsp), %rdx
	movdqa	.LC16(%rip), %xmm0
	movabsq	$7022344801645520244, %rcx
	movq	%rax, (%r12)
	movq	%rdx, 16(%r12)
	movups	%xmm0, (%rax)
	movdqa	.LC17(%rip), %xmm0
	movq	%rcx, 48(%rax)
	movups	%xmm0, 16(%rax)
	movdqa	.LC18(%rip), %xmm0
	movups	%xmm0, 32(%rax)
	movq	(%rsp), %rax
	movq	(%r12), %rdx
	movq	%rax, 8(%r12)
	movb	$0, (%rdx,%rax)
	jmp	.L514
.L526:
	call	__stack_chk_fail@PLT
	.cfi_endproc
.LFE2785:
	.size	_ZNK4asio5error6detail14netdb_category7messageB5cxx11Ei, .-_ZNK4asio5error6detail14netdb_category7messageB5cxx11Ei
	.section	.text._ZN7openpal6LoggerD2Ev,"axG",@progbits,_ZN7openpal6LoggerD5Ev,comdat
	.align 2
	.p2align 4
	.weak	_ZN7openpal6LoggerD2Ev
	.type	_ZN7openpal6LoggerD2Ev, @function
_ZN7openpal6LoggerD2Ev:
.LFB2070:
	.cfi_startproc
	endbr64
	pushq	%r12
	.cfi_def_cfa_offset 16
	.cfi_offset 12, -16
	pushq	%rbp
	.cfi_def_cfa_offset 24
	.cfi_offset 6, -24
	pushq	%rbx
	.cfi_def_cfa_offset 32
	.cfi_offset 3, -32
	movq	24(%rdi), %rbp
	movq	%rdi, %rbx
	testq	%rbp, %rbp
	je	.L529
	movq	__libc_single_threaded@GOTPCREL(%rip), %r12
	cmpb	$0, (%r12)
	je	.L530
	movl	8(%rbp), %eax
	leal	-1(%rax), %edx
	movl	%edx, 8(%rbp)
.L531:
	cmpl	$1, %eax
	je	.L543
.L529:
	movq	8(%rbx), %rbp
	testq	%rbp, %rbp
	je	.L527
	movq	__libc_single_threaded@GOTPCREL(%rip), %r12
	cmpb	$0, (%r12)
	je	.L537
	movl	8(%rbp), %eax
	leal	-1(%rax), %edx
	movl	%edx, 8(%rbp)
.L538:
	cmpl	$1, %eax
	je	.L544
.L527:
	popq	%rbx
	.cfi_remember_state
	.cfi_def_cfa_offset 24
	popq	%rbp
	.cfi_def_cfa_offset 16
	popq	%r12
	.cfi_def_cfa_offset 8
	ret
	.p2align 4,,10
	.p2align 3
.L543:
	.cfi_restore_state
	movq	0(%rbp), %rax
	movq	%rbp, %rdi
	call	*16(%rax)
	cmpb	$0, (%r12)
	je	.L533
	movl	12(%rbp), %eax
	leal	-1(%rax), %edx
	movl	%edx, 12(%rbp)
.L534:
	cmpl	$1, %eax
	jne	.L529
	movq	0(%rbp), %rax
	movq	%rbp, %rdi
	call	*24(%rax)
	jmp	.L529
	.p2align 4,,10
	.p2align 3
.L544:
	movq	0(%rbp), %rax
	movq	%rbp, %rdi
	call	*16(%rax)
	cmpb	$0, (%r12)
	je	.L540
	movl	12(%rbp), %eax
	leal	-1(%rax), %edx
	movl	%edx, 12(%rbp)
.L541:
	cmpl	$1, %eax
	jne	.L527
	movq	0(%rbp), %rax
	popq	%rbx
	.cfi_remember_state
	.cfi_def_cfa_offset 24
	movq	%rbp, %rdi
	popq	%rbp
	.cfi_def_cfa_offset 16
	popq	%r12
	.cfi_def_cfa_offset 8
	movq	24(%rax), %rax
	jmp	*%rax
	.p2align 4,,10
	.p2align 3
.L537:
	.cfi_restore_state
	movl	$-1, %eax
	lock xaddl	%eax, 8(%rbp)
	jmp	.L538
	.p2align 4,,10
	.p2align 3
.L530:
	movl	$-1, %eax
	lock xaddl	%eax, 8(%rbp)
	jmp	.L531
	.p2align 4,,10
	.p2align 3
.L533:
	movl	$-1, %eax
	lock xaddl	%eax, 12(%rbp)
	jmp	.L534
	.p2align 4,,10
	.p2align 3
.L540:
	movl	$-1, %eax
	lock xaddl	%eax, 12(%rbp)
	jmp	.L541
	.cfi_endproc
.LFE2070:
	.size	_ZN7openpal6LoggerD2Ev, .-_ZN7openpal6LoggerD2Ev
	.weak	_ZN7openpal6LoggerD1Ev
	.set	_ZN7openpal6LoggerD1Ev,_ZN7openpal6LoggerD2Ev
	.section	.rodata._ZNSt12system_errorC2ESt10error_codePKc.str1.1,"aMS",@progbits,1
.LC23:
	.string	": "
	.section	.text._ZNSt12system_errorC2ESt10error_codePKc,"axG",@progbits,_ZNSt12system_errorC5ESt10error_codePKc,comdat
	.align 2
	.p2align 4
	.weak	_ZNSt12system_errorC2ESt10error_codePKc
	.type	_ZNSt12system_errorC2ESt10error_codePKc, @function
_ZNSt12system_errorC2ESt10error_codePKc:
.LFB2695:
	.cfi_startproc
	.cfi_personality 0x9b,DW.ref.__gxx_personality_v0
	.cfi_lsda 0x1b,.LLSDA2695
	endbr64
	pushq	%r14
	.cfi_def_cfa_offset 16
	.cfi_offset 14, -16
	movq	%rcx, %r14
	pushq	%r13
	.cfi_def_cfa_offset 24
	.cfi_offset 13, -24
	pushq	%r12
	.cfi_def_cfa_offset 32
	.cfi_offset 12, -32
	movq	%rsi, %r12
	pushq	%rbp
	.cfi_def_cfa_offset 40
	.cfi_offset 6, -40
	movq	%rdx, %rbp
	pushq	%rbx
	.cfi_def_cfa_offset 48
	.cfi_offset 3, -48
	movq	%rdi, %rbx
	subq	$112, %rsp
	.cfi_def_cfa_offset 160
	movq	%fs:40, %rax
	movq	%rax, 104(%rsp)
	xorl	%eax, %eax
	movq	(%rdx), %rax
	leaq	64(%rsp), %r13
	movl	%esi, %edx
	movq	%r13, %rdi
	movq	%rbp, %rsi
.LEHB2:
	call	*32(%rax)
.LEHE2:
	movl	$2, %r8d
	xorl	%edx, %edx
	xorl	%esi, %esi
	leaq	.LC23(%rip), %rcx
	movq	%r13, %rdi
.LEHB3:
	call	_ZNSt7__cxx1112basic_stringIcSt11char_traitsIcESaIcEE10_M_replaceEmmPKcm@PLT
.LEHE3:
	leaq	48(%rsp), %r13
	leaq	16(%rax), %rdx
	movq	%r13, 32(%rsp)
	movq	(%rax), %rcx
	cmpq	%rdx, %rcx
	je	.L565
	movq	%rcx, 32(%rsp)
	movq	16(%rax), %rcx
	movq	%rcx, 48(%rsp)
.L547:
	movq	8(%rax), %rcx
	movb	$0, 16(%rax)
	movq	%r14, %rdi
	movq	%rcx, 40(%rsp)
	movq	%rdx, (%rax)
	movq	$0, 8(%rax)
	call	strlen@PLT
	leaq	32(%rsp), %rdi
	movq	%r14, %rcx
	xorl	%edx, %edx
	movq	%rax, %r8
	xorl	%esi, %esi
.LEHB4:
	call	_ZNSt7__cxx1112basic_stringIcSt11char_traitsIcESaIcEE10_M_replaceEmmPKcm@PLT
.LEHE4:
	leaq	16(%rsp), %r14
	leaq	16(%rax), %rdx
	movq	%r14, (%rsp)
	movq	(%rax), %rcx
	cmpq	%rdx, %rcx
	je	.L566
	movq	%rcx, (%rsp)
	movq	16(%rax), %rcx
	movq	%rcx, 16(%rsp)
.L549:
	movq	8(%rax), %rcx
	movb	$0, 16(%rax)
	movq	%rsp, %rsi
	movq	%rbx, %rdi
	movq	%rcx, 8(%rsp)
	movq	%rdx, (%rax)
	movq	$0, 8(%rax)
.LEHB5:
	call	_ZNSt13runtime_errorC2ERKNSt7__cxx1112basic_stringIcSt11char_traitsIcESaIcEEE@PLT
.LEHE5:
	movq	(%rsp), %rdi
	cmpq	%r14, %rdi
	je	.L550
	movq	16(%rsp), %rax
	leaq	1(%rax), %rsi
	call	_ZdlPvm@PLT
.L550:
	movq	32(%rsp), %rdi
	cmpq	%r13, %rdi
	je	.L551
	movq	48(%rsp), %rax
	leaq	1(%rax), %rsi
	call	_ZdlPvm@PLT
.L551:
	movq	64(%rsp), %rdi
	leaq	80(%rsp), %rax
	cmpq	%rax, %rdi
	je	.L552
	movq	80(%rsp), %rax
	leaq	1(%rax), %rsi
	call	_ZdlPvm@PLT
.L552:
	movq	_ZTVSt12system_error@GOTPCREL(%rip), %rax
	movq	%r12, 16(%rbx)
	movq	%rbp, 24(%rbx)
	addq	$16, %rax
	movq	%rax, (%rbx)
	movq	104(%rsp), %rax
	subq	%fs:40, %rax
	jne	.L567
	addq	$112, %rsp
	.cfi_remember_state
	.cfi_def_cfa_offset 48
	popq	%rbx
	.cfi_def_cfa_offset 40
	popq	%rbp
	.cfi_def_cfa_offset 32
	popq	%r12
	.cfi_def_cfa_offset 24
	popq	%r13
	.cfi_def_cfa_offset 16
	popq	%r14
	.cfi_def_cfa_offset 8
	ret
	.p2align 4,,10
	.p2align 3
.L565:
	.cfi_restore_state
	movdqu	16(%rax), %xmm0
	movaps	%xmm0, 48(%rsp)
	jmp	.L547
	.p2align 4,,10
	.p2align 3
.L566:
	movdqu	16(%rax), %xmm1
	movaps	%xmm1, 16(%rsp)
	jmp	.L549
.L567:
	call	__stack_chk_fail@PLT
.L562:
	endbr64
	movq	%rax, %rbp
	jmp	.L553
.L560:
	endbr64
	movq	%rax, %rbp
	jmp	.L557
.L561:
	endbr64
	movq	%rax, %rbp
	jmp	.L555
.L553:
	movq	(%rsp), %rdi
	cmpq	%r14, %rdi
	je	.L555
	movq	16(%rsp), %rax
	leaq	1(%rax), %rsi
	call	_ZdlPvm@PLT
.L555:
	movq	32(%rsp), %rdi
	cmpq	%r13, %rdi
	je	.L557
	movq	48(%rsp), %rax
	leaq	1(%rax), %rsi
	call	_ZdlPvm@PLT
.L557:
	movq	64(%rsp), %rdi
	leaq	80(%rsp), %rax
	cmpq	%rax, %rdi
	je	.L558
	movq	80(%rsp), %rax
	leaq	1(%rax), %rsi
	call	_ZdlPvm@PLT
.L558:
	movq	%rbp, %rdi
.LEHB6:
	call	_Unwind_Resume@PLT
.LEHE6:
	.cfi_endproc
.LFE2695:
	.section	.gcc_except_table._ZNSt12system_errorC2ESt10error_codePKc,"aG",@progbits,_ZNSt12system_errorC5ESt10error_codePKc,comdat
.LLSDA2695:
	.byte	0xff
	.byte	0xff
	.byte	0x1
	.uleb128 .LLSDACSE2695-.LLSDACSB2695
.LLSDACSB2695:
	.uleb128 .LEHB2-.LFB2695
	.uleb128 .LEHE2-.LEHB2
	.uleb128 0
	.uleb128 0
	.uleb128 .LEHB3-.LFB2695
	.uleb128 .LEHE3-.LEHB3
	.uleb128 .L560-.LFB2695
	.uleb128 0
	.uleb128 .LEHB4-.LFB2695
	.uleb128 .LEHE4-.LEHB4
	.uleb128 .L561-.LFB2695
	.uleb128 0
	.uleb128 .LEHB5-.LFB2695
	.uleb128 .LEHE5-.LEHB5
	.uleb128 .L562-.LFB2695
	.uleb128 0
	.uleb128 .LEHB6-.LFB2695
	.uleb128 .LEHE6-.LEHB6
	.uleb128 0
	.uleb128 0
.LLSDACSE2695:
	.section	.text._ZNSt12system_errorC2ESt10error_codePKc,"axG",@progbits,_ZNSt12system_errorC5ESt10error_codePKc,comdat
	.size	_ZNSt12system_errorC2ESt10error_codePKc, .-_ZNSt12system_errorC2ESt10error_codePKc
	.weak	_ZNSt12system_errorC1ESt10error_codePKc
	.set	_ZNSt12system_errorC1ESt10error_codePKc,_ZNSt12system_errorC2ESt10error_codePKc
	.section	.text._ZN4asio6detail15task_io_service12task_cleanupD2Ev,"axG",@progbits,_ZN4asio6detail15task_io_service12task_cleanupD5Ev,comdat
	.align 2
	.p2align 4
	.weak	_ZN4asio6detail15task_io_service12task_cleanupD2Ev
	.type	_ZN4asio6detail15task_io_service12task_cleanupD2Ev, @function
_ZN4asio6detail15task_io_service12task_cleanupD2Ev:
.LFB3502:
	.cfi_startproc
	endbr64
	pushq	%rbp
	.cfi_def_cfa_offset 16
	.cfi_offset 6, -16
	pushq	%rbx
	.cfi_def_cfa_offset 24
	.cfi_offset 3, -24
	movq	%rdi, %rbx
	subq	$8, %rsp
	.cfi_def_cfa_offset 32
	movq	16(%rdi), %rdx
	movq	24(%rdx), %rax
	testq	%rax, %rax
	jle	.L569
	movq	(%rdi), %rdx
	lock addq	%rax, 184(%rdx)
	movq	16(%rdi), %rdx
.L569:
	movq	8(%rbx), %rbp
	movq	$0, 24(%rdx)
	cmpb	$0, 8(%rbp)
	je	.L580
.L570:
	movq	(%rbx), %rax
	movq	8(%rdx), %rcx
	movb	$1, 176(%rax)
	testq	%rcx, %rcx
	je	.L571
	movq	200(%rax), %rsi
	testq	%rsi, %rsi
	je	.L572
	movq	%rcx, (%rsi)
.L573:
	movq	16(%rdx), %rcx
	pxor	%xmm0, %xmm0
	movq	%rcx, 200(%rax)
	movups	%xmm0, 8(%rdx)
.L571:
	leaq	152(%rax), %rdx
	movq	200(%rax), %rcx
	movq	$0, 152(%rax)
	movq	%rdx, %xmm0
	punpcklqdq	%xmm0, %xmm0
	testq	%rcx, %rcx
	je	.L574
	movq	%rdx, (%rcx)
	movq	%rdx, 200(%rax)
	addq	$8, %rsp
	.cfi_remember_state
	.cfi_def_cfa_offset 24
	popq	%rbx
	.cfi_def_cfa_offset 16
	popq	%rbp
	.cfi_def_cfa_offset 8
	ret
	.p2align 4,,10
	.p2align 3
.L572:
	.cfi_restore_state
	movq	%rcx, 192(%rax)
	jmp	.L573
	.p2align 4,,10
	.p2align 3
.L580:
	movq	0(%rbp), %rdi
	call	pthread_mutex_lock@PLT
	movb	$1, 8(%rbp)
	movq	16(%rbx), %rdx
	jmp	.L570
	.p2align 4,,10
	.p2align 3
.L574:
	movups	%xmm0, 192(%rax)
	addq	$8, %rsp
	.cfi_def_cfa_offset 24
	popq	%rbx
	.cfi_def_cfa_offset 16
	popq	%rbp
	.cfi_def_cfa_offset 8
	ret
	.cfi_endproc
.LFE3502:
	.size	_ZN4asio6detail15task_io_service12task_cleanupD2Ev, .-_ZN4asio6detail15task_io_service12task_cleanupD2Ev
	.weak	_ZN4asio6detail15task_io_service12task_cleanupD1Ev
	.set	_ZN4asio6detail15task_io_service12task_cleanupD1Ev,_ZN4asio6detail15task_io_service12task_cleanupD2Ev
	.section	.text._ZN4asio6detail15task_io_service12work_cleanupD2Ev,"axG",@progbits,_ZN4asio6detail15task_io_service12work_cleanupD5Ev,comdat
	.align 2
	.p2align 4
	.weak	_ZN4asio6detail15task_io_service12work_cleanupD2Ev
	.type	_ZN4asio6detail15task_io_service12work_cleanupD2Ev, @function
_ZN4asio6detail15task_io_service12work_cleanupD2Ev:
.LFB3505:
	.cfi_startproc
	endbr64
	pushq	%r12
	.cfi_def_cfa_offset 16
	.cfi_offset 12, -16
	pushq	%rbp
	.cfi_def_cfa_offset 24
	.cfi_offset 6, -24
	pushq	%rbx
	.cfi_def_cfa_offset 32
	.cfi_offset 3, -32
	movq	%rdi, %rbx
	subq	$32, %rsp
	.cfi_def_cfa_offset 64
	movq	%fs:40, %rax
	movq	%rax, 24(%rsp)
	movq	16(%rdi), %rax
	movq	24(%rax), %rdx
	cmpq	$1, %rdx
	jg	.L605
	jne	.L606
.L583:
	movq	8(%rax), %rdx
	movq	$0, 24(%rax)
	testq	%rdx, %rdx
	je	.L581
	movq	8(%rbx), %rbp
	cmpb	$0, 8(%rbp)
	je	.L607
	movq	(%rbx), %rcx
.L592:
	movq	200(%rcx), %rsi
	testq	%rsi, %rsi
	je	.L590
	movq	%rdx, (%rsi)
.L591:
	movq	16(%rax), %rdx
	pxor	%xmm0, %xmm0
	movq	%rdx, 200(%rcx)
	movups	%xmm0, 8(%rax)
.L581:
	movq	24(%rsp), %rax
	subq	%fs:40, %rax
	jne	.L608
	addq	$32, %rsp
	.cfi_remember_state
	.cfi_def_cfa_offset 32
	popq	%rbx
	.cfi_def_cfa_offset 24
	popq	%rbp
	.cfi_def_cfa_offset 16
	popq	%r12
	.cfi_def_cfa_offset 8
	ret
	.p2align 4,,10
	.p2align 3
.L606:
	.cfi_restore_state
	movq	(%rdi), %rbp
	lock subq	$1, 184(%rbp)
	je	.L584
.L604:
	movq	16(%rbx), %rax
	jmp	.L583
	.p2align 4,,10
	.p2align 3
.L607:
	movq	0(%rbp), %rdi
	call	pthread_mutex_lock@PLT
	movq	16(%rbx), %rax
	movq	(%rbx), %rcx
	movb	$1, 8(%rbp)
	movq	8(%rax), %rdx
	testq	%rdx, %rdx
	je	.L581
	jmp	.L592
	.p2align 4,,10
	.p2align 3
.L605:
	movq	(%rdi), %rax
	subq	$1, %rdx
	lock addq	%rdx, 184(%rax)
	movq	16(%rdi), %rax
	jmp	.L583
	.p2align 4,,10
	.p2align 3
.L584:
	leaq	48(%rbp), %r12
	movq	%r12, %rdi
	call	pthread_mutex_lock@PLT
	movb	$1, 208(%rbp)
	leaq	88(%rbp), %rdi
	orq	$1, 136(%rbp)
	call	pthread_cond_broadcast@PLT
	cmpb	$0, 176(%rbp)
	jne	.L585
	movq	144(%rbp), %rax
	testq	%rax, %rax
	je	.L585
	leaq	88(%rax), %rdx
	movb	$1, 176(%rbp)
	movl	96(%rax), %edi
	leaq	12(%rsp), %rcx
	movq	%rdx, 16(%rsp)
	movl	88(%rax), %edx
	movl	$3, %esi
	movl	$-2147483639, 12(%rsp)
	call	epoll_ctl@PLT
.L585:
	movq	%r12, %rdi
	call	pthread_mutex_unlock@PLT
	jmp	.L604
	.p2align 4,,10
	.p2align 3
.L590:
	movq	%rdx, 192(%rcx)
	jmp	.L591
.L608:
	call	__stack_chk_fail@PLT
	.cfi_endproc
.LFE3505:
	.size	_ZN4asio6detail15task_io_service12work_cleanupD2Ev, .-_ZN4asio6detail15task_io_service12work_cleanupD2Ev
	.weak	_ZN4asio6detail15task_io_service12work_cleanupD1Ev
	.set	_ZN4asio6detail15task_io_service12work_cleanupD1Ev,_ZN4asio6detail15task_io_service12work_cleanupD2Ev
	.section	.text.unlikely._ZN4asio6detail15throw_exceptionISt12system_errorEEvRKT_,"axG",@progbits,_ZN4asio6detail15throw_exceptionISt12system_errorEEvRKT_,comdat
	.weak	_ZN4asio6detail15throw_exceptionISt12system_errorEEvRKT_
	.type	_ZN4asio6detail15throw_exceptionISt12system_errorEEvRKT_, @function
_ZN4asio6detail15throw_exceptionISt12system_errorEEvRKT_:
.LFB7384:
	.cfi_startproc
	endbr64
	pushq	%rbp
	.cfi_def_cfa_offset 16
	.cfi_offset 6, -16
	pushq	%rbx
	.cfi_def_cfa_offset 24
	.cfi_offset 3, -24
	movq	%rdi, %rbx
	movl	$32, %edi
	pushq	%rax
	.cfi_def_cfa_offset 32
	call	__cxa_allocate_exception@PLT
	movq	%rbx, %rsi
	movq	%rax, %rdi
	movq	%rax, %rbp
	call	_ZNSt13runtime_errorC2ERKS_@PLT
	movq	_ZTVSt12system_error@GOTPCREL(%rip), %rax
	movups	16(%rbx), %xmm0
	movq	%rbp, %rdi
	movq	_ZNSt12system_errorD1Ev@GOTPCREL(%rip), %rdx
	movq	_ZTISt12system_error@GOTPCREL(%rip), %rsi
	addq	$16, %rax
	movups	%xmm0, 16(%rbp)
	movq	%rax, 0(%rbp)
	call	__cxa_throw@PLT
	.cfi_endproc
.LFE7384:
	.size	_ZN4asio6detail15throw_exceptionISt12system_errorEEvRKT_, .-_ZN4asio6detail15throw_exceptionISt12system_errorEEvRKT_
	.section	.text._ZN4asio6detail14do_throw_errorERKSt10error_code,"axG",@progbits,_ZN4asio6detail14do_throw_errorERKSt10error_code,comdat
	.p2align 4
	.weak	_ZN4asio6detail14do_throw_errorERKSt10error_code
	.type	_ZN4asio6detail14do_throw_errorERKSt10error_code, @function
_ZN4asio6detail14do_throw_errorERKSt10error_code:
.LFB2777:
	.cfi_startproc
	.cfi_personality 0x9b,DW.ref.__gxx_personality_v0
	.cfi_lsda 0x1b,.LLSDA2777
	endbr64
	pushq	%r13
	.cfi_def_cfa_offset 16
	.cfi_offset 13, -16
	pushq	%r12
	.cfi_def_cfa_offset 24
	.cfi_offset 12, -24
	pushq	%rbp
	.cfi_def_cfa_offset 32
	.cfi_offset 6, -32
	pushq	%rbx
	.cfi_def_cfa_offset 40
	.cfi_offset 3, -40
	subq	$88, %rsp
	.cfi_def_cfa_offset 128
	movq	8(%rdi), %rbx
	movl	(%rdi), %r12d
	movq	%fs:40, %rax
	movq	%rax, 72(%rsp)
	xorl	%eax, %eax
	leaq	32(%rsp), %rbp
	movq	%rsp, %r13
	movq	(%rbx), %rax
	movq	%rbx, %rsi
	movq	%rbp, %rdi
	movl	%r12d, %edx
.LEHB7:
	call	*32(%rax)
.LEHE7:
	movq	%rbp, %rsi
	movq	%r13, %rdi
.LEHB8:
	call	_ZNSt13runtime_errorC2ERKNSt7__cxx1112basic_stringIcSt11char_traitsIcESaIcEEE@PLT
.LEHE8:
	movq	32(%rsp), %rdi
	leaq	48(%rsp), %rax
	cmpq	%rax, %rdi
	je	.L612
	movq	48(%rsp), %rax
	leaq	1(%rax), %rsi
	call	_ZdlPvm@PLT
.L612:
	movq	_ZTVSt12system_error@GOTPCREL(%rip), %rax
	movq	%r13, %rdi
	movl	%r12d, 16(%rsp)
	movq	%rbx, 24(%rsp)
	addq	$16, %rax
	movq	%rax, (%rsp)
.LEHB9:
	call	_ZN4asio6detail15throw_exceptionISt12system_errorEEvRKT_@PLT
.LEHE9:
.L618:
	endbr64
	movq	%rax, %rbp
	jmp	.L613
.L617:
	endbr64
	movq	%rax, %rbp
	jmp	.L615
.L613:
	movq	32(%rsp), %rdi
	leaq	48(%rsp), %rax
	cmpq	%rax, %rdi
	je	.L620
	movq	48(%rsp), %rax
	leaq	1(%rax), %rsi
	call	_ZdlPvm@PLT
	jmp	.L620
.L615:
	movq	%r13, %rdi
	call	_ZNSt12system_errorD1Ev@PLT
.L620:
	movq	%rbp, %rdi
.LEHB10:
	call	_Unwind_Resume@PLT
.LEHE10:
	.cfi_endproc
.LFE2777:
	.section	.gcc_except_table._ZN4asio6detail14do_throw_errorERKSt10error_code,"aG",@progbits,_ZN4asio6detail14do_throw_errorERKSt10error_code,comdat
.LLSDA2777:
	.byte	0xff
	.byte	0xff
	.byte	0x1
	.uleb128 .LLSDACSE2777-.LLSDACSB2777
.LLSDACSB2777:
	.uleb128 .LEHB7-.LFB2777
	.uleb128 .LEHE7-.LEHB7
	.uleb128 0
	.uleb128 0
	.uleb128 .LEHB8-.LFB2777
	.uleb128 .LEHE8-.LEHB8
	.uleb128 .L618-.LFB2777
	.uleb128 0
	.uleb128 .LEHB9-.LFB2777
	.uleb128 .LEHE9-.LEHB9
	.uleb128 .L617-.LFB2777
	.uleb128 0
	.uleb128 .LEHB10-.LFB2777
	.uleb128 .LEHE10-.LEHB10
	.uleb128 0
	.uleb128 0
.LLSDACSE2777:
	.section	.text._ZN4asio6detail14do_throw_errorERKSt10error_code,"axG",@progbits,_ZN4asio6detail14do_throw_errorERKSt10error_code,comdat
	.size	_ZN4asio6detail14do_throw_errorERKSt10error_code, .-_ZN4asio6detail14do_throw_errorERKSt10error_code
	.section	.rodata.str1.1,"aMS",@progbits,1
.LC24:
	.string	"Starting thread (%d)"
	.section	.rodata.str1.8,"aMS",@progbits,1
	.align 8
.LC25:
	.string	"/home/saptarshi/Desktop/OpenPLC61850/utils/dnp3_src/cpp/libs/src/asiopal/ThreadPool.cpp(89)"
	.section	.rodata.str1.1
.LC26:
	.string	"Exiting thread (%d)"
	.section	.rodata.str1.8
	.align 8
.LC27:
	.string	"/home/saptarshi/Desktop/OpenPLC61850/utils/dnp3_src/cpp/libs/src/asiopal/ThreadPool.cpp(93)"
	.section	.text.unlikely,"ax",@progbits
	.align 2
.LCOLDB28:
	.text
.LHOTB28:
	.align 2
	.p2align 4
	.globl	_ZN7asiopal10ThreadPool3RunEi
	.type	_ZN7asiopal10ThreadPool3RunEi, @function
_ZN7asiopal10ThreadPool3RunEi:
.LFB7085:
	.cfi_startproc
	.cfi_personality 0x9b,DW.ref.__gxx_personality_v0
	.cfi_lsda 0x1b,.LLSDA7085
	endbr64
	pushq	%r15
	.cfi_def_cfa_offset 16
	.cfi_offset 15, -16
	pushq	%r14
	.cfi_def_cfa_offset 24
	.cfi_offset 14, -24
	pushq	%r13
	.cfi_def_cfa_offset 32
	.cfi_offset 13, -32
	pushq	%r12
	.cfi_def_cfa_offset 40
	.cfi_offset 12, -40
	pushq	%rbp
	.cfi_def_cfa_offset 48
	.cfi_offset 6, -48
	pushq	%rbx
	.cfi_def_cfa_offset 56
	.cfi_offset 3, -56
	subq	$1944, %rsp
	.cfi_def_cfa_offset 2000
	movq	%rdi, 56(%rsp)
	movl	%esi, 76(%rsp)
	movq	%fs:40, %rax
	movq	%rax, 1928(%rsp)
	xorl	%eax, %eax
	cmpq	$0, 64(%rdi)
	je	.L740
	movq	%rdi, %rbx
	leaq	48(%rdi), %rdi
.LEHB11:
	call	*72(%rbx)
	leaq	240(%rsp), %rax
	movq	%rbx, %rdi
	movl	$8, 240(%rsp)
	movq	%rax, %rsi
	movq	%rax, 40(%rsp)
	call	_ZNK7openpal6Logger9IsEnabledERKNS_10LogFiltersE@PLT
.LEHE11:
	testb	%al, %al
	jne	.L855
.L623:
	movq	56(%rsp), %rax
	movl	$0, 80(%rsp)
	movq	32(%rax), %rax
	movq	16(%rax), %rbp
	call	_ZNSt3_V215system_categoryEv@PLT
	movq	%rax, 48(%rsp)
	leaq	48(%rbp), %rdi
	movq	%rax, 88(%rsp)
	leaq	184(%rbp), %rax
	movq	%rax, 32(%rsp)
	movq	184(%rbp), %rax
	movq	%rdi, 64(%rsp)
	testq	%rax, %rax
	je	.L856
	pxor	%xmm0, %xmm0
	leaq	176(%rsp), %rax
	movq	$0, 192(%rsp)
	movaps	%xmm0, 176(%rsp)
	movq	$0, 200(%rsp)
	movq	%rbp, 112(%rsp)
	movq	%rax, 8(%rsp)
	movq	%rax, 120(%rsp)
	data16	leaq	_ZN4asio6detail15keyword_tss_ptrINS0_10call_stackINS0_15task_io_serviceENS0_27task_io_service_thread_infoEE7contextEE6value_E@tlsgd(%rip), %rdi
	.value	0x6666
	rex64
	call	__tls_get_addr@PLT
	movq	(%rax), %rdx
	movq	%rdx, 128(%rsp)
	leaq	112(%rsp), %rdx
	movq	%rdx, (%rax)
	movq	64(%rsp), %rax
	movq	%rax, %rdi
	movq	%rax, 96(%rsp)
	call	pthread_mutex_lock@PLT
	movb	$1, 104(%rsp)
	.p2align 4,,10
	.p2align 3
.L627:
	cmpb	$0, 208(%rbp)
	jne	.L857
.L628:
	movq	192(%rbp), %rbx
	testq	%rbx, %rbx
	je	.L631
	movq	(%rbx), %r13
	leaq	152(%rbp), %rax
	movq	%r13, 192(%rbp)
	testq	%r13, %r13
	je	.L858
	movq	$0, (%rbx)
	movzbl	40(%rbp), %edx
	cmpq	%rax, %rbx
	jne	.L859
	movb	$1, 176(%rbp)
	movzbl	104(%rsp), %eax
	testb	%dl, %dl
	je	.L860
	cmpb	$0, 104(%rsp)
	jne	.L861
.L637:
	leaq	96(%rsp), %rax
	movq	144(%rbp), %r12
	movq	%rbp, 144(%rsp)
	movq	%rax, 152(%rsp)
	movq	8(%rsp), %rax
	cmpl	$-1, 100(%r12)
	movq	%rax, 160(%rsp)
	je	.L638
	cmpq	$1, %r13
	sbbl	%ecx, %ecx
.L639:
	leaq	272(%rsp), %rbx
	movl	96(%r12), %edi
	movl	$128, %edx
	movq	%rbx, %rsi
.LEHB12:
	call	epoll_wait@PLT
.LEHE12:
	cmpl	$-1, 100(%r12)
	sete	%dl
	testl	%eax, %eax
	jle	.L651
	subl	$1, %eax
	leaq	88(%r12), %r9
	leaq	100(%r12), %rsi
	movl	$1, %edi
	leaq	(%rax,%rax,2), %rax
	leaq	284(%rsp,%rax,4), %r8
	jmp	.L655
	.p2align 4,,10
	.p2align 3
.L652:
	cmpq	%rsi, %rax
	je	.L757
	movl	(%rbx), %ecx
	movq	$0, (%rax)
	movl	%ecx, 16(%rax)
	movq	192(%rsp), %rcx
	testq	%rcx, %rcx
	je	.L654
	movq	%rax, (%rcx)
	movq	%rax, 192(%rsp)
.L653:
	addq	$12, %rbx
	cmpq	%r8, %rbx
	je	.L651
.L655:
	movq	4(%rbx), %rax
	movq	%rax, %xmm0
	punpcklqdq	%xmm0, %xmm0
	cmpq	%rax, %r9
	jne	.L652
	cmpl	$-1, 100(%r12)
	cmove	%edi, %edx
	addq	$12, %rbx
	cmpq	%r8, %rbx
	jne	.L655
.L651:
	testb	%dl, %dl
	jne	.L862
.L656:
	movq	200(%rsp), %rax
	testq	%rax, %rax
	jle	.L695
	movq	32(%rsp), %rdi
	lock addq	%rax, (%rdi)
.L695:
	movq	152(%rsp), %r12
	movq	160(%rsp), %rbx
	cmpb	$0, 8(%r12)
	movq	$0, 24(%rbx)
	je	.L863
.L699:
	movq	144(%rsp), %rax
	movq	8(%rbx), %rdx
	movb	$1, 176(%rax)
	testq	%rdx, %rdx
	je	.L700
	movq	200(%rax), %rcx
	testq	%rcx, %rcx
	je	.L701
	movq	%rdx, (%rcx)
.L702:
	movq	16(%rbx), %rdx
	pxor	%xmm0, %xmm0
	movq	%rdx, 200(%rax)
	movups	%xmm0, 8(%rbx)
.L700:
	leaq	152(%rax), %rdx
	movq	200(%rax), %rcx
	movq	$0, 152(%rax)
	movq	%rdx, %xmm0
	punpcklqdq	%xmm0, %xmm0
	testq	%rcx, %rcx
	je	.L703
	cmpb	$0, 208(%rbp)
	movq	%rdx, (%rcx)
	movq	%rdx, 200(%rax)
	je	.L628
.L857:
	cmpb	$0, 104(%rsp)
	jne	.L864
.L630:
	data16	leaq	_ZN4asio6detail15keyword_tss_ptrINS0_10call_stackINS0_15task_io_serviceENS0_27task_io_service_thread_infoEE7contextEE6value_E@tlsgd(%rip), %rdi
	.value	0x6666
	rex64
	call	__tls_get_addr@PLT
	movq	128(%rsp), %rdx
	movq	40(%rsp), %rbx
	movq	184(%rsp), %rsi
	movq	%rdx, (%rax)
	testq	%rsi, %rsi
	jne	.L726
	jmp	.L730
	.p2align 4,,10
	.p2align 3
.L729:
	movq	48(%rsp), %rdi
	movq	8(%rsi), %rax
	xorl	%ecx, %ecx
	movq	%rbx, %rdx
	movq	$0, (%rsi)
	movq	%rdi, 248(%rsp)
	xorl	%edi, %edi
	movl	$0, 240(%rsp)
	call	*%rax
	movq	184(%rsp), %rsi
	testq	%rsi, %rsi
	je	.L730
.L726:
	movq	(%rsi), %rax
	movq	%rax, 184(%rsp)
	testq	%rax, %rax
	jne	.L729
	movq	$0, 192(%rsp)
	jmp	.L729
	.p2align 4,,10
	.p2align 3
.L757:
	movl	$1, %edx
	jmp	.L653
	.p2align 4,,10
	.p2align 3
.L654:
	movups	%xmm0, 184(%rsp)
	jmp	.L653
	.p2align 4,,10
	.p2align 3
.L863:
	movq	(%r12), %rdi
	call	pthread_mutex_lock@PLT
	movb	$1, 8(%r12)
	jmp	.L699
	.p2align 4,,10
	.p2align 3
.L862:
	leaq	48(%r12), %rax
	movq	%rax, %rdi
	movq	%rax, 24(%rsp)
	call	pthread_mutex_lock@PLT
	movq	104(%r12), %rbx
	testq	%rbx, %rbx
	je	.L662
	leaq	184(%rsp), %rax
	movq	%rax, 16(%rsp)
	.p2align 4,,10
	.p2align 3
.L657:
	movq	(%rbx), %rax
	movq	40(%rax), %rax
	cmpq	_ZN4asio6detail11timer_queueINS0_18chrono_time_traitsINSt6chrono3_V212steady_clockENS_11wait_traitsIS5_EEEEE16get_ready_timersERNS0_8op_queueINS0_25task_io_service_operationEEE@GOTPCREL(%rip), %rax
	jne	.L660
	movq	24(%rbx), %rax
	cmpq	%rax, 32(%rbx)
	je	.L664
	call	_ZNSt6chrono3_V212steady_clock3nowEv@PLT
	movq	32(%rbx), %rcx
	movq	%rax, %r15
	movq	24(%rbx), %rax
	cmpq	%rax, %rcx
	je	.L664
	.p2align 4,,10
	.p2align 3
.L663:
	cmpq	(%rax), %r15
	jl	.L664
	movq	8(%rax), %rdi
	movq	(%rdi), %rdx
	testq	%rdx, %rdx
	je	.L680
	movq	192(%rsp), %rsi
	testq	%rsi, %rsi
	je	.L665
	movq	%rdx, (%rsi)
.L666:
	movq	8(%rdi), %rdx
	pxor	%xmm3, %xmm3
	movq	%rdx, 192(%rsp)
	movups	%xmm3, (%rdi)
.L680:
	movq	%rcx, %rsi
	movq	16(%rdi), %rdx
	subq	%rax, %rsi
	movq	%rsi, %r10
	sarq	$4, %r10
	cmpq	%r10, %rdx
	jnb	.L865
	subq	$1, %r10
	subq	$16, %rcx
	cmpq	%r10, %rdx
	je	.L866
	movq	%rdx, %r9
	leaq	-16(%rax,%rsi), %rsi
	salq	$4, %r9
	movdqu	(%rsi), %xmm1
	addq	%rax, %r9
	movq	(%r9), %r11
	movq	8(%r9), %r8
	movups	%xmm1, (%r9)
	movq	%r11, (%rsi)
	movq	%r8, 8(%rsi)
	movq	8(%r9), %rsi
	movq	%rdx, 16(%rsi)
	movq	%r10, 16(%r8)
	movq	%rcx, 32(%rbx)
	testq	%rdx, %rdx
	je	.L670
	leaq	-1(%rdx), %r8
	movq	(%r9), %r10
	shrq	%r8
	movq	%r8, %rsi
	salq	$4, %rsi
	addq	%rax, %rsi
	cmpq	%r10, (%rsi)
	jg	.L671
.L670:
	movq	%rcx, %r8
	leaq	1(%rdx,%rdx), %rsi
	subq	%rax, %r8
	sarq	$4, %r8
	cmpq	%r8, %rsi
	jnb	.L668
	movq	(%r9), %r14
	movq	%r14, (%rsp)
	jmp	.L673
	.p2align 4,,10
	.p2align 3
.L867:
	movq	8(%r10), %r9
	movdqu	0(%r13), %xmm5
	movups	%xmm5, (%r10)
	movq	%r9, 8(%r13)
	movq	8(%r10), %r10
	movq	%r14, 0(%r13)
	movq	%rdx, 16(%r10)
	movq	%rsi, 16(%r9)
	leaq	1(%rsi,%rsi), %r9
	cmpq	%r8, %r9
	jnb	.L668
	movq	%rsi, %rdx
	movq	%r9, %rsi
.L673:
	movq	%rsi, %r10
	leaq	1(%rsi), %r14
	salq	$4, %r10
	leaq	(%rax,%r10), %r13
	movq	0(%r13), %r9
	cmpq	%r8, %r14
	je	.L672
	leaq	16(%rax,%r10), %r10
	movq	(%r10), %r11
	cmpq	%r9, %r11
	jg	.L672
	movq	%r11, %r9
	movq	%r10, %r13
	movq	%r14, %rsi
.L672:
	movq	%rdx, %r10
	movq	(%rsp), %r14
	salq	$4, %r10
	addq	%rax, %r10
	cmpq	%r9, %r14
	jge	.L867
	.p2align 4,,10
	.p2align 3
.L668:
	movq	24(%rdi), %rdx
	cmpq	16(%rbx), %rdi
	je	.L868
.L675:
	movq	32(%rdi), %rsi
	testq	%rsi, %rsi
	je	.L676
	movq	%rdx, 24(%rsi)
	movq	24(%rdi), %rdx
.L676:
	testq	%rdx, %rdx
	je	.L677
	pxor	%xmm4, %xmm4
	movq	%rsi, 32(%rdx)
	movups	%xmm4, 24(%rdi)
	cmpq	%rcx, %rax
	jne	.L663
	.p2align 4,,10
	.p2align 3
.L664:
	movq	8(%rbx), %rbx
	testq	%rbx, %rbx
	jne	.L657
.L662:
	movl	100(%r12), %edi
	cmpl	$-1, %edi
	je	.L659
	movq	104(%r12), %rbx
	pxor	%xmm0, %xmm0
	movaps	%xmm0, 208(%rsp)
	testq	%rbx, %rbx
	je	.L681
	movq	_ZNK4asio6detail11timer_queueINS0_18chrono_time_traitsINSt6chrono3_V212steady_clockENS_11wait_traitsIS5_EEEEE18wait_duration_usecEl@GOTPCREL(%rip), %r13
	movl	$300000000, %r15d
	movabsq	$9223372036854775807, %r14
	jmp	.L690
	.p2align 4,,10
	.p2align 3
.L871:
	testq	%rax, %rax
	js	.L685
.L848:
	movq	%rdx, %rcx
	subq	%rax, %rcx
	testq	%rcx, %rcx
	jle	.L762
	movabsq	$2361183241434822607, %rax
	imulq	%rcx
	sarq	$63, %rcx
	sarq	$7, %rdx
	subq	%rcx, %rdx
.L688:
	testq	%rdx, %rdx
	je	.L869
.L687:
	cmpq	%rdx, %r15
	cmovg	%rdx, %r15
.L683:
	movq	8(%rbx), %rbx
	testq	%rbx, %rbx
	je	.L870
.L690:
	movq	(%rbx), %rax
	movq	32(%rax), %rax
	cmpq	%r13, %rax
	jne	.L682
	movq	24(%rbx), %rax
	cmpq	%rax, 32(%rbx)
	je	.L683
	call	_ZNSt6chrono3_V212steady_clock3nowEv@PLT
	movq	24(%rbx), %rdx
	movq	(%rdx), %rdx
	testq	%rdx, %rdx
	jns	.L871
	testq	%rax, %rax
	js	.L848
.L762:
	movq	8(%rbx), %rbx
	xorl	%r15d, %r15d
	testq	%rbx, %rbx
	jne	.L690
	.p2align 4,,10
	.p2align 3
.L870:
	movq	%r15, %rax
	xorl	%esi, %esi
	movl	100(%r12), %edi
	movabsq	$4835703278458516699, %rdx
	imulq	%rdx
	movq	%r15, %rax
	sarq	$63, %rax
	sarq	$18, %rdx
	subq	%rax, %rdx
	testq	%r15, %r15
	movl	$1, %eax
	movq	%rdx, 224(%rsp)
	sete	%sil
	je	.L693
	imulq	$1000000, %rdx, %rdx
	subq	%rdx, %r15
	imulq	$1000, %r15, %rax
.L693:
	movq	40(%rsp), %rcx
	leaq	208(%rsp), %rdx
	movq	%rax, 232(%rsp)
	call	timerfd_settime@PLT
.L659:
	movq	24(%rsp), %rdi
	call	pthread_mutex_unlock@PLT
	jmp	.L656
	.p2align 4,,10
	.p2align 3
.L872:
	movq	%r11, %r8
.L671:
	movq	8(%r9), %r11
	movdqu	(%rsi), %xmm2
	movups	%xmm2, (%r9)
	movq	%r10, (%rsi)
	movq	%r11, 8(%rsi)
	movq	8(%r9), %rsi
	movq	%rdx, 16(%rsi)
	movq	%r8, 16(%r11)
	testq	%r8, %r8
	je	.L668
	leaq	-1(%r8), %r11
	movq	%r8, %r9
	movq	%r8, %rdx
	shrq	%r11
	salq	$4, %r9
	movq	%r11, %rsi
	addq	%rax, %r9
	salq	$4, %rsi
	movq	(%r9), %r10
	addq	%rax, %rsi
	cmpq	%r10, (%rsi)
	jg	.L872
	movq	24(%rdi), %rdx
	cmpq	16(%rbx), %rdi
	jne	.L675
.L868:
	movq	%rdx, 16(%rbx)
	jmp	.L675
	.p2align 4,,10
	.p2align 3
.L665:
	movq	%rdx, 184(%rsp)
	jmp	.L666
	.p2align 4,,10
	.p2align 3
.L865:
	movq	32(%rbx), %rcx
	jmp	.L668
	.p2align 4,,10
	.p2align 3
.L866:
	movq	%rcx, 32(%rbx)
	jmp	.L668
	.p2align 4,,10
	.p2align 3
.L660:
	movq	16(%rsp), %rsi
	movq	%rbx, %rdi
.LEHB13:
	call	*%rax
	movq	8(%rbx), %rbx
	testq	%rbx, %rbx
	jne	.L657
	jmp	.L662
	.p2align 4,,10
	.p2align 3
.L682:
	movq	%r15, %rsi
	movq	%rbx, %rdi
	call	*%rax
.LEHE13:
	movq	%rax, %r15
	jmp	.L683
	.p2align 4,,10
	.p2align 3
.L858:
	movq	$0, 200(%rbp)
	movq	$0, (%rbx)
	cmpq	%rax, %rbx
	jne	.L873
	cmpb	$0, 104(%rsp)
	movb	$0, 176(%rbp)
	je	.L637
.L861:
	movq	96(%rsp), %rdi
	call	pthread_mutex_unlock@PLT
	movb	$0, 104(%rsp)
	jmp	.L637
	.p2align 4,,10
	.p2align 3
.L703:
	movups	%xmm0, 192(%rax)
	jmp	.L627
	.p2align 4,,10
	.p2align 3
.L869:
	movl	$1, %r15d
	jmp	.L683
	.p2align 4,,10
	.p2align 3
.L685:
	movabsq	$-9223372036854775808, %rdi
	cmpq	%rdi, %rax
	je	.L760
	movq	%rax, %rsi
	movq	%r14, %rcx
	negq	%rsi
	subq	%rdx, %rcx
	cmpq	%rcx, %rsi
	jg	.L760
	subq	%rax, %rdx
	movabsq	$2361183241434822607, %rax
	shrq	$3, %rdx
	mulq	%rdx
	shrq	$4, %rdx
	jmp	.L688
	.p2align 4,,10
	.p2align 3
.L860:
	movq	136(%rbp), %rbx
	orq	$1, %rbx
	movq	%rbx, 136(%rbp)
	testb	%al, %al
	jne	.L874
.L635:
	cmpq	$1, %rbx
	je	.L636
	leaq	88(%rbp), %rdi
	call	pthread_cond_signal@PLT
.L636:
	leaq	96(%rsp), %rax
	movq	144(%rbp), %r12
	xorl	%ecx, %ecx
	movq	%rbp, 144(%rsp)
	movq	%rax, 152(%rsp)
	movq	8(%rsp), %rax
	cmpl	$-1, 100(%r12)
	movq	%rax, 160(%rsp)
	jne	.L639
	leaq	48(%r12), %r14
	movl	%ecx, (%rsp)
	movq	%r14, %rdi
	call	pthread_mutex_lock@PLT
	movl	(%rsp), %ecx
.L640:
	movq	%r14, %rdi
	movl	%ecx, (%rsp)
	call	pthread_mutex_unlock@PLT
	movl	(%rsp), %ecx
	jmp	.L639
	.p2align 4,,10
	.p2align 3
.L631:
	movq	136(%rbp), %rax
	leaq	88(%rbp), %rbx
	andq	$-2, %rax
	.p2align 4,,10
	.p2align 3
.L722:
	addq	$2, %rax
	movq	96(%rsp), %rsi
	movq	%rbx, %rdi
	movq	%rax, 136(%rbp)
.LEHB14:
	call	pthread_cond_wait@PLT
.LEHE14:
	movq	136(%rbp), %rax
	subq	$2, %rax
	movq	%rax, 136(%rbp)
	testb	$1, %al
	je	.L722
	jmp	.L627
	.p2align 4,,10
	.p2align 3
.L701:
	movq	%rdx, 192(%rax)
	jmp	.L702
.L760:
	movabsq	$9223372036854775, %rdx
	jmp	.L687
.L638:
	leaq	48(%r12), %r14
	movq	%r14, %rdi
	call	pthread_mutex_lock@PLT
	testq	%r13, %r13
	jne	.L750
	movq	104(%r12), %rbx
	testq	%rbx, %rbx
	je	.L751
	movq	_ZNK4asio6detail11timer_queueINS0_18chrono_time_traitsINSt6chrono3_V212steady_clockENS_11wait_traitsIS5_EEEEE18wait_duration_msecEl@GOTPCREL(%rip), %r13
	movl	$300000, %r15d
	jmp	.L650
	.p2align 4,,10
	.p2align 3
.L877:
	testq	%rax, %rax
	js	.L645
.L847:
	movq	%rdx, %rcx
	subq	%rax, %rcx
	testq	%rcx, %rcx
	jle	.L755
	movabsq	$4835703278458516699, %rax
	imulq	%rcx
	sarq	$63, %rcx
	sarq	$18, %rdx
	subq	%rcx, %rdx
.L648:
	testq	%rdx, %rdx
	je	.L875
.L647:
	cmpq	%rdx, %r15
	cmovg	%rdx, %r15
.L643:
	movq	8(%rbx), %rbx
	testq	%rbx, %rbx
	je	.L876
.L650:
	movq	(%rbx), %rax
	movq	24(%rax), %rax
	cmpq	%r13, %rax
	jne	.L642
	movq	24(%rbx), %rax
	cmpq	%rax, 32(%rbx)
	je	.L643
	call	_ZNSt6chrono3_V212steady_clock3nowEv@PLT
	movq	24(%rbx), %rdx
	movq	(%rdx), %rdx
	testq	%rdx, %rdx
	jns	.L877
	testq	%rax, %rax
	js	.L847
.L755:
	movq	8(%rbx), %rbx
	xorl	%r15d, %r15d
	testq	%rbx, %rbx
	jne	.L650
.L876:
	movl	%r15d, %ecx
	jmp	.L640
	.p2align 4,,10
	.p2align 3
.L642:
	movq	%r15, %rsi
	movq	%rbx, %rdi
.LEHB15:
	call	*%rax
.LEHE15:
	movq	%rax, %r15
	jmp	.L643
.L875:
	movl	$1, %r15d
	jmp	.L643
.L645:
	movabsq	$-9223372036854775808, %rdi
	cmpq	%rdi, %rax
	je	.L753
	movabsq	$9223372036854775807, %rcx
	movq	%rax, %rdi
	negq	%rdi
	subq	%rdx, %rcx
	cmpq	%rcx, %rdi
	jg	.L753
	subq	%rax, %rdx
	movabsq	$4835703278458516699, %rax
	mulq	%rdx
	shrq	$18, %rdx
	jmp	.L648
.L753:
	movabsq	$9223372036854, %rdx
	jmp	.L647
.L874:
	movq	96(%rsp), %rdi
	call	pthread_mutex_unlock@PLT
	movb	$0, 104(%rsp)
	jmp	.L635
.L859:
	movl	16(%rbx), %r12d
	testb	%dl, %dl
	je	.L878
.L747:
	cmpb	$0, 104(%rsp)
	jne	.L879
.L708:
	leaq	96(%rsp), %rax
	leaq	80(%rsp), %rdx
	movq	%r12, %rcx
	movq	%rbx, %rsi
	movq	%rax, 248(%rsp)
	movq	8(%rsp), %rax
	movq	%rbp, %rdi
	movq	%rbp, 240(%rsp)
	movq	%rax, 256(%rsp)
.LEHB16:
	call	*8(%rbx)
.LEHE16:
	movq	200(%rsp), %rax
	cmpq	$1, %rax
	jg	.L880
	movq	8(%rsp), %rbx
	je	.L711
	movq	32(%rsp), %rdi
	lock subq	$1, (%rdi)
	je	.L712
.L850:
	movq	256(%rsp), %rbx
.L711:
	movq	8(%rbx), %rax
	movq	$0, 24(%rbx)
	testq	%rax, %rax
	je	.L715
	movq	248(%rsp), %r12
	movq	240(%rsp), %r13
	cmpb	$0, 8(%r12)
	je	.L881
.L716:
	movq	200(%r13), %rdx
	testq	%rdx, %rdx
	je	.L718
	movq	%rax, (%rdx)
.L719:
	movq	16(%rbx), %rax
	pxor	%xmm0, %xmm0
	movq	%rax, 200(%r13)
	movups	%xmm0, 8(%rbx)
.L715:
	cmpb	$0, 104(%rsp)
	jne	.L627
	movq	96(%rsp), %rdi
	call	pthread_mutex_lock@PLT
	movb	$1, 104(%rsp)
	jmp	.L627
	.p2align 4,,10
	.p2align 3
.L677:
	pxor	%xmm6, %xmm6
	movups	%xmm6, 24(%rdi)
	cmpq	%rcx, %rax
	jne	.L663
	movq	8(%rbx), %rbx
	testq	%rbx, %rbx
	jne	.L657
	jmp	.L662
.L880:
	movq	32(%rsp), %rdi
	subq	$1, %rax
	lock addq	%rax, (%rdi)
	movq	256(%rsp), %rbx
	jmp	.L711
.L681:
	movq	$300, 224(%rsp)
	xorl	%esi, %esi
	xorl	%eax, %eax
	jmp	.L693
.L750:
	xorl	%ecx, %ecx
	jmp	.L640
.L879:
	movq	96(%rsp), %rdi
	call	pthread_mutex_unlock@PLT
	movb	$0, 104(%rsp)
	jmp	.L708
.L873:
	movl	16(%rbx), %r12d
	jmp	.L747
.L730:
	movq	176(%rsp), %rdi
	testq	%rdi, %rdi
	je	.L626
	call	_ZdlPv@PLT
.L626:
	movl	80(%rsp), %eax
	testl	%eax, %eax
	jne	.L882
	movq	40(%rsp), %rsi
	movq	56(%rsp), %rdi
	movl	$8, 240(%rsp)
.LEHB17:
	call	_ZNK7openpal6Logger9IsEnabledERKNS_10LogFiltersE@PLT
	testb	%al, %al
	jne	.L883
.L739:
	movq	56(%rsp), %rax
	cmpq	$0, 96(%rax)
	je	.L740
	movq	1928(%rsp), %rax
	subq	%fs:40, %rax
	jne	.L884
	movq	56(%rsp), %rax
	leaq	80(%rax), %rdi
	movq	104(%rax), %rax
	addq	$1944, %rsp
	.cfi_remember_state
	.cfi_def_cfa_offset 56
	popq	%rbx
	.cfi_def_cfa_offset 48
	popq	%rbp
	.cfi_def_cfa_offset 40
	popq	%r12
	.cfi_def_cfa_offset 32
	popq	%r13
	.cfi_def_cfa_offset 24
	popq	%r14
	.cfi_def_cfa_offset 16
	popq	%r15
	.cfi_def_cfa_offset 8
	jmp	*%rax
.L751:
	.cfi_restore_state
	movl	$300000, %ecx
	jmp	.L640
.L881:
	movq	(%r12), %rdi
	call	pthread_mutex_lock@PLT
	movq	8(%rbx), %rax
	movb	$1, 8(%r12)
	testq	%rax, %rax
	je	.L715
	jmp	.L716
	.p2align 4,,10
	.p2align 3
.L878:
	movq	136(%rbp), %rax
	orq	$1, %rax
	movq	%rax, 136(%rbp)
	cmpq	$1, %rax
	je	.L706
	cmpb	$0, 104(%rsp)
	jne	.L885
.L707:
	leaq	88(%rbp), %rdi
	call	pthread_cond_signal@PLT
	jmp	.L708
.L706:
	cmpb	$0, 176(%rbp)
	jne	.L747
	movq	144(%rbp), %rax
	testq	%rax, %rax
	je	.L747
	movb	$1, 176(%rbp)
	leaq	88(%rax), %rdx
	movq	40(%rsp), %rcx
	movl	$3, %esi
	movq	%rdx, 244(%rsp)
	movl	88(%rax), %edx
	movl	$-2147483639, 240(%rsp)
	movl	96(%rax), %edi
	call	epoll_ctl@PLT
	jmp	.L747
.L856:
	call	pthread_mutex_lock@PLT
	movb	$1, 208(%rbp)
	leaq	88(%rbp), %rdi
	orq	$1, 136(%rbp)
	call	pthread_cond_broadcast@PLT
	cmpb	$0, 176(%rbp)
	jne	.L625
	movq	144(%rbp), %rax
	testq	%rax, %rax
	je	.L625
	movb	$1, 176(%rbp)
	leaq	88(%rax), %rdx
	movq	40(%rsp), %rcx
	movl	$3, %esi
	movq	%rdx, 244(%rsp)
	movl	88(%rax), %edx
	movl	$-2147483639, 240(%rsp)
	movl	96(%rax), %edi
	call	epoll_ctl@PLT
.L625:
	movq	64(%rsp), %rdi
	call	pthread_mutex_unlock@PLT
	jmp	.L626
.L855:
	leaq	1808(%rsp), %r12
	movl	76(%rsp), %r9d
	movl	$120, %ecx
	xorl	%eax, %eax
	movq	%r12, %rdi
	movl	$1, %edx
	movl	$120, %esi
	leaq	.LC24(%rip), %r8
	call	__snprintf_chk@PLT
	movq	40(%rsp), %rsi
	movq	%r12, %rcx
	movq	56(%rsp), %rdi
	leaq	.LC25(%rip), %rdx
	movl	$8, 240(%rsp)
	call	_ZN7openpal6Logger3LogERKNS_10LogFiltersEPKcS5_@PLT
	jmp	.L623
.L883:
	leaq	1808(%rsp), %r12
	movl	76(%rsp), %r9d
	movl	$120, %ecx
	xorl	%eax, %eax
	movq	%r12, %rdi
	movl	$1, %edx
	movl	$120, %esi
	leaq	.LC26(%rip), %r8
	call	__snprintf_chk@PLT
	movq	40(%rsp), %rsi
	movq	%r12, %rcx
	movq	56(%rsp), %rdi
	leaq	.LC27(%rip), %rdx
	movl	$8, 240(%rsp)
	call	_ZN7openpal6Logger3LogERKNS_10LogFiltersEPKcS5_@PLT
	jmp	.L739
.L718:
	movq	%rax, 192(%r13)
	jmp	.L719
.L712:
	movq	64(%rsp), %rdi
	call	pthread_mutex_lock@PLT
	movb	$1, 208(%rbp)
	leaq	88(%rbp), %rdi
	orq	$1, 136(%rbp)
	call	pthread_cond_broadcast@PLT
	cmpb	$0, 176(%rbp)
	jne	.L713
	movq	144(%rbp), %rax
	testq	%rax, %rax
	je	.L713
	movb	$1, 176(%rbp)
	leaq	88(%rax), %rdx
	movl	$3, %esi
	leaq	208(%rsp), %rcx
	movq	%rdx, 212(%rsp)
	movl	88(%rax), %edx
	movl	$-2147483639, 208(%rsp)
	movl	96(%rax), %edi
	call	epoll_ctl@PLT
.L713:
	movq	64(%rsp), %rdi
	call	pthread_mutex_unlock@PLT
	jmp	.L850
.L864:
	movq	96(%rsp), %rdi
	call	pthread_mutex_unlock@PLT
	jmp	.L630
.L885:
	movq	96(%rsp), %rdi
	call	pthread_mutex_unlock@PLT
	movb	$0, 104(%rsp)
	jmp	.L707
.L884:
	call	__stack_chk_fail@PLT
.L882:
	leaq	80(%rsp), %rdi
	call	_ZN4asio6detail14do_throw_errorERKSt10error_code@PLT
.L740:
	call	_ZSt25__throw_bad_function_callv@PLT
.LEHE17:
.L771:
	endbr64
	movq	%rax, %rbp
	jmp	.L696
.L767:
	endbr64
	movq	%rax, %rbp
	jmp	.L724
.L769:
	endbr64
	movq	%rax, %rbp
	jmp	.L697
.L770:
	endbr64
	movq	%rax, %rbp
	jmp	.L698
.L768:
	endbr64
	movq	%rax, %rbp
	jmp	.L725
	.section	.gcc_except_table,"a",@progbits
.LLSDA7085:
	.byte	0xff
	.byte	0xff
	.byte	0x1
	.uleb128 .LLSDACSE7085-.LLSDACSB7085
.LLSDACSB7085:
	.uleb128 .LEHB11-.LFB7085
	.uleb128 .LEHE11-.LEHB11
	.uleb128 0
	.uleb128 0
	.uleb128 .LEHB12-.LFB7085
	.uleb128 .LEHE12-.LEHB12
	.uleb128 .L769-.LFB7085
	.uleb128 0
	.uleb128 .LEHB13-.LFB7085
	.uleb128 .LEHE13-.LEHB13
	.uleb128 .L770-.LFB7085
	.uleb128 0
	.uleb128 .LEHB14-.LFB7085
	.uleb128 .LEHE14-.LEHB14
	.uleb128 .L767-.LFB7085
	.uleb128 0
	.uleb128 .LEHB15-.LFB7085
	.uleb128 .LEHE15-.LEHB15
	.uleb128 .L771-.LFB7085
	.uleb128 0
	.uleb128 .LEHB16-.LFB7085
	.uleb128 .LEHE16-.LEHB16
	.uleb128 .L768-.LFB7085
	.uleb128 0
	.uleb128 .LEHB17-.LFB7085
	.uleb128 .LEHE17-.LEHB17
	.uleb128 0
	.uleb128 0
.LLSDACSE7085:
	.text
	.cfi_endproc
	.section	.text.unlikely
	.cfi_startproc
	.cfi_personality 0x9b,DW.ref.__gxx_personality_v0
	.cfi_lsda 0x1b,.LLSDAC7085
	.type	_ZN7asiopal10ThreadPool3RunEi.cold, @function
_ZN7asiopal10ThreadPool3RunEi.cold:
.LFSB7085:
.L696:
	.cfi_def_cfa_offset 2000
	.cfi_offset 3, -56
	.cfi_offset 6, -48
	.cfi_offset 12, -40
	.cfi_offset 13, -32
	.cfi_offset 14, -24
	.cfi_offset 15, -16
	movq	%r14, %rdi
	call	pthread_mutex_unlock@PLT
.L697:
	leaq	144(%rsp), %rdi
	call	_ZN4asio6detail15task_io_service12task_cleanupD1Ev@PLT
.L724:
	cmpb	$0, 104(%rsp)
	je	.L734
	movq	96(%rsp), %rdi
	call	pthread_mutex_unlock@PLT
.L734:
	data16	leaq	_ZN4asio6detail15keyword_tss_ptrINS0_10call_stackINS0_15task_io_serviceENS0_27task_io_service_thread_infoEE7contextEE6value_E@tlsgd(%rip), %rdi
	.value	0x6666
	rex64
	call	__tls_get_addr@PLT
	movq	128(%rsp), %rdx
	movq	%rdx, (%rax)
.L737:
	movq	184(%rsp), %rsi
	testq	%rsi, %rsi
	jne	.L886
	movq	176(%rsp), %rdi
	testq	%rdi, %rdi
	je	.L738
	call	_ZdlPv@PLT
.L738:
	movq	%rbp, %rdi
.LEHB18:
	call	_Unwind_Resume@PLT
.LEHE18:
.L725:
	movq	40(%rsp), %rdi
	call	_ZN4asio6detail15task_io_service12work_cleanupD1Ev@PLT
	jmp	.L724
.L698:
	movq	24(%rsp), %rdi
	call	pthread_mutex_unlock@PLT
	jmp	.L697
.L886:
	movq	(%rsi), %rax
	movq	%rax, 184(%rsp)
	testq	%rax, %rax
	jne	.L736
	movq	$0, 192(%rsp)
.L736:
	movq	48(%rsp), %rdi
	movq	$0, (%rsi)
	xorl	%ecx, %ecx
	movq	8(%rsi), %rax
	movq	40(%rsp), %rdx
	movl	$0, 240(%rsp)
	movq	%rdi, 248(%rsp)
	xorl	%edi, %edi
	call	*%rax
	jmp	.L737
	.cfi_endproc
.LFE7085:
	.section	.gcc_except_table
.LLSDAC7085:
	.byte	0xff
	.byte	0xff
	.byte	0x1
	.uleb128 .LLSDACSEC7085-.LLSDACSBC7085
.LLSDACSBC7085:
	.uleb128 .LEHB18-.LCOLDB28
	.uleb128 .LEHE18-.LEHB18
	.uleb128 0
	.uleb128 0
.LLSDACSEC7085:
	.section	.text.unlikely
	.text
	.size	_ZN7asiopal10ThreadPool3RunEi, .-_ZN7asiopal10ThreadPool3RunEi
	.section	.text.unlikely
	.size	_ZN7asiopal10ThreadPool3RunEi.cold, .-_ZN7asiopal10ThreadPool3RunEi.cold
.LCOLDE28:
	.text
.LHOTE28:
	.align 2
	.p2align 4
	.type	_ZNSt6thread11_State_implINS_8_InvokerISt5tupleIJZN7asiopal10ThreadPoolC4ERKN7openpal6LoggerERKSt10shared_ptrINS3_2IOEEjSt8functionIFvvEESG_EUlvE0_EEEEE6_M_runEv, @function
_ZNSt6thread11_State_implINS_8_InvokerISt5tupleIJZN7asiopal10ThreadPoolC4ERKN7openpal6LoggerERKSt10shared_ptrINS3_2IOEEjSt8functionIFvvEESG_EUlvE0_EEEEE6_M_runEv:
.LFB9655:
	.cfi_startproc
	endbr64
	movl	16(%rdi), %esi
	movq	8(%rdi), %rdi
	jmp	_ZN7asiopal10ThreadPool3RunEi@PLT
	.cfi_endproc
.LFE9655:
	.size	_ZNSt6thread11_State_implINS_8_InvokerISt5tupleIJZN7asiopal10ThreadPoolC4ERKN7openpal6LoggerERKSt10shared_ptrINS3_2IOEEjSt8functionIFvvEESG_EUlvE0_EEEEE6_M_runEv, .-_ZNSt6thread11_State_implINS_8_InvokerISt5tupleIJZN7asiopal10ThreadPoolC4ERKN7openpal6LoggerERKSt10shared_ptrINS3_2IOEEjSt8functionIFvvEESG_EUlvE0_EEEEE6_M_runEv
	.section	.text._ZN4asio6detail14do_throw_errorERKSt10error_codePKc,"axG",@progbits,_ZN4asio6detail14do_throw_errorERKSt10error_codePKc,comdat
	.p2align 4
	.weak	_ZN4asio6detail14do_throw_errorERKSt10error_codePKc
	.type	_ZN4asio6detail14do_throw_errorERKSt10error_codePKc, @function
_ZN4asio6detail14do_throw_errorERKSt10error_codePKc:
.LFB2778:
	.cfi_startproc
	.cfi_personality 0x9b,DW.ref.__gxx_personality_v0
	.cfi_lsda 0x1b,.LLSDA2778
	endbr64
	pushq	%r12
	.cfi_def_cfa_offset 16
	.cfi_offset 12, -16
	movq	%rsi, %rcx
	pushq	%rbp
	.cfi_def_cfa_offset 24
	.cfi_offset 6, -24
	subq	$56, %rsp
	.cfi_def_cfa_offset 80
	movl	(%rdi), %esi
	movq	8(%rdi), %rdx
	movq	%fs:40, %rax
	movq	%rax, 40(%rsp)
	xorl	%eax, %eax
	movq	%rsp, %rbp
	movq	%rbp, %rdi
.LEHB19:
	call	_ZNSt12system_errorC1ESt10error_codePKc@PLT
.LEHE19:
	movq	%rbp, %rdi
.LEHB20:
	call	_ZN4asio6detail15throw_exceptionISt12system_errorEEvRKT_@PLT
.LEHE20:
.L891:
	endbr64
	movq	%rax, %r12
.L889:
	movq	%rbp, %rdi
	call	_ZNSt12system_errorD1Ev@PLT
	movq	%r12, %rdi
.LEHB21:
	call	_Unwind_Resume@PLT
.LEHE21:
	.cfi_endproc
.LFE2778:
	.section	.gcc_except_table
.LLSDA2778:
	.byte	0xff
	.byte	0xff
	.byte	0x1
	.uleb128 .LLSDACSE2778-.LLSDACSB2778
.LLSDACSB2778:
	.uleb128 .LEHB19-.LFB2778
	.uleb128 .LEHE19-.LEHB19
	.uleb128 0
	.uleb128 0
	.uleb128 .LEHB20-.LFB2778
	.uleb128 .LEHE20-.LEHB20
	.uleb128 .L891-.LFB2778
	.uleb128 0
	.uleb128 .LEHB21-.LFB2778
	.uleb128 .LEHE21-.LEHB21
	.uleb128 0
	.uleb128 0
.LLSDACSE2778:
	.section	.text._ZN4asio6detail14do_throw_errorERKSt10error_codePKc,"axG",@progbits,_ZN4asio6detail14do_throw_errorERKSt10error_codePKc,comdat
	.size	_ZN4asio6detail14do_throw_errorERKSt10error_codePKc, .-_ZN4asio6detail14do_throw_errorERKSt10error_codePKc
	.section	.rodata._ZN4asio6detail13epoll_reactor12fork_serviceENS_10io_service10fork_eventE.str1.1,"aMS",@progbits,1
.LC29:
	.string	"epoll"
.LC31:
	.string	"eventfd_select_interrupter"
.LC32:
	.string	"epoll re-registration"
	.section	.text._ZN4asio6detail13epoll_reactor12fork_serviceENS_10io_service10fork_eventE,"axG",@progbits,_ZN4asio6detail13epoll_reactor12fork_serviceENS_10io_service10fork_eventE,comdat
	.align 2
	.p2align 4
	.weak	_ZN4asio6detail13epoll_reactor12fork_serviceENS_10io_service10fork_eventE
	.type	_ZN4asio6detail13epoll_reactor12fork_serviceENS_10io_service10fork_eventE, @function
_ZN4asio6detail13epoll_reactor12fork_serviceENS_10io_service10fork_eventE:
.LFB3470:
	.cfi_startproc
	.cfi_personality 0x9b,DW.ref.__gxx_personality_v0
	.cfi_lsda 0x1b,.LLSDA3470
	endbr64
	pushq	%r15
	.cfi_def_cfa_offset 16
	.cfi_offset 15, -16
	pushq	%r14
	.cfi_def_cfa_offset 24
	.cfi_offset 14, -24
	pushq	%r13
	.cfi_def_cfa_offset 32
	.cfi_offset 13, -32
	pushq	%r12
	.cfi_def_cfa_offset 40
	.cfi_offset 12, -40
	pushq	%rbp
	.cfi_def_cfa_offset 48
	.cfi_offset 6, -48
	pushq	%rbx
	.cfi_def_cfa_offset 56
	.cfi_offset 3, -56
	subq	$120, %rsp
	.cfi_def_cfa_offset 176
	movq	%fs:40, %rax
	movq	%rax, 104(%rsp)
	xorl	%eax, %eax
	cmpl	$2, %esi
	je	.L1010
.L893:
	movq	104(%rsp), %rax
	subq	%fs:40, %rax
	jne	.L1011
	addq	$120, %rsp
	.cfi_remember_state
	.cfi_def_cfa_offset 56
	popq	%rbx
	.cfi_def_cfa_offset 48
	popq	%rbp
	.cfi_def_cfa_offset 40
	popq	%r12
	.cfi_def_cfa_offset 32
	popq	%r13
	.cfi_def_cfa_offset 24
	popq	%r14
	.cfi_def_cfa_offset 16
	popq	%r15
	.cfi_def_cfa_offset 8
	ret
	.p2align 4,,10
	.p2align 3
.L1010:
	.cfi_restore_state
	movq	%rdi, %rbx
	movl	96(%rdi), %edi
	cmpl	$-1, %edi
	jne	.L1012
.L895:
	movl	$-1, 96(%rbx)
	movl	$524288, %edi
	call	epoll_create1@PLT
	movl	%eax, %ebp
	cmpl	$-1, %eax
	je	.L1013
.L896:
	movl	100(%rbx), %edi
	movl	%ebp, 96(%rbx)
	cmpl	$-1, %edi
	jne	.L1014
.L902:
	movl	$-1, 100(%rbx)
	movl	$524288, %esi
	movl	$1, %edi
	call	timerfd_create@PLT
	movl	%eax, %ebp
	cmpl	$-1, %eax
	je	.L1015
.L903:
	movl	92(%rbx), %r8d
	movl	88(%rbx), %edi
	movl	%ebp, 100(%rbx)
	leaq	88(%rbx), %r12
	cmpl	$-1, %r8d
	je	.L904
	cmpl	%edi, %r8d
	jne	.L1016
.L905:
.LEHB22:
	call	close@PLT
.L906:
	movq	.LC30(%rip), %rax
	movl	$526336, %esi
	xorl	%edi, %edi
	movq	%rax, 88(%rbx)
	call	eventfd@PLT
	movd	%eax, %xmm1
	movl	%eax, %edx
	pshufd	$0xe0, %xmm1, %xmm0
	movq	%xmm0, 88(%rbx)
	cmpl	$-1, %eax
	je	.L1017
.L907:
	movl	96(%rbx), %edi
	leaq	20(%rsp), %rbp
	movl	$1, %esi
	movl	$-2147483639, 20(%rsp)
	movq	%rbp, %rcx
	movq	%r12, 24(%rsp)
	leaq	64(%rsp), %r13
	call	epoll_ctl@PLT
	movl	92(%rbx), %edi
	movl	$8, %edx
	movq	%r13, %rsi
	movq	$1, 64(%rsp)
	call	write@PLT
.LEHE22:
	movl	100(%rbx), %edx
	cmpl	$-1, %edx
	jne	.L1018
.L915:
	movl	88(%rbx), %edx
	movl	96(%rbx), %edi
	movq	%r13, %rcx
	movl	$3, %esi
	movl	$-2147483639, 64(%rsp)
	movq	%r12, 68(%rsp)
	call	epoll_ctl@PLT
.L929:
	leaq	120(%rbx), %rax
	movq	%rax, %rdi
	movq	%rax, 8(%rsp)
	call	pthread_mutex_lock@PLT
	movq	160(%rbx), %r15
	testq	%r15, %r15
	jne	.L930
	jmp	.L936
	.p2align 4,,10
	.p2align 3
.L931:
	movq	24(%r15), %r15
	testq	%r15, %r15
	je	.L936
.L930:
	movl	92(%r15), %eax
	movl	88(%r15), %edx
	movq	%rbp, %rcx
	movl	$1, %esi
	movl	96(%rbx), %edi
	movq	%r15, 24(%rsp)
	movl	%eax, 20(%rsp)
	call	epoll_ctl@PLT
	testl	%eax, %eax
	je	.L931
	movq	_ZGVZN4asio15system_categoryEvE8instance@GOTPCREL(%rip), %r12
	movzbl	(%r12), %eax
	testb	%al, %al
	je	.L932
.L1009:
	movq	_ZZN4asio15system_categoryEvE8instance@GOTPCREL(%rip), %r14
.L933:
	call	__errno_location@PLT
	movq	%r14, 72(%rsp)
	movl	(%rax), %eax
	movl	%eax, 64(%rsp)
	testl	%eax, %eax
	je	.L931
	leaq	.LC32(%rip), %rsi
	movq	%r13, %rdi
.LEHB23:
	call	_ZN4asio6detail14do_throw_errorERKSt10error_codePKc@PLT
.LEHE23:
	.p2align 4,,10
	.p2align 3
.L1016:
	movl	%r8d, %edi
.LEHB24:
	call	close@PLT
	movl	88(%rbx), %edi
.L904:
	cmpl	$-1, %edi
	je	.L906
	jmp	.L905
	.p2align 4,,10
	.p2align 3
.L1018:
	movl	96(%rbx), %edi
	leaq	100(%rbx), %rax
	movq	%rbp, %rcx
	movl	$1, %esi
	movl	$9, 20(%rsp)
	movq	%rax, 24(%rsp)
	call	epoll_ctl@PLT
	movl	100(%rbx), %edi
	cmpl	$-1, %edi
	je	.L915
	movq	104(%rbx), %r14
	pxor	%xmm0, %xmm0
	movaps	%xmm0, 32(%rsp)
	testq	%r14, %r14
	je	.L916
	movq	_ZNK4asio6detail11timer_queueINS0_18chrono_time_traitsINSt6chrono3_V212steady_clockENS_11wait_traitsIS5_EEEEE18wait_duration_usecEl@GOTPCREL(%rip), %r12
	movl	$300000000, %r15d
	jmp	.L925
	.p2align 4,,10
	.p2align 3
.L1021:
	testq	%rax, %rax
	js	.L920
.L1008:
	subq	%rax, %rdx
	movq	%rdx, %rdi
	testq	%rdx, %rdx
	jle	.L944
	movabsq	$2361183241434822607, %rax
	sarq	$63, %rdi
	imulq	%rdx
	sarq	$7, %rdx
	subq	%rdi, %rdx
.L923:
	testq	%rdx, %rdx
	je	.L1019
.L922:
	cmpq	%rdx, %r15
	cmovg	%rdx, %r15
.L918:
	movq	8(%r14), %r14
	testq	%r14, %r14
	je	.L1020
.L925:
	movq	(%r14), %rax
	movq	32(%rax), %rax
	cmpq	%r12, %rax
	jne	.L917
	movq	24(%r14), %rax
	cmpq	%rax, 32(%r14)
	je	.L918
	call	_ZNSt6chrono3_V212steady_clock3nowEv@PLT
	movq	24(%r14), %rdx
	movq	(%rdx), %rdx
	testq	%rdx, %rdx
	jns	.L1021
	testq	%rax, %rax
	js	.L1008
.L944:
	movq	8(%r14), %r14
	xorl	%r15d, %r15d
	testq	%r14, %r14
	jne	.L925
	.p2align 4,,10
	.p2align 3
.L1020:
	movq	%r15, %rax
	xorl	%r8d, %r8d
	movl	100(%rbx), %edi
	movabsq	$4835703278458516699, %rdx
	imulq	%rdx
	movq	%r15, %rax
	sarq	$63, %rax
	sarq	$18, %rdx
	subq	%rax, %rdx
	testq	%r15, %r15
	movl	$1, %eax
	movq	%rdx, 48(%rsp)
	sete	%r8b
	je	.L928
	imulq	$1000000, %rdx, %rdx
	movq	%r15, %rsi
	subq	%rdx, %rsi
	imulq	$1000, %rsi, %rax
.L928:
	leaq	32(%rsp), %rdx
	movq	%r13, %rcx
	movl	%r8d, %esi
	movq	%rax, 56(%rsp)
	call	timerfd_settime@PLT
	jmp	.L929
	.p2align 4,,10
	.p2align 3
.L1014:
	call	close@PLT
	jmp	.L902
	.p2align 4,,10
	.p2align 3
.L1012:
	call	close@PLT
	jmp	.L895
	.p2align 4,,10
	.p2align 3
.L932:
	movq	%r12, %rdi
	call	__cxa_guard_acquire@PLT
	testl	%eax, %eax
	je	.L1009
	movq	_ZZN4asio15system_categoryEvE8instance@GOTPCREL(%rip), %r14
	movq	_ZN4asio6detail15system_categoryD1Ev@GOTPCREL(%rip), %rdi
	leaq	__dso_handle(%rip), %rdx
	movq	%r14, %rsi
	call	__cxa_atexit@PLT
	movq	%r12, %rdi
	call	__cxa_guard_release@PLT
	jmp	.L933
	.p2align 4,,10
	.p2align 3
.L936:
	movq	8(%rsp), %rdi
	call	pthread_mutex_unlock@PLT
	jmp	.L893
	.p2align 4,,10
	.p2align 3
.L917:
	movq	%r15, %rsi
	movq	%r14, %rdi
	call	*%rax
	movq	%rax, %r15
	jmp	.L918
	.p2align 4,,10
	.p2align 3
.L1019:
	movl	$1, %r15d
	jmp	.L918
	.p2align 4,,10
	.p2align 3
.L920:
	movabsq	$-9223372036854775808, %rcx
	cmpq	%rcx, %rax
	je	.L942
	movabsq	$9223372036854775807, %rdi
	movq	%rax, %r8
	negq	%r8
	subq	%rdx, %rdi
	cmpq	%rdi, %r8
	jg	.L942
	subq	%rax, %rdx
	movabsq	$2361183241434822607, %rax
	shrq	$3, %rdx
	mulq	%rdx
	shrq	$4, %rdx
	jmp	.L923
	.p2align 4,,10
	.p2align 3
.L942:
	movabsq	$9223372036854775, %rdx
	jmp	.L922
	.p2align 4,,10
	.p2align 3
.L1017:
	call	__errno_location@PLT
	cmpl	$22, (%rax)
	movq	%rax, %rbp
	je	.L1022
.L909:
	leaq	96(%rsp), %rdi
	call	pipe@PLT
	testl	%eax, %eax
	je	.L938
	movq	_ZGVZN4asio15system_categoryEvE8instance@GOTPCREL(%rip), %r13
	movzbl	0(%r13), %eax
	testb	%al, %al
	je	.L911
.L1007:
	movq	_ZZN4asio15system_categoryEvE8instance@GOTPCREL(%rip), %r14
.L912:
	movl	0(%rbp), %eax
	movq	%r14, 72(%rsp)
	movl	%eax, 64(%rsp)
	testl	%eax, %eax
	jne	.L1023
.L910:
	movl	88(%rbx), %edx
	jmp	.L907
	.p2align 4,,10
	.p2align 3
.L1015:
	call	__errno_location@PLT
	cmpl	$22, (%rax)
	jne	.L903
	xorl	%esi, %esi
	movl	$1, %edi
	call	timerfd_create@PLT
	movl	%eax, %ebp
	cmpl	$-1, %eax
	je	.L903
	movl	%eax, %edi
	movl	$1, %edx
	movl	$2, %esi
	xorl	%eax, %eax
	call	fcntl@PLT
	jmp	.L903
	.p2align 4,,10
	.p2align 3
.L1013:
	call	__errno_location@PLT
	movq	%rax, %r13
	movl	(%rax), %eax
	subl	$22, %eax
	andl	$-17, %eax
	jne	.L897
	movl	$20000, %edi
	call	epoll_create@PLT
	movl	%eax, %r12d
	cmpl	$-1, %eax
	je	.L897
	movl	%eax, %edi
	movl	$1, %edx
	movl	$2, %esi
	xorl	%eax, %eax
	call	fcntl@PLT
	movl	%r12d, %ebp
	jmp	.L896
.L897:
	movq	_ZGVZN4asio15system_categoryEvE8instance@GOTPCREL(%rip), %r12
	movzbl	(%r12), %eax
	testb	%al, %al
	je	.L898
.L1006:
	movq	_ZZN4asio15system_categoryEvE8instance@GOTPCREL(%rip), %r14
.L899:
	movl	0(%r13), %eax
	movq	%r14, 72(%rsp)
	movl	%eax, 64(%rsp)
	testl	%eax, %eax
	je	.L896
	leaq	64(%rsp), %rdi
	leaq	.LC29(%rip), %rsi
	call	_ZN4asio6detail14do_throw_errorERKSt10error_codePKc@PLT
	.p2align 4,,10
	.p2align 3
.L938:
	movl	96(%rsp), %edi
	movl	$2048, %edx
	movl	$4, %esi
	xorl	%eax, %eax
	movl	%edi, 88(%rbx)
	call	fcntl@PLT
	movl	88(%rbx), %edi
	movl	$1, %edx
	xorl	%eax, %eax
	movl	$2, %esi
	call	fcntl@PLT
	movl	100(%rsp), %edi
	movl	$2048, %edx
	xorl	%eax, %eax
	movl	$4, %esi
	movl	%edi, 92(%rbx)
	call	fcntl@PLT
	movl	92(%rbx), %edi
	movl	$1, %edx
	xorl	%eax, %eax
	movl	$2, %esi
	call	fcntl@PLT
	jmp	.L910
.L898:
	movq	%r12, %rdi
	call	__cxa_guard_acquire@PLT
	testl	%eax, %eax
	je	.L1006
	movq	_ZZN4asio15system_categoryEvE8instance@GOTPCREL(%rip), %r14
	movq	_ZN4asio6detail15system_categoryD1Ev@GOTPCREL(%rip), %rdi
	leaq	__dso_handle(%rip), %rdx
	movq	%r14, %rsi
	call	__cxa_atexit@PLT
	movq	%r12, %rdi
	call	__cxa_guard_release@PLT
	jmp	.L899
.L1022:
	xorl	%edi, %edi
	xorl	%esi, %esi
	call	eventfd@PLT
	movd	%eax, %xmm2
	movl	%eax, %edi
	pshufd	$0xe0, %xmm2, %xmm0
	movq	%xmm0, 88(%rbx)
	cmpl	$-1, %eax
	je	.L909
	movl	$2048, %edx
	movl	$4, %esi
	xorl	%eax, %eax
	call	fcntl@PLT
	movl	88(%rbx), %edi
	movl	$1, %edx
	xorl	%eax, %eax
	movl	$2, %esi
	call	fcntl@PLT
	movl	88(%rbx), %edx
	cmpl	$-1, %edx
	jne	.L907
	jmp	.L909
	.p2align 4,,10
	.p2align 3
.L916:
	movq	$300, 48(%rsp)
	xorl	%r8d, %r8d
	xorl	%eax, %eax
	jmp	.L928
.L911:
	movq	%r13, %rdi
	call	__cxa_guard_acquire@PLT
	testl	%eax, %eax
	je	.L1007
	movq	_ZZN4asio15system_categoryEvE8instance@GOTPCREL(%rip), %r14
	movq	_ZN4asio6detail15system_categoryD1Ev@GOTPCREL(%rip), %rdi
	leaq	__dso_handle(%rip), %rdx
	movq	%r14, %rsi
	call	__cxa_atexit@PLT
	movq	%r13, %rdi
	call	__cxa_guard_release@PLT
	jmp	.L912
.L1011:
	call	__stack_chk_fail@PLT
.L1023:
	leaq	64(%rsp), %rdi
	leaq	.LC31(%rip), %rsi
	call	_ZN4asio6detail14do_throw_errorERKSt10error_codePKc@PLT
.L947:
	endbr64
	movq	%rax, %rbp
.L937:
	movq	8(%rsp), %rdi
	call	pthread_mutex_unlock@PLT
	movq	%rbp, %rdi
	call	_Unwind_Resume@PLT
.LEHE24:
	.cfi_endproc
.LFE3470:
	.section	.gcc_except_table
.LLSDA3470:
	.byte	0xff
	.byte	0xff
	.byte	0x1
	.uleb128 .LLSDACSE3470-.LLSDACSB3470
.LLSDACSB3470:
	.uleb128 .LEHB22-.LFB3470
	.uleb128 .LEHE22-.LEHB22
	.uleb128 0
	.uleb128 0
	.uleb128 .LEHB23-.LFB3470
	.uleb128 .LEHE23-.LEHB23
	.uleb128 .L947-.LFB3470
	.uleb128 0
	.uleb128 .LEHB24-.LFB3470
	.uleb128 .LEHE24-.LEHB24
	.uleb128 0
	.uleb128 0
.LLSDACSE3470:
	.section	.text._ZN4asio6detail13epoll_reactor12fork_serviceENS_10io_service10fork_eventE,"axG",@progbits,_ZN4asio6detail13epoll_reactor12fork_serviceENS_10io_service10fork_eventE,comdat
	.size	_ZN4asio6detail13epoll_reactor12fork_serviceENS_10io_service10fork_eventE, .-_ZN4asio6detail13epoll_reactor12fork_serviceENS_10io_service10fork_eventE
	.text
	.align 2
	.p2align 4
	.globl	_ZN7asiopal10ThreadPool8ShutdownEv
	.type	_ZN7asiopal10ThreadPool8ShutdownEv, @function
_ZN7asiopal10ThreadPool8ShutdownEv:
.LFB7084:
	.cfi_startproc
	endbr64
	cmpb	$0, 112(%rdi)
	je	.L1033
	ret
	.p2align 4,,10
	.p2align 3
.L1033:
	pushq	%rbp
	.cfi_def_cfa_offset 16
	.cfi_offset 6, -16
	movq	%rdi, %rbp
	pushq	%rbx
	.cfi_def_cfa_offset 24
	.cfi_offset 3, -24
	subq	$8, %rsp
	.cfi_def_cfa_offset 32
	cmpb	$0, 136(%rdi)
	movb	$1, 112(%rdi)
	jne	.L1034
.L1026:
	movq	184(%rbp), %rbx
	movq	192(%rbp), %rbp
	cmpq	%rbp, %rbx
	je	.L1024
	.p2align 4,,10
	.p2align 3
.L1027:
	movq	(%rbx), %rdi
	addq	$8, %rbx
	call	_ZNSt6thread4joinEv@PLT
	cmpq	%rbx, %rbp
	jne	.L1027
.L1024:
	addq	$8, %rsp
	.cfi_remember_state
	.cfi_def_cfa_offset 24
	popq	%rbx
	.cfi_def_cfa_offset 16
	popq	%rbp
	.cfi_def_cfa_offset 8
	ret
	.p2align 4,,10
	.p2align 3
.L1034:
	.cfi_restore_state
	movq	120(%rdi), %rax
	leaq	144(%rdi), %rdx
	movq	88(%rax), %rdi
	leaq	40(%rax), %rsi
	call	_ZN4asio6detail13epoll_reactor12cancel_timerINS0_18chrono_time_traitsINSt6chrono3_V212steady_clockENS_11wait_traitsIS6_EEEEEEmRNS0_11timer_queueIT_EERNSC_14per_timer_dataEm.constprop.0.isra.0
	movb	$0, 136(%rbp)
	jmp	.L1026
	.cfi_endproc
.LFE7084:
	.size	_ZN7asiopal10ThreadPool8ShutdownEv, .-_ZN7asiopal10ThreadPool8ShutdownEv
	.align 2
	.p2align 4
	.globl	_ZN7asiopal10ThreadPoolD2Ev
	.type	_ZN7asiopal10ThreadPoolD2Ev, @function
_ZN7asiopal10ThreadPoolD2Ev:
.LFB7082:
	.cfi_startproc
	.cfi_personality 0x9b,DW.ref.__gxx_personality_v0
	.cfi_lsda 0x1b,.LLSDA7082
	endbr64
	pushq	%r13
	.cfi_def_cfa_offset 16
	.cfi_offset 13, -16
	pushq	%r12
	.cfi_def_cfa_offset 24
	.cfi_offset 12, -24
	pushq	%rbp
	.cfi_def_cfa_offset 32
	.cfi_offset 6, -32
	pushq	%rbx
	.cfi_def_cfa_offset 40
	.cfi_offset 3, -40
	movq	%rdi, %rbx
	subq	$40, %rsp
	.cfi_def_cfa_offset 80
	movq	%fs:40, %rax
	movq	%rax, 24(%rsp)
	xorl	%eax, %eax
	call	_ZN7asiopal10ThreadPool8ShutdownEv@PLT
	movq	184(%rbx), %r13
	movq	192(%rbx), %rbp
	cmpq	%rbp, %r13
	je	.L1036
	movq	%r13, %r12
	.p2align 4,,10
	.p2align 3
.L1039:
	movq	(%r12), %rdi
	testq	%rdi, %rdi
	je	.L1037
	cmpq	$0, (%rdi)
	jne	.L1041
	movl	$8, %esi
	call	_ZdlPvm@PLT
.L1037:
	addq	$8, %r12
	cmpq	%r12, %rbp
	jne	.L1039
	movq	184(%rbx), %rbp
	movq	%r13, 192(%rbx)
	cmpq	%rbp, %r13
	je	.L1036
	.p2align 4,,10
	.p2align 3
.L1042:
	movq	0(%rbp), %rdi
	testq	%rdi, %rdi
	je	.L1040
	cmpq	$0, (%rdi)
	jne	.L1041
	movl	$8, %esi
	call	_ZdlPvm@PLT
.L1040:
	addq	$8, %rbp
	cmpq	%rbp, %r13
	jne	.L1042
	movq	184(%rbx), %rbp
.L1036:
	testq	%rbp, %rbp
	je	.L1043
	movq	200(%rbx), %rsi
	movq	%rbp, %rdi
	subq	%rbp, %rsi
	call	_ZdlPvm@PLT
.L1043:
	call	_ZNSt3_V215system_categoryEv@PLT
	cmpb	$0, 136(%rbx)
	movq	120(%rbx), %r12
	movq	%rax, %rbp
	je	.L1044
	movq	88(%r12), %rdi
	leaq	144(%rbx), %rdx
	leaq	40(%r12), %rsi
	call	_ZN4asio6detail13epoll_reactor12cancel_timerINS0_18chrono_time_traitsINSt6chrono3_V212steady_clockENS_11wait_traitsIS6_EEEEEEmRNS0_11timer_queueIT_EERNSC_14per_timer_dataEm.constprop.0.isra.0
	movb	$0, 136(%rbx)
.L1044:
	movq	144(%rbx), %rsi
	movq	%rsp, %r12
	testq	%rsi, %rsi
	jne	.L1045
	jmp	.L1049
	.p2align 4,,10
	.p2align 3
.L1048:
	movq	$0, (%rsi)
	movq	8(%rsi), %rax
	xorl	%ecx, %ecx
	movq	%r12, %rdx
	movl	$0, (%rsp)
	xorl	%edi, %edi
	movq	%rbp, 8(%rsp)
	call	*%rax
	movq	144(%rbx), %rsi
	testq	%rsi, %rsi
	je	.L1049
.L1045:
	movq	(%rsi), %rax
	movq	%rax, 144(%rbx)
	testq	%rax, %rax
	jne	.L1048
	movq	$0, 152(%rbx)
	jmp	.L1048
	.p2align 4,,10
	.p2align 3
.L1049:
	movq	96(%rbx), %rax
	testq	%rax, %rax
	je	.L1047
	leaq	80(%rbx), %rdi
	movl	$3, %edx
	movq	%rdi, %rsi
	call	*%rax
.L1047:
	movq	64(%rbx), %rax
	testq	%rax, %rax
	je	.L1051
	leaq	48(%rbx), %rdi
	movl	$3, %edx
	movq	%rdi, %rsi
	call	*%rax
.L1051:
	movq	40(%rbx), %rbp
	testq	%rbp, %rbp
	je	.L1053
	movq	__libc_single_threaded@GOTPCREL(%rip), %r12
	cmpb	$0, (%r12)
	je	.L1054
	movl	8(%rbp), %eax
	leal	-1(%rax), %edx
	movl	%edx, 8(%rbp)
.L1055:
	cmpl	$1, %eax
	je	.L1100
.L1053:
	movq	24(%rbx), %rbp
	testq	%rbp, %rbp
	je	.L1060
	movq	__libc_single_threaded@GOTPCREL(%rip), %r12
	cmpb	$0, (%r12)
	je	.L1061
	movl	8(%rbp), %eax
	leal	-1(%rax), %edx
	movl	%edx, 8(%rbp)
.L1062:
	cmpl	$1, %eax
	je	.L1101
.L1060:
	movq	8(%rbx), %rbp
	testq	%rbp, %rbp
	je	.L1035
	movq	__libc_single_threaded@GOTPCREL(%rip), %r12
	cmpb	$0, (%r12)
	je	.L1068
	movl	8(%rbp), %eax
	leal	-1(%rax), %edx
	movl	%edx, 8(%rbp)
.L1069:
	cmpl	$1, %eax
	je	.L1102
.L1035:
	movq	24(%rsp), %rax
	subq	%fs:40, %rax
	jne	.L1099
	addq	$40, %rsp
	.cfi_remember_state
	.cfi_def_cfa_offset 40
	popq	%rbx
	.cfi_def_cfa_offset 32
	popq	%rbp
	.cfi_def_cfa_offset 24
	popq	%r12
	.cfi_def_cfa_offset 16
	popq	%r13
	.cfi_def_cfa_offset 8
	ret
	.p2align 4,,10
	.p2align 3
.L1100:
	.cfi_restore_state
	movq	0(%rbp), %rax
	movq	%rbp, %rdi
	call	*16(%rax)
	cmpb	$0, (%r12)
	je	.L1057
	movl	12(%rbp), %eax
	leal	-1(%rax), %edx
	movl	%edx, 12(%rbp)
.L1058:
	cmpl	$1, %eax
	jne	.L1053
	movq	0(%rbp), %rax
	movq	%rbp, %rdi
	call	*24(%rax)
	jmp	.L1053
	.p2align 4,,10
	.p2align 3
.L1101:
	movq	0(%rbp), %rax
	movq	%rbp, %rdi
	call	*16(%rax)
	cmpb	$0, (%r12)
	je	.L1064
	movl	12(%rbp), %eax
	leal	-1(%rax), %edx
	movl	%edx, 12(%rbp)
.L1065:
	cmpl	$1, %eax
	jne	.L1060
	movq	0(%rbp), %rax
	movq	%rbp, %rdi
	call	*24(%rax)
	jmp	.L1060
	.p2align 4,,10
	.p2align 3
.L1102:
	movq	0(%rbp), %rax
	movq	%rbp, %rdi
	call	*16(%rax)
	cmpb	$0, (%r12)
	je	.L1071
	movl	12(%rbp), %eax
	leal	-1(%rax), %edx
	movl	%edx, 12(%rbp)
.L1072:
	cmpl	$1, %eax
	jne	.L1035
	movq	24(%rsp), %rax
	subq	%fs:40, %rax
	jne	.L1099
	movq	0(%rbp), %rax
	movq	%rbp, %rdi
	movq	24(%rax), %rax
	addq	$40, %rsp
	.cfi_remember_state
	.cfi_def_cfa_offset 40
	popq	%rbx
	.cfi_def_cfa_offset 32
	popq	%rbp
	.cfi_def_cfa_offset 24
	popq	%r12
	.cfi_def_cfa_offset 16
	popq	%r13
	.cfi_def_cfa_offset 8
	jmp	*%rax
	.p2align 4,,10
	.p2align 3
.L1068:
	.cfi_restore_state
	movl	$-1, %eax
	lock xaddl	%eax, 8(%rbp)
	jmp	.L1069
	.p2align 4,,10
	.p2align 3
.L1054:
	movl	$-1, %eax
	lock xaddl	%eax, 8(%rbp)
	jmp	.L1055
	.p2align 4,,10
	.p2align 3
.L1061:
	movl	$-1, %eax
	lock xaddl	%eax, 8(%rbp)
	jmp	.L1062
.L1057:
	movl	$-1, %eax
	lock xaddl	%eax, 12(%rbp)
	jmp	.L1058
.L1064:
	movl	$-1, %eax
	lock xaddl	%eax, 12(%rbp)
	jmp	.L1065
.L1071:
	movl	$-1, %eax
	lock xaddl	%eax, 12(%rbp)
	jmp	.L1072
.L1041:
	call	_ZSt9terminatev@PLT
.L1099:
	call	__stack_chk_fail@PLT
	.cfi_endproc
.LFE7082:
	.section	.gcc_except_table
.LLSDA7082:
	.byte	0xff
	.byte	0xff
	.byte	0x1
	.uleb128 .LLSDACSE7082-.LLSDACSB7082
.LLSDACSB7082:
.LLSDACSE7082:
	.text
	.size	_ZN7asiopal10ThreadPoolD2Ev, .-_ZN7asiopal10ThreadPoolD2Ev
	.globl	_ZN7asiopal10ThreadPoolD1Ev
	.set	_ZN7asiopal10ThreadPoolD1Ev,_ZN7asiopal10ThreadPoolD2Ev
	.section	.text._ZN4asio6detail11object_poolINS0_13epoll_reactor16descriptor_stateEED2Ev,"axG",@progbits,_ZN4asio6detail11object_poolINS0_13epoll_reactor16descriptor_stateEED5Ev,comdat
	.align 2
	.p2align 4
	.weak	_ZN4asio6detail11object_poolINS0_13epoll_reactor16descriptor_stateEED2Ev
	.type	_ZN4asio6detail11object_poolINS0_13epoll_reactor16descriptor_stateEED2Ev, @function
_ZN4asio6detail11object_poolINS0_13epoll_reactor16descriptor_stateEED2Ev:
.LFB7449:
	.cfi_startproc
	.cfi_personality 0x9b,DW.ref.__gxx_personality_v0
	.cfi_lsda 0x1b,.LLSDA7449
	endbr64
	pushq	%r15
	.cfi_def_cfa_offset 16
	.cfi_offset 15, -16
	pushq	%r14
	.cfi_def_cfa_offset 24
	.cfi_offset 14, -24
	pushq	%r13
	.cfi_def_cfa_offset 32
	.cfi_offset 13, -32
	pushq	%r12
	.cfi_def_cfa_offset 40
	.cfi_offset 12, -40
	pushq	%rbp
	.cfi_def_cfa_offset 48
	.cfi_offset 6, -48
	pushq	%rbx
	.cfi_def_cfa_offset 56
	.cfi_offset 3, -56
	subq	$56, %rsp
	.cfi_def_cfa_offset 112
	movq	(%rdi), %r13
	movq	%rdi, 8(%rsp)
	movq	%fs:40, %rax
	movq	%rax, 40(%rsp)
	xorl	%eax, %eax
	testq	%r13, %r13
	je	.L1104
	leaq	16(%rsp), %rbp
	.p2align 4,,10
	.p2align 3
.L1110:
	movq	%r13, %r12
	movq	24(%r13), %r13
	leaq	128(%r12), %r15
	leaq	80(%r12), %r14
.L1109:
	movq	(%r15), %rsi
	testq	%rsi, %rsi
	movq	%rsi, (%rsp)
	je	.L1105
	call	_ZNSt3_V215system_categoryEv@PLT
	movq	(%rsp), %rsi
	movq	%rax, %rbx
	jmp	.L1108
	.p2align 4,,10
	.p2align 3
.L1106:
	movq	$0, (%rsi)
	movq	8(%rsi), %rax
	xorl	%ecx, %ecx
	movq	%rbp, %rdx
	movl	$0, 16(%rsp)
	xorl	%edi, %edi
	movq	%rbx, 24(%rsp)
	call	*%rax
	movq	(%r15), %rsi
	testq	%rsi, %rsi
	je	.L1105
.L1108:
	movq	(%rsi), %rax
	movq	%rax, (%r15)
	testq	%rax, %rax
	jne	.L1106
	movq	$0, 8(%r15)
	jmp	.L1106
	.p2align 4,,10
	.p2align 3
.L1105:
	subq	$16, %r15
	cmpq	%r14, %r15
	jne	.L1109
	leaq	40(%r12), %rdi
	call	pthread_mutex_destroy@PLT
	movl	$152, %esi
	movq	%r12, %rdi
	call	_ZdlPvm@PLT
	testq	%r13, %r13
	jne	.L1110
.L1104:
	movq	8(%rsp), %rax
	movq	8(%rax), %r13
	testq	%r13, %r13
	je	.L1103
	leaq	16(%rsp), %rbp
	.p2align 4,,10
	.p2align 3
.L1117:
	movq	%r13, %r12
	movq	24(%r13), %r13
	leaq	128(%r12), %r15
	leaq	80(%r12), %r14
.L1116:
	movq	(%r15), %rsi
	testq	%rsi, %rsi
	movq	%rsi, (%rsp)
	je	.L1112
	call	_ZNSt3_V215system_categoryEv@PLT
	movq	(%rsp), %rsi
	movq	%rax, %rbx
	jmp	.L1115
	.p2align 4,,10
	.p2align 3
.L1113:
	movq	$0, (%rsi)
	movq	8(%rsi), %rax
	xorl	%ecx, %ecx
	movq	%rbp, %rdx
	movl	$0, 16(%rsp)
	xorl	%edi, %edi
	movq	%rbx, 24(%rsp)
	call	*%rax
	movq	(%r15), %rsi
	testq	%rsi, %rsi
	je	.L1112
.L1115:
	movq	(%rsi), %rax
	movq	%rax, (%r15)
	testq	%rax, %rax
	jne	.L1113
	movq	$0, 8(%r15)
	jmp	.L1113
	.p2align 4,,10
	.p2align 3
.L1112:
	subq	$16, %r15
	cmpq	%r14, %r15
	jne	.L1116
	leaq	40(%r12), %rdi
	call	pthread_mutex_destroy@PLT
	movl	$152, %esi
	movq	%r12, %rdi
	call	_ZdlPvm@PLT
	testq	%r13, %r13
	jne	.L1117
.L1103:
	movq	40(%rsp), %rax
	subq	%fs:40, %rax
	jne	.L1150
	addq	$56, %rsp
	.cfi_remember_state
	.cfi_def_cfa_offset 56
	popq	%rbx
	.cfi_def_cfa_offset 48
	popq	%rbp
	.cfi_def_cfa_offset 40
	popq	%r12
	.cfi_def_cfa_offset 32
	popq	%r13
	.cfi_def_cfa_offset 24
	popq	%r14
	.cfi_def_cfa_offset 16
	popq	%r15
	.cfi_def_cfa_offset 8
	ret
.L1150:
	.cfi_restore_state
	call	__stack_chk_fail@PLT
	.cfi_endproc
.LFE7449:
	.section	.gcc_except_table
.LLSDA7449:
	.byte	0xff
	.byte	0xff
	.byte	0x1
	.uleb128 .LLSDACSE7449-.LLSDACSB7449
.LLSDACSB7449:
.LLSDACSE7449:
	.section	.text._ZN4asio6detail11object_poolINS0_13epoll_reactor16descriptor_stateEED2Ev,"axG",@progbits,_ZN4asio6detail11object_poolINS0_13epoll_reactor16descriptor_stateEED5Ev,comdat
	.size	_ZN4asio6detail11object_poolINS0_13epoll_reactor16descriptor_stateEED2Ev, .-_ZN4asio6detail11object_poolINS0_13epoll_reactor16descriptor_stateEED2Ev
	.weak	_ZN4asio6detail11object_poolINS0_13epoll_reactor16descriptor_stateEED1Ev
	.set	_ZN4asio6detail11object_poolINS0_13epoll_reactor16descriptor_stateEED1Ev,_ZN4asio6detail11object_poolINS0_13epoll_reactor16descriptor_stateEED2Ev
	.section	.text._ZNSt16_Sp_counted_baseILN9__gnu_cxx12_Lock_policyE2EE10_M_releaseEv,"axG",@progbits,_ZNSt16_Sp_counted_baseILN9__gnu_cxx12_Lock_policyE2EE10_M_releaseEv,comdat
	.align 2
	.p2align 4
	.weak	_ZNSt16_Sp_counted_baseILN9__gnu_cxx12_Lock_policyE2EE10_M_releaseEv
	.type	_ZNSt16_Sp_counted_baseILN9__gnu_cxx12_Lock_policyE2EE10_M_releaseEv, @function
_ZNSt16_Sp_counted_baseILN9__gnu_cxx12_Lock_policyE2EE10_M_releaseEv:
.LFB8039:
	.cfi_startproc
	endbr64
	pushq	%rbp
	.cfi_def_cfa_offset 16
	.cfi_offset 6, -16
	movq	%rdi, %rbp
	pushq	%rbx
	.cfi_def_cfa_offset 24
	.cfi_offset 3, -24
	subq	$8, %rsp
	.cfi_def_cfa_offset 32
	movq	__libc_single_threaded@GOTPCREL(%rip), %rbx
	cmpb	$0, (%rbx)
	je	.L1152
	movl	8(%rdi), %eax
	leal	-1(%rax), %edx
	movl	%edx, 8(%rdi)
.L1153:
	cmpl	$1, %eax
	je	.L1160
.L1151:
	addq	$8, %rsp
	.cfi_remember_state
	.cfi_def_cfa_offset 24
	popq	%rbx
	.cfi_def_cfa_offset 16
	popq	%rbp
	.cfi_def_cfa_offset 8
	ret
	.p2align 4,,10
	.p2align 3
.L1160:
	.cfi_restore_state
	movq	0(%rbp), %rax
	movq	%rbp, %rdi
	call	*16(%rax)
	cmpb	$0, (%rbx)
	je	.L1156
	movl	12(%rbp), %eax
	leal	-1(%rax), %edx
	movl	%edx, 12(%rbp)
.L1157:
	cmpl	$1, %eax
	jne	.L1151
	movq	0(%rbp), %rax
	movq	%rbp, %rdi
	movq	24(%rax), %rax
	addq	$8, %rsp
	.cfi_remember_state
	.cfi_def_cfa_offset 24
	popq	%rbx
	.cfi_def_cfa_offset 16
	popq	%rbp
	.cfi_def_cfa_offset 8
	jmp	*%rax
	.p2align 4,,10
	.p2align 3
.L1152:
	.cfi_restore_state
	movl	$-1, %eax
	lock xaddl	%eax, 8(%rdi)
	jmp	.L1153
	.p2align 4,,10
	.p2align 3
.L1156:
	movl	$-1, %eax
	lock xaddl	%eax, 12(%rbp)
	jmp	.L1157
	.cfi_endproc
.LFE8039:
	.size	_ZNSt16_Sp_counted_baseILN9__gnu_cxx12_Lock_policyE2EE10_M_releaseEv, .-_ZNSt16_Sp_counted_baseILN9__gnu_cxx12_Lock_policyE2EE10_M_releaseEv
	.section	.rodata._ZN4asio6detail16service_registry6createINS0_13epoll_reactorEEEPNS_10io_service7serviceERS4_.str1.1,"aMS",@progbits,1
.LC33:
	.string	"mutex"
	.section	.text._ZN4asio6detail16service_registry6createINS0_13epoll_reactorEEEPNS_10io_service7serviceERS4_,"axG",@progbits,_ZN4asio6detail16service_registry6createINS0_13epoll_reactorEEEPNS_10io_service7serviceERS4_,comdat
	.align 2
	.p2align 4
	.weak	_ZN4asio6detail16service_registry6createINS0_13epoll_reactorEEEPNS_10io_service7serviceERS4_
	.type	_ZN4asio6detail16service_registry6createINS0_13epoll_reactorEEEPNS_10io_service7serviceERS4_, @function
_ZN4asio6detail16service_registry6createINS0_13epoll_reactorEEEPNS_10io_service7serviceERS4_:
.LFB8453:
	.cfi_startproc
	.cfi_personality 0x9b,DW.ref.__gxx_personality_v0
	.cfi_lsda 0x1b,.LLSDA8453
	endbr64
	pushq	%r15
	.cfi_def_cfa_offset 16
	.cfi_offset 15, -16
	pushq	%r14
	.cfi_def_cfa_offset 24
	.cfi_offset 14, -24
	pushq	%r13
	.cfi_def_cfa_offset 32
	.cfi_offset 13, -32
	pushq	%r12
	.cfi_def_cfa_offset 40
	.cfi_offset 12, -40
	pushq	%rbp
	.cfi_def_cfa_offset 48
	.cfi_offset 6, -48
	pushq	%rbx
	.cfi_def_cfa_offset 56
	.cfi_offset 3, -56
	movq	%rdi, %rbx
	movl	$176, %edi
	subq	$72, %rsp
	.cfi_def_cfa_offset 128
	movq	%fs:40, %rax
	movq	%rax, 56(%rsp)
	xorl	%eax, %eax
.LEHB25:
	call	_Znwm@PLT
.LEHE25:
	xorl	%esi, %esi
	movq	$0, 8(%rax)
	movq	%rax, %r12
	movq	$0, 16(%rax)
	leaq	48(%r12), %r13
	movq	%rbx, 24(%rax)
	movq	%r13, %rdi
	movq	$0, 32(%rax)
	movq	_ZTVN4asio6detail13epoll_reactorE@GOTPCREL(%rip), %rax
	addq	$16, %rax
	movq	%rax, (%r12)
	movq	8(%rbx), %rax
	movq	%rax, 40(%r12)
	call	pthread_mutex_init@PLT
	movq	_ZGVZN4asio15system_categoryEvE8instance@GOTPCREL(%rip), %rbp
	movl	%eax, %r14d
	movzbl	0(%rbp), %eax
	testb	%al, %al
	je	.L1162
.L1243:
	movq	_ZZN4asio15system_categoryEvE8instance@GOTPCREL(%rip), %rbx
.L1163:
	movl	%r14d, 32(%rsp)
	movq	%rbx, 40(%rsp)
	testl	%r14d, %r14d
	jne	.L1244
	movl	$526336, %esi
	xorl	%edi, %edi
	leaq	88(%r12), %r14
	call	eventfd@PLT
	movd	%eax, %xmm1
	pshufd	$0xe0, %xmm1, %xmm0
	movq	%xmm0, 88(%r12)
	cmpl	$-1, %eax
	je	.L1245
.L1167:
	movl	$524288, %edi
	call	epoll_create1@PLT
	movl	%eax, %r15d
	cmpl	$-1, %eax
	je	.L1246
.L1176:
	movl	$524288, %esi
	movl	$1, %edi
	movl	%r15d, 96(%r12)
	call	timerfd_create@PLT
	movl	%eax, %edx
	cmpl	$-1, %eax
	je	.L1247
.L1182:
	leaq	120(%r12), %r15
	xorl	%esi, %esi
	movl	%edx, 100(%r12)
	movq	%r15, %rdi
	movb	$0, 112(%r12)
	movq	$0, 104(%r12)
	call	pthread_mutex_init@PLT
	movl	%eax, %ecx
	movzbl	0(%rbp), %eax
	testb	%al, %al
	je	.L1248
.L1186:
	movl	%ecx, 32(%rsp)
	movq	%rbx, 40(%rsp)
	testl	%ecx, %ecx
	jne	.L1249
	movq	%r14, 36(%rsp)
	movl	88(%r12), %edx
	leaq	32(%rsp), %r14
	pxor	%xmm0, %xmm0
	movl	96(%r12), %edi
	movl	$1, %esi
	movq	%r14, %rcx
	movl	$-2147483639, 32(%rsp)
	movups	%xmm0, 160(%r12)
	leaq	160(%r12), %rbp
	call	epoll_ctl@PLT
	movl	92(%r12), %edi
	leaq	24(%rsp), %rsi
	movl	$8, %edx
	movq	$1, 24(%rsp)
.LEHB26:
	call	write@PLT
.LEHE26:
	movl	100(%r12), %edx
	cmpl	$-1, %edx
	je	.L1161
	movl	96(%r12), %edi
	leaq	100(%r12), %rax
	movq	%r14, %rcx
	movl	$1, %esi
	movl	$9, 32(%rsp)
	movq	%rax, 36(%rsp)
	call	epoll_ctl@PLT
.L1161:
	movq	56(%rsp), %rax
	subq	%fs:40, %rax
	jne	.L1250
	addq	$72, %rsp
	.cfi_remember_state
	.cfi_def_cfa_offset 56
	movq	%r12, %rax
	popq	%rbx
	.cfi_def_cfa_offset 48
	popq	%rbp
	.cfi_def_cfa_offset 40
	popq	%r12
	.cfi_def_cfa_offset 32
	popq	%r13
	.cfi_def_cfa_offset 24
	popq	%r14
	.cfi_def_cfa_offset 16
	popq	%r15
	.cfi_def_cfa_offset 8
	ret
	.p2align 4,,10
	.p2align 3
.L1246:
	.cfi_restore_state
	call	__errno_location@PLT
	movq	%rax, %r8
	movl	(%rax), %eax
	subl	$22, %eax
	andl	$-17, %eax
	jne	.L1177
	movl	$20000, %edi
	movq	%r8, (%rsp)
	call	epoll_create@PLT
	movq	(%rsp), %r8
	cmpl	$-1, %eax
	movl	%eax, 12(%rsp)
	movl	%eax, %edi
	je	.L1177
	movl	$1, %edx
	movl	$2, %esi
	xorl	%eax, %eax
.LEHB27:
	call	fcntl@PLT
.LEHE27:
	movl	12(%rsp), %r15d
	jmp	.L1176
	.p2align 4,,10
	.p2align 3
.L1245:
	call	__errno_location@PLT
	cmpl	$22, (%rax)
	movq	%rax, %r15
	je	.L1251
.L1169:
	leaq	48(%rsp), %rdi
	call	pipe@PLT
	testl	%eax, %eax
	jne	.L1252
	movl	48(%rsp), %edi
	movl	$2048, %edx
	movl	$4, %esi
	xorl	%eax, %eax
	movl	%edi, 88(%r12)
.LEHB28:
	call	fcntl@PLT
	movl	88(%r12), %edi
	movl	$1, %edx
	movl	$2, %esi
	xorl	%eax, %eax
	call	fcntl@PLT
	movl	52(%rsp), %edi
	movl	$2048, %edx
	movl	$4, %esi
	xorl	%eax, %eax
	movl	%edi, 92(%r12)
	call	fcntl@PLT
	movl	92(%r12), %edi
	movl	$1, %edx
	movl	$2, %esi
	xorl	%eax, %eax
	call	fcntl@PLT
.LEHE28:
	jmp	.L1167
	.p2align 4,,10
	.p2align 3
.L1247:
	movl	%eax, (%rsp)
	call	__errno_location@PLT
	movl	(%rsp), %edx
	cmpl	$22, (%rax)
	jne	.L1182
	xorl	%esi, %esi
	movl	$1, %edi
	call	timerfd_create@PLT
	movl	(%rsp), %edx
	cmpl	$-1, %eax
	movl	%eax, %r15d
	je	.L1182
	movl	%eax, %edi
	movl	$1, %edx
	movl	$2, %esi
	xorl	%eax, %eax
.LEHB29:
	call	fcntl@PLT
	movl	%r15d, %edx
	jmp	.L1182
	.p2align 4,,10
	.p2align 3
.L1162:
	movq	%rbp, %rdi
	call	__cxa_guard_acquire@PLT
	testl	%eax, %eax
	je	.L1243
	movq	_ZZN4asio15system_categoryEvE8instance@GOTPCREL(%rip), %rbx
	movq	_ZN4asio6detail15system_categoryD1Ev@GOTPCREL(%rip), %rdi
	leaq	__dso_handle(%rip), %rdx
	movq	%rbx, %rsi
	call	__cxa_atexit@PLT
	movq	%rbp, %rdi
	call	__cxa_guard_release@PLT
	jmp	.L1163
	.p2align 4,,10
	.p2align 3
.L1248:
	movq	%rbp, %rdi
	movl	%ecx, (%rsp)
	call	__cxa_guard_acquire@PLT
	movl	(%rsp), %ecx
	testl	%eax, %eax
	je	.L1186
	movq	_ZN4asio6detail15system_categoryD1Ev@GOTPCREL(%rip), %rdi
	leaq	__dso_handle(%rip), %rdx
	movq	%rbx, %rsi
	call	__cxa_atexit@PLT
	movq	%rbp, %rdi
	call	__cxa_guard_release@PLT
	movl	(%rsp), %ecx
	jmp	.L1186
	.p2align 4,,10
	.p2align 3
.L1177:
	movzbl	0(%rbp), %eax
	testb	%al, %al
	je	.L1253
.L1179:
	movl	(%r8), %eax
	movq	%rbx, 40(%rsp)
	movl	%eax, 32(%rsp)
	testl	%eax, %eax
	je	.L1176
	leaq	32(%rsp), %rdi
	leaq	.LC29(%rip), %rsi
	call	_ZN4asio6detail14do_throw_errorERKSt10error_codePKc@PLT
.LEHE29:
	.p2align 4,,10
	.p2align 3
.L1252:
	movzbl	0(%rbp), %eax
	testb	%al, %al
	je	.L1254
.L1173:
	movl	(%r15), %eax
	movq	%rbx, 40(%rsp)
	movl	%eax, 32(%rsp)
	testl	%eax, %eax
	je	.L1167
	leaq	32(%rsp), %rdi
	leaq	.LC31(%rip), %rsi
.LEHB30:
	call	_ZN4asio6detail14do_throw_errorERKSt10error_codePKc@PLT
	.p2align 4,,10
	.p2align 3
.L1253:
	movq	%rbp, %rdi
	movq	%r8, (%rsp)
	call	__cxa_guard_acquire@PLT
	movq	(%rsp), %r8
	testl	%eax, %eax
	je	.L1179
	movq	_ZN4asio6detail15system_categoryD1Ev@GOTPCREL(%rip), %rdi
	leaq	__dso_handle(%rip), %rdx
	movq	%rbx, %rsi
	call	__cxa_atexit@PLT
	movq	%rbp, %rdi
	call	__cxa_guard_release@PLT
	movq	(%rsp), %r8
	jmp	.L1179
	.p2align 4,,10
	.p2align 3
.L1251:
	xorl	%edi, %edi
	xorl	%esi, %esi
	call	eventfd@PLT
	movd	%eax, %xmm2
	movl	%eax, %edi
	pshufd	$0xe0, %xmm2, %xmm0
	movq	%xmm0, 88(%r12)
	cmpl	$-1, %eax
	je	.L1169
	movl	$2048, %edx
	movl	$4, %esi
	xorl	%eax, %eax
	call	fcntl@PLT
	movl	88(%r12), %edi
	movl	$1, %edx
	movl	$2, %esi
	xorl	%eax, %eax
	call	fcntl@PLT
.LEHE30:
	cmpl	$-1, 88(%r12)
	jne	.L1167
	jmp	.L1169
	.p2align 4,,10
	.p2align 3
.L1254:
	movq	%rbp, %rdi
	call	__cxa_guard_acquire@PLT
	testl	%eax, %eax
	je	.L1173
	movq	_ZN4asio6detail15system_categoryD1Ev@GOTPCREL(%rip), %rdi
	leaq	__dso_handle(%rip), %rdx
	movq	%rbx, %rsi
	call	__cxa_atexit@PLT
	movq	%rbp, %rdi
	call	__cxa_guard_release@PLT
	jmp	.L1173
.L1250:
	call	__stack_chk_fail@PLT
.L1249:
	leaq	32(%rsp), %rdi
	leaq	.LC33(%rip), %rsi
.LEHB31:
	call	_ZN4asio6detail14do_throw_errorERKSt10error_codePKc@PLT
.LEHE31:
.L1244:
	leaq	32(%rsp), %rdi
	leaq	.LC33(%rip), %rsi
.LEHB32:
	call	_ZN4asio6detail14do_throw_errorERKSt10error_codePKc@PLT
.LEHE32:
.L1201:
	endbr64
	movq	%rax, %rbx
	jmp	.L1194
.L1203:
	endbr64
	movq	%rax, %rbx
.L1190:
	movq	%rbp, %rdi
	call	_ZN4asio6detail11object_poolINS0_13epoll_reactor16descriptor_stateEED1Ev@PLT
	movq	%r15, %rdi
	call	pthread_mutex_destroy@PLT
.L1191:
	movl	92(%r12), %r8d
	movl	88(%r12), %edi
	cmpl	$-1, %r8d
	jne	.L1255
.L1192:
	cmpl	$-1, %edi
	je	.L1194
	call	close@PLT
.L1194:
	movq	%r13, %rdi
	movq	%rbx, %rbp
	call	pthread_mutex_destroy@PLT
.L1195:
	movq	%r12, %rdi
	movl	$176, %esi
	call	_ZdlPvm@PLT
	movq	%rbp, %rdi
.LEHB33:
	call	_Unwind_Resume@PLT
.LEHE33:
.L1255:
	cmpl	%r8d, %edi
	je	.L1192
	movl	%r8d, %edi
	call	close@PLT
	movl	88(%r12), %edi
	jmp	.L1192
.L1202:
	endbr64
	movq	%rax, %rbx
	jmp	.L1191
.L1200:
	endbr64
	movq	%rax, %rbp
	jmp	.L1195
	.cfi_endproc
.LFE8453:
	.section	.gcc_except_table
.LLSDA8453:
	.byte	0xff
	.byte	0xff
	.byte	0x1
	.uleb128 .LLSDACSE8453-.LLSDACSB8453
.LLSDACSB8453:
	.uleb128 .LEHB25-.LFB8453
	.uleb128 .LEHE25-.LEHB25
	.uleb128 0
	.uleb128 0
	.uleb128 .LEHB26-.LFB8453
	.uleb128 .LEHE26-.LEHB26
	.uleb128 .L1203-.LFB8453
	.uleb128 0
	.uleb128 .LEHB27-.LFB8453
	.uleb128 .LEHE27-.LEHB27
	.uleb128 .L1202-.LFB8453
	.uleb128 0
	.uleb128 .LEHB28-.LFB8453
	.uleb128 .LEHE28-.LEHB28
	.uleb128 .L1201-.LFB8453
	.uleb128 0
	.uleb128 .LEHB29-.LFB8453
	.uleb128 .LEHE29-.LEHB29
	.uleb128 .L1202-.LFB8453
	.uleb128 0
	.uleb128 .LEHB30-.LFB8453
	.uleb128 .LEHE30-.LEHB30
	.uleb128 .L1201-.LFB8453
	.uleb128 0
	.uleb128 .LEHB31-.LFB8453
	.uleb128 .LEHE31-.LEHB31
	.uleb128 .L1202-.LFB8453
	.uleb128 0
	.uleb128 .LEHB32-.LFB8453
	.uleb128 .LEHE32-.LEHB32
	.uleb128 .L1200-.LFB8453
	.uleb128 0
	.uleb128 .LEHB33-.LFB8453
	.uleb128 .LEHE33-.LEHB33
	.uleb128 0
	.uleb128 0
.LLSDACSE8453:
	.section	.text._ZN4asio6detail16service_registry6createINS0_13epoll_reactorEEEPNS_10io_service7serviceERS4_,"axG",@progbits,_ZN4asio6detail16service_registry6createINS0_13epoll_reactorEEEPNS_10io_service7serviceERS4_,comdat
	.size	_ZN4asio6detail16service_registry6createINS0_13epoll_reactorEEEPNS_10io_service7serviceERS4_, .-_ZN4asio6detail16service_registry6createINS0_13epoll_reactorEEEPNS_10io_service7serviceERS4_
	.section	.rodata._ZNSt6vectorISt10unique_ptrISt6threadSt14default_deleteIS1_EESaIS4_EE17_M_realloc_insertIJS4_EEEvN9__gnu_cxx17__normal_iteratorIPS4_S6_EEDpOT_.str1.1,"aMS",@progbits,1
.LC34:
	.string	"vector::_M_realloc_insert"
	.section	.text._ZNSt6vectorISt10unique_ptrISt6threadSt14default_deleteIS1_EESaIS4_EE17_M_realloc_insertIJS4_EEEvN9__gnu_cxx17__normal_iteratorIPS4_S6_EEDpOT_,"axG",@progbits,_ZNSt6vectorISt10unique_ptrISt6threadSt14default_deleteIS1_EESaIS4_EE17_M_realloc_insertIJS4_EEEvN9__gnu_cxx17__normal_iteratorIPS4_S6_EEDpOT_,comdat
	.align 2
	.p2align 4
	.weak	_ZNSt6vectorISt10unique_ptrISt6threadSt14default_deleteIS1_EESaIS4_EE17_M_realloc_insertIJS4_EEEvN9__gnu_cxx17__normal_iteratorIPS4_S6_EEDpOT_
	.type	_ZNSt6vectorISt10unique_ptrISt6threadSt14default_deleteIS1_EESaIS4_EE17_M_realloc_insertIJS4_EEEvN9__gnu_cxx17__normal_iteratorIPS4_S6_EEDpOT_, @function
_ZNSt6vectorISt10unique_ptrISt6threadSt14default_deleteIS1_EESaIS4_EE17_M_realloc_insertIJS4_EEEvN9__gnu_cxx17__normal_iteratorIPS4_S6_EEDpOT_:
.LFB8666:
	.cfi_startproc
	endbr64
	movabsq	$1152921504606846975, %rcx
	pushq	%r15
	.cfi_def_cfa_offset 16
	.cfi_offset 15, -16
	pushq	%r14
	.cfi_def_cfa_offset 24
	.cfi_offset 14, -24
	pushq	%r13
	.cfi_def_cfa_offset 32
	.cfi_offset 13, -32
	pushq	%r12
	.cfi_def_cfa_offset 40
	.cfi_offset 12, -40
	pushq	%rbp
	.cfi_def_cfa_offset 48
	.cfi_offset 6, -48
	pushq	%rbx
	.cfi_def_cfa_offset 56
	.cfi_offset 3, -56
	subq	$40, %rsp
	.cfi_def_cfa_offset 96
	movq	8(%rdi), %r15
	movq	(%rdi), %r12
	movq	%r15, %rax
	subq	%r12, %rax
	sarq	$3, %rax
	cmpq	%rcx, %rax
	je	.L1274
	testq	%rax, %rax
	movl	$1, %ecx
	movq	%rsi, %r14
	movq	%rdi, %r13
	cmovne	%rax, %rcx
	addq	%rcx, %rax
	setc	%cl
	subq	%r12, %rsi
	movzbl	%cl, %ecx
	testq	%rcx, %rcx
	jne	.L1267
	testq	%rax, %rax
	jne	.L1261
	movl	$8, %ecx
	xorl	%ebx, %ebx
	xorl	%ebp, %ebp
.L1266:
	movq	(%rdx), %rax
	movq	$0, (%rdx)
	movq	%rax, 0(%rbp,%rsi)
	cmpq	%r12, %r14
	je	.L1262
	movq	%r14, %rcx
	movq	%r12, %rdx
	movq	%rbp, %rax
	subq	%r12, %rcx
	addq	%rbp, %rcx
	.p2align 4,,10
	.p2align 3
.L1263:
	movq	(%rdx), %rsi
	addq	$8, %rax
	addq	$8, %rdx
	movq	%rsi, -8(%rax)
	cmpq	%rax, %rcx
	jne	.L1263
	addq	$8, %rcx
.L1262:
	cmpq	%r15, %r14
	je	.L1264
	subq	%r14, %r15
	movq	%rcx, %rdi
	movq	%r14, %rsi
	movq	%r15, %rdx
	call	memcpy@PLT
	movq	%rax, %rcx
	addq	%r15, %rcx
.L1264:
	movq	%rbp, %xmm0
	movq	%rcx, %xmm1
	punpcklqdq	%xmm1, %xmm0
	testq	%r12, %r12
	je	.L1265
	movq	16(%r13), %rsi
	movq	%r12, %rdi
	movaps	%xmm0, (%rsp)
	subq	%r12, %rsi
	call	_ZdlPvm@PLT
	movdqa	(%rsp), %xmm0
.L1265:
	movq	%rbx, 16(%r13)
	movups	%xmm0, 0(%r13)
	addq	$40, %rsp
	.cfi_remember_state
	.cfi_def_cfa_offset 56
	popq	%rbx
	.cfi_def_cfa_offset 48
	popq	%rbp
	.cfi_def_cfa_offset 40
	popq	%r12
	.cfi_def_cfa_offset 32
	popq	%r13
	.cfi_def_cfa_offset 24
	popq	%r14
	.cfi_def_cfa_offset 16
	popq	%r15
	.cfi_def_cfa_offset 8
	ret
	.p2align 4,,10
	.p2align 3
.L1267:
	.cfi_restore_state
	movabsq	$9223372036854775800, %rbx
.L1260:
	movq	%rbx, %rdi
	movq	%rdx, 24(%rsp)
	movq	%rsi, (%rsp)
	call	_Znwm@PLT
	movq	(%rsp), %rsi
	movq	24(%rsp), %rdx
	movq	%rax, %rbp
	addq	%rax, %rbx
	leaq	8(%rax), %rcx
	jmp	.L1266
.L1261:
	movabsq	$1152921504606846975, %rcx
	cmpq	%rcx, %rax
	cmova	%rcx, %rax
	leaq	0(,%rax,8), %rbx
	jmp	.L1260
.L1274:
	leaq	.LC34(%rip), %rdi
	call	_ZSt20__throw_length_errorPKc@PLT
	.cfi_endproc
.LFE8666:
	.size	_ZNSt6vectorISt10unique_ptrISt6threadSt14default_deleteIS1_EESaIS4_EE17_M_realloc_insertIJS4_EEEvN9__gnu_cxx17__normal_iteratorIPS4_S6_EEDpOT_, .-_ZNSt6vectorISt10unique_ptrISt6threadSt14default_deleteIS1_EESaIS4_EE17_M_realloc_insertIJS4_EEEvN9__gnu_cxx17__normal_iteratorIPS4_S6_EEDpOT_
	.section	.text._ZN4asio6detail16service_registry6createINS_22waitable_timer_serviceINSt6chrono3_V212steady_clockENS_11wait_traitsIS6_EEEEEEPNS_10io_service7serviceERSA_,"axG",@progbits,_ZN4asio6detail16service_registry6createINS_22waitable_timer_serviceINSt6chrono3_V212steady_clockENS_11wait_traitsIS6_EEEEEEPNS_10io_service7serviceERSA_,comdat
	.align 2
	.p2align 4
	.weak	_ZN4asio6detail16service_registry6createINS_22waitable_timer_serviceINSt6chrono3_V212steady_clockENS_11wait_traitsIS6_EEEEEEPNS_10io_service7serviceERSA_
	.type	_ZN4asio6detail16service_registry6createINS_22waitable_timer_serviceINSt6chrono3_V212steady_clockENS_11wait_traitsIS6_EEEEEEPNS_10io_service7serviceERSA_, @function
_ZN4asio6detail16service_registry6createINS_22waitable_timer_serviceINSt6chrono3_V212steady_clockENS_11wait_traitsIS6_EEEEEEPNS_10io_service7serviceERSA_:
.LFB8971:
	.cfi_startproc
	.cfi_personality 0x9b,DW.ref.__gxx_personality_v0
	.cfi_lsda 0x1b,.LLSDA8971
	endbr64
	pushq	%r15
	.cfi_def_cfa_offset 16
	.cfi_offset 15, -16
	pushq	%r14
	.cfi_def_cfa_offset 24
	.cfi_offset 14, -24
	pushq	%r13
	.cfi_def_cfa_offset 32
	.cfi_offset 13, -32
	pushq	%r12
	.cfi_def_cfa_offset 40
	.cfi_offset 12, -40
	pushq	%rbp
	.cfi_def_cfa_offset 48
	.cfi_offset 6, -48
	pushq	%rbx
	.cfi_def_cfa_offset 56
	.cfi_offset 3, -56
	movq	%rdi, %rbx
	movl	$96, %edi
	subq	$72, %rsp
	.cfi_def_cfa_offset 128
	movq	%fs:40, %rax
	movq	%rax, 56(%rsp)
	xorl	%eax, %eax
.LEHB34:
	call	_Znwm@PLT
.LEHE34:
	movq	%rbx, 24(%rax)
	movq	%rax, %r12
	movq	(%rbx), %rbx
	movq	$0, 8(%rax)
	leaq	40(%r12), %r13
	movq	$0, 16(%rax)
	leaq	8(%rbx), %rbp
	movq	$0, 32(%rax)
	movq	_ZTVN4asio22waitable_timer_serviceINSt6chrono3_V212steady_clockENS_11wait_traitsIS3_EEEE@GOTPCREL(%rip), %rax
	movq	%rbp, %rdi
	movq	$0, 48(%r12)
	movq	$0, 56(%r12)
	addq	$16, %rax
	movq	%rax, (%r12)
	movq	_ZTVN4asio6detail11timer_queueINS0_18chrono_time_traitsINSt6chrono3_V212steady_clockENS_11wait_traitsIS5_EEEEEE@GOTPCREL(%rip), %rax
	movq	$0, 64(%r12)
	movq	$0, 72(%r12)
	addq	$16, %rax
	movq	%rax, 40(%r12)
	movq	$0, 80(%r12)
	call	pthread_mutex_lock@PLT
	movq	56(%rbx), %r15
	testq	%r15, %r15
	je	.L1276
	.p2align 4,,10
	.p2align 3
.L1279:
	movq	8(%r15), %rax
	testq	%rax, %rax
	je	.L1277
	movq	8(%rax), %rdi
	movq	_ZTSN4asio6detail14typeid_wrapperINS0_13epoll_reactorEEE@GOTPCREL(%rip), %rsi
	cmpq	%rsi, %rdi
	je	.L1278
	cmpb	$42, (%rdi)
	je	.L1277
	call	strcmp@PLT
	testl	%eax, %eax
	jne	.L1277
.L1278:
	movq	%rbp, %rdi
	call	pthread_mutex_unlock@PLT
	movq	40(%r15), %rbx
	movq	%r15, 88(%r12)
	leaq	48(%rbx), %rbp
	movq	%rbp, %rdi
	call	pthread_mutex_lock@PLT
	cmpb	$0, 209(%rbx)
	je	.L1350
.L1297:
	movq	%rbp, %rdi
	call	pthread_mutex_unlock@PLT
.L1301:
	movq	88(%r12), %rbx
	leaq	48(%rbx), %rbp
	movq	%rbp, %rdi
	call	pthread_mutex_lock@PLT
	movq	104(%rbx), %rax
	movq	%rbp, %rdi
	movq	%rax, 48(%r12)
	movq	%r13, 104(%rbx)
	call	pthread_mutex_unlock@PLT
	movq	56(%rsp), %rax
	subq	%fs:40, %rax
	jne	.L1351
	addq	$72, %rsp
	.cfi_remember_state
	.cfi_def_cfa_offset 56
	movq	%r12, %rax
	popq	%rbx
	.cfi_def_cfa_offset 48
	popq	%rbp
	.cfi_def_cfa_offset 40
	popq	%r12
	.cfi_def_cfa_offset 32
	popq	%r13
	.cfi_def_cfa_offset 24
	popq	%r14
	.cfi_def_cfa_offset 16
	popq	%r15
	.cfi_def_cfa_offset 8
	ret
	.p2align 4,,10
	.p2align 3
.L1277:
	.cfi_restore_state
	movq	32(%r15), %r15
	testq	%r15, %r15
	jne	.L1279
.L1276:
	movq	%rbp, %rdi
	call	pthread_mutex_unlock@PLT
	movq	48(%rbx), %rdi
.LEHB35:
	call	_ZN4asio6detail16service_registry6createINS0_13epoll_reactorEEEPNS_10io_service7serviceERS4_@PLT
.LEHE35:
	movq	%rax, %r14
	movq	_ZTIN4asio6detail14typeid_wrapperINS0_13epoll_reactorEEE@GOTPCREL(%rip), %rax
	movq	%rbp, %rdi
	movq	$0, 16(%r14)
	movq	%rax, 8(%r14)
	call	pthread_mutex_lock@PLT
	movq	56(%rbx), %rax
	movq	%rax, 8(%rsp)
	testq	%rax, %rax
	je	.L1280
	movq	%rax, %r15
	.p2align 4,,10
	.p2align 3
.L1283:
	movq	8(%r15), %rax
	testq	%rax, %rax
	je	.L1281
	movq	8(%rax), %rdi
	movq	_ZTSN4asio6detail14typeid_wrapperINS0_13epoll_reactorEEE@GOTPCREL(%rip), %rsi
	cmpq	%rsi, %rdi
	je	.L1282
	cmpb	$42, (%rdi)
	je	.L1281
	call	strcmp@PLT
	testl	%eax, %eax
	jne	.L1281
.L1282:
	movq	(%r14), %rax
	movq	%r14, %rdi
	call	*8(%rax)
	jmp	.L1278
	.p2align 4,,10
	.p2align 3
.L1350:
	cmpq	$0, 144(%rbx)
	jne	.L1297
	movq	24(%rbx), %rax
	movq	(%rax), %r14
	leaq	8(%r14), %r15
	movq	%r14, 16(%rsp)
	movq	%r15, %rdi
	call	pthread_mutex_lock@PLT
	movq	56(%r14), %r14
	testq	%r14, %r14
	je	.L1285
	.p2align 4,,10
	.p2align 3
.L1288:
	movq	8(%r14), %rax
	testq	%rax, %rax
	je	.L1286
	movq	8(%rax), %rdi
	movq	_ZTSN4asio6detail14typeid_wrapperINS0_13epoll_reactorEEE@GOTPCREL(%rip), %rsi
	cmpq	%rsi, %rdi
	je	.L1287
	cmpb	$42, (%rdi)
	je	.L1286
	call	strcmp@PLT
	testl	%eax, %eax
	jne	.L1286
.L1287:
	movq	%r15, %rdi
	call	pthread_mutex_unlock@PLT
	leaq	152(%rbx), %rax
	movq	200(%rbx), %rcx
	movq	%r14, 144(%rbx)
	movq	$0, 152(%rbx)
	movq	%rax, %xmm0
	punpcklqdq	%xmm0, %xmm0
	testq	%rcx, %rcx
	je	.L1293
	movq	%rax, (%rcx)
	movq	%rax, 200(%rbx)
.L1294:
	movq	136(%rbx), %rax
	orq	$1, %rax
	movq	%rax, 136(%rbx)
	cmpq	$1, %rax
	je	.L1295
	movq	%rbp, %rdi
	call	pthread_mutex_unlock@PLT
	leaq	88(%rbx), %rdi
	call	pthread_cond_signal@PLT
	jmp	.L1301
	.p2align 4,,10
	.p2align 3
.L1281:
	movq	32(%r15), %r15
	testq	%r15, %r15
	jne	.L1283
.L1280:
	movq	8(%rsp), %rax
	movq	%r14, %r15
	movq	%rax, 32(%r14)
	movq	%r14, 56(%rbx)
	jmp	.L1278
.L1295:
	cmpb	$0, 176(%rbx)
	jne	.L1297
	movb	$1, 176(%rbx)
	movl	88(%r14), %edx
	leaq	88(%r14), %rax
	leaq	44(%rsp), %rcx
	movl	96(%r14), %edi
	movl	$3, %esi
	movq	%rax, 48(%rsp)
	movl	$-2147483639, 44(%rsp)
	call	epoll_ctl@PLT
	jmp	.L1297
	.p2align 4,,10
	.p2align 3
.L1286:
	movq	32(%r14), %r14
	testq	%r14, %r14
	jne	.L1288
.L1285:
	movq	%r15, %rdi
	call	pthread_mutex_unlock@PLT
	movq	16(%rsp), %r14
	movq	48(%r14), %rdi
.LEHB36:
	call	_ZN4asio6detail16service_registry6createINS0_13epoll_reactorEEEPNS_10io_service7serviceERS4_@PLT
.LEHE36:
	movq	%rax, %r8
	movq	_ZTIN4asio6detail14typeid_wrapperINS0_13epoll_reactorEEE@GOTPCREL(%rip), %rax
	movq	%r15, %rdi
	movq	$0, 16(%r8)
	movq	%rax, 8(%r8)
	movq	%r8, 8(%rsp)
	call	pthread_mutex_lock@PLT
	movq	56(%r14), %r14
	movq	8(%rsp), %r8
	testq	%r14, %r14
	movq	%r14, 24(%rsp)
	je	.L1289
	.p2align 4,,10
	.p2align 3
.L1292:
	movq	8(%r14), %rax
	testq	%rax, %rax
	je	.L1290
	movq	8(%rax), %rdi
	movq	_ZTSN4asio6detail14typeid_wrapperINS0_13epoll_reactorEEE@GOTPCREL(%rip), %rsi
	cmpq	%rsi, %rdi
	je	.L1291
	cmpb	$42, (%rdi)
	je	.L1290
	movq	%r8, 8(%rsp)
	call	strcmp@PLT
	movq	8(%rsp), %r8
	testl	%eax, %eax
	jne	.L1290
.L1291:
	movq	(%r8), %rax
	movq	%r8, %rdi
	call	*8(%rax)
	jmp	.L1287
	.p2align 4,,10
	.p2align 3
.L1290:
	movq	32(%r14), %r14
	testq	%r14, %r14
	jne	.L1292
.L1289:
	movq	24(%rsp), %rax
	movq	%r8, %r14
	movq	%rax, 32(%r8)
	movq	16(%rsp), %rax
	movq	%r8, 56(%rax)
	jmp	.L1287
.L1293:
	movups	%xmm0, 192(%rbx)
	jmp	.L1294
.L1351:
	call	__stack_chk_fail@PLT
.L1303:
	endbr64
	movq	%rax, %rbp
	jmp	.L1299
.L1304:
	endbr64
	movq	%rax, %rbx
.L1298:
	movq	%rbp, %rdi
	movq	%rbx, %rbp
	call	pthread_mutex_unlock@PLT
.L1299:
	movq	_ZTVN4asio6detail11timer_queueINS0_18chrono_time_traitsINSt6chrono3_V212steady_clockENS_11wait_traitsIS5_EEEEEE@GOTPCREL(%rip), %rax
	movq	64(%r12), %rdi
	movq	80(%r12), %rsi
	addq	$16, %rax
	movq	%rax, 40(%r12)
	subq	%rdi, %rsi
	testq	%rdi, %rdi
	je	.L1300
	call	_ZdlPvm@PLT
.L1300:
	movq	%r12, %rdi
	movl	$96, %esi
	call	_ZdlPvm@PLT
	movq	%rbp, %rdi
.LEHB37:
	call	_Unwind_Resume@PLT
.LEHE37:
	.cfi_endproc
.LFE8971:
	.section	.gcc_except_table
.LLSDA8971:
	.byte	0xff
	.byte	0xff
	.byte	0x1
	.uleb128 .LLSDACSE8971-.LLSDACSB8971
.LLSDACSB8971:
	.uleb128 .LEHB34-.LFB8971
	.uleb128 .LEHE34-.LEHB34
	.uleb128 0
	.uleb128 0
	.uleb128 .LEHB35-.LFB8971
	.uleb128 .LEHE35-.LEHB35
	.uleb128 .L1303-.LFB8971
	.uleb128 0
	.uleb128 .LEHB36-.LFB8971
	.uleb128 .LEHE36-.LEHB36
	.uleb128 .L1304-.LFB8971
	.uleb128 0
	.uleb128 .LEHB37-.LFB8971
	.uleb128 .LEHE37-.LEHB37
	.uleb128 0
	.uleb128 0
.LLSDACSE8971:
	.section	.text._ZN4asio6detail16service_registry6createINS_22waitable_timer_serviceINSt6chrono3_V212steady_clockENS_11wait_traitsIS6_EEEEEEPNS_10io_service7serviceERSA_,"axG",@progbits,_ZN4asio6detail16service_registry6createINS_22waitable_timer_serviceINSt6chrono3_V212steady_clockENS_11wait_traitsIS6_EEEEEEPNS_10io_service7serviceERSA_,comdat
	.size	_ZN4asio6detail16service_registry6createINS_22waitable_timer_serviceINSt6chrono3_V212steady_clockENS_11wait_traitsIS6_EEEEEEPNS_10io_service7serviceERSA_, .-_ZN4asio6detail16service_registry6createINS_22waitable_timer_serviceINSt6chrono3_V212steady_clockENS_11wait_traitsIS6_EEEEEEPNS_10io_service7serviceERSA_
	.section	.text._ZNSt6vectorIN4asio6detail11timer_queueINS1_18chrono_time_traitsINSt6chrono3_V212steady_clockENS0_11wait_traitsIS6_EEEEE10heap_entryESaISB_EE17_M_realloc_insertIJRKSB_EEEvN9__gnu_cxx17__normal_iteratorIPSB_SD_EEDpOT_,"axG",@progbits,_ZNSt6vectorIN4asio6detail11timer_queueINS1_18chrono_time_traitsINSt6chrono3_V212steady_clockENS0_11wait_traitsIS6_EEEEE10heap_entryESaISB_EE17_M_realloc_insertIJRKSB_EEEvN9__gnu_cxx17__normal_iteratorIPSB_SD_EEDpOT_,comdat
	.align 2
	.p2align 4
	.weak	_ZNSt6vectorIN4asio6detail11timer_queueINS1_18chrono_time_traitsINSt6chrono3_V212steady_clockENS0_11wait_traitsIS6_EEEEE10heap_entryESaISB_EE17_M_realloc_insertIJRKSB_EEEvN9__gnu_cxx17__normal_iteratorIPSB_SD_EEDpOT_
	.type	_ZNSt6vectorIN4asio6detail11timer_queueINS1_18chrono_time_traitsINSt6chrono3_V212steady_clockENS0_11wait_traitsIS6_EEEEE10heap_entryESaISB_EE17_M_realloc_insertIJRKSB_EEEvN9__gnu_cxx17__normal_iteratorIPSB_SD_EEDpOT_, @function
_ZNSt6vectorIN4asio6detail11timer_queueINS1_18chrono_time_traitsINSt6chrono3_V212steady_clockENS0_11wait_traitsIS6_EEEEE10heap_entryESaISB_EE17_M_realloc_insertIJRKSB_EEEvN9__gnu_cxx17__normal_iteratorIPSB_SD_EEDpOT_:
.LFB9339:
	.cfi_startproc
	endbr64
	movabsq	$576460752303423487, %rcx
	pushq	%r15
	.cfi_def_cfa_offset 16
	.cfi_offset 15, -16
	pushq	%r14
	.cfi_def_cfa_offset 24
	.cfi_offset 14, -24
	pushq	%r13
	.cfi_def_cfa_offset 32
	.cfi_offset 13, -32
	pushq	%r12
	.cfi_def_cfa_offset 40
	.cfi_offset 12, -40
	pushq	%rbp
	.cfi_def_cfa_offset 48
	.cfi_offset 6, -48
	pushq	%rbx
	.cfi_def_cfa_offset 56
	.cfi_offset 3, -56
	subq	$40, %rsp
	.cfi_def_cfa_offset 96
	movq	8(%rdi), %r15
	movq	(%rdi), %r12
	movq	%r15, %rax
	subq	%r12, %rax
	sarq	$4, %rax
	cmpq	%rcx, %rax
	je	.L1370
	testq	%rax, %rax
	movl	$1, %ecx
	movq	%rsi, %rbp
	movq	%rdi, %r13
	cmovne	%rax, %rcx
	addq	%rcx, %rax
	setc	%cl
	subq	%r12, %rsi
	movzbl	%cl, %ecx
	testq	%rcx, %rcx
	jne	.L1363
	testq	%rax, %rax
	jne	.L1357
	movl	$16, %ecx
	xorl	%ebx, %ebx
	xorl	%r14d, %r14d
.L1362:
	movdqu	(%rdx), %xmm2
	movups	%xmm2, (%r14,%rsi)
	cmpq	%r12, %rbp
	je	.L1358
	movq	%rbp, %rcx
	movq	%r14, %rdx
	movq	%r12, %rax
	subq	%r12, %rcx
	.p2align 4,,10
	.p2align 3
.L1359:
	movdqu	(%rax), %xmm1
	addq	$16, %rax
	addq	$16, %rdx
	movups	%xmm1, -16(%rdx)
	cmpq	%rbp, %rax
	jne	.L1359
	leaq	16(%r14,%rcx), %rcx
.L1358:
	cmpq	%r15, %rbp
	je	.L1360
	subq	%rbp, %r15
	movq	%rcx, %rdi
	movq	%rbp, %rsi
	movq	%r15, %rdx
	call	memcpy@PLT
	movq	%rax, %rcx
	addq	%r15, %rcx
.L1360:
	movq	%r14, %xmm0
	movq	%rcx, %xmm3
	punpcklqdq	%xmm3, %xmm0
	testq	%r12, %r12
	je	.L1361
	movq	16(%r13), %rsi
	movq	%r12, %rdi
	movaps	%xmm0, (%rsp)
	subq	%r12, %rsi
	call	_ZdlPvm@PLT
	movdqa	(%rsp), %xmm0
.L1361:
	movq	%rbx, 16(%r13)
	movups	%xmm0, 0(%r13)
	addq	$40, %rsp
	.cfi_remember_state
	.cfi_def_cfa_offset 56
	popq	%rbx
	.cfi_def_cfa_offset 48
	popq	%rbp
	.cfi_def_cfa_offset 40
	popq	%r12
	.cfi_def_cfa_offset 32
	popq	%r13
	.cfi_def_cfa_offset 24
	popq	%r14
	.cfi_def_cfa_offset 16
	popq	%r15
	.cfi_def_cfa_offset 8
	ret
	.p2align 4,,10
	.p2align 3
.L1363:
	.cfi_restore_state
	movabsq	$9223372036854775792, %rbx
.L1356:
	movq	%rbx, %rdi
	movq	%rdx, 24(%rsp)
	movq	%rsi, (%rsp)
	call	_Znwm@PLT
	movq	(%rsp), %rsi
	movq	24(%rsp), %rdx
	movq	%rax, %r14
	addq	%rax, %rbx
	leaq	16(%rax), %rcx
	jmp	.L1362
.L1357:
	movabsq	$576460752303423487, %rcx
	cmpq	%rcx, %rax
	cmova	%rcx, %rax
	salq	$4, %rax
	movq	%rax, %rbx
	jmp	.L1356
.L1370:
	leaq	.LC34(%rip), %rdi
	call	_ZSt20__throw_length_errorPKc@PLT
	.cfi_endproc
.LFE9339:
	.size	_ZNSt6vectorIN4asio6detail11timer_queueINS1_18chrono_time_traitsINSt6chrono3_V212steady_clockENS0_11wait_traitsIS6_EEEEE10heap_entryESaISB_EE17_M_realloc_insertIJRKSB_EEEvN9__gnu_cxx17__normal_iteratorIPSB_SD_EEDpOT_, .-_ZNSt6vectorIN4asio6detail11timer_queueINS1_18chrono_time_traitsINSt6chrono3_V212steady_clockENS0_11wait_traitsIS6_EEEEE10heap_entryESaISB_EE17_M_realloc_insertIJRKSB_EEEvN9__gnu_cxx17__normal_iteratorIPSB_SD_EEDpOT_
	.section	.text._ZN4asio6detail13epoll_reactor14schedule_timerINS0_18chrono_time_traitsINSt6chrono3_V212steady_clockENS_11wait_traitsIS6_EEEEEEvRNS0_11timer_queueIT_EERKNSB_9time_typeERNSC_14per_timer_dataEPNS0_7wait_opE,"axG",@progbits,_ZN4asio6detail13epoll_reactor14schedule_timerINS0_18chrono_time_traitsINSt6chrono3_V212steady_clockENS_11wait_traitsIS6_EEEEEEvRNS0_11timer_queueIT_EERKNSB_9time_typeERNSC_14per_timer_dataEPNS0_7wait_opE,comdat
	.align 2
	.p2align 4
	.weak	_ZN4asio6detail13epoll_reactor14schedule_timerINS0_18chrono_time_traitsINSt6chrono3_V212steady_clockENS_11wait_traitsIS6_EEEEEEvRNS0_11timer_queueIT_EERKNSB_9time_typeERNSC_14per_timer_dataEPNS0_7wait_opE
	.type	_ZN4asio6detail13epoll_reactor14schedule_timerINS0_18chrono_time_traitsINSt6chrono3_V212steady_clockENS_11wait_traitsIS6_EEEEEEvRNS0_11timer_queueIT_EERKNSB_9time_typeERNSC_14per_timer_dataEPNS0_7wait_opE, @function
_ZN4asio6detail13epoll_reactor14schedule_timerINS0_18chrono_time_traitsINSt6chrono3_V212steady_clockENS_11wait_traitsIS6_EEEEEEvRNS0_11timer_queueIT_EERKNSB_9time_typeERNSC_14per_timer_dataEPNS0_7wait_opE:
.LFB8819:
	.cfi_startproc
	.cfi_personality 0x9b,DW.ref.__gxx_personality_v0
	.cfi_lsda 0x1b,.LLSDA8819
	endbr64
	pushq	%r15
	.cfi_def_cfa_offset 16
	.cfi_offset 15, -16
	movq	%r8, %xmm1
	movq	%rdx, %r15
	pushq	%r14
	.cfi_def_cfa_offset 24
	.cfi_offset 14, -24
	punpcklqdq	%xmm1, %xmm1
	movq	%rsi, %r14
	pushq	%r13
	.cfi_def_cfa_offset 32
	.cfi_offset 13, -32
	movq	%r8, %r13
	pushq	%r12
	.cfi_def_cfa_offset 40
	.cfi_offset 12, -40
	leaq	48(%rdi), %r12
	pushq	%rbp
	.cfi_def_cfa_offset 48
	.cfi_offset 6, -48
	movq	%rdi, %rbp
	movq	%r12, %rdi
	pushq	%rbx
	.cfi_def_cfa_offset 56
	.cfi_offset 3, -56
	movq	%rcx, %rbx
	subq	$104, %rsp
	.cfi_def_cfa_offset 160
	movq	%fs:40, %rax
	movq	%rax, 88(%rsp)
	xorl	%eax, %eax
	movaps	%xmm1, (%rsp)
	call	pthread_mutex_lock@PLT
	cmpb	$0, 112(%rbp)
	jne	.L1441
	cmpq	$0, 32(%rbx)
	je	.L1442
.L1385:
	movq	8(%rbx), %rdx
	movq	40(%rbp), %rax
	movq	$0, 0(%r13)
	movq	16(%rbx), %rcx
	testq	%rdx, %rdx
	je	.L1393
	movq	%r13, (%rdx)
	movq	%r13, 8(%rbx)
	testq	%rcx, %rcx
	jne	.L1438
	cmpq	(%rbx), %r13
	je	.L1396
.L1438:
	lock addq	$1, 184(%rax)
.L1395:
	movq	88(%rsp), %rax
	subq	%fs:40, %rax
	jne	.L1443
	addq	$104, %rsp
	.cfi_remember_state
	.cfi_def_cfa_offset 56
	movq	%r12, %rdi
	popq	%rbx
	.cfi_def_cfa_offset 48
	popq	%rbp
	.cfi_def_cfa_offset 40
	popq	%r12
	.cfi_def_cfa_offset 32
	popq	%r13
	.cfi_def_cfa_offset 24
	popq	%r14
	.cfi_def_cfa_offset 16
	popq	%r15
	.cfi_def_cfa_offset 8
	jmp	pthread_mutex_unlock@PLT
	.p2align 4,,10
	.p2align 3
.L1441:
	.cfi_restore_state
	movq	40(%rbp), %rbx
	cmpb	$0, 40(%rbx)
	je	.L1373
	data16	leaq	_ZN4asio6detail15keyword_tss_ptrINS0_10call_stackINS0_15task_io_serviceENS0_27task_io_service_thread_infoEE7contextEE6value_E@tlsgd(%rip), %rdi
	.value	0x6666
	rex64
	call	__tls_get_addr@PLT
	movq	(%rax), %rax
	testq	%rax, %rax
	jne	.L1376
	jmp	.L1373
	.p2align 4,,10
	.p2align 3
.L1374:
	movq	16(%rax), %rax
	testq	%rax, %rax
	je	.L1373
.L1376:
	cmpq	(%rax), %rbx
	jne	.L1374
	movq	8(%rax), %rax
	testq	%rax, %rax
	je	.L1373
	addq	$1, 24(%rax)
	movq	$0, 0(%r13)
	movq	16(%rax), %rdx
	testq	%rdx, %rdx
	je	.L1377
	movq	%r13, (%rdx)
	movq	%r13, 16(%rax)
	jmp	.L1395
	.p2align 4,,10
	.p2align 3
.L1373:
	lock addq	$1, 184(%rbx)
	leaq	48(%rbx), %rbp
	movq	%rbp, %rdi
	call	pthread_mutex_lock@PLT
	cmpq	$0, 200(%rbx)
	movq	$0, 0(%r13)
	je	.L1379
	movq	200(%rbx), %rax
	movq	%r13, (%rax)
	movq	%r13, 200(%rbx)
.L1380:
	movq	136(%rbx), %rax
	orq	$1, %rax
	movq	%rax, 136(%rbx)
	cmpq	$1, %rax
	je	.L1381
	movq	%rbp, %rdi
	call	pthread_mutex_unlock@PLT
	leaq	88(%rbx), %rdi
	call	pthread_cond_signal@PLT
	jmp	.L1395
	.p2align 4,,10
	.p2align 3
.L1393:
	movdqa	(%rsp), %xmm3
	movups	%xmm3, (%rbx)
	testq	%rcx, %rcx
	jne	.L1438
.L1396:
	lock addq	$1, 184(%rax)
	movl	100(%rbp), %edi
	cmpl	$-1, %edi
	je	.L1398
	movq	104(%rbp), %rbx
	pxor	%xmm0, %xmm0
	movaps	%xmm0, 16(%rsp)
	testq	%rbx, %rbx
	je	.L1399
	movq	_ZNK4asio6detail11timer_queueINS0_18chrono_time_traitsINSt6chrono3_V212steady_clockENS_11wait_traitsIS5_EEEEE18wait_duration_usecEl@GOTPCREL(%rip), %r13
	movl	$300000000, %r15d
	movabsq	$2361183241434822607, %r14
	jmp	.L1408
	.p2align 4,,10
	.p2align 3
.L1446:
	testq	%rax, %rax
	js	.L1403
.L1437:
	movq	%rdx, %rcx
	subq	%rax, %rcx
	testq	%rcx, %rcx
	jle	.L1418
	movq	%rcx, %rax
	sarq	$63, %rcx
	imulq	%r14
	sarq	$7, %rdx
	subq	%rcx, %rdx
.L1406:
	testq	%rdx, %rdx
	je	.L1444
.L1405:
	cmpq	%rdx, %r15
	cmovg	%rdx, %r15
.L1401:
	movq	8(%rbx), %rbx
	testq	%rbx, %rbx
	je	.L1445
.L1408:
	movq	(%rbx), %rax
	movq	32(%rax), %rax
	cmpq	%r13, %rax
	jne	.L1400
	movq	24(%rbx), %rax
	cmpq	%rax, 32(%rbx)
	je	.L1401
	call	_ZNSt6chrono3_V212steady_clock3nowEv@PLT
	movq	24(%rbx), %rdx
	movq	(%rdx), %rdx
	testq	%rdx, %rdx
	jns	.L1446
	testq	%rax, %rax
	js	.L1437
.L1418:
	movq	8(%rbx), %rbx
	xorl	%r15d, %r15d
	testq	%rbx, %rbx
	jne	.L1408
	.p2align 4,,10
	.p2align 3
.L1445:
	movq	%r15, %rax
	xorl	%r8d, %r8d
	movl	100(%rbp), %edi
	movabsq	$4835703278458516699, %rdx
	imulq	%rdx
	movq	%r15, %rax
	sarq	$63, %rax
	sarq	$18, %rdx
	subq	%rax, %rdx
	testq	%r15, %r15
	movl	$1, %eax
	movq	%rdx, 32(%rsp)
	sete	%r8b
	je	.L1411
	imulq	$1000000, %rdx, %rdx
	movq	%r15, %rsi
	subq	%rdx, %rsi
	imulq	$1000, %rsi, %rax
.L1411:
	leaq	48(%rsp), %rcx
	leaq	16(%rsp), %rdx
	movl	%r8d, %esi
	movq	%rax, 40(%rsp)
	call	timerfd_settime@PLT
	jmp	.L1395
	.p2align 4,,10
	.p2align 3
.L1442:
	movq	16(%r14), %r9
	cmpq	%r9, %rbx
	je	.L1385
	movq	32(%r14), %rsi
	movq	24(%r14), %r8
	movq	%rbx, 56(%rsp)
	movq	%rsi, %rax
	subq	%r8, %rax
	sarq	$4, %rax
	movq	%rax, 16(%rbx)
	movq	(%r15), %rax
	movq	%rax, 48(%rsp)
	cmpq	40(%r14), %rsi
	je	.L1386
	movdqa	48(%rsp), %xmm4
	addq	$16, %rsi
	movups	%xmm4, -16(%rsi)
	movq	%rsi, 32(%r14)
.L1387:
	movq	%rsi, %rax
	subq	%r8, %rax
	sarq	$4, %rax
	subq	$1, %rax
	je	.L1391
	movq	-16(%rsi), %r10
	jmp	.L1392
	.p2align 4,,10
	.p2align 3
.L1447:
	movq	8(%rcx), %rdi
	movdqu	(%rdx), %xmm2
	movups	%xmm2, (%rcx)
	movq	%r10, (%rdx)
	movq	%rdi, 8(%rdx)
	movq	8(%rcx), %rdx
	movq	%rsi, 16(%rdx)
	movq	%rax, 16(%rdi)
	testq	%rax, %rax
	je	.L1391
.L1392:
	movq	%rax, %rsi
	leaq	-1(%rax), %rax
	shrq	%rax
	movq	%rsi, %rcx
	movq	%rax, %rdx
	salq	$4, %rcx
	salq	$4, %rdx
	addq	%r8, %rcx
	addq	%r8, %rdx
	cmpq	(%rdx), %r10
	jl	.L1447
.L1391:
	movq	%r9, 24(%rbx)
	movq	$0, 32(%rbx)
	testq	%r9, %r9
	je	.L1390
	movq	%rbx, 32(%r9)
.L1390:
	movq	%rbx, 16(%r14)
	jmp	.L1385
	.p2align 4,,10
	.p2align 3
.L1398:
	movl	88(%rbp), %edx
	movl	96(%rbp), %edi
	leaq	88(%rbp), %rax
	leaq	48(%rsp), %rcx
	movl	$3, %esi
	movl	$-2147483639, 48(%rsp)
	movq	%rax, 52(%rsp)
	call	epoll_ctl@PLT
	jmp	.L1395
	.p2align 4,,10
	.p2align 3
.L1379:
	movdqa	(%rsp), %xmm5
	movups	%xmm5, 192(%rbx)
	jmp	.L1380
	.p2align 4,,10
	.p2align 3
.L1400:
	movq	%r15, %rsi
	movq	%rbx, %rdi
.LEHB38:
	call	*%rax
	movq	%rax, %r15
	jmp	.L1401
	.p2align 4,,10
	.p2align 3
.L1444:
	movl	$1, %r15d
	jmp	.L1401
	.p2align 4,,10
	.p2align 3
.L1381:
	cmpb	$0, 176(%rbx)
	jne	.L1383
	movq	144(%rbx), %rax
	testq	%rax, %rax
	je	.L1383
	movb	$1, 176(%rbx)
	leaq	88(%rax), %rdx
	leaq	48(%rsp), %rcx
	movl	$3, %esi
	movq	%rdx, 52(%rsp)
	movl	88(%rax), %edx
	movl	$-2147483639, 48(%rsp)
	movl	96(%rax), %edi
	call	epoll_ctl@PLT
.L1383:
	movq	%rbp, %rdi
	call	pthread_mutex_unlock@PLT
	jmp	.L1395
	.p2align 4,,10
	.p2align 3
.L1403:
	movabsq	$-9223372036854775808, %rsi
	cmpq	%rsi, %rax
	je	.L1416
	movabsq	$9223372036854775807, %rcx
	movq	%rax, %rdi
	negq	%rdi
	subq	%rdx, %rcx
	cmpq	%rcx, %rdi
	jg	.L1416
	subq	%rax, %rdx
	shrq	$3, %rdx
	movq	%rdx, %rax
	mulq	%r14
	shrq	$4, %rdx
	jmp	.L1406
	.p2align 4,,10
	.p2align 3
.L1416:
	movabsq	$9223372036854775, %rdx
	jmp	.L1405
	.p2align 4,,10
	.p2align 3
.L1377:
	movdqa	(%rsp), %xmm6
	movups	%xmm6, 8(%rax)
	jmp	.L1395
	.p2align 4,,10
	.p2align 3
.L1386:
	leaq	48(%rsp), %rdx
	leaq	24(%r14), %rdi
	call	_ZNSt6vectorIN4asio6detail11timer_queueINS1_18chrono_time_traitsINSt6chrono3_V212steady_clockENS0_11wait_traitsIS6_EEEEE10heap_entryESaISB_EE17_M_realloc_insertIJRKSB_EEEvN9__gnu_cxx17__normal_iteratorIPSB_SD_EEDpOT_@PLT
.LEHE38:
	movq	32(%r14), %rsi
	movq	24(%r14), %r8
	movq	16(%r14), %r9
	jmp	.L1387
	.p2align 4,,10
	.p2align 3
.L1399:
	movq	$300, 32(%rsp)
	xorl	%r8d, %r8d
	xorl	%eax, %eax
	jmp	.L1411
.L1443:
	call	__stack_chk_fail@PLT
.L1421:
	endbr64
	movq	%rax, %rbp
.L1413:
	movq	%r12, %rdi
	call	pthread_mutex_unlock@PLT
	movq	%rbp, %rdi
.LEHB39:
	call	_Unwind_Resume@PLT
.LEHE39:
	.cfi_endproc
.LFE8819:
	.section	.gcc_except_table
.LLSDA8819:
	.byte	0xff
	.byte	0xff
	.byte	0x1
	.uleb128 .LLSDACSE8819-.LLSDACSB8819
.LLSDACSB8819:
	.uleb128 .LEHB38-.LFB8819
	.uleb128 .LEHE38-.LEHB38
	.uleb128 .L1421-.LFB8819
	.uleb128 0
	.uleb128 .LEHB39-.LFB8819
	.uleb128 .LEHE39-.LEHB39
	.uleb128 0
	.uleb128 0
.LLSDACSE8819:
	.section	.text._ZN4asio6detail13epoll_reactor14schedule_timerINS0_18chrono_time_traitsINSt6chrono3_V212steady_clockENS_11wait_traitsIS6_EEEEEEvRNS0_11timer_queueIT_EERKNSB_9time_typeERNSC_14per_timer_dataEPNS0_7wait_opE,"axG",@progbits,_ZN4asio6detail13epoll_reactor14schedule_timerINS0_18chrono_time_traitsINSt6chrono3_V212steady_clockENS_11wait_traitsIS6_EEEEEEvRNS0_11timer_queueIT_EERKNSB_9time_typeERNSC_14per_timer_dataEPNS0_7wait_opE,comdat
	.size	_ZN4asio6detail13epoll_reactor14schedule_timerINS0_18chrono_time_traitsINSt6chrono3_V212steady_clockENS_11wait_traitsIS6_EEEEEEvRNS0_11timer_queueIT_EERKNSB_9time_typeERNSC_14per_timer_dataEPNS0_7wait_opE, .-_ZN4asio6detail13epoll_reactor14schedule_timerINS0_18chrono_time_traitsINSt6chrono3_V212steady_clockENS_11wait_traitsIS6_EEEEEEvRNS0_11timer_queueIT_EERKNSB_9time_typeERNSC_14per_timer_dataEPNS0_7wait_opE
	.section	.rodata.str1.8
	.align 8
.LC35:
	.string	"Concurrency was set to 0, defaulting to 1 thread"
	.align 8
.LC36:
	.string	"/home/saptarshi/Desktop/OpenPLC61850/utils/dnp3_src/cpp/libs/src/asiopal/ThreadPool.cpp(51)"
	.section	.text.unlikely
	.align 2
.LCOLDB37:
	.text
.LHOTB37:
	.align 2
	.p2align 4
	.globl	_ZN7asiopal10ThreadPoolC2ERKN7openpal6LoggerERKSt10shared_ptrINS_2IOEEjSt8functionIFvvEESC_
	.type	_ZN7asiopal10ThreadPoolC2ERKN7openpal6LoggerERKSt10shared_ptrINS_2IOEEjSt8functionIFvvEESC_, @function
_ZN7asiopal10ThreadPoolC2ERKN7openpal6LoggerERKSt10shared_ptrINS_2IOEEjSt8functionIFvvEESC_:
.LFB7079:
	.cfi_startproc
	.cfi_personality 0x9b,DW.ref.__gxx_personality_v0
	.cfi_lsda 0x1b,.LLSDA7079
	endbr64
	pushq	%r15
	.cfi_def_cfa_offset 16
	.cfi_offset 15, -16
	movq	%rsi, %rax
	pushq	%r14
	.cfi_def_cfa_offset 24
	.cfi_offset 14, -24
	movl	%ecx, %r14d
	pushq	%r13
	.cfi_def_cfa_offset 32
	.cfi_offset 13, -32
	movq	%r8, %r13
	pushq	%r12
	.cfi_def_cfa_offset 40
	.cfi_offset 12, -40
	movq	%rdx, %r12
	pushq	%rbp
	.cfi_def_cfa_offset 48
	.cfi_offset 6, -48
	movq	%rdi, %rbp
	pushq	%rbx
	.cfi_def_cfa_offset 56
	.cfi_offset 3, -56
	movq	%r9, %rbx
	subq	$72, %rsp
	.cfi_def_cfa_offset 128
	movdqu	(%rsi), %xmm1
	movq	%fs:40, %rdx
	movq	%rdx, 56(%rsp)
	movq	8(%rsi), %rdx
	movups	%xmm1, (%rdi)
	testq	%rdx, %rdx
	je	.L1449
	movq	__libc_single_threaded@GOTPCREL(%rip), %rcx
	cmpb	$0, (%rcx)
	je	.L1450
	addl	$1, 8(%rdx)
.L1449:
	movdqu	16(%rax), %xmm2
	movups	%xmm2, 16(%rbp)
	movq	24(%rbp), %rax
	testq	%rax, %rax
	je	.L1451
	movq	__libc_single_threaded@GOTPCREL(%rip), %rdx
	cmpb	$0, (%rdx)
	je	.L1452
	addl	$1, 8(%rax)
.L1451:
	movdqu	(%r12), %xmm3
	movq	8(%r12), %rax
	movups	%xmm3, 32(%rbp)
	testq	%rax, %rax
	je	.L1453
	movq	__libc_single_threaded@GOTPCREL(%rip), %rdx
	cmpb	$0, (%rdx)
	je	.L1454
	addl	$1, 8(%rax)
.L1453:
	movq	16(%r13), %rax
	leaq	48(%rbp), %rdi
	pxor	%xmm0, %xmm0
	movq	$0, 64(%rbp)
	movq	%rdi, 24(%rsp)
	movq	$0, 72(%rbp)
	movups	%xmm0, 48(%rbp)
	testq	%rax, %rax
	je	.L1455
	movl	$2, %edx
	movq	%r13, %rsi
.LEHB40:
	call	*%rax
.LEHE40:
	movdqu	16(%r13), %xmm4
	movups	%xmm4, 64(%rbp)
.L1455:
	leaq	80(%rbp), %rax
	pxor	%xmm0, %xmm0
	movq	$0, 96(%rbp)
	movq	%rax, 16(%rsp)
	movq	16(%rbx), %rax
	movq	$0, 104(%rbp)
	movups	%xmm0, 80(%rbp)
	testq	%rax, %rax
	je	.L1457
	movq	16(%rsp), %rdi
	movl	$2, %edx
	movq	%rbx, %rsi
.LEHB41:
	call	*%rax
.LEHE41:
	movdqu	16(%rbx), %xmm5
	movups	%xmm5, 96(%rbp)
.L1457:
	movq	(%r12), %rax
	movb	$0, 112(%rbp)
	movq	8(%rax), %r12
	leaq	8(%r12), %r13
	movq	%r13, %rdi
	call	pthread_mutex_lock@PLT
	movq	56(%r12), %rbx
	testq	%rbx, %rbx
	je	.L1462
	.p2align 4,,10
	.p2align 3
.L1461:
	movq	8(%rbx), %rax
	testq	%rax, %rax
	je	.L1466
	movq	8(%rax), %rdi
	movq	_ZTSN4asio6detail14typeid_wrapperINS_22waitable_timer_serviceINSt6chrono3_V212steady_clockENS_11wait_traitsIS5_EEEEEE@GOTPCREL(%rip), %rsi
	cmpq	%rsi, %rdi
	je	.L1467
	cmpb	$42, (%rdi)
	je	.L1466
	call	strcmp@PLT
	testl	%eax, %eax
	jne	.L1466
.L1467:
	movq	%r13, %rdi
	call	pthread_mutex_unlock@PLT
	leaq	144(%rbp), %rax
	pxor	%xmm0, %xmm0
	movq	%rbx, 120(%rbp)
	movq	%rax, (%rsp)
	leaq	184(%rbp), %rax
	movq	$0, 128(%rbp)
	movb	$0, 136(%rbp)
	movq	%rax, 8(%rsp)
	movq	$0, 200(%rbp)
	movups	%xmm0, 144(%rbp)
	movups	%xmm0, 168(%rbp)
	movups	%xmm0, 184(%rbp)
	testl	%r14d, %r14d
	je	.L1472
	call	_ZNSt3_V215system_categoryEv@PLT
	leaq	128(%rbp), %r13
	movq	%rax, %r15
.L1473:
	movabsq	$9223372036854775807, %rax
	movq	%rax, 128(%rbp)
	data16	leaq	_ZN4asio6detail15keyword_tss_ptrINS0_10call_stackINS0_15task_io_serviceENS0_27task_io_service_thread_infoEE7contextEE6value_E@tlsgd(%rip), %rdi
	.value	0x6666
	rex64
	call	__tls_get_addr@PLT
	movq	(%rax), %rax
	testq	%rax, %rax
	je	.L1476
	movq	8(%rax), %rax
	testq	%rax, %rax
	je	.L1476
	movq	(%rax), %r12
	testq	%r12, %r12
	je	.L1476
	movq	$0, (%rax)
	movzbl	(%r12), %eax
	cmpb	$47, %al
	jbe	.L1477
	movb	%al, 48(%r12)
	jmp	.L1478
	.p2align 4,,10
	.p2align 3
.L1466:
	movq	32(%rbx), %rbx
	testq	%rbx, %rbx
	jne	.L1461
.L1462:
	movq	%r13, %rdi
	call	pthread_mutex_unlock@PLT
	movq	48(%r12), %rdi
.LEHB42:
	call	_ZN4asio6detail16service_registry6createINS_22waitable_timer_serviceINSt6chrono3_V212steady_clockENS_11wait_traitsIS6_EEEEEEPNS_10io_service7serviceERSA_@PLT
.LEHE42:
	movq	%rax, %r15
	movq	_ZTIN4asio6detail14typeid_wrapperINS_22waitable_timer_serviceINSt6chrono3_V212steady_clockENS_11wait_traitsIS5_EEEEEE@GOTPCREL(%rip), %rax
	movq	%r13, %rdi
	movq	$0, 16(%r15)
	movq	%rax, 8(%r15)
	call	pthread_mutex_lock@PLT
	movq	56(%r12), %rax
	movq	%rax, (%rsp)
	testq	%rax, %rax
	je	.L1468
	movq	%rax, %rbx
	.p2align 4,,10
	.p2align 3
.L1471:
	movq	8(%rbx), %rax
	testq	%rax, %rax
	je	.L1469
	movq	8(%rax), %rdi
	movq	_ZTSN4asio6detail14typeid_wrapperINS_22waitable_timer_serviceINSt6chrono3_V212steady_clockENS_11wait_traitsIS5_EEEEEE@GOTPCREL(%rip), %rsi
	cmpq	%rsi, %rdi
	je	.L1470
	cmpb	$42, (%rdi)
	je	.L1469
	call	strcmp@PLT
	testl	%eax, %eax
	jne	.L1469
.L1470:
	movq	(%r15), %rax
	movq	%r15, %rdi
	call	*8(%rax)
	jmp	.L1467
	.p2align 4,,10
	.p2align 3
.L1477:
	movq	%r12, %rdi
	call	_ZdlPv@PLT
.L1476:
	movl	$49, %edi
.LEHB43:
	call	_Znwm@PLT
.LEHE43:
	movb	$48, 48(%rax)
	movq	%rax, %r12
.L1478:
	leaq	_ZN4asio6detail12wait_handlerIZN7asiopal10ThreadPoolC4ERKN7openpal6LoggerERKSt10shared_ptrINS2_2IOEEjSt8functionIFvvEESF_EUlRKSt10error_codeE_E11do_completeEPNS0_15task_io_serviceEPNS0_25task_io_service_operationESI_m(%rip), %rax
	movq	88(%rbx), %rdi
	movq	%r12, %r8
	movq	$0, (%r12)
	movq	%rax, 8(%r12)
	movq	(%rsp), %rcx
	leaq	40(%rbx), %rsi
	movq	%r13, %rdx
	movl	$0, 16(%r12)
	movl	$0, 24(%r12)
	movq	%r15, 32(%r12)
	movb	$1, 136(%rbp)
.LEHB44:
	call	_ZN4asio6detail13epoll_reactor14schedule_timerINS0_18chrono_time_traitsINSt6chrono3_V212steady_clockENS_11wait_traitsIS6_EEEEEEvRNS0_11timer_queueIT_EERKNSB_9time_typeERNSC_14per_timer_dataEPNS0_7wait_opE@PLT
.LEHE44:
	xorl	%ebx, %ebx
	leaq	16+_ZTVNSt6thread11_State_implINS_8_InvokerISt5tupleIJZN7asiopal10ThreadPoolC4ERKN7openpal6LoggerERKSt10shared_ptrINS3_2IOEEjSt8functionIFvvEESG_EUlvE0_EEEEEE(%rip), %r15
	jmp	.L1479
	.p2align 4,,10
	.p2align 3
.L1485:
	movq	%r12, (%rsi)
	addq	$8, %rsi
	movq	%rsi, 192(%rbp)
.L1490:
	addl	$1, %ebx
	cmpl	%r14d, %ebx
	je	.L1600
.L1479:
	movl	$8, %edi
.LEHB45:
	call	_Znwm@PLT
.LEHE45:
	movq	$0, (%rax)
	movl	$24, %edi
	movq	%rax, %r12
.LEHB46:
	call	_Znwm@PLT
.LEHE46:
	movq	%r15, (%rax)
	leaq	32(%rsp), %r13
	xorl	%edx, %edx
	movq	%r12, %rdi
	movq	%rbp, 8(%rax)
	movq	%r13, %rsi
	movl	%ebx, 16(%rax)
	movq	%rax, 32(%rsp)
.LEHB47:
	call	_ZNSt6thread15_M_start_threadESt10unique_ptrINS_6_StateESt14default_deleteIS1_EEPFvvE@PLT
.LEHE47:
	movq	32(%rsp), %rdi
	testq	%rdi, %rdi
	je	.L1484
	movq	(%rdi), %rax
	call	*8(%rax)
.L1484:
	movq	%r12, 32(%rsp)
	movq	192(%rbp), %rsi
	cmpq	200(%rbp), %rsi
	jne	.L1485
	movq	8(%rsp), %rdi
	movq	%r13, %rdx
.LEHB48:
	call	_ZNSt6vectorISt10unique_ptrISt6threadSt14default_deleteIS1_EESaIS4_EE17_M_realloc_insertIJS4_EEEvN9__gnu_cxx17__normal_iteratorIPS4_S6_EEDpOT_@PLT
.LEHE48:
	movq	32(%rsp), %rdi
	testq	%rdi, %rdi
	je	.L1490
	cmpq	$0, (%rdi)
	jne	.L1494
	movl	$8, %esi
	addl	$1, %ebx
	call	_ZdlPvm@PLT
	cmpl	%r14d, %ebx
	jne	.L1479
.L1600:
	movq	56(%rsp), %rax
	subq	%fs:40, %rax
	jne	.L1601
	addq	$72, %rsp
	.cfi_remember_state
	.cfi_def_cfa_offset 56
	popq	%rbx
	.cfi_def_cfa_offset 48
	popq	%rbp
	.cfi_def_cfa_offset 40
	popq	%r12
	.cfi_def_cfa_offset 32
	popq	%r13
	.cfi_def_cfa_offset 24
	popq	%r14
	.cfi_def_cfa_offset 16
	popq	%r15
	.cfi_def_cfa_offset 8
	ret
	.p2align 4,,10
	.p2align 3
.L1472:
	.cfi_restore_state
	leaq	32(%rsp), %r13
	movq	%rbp, %rdi
	movl	$4, 32(%rsp)
	movq	%r13, %rsi
.LEHB49:
	call	_ZNK7openpal6Logger9IsEnabledERKNS_10LogFiltersE@PLT
	testb	%al, %al
	jne	.L1474
.L1599:
	call	_ZNSt3_V215system_categoryEv@PLT
	movzbl	136(%rbp), %r12d
	movq	120(%rbp), %rbx
	leaq	128(%rbp), %r13
	movq	%rax, %r15
	testb	%r12b, %r12b
	je	.L1508
	movq	88(%rbx), %rdi
	movq	(%rsp), %rdx
	leaq	40(%rbx), %rsi
	movl	$1, %r14d
	call	_ZN4asio6detail13epoll_reactor12cancel_timerINS0_18chrono_time_traitsINSt6chrono3_V212steady_clockENS_11wait_traitsIS6_EEEEEEmRNS0_11timer_queueIT_EERNSC_14per_timer_dataEm.constprop.0.isra.0
	movb	$0, 136(%rbp)
	movq	120(%rbp), %rbx
	jmp	.L1473
	.p2align 4,,10
	.p2align 3
.L1452:
	lock addl	$1, 8(%rax)
	jmp	.L1451
	.p2align 4,,10
	.p2align 3
.L1450:
	lock addl	$1, 8(%rdx)
	jmp	.L1449
	.p2align 4,,10
	.p2align 3
.L1454:
	lock addl	$1, 8(%rax)
	jmp	.L1453
	.p2align 4,,10
	.p2align 3
.L1469:
	movq	32(%rbx), %rbx
	testq	%rbx, %rbx
	jne	.L1471
.L1468:
	movq	(%rsp), %rax
	movq	%r15, %rbx
	movq	%rax, 32(%r15)
	movq	%r15, 56(%r12)
	jmp	.L1467
	.p2align 4,,10
	.p2align 3
.L1474:
	leaq	.LC35(%rip), %rcx
	leaq	.LC36(%rip), %rdx
	movq	%r13, %rsi
	movq	%rbp, %rdi
	movl	$4, 32(%rsp)
	call	_ZN7openpal6Logger3LogERKNS_10LogFiltersEPKcS5_@PLT
.LEHE49:
	jmp	.L1599
	.p2align 4,,10
	.p2align 3
.L1508:
	movl	$1, %r14d
	jmp	.L1473
.L1494:
	call	_ZSt9terminatev@PLT
.L1601:
	call	__stack_chk_fail@PLT
.L1514:
	endbr64
	movq	%rax, %rbx
	jmp	.L1480
.L1512:
	endbr64
	movq	%rax, %r12
	jmp	.L1458
.L1511:
	endbr64
	movq	%rax, %rbx
	jmp	.L1492
.L1513:
	endbr64
	movq	%rax, %r12
	jmp	.L1463
.L1510:
	endbr64
	movq	%rax, %rbx
	jmp	.L1483
.L1515:
	endbr64
	movq	%rax, %rbx
	jmp	.L1489
.L1516:
	endbr64
	movq	%rax, %rbx
	jmp	.L1487
.L1509:
	endbr64
	movq	%rax, %r12
	jmp	.L1503
	.section	.gcc_except_table
.LLSDA7079:
	.byte	0xff
	.byte	0xff
	.byte	0x1
	.uleb128 .LLSDACSE7079-.LLSDACSB7079
.LLSDACSB7079:
	.uleb128 .LEHB40-.LFB7079
	.uleb128 .LEHE40-.LEHB40
	.uleb128 .L1512-.LFB7079
	.uleb128 0
	.uleb128 .LEHB41-.LFB7079
	.uleb128 .LEHE41-.LEHB41
	.uleb128 .L1513-.LFB7079
	.uleb128 0
	.uleb128 .LEHB42-.LFB7079
	.uleb128 .LEHE42-.LEHB42
	.uleb128 .L1509-.LFB7079
	.uleb128 0
	.uleb128 .LEHB43-.LFB7079
	.uleb128 .LEHE43-.LEHB43
	.uleb128 .L1510-.LFB7079
	.uleb128 0
	.uleb128 .LEHB44-.LFB7079
	.uleb128 .LEHE44-.LEHB44
	.uleb128 .L1514-.LFB7079
	.uleb128 0
	.uleb128 .LEHB45-.LFB7079
	.uleb128 .LEHE45-.LEHB45
	.uleb128 .L1510-.LFB7079
	.uleb128 0
	.uleb128 .LEHB46-.LFB7079
	.uleb128 .LEHE46-.LEHB46
	.uleb128 .L1515-.LFB7079
	.uleb128 0
	.uleb128 .LEHB47-.LFB7079
	.uleb128 .LEHE47-.LEHB47
	.uleb128 .L1516-.LFB7079
	.uleb128 0
	.uleb128 .LEHB48-.LFB7079
	.uleb128 .LEHE48-.LEHB48
	.uleb128 .L1511-.LFB7079
	.uleb128 0
	.uleb128 .LEHB49-.LFB7079
	.uleb128 .LEHE49-.LEHB49
	.uleb128 .L1510-.LFB7079
	.uleb128 0
.LLSDACSE7079:
	.text
	.cfi_endproc
	.section	.text.unlikely
	.cfi_startproc
	.cfi_personality 0x9b,DW.ref.__gxx_personality_v0
	.cfi_lsda 0x1b,.LLSDAC7079
	.type	_ZN7asiopal10ThreadPoolC2ERKN7openpal6LoggerERKSt10shared_ptrINS_2IOEEjSt8functionIFvvEESC_.cold, @function
_ZN7asiopal10ThreadPoolC2ERKN7openpal6LoggerERKSt10shared_ptrINS_2IOEEjSt8functionIFvvEESC_.cold:
.LFSB7079:
.L1480:
	.cfi_def_cfa_offset 128
	.cfi_offset 3, -56
	.cfi_offset 6, -48
	.cfi_offset 12, -40
	.cfi_offset 13, -32
	.cfi_offset 14, -24
	.cfi_offset 15, -16
	data16	leaq	_ZN4asio6detail15keyword_tss_ptrINS0_10call_stackINS0_15task_io_serviceENS0_27task_io_service_thread_infoEE7contextEE6value_E@tlsgd(%rip), %rdi
	.value	0x6666
	rex64
	call	__tls_get_addr@PLT
	movq	(%rax), %rax
	testq	%rax, %rax
	jne	.L1602
.L1481:
	movq	%r12, %rdi
	call	_ZdlPv@PLT
.L1483:
	movq	192(%rbp), %r12
	movq	184(%rbp), %r13
.L1495:
	cmpq	%r13, %r12
	je	.L1603
	movq	0(%r13), %rdi
	testq	%rdi, %rdi
	je	.L1496
	cmpq	$0, (%rdi)
	jne	.L1494
	movl	$8, %esi
	call	_ZdlPvm@PLT
.L1496:
	addq	$8, %r13
	jmp	.L1495
.L1458:
	movq	64(%rbp), %rax
	testq	%rax, %rax
	je	.L1460
	movq	24(%rsp), %rsi
	movl	$3, %edx
	movq	%rsi, %rdi
	call	*%rax
.L1460:
	movq	40(%rbp), %rdi
	testq	%rdi, %rdi
	je	.L1506
	call	_ZNSt16_Sp_counted_baseILN9__gnu_cxx12_Lock_policyE2EE10_M_releaseEv@PLT
.L1506:
	movq	%rbp, %rdi
	call	_ZN7openpal6LoggerD1Ev@PLT
	movq	%r12, %rdi
.LEHB50:
	call	_Unwind_Resume@PLT
.LEHE50:
.L1602:
	movq	8(%rax), %rax
	testq	%rax, %rax
	je	.L1481
	cmpq	$0, (%rax)
	jne	.L1481
	movzbl	48(%r12), %edx
	movb	%dl, (%r12)
	movq	%r12, (%rax)
	jmp	.L1483
.L1603:
	movq	184(%rbp), %rdi
	movq	200(%rbp), %rsi
	subq	%rdi, %rsi
	testq	%rdi, %rdi
	je	.L1498
	call	_ZdlPvm@PLT
.L1498:
	call	_ZNSt3_V215system_categoryEv@PLT
	cmpb	$0, 136(%rbp)
	movq	120(%rbp), %r13
	movq	%rax, %r12
	jne	.L1604
.L1499:
	leaq	32(%rsp), %r13
.L1502:
	movq	144(%rbp), %rsi
	testq	%rsi, %rsi
	jne	.L1605
	movq	%rbx, %r12
.L1503:
	movq	96(%rbp), %rax
	testq	%rax, %rax
	je	.L1465
	movq	16(%rsp), %rsi
	movl	$3, %edx
	movq	%rsi, %rdi
	call	*%rax
.L1465:
	movq	64(%rbp), %rax
	testq	%rax, %rax
	je	.L1460
	movq	24(%rsp), %rsi
	movl	$3, %edx
	movq	%rsi, %rdi
	call	*%rax
	jmp	.L1460
.L1604:
	movq	88(%r13), %rdi
	movq	(%rsp), %rdx
	leaq	40(%r13), %rsi
	call	_ZN4asio6detail13epoll_reactor12cancel_timerINS0_18chrono_time_traitsINSt6chrono3_V212steady_clockENS_11wait_traitsIS6_EEEEEEmRNS0_11timer_queueIT_EERNSC_14per_timer_dataEm.constprop.0.isra.0
	movb	$0, 136(%rbp)
	jmp	.L1499
.L1492:
	movq	32(%rsp), %rdi
	testq	%rdi, %rdi
	je	.L1483
	cmpq	$0, (%rdi)
	jne	.L1494
	movl	$8, %esi
	call	_ZdlPvm@PLT
	jmp	.L1483
.L1487:
	movq	32(%rsp), %rdi
	testq	%rdi, %rdi
	je	.L1489
	movq	(%rdi), %rax
	call	*8(%rax)
.L1489:
	movl	$8, %esi
	movq	%r12, %rdi
	call	_ZdlPvm@PLT
	jmp	.L1483
.L1463:
	movq	96(%rbp), %rax
	testq	%rax, %rax
	je	.L1465
	movq	16(%rsp), %rsi
	movl	$3, %edx
	movq	%rsi, %rdi
	call	*%rax
	jmp	.L1465
.L1605:
	movq	(%rsi), %rax
	movq	%rax, 144(%rbp)
	testq	%rax, %rax
	jne	.L1501
	movq	$0, 152(%rbp)
.L1501:
	movq	$0, (%rsi)
	movq	8(%rsi), %rax
	xorl	%ecx, %ecx
	movq	%r13, %rdx
	movl	$0, 32(%rsp)
	xorl	%edi, %edi
	movq	%r12, 40(%rsp)
	call	*%rax
	jmp	.L1502
	.cfi_endproc
.LFE7079:
	.section	.gcc_except_table
.LLSDAC7079:
	.byte	0xff
	.byte	0xff
	.byte	0x1
	.uleb128 .LLSDACSEC7079-.LLSDACSBC7079
.LLSDACSBC7079:
	.uleb128 .LEHB50-.LCOLDB37
	.uleb128 .LEHE50-.LEHB50
	.uleb128 0
	.uleb128 0
.LLSDACSEC7079:
	.section	.text.unlikely
	.text
	.size	_ZN7asiopal10ThreadPoolC2ERKN7openpal6LoggerERKSt10shared_ptrINS_2IOEEjSt8functionIFvvEESC_, .-_ZN7asiopal10ThreadPoolC2ERKN7openpal6LoggerERKSt10shared_ptrINS_2IOEEjSt8functionIFvvEESC_
	.section	.text.unlikely
	.size	_ZN7asiopal10ThreadPoolC2ERKN7openpal6LoggerERKSt10shared_ptrINS_2IOEEjSt8functionIFvvEESC_.cold, .-_ZN7asiopal10ThreadPoolC2ERKN7openpal6LoggerERKSt10shared_ptrINS_2IOEEjSt8functionIFvvEESC_.cold
.LCOLDE37:
	.text
.LHOTE37:
	.globl	_ZN7asiopal10ThreadPoolC1ERKN7openpal6LoggerERKSt10shared_ptrINS_2IOEEjSt8functionIFvvEESC_
	.set	_ZN7asiopal10ThreadPoolC1ERKN7openpal6LoggerERKSt10shared_ptrINS_2IOEEjSt8functionIFvvEESC_,_ZN7asiopal10ThreadPoolC2ERKN7openpal6LoggerERKSt10shared_ptrINS_2IOEEjSt8functionIFvvEESC_
	.section	.text.startup,"ax",@progbits
	.p2align 4
	.type	_GLOBAL__sub_I_ThreadPool.cpp, @function
_GLOBAL__sub_I_ThreadPool.cpp:
.LFB9739:
	.cfi_startproc
	endbr64
	pushq	%rbp
	.cfi_def_cfa_offset 16
	.cfi_offset 6, -16
	movq	_ZGVZN4asio15system_categoryEvE8instance@GOTPCREL(%rip), %rbp
	movzbl	0(%rbp), %eax
	testb	%al, %al
	je	.L1638
.L1608:
	movq	_ZGVZN4asio5error18get_netdb_categoryEvE8instance@GOTPCREL(%rip), %rbp
	movzbl	0(%rbp), %eax
	testb	%al, %al
	je	.L1639
.L1611:
	movq	_ZGVZN4asio5error21get_addrinfo_categoryEvE8instance@GOTPCREL(%rip), %rbp
	movzbl	0(%rbp), %eax
	testb	%al, %al
	je	.L1640
.L1614:
	movq	_ZGVZN4asio5error17get_misc_categoryEvE8instance@GOTPCREL(%rip), %rbp
	movzbl	0(%rbp), %eax
	testb	%al, %al
	je	.L1641
.L1617:
	movq	_ZGVN4asio6detail10call_stackINS0_15task_io_serviceENS0_27task_io_service_thread_infoEE4top_E@GOTPCREL(%rip), %rax
	cmpb	$0, (%rax)
	je	.L1642
.L1619:
	movq	_ZGVN4asio6detail12service_baseINS0_13epoll_reactorEE2idE@GOTPCREL(%rip), %rax
	cmpb	$0, (%rax)
	je	.L1643
.L1620:
	movq	_ZGVN4asio6detail12service_baseINS0_15task_io_serviceEE2idE@GOTPCREL(%rip), %rax
	cmpb	$0, (%rax)
	je	.L1644
.L1621:
	movq	_ZGVN4asio6detail10call_stackINS0_14strand_service11strand_implEhE4top_E@GOTPCREL(%rip), %rax
	cmpb	$0, (%rax)
	je	.L1645
.L1622:
	movq	_ZGVN4asio6detail12service_baseINS0_14strand_serviceEE2idE@GOTPCREL(%rip), %rax
	cmpb	$0, (%rax)
	je	.L1646
.L1623:
	movq	_ZGVN4asio6detail12service_baseINS_22waitable_timer_serviceINSt6chrono3_V212steady_clockENS_11wait_traitsIS5_EEEEE2idE@GOTPCREL(%rip), %rax
	cmpb	$0, (%rax)
	je	.L1647
	popq	%rbp
	.cfi_remember_state
	.cfi_def_cfa_offset 8
	ret
.L1638:
	.cfi_restore_state
	movq	%rbp, %rdi
	call	__cxa_guard_acquire@PLT
	testl	%eax, %eax
	je	.L1608
	movq	_ZZN4asio15system_categoryEvE8instance@GOTPCREL(%rip), %rsi
	movq	_ZN4asio6detail15system_categoryD1Ev@GOTPCREL(%rip), %rdi
	leaq	__dso_handle(%rip), %rdx
	call	__cxa_atexit@PLT
	movq	%rbp, %rdi
	call	__cxa_guard_release@PLT
	jmp	.L1608
.L1647:
	movb	$1, (%rax)
	leaq	__dso_handle(%rip), %rdx
	movq	_ZN4asio6detail12service_baseINS_22waitable_timer_serviceINSt6chrono3_V212steady_clockENS_11wait_traitsIS5_EEEEE2idE@GOTPCREL(%rip), %rsi
	movq	_ZN4asio6detail10service_idINS_22waitable_timer_serviceINSt6chrono3_V212steady_clockENS_11wait_traitsIS5_EEEEED1Ev@GOTPCREL(%rip), %rdi
	popq	%rbp
	.cfi_remember_state
	.cfi_def_cfa_offset 8
	jmp	__cxa_atexit@PLT
.L1646:
	.cfi_restore_state
	movb	$1, (%rax)
	movq	_ZN4asio6detail12service_baseINS0_14strand_serviceEE2idE@GOTPCREL(%rip), %rsi
	leaq	__dso_handle(%rip), %rdx
	movq	_ZN4asio6detail10service_idINS0_14strand_serviceEED1Ev@GOTPCREL(%rip), %rdi
	call	__cxa_atexit@PLT
	jmp	.L1623
.L1645:
	movb	$1, (%rax)
	movq	_ZN4asio6detail10call_stackINS0_14strand_service11strand_implEhE4top_E@GOTPCREL(%rip), %rsi
	leaq	__dso_handle(%rip), %rdx
	movq	_ZN4asio6detail7tss_ptrINS0_10call_stackINS0_14strand_service11strand_implEhE7contextEED1Ev@GOTPCREL(%rip), %rdi
	call	__cxa_atexit@PLT
	jmp	.L1622
.L1644:
	movb	$1, (%rax)
	movq	_ZN4asio6detail12service_baseINS0_15task_io_serviceEE2idE@GOTPCREL(%rip), %rsi
	leaq	__dso_handle(%rip), %rdx
	movq	_ZN4asio6detail10service_idINS0_15task_io_serviceEED1Ev@GOTPCREL(%rip), %rdi
	call	__cxa_atexit@PLT
	jmp	.L1621
.L1643:
	movb	$1, (%rax)
	movq	_ZN4asio6detail12service_baseINS0_13epoll_reactorEE2idE@GOTPCREL(%rip), %rsi
	leaq	__dso_handle(%rip), %rdx
	movq	_ZN4asio6detail10service_idINS0_13epoll_reactorEED1Ev@GOTPCREL(%rip), %rdi
	call	__cxa_atexit@PLT
	jmp	.L1620
.L1642:
	movb	$1, (%rax)
	movq	_ZN4asio6detail10call_stackINS0_15task_io_serviceENS0_27task_io_service_thread_infoEE4top_E@GOTPCREL(%rip), %rsi
	leaq	__dso_handle(%rip), %rdx
	movq	_ZN4asio6detail7tss_ptrINS0_10call_stackINS0_15task_io_serviceENS0_27task_io_service_thread_infoEE7contextEED1Ev@GOTPCREL(%rip), %rdi
	call	__cxa_atexit@PLT
	jmp	.L1619
.L1641:
	movq	%rbp, %rdi
	call	__cxa_guard_acquire@PLT
	testl	%eax, %eax
	je	.L1617
	movq	_ZZN4asio5error17get_misc_categoryEvE8instance@GOTPCREL(%rip), %rsi
	movq	_ZN4asio5error6detail13misc_categoryD1Ev@GOTPCREL(%rip), %rdi
	leaq	__dso_handle(%rip), %rdx
	call	__cxa_atexit@PLT
	movq	%rbp, %rdi
	call	__cxa_guard_release@PLT
	jmp	.L1617
.L1640:
	movq	%rbp, %rdi
	call	__cxa_guard_acquire@PLT
	testl	%eax, %eax
	je	.L1614
	movq	_ZZN4asio5error21get_addrinfo_categoryEvE8instance@GOTPCREL(%rip), %rsi
	movq	_ZN4asio5error6detail17addrinfo_categoryD1Ev@GOTPCREL(%rip), %rdi
	leaq	__dso_handle(%rip), %rdx
	call	__cxa_atexit@PLT
	movq	%rbp, %rdi
	call	__cxa_guard_release@PLT
	jmp	.L1614
.L1639:
	movq	%rbp, %rdi
	call	__cxa_guard_acquire@PLT
	testl	%eax, %eax
	je	.L1611
	movq	_ZZN4asio5error18get_netdb_categoryEvE8instance@GOTPCREL(%rip), %rsi
	movq	_ZN4asio5error6detail14netdb_categoryD1Ev@GOTPCREL(%rip), %rdi
	leaq	__dso_handle(%rip), %rdx
	call	__cxa_atexit@PLT
	movq	%rbp, %rdi
	call	__cxa_guard_release@PLT
	jmp	.L1611
	.cfi_endproc
.LFE9739:
	.size	_GLOBAL__sub_I_ThreadPool.cpp, .-_GLOBAL__sub_I_ThreadPool.cpp
	.section	.init_array,"aw"
	.align 8
	.quad	_GLOBAL__sub_I_ThreadPool.cpp
	.weak	_ZTSN4asio6detail11noncopyableE
	.section	.rodata._ZTSN4asio6detail11noncopyableE,"aG",@progbits,_ZTSN4asio6detail11noncopyableE,comdat
	.align 16
	.type	_ZTSN4asio6detail11noncopyableE, @object
	.size	_ZTSN4asio6detail11noncopyableE, 28
_ZTSN4asio6detail11noncopyableE:
	.string	"N4asio6detail11noncopyableE"
	.weak	_ZTIN4asio6detail11noncopyableE
	.section	.data.rel.ro._ZTIN4asio6detail11noncopyableE,"awG",@progbits,_ZTIN4asio6detail11noncopyableE,comdat
	.align 8
	.type	_ZTIN4asio6detail11noncopyableE, @object
	.size	_ZTIN4asio6detail11noncopyableE, 16
_ZTIN4asio6detail11noncopyableE:
	.quad	_ZTVN10__cxxabiv117__class_type_infoE+16
	.quad	_ZTSN4asio6detail11noncopyableE
	.weak	_ZGVN4asio6detail12service_baseINS_22waitable_timer_serviceINSt6chrono3_V212steady_clockENS_11wait_traitsIS5_EEEEE2idE
	.section	.bss._ZGVN4asio6detail12service_baseINS_22waitable_timer_serviceINSt6chrono3_V212steady_clockENS_11wait_traitsIS5_EEEEE2idE,"awG",@nobits,_ZGVN4asio6detail12service_baseINS_22waitable_timer_serviceINSt6chrono3_V212steady_clockENS_11wait_traitsIS5_EEEEE2idE,comdat
	.align 8
	.type	_ZGVN4asio6detail12service_baseINS_22waitable_timer_serviceINSt6chrono3_V212steady_clockENS_11wait_traitsIS5_EEEEE2idE, @gnu_unique_object
	.size	_ZGVN4asio6detail12service_baseINS_22waitable_timer_serviceINSt6chrono3_V212steady_clockENS_11wait_traitsIS5_EEEEE2idE, 8
_ZGVN4asio6detail12service_baseINS_22waitable_timer_serviceINSt6chrono3_V212steady_clockENS_11wait_traitsIS5_EEEEE2idE:
	.zero	8
	.weak	_ZGVN4asio6detail12service_baseINS0_14strand_serviceEE2idE
	.section	.bss._ZGVN4asio6detail12service_baseINS0_14strand_serviceEE2idE,"awG",@nobits,_ZGVN4asio6detail12service_baseINS0_14strand_serviceEE2idE,comdat
	.align 8
	.type	_ZGVN4asio6detail12service_baseINS0_14strand_serviceEE2idE, @gnu_unique_object
	.size	_ZGVN4asio6detail12service_baseINS0_14strand_serviceEE2idE, 8
_ZGVN4asio6detail12service_baseINS0_14strand_serviceEE2idE:
	.zero	8
	.weak	_ZGVN4asio6detail10call_stackINS0_14strand_service11strand_implEhE4top_E
	.section	.bss._ZGVN4asio6detail10call_stackINS0_14strand_service11strand_implEhE4top_E,"awG",@nobits,_ZGVN4asio6detail10call_stackINS0_14strand_service11strand_implEhE4top_E,comdat
	.align 8
	.type	_ZGVN4asio6detail10call_stackINS0_14strand_service11strand_implEhE4top_E, @gnu_unique_object
	.size	_ZGVN4asio6detail10call_stackINS0_14strand_service11strand_implEhE4top_E, 8
_ZGVN4asio6detail10call_stackINS0_14strand_service11strand_implEhE4top_E:
	.zero	8
	.weak	_ZGVN4asio6detail12service_baseINS0_15task_io_serviceEE2idE
	.section	.bss._ZGVN4asio6detail12service_baseINS0_15task_io_serviceEE2idE,"awG",@nobits,_ZGVN4asio6detail12service_baseINS0_15task_io_serviceEE2idE,comdat
	.align 8
	.type	_ZGVN4asio6detail12service_baseINS0_15task_io_serviceEE2idE, @gnu_unique_object
	.size	_ZGVN4asio6detail12service_baseINS0_15task_io_serviceEE2idE, 8
_ZGVN4asio6detail12service_baseINS0_15task_io_serviceEE2idE:
	.zero	8
	.weak	_ZGVN4asio6detail12service_baseINS0_13epoll_reactorEE2idE
	.section	.bss._ZGVN4asio6detail12service_baseINS0_13epoll_reactorEE2idE,"awG",@nobits,_ZGVN4asio6detail12service_baseINS0_13epoll_reactorEE2idE,comdat
	.align 8
	.type	_ZGVN4asio6detail12service_baseINS0_13epoll_reactorEE2idE, @gnu_unique_object
	.size	_ZGVN4asio6detail12service_baseINS0_13epoll_reactorEE2idE, 8
_ZGVN4asio6detail12service_baseINS0_13epoll_reactorEE2idE:
	.zero	8
	.weak	_ZGVN4asio6detail10call_stackINS0_15task_io_serviceENS0_27task_io_service_thread_infoEE4top_E
	.section	.bss._ZGVN4asio6detail10call_stackINS0_15task_io_serviceENS0_27task_io_service_thread_infoEE4top_E,"awG",@nobits,_ZGVN4asio6detail10call_stackINS0_15task_io_serviceENS0_27task_io_service_thread_infoEE4top_E,comdat
	.align 8
	.type	_ZGVN4asio6detail10call_stackINS0_15task_io_serviceENS0_27task_io_service_thread_infoEE4top_E, @gnu_unique_object
	.size	_ZGVN4asio6detail10call_stackINS0_15task_io_serviceENS0_27task_io_service_thread_infoEE4top_E, 8
_ZGVN4asio6detail10call_stackINS0_15task_io_serviceENS0_27task_io_service_thread_infoEE4top_E:
	.zero	8
	.weak	_ZN4asio6detail12service_baseINS_22waitable_timer_serviceINSt6chrono3_V212steady_clockENS_11wait_traitsIS5_EEEEE2idE
	.section	.bss._ZN4asio6detail12service_baseINS_22waitable_timer_serviceINSt6chrono3_V212steady_clockENS_11wait_traitsIS5_EEEEE2idE,"awG",@nobits,_ZN4asio6detail12service_baseINS_22waitable_timer_serviceINSt6chrono3_V212steady_clockENS_11wait_traitsIS5_EEEEE2idE,comdat
	.type	_ZN4asio6detail12service_baseINS_22waitable_timer_serviceINSt6chrono3_V212steady_clockENS_11wait_traitsIS5_EEEEE2idE, @gnu_unique_object
	.size	_ZN4asio6detail12service_baseINS_22waitable_timer_serviceINSt6chrono3_V212steady_clockENS_11wait_traitsIS5_EEEEE2idE, 1
_ZN4asio6detail12service_baseINS_22waitable_timer_serviceINSt6chrono3_V212steady_clockENS_11wait_traitsIS5_EEEEE2idE:
	.zero	1
	.weak	_ZN4asio6detail12service_baseINS0_14strand_serviceEE2idE
	.section	.bss._ZN4asio6detail12service_baseINS0_14strand_serviceEE2idE,"awG",@nobits,_ZN4asio6detail12service_baseINS0_14strand_serviceEE2idE,comdat
	.type	_ZN4asio6detail12service_baseINS0_14strand_serviceEE2idE, @gnu_unique_object
	.size	_ZN4asio6detail12service_baseINS0_14strand_serviceEE2idE, 1
_ZN4asio6detail12service_baseINS0_14strand_serviceEE2idE:
	.zero	1
	.weak	_ZN4asio6detail10call_stackINS0_14strand_service11strand_implEhE4top_E
	.section	.bss._ZN4asio6detail10call_stackINS0_14strand_service11strand_implEhE4top_E,"awG",@nobits,_ZN4asio6detail10call_stackINS0_14strand_service11strand_implEhE4top_E,comdat
	.type	_ZN4asio6detail10call_stackINS0_14strand_service11strand_implEhE4top_E, @gnu_unique_object
	.size	_ZN4asio6detail10call_stackINS0_14strand_service11strand_implEhE4top_E, 1
_ZN4asio6detail10call_stackINS0_14strand_service11strand_implEhE4top_E:
	.zero	1
	.weak	_ZN4asio6detail12service_baseINS0_15task_io_serviceEE2idE
	.section	.bss._ZN4asio6detail12service_baseINS0_15task_io_serviceEE2idE,"awG",@nobits,_ZN4asio6detail12service_baseINS0_15task_io_serviceEE2idE,comdat
	.type	_ZN4asio6detail12service_baseINS0_15task_io_serviceEE2idE, @gnu_unique_object
	.size	_ZN4asio6detail12service_baseINS0_15task_io_serviceEE2idE, 1
_ZN4asio6detail12service_baseINS0_15task_io_serviceEE2idE:
	.zero	1
	.weak	_ZN4asio6detail12service_baseINS0_13epoll_reactorEE2idE
	.section	.bss._ZN4asio6detail12service_baseINS0_13epoll_reactorEE2idE,"awG",@nobits,_ZN4asio6detail12service_baseINS0_13epoll_reactorEE2idE,comdat
	.type	_ZN4asio6detail12service_baseINS0_13epoll_reactorEE2idE, @gnu_unique_object
	.size	_ZN4asio6detail12service_baseINS0_13epoll_reactorEE2idE, 1
_ZN4asio6detail12service_baseINS0_13epoll_reactorEE2idE:
	.zero	1
	.weak	_ZN4asio6detail10call_stackINS0_15task_io_serviceENS0_27task_io_service_thread_infoEE4top_E
	.section	.bss._ZN4asio6detail10call_stackINS0_15task_io_serviceENS0_27task_io_service_thread_infoEE4top_E,"awG",@nobits,_ZN4asio6detail10call_stackINS0_15task_io_serviceENS0_27task_io_service_thread_infoEE4top_E,comdat
	.type	_ZN4asio6detail10call_stackINS0_15task_io_serviceENS0_27task_io_service_thread_infoEE4top_E, @gnu_unique_object
	.size	_ZN4asio6detail10call_stackINS0_15task_io_serviceENS0_27task_io_service_thread_infoEE4top_E, 1
_ZN4asio6detail10call_stackINS0_15task_io_serviceENS0_27task_io_service_thread_infoEE4top_E:
	.zero	1
	.weak	_ZTSN4asio6detail15system_categoryE
	.section	.rodata._ZTSN4asio6detail15system_categoryE,"aG",@progbits,_ZTSN4asio6detail15system_categoryE,comdat
	.align 32
	.type	_ZTSN4asio6detail15system_categoryE, @object
	.size	_ZTSN4asio6detail15system_categoryE, 32
_ZTSN4asio6detail15system_categoryE:
	.string	"N4asio6detail15system_categoryE"
	.weak	_ZTIN4asio6detail15system_categoryE
	.section	.data.rel.ro._ZTIN4asio6detail15system_categoryE,"awG",@progbits,_ZTIN4asio6detail15system_categoryE,comdat
	.align 8
	.type	_ZTIN4asio6detail15system_categoryE, @object
	.size	_ZTIN4asio6detail15system_categoryE, 24
_ZTIN4asio6detail15system_categoryE:
	.quad	_ZTVN10__cxxabiv120__si_class_type_infoE+16
	.quad	_ZTSN4asio6detail15system_categoryE
	.quad	_ZTINSt3_V214error_categoryE
	.weak	_ZTSN4asio10io_service7serviceE
	.section	.rodata._ZTSN4asio10io_service7serviceE,"aG",@progbits,_ZTSN4asio10io_service7serviceE,comdat
	.align 16
	.type	_ZTSN4asio10io_service7serviceE, @object
	.size	_ZTSN4asio10io_service7serviceE, 28
_ZTSN4asio10io_service7serviceE:
	.string	"N4asio10io_service7serviceE"
	.weak	_ZTIN4asio10io_service7serviceE
	.section	.data.rel.ro._ZTIN4asio10io_service7serviceE,"awG",@progbits,_ZTIN4asio10io_service7serviceE,comdat
	.align 8
	.type	_ZTIN4asio10io_service7serviceE, @object
	.size	_ZTIN4asio10io_service7serviceE, 40
_ZTIN4asio10io_service7serviceE:
	.quad	_ZTVN10__cxxabiv121__vmi_class_type_infoE+16
	.quad	_ZTSN4asio10io_service7serviceE
	.long	0
	.long	1
	.quad	_ZTIN4asio6detail11noncopyableE
	.quad	0
	.weak	_ZTSN4asio5error6detail14netdb_categoryE
	.section	.rodata._ZTSN4asio5error6detail14netdb_categoryE,"aG",@progbits,_ZTSN4asio5error6detail14netdb_categoryE,comdat
	.align 32
	.type	_ZTSN4asio5error6detail14netdb_categoryE, @object
	.size	_ZTSN4asio5error6detail14netdb_categoryE, 37
_ZTSN4asio5error6detail14netdb_categoryE:
	.string	"N4asio5error6detail14netdb_categoryE"
	.weak	_ZTIN4asio5error6detail14netdb_categoryE
	.section	.data.rel.ro._ZTIN4asio5error6detail14netdb_categoryE,"awG",@progbits,_ZTIN4asio5error6detail14netdb_categoryE,comdat
	.align 8
	.type	_ZTIN4asio5error6detail14netdb_categoryE, @object
	.size	_ZTIN4asio5error6detail14netdb_categoryE, 24
_ZTIN4asio5error6detail14netdb_categoryE:
	.quad	_ZTVN10__cxxabiv120__si_class_type_infoE+16
	.quad	_ZTSN4asio5error6detail14netdb_categoryE
	.quad	_ZTINSt3_V214error_categoryE
	.weak	_ZTSN4asio5error6detail17addrinfo_categoryE
	.section	.rodata._ZTSN4asio5error6detail17addrinfo_categoryE,"aG",@progbits,_ZTSN4asio5error6detail17addrinfo_categoryE,comdat
	.align 32
	.type	_ZTSN4asio5error6detail17addrinfo_categoryE, @object
	.size	_ZTSN4asio5error6detail17addrinfo_categoryE, 40
_ZTSN4asio5error6detail17addrinfo_categoryE:
	.string	"N4asio5error6detail17addrinfo_categoryE"
	.weak	_ZTIN4asio5error6detail17addrinfo_categoryE
	.section	.data.rel.ro._ZTIN4asio5error6detail17addrinfo_categoryE,"awG",@progbits,_ZTIN4asio5error6detail17addrinfo_categoryE,comdat
	.align 8
	.type	_ZTIN4asio5error6detail17addrinfo_categoryE, @object
	.size	_ZTIN4asio5error6detail17addrinfo_categoryE, 24
_ZTIN4asio5error6detail17addrinfo_categoryE:
	.quad	_ZTVN10__cxxabiv120__si_class_type_infoE+16
	.quad	_ZTSN4asio5error6detail17addrinfo_categoryE
	.quad	_ZTINSt3_V214error_categoryE
	.weak	_ZTSN4asio5error6detail13misc_categoryE
	.section	.rodata._ZTSN4asio5error6detail13misc_categoryE,"aG",@progbits,_ZTSN4asio5error6detail13misc_categoryE,comdat
	.align 32
	.type	_ZTSN4asio5error6detail13misc_categoryE, @object
	.size	_ZTSN4asio5error6detail13misc_categoryE, 36
_ZTSN4asio5error6detail13misc_categoryE:
	.string	"N4asio5error6detail13misc_categoryE"
	.weak	_ZTIN4asio5error6detail13misc_categoryE
	.section	.data.rel.ro._ZTIN4asio5error6detail13misc_categoryE,"awG",@progbits,_ZTIN4asio5error6detail13misc_categoryE,comdat
	.align 8
	.type	_ZTIN4asio5error6detail13misc_categoryE, @object
	.size	_ZTIN4asio5error6detail13misc_categoryE, 24
_ZTIN4asio5error6detail13misc_categoryE:
	.quad	_ZTVN10__cxxabiv120__si_class_type_infoE+16
	.quad	_ZTSN4asio5error6detail13misc_categoryE
	.quad	_ZTINSt3_V214error_categoryE
	.weak	_ZTSN4asio6detail16timer_queue_baseE
	.section	.rodata._ZTSN4asio6detail16timer_queue_baseE,"aG",@progbits,_ZTSN4asio6detail16timer_queue_baseE,comdat
	.align 32
	.type	_ZTSN4asio6detail16timer_queue_baseE, @object
	.size	_ZTSN4asio6detail16timer_queue_baseE, 33
_ZTSN4asio6detail16timer_queue_baseE:
	.string	"N4asio6detail16timer_queue_baseE"
	.weak	_ZTIN4asio6detail16timer_queue_baseE
	.section	.data.rel.ro._ZTIN4asio6detail16timer_queue_baseE,"awG",@progbits,_ZTIN4asio6detail16timer_queue_baseE,comdat
	.align 8
	.type	_ZTIN4asio6detail16timer_queue_baseE, @object
	.size	_ZTIN4asio6detail16timer_queue_baseE, 40
_ZTIN4asio6detail16timer_queue_baseE:
	.quad	_ZTVN10__cxxabiv121__vmi_class_type_infoE+16
	.quad	_ZTSN4asio6detail16timer_queue_baseE
	.long	0
	.long	1
	.quad	_ZTIN4asio6detail11noncopyableE
	.quad	0
	.weak	_ZTSN4asio6detail12service_baseINS0_13epoll_reactorEEE
	.section	.rodata._ZTSN4asio6detail12service_baseINS0_13epoll_reactorEEE,"aG",@progbits,_ZTSN4asio6detail12service_baseINS0_13epoll_reactorEEE,comdat
	.align 32
	.type	_ZTSN4asio6detail12service_baseINS0_13epoll_reactorEEE, @object
	.size	_ZTSN4asio6detail12service_baseINS0_13epoll_reactorEEE, 51
_ZTSN4asio6detail12service_baseINS0_13epoll_reactorEEE:
	.string	"N4asio6detail12service_baseINS0_13epoll_reactorEEE"
	.weak	_ZTIN4asio6detail12service_baseINS0_13epoll_reactorEEE
	.section	.data.rel.ro._ZTIN4asio6detail12service_baseINS0_13epoll_reactorEEE,"awG",@progbits,_ZTIN4asio6detail12service_baseINS0_13epoll_reactorEEE,comdat
	.align 8
	.type	_ZTIN4asio6detail12service_baseINS0_13epoll_reactorEEE, @object
	.size	_ZTIN4asio6detail12service_baseINS0_13epoll_reactorEEE, 24
_ZTIN4asio6detail12service_baseINS0_13epoll_reactorEEE:
	.quad	_ZTVN10__cxxabiv120__si_class_type_infoE+16
	.quad	_ZTSN4asio6detail12service_baseINS0_13epoll_reactorEEE
	.quad	_ZTIN4asio10io_service7serviceE
	.weak	_ZTSN4asio6detail13epoll_reactorE
	.section	.rodata._ZTSN4asio6detail13epoll_reactorE,"aG",@progbits,_ZTSN4asio6detail13epoll_reactorE,comdat
	.align 16
	.type	_ZTSN4asio6detail13epoll_reactorE, @object
	.size	_ZTSN4asio6detail13epoll_reactorE, 30
_ZTSN4asio6detail13epoll_reactorE:
	.string	"N4asio6detail13epoll_reactorE"
	.weak	_ZTIN4asio6detail13epoll_reactorE
	.section	.data.rel.ro._ZTIN4asio6detail13epoll_reactorE,"awG",@progbits,_ZTIN4asio6detail13epoll_reactorE,comdat
	.align 8
	.type	_ZTIN4asio6detail13epoll_reactorE, @object
	.size	_ZTIN4asio6detail13epoll_reactorE, 24
_ZTIN4asio6detail13epoll_reactorE:
	.quad	_ZTVN10__cxxabiv120__si_class_type_infoE+16
	.quad	_ZTSN4asio6detail13epoll_reactorE
	.quad	_ZTIN4asio6detail12service_baseINS0_13epoll_reactorEEE
	.weak	_ZTSN4asio6detail12service_baseINS_22waitable_timer_serviceINSt6chrono3_V212steady_clockENS_11wait_traitsIS5_EEEEEE
	.section	.rodata._ZTSN4asio6detail12service_baseINS_22waitable_timer_serviceINSt6chrono3_V212steady_clockENS_11wait_traitsIS5_EEEEEE,"aG",@progbits,_ZTSN4asio6detail12service_baseINS_22waitable_timer_serviceINSt6chrono3_V212steady_clockENS_11wait_traitsIS5_EEEEEE,comdat
	.align 32
	.type	_ZTSN4asio6detail12service_baseINS_22waitable_timer_serviceINSt6chrono3_V212steady_clockENS_11wait_traitsIS5_EEEEEE, @object
	.size	_ZTSN4asio6detail12service_baseINS_22waitable_timer_serviceINSt6chrono3_V212steady_clockENS_11wait_traitsIS5_EEEEEE, 112
_ZTSN4asio6detail12service_baseINS_22waitable_timer_serviceINSt6chrono3_V212steady_clockENS_11wait_traitsIS5_EEEEEE:
	.string	"N4asio6detail12service_baseINS_22waitable_timer_serviceINSt6chrono3_V212steady_clockENS_11wait_traitsIS5_EEEEEE"
	.weak	_ZTIN4asio6detail12service_baseINS_22waitable_timer_serviceINSt6chrono3_V212steady_clockENS_11wait_traitsIS5_EEEEEE
	.section	.data.rel.ro._ZTIN4asio6detail12service_baseINS_22waitable_timer_serviceINSt6chrono3_V212steady_clockENS_11wait_traitsIS5_EEEEEE,"awG",@progbits,_ZTIN4asio6detail12service_baseINS_22waitable_timer_serviceINSt6chrono3_V212steady_clockENS_11wait_traitsIS5_EEEEEE,comdat
	.align 8
	.type	_ZTIN4asio6detail12service_baseINS_22waitable_timer_serviceINSt6chrono3_V212steady_clockENS_11wait_traitsIS5_EEEEEE, @object
	.size	_ZTIN4asio6detail12service_baseINS_22waitable_timer_serviceINSt6chrono3_V212steady_clockENS_11wait_traitsIS5_EEEEEE, 24
_ZTIN4asio6detail12service_baseINS_22waitable_timer_serviceINSt6chrono3_V212steady_clockENS_11wait_traitsIS5_EEEEEE:
	.quad	_ZTVN10__cxxabiv120__si_class_type_infoE+16
	.quad	_ZTSN4asio6detail12service_baseINS_22waitable_timer_serviceINSt6chrono3_V212steady_clockENS_11wait_traitsIS5_EEEEEE
	.quad	_ZTIN4asio10io_service7serviceE
	.weak	_ZTSN4asio6detail11timer_queueINS0_18chrono_time_traitsINSt6chrono3_V212steady_clockENS_11wait_traitsIS5_EEEEEE
	.section	.rodata._ZTSN4asio6detail11timer_queueINS0_18chrono_time_traitsINSt6chrono3_V212steady_clockENS_11wait_traitsIS5_EEEEEE,"aG",@progbits,_ZTSN4asio6detail11timer_queueINS0_18chrono_time_traitsINSt6chrono3_V212steady_clockENS_11wait_traitsIS5_EEEEEE,comdat
	.align 32
	.type	_ZTSN4asio6detail11timer_queueINS0_18chrono_time_traitsINSt6chrono3_V212steady_clockENS_11wait_traitsIS5_EEEEEE, @object
	.size	_ZTSN4asio6detail11timer_queueINS0_18chrono_time_traitsINSt6chrono3_V212steady_clockENS_11wait_traitsIS5_EEEEEE, 108
_ZTSN4asio6detail11timer_queueINS0_18chrono_time_traitsINSt6chrono3_V212steady_clockENS_11wait_traitsIS5_EEEEEE:
	.string	"N4asio6detail11timer_queueINS0_18chrono_time_traitsINSt6chrono3_V212steady_clockENS_11wait_traitsIS5_EEEEEE"
	.weak	_ZTIN4asio6detail11timer_queueINS0_18chrono_time_traitsINSt6chrono3_V212steady_clockENS_11wait_traitsIS5_EEEEEE
	.section	.data.rel.ro._ZTIN4asio6detail11timer_queueINS0_18chrono_time_traitsINSt6chrono3_V212steady_clockENS_11wait_traitsIS5_EEEEEE,"awG",@progbits,_ZTIN4asio6detail11timer_queueINS0_18chrono_time_traitsINSt6chrono3_V212steady_clockENS_11wait_traitsIS5_EEEEEE,comdat
	.align 8
	.type	_ZTIN4asio6detail11timer_queueINS0_18chrono_time_traitsINSt6chrono3_V212steady_clockENS_11wait_traitsIS5_EEEEEE, @object
	.size	_ZTIN4asio6detail11timer_queueINS0_18chrono_time_traitsINSt6chrono3_V212steady_clockENS_11wait_traitsIS5_EEEEEE, 24
_ZTIN4asio6detail11timer_queueINS0_18chrono_time_traitsINSt6chrono3_V212steady_clockENS_11wait_traitsIS5_EEEEEE:
	.quad	_ZTVN10__cxxabiv120__si_class_type_infoE+16
	.quad	_ZTSN4asio6detail11timer_queueINS0_18chrono_time_traitsINSt6chrono3_V212steady_clockENS_11wait_traitsIS5_EEEEEE
	.quad	_ZTIN4asio6detail16timer_queue_baseE
	.weak	_ZTSN4asio22waitable_timer_serviceINSt6chrono3_V212steady_clockENS_11wait_traitsIS3_EEEE
	.section	.rodata._ZTSN4asio22waitable_timer_serviceINSt6chrono3_V212steady_clockENS_11wait_traitsIS3_EEEE,"aG",@progbits,_ZTSN4asio22waitable_timer_serviceINSt6chrono3_V212steady_clockENS_11wait_traitsIS3_EEEE,comdat
	.align 32
	.type	_ZTSN4asio22waitable_timer_serviceINSt6chrono3_V212steady_clockENS_11wait_traitsIS3_EEEE, @object
	.size	_ZTSN4asio22waitable_timer_serviceINSt6chrono3_V212steady_clockENS_11wait_traitsIS3_EEEE, 85
_ZTSN4asio22waitable_timer_serviceINSt6chrono3_V212steady_clockENS_11wait_traitsIS3_EEEE:
	.string	"N4asio22waitable_timer_serviceINSt6chrono3_V212steady_clockENS_11wait_traitsIS3_EEEE"
	.weak	_ZTIN4asio22waitable_timer_serviceINSt6chrono3_V212steady_clockENS_11wait_traitsIS3_EEEE
	.section	.data.rel.ro._ZTIN4asio22waitable_timer_serviceINSt6chrono3_V212steady_clockENS_11wait_traitsIS3_EEEE,"awG",@progbits,_ZTIN4asio22waitable_timer_serviceINSt6chrono3_V212steady_clockENS_11wait_traitsIS3_EEEE,comdat
	.align 8
	.type	_ZTIN4asio22waitable_timer_serviceINSt6chrono3_V212steady_clockENS_11wait_traitsIS3_EEEE, @object
	.size	_ZTIN4asio22waitable_timer_serviceINSt6chrono3_V212steady_clockENS_11wait_traitsIS3_EEEE, 24
_ZTIN4asio22waitable_timer_serviceINSt6chrono3_V212steady_clockENS_11wait_traitsIS3_EEEE:
	.quad	_ZTVN10__cxxabiv120__si_class_type_infoE+16
	.quad	_ZTSN4asio22waitable_timer_serviceINSt6chrono3_V212steady_clockENS_11wait_traitsIS3_EEEE
	.quad	_ZTIN4asio6detail12service_baseINS_22waitable_timer_serviceINSt6chrono3_V212steady_clockENS_11wait_traitsIS5_EEEEEE
	.section	.data.rel.ro,"aw"
	.align 8
	.type	_ZTINSt6thread11_State_implINS_8_InvokerISt5tupleIJZN7asiopal10ThreadPoolC4ERKN7openpal6LoggerERKSt10shared_ptrINS3_2IOEEjSt8functionIFvvEESG_EUlvE0_EEEEEE, @object
	.size	_ZTINSt6thread11_State_implINS_8_InvokerISt5tupleIJZN7asiopal10ThreadPoolC4ERKN7openpal6LoggerERKSt10shared_ptrINS3_2IOEEjSt8functionIFvvEESG_EUlvE0_EEEEEE, 24
_ZTINSt6thread11_State_implINS_8_InvokerISt5tupleIJZN7asiopal10ThreadPoolC4ERKN7openpal6LoggerERKSt10shared_ptrINS3_2IOEEjSt8functionIFvvEESG_EUlvE0_EEEEEE:
	.quad	_ZTVN10__cxxabiv120__si_class_type_infoE+16
	.quad	_ZTSNSt6thread11_State_implINS_8_InvokerISt5tupleIJZN7asiopal10ThreadPoolC4ERKN7openpal6LoggerERKSt10shared_ptrINS3_2IOEEjSt8functionIFvvEESG_EUlvE0_EEEEEE
	.quad	_ZTINSt6thread6_StateE
	.section	.rodata
	.align 32
	.type	_ZTSNSt6thread11_State_implINS_8_InvokerISt5tupleIJZN7asiopal10ThreadPoolC4ERKN7openpal6LoggerERKSt10shared_ptrINS3_2IOEEjSt8functionIFvvEESG_EUlvE0_EEEEEE, @object
	.size	_ZTSNSt6thread11_State_implINS_8_InvokerISt5tupleIJZN7asiopal10ThreadPoolC4ERKN7openpal6LoggerERKSt10shared_ptrINS3_2IOEEjSt8functionIFvvEESG_EUlvE0_EEEEEE, 153
_ZTSNSt6thread11_State_implINS_8_InvokerISt5tupleIJZN7asiopal10ThreadPoolC4ERKN7openpal6LoggerERKSt10shared_ptrINS3_2IOEEjSt8functionIFvvEESG_EUlvE0_EEEEEE:
	.string	"*NSt6thread11_State_implINS_8_InvokerISt5tupleIJZN7asiopal10ThreadPoolC4ERKN7openpal6LoggerERKSt10shared_ptrINS3_2IOEEjSt8functionIFvvEESG_EUlvE0_EEEEEE"
	.weak	_ZTSN4asio6detail14typeid_wrapperINS0_13epoll_reactorEEE
	.section	.rodata._ZTSN4asio6detail14typeid_wrapperINS0_13epoll_reactorEEE,"aG",@progbits,_ZTSN4asio6detail14typeid_wrapperINS0_13epoll_reactorEEE,comdat
	.align 32
	.type	_ZTSN4asio6detail14typeid_wrapperINS0_13epoll_reactorEEE, @object
	.size	_ZTSN4asio6detail14typeid_wrapperINS0_13epoll_reactorEEE, 53
_ZTSN4asio6detail14typeid_wrapperINS0_13epoll_reactorEEE:
	.string	"N4asio6detail14typeid_wrapperINS0_13epoll_reactorEEE"
	.weak	_ZTIN4asio6detail14typeid_wrapperINS0_13epoll_reactorEEE
	.section	.data.rel.ro._ZTIN4asio6detail14typeid_wrapperINS0_13epoll_reactorEEE,"awG",@progbits,_ZTIN4asio6detail14typeid_wrapperINS0_13epoll_reactorEEE,comdat
	.align 8
	.type	_ZTIN4asio6detail14typeid_wrapperINS0_13epoll_reactorEEE, @object
	.size	_ZTIN4asio6detail14typeid_wrapperINS0_13epoll_reactorEEE, 16
_ZTIN4asio6detail14typeid_wrapperINS0_13epoll_reactorEEE:
	.quad	_ZTVN10__cxxabiv117__class_type_infoE+16
	.quad	_ZTSN4asio6detail14typeid_wrapperINS0_13epoll_reactorEEE
	.weak	_ZTSN4asio6detail14typeid_wrapperINS_22waitable_timer_serviceINSt6chrono3_V212steady_clockENS_11wait_traitsIS5_EEEEEE
	.section	.rodata._ZTSN4asio6detail14typeid_wrapperINS_22waitable_timer_serviceINSt6chrono3_V212steady_clockENS_11wait_traitsIS5_EEEEEE,"aG",@progbits,_ZTSN4asio6detail14typeid_wrapperINS_22waitable_timer_serviceINSt6chrono3_V212steady_clockENS_11wait_traitsIS5_EEEEEE,comdat
	.align 32
	.type	_ZTSN4asio6detail14typeid_wrapperINS_22waitable_timer_serviceINSt6chrono3_V212steady_clockENS_11wait_traitsIS5_EEEEEE, @object
	.size	_ZTSN4asio6detail14typeid_wrapperINS_22waitable_timer_serviceINSt6chrono3_V212steady_clockENS_11wait_traitsIS5_EEEEEE, 114
_ZTSN4asio6detail14typeid_wrapperINS_22waitable_timer_serviceINSt6chrono3_V212steady_clockENS_11wait_traitsIS5_EEEEEE:
	.string	"N4asio6detail14typeid_wrapperINS_22waitable_timer_serviceINSt6chrono3_V212steady_clockENS_11wait_traitsIS5_EEEEEE"
	.weak	_ZTIN4asio6detail14typeid_wrapperINS_22waitable_timer_serviceINSt6chrono3_V212steady_clockENS_11wait_traitsIS5_EEEEEE
	.section	.data.rel.ro._ZTIN4asio6detail14typeid_wrapperINS_22waitable_timer_serviceINSt6chrono3_V212steady_clockENS_11wait_traitsIS5_EEEEEE,"awG",@progbits,_ZTIN4asio6detail14typeid_wrapperINS_22waitable_timer_serviceINSt6chrono3_V212steady_clockENS_11wait_traitsIS5_EEEEEE,comdat
	.align 8
	.type	_ZTIN4asio6detail14typeid_wrapperINS_22waitable_timer_serviceINSt6chrono3_V212steady_clockENS_11wait_traitsIS5_EEEEEE, @object
	.size	_ZTIN4asio6detail14typeid_wrapperINS_22waitable_timer_serviceINSt6chrono3_V212steady_clockENS_11wait_traitsIS5_EEEEEE, 16
_ZTIN4asio6detail14typeid_wrapperINS_22waitable_timer_serviceINSt6chrono3_V212steady_clockENS_11wait_traitsIS5_EEEEEE:
	.quad	_ZTVN10__cxxabiv117__class_type_infoE+16
	.quad	_ZTSN4asio6detail14typeid_wrapperINS_22waitable_timer_serviceINSt6chrono3_V212steady_clockENS_11wait_traitsIS5_EEEEEE
	.weak	_ZTVN4asio6detail15system_categoryE
	.section	.data.rel.ro._ZTVN4asio6detail15system_categoryE,"awG",@progbits,_ZTVN4asio6detail15system_categoryE,comdat
	.align 8
	.type	_ZTVN4asio6detail15system_categoryE, @object
	.size	_ZTVN4asio6detail15system_categoryE, 80
_ZTVN4asio6detail15system_categoryE:
	.quad	0
	.quad	_ZTIN4asio6detail15system_categoryE
	.quad	_ZN4asio6detail15system_categoryD1Ev
	.quad	_ZN4asio6detail15system_categoryD0Ev
	.quad	_ZNK4asio6detail15system_category4nameEv
	.quad	_ZNKSt3_V214error_category10_M_messageB5cxx11Ei
	.quad	_ZNK4asio6detail15system_category7messageB5cxx11Ei
	.quad	_ZNKSt3_V214error_category23default_error_conditionEi
	.quad	_ZNKSt3_V214error_category10equivalentEiRKSt15error_condition
	.quad	_ZNKSt3_V214error_category10equivalentERKSt10error_codei
	.weak	_ZTVN4asio5error6detail14netdb_categoryE
	.section	.data.rel.ro._ZTVN4asio5error6detail14netdb_categoryE,"awG",@progbits,_ZTVN4asio5error6detail14netdb_categoryE,comdat
	.align 8
	.type	_ZTVN4asio5error6detail14netdb_categoryE, @object
	.size	_ZTVN4asio5error6detail14netdb_categoryE, 80
_ZTVN4asio5error6detail14netdb_categoryE:
	.quad	0
	.quad	_ZTIN4asio5error6detail14netdb_categoryE
	.quad	_ZN4asio5error6detail14netdb_categoryD1Ev
	.quad	_ZN4asio5error6detail14netdb_categoryD0Ev
	.quad	_ZNK4asio5error6detail14netdb_category4nameEv
	.quad	_ZNKSt3_V214error_category10_M_messageB5cxx11Ei
	.quad	_ZNK4asio5error6detail14netdb_category7messageB5cxx11Ei
	.quad	_ZNKSt3_V214error_category23default_error_conditionEi
	.quad	_ZNKSt3_V214error_category10equivalentEiRKSt15error_condition
	.quad	_ZNKSt3_V214error_category10equivalentERKSt10error_codei
	.weak	_ZTVN4asio5error6detail17addrinfo_categoryE
	.section	.data.rel.ro._ZTVN4asio5error6detail17addrinfo_categoryE,"awG",@progbits,_ZTVN4asio5error6detail17addrinfo_categoryE,comdat
	.align 8
	.type	_ZTVN4asio5error6detail17addrinfo_categoryE, @object
	.size	_ZTVN4asio5error6detail17addrinfo_categoryE, 80
_ZTVN4asio5error6detail17addrinfo_categoryE:
	.quad	0
	.quad	_ZTIN4asio5error6detail17addrinfo_categoryE
	.quad	_ZN4asio5error6detail17addrinfo_categoryD1Ev
	.quad	_ZN4asio5error6detail17addrinfo_categoryD0Ev
	.quad	_ZNK4asio5error6detail17addrinfo_category4nameEv
	.quad	_ZNKSt3_V214error_category10_M_messageB5cxx11Ei
	.quad	_ZNK4asio5error6detail17addrinfo_category7messageB5cxx11Ei
	.quad	_ZNKSt3_V214error_category23default_error_conditionEi
	.quad	_ZNKSt3_V214error_category10equivalentEiRKSt15error_condition
	.quad	_ZNKSt3_V214error_category10equivalentERKSt10error_codei
	.weak	_ZTVN4asio5error6detail13misc_categoryE
	.section	.data.rel.ro._ZTVN4asio5error6detail13misc_categoryE,"awG",@progbits,_ZTVN4asio5error6detail13misc_categoryE,comdat
	.align 8
	.type	_ZTVN4asio5error6detail13misc_categoryE, @object
	.size	_ZTVN4asio5error6detail13misc_categoryE, 80
_ZTVN4asio5error6detail13misc_categoryE:
	.quad	0
	.quad	_ZTIN4asio5error6detail13misc_categoryE
	.quad	_ZN4asio5error6detail13misc_categoryD1Ev
	.quad	_ZN4asio5error6detail13misc_categoryD0Ev
	.quad	_ZNK4asio5error6detail13misc_category4nameEv
	.quad	_ZNKSt3_V214error_category10_M_messageB5cxx11Ei
	.quad	_ZNK4asio5error6detail13misc_category7messageB5cxx11Ei
	.quad	_ZNKSt3_V214error_category23default_error_conditionEi
	.quad	_ZNKSt3_V214error_category10equivalentEiRKSt15error_condition
	.quad	_ZNKSt3_V214error_category10equivalentERKSt10error_codei
	.weak	_ZTVN4asio6detail13epoll_reactorE
	.section	.data.rel.ro._ZTVN4asio6detail13epoll_reactorE,"awG",@progbits,_ZTVN4asio6detail13epoll_reactorE,comdat
	.align 8
	.type	_ZTVN4asio6detail13epoll_reactorE, @object
	.size	_ZTVN4asio6detail13epoll_reactorE, 48
_ZTVN4asio6detail13epoll_reactorE:
	.quad	0
	.quad	_ZTIN4asio6detail13epoll_reactorE
	.quad	_ZN4asio6detail13epoll_reactorD1Ev
	.quad	_ZN4asio6detail13epoll_reactorD0Ev
	.quad	_ZN4asio6detail13epoll_reactor16shutdown_serviceEv
	.quad	_ZN4asio6detail13epoll_reactor12fork_serviceENS_10io_service10fork_eventE
	.weak	_ZTVN4asio6detail11timer_queueINS0_18chrono_time_traitsINSt6chrono3_V212steady_clockENS_11wait_traitsIS5_EEEEEE
	.section	.data.rel.ro._ZTVN4asio6detail11timer_queueINS0_18chrono_time_traitsINSt6chrono3_V212steady_clockENS_11wait_traitsIS5_EEEEEE,"awG",@progbits,_ZTVN4asio6detail11timer_queueINS0_18chrono_time_traitsINSt6chrono3_V212steady_clockENS_11wait_traitsIS5_EEEEEE,comdat
	.align 8
	.type	_ZTVN4asio6detail11timer_queueINS0_18chrono_time_traitsINSt6chrono3_V212steady_clockENS_11wait_traitsIS5_EEEEEE, @object
	.size	_ZTVN4asio6detail11timer_queueINS0_18chrono_time_traitsINSt6chrono3_V212steady_clockENS_11wait_traitsIS5_EEEEEE, 72
_ZTVN4asio6detail11timer_queueINS0_18chrono_time_traitsINSt6chrono3_V212steady_clockENS_11wait_traitsIS5_EEEEEE:
	.quad	0
	.quad	_ZTIN4asio6detail11timer_queueINS0_18chrono_time_traitsINSt6chrono3_V212steady_clockENS_11wait_traitsIS5_EEEEEE
	.quad	_ZN4asio6detail11timer_queueINS0_18chrono_time_traitsINSt6chrono3_V212steady_clockENS_11wait_traitsIS5_EEEEED1Ev
	.quad	_ZN4asio6detail11timer_queueINS0_18chrono_time_traitsINSt6chrono3_V212steady_clockENS_11wait_traitsIS5_EEEEED0Ev
	.quad	_ZNK4asio6detail11timer_queueINS0_18chrono_time_traitsINSt6chrono3_V212steady_clockENS_11wait_traitsIS5_EEEEE5emptyEv
	.quad	_ZNK4asio6detail11timer_queueINS0_18chrono_time_traitsINSt6chrono3_V212steady_clockENS_11wait_traitsIS5_EEEEE18wait_duration_msecEl
	.quad	_ZNK4asio6detail11timer_queueINS0_18chrono_time_traitsINSt6chrono3_V212steady_clockENS_11wait_traitsIS5_EEEEE18wait_duration_usecEl
	.quad	_ZN4asio6detail11timer_queueINS0_18chrono_time_traitsINSt6chrono3_V212steady_clockENS_11wait_traitsIS5_EEEEE16get_ready_timersERNS0_8op_queueINS0_25task_io_service_operationEEE
	.quad	_ZN4asio6detail11timer_queueINS0_18chrono_time_traitsINSt6chrono3_V212steady_clockENS_11wait_traitsIS5_EEEEE14get_all_timersERNS0_8op_queueINS0_25task_io_service_operationEEE
	.weak	_ZTVN4asio22waitable_timer_serviceINSt6chrono3_V212steady_clockENS_11wait_traitsIS3_EEEE
	.section	.data.rel.ro._ZTVN4asio22waitable_timer_serviceINSt6chrono3_V212steady_clockENS_11wait_traitsIS3_EEEE,"awG",@progbits,_ZTVN4asio22waitable_timer_serviceINSt6chrono3_V212steady_clockENS_11wait_traitsIS3_EEEE,comdat
	.align 8
	.type	_ZTVN4asio22waitable_timer_serviceINSt6chrono3_V212steady_clockENS_11wait_traitsIS3_EEEE, @object
	.size	_ZTVN4asio22waitable_timer_serviceINSt6chrono3_V212steady_clockENS_11wait_traitsIS3_EEEE, 48
_ZTVN4asio22waitable_timer_serviceINSt6chrono3_V212steady_clockENS_11wait_traitsIS3_EEEE:
	.quad	0
	.quad	_ZTIN4asio22waitable_timer_serviceINSt6chrono3_V212steady_clockENS_11wait_traitsIS3_EEEE
	.quad	_ZN4asio22waitable_timer_serviceINSt6chrono3_V212steady_clockENS_11wait_traitsIS3_EEED1Ev
	.quad	_ZN4asio22waitable_timer_serviceINSt6chrono3_V212steady_clockENS_11wait_traitsIS3_EEED0Ev
	.quad	_ZN4asio22waitable_timer_serviceINSt6chrono3_V212steady_clockENS_11wait_traitsIS3_EEE16shutdown_serviceEv
	.quad	_ZN4asio10io_service7service12fork_serviceENS0_10fork_eventE
	.section	.data.rel.ro.local,"aw"
	.align 8
	.type	_ZTVNSt6thread11_State_implINS_8_InvokerISt5tupleIJZN7asiopal10ThreadPoolC4ERKN7openpal6LoggerERKSt10shared_ptrINS3_2IOEEjSt8functionIFvvEESG_EUlvE0_EEEEEE, @object
	.size	_ZTVNSt6thread11_State_implINS_8_InvokerISt5tupleIJZN7asiopal10ThreadPoolC4ERKN7openpal6LoggerERKSt10shared_ptrINS3_2IOEEjSt8functionIFvvEESG_EUlvE0_EEEEEE, 40
_ZTVNSt6thread11_State_implINS_8_InvokerISt5tupleIJZN7asiopal10ThreadPoolC4ERKN7openpal6LoggerERKSt10shared_ptrINS3_2IOEEjSt8functionIFvvEESG_EUlvE0_EEEEEE:
	.quad	0
	.quad	_ZTINSt6thread11_State_implINS_8_InvokerISt5tupleIJZN7asiopal10ThreadPoolC4ERKN7openpal6LoggerERKSt10shared_ptrINS3_2IOEEjSt8functionIFvvEESG_EUlvE0_EEEEEE
	.quad	_ZNSt6thread11_State_implINS_8_InvokerISt5tupleIJZN7asiopal10ThreadPoolC4ERKN7openpal6LoggerERKSt10shared_ptrINS3_2IOEEjSt8functionIFvvEESG_EUlvE0_EEEEED1Ev
	.quad	_ZNSt6thread11_State_implINS_8_InvokerISt5tupleIJZN7asiopal10ThreadPoolC4ERKN7openpal6LoggerERKSt10shared_ptrINS3_2IOEEjSt8functionIFvvEESG_EUlvE0_EEEEED0Ev
	.quad	_ZNSt6thread11_State_implINS_8_InvokerISt5tupleIJZN7asiopal10ThreadPoolC4ERKN7openpal6LoggerERKSt10shared_ptrINS3_2IOEEjSt8functionIFvvEESG_EUlvE0_EEEEE6_M_runEv
	.weak	_ZGVZN4asio5error17get_misc_categoryEvE8instance
	.section	.bss._ZGVZN4asio5error17get_misc_categoryEvE8instance,"awG",@nobits,_ZGVZN4asio5error17get_misc_categoryEvE8instance,comdat
	.align 8
	.type	_ZGVZN4asio5error17get_misc_categoryEvE8instance, @gnu_unique_object
	.size	_ZGVZN4asio5error17get_misc_categoryEvE8instance, 8
_ZGVZN4asio5error17get_misc_categoryEvE8instance:
	.zero	8
	.weak	_ZZN4asio5error17get_misc_categoryEvE8instance
	.section	.data.rel._ZZN4asio5error17get_misc_categoryEvE8instance,"awG",@progbits,_ZZN4asio5error17get_misc_categoryEvE8instance,comdat
	.align 8
	.type	_ZZN4asio5error17get_misc_categoryEvE8instance, @gnu_unique_object
	.size	_ZZN4asio5error17get_misc_categoryEvE8instance, 8
_ZZN4asio5error17get_misc_categoryEvE8instance:
	.quad	_ZTVN4asio5error6detail13misc_categoryE+16
	.weak	_ZGVZN4asio5error21get_addrinfo_categoryEvE8instance
	.section	.bss._ZGVZN4asio5error21get_addrinfo_categoryEvE8instance,"awG",@nobits,_ZGVZN4asio5error21get_addrinfo_categoryEvE8instance,comdat
	.align 8
	.type	_ZGVZN4asio5error21get_addrinfo_categoryEvE8instance, @gnu_unique_object
	.size	_ZGVZN4asio5error21get_addrinfo_categoryEvE8instance, 8
_ZGVZN4asio5error21get_addrinfo_categoryEvE8instance:
	.zero	8
	.weak	_ZZN4asio5error21get_addrinfo_categoryEvE8instance
	.section	.data.rel._ZZN4asio5error21get_addrinfo_categoryEvE8instance,"awG",@progbits,_ZZN4asio5error21get_addrinfo_categoryEvE8instance,comdat
	.align 8
	.type	_ZZN4asio5error21get_addrinfo_categoryEvE8instance, @gnu_unique_object
	.size	_ZZN4asio5error21get_addrinfo_categoryEvE8instance, 8
_ZZN4asio5error21get_addrinfo_categoryEvE8instance:
	.quad	_ZTVN4asio5error6detail17addrinfo_categoryE+16
	.weak	_ZGVZN4asio5error18get_netdb_categoryEvE8instance
	.section	.bss._ZGVZN4asio5error18get_netdb_categoryEvE8instance,"awG",@nobits,_ZGVZN4asio5error18get_netdb_categoryEvE8instance,comdat
	.align 8
	.type	_ZGVZN4asio5error18get_netdb_categoryEvE8instance, @gnu_unique_object
	.size	_ZGVZN4asio5error18get_netdb_categoryEvE8instance, 8
_ZGVZN4asio5error18get_netdb_categoryEvE8instance:
	.zero	8
	.weak	_ZZN4asio5error18get_netdb_categoryEvE8instance
	.section	.data.rel._ZZN4asio5error18get_netdb_categoryEvE8instance,"awG",@progbits,_ZZN4asio5error18get_netdb_categoryEvE8instance,comdat
	.align 8
	.type	_ZZN4asio5error18get_netdb_categoryEvE8instance, @gnu_unique_object
	.size	_ZZN4asio5error18get_netdb_categoryEvE8instance, 8
_ZZN4asio5error18get_netdb_categoryEvE8instance:
	.quad	_ZTVN4asio5error6detail14netdb_categoryE+16
	.weak	_ZGVZN4asio15system_categoryEvE8instance
	.section	.bss._ZGVZN4asio15system_categoryEvE8instance,"awG",@nobits,_ZGVZN4asio15system_categoryEvE8instance,comdat
	.align 8
	.type	_ZGVZN4asio15system_categoryEvE8instance, @gnu_unique_object
	.size	_ZGVZN4asio15system_categoryEvE8instance, 8
_ZGVZN4asio15system_categoryEvE8instance:
	.zero	8
	.weak	_ZZN4asio15system_categoryEvE8instance
	.section	.data.rel._ZZN4asio15system_categoryEvE8instance,"awG",@progbits,_ZZN4asio15system_categoryEvE8instance,comdat
	.align 8
	.type	_ZZN4asio15system_categoryEvE8instance, @gnu_unique_object
	.size	_ZZN4asio15system_categoryEvE8instance, 8
_ZZN4asio15system_categoryEvE8instance:
	.quad	_ZTVN4asio6detail15system_categoryE+16
	.weak	_ZN4asio6detail15keyword_tss_ptrINS0_10call_stackINS0_15task_io_serviceENS0_27task_io_service_thread_infoEE7contextEE6value_E
	.section	.tbss._ZN4asio6detail15keyword_tss_ptrINS0_10call_stackINS0_15task_io_serviceENS0_27task_io_service_thread_infoEE7contextEE6value_E,"awTG",@nobits,_ZN4asio6detail15keyword_tss_ptrINS0_10call_stackINS0_15task_io_serviceENS0_27task_io_service_thread_infoEE7contextEE6value_E,comdat
	.align 8
	.type	_ZN4asio6detail15keyword_tss_ptrINS0_10call_stackINS0_15task_io_serviceENS0_27task_io_service_thread_infoEE7contextEE6value_E, @gnu_unique_object
	.size	_ZN4asio6detail15keyword_tss_ptrINS0_10call_stackINS0_15task_io_serviceENS0_27task_io_service_thread_infoEE7contextEE6value_E, 8
_ZN4asio6detail15keyword_tss_ptrINS0_10call_stackINS0_15task_io_serviceENS0_27task_io_service_thread_infoEE7contextEE6value_E:
	.zero	8
	.section	.rodata.cst16,"aM",@progbits,16
	.align 16
.LC5:
	.quad	8028075772644520015
	.quad	7310593917846626414
	.align 16
.LC6:
	.quad	2334381286471394643
	.quad	7959390400869068654
	.align 16
.LC7:
	.quad	8367816086596579155
	.quad	2338616625292734585
	.align 16
.LC8:
	.quad	7234013753529430881
	.quad	8243030355803531634
	.align 16
.LC9:
	.quad	2338615488418245701
	.quad	7959390400869068654
	.align 16
.LC10:
	.quad	7166182912791242836
	.quad	7214892426067994994
	.align 16
.LC11:
	.quad	2338616625293649263
	.quad	8031165433303558502
	.align 16
.LC12:
	.quad	7810775711721485344
	.quad	7812726531955123045
	.align 16
.LC13:
	.quad	8390045716486254408
	.quad	2891421386351273504
	.align 16
.LC14:
	.quad	7526769937477431150
	.quad	8532478930943832687
	.align 16
.LC15:
	.quad	2340027324477221221
	.quad	7020021577750243169
	.align 16
.LC16:
	.quad	8243123821706831956
	.quad	7809653110584451193
	.align 16
.LC17:
	.quad	2338623170819155049
	.quad	2338324160631043177
	.align 16
.LC18:
	.quad	7311138144931573614
	.quad	7019250824563089696
	.align 16
.LC19:
	.quad	7309955097514876993
	.quad	7809911847770287971
	.align 16
.LC20:
	.quad	2338053693894893669
	.quad	7234314212361855855
	.align 16
.LC21:
	.quad	2334956330985808928
	.quad	7310293695322153316
	.align 16
.LC22:
	.quad	8387231026764149601
	.quad	8245935278387126884
	.section	.rodata.cst8,"aM",@progbits,8
	.align 8
.LC30:
	.long	-1
	.long	-1
	.hidden	DW.ref.__gxx_personality_v0
	.weak	DW.ref.__gxx_personality_v0
	.section	.data.rel.local.DW.ref.__gxx_personality_v0,"awG",@progbits,DW.ref.__gxx_personality_v0,comdat
	.align 8
	.type	DW.ref.__gxx_personality_v0, @object
	.size	DW.ref.__gxx_personality_v0, 8
DW.ref.__gxx_personality_v0:
	.quad	__gxx_personality_v0
	.hidden	__dso_handle
	.ident	"GCC: (Ubuntu 11.4.0-1ubuntu1~22.04) 11.4.0"
	.section	.note.GNU-stack,"",@progbits
	.section	.note.gnu.property,"a"
	.align 8
	.long	1f - 0f
	.long	4f - 1f
	.long	5
0:
	.string	"GNU"
1:
	.align 8
	.long	0xc0000002
	.long	3f - 2f
2:
	.long	0x3
3:
	.align 8
4:
