	.file	"APDURequest.cpp"
	.text
	.align 2
	.p2align 4
	.globl	_ZN8opendnp311APDURequestC2ERKN7openpal6WSliceE
	.type	_ZN8opendnp311APDURequestC2ERKN7openpal6WSliceE, @function
_ZN8opendnp311APDURequestC2ERKN7openpal6WSliceE:
.LFB184:
	.cfi_startproc
	endbr64
	jmp	_ZN8opendnp311APDUWrapperC2ERKN7openpal6WSliceE@PLT
	.cfi_endproc
.LFE184:
	.size	_ZN8opendnp311APDURequestC2ERKN7openpal6WSliceE, .-_ZN8opendnp311APDURequestC2ERKN7openpal6WSliceE
	.globl	_ZN8opendnp311APDURequestC1ERKN7openpal6WSliceE
	.set	_ZN8opendnp311APDURequestC1ERKN7openpal6WSliceE,_ZN8opendnp311APDURequestC2ERKN7openpal6WSliceE
	.align 2
	.p2align 4
	.globl	_ZN8opendnp311APDURequest15ConfigureHeaderENS_12FunctionCodeEh
	.type	_ZN8opendnp311APDURequest15ConfigureHeaderENS_12FunctionCodeEh, @function
_ZN8opendnp311APDURequest15ConfigureHeaderENS_12FunctionCodeEh:
.LFB186:
	.cfi_startproc
	endbr64
	pushq	%rbp
	.cfi_def_cfa_offset 16
	.cfi_offset 6, -16
	movl	$32, %esi
	movq	%rdi, %rbp
	pushq	%rbx
	.cfi_def_cfa_offset 24
	.cfi_offset 3, -24
	movl	%edx, %ebx
	subq	$24, %rsp
	.cfi_def_cfa_offset 48
	call	_ZN8opendnp311APDUWrapper11SetFunctionENS_12FunctionCodeE@PLT
	movzbl	%bl, %edi
	call	_ZN8opendnp315AppControlField7RequestEh@PLT
	addq	$24, %rsp
	.cfi_def_cfa_offset 24
	movq	%rbp, %rdi
	movabsq	$1099511627775, %rdx
	andq	%rdx, %rax
	popq	%rbx
	.cfi_def_cfa_offset 16
	popq	%rbp
	.cfi_def_cfa_offset 8
	movq	%rax, %rsi
	jmp	_ZN8opendnp311APDUWrapper10SetControlENS_15AppControlFieldE@PLT
	.cfi_endproc
.LFE186:
	.size	_ZN8opendnp311APDURequest15ConfigureHeaderENS_12FunctionCodeEh, .-_ZN8opendnp311APDURequest15ConfigureHeaderENS_12FunctionCodeEh
	.ident	"GCC: (Ubuntu 11.4.0-1ubuntu1~22.04) 11.4.0"
	.section	.note.GNU-stack,"",@progbits
	.section	.note.gnu.property,"a"
	.align 8
	.long	1f - 0f
	.long	4f - 1f
	.long	5
0:
	.string	"GNU"
1:
	.align 8
	.long	0xc0000002
	.long	3f - 2f
2:
	.long	0x3
3:
	.align 8
4:
