	.file	"AssignClassTask.cpp"
	.text
	.section	.text._ZN8opendnp318IMasterApplication24AssignClassDuringStartupEv,"axG",@progbits,_ZN8opendnp318IMasterApplication24AssignClassDuringStartupEv,comdat
	.align 2
	.p2align 4
	.weak	_ZN8opendnp318IMasterApplication24AssignClassDuringStartupEv
	.type	_ZN8opendnp318IMasterApplication24AssignClassDuringStartupEv, @function
_ZN8opendnp318IMasterApplication24AssignClassDuringStartupEv:
.LFB2446:
	.cfi_startproc
	endbr64
	xorl	%eax, %eax
	ret
	.cfi_endproc
.LFE2446:
	.size	_ZN8opendnp318IMasterApplication24AssignClassDuringStartupEv, .-_ZN8opendnp318IMasterApplication24AssignClassDuringStartupEv
	.section	.text._ZN8opendnp318IMasterApplication27ConfigureAssignClassRequestERKSt8functionIFvRKNS_6HeaderEEE,"axG",@progbits,_ZN8opendnp318IMasterApplication27ConfigureAssignClassRequestERKSt8functionIFvRKNS_6HeaderEEE,comdat
	.align 2
	.p2align 4
	.weak	_ZN8opendnp318IMasterApplication27ConfigureAssignClassRequestERKSt8functionIFvRKNS_6HeaderEEE
	.type	_ZN8opendnp318IMasterApplication27ConfigureAssignClassRequestERKSt8functionIFvRKNS_6HeaderEEE, @function
_ZN8opendnp318IMasterApplication27ConfigureAssignClassRequestERKSt8functionIFvRKNS_6HeaderEEE:
.LFB2447:
	.cfi_startproc
	endbr64
	ret
	.cfi_endproc
.LFE2447:
	.size	_ZN8opendnp318IMasterApplication27ConfigureAssignClassRequestERKSt8functionIFvRKNS_6HeaderEEE, .-_ZN8opendnp318IMasterApplication27ConfigureAssignClassRequestERKSt8functionIFvRKNS_6HeaderEEE
	.section	.text._ZNK8opendnp311IMasterTask10IsAuthTaskEv,"axG",@progbits,_ZNK8opendnp311IMasterTask10IsAuthTaskEv,comdat
	.align 2
	.p2align 4
	.weak	_ZNK8opendnp311IMasterTask10IsAuthTaskEv
	.type	_ZNK8opendnp311IMasterTask10IsAuthTaskEv, @function
_ZNK8opendnp311IMasterTask10IsAuthTaskEv:
.LFB2455:
	.cfi_startproc
	endbr64
	xorl	%eax, %eax
	ret
	.cfi_endproc
.LFE2455:
	.size	_ZNK8opendnp311IMasterTask10IsAuthTaskEv, .-_ZNK8opendnp311IMasterTask10IsAuthTaskEv
	.section	.text._ZN8opendnp311IMasterTask10InitializeEv,"axG",@progbits,_ZN8opendnp311IMasterTask10InitializeEv,comdat
	.align 2
	.p2align 4
	.weak	_ZN8opendnp311IMasterTask10InitializeEv
	.type	_ZN8opendnp311IMasterTask10InitializeEv, @function
_ZN8opendnp311IMasterTask10InitializeEv:
.LFB2456:
	.cfi_startproc
	endbr64
	ret
	.cfi_endproc
.LFE2456:
	.size	_ZN8opendnp311IMasterTask10InitializeEv, .-_ZN8opendnp311IMasterTask10InitializeEv
	.section	.rodata._ZNK8opendnp315AssignClassTask4NameEv.str1.1,"aMS",@progbits,1
.LC0:
	.string	"Assign Class"
	.section	.text._ZNK8opendnp315AssignClassTask4NameEv,"axG",@progbits,_ZNK8opendnp315AssignClassTask4NameEv,comdat
	.align 2
	.p2align 4
	.weak	_ZNK8opendnp315AssignClassTask4NameEv
	.type	_ZNK8opendnp315AssignClassTask4NameEv, @function
_ZNK8opendnp315AssignClassTask4NameEv:
.LFB2457:
	.cfi_startproc
	endbr64
	leaq	.LC0(%rip), %rax
	ret
	.cfi_endproc
.LFE2457:
	.size	_ZNK8opendnp315AssignClassTask4NameEv, .-_ZNK8opendnp315AssignClassTask4NameEv
	.section	.text._ZNK8opendnp315AssignClassTask11IsRecurringEv,"axG",@progbits,_ZNK8opendnp315AssignClassTask11IsRecurringEv,comdat
	.align 2
	.p2align 4
	.weak	_ZNK8opendnp315AssignClassTask11IsRecurringEv
	.type	_ZNK8opendnp315AssignClassTask11IsRecurringEv, @function
_ZNK8opendnp315AssignClassTask11IsRecurringEv:
.LFB2458:
	.cfi_startproc
	endbr64
	movl	$1, %eax
	ret
	.cfi_endproc
.LFE2458:
	.size	_ZNK8opendnp315AssignClassTask11IsRecurringEv, .-_ZNK8opendnp315AssignClassTask11IsRecurringEv
	.section	.text._ZNK8opendnp315AssignClassTask8PriorityEv,"axG",@progbits,_ZNK8opendnp315AssignClassTask8PriorityEv,comdat
	.align 2
	.p2align 4
	.weak	_ZNK8opendnp315AssignClassTask8PriorityEv
	.type	_ZNK8opendnp315AssignClassTask8PriorityEv, @function
_ZNK8opendnp315AssignClassTask8PriorityEv:
.LFB2459:
	.cfi_startproc
	endbr64
	movl	$140, %eax
	ret
	.cfi_endproc
.LFE2459:
	.size	_ZNK8opendnp315AssignClassTask8PriorityEv, .-_ZNK8opendnp315AssignClassTask8PriorityEv
	.section	.text._ZNK8opendnp315AssignClassTask19BlocksLowerPriorityEv,"axG",@progbits,_ZNK8opendnp315AssignClassTask19BlocksLowerPriorityEv,comdat
	.align 2
	.p2align 4
	.weak	_ZNK8opendnp315AssignClassTask19BlocksLowerPriorityEv
	.type	_ZNK8opendnp315AssignClassTask19BlocksLowerPriorityEv, @function
_ZNK8opendnp315AssignClassTask19BlocksLowerPriorityEv:
.LFB2460:
	.cfi_startproc
	endbr64
	movl	$1, %eax
	ret
	.cfi_endproc
.LFE2460:
	.size	_ZNK8opendnp315AssignClassTask19BlocksLowerPriorityEv, .-_ZNK8opendnp315AssignClassTask19BlocksLowerPriorityEv
	.section	.text._ZNK8opendnp315AssignClassTask11GetTaskTypeEv,"axG",@progbits,_ZNK8opendnp315AssignClassTask11GetTaskTypeEv,comdat
	.align 2
	.p2align 4
	.weak	_ZNK8opendnp315AssignClassTask11GetTaskTypeEv
	.type	_ZNK8opendnp315AssignClassTask11GetTaskTypeEv, @function
_ZNK8opendnp315AssignClassTask11GetTaskTypeEv:
.LFB2461:
	.cfi_startproc
	endbr64
	movl	$2, %eax
	ret
	.cfi_endproc
.LFE2461:
	.size	_ZNK8opendnp315AssignClassTask11GetTaskTypeEv, .-_ZNK8opendnp315AssignClassTask11GetTaskTypeEv
	.text
	.p2align 4
	.type	_ZNSt17_Function_handlerIFvRKN8opendnp36HeaderEEZNS0_15AssignClassTask12BuildRequestERNS0_11APDURequestEhEUlS3_E_E9_M_invokeERKSt9_Any_dataS3_, @function
_ZNSt17_Function_handlerIFvRKN8opendnp36HeaderEEZNS0_15AssignClassTask12BuildRequestERNS0_11APDURequestEhEUlS3_E_E9_M_invokeERKSt9_Any_dataS3_:
.LFB2881:
	.cfi_startproc
	endbr64
	pushq	%rbx
	.cfi_def_cfa_offset 16
	.cfi_offset 3, -16
	movq	%rdi, %rbx
	movq	%rsi, %rdi
	movq	8(%rbx), %rsi
	call	_ZNK8opendnp36Header7WriteToERNS_12HeaderWriterE@PLT
	movl	%eax, %r8d
	movq	(%rbx), %rax
	andb	%r8b, (%rax)
	popq	%rbx
	.cfi_def_cfa_offset 8
	ret
	.cfi_endproc
.LFE2881:
	.size	_ZNSt17_Function_handlerIFvRKN8opendnp36HeaderEEZNS0_15AssignClassTask12BuildRequestERNS0_11APDURequestEhEUlS3_E_E9_M_invokeERKSt9_Any_dataS3_, .-_ZNSt17_Function_handlerIFvRKN8opendnp36HeaderEEZNS0_15AssignClassTask12BuildRequestERNS0_11APDURequestEhEUlS3_E_E9_M_invokeERKSt9_Any_dataS3_
	.align 2
	.p2align 4
	.globl	_ZN8opendnp315AssignClassTask15ProcessResponseERKNS_18APDUResponseHeaderERKN7openpal6RSliceE
	.type	_ZN8opendnp315AssignClassTask15ProcessResponseERKNS_18APDUResponseHeaderERKN7openpal6RSliceE, @function
_ZN8opendnp315AssignClassTask15ProcessResponseERKNS_18APDUResponseHeaderERKN7openpal6RSliceE:
.LFB2473:
	.cfi_startproc
	endbr64
	subq	$8, %rsp
	.cfi_def_cfa_offset 16
	call	_ZN8opendnp311IMasterTask20ValidateNullResponseERKNS_18APDUResponseHeaderERKN7openpal6RSliceE@PLT
	addq	$8, %rsp
	.cfi_def_cfa_offset 8
	addl	%eax, %eax
	ret
	.cfi_endproc
.LFE2473:
	.size	_ZN8opendnp315AssignClassTask15ProcessResponseERKNS_18APDUResponseHeaderERKN7openpal6RSliceE, .-_ZN8opendnp315AssignClassTask15ProcessResponseERKNS_18APDUResponseHeaderERKN7openpal6RSliceE
	.section	.text._ZN8opendnp315AssignClassTaskD2Ev,"axG",@progbits,_ZN8opendnp315AssignClassTaskD5Ev,comdat
	.align 2
	.p2align 4
	.weak	_ZN8opendnp315AssignClassTaskD2Ev
	.type	_ZN8opendnp315AssignClassTaskD2Ev, @function
_ZN8opendnp315AssignClassTaskD2Ev:
.LFB3134:
	.cfi_startproc
	endbr64
	movq	_ZTVN8opendnp315AssignClassTaskE@GOTPCREL(%rip), %rax
	addq	$16, %rax
	movq	%rax, (%rdi)
	jmp	_ZN8opendnp311IMasterTaskD2Ev@PLT
	.cfi_endproc
.LFE3134:
	.size	_ZN8opendnp315AssignClassTaskD2Ev, .-_ZN8opendnp315AssignClassTaskD2Ev
	.weak	_ZN8opendnp315AssignClassTaskD1Ev
	.set	_ZN8opendnp315AssignClassTaskD1Ev,_ZN8opendnp315AssignClassTaskD2Ev
	.section	.text._ZN8opendnp315AssignClassTaskD0Ev,"axG",@progbits,_ZN8opendnp315AssignClassTaskD5Ev,comdat
	.align 2
	.p2align 4
	.weak	_ZN8opendnp315AssignClassTaskD0Ev
	.type	_ZN8opendnp315AssignClassTaskD0Ev, @function
_ZN8opendnp315AssignClassTaskD0Ev:
.LFB3136:
	.cfi_startproc
	endbr64
	movq	_ZTVN8opendnp315AssignClassTaskE@GOTPCREL(%rip), %rax
	pushq	%rbp
	.cfi_def_cfa_offset 16
	.cfi_offset 6, -16
	movq	%rdi, %rbp
	addq	$16, %rax
	movq	%rax, (%rdi)
	call	_ZN8opendnp311IMasterTaskD2Ev@PLT
	movq	%rbp, %rdi
	movl	$96, %esi
	popq	%rbp
	.cfi_def_cfa_offset 8
	jmp	_ZdlPvm@PLT
	.cfi_endproc
.LFE3136:
	.size	_ZN8opendnp315AssignClassTaskD0Ev, .-_ZN8opendnp315AssignClassTaskD0Ev
	.text
	.align 2
	.p2align 4
	.globl	_ZN8opendnp315AssignClassTask14OnTaskCompleteENS_14TaskCompletionEN7openpal18MonotonicTimestampE
	.type	_ZN8opendnp315AssignClassTask14OnTaskCompleteENS_14TaskCompletionEN7openpal18MonotonicTimestampE, @function
_ZN8opendnp315AssignClassTask14OnTaskCompleteENS_14TaskCompletionEN7openpal18MonotonicTimestampE:
.LFB2474:
	.cfi_startproc
	endbr64
	subq	$40, %rsp
	.cfi_def_cfa_offset 48
	movq	%rdx, 8(%rsp)
	movq	%fs:40, %rax
	movq	%rax, 24(%rsp)
	xorl	%eax, %eax
	cmpb	$2, %sil
	je	.L19
	cmpb	$-1, %sil
	jne	.L20
	leaq	16(%rsp), %rdi
	xorl	%esi, %esi
	call	_ZN7openpal18MonotonicTimestampC1El@PLT
	movq	16(%rsp), %rdx
	xorl	%eax, %eax
.L21:
	movq	24(%rsp), %rcx
	subq	%fs:40, %rcx
	jne	.L24
	addq	$40, %rsp
	.cfi_remember_state
	.cfi_def_cfa_offset 8
	ret
	.p2align 4,,10
	.p2align 3
.L19:
	.cfi_restore_state
	leaq	88(%rdi), %rsi
	leaq	8(%rsp), %rdi
	call	_ZNK7openpal18MonotonicTimestamp3AddERKNS_12TimeDurationE@PLT
	movq	%rax, %rdx
	xorl	%eax, %eax
	jmp	.L21
	.p2align 4,,10
	.p2align 3
.L20:
	call	_ZN7openpal18MonotonicTimestamp3MaxEv@PLT
	movq	%rax, %rdx
	xorl	%eax, %eax
	jmp	.L21
.L24:
	call	__stack_chk_fail@PLT
	.cfi_endproc
.LFE2474:
	.size	_ZN8opendnp315AssignClassTask14OnTaskCompleteENS_14TaskCompletionEN7openpal18MonotonicTimestampE, .-_ZN8opendnp315AssignClassTask14OnTaskCompleteENS_14TaskCompletionEN7openpal18MonotonicTimestampE
	.p2align 4
	.type	_ZNSt17_Function_handlerIFvRKN8opendnp36HeaderEEZNS0_15AssignClassTask12BuildRequestERNS0_11APDURequestEhEUlS3_E_E10_M_managerERSt9_Any_dataRKSA_St18_Manager_operation, @function
_ZNSt17_Function_handlerIFvRKN8opendnp36HeaderEEZNS0_15AssignClassTask12BuildRequestERNS0_11APDURequestEhEUlS3_E_E10_M_managerERSt9_Any_dataRKSA_St18_Manager_operation:
.LFB2883:
	.cfi_startproc
	endbr64
	testl	%edx, %edx
	je	.L26
	cmpl	$1, %edx
	je	.L27
	cmpl	$2, %edx
	je	.L31
.L29:
	xorl	%eax, %eax
	ret
	.p2align 4,,10
	.p2align 3
.L26:
	leaq	_ZTIZN8opendnp315AssignClassTask12BuildRequestERNS_11APDURequestEhEUlRKNS_6HeaderEE_(%rip), %rax
	movq	%rax, (%rdi)
	xorl	%eax, %eax
	ret
	.p2align 4,,10
	.p2align 3
.L27:
	movq	%rsi, (%rdi)
	xorl	%eax, %eax
	ret
	.p2align 4,,10
	.p2align 3
.L31:
	movdqu	(%rsi), %xmm0
	movups	%xmm0, (%rdi)
	jmp	.L29
	.cfi_endproc
.LFE2883:
	.size	_ZNSt17_Function_handlerIFvRKN8opendnp36HeaderEEZNS0_15AssignClassTask12BuildRequestERNS0_11APDURequestEhEUlS3_E_E10_M_managerERSt9_Any_dataRKSA_St18_Manager_operation, .-_ZNSt17_Function_handlerIFvRKN8opendnp36HeaderEEZNS0_15AssignClassTask12BuildRequestERNS0_11APDURequestEhEUlS3_E_E10_M_managerERSt9_Any_dataRKSA_St18_Manager_operation
	.section	.text.unlikely,"ax",@progbits
	.align 2
.LCOLDB1:
	.text
.LHOTB1:
	.align 2
	.p2align 4
	.globl	_ZN8opendnp315AssignClassTask12BuildRequestERNS_11APDURequestEh
	.type	_ZN8opendnp315AssignClassTask12BuildRequestERNS_11APDURequestEh, @function
_ZN8opendnp315AssignClassTask12BuildRequestERNS_11APDURequestEh:
.LFB2465:
	.cfi_startproc
	.cfi_personality 0x9b,DW.ref.__gxx_personality_v0
	.cfi_lsda 0x1b,.LLSDA2465
	endbr64
	pushq	%r13
	.cfi_def_cfa_offset 16
	.cfi_offset 13, -16
	movzbl	%dl, %r9d
	xorl	%r8d, %r8d
	xorl	%ecx, %ecx
	pushq	%r12
	.cfi_def_cfa_offset 24
	.cfi_offset 12, -24
	movq	%rdi, %r13
	movl	$1, %edx
	pushq	%rbp
	.cfi_def_cfa_offset 32
	.cfi_offset 6, -32
	movq	%rsi, %rbp
	movl	$1, %esi
	pushq	%rbx
	.cfi_def_cfa_offset 40
	.cfi_offset 3, -40
	leaq	_ZNSt17_Function_handlerIFvRKN8opendnp36HeaderEEZNS0_15AssignClassTask12BuildRequestERNS0_11APDURequestEhEUlS3_E_E10_M_managerERSt9_Any_dataRKSA_St18_Manager_operation(%rip), %rbx
	movq	%rbx, %xmm1
	subq	$136, %rsp
	.cfi_def_cfa_offset 176
	movq	%fs:40, %rax
	movq	%rax, 120(%rsp)
	xorl	%eax, %eax
	leaq	_ZNSt17_Function_handlerIFvRKN8opendnp36HeaderEEZNS0_15AssignClassTask12BuildRequestERNS0_11APDURequestEhEUlS3_E_E9_M_invokeERKSt9_Any_dataS3_(%rip), %rax
	leaq	48(%rsp), %r12
	movq	%rax, %xmm2
	leaq	42(%rsp), %rax
	movq	%r12, %xmm3
	movq	%rax, %xmm0
	punpcklqdq	%xmm2, %xmm1
	leaq	43(%rsp), %rdi
	punpcklqdq	%xmm3, %xmm0
	movaps	%xmm1, 16(%rsp)
	movaps	%xmm0, (%rsp)
.LEHB0:
	call	_ZN8opendnp315AppControlFieldC1Ebbbbh@PLT
	movzbl	44(%rsp), %eax
	movzbl	43(%rsp), %edx
	movq	%rbp, %rdi
	movzbl	47(%rsp), %esi
	salq	$8, %rax
	orq	%rdx, %rax
	movzbl	45(%rsp), %edx
	salq	$32, %rsi
	salq	$16, %rdx
	orq	%rax, %rdx
	movzbl	46(%rsp), %eax
	salq	$24, %rax
	orq	%rdx, %rax
	orq	%rax, %rsi
	call	_ZN8opendnp311APDUWrapper10SetControlENS_15AppControlFieldE@PLT
	movq	%rbp, %rdi
	movl	$22, %esi
	call	_ZN8opendnp311APDUWrapper11SetFunctionENS_12FunctionCodeE@PLT
	movq	%rbp, %rsi
	movq	%r12, %rdi
	leaq	80(%rsp), %rbp
	call	_ZN8opendnp311APDUWrapper9GetWriterEv@PLT
.LEHE0:
	movq	8(%r13), %rdi
	movdqa	(%rsp), %xmm0
	movb	$1, 42(%rsp)
	movdqa	16(%rsp), %xmm1
	movq	(%rdi), %rax
	movaps	%xmm0, 80(%rsp)
	movaps	%xmm1, 96(%rsp)
	movq	96(%rax), %rax
	cmpq	_ZN8opendnp318IMasterApplication27ConfigureAssignClassRequestERKSt8functionIFvRKNS_6HeaderEEE@GOTPCREL(%rip), %rax
	jne	.L48
.L33:
	movl	$3, %edx
	movq	%rbp, %rsi
	movq	%rbp, %rdi
	call	*%rbx
.L34:
	movzbl	42(%rsp), %eax
	movq	120(%rsp), %rdx
	subq	%fs:40, %rdx
	jne	.L49
	addq	$136, %rsp
	.cfi_remember_state
	.cfi_def_cfa_offset 40
	popq	%rbx
	.cfi_def_cfa_offset 32
	popq	%rbp
	.cfi_def_cfa_offset 24
	popq	%r12
	.cfi_def_cfa_offset 16
	popq	%r13
	.cfi_def_cfa_offset 8
	ret
	.p2align 4,,10
	.p2align 3
.L48:
	.cfi_restore_state
	movq	%rbp, %rsi
.LEHB1:
	call	*%rax
.LEHE1:
	movq	96(%rsp), %rbx
	testq	%rbx, %rbx
	je	.L34
	jmp	.L33
.L49:
	call	__stack_chk_fail@PLT
.L39:
	endbr64
	movq	%rax, %r12
	jmp	.L35
	.globl	__gxx_personality_v0
	.section	.gcc_except_table,"a",@progbits
.LLSDA2465:
	.byte	0xff
	.byte	0xff
	.byte	0x1
	.uleb128 .LLSDACSE2465-.LLSDACSB2465
.LLSDACSB2465:
	.uleb128 .LEHB0-.LFB2465
	.uleb128 .LEHE0-.LEHB0
	.uleb128 0
	.uleb128 0
	.uleb128 .LEHB1-.LFB2465
	.uleb128 .LEHE1-.LEHB1
	.uleb128 .L39-.LFB2465
	.uleb128 0
.LLSDACSE2465:
	.text
	.cfi_endproc
	.section	.text.unlikely
	.cfi_startproc
	.cfi_personality 0x9b,DW.ref.__gxx_personality_v0
	.cfi_lsda 0x1b,.LLSDAC2465
	.type	_ZN8opendnp315AssignClassTask12BuildRequestERNS_11APDURequestEh.cold, @function
_ZN8opendnp315AssignClassTask12BuildRequestERNS_11APDURequestEh.cold:
.LFSB2465:
.L35:
	.cfi_def_cfa_offset 176
	.cfi_offset 3, -40
	.cfi_offset 6, -32
	.cfi_offset 12, -24
	.cfi_offset 13, -16
	movq	96(%rsp), %rax
	testq	%rax, %rax
	je	.L36
	movl	$3, %edx
	movq	%rbp, %rsi
	movq	%rbp, %rdi
	call	*%rax
.L36:
	movq	%r12, %rdi
.LEHB2:
	call	_Unwind_Resume@PLT
.LEHE2:
	.cfi_endproc
.LFE2465:
	.section	.gcc_except_table
.LLSDAC2465:
	.byte	0xff
	.byte	0xff
	.byte	0x1
	.uleb128 .LLSDACSEC2465-.LLSDACSBC2465
.LLSDACSBC2465:
	.uleb128 .LEHB2-.LCOLDB1
	.uleb128 .LEHE2-.LEHB2
	.uleb128 0
	.uleb128 0
.LLSDACSEC2465:
	.section	.text.unlikely
	.text
	.size	_ZN8opendnp315AssignClassTask12BuildRequestERNS_11APDURequestEh, .-_ZN8opendnp315AssignClassTask12BuildRequestERNS_11APDURequestEh
	.section	.text.unlikely
	.size	_ZN8opendnp315AssignClassTask12BuildRequestERNS_11APDURequestEh.cold, .-_ZN8opendnp315AssignClassTask12BuildRequestERNS_11APDURequestEh.cold
.LCOLDE1:
	.text
.LHOTE1:
	.align 2
	.p2align 4
	.globl	_ZNK8opendnp315AssignClassTask9IsEnabledEv
	.type	_ZNK8opendnp315AssignClassTask9IsEnabledEv, @function
_ZNK8opendnp315AssignClassTask9IsEnabledEv:
.LFB2472:
	.cfi_startproc
	endbr64
	movq	8(%rdi), %rdi
	movq	(%rdi), %rax
	movq	88(%rax), %rax
	cmpq	_ZN8opendnp318IMasterApplication24AssignClassDuringStartupEv@GOTPCREL(%rip), %rax
	jne	.L52
	xorl	%eax, %eax
	ret
	.p2align 4,,10
	.p2align 3
.L52:
	jmp	*%rax
	.cfi_endproc
.LFE2472:
	.size	_ZNK8opendnp315AssignClassTask9IsEnabledEv, .-_ZNK8opendnp315AssignClassTask9IsEnabledEv
	.section	.text._ZN7openpal6LoggerD2Ev,"axG",@progbits,_ZN7openpal6LoggerD5Ev,comdat
	.align 2
	.p2align 4
	.weak	_ZN7openpal6LoggerD2Ev
	.type	_ZN7openpal6LoggerD2Ev, @function
_ZN7openpal6LoggerD2Ev:
.LFB2070:
	.cfi_startproc
	endbr64
	pushq	%r12
	.cfi_def_cfa_offset 16
	.cfi_offset 12, -16
	pushq	%rbp
	.cfi_def_cfa_offset 24
	.cfi_offset 6, -24
	pushq	%rbx
	.cfi_def_cfa_offset 32
	.cfi_offset 3, -32
	movq	24(%rdi), %rbp
	movq	%rdi, %rbx
	testq	%rbp, %rbp
	je	.L55
	movq	__libc_single_threaded@GOTPCREL(%rip), %r12
	cmpb	$0, (%r12)
	je	.L56
	movl	8(%rbp), %eax
	leal	-1(%rax), %edx
	movl	%edx, 8(%rbp)
.L57:
	cmpl	$1, %eax
	je	.L69
.L55:
	movq	8(%rbx), %rbp
	testq	%rbp, %rbp
	je	.L53
	movq	__libc_single_threaded@GOTPCREL(%rip), %r12
	cmpb	$0, (%r12)
	je	.L63
	movl	8(%rbp), %eax
	leal	-1(%rax), %edx
	movl	%edx, 8(%rbp)
.L64:
	cmpl	$1, %eax
	je	.L70
.L53:
	popq	%rbx
	.cfi_remember_state
	.cfi_def_cfa_offset 24
	popq	%rbp
	.cfi_def_cfa_offset 16
	popq	%r12
	.cfi_def_cfa_offset 8
	ret
	.p2align 4,,10
	.p2align 3
.L69:
	.cfi_restore_state
	movq	0(%rbp), %rax
	movq	%rbp, %rdi
	call	*16(%rax)
	cmpb	$0, (%r12)
	je	.L59
	movl	12(%rbp), %eax
	leal	-1(%rax), %edx
	movl	%edx, 12(%rbp)
.L60:
	cmpl	$1, %eax
	jne	.L55
	movq	0(%rbp), %rax
	movq	%rbp, %rdi
	call	*24(%rax)
	jmp	.L55
	.p2align 4,,10
	.p2align 3
.L70:
	movq	0(%rbp), %rax
	movq	%rbp, %rdi
	call	*16(%rax)
	cmpb	$0, (%r12)
	je	.L66
	movl	12(%rbp), %eax
	leal	-1(%rax), %edx
	movl	%edx, 12(%rbp)
.L67:
	cmpl	$1, %eax
	jne	.L53
	movq	0(%rbp), %rax
	popq	%rbx
	.cfi_remember_state
	.cfi_def_cfa_offset 24
	movq	%rbp, %rdi
	popq	%rbp
	.cfi_def_cfa_offset 16
	popq	%r12
	.cfi_def_cfa_offset 8
	movq	24(%rax), %rax
	jmp	*%rax
	.p2align 4,,10
	.p2align 3
.L63:
	.cfi_restore_state
	movl	$-1, %eax
	lock xaddl	%eax, 8(%rbp)
	jmp	.L64
	.p2align 4,,10
	.p2align 3
.L56:
	movl	$-1, %eax
	lock xaddl	%eax, 8(%rbp)
	jmp	.L57
	.p2align 4,,10
	.p2align 3
.L59:
	movl	$-1, %eax
	lock xaddl	%eax, 12(%rbp)
	jmp	.L60
	.p2align 4,,10
	.p2align 3
.L66:
	movl	$-1, %eax
	lock xaddl	%eax, 12(%rbp)
	jmp	.L67
	.cfi_endproc
.LFE2070:
	.size	_ZN7openpal6LoggerD2Ev, .-_ZN7openpal6LoggerD2Ev
	.weak	_ZN7openpal6LoggerD1Ev
	.set	_ZN7openpal6LoggerD1Ev,_ZN7openpal6LoggerD2Ev
	.section	.text.unlikely
	.align 2
.LCOLDB2:
	.text
.LHOTB2:
	.align 2
	.p2align 4
	.globl	_ZN8opendnp315AssignClassTaskC2ERNS_18IMasterApplicationEN7openpal12TimeDurationENS3_6LoggerE
	.type	_ZN8opendnp315AssignClassTaskC2ERNS_18IMasterApplicationEN7openpal12TimeDurationENS3_6LoggerE, @function
_ZN8opendnp315AssignClassTaskC2ERNS_18IMasterApplicationEN7openpal12TimeDurationENS3_6LoggerE:
.LFB2463:
	.cfi_startproc
	.cfi_personality 0x9b,DW.ref.__gxx_personality_v0
	.cfi_lsda 0x1b,.LLSDA2463
	endbr64
	pushq	%r13
	.cfi_def_cfa_offset 16
	.cfi_offset 13, -16
	pushq	%r12
	.cfi_def_cfa_offset 24
	.cfi_offset 12, -24
	movq	%rdx, %r12
	pushq	%rbp
	.cfi_def_cfa_offset 32
	.cfi_offset 6, -32
	movq	%rsi, %rbp
	pushq	%rbx
	.cfi_def_cfa_offset 40
	.cfi_offset 3, -40
	movq	%rdi, %rbx
	subq	$72, %rsp
	.cfi_def_cfa_offset 112
	movdqu	(%rcx), %xmm0
	movq	%fs:40, %rax
	movq	%rax, 56(%rsp)
	movq	8(%rcx), %rax
	movaps	%xmm0, 16(%rsp)
	testq	%rax, %rax
	je	.L72
	movq	__libc_single_threaded@GOTPCREL(%rip), %rdx
	cmpb	$0, (%rdx)
	je	.L73
	addl	$1, 8(%rax)
.L72:
	movdqu	16(%rcx), %xmm1
	movaps	%xmm1, 32(%rsp)
	movq	40(%rsp), %rax
	testq	%rax, %rax
	je	.L74
	movq	__libc_single_threaded@GOTPCREL(%rip), %rdx
	cmpb	$0, (%rdx)
	je	.L75
	addl	$1, 8(%rax)
.L74:
	leaq	8(%rsp), %rdi
	xorl	%esi, %esi
	leaq	16(%rsp), %r13
.LEHB3:
	call	_ZN7openpal18MonotonicTimestampC1El@PLT
	movq	8(%rsp), %rdx
	xorl	%r9d, %r9d
	movq	%r13, %rcx
	movq	%rbp, %rsi
	movl	$4294967295, %r8d
	movq	%rbx, %rdi
	call	_ZN8opendnp311IMasterTaskC2ERNS_18IMasterApplicationEN7openpal18MonotonicTimestampENS3_6LoggerENS_10TaskConfigE@PLT
.LEHE3:
	movq	40(%rsp), %rbp
	testq	%rbp, %rbp
	je	.L77
	movq	__libc_single_threaded@GOTPCREL(%rip), %r13
	cmpb	$0, 0(%r13)
	je	.L78
	movl	8(%rbp), %eax
	leal	-1(%rax), %edx
	movl	%edx, 8(%rbp)
.L79:
	cmpl	$1, %eax
	je	.L101
.L77:
	movq	24(%rsp), %rbp
	testq	%rbp, %rbp
	je	.L84
	movq	__libc_single_threaded@GOTPCREL(%rip), %r13
	cmpb	$0, 0(%r13)
	je	.L85
	movl	8(%rbp), %eax
	leal	-1(%rax), %edx
	movl	%edx, 8(%rbp)
.L86:
	cmpl	$1, %eax
	je	.L102
.L84:
	movq	_ZTVN8opendnp315AssignClassTaskE@GOTPCREL(%rip), %rax
	movq	%r12, 88(%rbx)
	addq	$16, %rax
	movq	%rax, (%rbx)
	movq	56(%rsp), %rax
	subq	%fs:40, %rax
	jne	.L103
	addq	$72, %rsp
	.cfi_remember_state
	.cfi_def_cfa_offset 40
	popq	%rbx
	.cfi_def_cfa_offset 32
	popq	%rbp
	.cfi_def_cfa_offset 24
	popq	%r12
	.cfi_def_cfa_offset 16
	popq	%r13
	.cfi_def_cfa_offset 8
	ret
	.p2align 4,,10
	.p2align 3
.L73:
	.cfi_restore_state
	lock addl	$1, 8(%rax)
	jmp	.L72
	.p2align 4,,10
	.p2align 3
.L75:
	lock addl	$1, 8(%rax)
	jmp	.L74
	.p2align 4,,10
	.p2align 3
.L101:
	movq	0(%rbp), %rax
	movq	%rbp, %rdi
	call	*16(%rax)
	cmpb	$0, 0(%r13)
	je	.L81
	movl	12(%rbp), %eax
	leal	-1(%rax), %edx
	movl	%edx, 12(%rbp)
.L82:
	cmpl	$1, %eax
	jne	.L77
	movq	0(%rbp), %rax
	movq	%rbp, %rdi
	call	*24(%rax)
	jmp	.L77
	.p2align 4,,10
	.p2align 3
.L102:
	movq	0(%rbp), %rax
	movq	%rbp, %rdi
	call	*16(%rax)
	cmpb	$0, 0(%r13)
	je	.L88
	movl	12(%rbp), %eax
	leal	-1(%rax), %edx
	movl	%edx, 12(%rbp)
.L89:
	cmpl	$1, %eax
	jne	.L84
	movq	0(%rbp), %rax
	movq	%rbp, %rdi
	call	*24(%rax)
	jmp	.L84
	.p2align 4,,10
	.p2align 3
.L78:
	movl	$-1, %eax
	lock xaddl	%eax, 8(%rbp)
	jmp	.L79
	.p2align 4,,10
	.p2align 3
.L85:
	movl	$-1, %eax
	lock xaddl	%eax, 8(%rbp)
	jmp	.L86
	.p2align 4,,10
	.p2align 3
.L81:
	movl	$-1, %eax
	lock xaddl	%eax, 12(%rbp)
	jmp	.L82
	.p2align 4,,10
	.p2align 3
.L88:
	movl	$-1, %eax
	lock xaddl	%eax, 12(%rbp)
	jmp	.L89
.L103:
	call	__stack_chk_fail@PLT
.L92:
	endbr64
	movq	%rax, %rbp
	jmp	.L90
	.section	.gcc_except_table
.LLSDA2463:
	.byte	0xff
	.byte	0xff
	.byte	0x1
	.uleb128 .LLSDACSE2463-.LLSDACSB2463
.LLSDACSB2463:
	.uleb128 .LEHB3-.LFB2463
	.uleb128 .LEHE3-.LEHB3
	.uleb128 .L92-.LFB2463
	.uleb128 0
.LLSDACSE2463:
	.text
	.cfi_endproc
	.section	.text.unlikely
	.cfi_startproc
	.cfi_personality 0x9b,DW.ref.__gxx_personality_v0
	.cfi_lsda 0x1b,.LLSDAC2463
	.type	_ZN8opendnp315AssignClassTaskC2ERNS_18IMasterApplicationEN7openpal12TimeDurationENS3_6LoggerE.cold, @function
_ZN8opendnp315AssignClassTaskC2ERNS_18IMasterApplicationEN7openpal12TimeDurationENS3_6LoggerE.cold:
.LFSB2463:
.L90:
	.cfi_def_cfa_offset 112
	.cfi_offset 3, -40
	.cfi_offset 6, -32
	.cfi_offset 12, -24
	.cfi_offset 13, -16
	movq	%r13, %rdi
	call	_ZN7openpal6LoggerD1Ev@PLT
	movq	%rbp, %rdi
.LEHB4:
	call	_Unwind_Resume@PLT
.LEHE4:
	.cfi_endproc
.LFE2463:
	.section	.gcc_except_table
.LLSDAC2463:
	.byte	0xff
	.byte	0xff
	.byte	0x1
	.uleb128 .LLSDACSEC2463-.LLSDACSBC2463
.LLSDACSBC2463:
	.uleb128 .LEHB4-.LCOLDB2
	.uleb128 .LEHE4-.LEHB4
	.uleb128 0
	.uleb128 0
.LLSDACSEC2463:
	.section	.text.unlikely
	.text
	.size	_ZN8opendnp315AssignClassTaskC2ERNS_18IMasterApplicationEN7openpal12TimeDurationENS3_6LoggerE, .-_ZN8opendnp315AssignClassTaskC2ERNS_18IMasterApplicationEN7openpal12TimeDurationENS3_6LoggerE
	.section	.text.unlikely
	.size	_ZN8opendnp315AssignClassTaskC2ERNS_18IMasterApplicationEN7openpal12TimeDurationENS3_6LoggerE.cold, .-_ZN8opendnp315AssignClassTaskC2ERNS_18IMasterApplicationEN7openpal12TimeDurationENS3_6LoggerE.cold
.LCOLDE2:
	.text
.LHOTE2:
	.globl	_ZN8opendnp315AssignClassTaskC1ERNS_18IMasterApplicationEN7openpal12TimeDurationENS3_6LoggerE
	.set	_ZN8opendnp315AssignClassTaskC1ERNS_18IMasterApplicationEN7openpal12TimeDurationENS3_6LoggerE,_ZN8opendnp315AssignClassTaskC2ERNS_18IMasterApplicationEN7openpal12TimeDurationENS3_6LoggerE
	.weak	_ZTSN8opendnp315AssignClassTaskE
	.section	.rodata._ZTSN8opendnp315AssignClassTaskE,"aG",@progbits,_ZTSN8opendnp315AssignClassTaskE,comdat
	.align 16
	.type	_ZTSN8opendnp315AssignClassTaskE, @object
	.size	_ZTSN8opendnp315AssignClassTaskE, 29
_ZTSN8opendnp315AssignClassTaskE:
	.string	"N8opendnp315AssignClassTaskE"
	.weak	_ZTIN8opendnp315AssignClassTaskE
	.section	.data.rel.ro._ZTIN8opendnp315AssignClassTaskE,"awG",@progbits,_ZTIN8opendnp315AssignClassTaskE,comdat
	.align 8
	.type	_ZTIN8opendnp315AssignClassTaskE, @object
	.size	_ZTIN8opendnp315AssignClassTaskE, 24
_ZTIN8opendnp315AssignClassTaskE:
	.quad	_ZTVN10__cxxabiv120__si_class_type_infoE+16
	.quad	_ZTSN8opendnp315AssignClassTaskE
	.quad	_ZTIN8opendnp311IMasterTaskE
	.section	.data.rel.ro,"aw"
	.align 8
	.type	_ZTIZN8opendnp315AssignClassTask12BuildRequestERNS_11APDURequestEhEUlRKNS_6HeaderEE_, @object
	.size	_ZTIZN8opendnp315AssignClassTask12BuildRequestERNS_11APDURequestEhEUlRKNS_6HeaderEE_, 16
_ZTIZN8opendnp315AssignClassTask12BuildRequestERNS_11APDURequestEhEUlRKNS_6HeaderEE_:
	.quad	_ZTVN10__cxxabiv117__class_type_infoE+16
	.quad	_ZTSZN8opendnp315AssignClassTask12BuildRequestERNS_11APDURequestEhEUlRKNS_6HeaderEE_
	.section	.rodata
	.align 32
	.type	_ZTSZN8opendnp315AssignClassTask12BuildRequestERNS_11APDURequestEhEUlRKNS_6HeaderEE_, @object
	.size	_ZTSZN8opendnp315AssignClassTask12BuildRequestERNS_11APDURequestEhEUlRKNS_6HeaderEE_, 82
_ZTSZN8opendnp315AssignClassTask12BuildRequestERNS_11APDURequestEhEUlRKNS_6HeaderEE_:
	.string	"*ZN8opendnp315AssignClassTask12BuildRequestERNS_11APDURequestEhEUlRKNS_6HeaderEE_"
	.weak	_ZTVN8opendnp315AssignClassTaskE
	.section	.data.rel.ro._ZTVN8opendnp315AssignClassTaskE,"awG",@progbits,_ZTVN8opendnp315AssignClassTaskE,comdat
	.align 8
	.type	_ZTVN8opendnp315AssignClassTaskE, @object
	.size	_ZTVN8opendnp315AssignClassTaskE, 120
_ZTVN8opendnp315AssignClassTaskE:
	.quad	0
	.quad	_ZTIN8opendnp315AssignClassTaskE
	.quad	_ZN8opendnp315AssignClassTaskD1Ev
	.quad	_ZN8opendnp315AssignClassTaskD0Ev
	.quad	_ZNK8opendnp311IMasterTask10IsAuthTaskEv
	.quad	_ZNK8opendnp315AssignClassTask4NameEv
	.quad	_ZNK8opendnp315AssignClassTask8PriorityEv
	.quad	_ZNK8opendnp315AssignClassTask19BlocksLowerPriorityEv
	.quad	_ZNK8opendnp315AssignClassTask11IsRecurringEv
	.quad	_ZN8opendnp315AssignClassTask12BuildRequestERNS_11APDURequestEh
	.quad	_ZN8opendnp311IMasterTask10InitializeEv
	.quad	_ZN8opendnp315AssignClassTask15ProcessResponseERKNS_18APDUResponseHeaderERKN7openpal6RSliceE
	.quad	_ZN8opendnp315AssignClassTask14OnTaskCompleteENS_14TaskCompletionEN7openpal18MonotonicTimestampE
	.quad	_ZNK8opendnp315AssignClassTask9IsEnabledEv
	.quad	_ZNK8opendnp315AssignClassTask11GetTaskTypeEv
	.hidden	DW.ref.__gxx_personality_v0
	.weak	DW.ref.__gxx_personality_v0
	.section	.data.rel.local.DW.ref.__gxx_personality_v0,"awG",@progbits,DW.ref.__gxx_personality_v0,comdat
	.align 8
	.type	DW.ref.__gxx_personality_v0, @object
	.size	DW.ref.__gxx_personality_v0, 8
DW.ref.__gxx_personality_v0:
	.quad	__gxx_personality_v0
	.ident	"GCC: (Ubuntu 11.4.0-1ubuntu1~22.04) 11.4.0"
	.section	.note.GNU-stack,"",@progbits
	.section	.note.gnu.property,"a"
	.align 8
	.long	1f - 0f
	.long	4f - 1f
	.long	5
0:
	.string	"GNU"
1:
	.align 8
	.long	0xc0000002
	.long	3f - 2f
2:
	.long	0x3
3:
	.align 8
4:
