	.file	"ClearRestartTask.cpp"
	.text
	.section	.text._ZNK8opendnp311IMasterTask10IsAuthTaskEv,"axG",@progbits,_ZNK8opendnp311IMasterTask10IsAuthTaskEv,comdat
	.align 2
	.p2align 4
	.weak	_ZNK8opendnp311IMasterTask10IsAuthTaskEv
	.type	_ZNK8opendnp311IMasterTask10IsAuthTaskEv, @function
_ZNK8opendnp311IMasterTask10IsAuthTaskEv:
.LFB2455:
	.cfi_startproc
	endbr64
	xorl	%eax, %eax
	ret
	.cfi_endproc
.LFE2455:
	.size	_ZNK8opendnp311IMasterTask10IsAuthTaskEv, .-_ZNK8opendnp311IMasterTask10IsAuthTaskEv
	.section	.text._ZN8opendnp311IMasterTask10InitializeEv,"axG",@progbits,_ZN8opendnp311IMasterTask10InitializeEv,comdat
	.align 2
	.p2align 4
	.weak	_ZN8opendnp311IMasterTask10InitializeEv
	.type	_ZN8opendnp311IMasterTask10InitializeEv, @function
_ZN8opendnp311IMasterTask10InitializeEv:
.LFB2456:
	.cfi_startproc
	endbr64
	ret
	.cfi_endproc
.LFE2456:
	.size	_ZN8opendnp311IMasterTask10InitializeEv, .-_ZN8opendnp311IMasterTask10InitializeEv
	.section	.rodata._ZNK8opendnp316ClearRestartTask4NameEv.str1.1,"aMS",@progbits,1
.LC0:
	.string	"Clear Restart IIN"
	.section	.text._ZNK8opendnp316ClearRestartTask4NameEv,"axG",@progbits,_ZNK8opendnp316ClearRestartTask4NameEv,comdat
	.align 2
	.p2align 4
	.weak	_ZNK8opendnp316ClearRestartTask4NameEv
	.type	_ZNK8opendnp316ClearRestartTask4NameEv, @function
_ZNK8opendnp316ClearRestartTask4NameEv:
.LFB2457:
	.cfi_startproc
	endbr64
	leaq	.LC0(%rip), %rax
	ret
	.cfi_endproc
.LFE2457:
	.size	_ZNK8opendnp316ClearRestartTask4NameEv, .-_ZNK8opendnp316ClearRestartTask4NameEv
	.section	.text._ZNK8opendnp316ClearRestartTask11IsRecurringEv,"axG",@progbits,_ZNK8opendnp316ClearRestartTask11IsRecurringEv,comdat
	.align 2
	.p2align 4
	.weak	_ZNK8opendnp316ClearRestartTask11IsRecurringEv
	.type	_ZNK8opendnp316ClearRestartTask11IsRecurringEv, @function
_ZNK8opendnp316ClearRestartTask11IsRecurringEv:
.LFB2458:
	.cfi_startproc
	endbr64
	movl	$1, %eax
	ret
	.cfi_endproc
.LFE2458:
	.size	_ZNK8opendnp316ClearRestartTask11IsRecurringEv, .-_ZNK8opendnp316ClearRestartTask11IsRecurringEv
	.section	.text._ZNK8opendnp316ClearRestartTask8PriorityEv,"axG",@progbits,_ZNK8opendnp316ClearRestartTask8PriorityEv,comdat
	.align 2
	.p2align 4
	.weak	_ZNK8opendnp316ClearRestartTask8PriorityEv
	.type	_ZNK8opendnp316ClearRestartTask8PriorityEv, @function
_ZNK8opendnp316ClearRestartTask8PriorityEv:
.LFB2459:
	.cfi_startproc
	endbr64
	movl	$120, %eax
	ret
	.cfi_endproc
.LFE2459:
	.size	_ZNK8opendnp316ClearRestartTask8PriorityEv, .-_ZNK8opendnp316ClearRestartTask8PriorityEv
	.section	.text._ZNK8opendnp316ClearRestartTask19BlocksLowerPriorityEv,"axG",@progbits,_ZNK8opendnp316ClearRestartTask19BlocksLowerPriorityEv,comdat
	.align 2
	.p2align 4
	.weak	_ZNK8opendnp316ClearRestartTask19BlocksLowerPriorityEv
	.type	_ZNK8opendnp316ClearRestartTask19BlocksLowerPriorityEv, @function
_ZNK8opendnp316ClearRestartTask19BlocksLowerPriorityEv:
.LFB2460:
	.cfi_startproc
	endbr64
	movl	$1, %eax
	ret
	.cfi_endproc
.LFE2460:
	.size	_ZNK8opendnp316ClearRestartTask19BlocksLowerPriorityEv, .-_ZNK8opendnp316ClearRestartTask19BlocksLowerPriorityEv
	.section	.text._ZNK8opendnp316ClearRestartTask11GetTaskTypeEv,"axG",@progbits,_ZNK8opendnp316ClearRestartTask11GetTaskTypeEv,comdat
	.align 2
	.p2align 4
	.weak	_ZNK8opendnp316ClearRestartTask11GetTaskTypeEv
	.type	_ZNK8opendnp316ClearRestartTask11GetTaskTypeEv, @function
_ZNK8opendnp316ClearRestartTask11GetTaskTypeEv:
.LFB2461:
	.cfi_startproc
	endbr64
	xorl	%eax, %eax
	ret
	.cfi_endproc
.LFE2461:
	.size	_ZNK8opendnp316ClearRestartTask11GetTaskTypeEv, .-_ZNK8opendnp316ClearRestartTask11GetTaskTypeEv
	.section	.text._ZNK8opendnp316ClearRestartTask9IsEnabledEv,"axG",@progbits,_ZNK8opendnp316ClearRestartTask9IsEnabledEv,comdat
	.align 2
	.p2align 4
	.weak	_ZNK8opendnp316ClearRestartTask9IsEnabledEv
	.type	_ZNK8opendnp316ClearRestartTask9IsEnabledEv, @function
_ZNK8opendnp316ClearRestartTask9IsEnabledEv:
.LFB2462:
	.cfi_startproc
	endbr64
	movl	$1, %eax
	ret
	.cfi_endproc
.LFE2462:
	.size	_ZNK8opendnp316ClearRestartTask9IsEnabledEv, .-_ZNK8opendnp316ClearRestartTask9IsEnabledEv
	.text
	.align 2
	.p2align 4
	.globl	_ZN8opendnp316ClearRestartTask12BuildRequestERNS_11APDURequestEh
	.type	_ZN8opendnp316ClearRestartTask12BuildRequestERNS_11APDURequestEh, @function
_ZN8opendnp316ClearRestartTask12BuildRequestERNS_11APDURequestEh:
.LFB3058:
	.cfi_startproc
	endbr64
	subq	$8, %rsp
	.cfi_def_cfa_offset 16
	movq	%rsi, %rdi
	movzbl	%dl, %esi
	call	_ZN8opendnp35build15ClearRestartIINERNS_11APDURequestEh@PLT
	movl	$1, %eax
	addq	$8, %rsp
	.cfi_def_cfa_offset 8
	ret
	.cfi_endproc
.LFE3058:
	.size	_ZN8opendnp316ClearRestartTask12BuildRequestERNS_11APDURequestEh, .-_ZN8opendnp316ClearRestartTask12BuildRequestERNS_11APDURequestEh
	.section	.text._ZN8opendnp316ClearRestartTaskD2Ev,"axG",@progbits,_ZN8opendnp316ClearRestartTaskD5Ev,comdat
	.align 2
	.p2align 4
	.weak	_ZN8opendnp316ClearRestartTaskD2Ev
	.type	_ZN8opendnp316ClearRestartTaskD2Ev, @function
_ZN8opendnp316ClearRestartTaskD2Ev:
.LFB3725:
	.cfi_startproc
	endbr64
	movq	_ZTVN8opendnp316ClearRestartTaskE@GOTPCREL(%rip), %rax
	addq	$16, %rax
	movq	%rax, (%rdi)
	jmp	_ZN8opendnp311IMasterTaskD2Ev@PLT
	.cfi_endproc
.LFE3725:
	.size	_ZN8opendnp316ClearRestartTaskD2Ev, .-_ZN8opendnp316ClearRestartTaskD2Ev
	.weak	_ZN8opendnp316ClearRestartTaskD1Ev
	.set	_ZN8opendnp316ClearRestartTaskD1Ev,_ZN8opendnp316ClearRestartTaskD2Ev
	.section	.text._ZN8opendnp316ClearRestartTaskD0Ev,"axG",@progbits,_ZN8opendnp316ClearRestartTaskD5Ev,comdat
	.align 2
	.p2align 4
	.weak	_ZN8opendnp316ClearRestartTaskD0Ev
	.type	_ZN8opendnp316ClearRestartTaskD0Ev, @function
_ZN8opendnp316ClearRestartTaskD0Ev:
.LFB3727:
	.cfi_startproc
	endbr64
	movq	_ZTVN8opendnp316ClearRestartTaskE@GOTPCREL(%rip), %rax
	pushq	%rbp
	.cfi_def_cfa_offset 16
	.cfi_offset 6, -16
	movq	%rdi, %rbp
	addq	$16, %rax
	movq	%rax, (%rdi)
	call	_ZN8opendnp311IMasterTaskD2Ev@PLT
	movq	%rbp, %rdi
	movl	$96, %esi
	popq	%rbp
	.cfi_def_cfa_offset 8
	jmp	_ZdlPvm@PLT
	.cfi_endproc
.LFE3727:
	.size	_ZN8opendnp316ClearRestartTaskD0Ev, .-_ZN8opendnp316ClearRestartTaskD0Ev
	.section	.rodata.str1.8,"aMS",@progbits,1
	.align 8
.LC1:
	.string	"Clear restart task failed to clear restart bit, permanently disabling task"
	.align 8
.LC2:
	.string	"/home/saptarshi/Desktop/OpenPLC61850/utils/dnp3_src/cpp/libs/src/opendnp3/master/ClearRestartTask.cpp(55)"
	.text
	.align 2
	.p2align 4
	.globl	_ZN8opendnp316ClearRestartTask15ProcessResponseERKNS_18APDUResponseHeaderERKN7openpal6RSliceE
	.type	_ZN8opendnp316ClearRestartTask15ProcessResponseERKNS_18APDUResponseHeaderERKN7openpal6RSliceE, @function
_ZN8opendnp316ClearRestartTask15ProcessResponseERKNS_18APDUResponseHeaderERKN7openpal6RSliceE:
.LFB3059:
	.cfi_startproc
	endbr64
	pushq	%r12
	.cfi_def_cfa_offset 16
	.cfi_offset 12, -16
	pushq	%rbp
	.cfi_def_cfa_offset 24
	.cfi_offset 6, -24
	movq	%rdi, %rbp
	pushq	%rbx
	.cfi_def_cfa_offset 32
	.cfi_offset 3, -32
	movq	%rsi, %rbx
	subq	$16, %rsp
	.cfi_def_cfa_offset 48
	movq	%fs:40, %rax
	movq	%rax, 8(%rsp)
	xorl	%eax, %eax
	call	_ZN8opendnp311IMasterTask22ValidateSingleResponseERKNS_18APDUResponseHeaderE@PLT
	testb	%al, %al
	jne	.L16
.L26:
	xorl	%eax, %eax
.L15:
	movq	8(%rsp), %rdx
	subq	%fs:40, %rdx
	jne	.L27
	addq	$16, %rsp
	.cfi_remember_state
	.cfi_def_cfa_offset 32
	popq	%rbx
	.cfi_def_cfa_offset 24
	popq	%rbp
	.cfi_def_cfa_offset 16
	popq	%r12
	.cfi_def_cfa_offset 8
	ret
	.p2align 4,,10
	.p2align 3
.L16:
	.cfi_restore_state
	leaq	6(%rbx), %rdi
	movl	$7, %esi
	call	_ZNK8opendnp38IINField5IsSetENS_6IINBitE@PLT
	movl	%eax, %r8d
	movl	$2, %eax
	testb	%r8b, %r8b
	je	.L15
	addq	$16, %rbp
	leaq	4(%rsp), %r12
	movl	$2, 4(%rsp)
	movq	%r12, %rsi
	movq	%rbp, %rdi
	call	_ZNK7openpal6Logger9IsEnabledERKNS_10LogFiltersE@PLT
	testb	%al, %al
	je	.L26
	leaq	.LC1(%rip), %rcx
	leaq	.LC2(%rip), %rdx
	movq	%r12, %rsi
	movq	%rbp, %rdi
	movl	$2, 4(%rsp)
	call	_ZN7openpal6Logger3LogERKNS_10LogFiltersEPKcS5_@PLT
	jmp	.L26
.L27:
	call	__stack_chk_fail@PLT
	.cfi_endproc
.LFE3059:
	.size	_ZN8opendnp316ClearRestartTask15ProcessResponseERKNS_18APDUResponseHeaderERKN7openpal6RSliceE, .-_ZN8opendnp316ClearRestartTask15ProcessResponseERKNS_18APDUResponseHeaderERKN7openpal6RSliceE
	.align 2
	.p2align 4
	.globl	_ZN8opendnp316ClearRestartTask14OnTaskCompleteENS_14TaskCompletionEN7openpal18MonotonicTimestampE
	.type	_ZN8opendnp316ClearRestartTask14OnTaskCompleteENS_14TaskCompletionEN7openpal18MonotonicTimestampE, @function
_ZN8opendnp316ClearRestartTask14OnTaskCompleteENS_14TaskCompletionEN7openpal18MonotonicTimestampE:
.LFB3060:
	.cfi_startproc
	endbr64
	subq	$24, %rsp
	.cfi_def_cfa_offset 32
	movq	%rdx, 8(%rsp)
	cmpb	$2, %sil
	je	.L29
	cmpb	$7, %sil
	je	.L30
	cmpb	$1, %sil
	je	.L30
	call	_ZN7openpal18MonotonicTimestamp3MaxEv@PLT
	addq	$24, %rsp
	.cfi_remember_state
	.cfi_def_cfa_offset 8
	movq	%rax, %rdx
	xorl	%eax, %eax
	ret
	.p2align 4,,10
	.p2align 3
.L29:
	.cfi_restore_state
	leaq	88(%rdi), %rsi
	leaq	8(%rsp), %rdi
	call	_ZNK7openpal18MonotonicTimestamp3AddERKNS_12TimeDurationE@PLT
	addq	$24, %rsp
	.cfi_remember_state
	.cfi_def_cfa_offset 8
	movq	%rax, %rdx
	xorl	%eax, %eax
	ret
	.p2align 4,,10
	.p2align 3
.L30:
	.cfi_restore_state
	call	_ZN7openpal18MonotonicTimestamp3MaxEv@PLT
	addq	$24, %rsp
	.cfi_def_cfa_offset 8
	movq	%rax, %rdx
	movl	$1, %eax
	ret
	.cfi_endproc
.LFE3060:
	.size	_ZN8opendnp316ClearRestartTask14OnTaskCompleteENS_14TaskCompletionEN7openpal18MonotonicTimestampE, .-_ZN8opendnp316ClearRestartTask14OnTaskCompleteENS_14TaskCompletionEN7openpal18MonotonicTimestampE
	.section	.text._ZN7openpal6LoggerD2Ev,"axG",@progbits,_ZN7openpal6LoggerD5Ev,comdat
	.align 2
	.p2align 4
	.weak	_ZN7openpal6LoggerD2Ev
	.type	_ZN7openpal6LoggerD2Ev, @function
_ZN7openpal6LoggerD2Ev:
.LFB2070:
	.cfi_startproc
	endbr64
	pushq	%r12
	.cfi_def_cfa_offset 16
	.cfi_offset 12, -16
	pushq	%rbp
	.cfi_def_cfa_offset 24
	.cfi_offset 6, -24
	pushq	%rbx
	.cfi_def_cfa_offset 32
	.cfi_offset 3, -32
	movq	24(%rdi), %rbp
	movq	%rdi, %rbx
	testq	%rbp, %rbp
	je	.L36
	movq	__libc_single_threaded@GOTPCREL(%rip), %r12
	cmpb	$0, (%r12)
	je	.L37
	movl	8(%rbp), %eax
	leal	-1(%rax), %edx
	movl	%edx, 8(%rbp)
.L38:
	cmpl	$1, %eax
	je	.L50
.L36:
	movq	8(%rbx), %rbp
	testq	%rbp, %rbp
	je	.L34
	movq	__libc_single_threaded@GOTPCREL(%rip), %r12
	cmpb	$0, (%r12)
	je	.L44
	movl	8(%rbp), %eax
	leal	-1(%rax), %edx
	movl	%edx, 8(%rbp)
.L45:
	cmpl	$1, %eax
	je	.L51
.L34:
	popq	%rbx
	.cfi_remember_state
	.cfi_def_cfa_offset 24
	popq	%rbp
	.cfi_def_cfa_offset 16
	popq	%r12
	.cfi_def_cfa_offset 8
	ret
	.p2align 4,,10
	.p2align 3
.L50:
	.cfi_restore_state
	movq	0(%rbp), %rax
	movq	%rbp, %rdi
	call	*16(%rax)
	cmpb	$0, (%r12)
	je	.L40
	movl	12(%rbp), %eax
	leal	-1(%rax), %edx
	movl	%edx, 12(%rbp)
.L41:
	cmpl	$1, %eax
	jne	.L36
	movq	0(%rbp), %rax
	movq	%rbp, %rdi
	call	*24(%rax)
	jmp	.L36
	.p2align 4,,10
	.p2align 3
.L51:
	movq	0(%rbp), %rax
	movq	%rbp, %rdi
	call	*16(%rax)
	cmpb	$0, (%r12)
	je	.L47
	movl	12(%rbp), %eax
	leal	-1(%rax), %edx
	movl	%edx, 12(%rbp)
.L48:
	cmpl	$1, %eax
	jne	.L34
	movq	0(%rbp), %rax
	popq	%rbx
	.cfi_remember_state
	.cfi_def_cfa_offset 24
	movq	%rbp, %rdi
	popq	%rbp
	.cfi_def_cfa_offset 16
	popq	%r12
	.cfi_def_cfa_offset 8
	movq	24(%rax), %rax
	jmp	*%rax
	.p2align 4,,10
	.p2align 3
.L44:
	.cfi_restore_state
	movl	$-1, %eax
	lock xaddl	%eax, 8(%rbp)
	jmp	.L45
	.p2align 4,,10
	.p2align 3
.L37:
	movl	$-1, %eax
	lock xaddl	%eax, 8(%rbp)
	jmp	.L38
	.p2align 4,,10
	.p2align 3
.L40:
	movl	$-1, %eax
	lock xaddl	%eax, 12(%rbp)
	jmp	.L41
	.p2align 4,,10
	.p2align 3
.L47:
	movl	$-1, %eax
	lock xaddl	%eax, 12(%rbp)
	jmp	.L48
	.cfi_endproc
.LFE2070:
	.size	_ZN7openpal6LoggerD2Ev, .-_ZN7openpal6LoggerD2Ev
	.weak	_ZN7openpal6LoggerD1Ev
	.set	_ZN7openpal6LoggerD1Ev,_ZN7openpal6LoggerD2Ev
	.section	.text.unlikely,"ax",@progbits
	.align 2
.LCOLDB3:
	.text
.LHOTB3:
	.align 2
	.p2align 4
	.globl	_ZN8opendnp316ClearRestartTaskC2ERNS_18IMasterApplicationEN7openpal12TimeDurationENS3_6LoggerE
	.type	_ZN8opendnp316ClearRestartTaskC2ERNS_18IMasterApplicationEN7openpal12TimeDurationENS3_6LoggerE, @function
_ZN8opendnp316ClearRestartTaskC2ERNS_18IMasterApplicationEN7openpal12TimeDurationENS3_6LoggerE:
.LFB3056:
	.cfi_startproc
	.cfi_personality 0x9b,DW.ref.__gxx_personality_v0
	.cfi_lsda 0x1b,.LLSDA3056
	endbr64
	pushq	%r13
	.cfi_def_cfa_offset 16
	.cfi_offset 13, -16
	pushq	%r12
	.cfi_def_cfa_offset 24
	.cfi_offset 12, -24
	movq	%rdx, %r12
	pushq	%rbp
	.cfi_def_cfa_offset 32
	.cfi_offset 6, -32
	movq	%rsi, %rbp
	pushq	%rbx
	.cfi_def_cfa_offset 40
	.cfi_offset 3, -40
	movq	%rdi, %rbx
	subq	$56, %rsp
	.cfi_def_cfa_offset 96
	movdqu	(%rcx), %xmm0
	movq	%fs:40, %rax
	movq	%rax, 40(%rsp)
	movq	8(%rcx), %rax
	movaps	%xmm0, (%rsp)
	testq	%rax, %rax
	je	.L53
	movq	__libc_single_threaded@GOTPCREL(%rip), %rdx
	cmpb	$0, (%rdx)
	je	.L54
	addl	$1, 8(%rax)
.L53:
	movdqu	16(%rcx), %xmm1
	movaps	%xmm1, 16(%rsp)
	movq	24(%rsp), %rax
	testq	%rax, %rax
	je	.L55
	movq	__libc_single_threaded@GOTPCREL(%rip), %rdx
	cmpb	$0, (%rdx)
	je	.L56
	addl	$1, 8(%rax)
.L55:
	movq	%rsp, %r13
.LEHB0:
	call	_ZN7openpal18MonotonicTimestamp3MaxEv@PLT
	movq	%rax, %rdx
	movl	$4294967295, %r8d
	xorl	%r9d, %r9d
	movq	%r13, %rcx
	movq	%rbp, %rsi
	movq	%rbx, %rdi
	call	_ZN8opendnp311IMasterTaskC2ERNS_18IMasterApplicationEN7openpal18MonotonicTimestampENS3_6LoggerENS_10TaskConfigE@PLT
.LEHE0:
	movq	24(%rsp), %rbp
	testq	%rbp, %rbp
	je	.L58
	movq	__libc_single_threaded@GOTPCREL(%rip), %r13
	cmpb	$0, 0(%r13)
	je	.L59
	movl	8(%rbp), %eax
	leal	-1(%rax), %edx
	movl	%edx, 8(%rbp)
.L60:
	cmpl	$1, %eax
	je	.L82
.L58:
	movq	8(%rsp), %rbp
	testq	%rbp, %rbp
	je	.L65
	movq	__libc_single_threaded@GOTPCREL(%rip), %r13
	cmpb	$0, 0(%r13)
	je	.L66
	movl	8(%rbp), %eax
	leal	-1(%rax), %edx
	movl	%edx, 8(%rbp)
.L67:
	cmpl	$1, %eax
	je	.L83
.L65:
	movq	_ZTVN8opendnp316ClearRestartTaskE@GOTPCREL(%rip), %rax
	movq	%r12, 88(%rbx)
	addq	$16, %rax
	movq	%rax, (%rbx)
	movq	40(%rsp), %rax
	subq	%fs:40, %rax
	jne	.L84
	addq	$56, %rsp
	.cfi_remember_state
	.cfi_def_cfa_offset 40
	popq	%rbx
	.cfi_def_cfa_offset 32
	popq	%rbp
	.cfi_def_cfa_offset 24
	popq	%r12
	.cfi_def_cfa_offset 16
	popq	%r13
	.cfi_def_cfa_offset 8
	ret
	.p2align 4,,10
	.p2align 3
.L54:
	.cfi_restore_state
	lock addl	$1, 8(%rax)
	jmp	.L53
	.p2align 4,,10
	.p2align 3
.L56:
	lock addl	$1, 8(%rax)
	jmp	.L55
	.p2align 4,,10
	.p2align 3
.L82:
	movq	0(%rbp), %rax
	movq	%rbp, %rdi
	call	*16(%rax)
	cmpb	$0, 0(%r13)
	je	.L62
	movl	12(%rbp), %eax
	leal	-1(%rax), %edx
	movl	%edx, 12(%rbp)
.L63:
	cmpl	$1, %eax
	jne	.L58
	movq	0(%rbp), %rax
	movq	%rbp, %rdi
	call	*24(%rax)
	jmp	.L58
	.p2align 4,,10
	.p2align 3
.L83:
	movq	0(%rbp), %rax
	movq	%rbp, %rdi
	call	*16(%rax)
	cmpb	$0, 0(%r13)
	je	.L69
	movl	12(%rbp), %eax
	leal	-1(%rax), %edx
	movl	%edx, 12(%rbp)
.L70:
	cmpl	$1, %eax
	jne	.L65
	movq	0(%rbp), %rax
	movq	%rbp, %rdi
	call	*24(%rax)
	jmp	.L65
	.p2align 4,,10
	.p2align 3
.L59:
	movl	$-1, %eax
	lock xaddl	%eax, 8(%rbp)
	jmp	.L60
	.p2align 4,,10
	.p2align 3
.L66:
	movl	$-1, %eax
	lock xaddl	%eax, 8(%rbp)
	jmp	.L67
	.p2align 4,,10
	.p2align 3
.L62:
	movl	$-1, %eax
	lock xaddl	%eax, 12(%rbp)
	jmp	.L63
	.p2align 4,,10
	.p2align 3
.L69:
	movl	$-1, %eax
	lock xaddl	%eax, 12(%rbp)
	jmp	.L70
.L84:
	call	__stack_chk_fail@PLT
.L73:
	endbr64
	movq	%rax, %rbp
	jmp	.L71
	.globl	__gxx_personality_v0
	.section	.gcc_except_table,"a",@progbits
.LLSDA3056:
	.byte	0xff
	.byte	0xff
	.byte	0x1
	.uleb128 .LLSDACSE3056-.LLSDACSB3056
.LLSDACSB3056:
	.uleb128 .LEHB0-.LFB3056
	.uleb128 .LEHE0-.LEHB0
	.uleb128 .L73-.LFB3056
	.uleb128 0
.LLSDACSE3056:
	.text
	.cfi_endproc
	.section	.text.unlikely
	.cfi_startproc
	.cfi_personality 0x9b,DW.ref.__gxx_personality_v0
	.cfi_lsda 0x1b,.LLSDAC3056
	.type	_ZN8opendnp316ClearRestartTaskC2ERNS_18IMasterApplicationEN7openpal12TimeDurationENS3_6LoggerE.cold, @function
_ZN8opendnp316ClearRestartTaskC2ERNS_18IMasterApplicationEN7openpal12TimeDurationENS3_6LoggerE.cold:
.LFSB3056:
.L71:
	.cfi_def_cfa_offset 96
	.cfi_offset 3, -40
	.cfi_offset 6, -32
	.cfi_offset 12, -24
	.cfi_offset 13, -16
	movq	%r13, %rdi
	call	_ZN7openpal6LoggerD1Ev@PLT
	movq	%rbp, %rdi
.LEHB1:
	call	_Unwind_Resume@PLT
.LEHE1:
	.cfi_endproc
.LFE3056:
	.section	.gcc_except_table
.LLSDAC3056:
	.byte	0xff
	.byte	0xff
	.byte	0x1
	.uleb128 .LLSDACSEC3056-.LLSDACSBC3056
.LLSDACSBC3056:
	.uleb128 .LEHB1-.LCOLDB3
	.uleb128 .LEHE1-.LEHB1
	.uleb128 0
	.uleb128 0
.LLSDACSEC3056:
	.section	.text.unlikely
	.text
	.size	_ZN8opendnp316ClearRestartTaskC2ERNS_18IMasterApplicationEN7openpal12TimeDurationENS3_6LoggerE, .-_ZN8opendnp316ClearRestartTaskC2ERNS_18IMasterApplicationEN7openpal12TimeDurationENS3_6LoggerE
	.section	.text.unlikely
	.size	_ZN8opendnp316ClearRestartTaskC2ERNS_18IMasterApplicationEN7openpal12TimeDurationENS3_6LoggerE.cold, .-_ZN8opendnp316ClearRestartTaskC2ERNS_18IMasterApplicationEN7openpal12TimeDurationENS3_6LoggerE.cold
.LCOLDE3:
	.text
.LHOTE3:
	.globl	_ZN8opendnp316ClearRestartTaskC1ERNS_18IMasterApplicationEN7openpal12TimeDurationENS3_6LoggerE
	.set	_ZN8opendnp316ClearRestartTaskC1ERNS_18IMasterApplicationEN7openpal12TimeDurationENS3_6LoggerE,_ZN8opendnp316ClearRestartTaskC2ERNS_18IMasterApplicationEN7openpal12TimeDurationENS3_6LoggerE
	.section	.text.startup,"ax",@progbits
	.p2align 4
	.type	_GLOBAL__sub_I_ClearRestartTask.cpp, @function
_GLOBAL__sub_I_ClearRestartTask.cpp:
.LFB3759:
	.cfi_startproc
	endbr64
	movl	$5000, %edi
	jmp	_ZN7openpal12TimeDuration12MillisecondsEl@PLT
	.cfi_endproc
.LFE3759:
	.size	_GLOBAL__sub_I_ClearRestartTask.cpp, .-_GLOBAL__sub_I_ClearRestartTask.cpp
	.section	.init_array,"aw"
	.align 8
	.quad	_GLOBAL__sub_I_ClearRestartTask.cpp
	.weak	_ZTSN8opendnp316ClearRestartTaskE
	.section	.rodata._ZTSN8opendnp316ClearRestartTaskE,"aG",@progbits,_ZTSN8opendnp316ClearRestartTaskE,comdat
	.align 16
	.type	_ZTSN8opendnp316ClearRestartTaskE, @object
	.size	_ZTSN8opendnp316ClearRestartTaskE, 30
_ZTSN8opendnp316ClearRestartTaskE:
	.string	"N8opendnp316ClearRestartTaskE"
	.weak	_ZTIN8opendnp316ClearRestartTaskE
	.section	.data.rel.ro._ZTIN8opendnp316ClearRestartTaskE,"awG",@progbits,_ZTIN8opendnp316ClearRestartTaskE,comdat
	.align 8
	.type	_ZTIN8opendnp316ClearRestartTaskE, @object
	.size	_ZTIN8opendnp316ClearRestartTaskE, 24
_ZTIN8opendnp316ClearRestartTaskE:
	.quad	_ZTVN10__cxxabiv120__si_class_type_infoE+16
	.quad	_ZTSN8opendnp316ClearRestartTaskE
	.quad	_ZTIN8opendnp311IMasterTaskE
	.weak	_ZTVN8opendnp316ClearRestartTaskE
	.section	.data.rel.ro._ZTVN8opendnp316ClearRestartTaskE,"awG",@progbits,_ZTVN8opendnp316ClearRestartTaskE,comdat
	.align 8
	.type	_ZTVN8opendnp316ClearRestartTaskE, @object
	.size	_ZTVN8opendnp316ClearRestartTaskE, 120
_ZTVN8opendnp316ClearRestartTaskE:
	.quad	0
	.quad	_ZTIN8opendnp316ClearRestartTaskE
	.quad	_ZN8opendnp316ClearRestartTaskD1Ev
	.quad	_ZN8opendnp316ClearRestartTaskD0Ev
	.quad	_ZNK8opendnp311IMasterTask10IsAuthTaskEv
	.quad	_ZNK8opendnp316ClearRestartTask4NameEv
	.quad	_ZNK8opendnp316ClearRestartTask8PriorityEv
	.quad	_ZNK8opendnp316ClearRestartTask19BlocksLowerPriorityEv
	.quad	_ZNK8opendnp316ClearRestartTask11IsRecurringEv
	.quad	_ZN8opendnp316ClearRestartTask12BuildRequestERNS_11APDURequestEh
	.quad	_ZN8opendnp311IMasterTask10InitializeEv
	.quad	_ZN8opendnp316ClearRestartTask15ProcessResponseERKNS_18APDUResponseHeaderERKN7openpal6RSliceE
	.quad	_ZN8opendnp316ClearRestartTask14OnTaskCompleteENS_14TaskCompletionEN7openpal18MonotonicTimestampE
	.quad	_ZNK8opendnp316ClearRestartTask9IsEnabledEv
	.quad	_ZNK8opendnp316ClearRestartTask11GetTaskTypeEv
	.hidden	DW.ref.__gxx_personality_v0
	.weak	DW.ref.__gxx_personality_v0
	.section	.data.rel.local.DW.ref.__gxx_personality_v0,"awG",@progbits,DW.ref.__gxx_personality_v0,comdat
	.align 8
	.type	DW.ref.__gxx_personality_v0, @object
	.size	DW.ref.__gxx_personality_v0, 8
DW.ref.__gxx_personality_v0:
	.quad	__gxx_personality_v0
	.ident	"GCC: (Ubuntu 11.4.0-1ubuntu1~22.04) 11.4.0"
	.section	.note.GNU-stack,"",@progbits
	.section	.note.gnu.property,"a"
	.align 8
	.long	1f - 0f
	.long	4f - 1f
	.long	5
0:
	.string	"GNU"
1:
	.align 8
	.long	0xc0000002
	.long	3f - 2f
2:
	.long	0x3
3:
	.align 8
4:
