	.file	"CommandTask.cpp"
	.text
	.section	.text._ZNK8opendnp311IMasterTask10IsAuthTaskEv,"axG",@progbits,_ZNK8opendnp311IMasterTask10IsAuthTaskEv,comdat
	.align 2
	.p2align 4
	.weak	_ZNK8opendnp311IMasterTask10IsAuthTaskEv
	.type	_ZNK8opendnp311IMasterTask10IsAuthTaskEv, @function
_ZNK8opendnp311IMasterTask10IsAuthTaskEv:
.LFB2455:
	.cfi_startproc
	endbr64
	xorl	%eax, %eax
	ret
	.cfi_endproc
.LFE2455:
	.size	_ZNK8opendnp311IMasterTask10IsAuthTaskEv, .-_ZNK8opendnp311IMasterTask10IsAuthTaskEv
	.section	.rodata._ZNK8opendnp311CommandTask4NameEv.str1.1,"aMS",@progbits,1
.LC0:
	.string	"Command Task"
	.section	.text._ZNK8opendnp311CommandTask4NameEv,"axG",@progbits,_ZNK8opendnp311CommandTask4NameEv,comdat
	.align 2
	.p2align 4
	.weak	_ZNK8opendnp311CommandTask4NameEv
	.type	_ZNK8opendnp311CommandTask4NameEv, @function
_ZNK8opendnp311CommandTask4NameEv:
.LFB2995:
	.cfi_startproc
	endbr64
	leaq	.LC0(%rip), %rax
	ret
	.cfi_endproc
.LFE2995:
	.size	_ZNK8opendnp311CommandTask4NameEv, .-_ZNK8opendnp311CommandTask4NameEv
	.section	.text._ZNK8opendnp311CommandTask8PriorityEv,"axG",@progbits,_ZNK8opendnp311CommandTask8PriorityEv,comdat
	.align 2
	.p2align 4
	.weak	_ZNK8opendnp311CommandTask8PriorityEv
	.type	_ZNK8opendnp311CommandTask8PriorityEv, @function
_ZNK8opendnp311CommandTask8PriorityEv:
.LFB2996:
	.cfi_startproc
	endbr64
	movl	$100, %eax
	ret
	.cfi_endproc
.LFE2996:
	.size	_ZNK8opendnp311CommandTask8PriorityEv, .-_ZNK8opendnp311CommandTask8PriorityEv
	.section	.text._ZNK8opendnp311CommandTask19BlocksLowerPriorityEv,"axG",@progbits,_ZNK8opendnp311CommandTask19BlocksLowerPriorityEv,comdat
	.align 2
	.p2align 4
	.weak	_ZNK8opendnp311CommandTask19BlocksLowerPriorityEv
	.type	_ZNK8opendnp311CommandTask19BlocksLowerPriorityEv, @function
_ZNK8opendnp311CommandTask19BlocksLowerPriorityEv:
.LFB2997:
	.cfi_startproc
	endbr64
	xorl	%eax, %eax
	ret
	.cfi_endproc
.LFE2997:
	.size	_ZNK8opendnp311CommandTask19BlocksLowerPriorityEv, .-_ZNK8opendnp311CommandTask19BlocksLowerPriorityEv
	.section	.text._ZNK8opendnp311CommandTask11IsRecurringEv,"axG",@progbits,_ZNK8opendnp311CommandTask11IsRecurringEv,comdat
	.align 2
	.p2align 4
	.weak	_ZNK8opendnp311CommandTask11IsRecurringEv
	.type	_ZNK8opendnp311CommandTask11IsRecurringEv, @function
_ZNK8opendnp311CommandTask11IsRecurringEv:
.LFB2998:
	.cfi_startproc
	endbr64
	xorl	%eax, %eax
	ret
	.cfi_endproc
.LFE2998:
	.size	_ZNK8opendnp311CommandTask11IsRecurringEv, .-_ZNK8opendnp311CommandTask11IsRecurringEv
	.section	.text._ZNK8opendnp311CommandTask9IsEnabledEv,"axG",@progbits,_ZNK8opendnp311CommandTask9IsEnabledEv,comdat
	.align 2
	.p2align 4
	.weak	_ZNK8opendnp311CommandTask9IsEnabledEv
	.type	_ZNK8opendnp311CommandTask9IsEnabledEv, @function
_ZNK8opendnp311CommandTask9IsEnabledEv:
.LFB2999:
	.cfi_startproc
	endbr64
	movl	$1, %eax
	ret
	.cfi_endproc
.LFE2999:
	.size	_ZNK8opendnp311CommandTask9IsEnabledEv, .-_ZNK8opendnp311CommandTask9IsEnabledEv
	.section	.text._ZNK8opendnp311CommandTask11GetTaskTypeEv,"axG",@progbits,_ZNK8opendnp311CommandTask11GetTaskTypeEv,comdat
	.align 2
	.p2align 4
	.weak	_ZNK8opendnp311CommandTask11GetTaskTypeEv
	.type	_ZNK8opendnp311CommandTask11GetTaskTypeEv, @function
_ZNK8opendnp311CommandTask11GetTaskTypeEv:
.LFB3000:
	.cfi_startproc
	endbr64
	movl	$7, %eax
	ret
	.cfi_endproc
.LFE3000:
	.size	_ZNK8opendnp311CommandTask11GetTaskTypeEv, .-_ZNK8opendnp311CommandTask11GetTaskTypeEv
	.text
	.align 2
	.p2align 4
	.globl	_ZN8opendnp311CommandTask10InitializeEv
	.type	_ZN8opendnp311CommandTask10InitializeEv, @function
_ZN8opendnp311CommandTask10InitializeEv:
.LFB3206:
	.cfi_startproc
	endbr64
	movb	$127, 168(%rdi)
	ret
	.cfi_endproc
.LFE3206:
	.size	_ZN8opendnp311CommandTask10InitializeEv, .-_ZN8opendnp311CommandTask10InitializeEv
	.section	.text._ZNSt23_Sp_counted_ptr_inplaceIN8opendnp311CommandTaskESaIS1_ELN9__gnu_cxx12_Lock_policyE2EED2Ev,"axG",@progbits,_ZNSt23_Sp_counted_ptr_inplaceIN8opendnp311CommandTaskESaIS1_ELN9__gnu_cxx12_Lock_policyE2EED5Ev,comdat
	.align 2
	.p2align 4
	.weak	_ZNSt23_Sp_counted_ptr_inplaceIN8opendnp311CommandTaskESaIS1_ELN9__gnu_cxx12_Lock_policyE2EED2Ev
	.type	_ZNSt23_Sp_counted_ptr_inplaceIN8opendnp311CommandTaskESaIS1_ELN9__gnu_cxx12_Lock_policyE2EED2Ev, @function
_ZNSt23_Sp_counted_ptr_inplaceIN8opendnp311CommandTaskESaIS1_ELN9__gnu_cxx12_Lock_policyE2EED2Ev:
.LFB4166:
	.cfi_startproc
	endbr64
	ret
	.cfi_endproc
.LFE4166:
	.size	_ZNSt23_Sp_counted_ptr_inplaceIN8opendnp311CommandTaskESaIS1_ELN9__gnu_cxx12_Lock_policyE2EED2Ev, .-_ZNSt23_Sp_counted_ptr_inplaceIN8opendnp311CommandTaskESaIS1_ELN9__gnu_cxx12_Lock_policyE2EED2Ev
	.weak	_ZNSt23_Sp_counted_ptr_inplaceIN8opendnp311CommandTaskESaIS1_ELN9__gnu_cxx12_Lock_policyE2EED1Ev
	.set	_ZNSt23_Sp_counted_ptr_inplaceIN8opendnp311CommandTaskESaIS1_ELN9__gnu_cxx12_Lock_policyE2EED1Ev,_ZNSt23_Sp_counted_ptr_inplaceIN8opendnp311CommandTaskESaIS1_ELN9__gnu_cxx12_Lock_policyE2EED2Ev
	.section	.text._ZNSt23_Sp_counted_ptr_inplaceIN8opendnp311CommandTaskESaIS1_ELN9__gnu_cxx12_Lock_policyE2EE10_M_disposeEv,"axG",@progbits,_ZNSt23_Sp_counted_ptr_inplaceIN8opendnp311CommandTaskESaIS1_ELN9__gnu_cxx12_Lock_policyE2EE10_M_disposeEv,comdat
	.align 2
	.p2align 4
	.weak	_ZNSt23_Sp_counted_ptr_inplaceIN8opendnp311CommandTaskESaIS1_ELN9__gnu_cxx12_Lock_policyE2EE10_M_disposeEv
	.type	_ZNSt23_Sp_counted_ptr_inplaceIN8opendnp311CommandTaskESaIS1_ELN9__gnu_cxx12_Lock_policyE2EE10_M_disposeEv, @function
_ZNSt23_Sp_counted_ptr_inplaceIN8opendnp311CommandTaskESaIS1_ELN9__gnu_cxx12_Lock_policyE2EE10_M_disposeEv:
.LFB4169:
	.cfi_startproc
	endbr64
	movq	16(%rdi), %rax
	leaq	16(%rdi), %r8
	movq	%r8, %rdi
	movq	(%rax), %rax
	jmp	*%rax
	.cfi_endproc
.LFE4169:
	.size	_ZNSt23_Sp_counted_ptr_inplaceIN8opendnp311CommandTaskESaIS1_ELN9__gnu_cxx12_Lock_policyE2EE10_M_disposeEv, .-_ZNSt23_Sp_counted_ptr_inplaceIN8opendnp311CommandTaskESaIS1_ELN9__gnu_cxx12_Lock_policyE2EE10_M_disposeEv
	.section	.text._ZNSt23_Sp_counted_ptr_inplaceIN8opendnp311CommandTaskESaIS1_ELN9__gnu_cxx12_Lock_policyE2EE14_M_get_deleterERKSt9type_info,"axG",@progbits,_ZNSt23_Sp_counted_ptr_inplaceIN8opendnp311CommandTaskESaIS1_ELN9__gnu_cxx12_Lock_policyE2EE14_M_get_deleterERKSt9type_info,comdat
	.align 2
	.p2align 4
	.weak	_ZNSt23_Sp_counted_ptr_inplaceIN8opendnp311CommandTaskESaIS1_ELN9__gnu_cxx12_Lock_policyE2EE14_M_get_deleterERKSt9type_info
	.type	_ZNSt23_Sp_counted_ptr_inplaceIN8opendnp311CommandTaskESaIS1_ELN9__gnu_cxx12_Lock_policyE2EE14_M_get_deleterERKSt9type_info, @function
_ZNSt23_Sp_counted_ptr_inplaceIN8opendnp311CommandTaskESaIS1_ELN9__gnu_cxx12_Lock_policyE2EE14_M_get_deleterERKSt9type_info:
.LFB4171:
	.cfi_startproc
	endbr64
	cmpq	_ZZNSt19_Sp_make_shared_tag5_S_tiEvE5__tag@GOTPCREL(%rip), %rsi
	pushq	%r12
	.cfi_def_cfa_offset 16
	.cfi_offset 12, -16
	leaq	16(%rdi), %r12
	je	.L12
	movq	8(%rsi), %rdi
	movq	_ZTSSt19_Sp_make_shared_tag@GOTPCREL(%rip), %rsi
	cmpq	%rsi, %rdi
	je	.L12
	cmpb	$42, (%rdi)
	je	.L14
	call	strcmp@PLT
	testl	%eax, %eax
	movl	$0, %eax
	cmovne	%rax, %r12
.L12:
	movq	%r12, %rax
	popq	%r12
	.cfi_remember_state
	.cfi_def_cfa_offset 8
	ret
	.p2align 4,,10
	.p2align 3
.L14:
	.cfi_restore_state
	xorl	%r12d, %r12d
	movq	%r12, %rax
	popq	%r12
	.cfi_def_cfa_offset 8
	ret
	.cfi_endproc
.LFE4171:
	.size	_ZNSt23_Sp_counted_ptr_inplaceIN8opendnp311CommandTaskESaIS1_ELN9__gnu_cxx12_Lock_policyE2EE14_M_get_deleterERKSt9type_info, .-_ZNSt23_Sp_counted_ptr_inplaceIN8opendnp311CommandTaskESaIS1_ELN9__gnu_cxx12_Lock_policyE2EE14_M_get_deleterERKSt9type_info
	.section	.text._ZNSt23_Sp_counted_ptr_inplaceIN8opendnp311CommandTaskESaIS1_ELN9__gnu_cxx12_Lock_policyE2EED0Ev,"axG",@progbits,_ZNSt23_Sp_counted_ptr_inplaceIN8opendnp311CommandTaskESaIS1_ELN9__gnu_cxx12_Lock_policyE2EED5Ev,comdat
	.align 2
	.p2align 4
	.weak	_ZNSt23_Sp_counted_ptr_inplaceIN8opendnp311CommandTaskESaIS1_ELN9__gnu_cxx12_Lock_policyE2EED0Ev
	.type	_ZNSt23_Sp_counted_ptr_inplaceIN8opendnp311CommandTaskESaIS1_ELN9__gnu_cxx12_Lock_policyE2EED0Ev, @function
_ZNSt23_Sp_counted_ptr_inplaceIN8opendnp311CommandTaskESaIS1_ELN9__gnu_cxx12_Lock_policyE2EED0Ev:
.LFB4168:
	.cfi_startproc
	endbr64
	movl	$248, %esi
	jmp	_ZdlPvm@PLT
	.cfi_endproc
.LFE4168:
	.size	_ZNSt23_Sp_counted_ptr_inplaceIN8opendnp311CommandTaskESaIS1_ELN9__gnu_cxx12_Lock_policyE2EED0Ev, .-_ZNSt23_Sp_counted_ptr_inplaceIN8opendnp311CommandTaskESaIS1_ELN9__gnu_cxx12_Lock_policyE2EED0Ev
	.section	.text._ZNSt23_Sp_counted_ptr_inplaceIN8opendnp311CommandTaskESaIS1_ELN9__gnu_cxx12_Lock_policyE2EE10_M_destroyEv,"axG",@progbits,_ZNSt23_Sp_counted_ptr_inplaceIN8opendnp311CommandTaskESaIS1_ELN9__gnu_cxx12_Lock_policyE2EE10_M_destroyEv,comdat
	.align 2
	.p2align 4
	.weak	_ZNSt23_Sp_counted_ptr_inplaceIN8opendnp311CommandTaskESaIS1_ELN9__gnu_cxx12_Lock_policyE2EE10_M_destroyEv
	.type	_ZNSt23_Sp_counted_ptr_inplaceIN8opendnp311CommandTaskESaIS1_ELN9__gnu_cxx12_Lock_policyE2EE10_M_destroyEv, @function
_ZNSt23_Sp_counted_ptr_inplaceIN8opendnp311CommandTaskESaIS1_ELN9__gnu_cxx12_Lock_policyE2EE10_M_destroyEv:
.LFB4170:
	.cfi_startproc
	endbr64
	movl	$248, %esi
	jmp	_ZdlPvm@PLT
	.cfi_endproc
.LFE4170:
	.size	_ZNSt23_Sp_counted_ptr_inplaceIN8opendnp311CommandTaskESaIS1_ELN9__gnu_cxx12_Lock_policyE2EE10_M_destroyEv, .-_ZNSt23_Sp_counted_ptr_inplaceIN8opendnp311CommandTaskESaIS1_ELN9__gnu_cxx12_Lock_policyE2EE10_M_destroyEv
	.text
	.align 2
	.p2align 4
	.globl	_ZN8opendnp311CommandTask14OnTaskCompleteENS_14TaskCompletionEN7openpal18MonotonicTimestampE
	.type	_ZN8opendnp311CommandTask14OnTaskCompleteENS_14TaskCompletionEN7openpal18MonotonicTimestampE, @function
_ZN8opendnp311CommandTask14OnTaskCompleteENS_14TaskCompletionEN7openpal18MonotonicTimestampE:
.LFB3205:
	.cfi_startproc
	endbr64
	leaq	176(%rdi), %rdx
	subq	$8, %rsp
	.cfi_def_cfa_offset 16
	addq	$208, %rdi
	call	_ZN8opendnp313CommandSetOps14InvokeCallbackERKNS_10CommandSetENS_14TaskCompletionERSt8functionIFvRKNS_18ICommandTaskResultEEE@PLT
	call	_ZN7openpal18MonotonicTimestamp3MaxEv@PLT
	addq	$8, %rsp
	.cfi_def_cfa_offset 8
	movq	%rax, %rdx
	xorl	%eax, %eax
	ret
	.cfi_endproc
.LFE3205:
	.size	_ZN8opendnp311CommandTask14OnTaskCompleteENS_14TaskCompletionEN7openpal18MonotonicTimestampE, .-_ZN8opendnp311CommandTask14OnTaskCompleteENS_14TaskCompletionEN7openpal18MonotonicTimestampE
	.align 2
	.p2align 4
	.globl	_ZN8opendnp311CommandTask12BuildRequestERNS_11APDURequestEh
	.type	_ZN8opendnp311CommandTask12BuildRequestERNS_11APDURequestEh, @function
_ZN8opendnp311CommandTask12BuildRequestERNS_11APDURequestEh:
.LFB3203:
	.cfi_startproc
	endbr64
	pushq	%r12
	.cfi_def_cfa_offset 16
	.cfi_offset 12, -16
	movl	%edx, %r12d
	pushq	%rbp
	.cfi_def_cfa_offset 24
	.cfi_offset 6, -24
	pushq	%rbx
	.cfi_def_cfa_offset 32
	.cfi_offset 3, -32
	subq	$64, %rsp
	.cfi_def_cfa_offset 96
	movq	104(%rdi), %rdx
	movq	%fs:40, %rax
	movq	%rax, 56(%rsp)
	xorl	%eax, %eax
	cmpq	136(%rdi), %rdx
	je	.L21
	movq	%rsi, %rbp
	movzbl	(%rdx), %esi
	movq	%rdi, %rbx
	movq	%rbp, %rdi
	call	_ZN8opendnp311APDUWrapper11SetFunctionENS_12FunctionCodeE@PLT
	movq	120(%rbx), %rcx
	movq	104(%rbx), %rax
	leaq	-1(%rcx), %rdx
	cmpq	%rdx, %rax
	je	.L23
	addq	$1, %rax
.L24:
	movq	%rax, 104(%rbx)
	movzbl	%r12b, %edi
	leaq	16(%rsp), %r12
	call	_ZN8opendnp315AppControlField7RequestEh@PLT
	movq	%rbp, %rdi
	movabsq	$1099511627775, %rdx
	andq	%rdx, %rax
	movq	%rax, %rsi
	call	_ZN8opendnp311APDUWrapper10SetControlENS_15AppControlFieldE@PLT
	movq	%rbp, %rsi
	movq	%r12, %rdi
	call	_ZN8opendnp311APDUWrapper9GetWriterEv@PLT
	leaq	208(%rbx), %rdi
	movq	%r12, %rsi
	call	_ZN8opendnp313CommandSetOps5WriteERKNS_10CommandSetERNS_12HeaderWriterE@PLT
.L21:
	movq	56(%rsp), %rdx
	subq	%fs:40, %rdx
	jne	.L28
	addq	$64, %rsp
	.cfi_remember_state
	.cfi_def_cfa_offset 32
	popq	%rbx
	.cfi_def_cfa_offset 24
	popq	%rbp
	.cfi_def_cfa_offset 16
	popq	%r12
	.cfi_def_cfa_offset 8
	ret
	.p2align 4,,10
	.p2align 3
.L23:
	.cfi_restore_state
	movq	112(%rbx), %rdi
	movl	$512, %esi
	call	_ZdlPvm@PLT
	movq	128(%rbx), %rax
	leaq	8(%rax), %rdx
	movq	8(%rax), %rax
	movq	%rdx, 128(%rbx)
	leaq	512(%rax), %rdx
	movq	%rax, %xmm0
	movq	%rdx, %xmm1
	punpcklqdq	%xmm1, %xmm0
	movups	%xmm0, 112(%rbx)
	jmp	.L24
.L28:
	call	__stack_chk_fail@PLT
	.cfi_endproc
.LFE3203:
	.size	_ZN8opendnp311CommandTask12BuildRequestERNS_11APDURequestEh, .-_ZN8opendnp311CommandTask12BuildRequestERNS_11APDURequestEh
	.section	.text._ZN8opendnp311CommandTaskD2Ev,"axG",@progbits,_ZN8opendnp311CommandTaskD5Ev,comdat
	.align 2
	.p2align 4
	.weak	_ZN8opendnp311CommandTaskD2Ev
	.type	_ZN8opendnp311CommandTaskD2Ev, @function
_ZN8opendnp311CommandTaskD2Ev:
.LFB4146:
	.cfi_startproc
	.cfi_personality 0x9b,DW.ref.__gxx_personality_v0
	.cfi_lsda 0x1b,.LLSDA4146
	endbr64
	movq	_ZTVN8opendnp311CommandTaskE@GOTPCREL(%rip), %rax
	pushq	%r12
	.cfi_def_cfa_offset 16
	.cfi_offset 12, -16
	pushq	%rbp
	.cfi_def_cfa_offset 24
	.cfi_offset 6, -24
	movq	%rdi, %rbp
	addq	$208, %rdi
	addq	$16, %rax
	pushq	%rbx
	.cfi_def_cfa_offset 32
	.cfi_offset 3, -32
	movq	%rax, -208(%rdi)
	call	_ZN8opendnp310CommandSetD1Ev@PLT
	movq	192(%rbp), %rax
	testq	%rax, %rax
	je	.L30
	leaq	176(%rbp), %rdi
	movl	$3, %edx
	movq	%rdi, %rsi
	call	*%rax
.L30:
	movq	88(%rbp), %rdi
	testq	%rdi, %rdi
	je	.L31
	movq	160(%rbp), %rax
	movq	128(%rbp), %rbx
	leaq	8(%rax), %r12
	cmpq	%rbx, %r12
	jbe	.L32
	.p2align 4,,10
	.p2align 3
.L33:
	movq	(%rbx), %rdi
	movl	$512, %esi
	addq	$8, %rbx
	call	_ZdlPvm@PLT
	cmpq	%rbx, %r12
	ja	.L33
	movq	88(%rbp), %rdi
.L32:
	movq	96(%rbp), %rax
	leaq	0(,%rax,8), %rsi
	call	_ZdlPvm@PLT
.L31:
	popq	%rbx
	.cfi_def_cfa_offset 24
	movq	%rbp, %rdi
	popq	%rbp
	.cfi_def_cfa_offset 16
	popq	%r12
	.cfi_def_cfa_offset 8
	jmp	_ZN8opendnp311IMasterTaskD2Ev@PLT
	.cfi_endproc
.LFE4146:
	.globl	__gxx_personality_v0
	.section	.gcc_except_table._ZN8opendnp311CommandTaskD2Ev,"aG",@progbits,_ZN8opendnp311CommandTaskD5Ev,comdat
.LLSDA4146:
	.byte	0xff
	.byte	0xff
	.byte	0x1
	.uleb128 .LLSDACSE4146-.LLSDACSB4146
.LLSDACSB4146:
.LLSDACSE4146:
	.section	.text._ZN8opendnp311CommandTaskD2Ev,"axG",@progbits,_ZN8opendnp311CommandTaskD5Ev,comdat
	.size	_ZN8opendnp311CommandTaskD2Ev, .-_ZN8opendnp311CommandTaskD2Ev
	.weak	_ZN8opendnp311CommandTaskD1Ev
	.set	_ZN8opendnp311CommandTaskD1Ev,_ZN8opendnp311CommandTaskD2Ev
	.section	.text._ZN8opendnp311CommandTaskD0Ev,"axG",@progbits,_ZN8opendnp311CommandTaskD5Ev,comdat
	.align 2
	.p2align 4
	.weak	_ZN8opendnp311CommandTaskD0Ev
	.type	_ZN8opendnp311CommandTaskD0Ev, @function
_ZN8opendnp311CommandTaskD0Ev:
.LFB4148:
	.cfi_startproc
	.cfi_personality 0x9b,DW.ref.__gxx_personality_v0
	.cfi_lsda 0x1b,.LLSDA4148
	endbr64
	movq	_ZTVN8opendnp311CommandTaskE@GOTPCREL(%rip), %rax
	pushq	%r12
	.cfi_def_cfa_offset 16
	.cfi_offset 12, -16
	pushq	%rbp
	.cfi_def_cfa_offset 24
	.cfi_offset 6, -24
	movq	%rdi, %rbp
	addq	$208, %rdi
	addq	$16, %rax
	pushq	%rbx
	.cfi_def_cfa_offset 32
	.cfi_offset 3, -32
	movq	%rax, -208(%rdi)
	call	_ZN8opendnp310CommandSetD1Ev@PLT
	movq	192(%rbp), %rax
	testq	%rax, %rax
	je	.L43
	leaq	176(%rbp), %rdi
	movl	$3, %edx
	movq	%rdi, %rsi
	call	*%rax
.L43:
	movq	88(%rbp), %rdi
	testq	%rdi, %rdi
	je	.L44
	movq	160(%rbp), %rax
	movq	128(%rbp), %rbx
	leaq	8(%rax), %r12
	cmpq	%rbx, %r12
	jbe	.L45
	.p2align 4,,10
	.p2align 3
.L46:
	movq	(%rbx), %rdi
	movl	$512, %esi
	addq	$8, %rbx
	call	_ZdlPvm@PLT
	cmpq	%rbx, %r12
	ja	.L46
	movq	88(%rbp), %rdi
.L45:
	movq	96(%rbp), %rax
	leaq	0(,%rax,8), %rsi
	call	_ZdlPvm@PLT
.L44:
	movq	%rbp, %rdi
	call	_ZN8opendnp311IMasterTaskD2Ev@PLT
	popq	%rbx
	.cfi_def_cfa_offset 24
	movq	%rbp, %rdi
	movl	$232, %esi
	popq	%rbp
	.cfi_def_cfa_offset 16
	popq	%r12
	.cfi_def_cfa_offset 8
	jmp	_ZdlPvm@PLT
	.cfi_endproc
.LFE4148:
	.section	.gcc_except_table._ZN8opendnp311CommandTaskD0Ev,"aG",@progbits,_ZN8opendnp311CommandTaskD5Ev,comdat
.LLSDA4148:
	.byte	0xff
	.byte	0xff
	.byte	0x1
	.uleb128 .LLSDACSE4148-.LLSDACSB4148
.LLSDACSB4148:
.LLSDACSE4148:
	.section	.text._ZN8opendnp311CommandTaskD0Ev,"axG",@progbits,_ZN8opendnp311CommandTaskD5Ev,comdat
	.size	_ZN8opendnp311CommandTaskD0Ev, .-_ZN8opendnp311CommandTaskD0Ev
	.section	.text._ZN7openpal6LoggerD2Ev,"axG",@progbits,_ZN7openpal6LoggerD5Ev,comdat
	.align 2
	.p2align 4
	.weak	_ZN7openpal6LoggerD2Ev
	.type	_ZN7openpal6LoggerD2Ev, @function
_ZN7openpal6LoggerD2Ev:
.LFB2070:
	.cfi_startproc
	endbr64
	pushq	%r12
	.cfi_def_cfa_offset 16
	.cfi_offset 12, -16
	pushq	%rbp
	.cfi_def_cfa_offset 24
	.cfi_offset 6, -24
	pushq	%rbx
	.cfi_def_cfa_offset 32
	.cfi_offset 3, -32
	movq	24(%rdi), %rbp
	movq	%rdi, %rbx
	testq	%rbp, %rbp
	je	.L57
	movq	__libc_single_threaded@GOTPCREL(%rip), %r12
	cmpb	$0, (%r12)
	je	.L58
	movl	8(%rbp), %eax
	leal	-1(%rax), %edx
	movl	%edx, 8(%rbp)
.L59:
	cmpl	$1, %eax
	je	.L71
.L57:
	movq	8(%rbx), %rbp
	testq	%rbp, %rbp
	je	.L55
	movq	__libc_single_threaded@GOTPCREL(%rip), %r12
	cmpb	$0, (%r12)
	je	.L65
	movl	8(%rbp), %eax
	leal	-1(%rax), %edx
	movl	%edx, 8(%rbp)
.L66:
	cmpl	$1, %eax
	je	.L72
.L55:
	popq	%rbx
	.cfi_remember_state
	.cfi_def_cfa_offset 24
	popq	%rbp
	.cfi_def_cfa_offset 16
	popq	%r12
	.cfi_def_cfa_offset 8
	ret
	.p2align 4,,10
	.p2align 3
.L71:
	.cfi_restore_state
	movq	0(%rbp), %rax
	movq	%rbp, %rdi
	call	*16(%rax)
	cmpb	$0, (%r12)
	je	.L61
	movl	12(%rbp), %eax
	leal	-1(%rax), %edx
	movl	%edx, 12(%rbp)
.L62:
	cmpl	$1, %eax
	jne	.L57
	movq	0(%rbp), %rax
	movq	%rbp, %rdi
	call	*24(%rax)
	jmp	.L57
	.p2align 4,,10
	.p2align 3
.L72:
	movq	0(%rbp), %rax
	movq	%rbp, %rdi
	call	*16(%rax)
	cmpb	$0, (%r12)
	je	.L68
	movl	12(%rbp), %eax
	leal	-1(%rax), %edx
	movl	%edx, 12(%rbp)
.L69:
	cmpl	$1, %eax
	jne	.L55
	movq	0(%rbp), %rax
	popq	%rbx
	.cfi_remember_state
	.cfi_def_cfa_offset 24
	movq	%rbp, %rdi
	popq	%rbp
	.cfi_def_cfa_offset 16
	popq	%r12
	.cfi_def_cfa_offset 8
	movq	24(%rax), %rax
	jmp	*%rax
	.p2align 4,,10
	.p2align 3
.L65:
	.cfi_restore_state
	movl	$-1, %eax
	lock xaddl	%eax, 8(%rbp)
	jmp	.L66
	.p2align 4,,10
	.p2align 3
.L58:
	movl	$-1, %eax
	lock xaddl	%eax, 8(%rbp)
	jmp	.L59
	.p2align 4,,10
	.p2align 3
.L61:
	movl	$-1, %eax
	lock xaddl	%eax, 12(%rbp)
	jmp	.L62
	.p2align 4,,10
	.p2align 3
.L68:
	movl	$-1, %eax
	lock xaddl	%eax, 12(%rbp)
	jmp	.L69
	.cfi_endproc
.LFE2070:
	.size	_ZN7openpal6LoggerD2Ev, .-_ZN7openpal6LoggerD2Ev
	.weak	_ZN7openpal6LoggerD1Ev
	.set	_ZN7openpal6LoggerD1Ev,_ZN7openpal6LoggerD2Ev
	.section	.text.unlikely,"ax",@progbits
	.align 2
.LCOLDB1:
	.text
.LHOTB1:
	.align 2
	.p2align 4
	.globl	_ZN8opendnp311CommandTaskC2EONS_10CommandSetERNS_18IMasterApplicationERKSt8functionIFvRKNS_18ICommandTaskResultEEERKNS_10TaskConfigEN7openpal6LoggerE
	.type	_ZN8opendnp311CommandTaskC2EONS_10CommandSetERNS_18IMasterApplicationERKSt8functionIFvRKNS_18ICommandTaskResultEEERKNS_10TaskConfigEN7openpal6LoggerE, @function
_ZN8opendnp311CommandTaskC2EONS_10CommandSetERNS_18IMasterApplicationERKSt8functionIFvRKNS_18ICommandTaskResultEEERKNS_10TaskConfigEN7openpal6LoggerE:
.LFB3199:
	.cfi_startproc
	.cfi_personality 0x9b,DW.ref.__gxx_personality_v0
	.cfi_lsda 0x1b,.LLSDA3199
	endbr64
	pushq	%r15
	.cfi_def_cfa_offset 16
	.cfi_offset 15, -16
	pushq	%r14
	.cfi_def_cfa_offset 24
	.cfi_offset 14, -24
	movq	%rdx, %r14
	pushq	%r13
	.cfi_def_cfa_offset 32
	.cfi_offset 13, -32
	movq	%rsi, %r13
	pushq	%r12
	.cfi_def_cfa_offset 40
	.cfi_offset 12, -40
	movq	%rcx, %r12
	pushq	%rbp
	.cfi_def_cfa_offset 48
	.cfi_offset 6, -48
	movq	%rdi, %rbp
	pushq	%rbx
	.cfi_def_cfa_offset 56
	.cfi_offset 3, -56
	movq	%r8, %rbx
	subq	$56, %rsp
	.cfi_def_cfa_offset 112
	movdqu	(%r9), %xmm2
	movq	%fs:40, %rax
	movq	%rax, 40(%rsp)
	movq	8(%r9), %rax
	movaps	%xmm2, (%rsp)
	testq	%rax, %rax
	je	.L74
	movq	__libc_single_threaded@GOTPCREL(%rip), %rdx
	cmpb	$0, (%rdx)
	je	.L75
	addl	$1, 8(%rax)
.L74:
	movdqu	16(%r9), %xmm3
	movaps	%xmm3, 16(%rsp)
	movq	24(%rsp), %rax
	testq	%rax, %rax
	je	.L76
	movq	__libc_single_threaded@GOTPCREL(%rip), %rdx
	cmpb	$0, (%rdx)
	je	.L77
	addl	$1, 8(%rax)
.L76:
	movq	%rsp, %r15
.LEHB0:
	call	_ZN7openpal18MonotonicTimestamp3MinEv@PLT
	movq	(%rbx), %r8
	movq	8(%rbx), %r9
	movq	%rax, %rdx
	movq	%r15, %rcx
	movq	%r14, %rsi
	movq	%rbp, %rdi
	call	_ZN8opendnp311IMasterTaskC2ERNS_18IMasterApplicationEN7openpal18MonotonicTimestampENS3_6LoggerENS_10TaskConfigE@PLT
.LEHE0:
	movq	24(%rsp), %r14
	testq	%r14, %r14
	je	.L79
	movq	__libc_single_threaded@GOTPCREL(%rip), %rbx
	cmpb	$0, (%rbx)
	je	.L80
	movl	8(%r14), %eax
	leal	-1(%rax), %edx
	movl	%edx, 8(%r14)
.L81:
	cmpl	$1, %eax
	je	.L130
.L79:
	movq	8(%rsp), %r14
	testq	%r14, %r14
	je	.L86
	movq	__libc_single_threaded@GOTPCREL(%rip), %rbx
	cmpb	$0, (%rbx)
	je	.L87
	movl	8(%r14), %eax
	leal	-1(%rax), %edx
	movl	%edx, 8(%r14)
.L88:
	cmpl	$1, %eax
	je	.L131
.L86:
	movq	_ZTVN8opendnp311CommandTaskE@GOTPCREL(%rip), %rax
	movq	$0, 88(%rbp)
	pxor	%xmm0, %xmm0
	movl	$64, %edi
	movq	$8, 96(%rbp)
	addq	$16, %rax
	movups	%xmm0, 104(%rbp)
	movq	%rax, 0(%rbp)
	movups	%xmm0, 120(%rbp)
	movups	%xmm0, 136(%rbp)
	movups	%xmm0, 152(%rbp)
.LEHB1:
	call	_Znwm@PLT
.LEHE1:
	movq	96(%rbp), %rdx
	movq	%rax, 88(%rbp)
	movl	$512, %edi
	leaq	-4(,%rdx,4), %rdx
	andq	$-8, %rdx
	leaq	(%rax,%rdx), %rbx
.LEHB2:
	call	_Znwm@PLT
.LEHE2:
	movq	%rax, %xmm1
	movq	%rax, (%rbx)
	addq	$512, %rax
	movq	%rbx, %xmm4
	movq	%rax, %xmm0
	punpcklqdq	%xmm1, %xmm1
	movb	$127, 168(%rbp)
	leaq	176(%rbp), %r14
	punpcklqdq	%xmm4, %xmm0
	movups	%xmm1, 104(%rbp)
	movups	%xmm0, 120(%rbp)
	movups	%xmm0, 152(%rbp)
	pxor	%xmm0, %xmm0
	movups	%xmm1, 136(%rbp)
	movq	16(%r12), %rax
	movq	$0, 192(%rbp)
	movq	$0, 200(%rbp)
	movups	%xmm0, 176(%rbp)
	testq	%rax, %rax
	je	.L93
	movl	$2, %edx
	movq	%r12, %rsi
	movq	%r14, %rdi
.LEHB3:
	call	*%rax
.LEHE3:
	movdqu	16(%r12), %xmm5
	movups	%xmm5, 192(%rbp)
.L93:
	leaq	208(%rbp), %rdi
	movq	%r13, %rsi
.LEHB4:
	call	_ZN8opendnp310CommandSetC1EOS0_@PLT
.LEHE4:
	movq	40(%rsp), %rax
	subq	%fs:40, %rax
	jne	.L132
	addq	$56, %rsp
	.cfi_remember_state
	.cfi_def_cfa_offset 56
	popq	%rbx
	.cfi_def_cfa_offset 48
	popq	%rbp
	.cfi_def_cfa_offset 40
	popq	%r12
	.cfi_def_cfa_offset 32
	popq	%r13
	.cfi_def_cfa_offset 24
	popq	%r14
	.cfi_def_cfa_offset 16
	popq	%r15
	.cfi_def_cfa_offset 8
	ret
	.p2align 4,,10
	.p2align 3
.L77:
	.cfi_restore_state
	lock addl	$1, 8(%rax)
	jmp	.L76
	.p2align 4,,10
	.p2align 3
.L75:
	lock addl	$1, 8(%rax)
	jmp	.L74
	.p2align 4,,10
	.p2align 3
.L130:
	movq	(%r14), %rax
	movq	%r14, %rdi
	call	*16(%rax)
	cmpb	$0, (%rbx)
	je	.L83
	movl	12(%r14), %eax
	leal	-1(%rax), %edx
	movl	%edx, 12(%r14)
.L84:
	cmpl	$1, %eax
	jne	.L79
	movq	(%r14), %rax
	movq	%r14, %rdi
	call	*24(%rax)
	jmp	.L79
	.p2align 4,,10
	.p2align 3
.L131:
	movq	(%r14), %rax
	movq	%r14, %rdi
	call	*16(%rax)
	cmpb	$0, (%rbx)
	je	.L90
	movl	12(%r14), %eax
	leal	-1(%rax), %edx
	movl	%edx, 12(%r14)
.L91:
	cmpl	$1, %eax
	jne	.L86
	movq	(%r14), %rax
	movq	%r14, %rdi
	call	*24(%rax)
	jmp	.L86
	.p2align 4,,10
	.p2align 3
.L80:
	movl	$-1, %eax
	lock xaddl	%eax, 8(%r14)
	jmp	.L81
	.p2align 4,,10
	.p2align 3
.L87:
	movl	$-1, %eax
	lock xaddl	%eax, 8(%r14)
	jmp	.L88
.L83:
	movl	$-1, %eax
	lock xaddl	%eax, 12(%r14)
	jmp	.L84
.L90:
	movl	$-1, %eax
	lock xaddl	%eax, 12(%r14)
	jmp	.L91
.L132:
	call	__stack_chk_fail@PLT
.L113:
	endbr64
	movq	%rax, %rdi
	jmp	.L94
.L110:
	endbr64
	movq	%rax, %r12
	jmp	.L97
.L115:
	endbr64
	movq	%rax, %r12
	jmp	.L99
.L111:
	endbr64
	movq	%rax, %r12
	jmp	.L103
.L109:
	endbr64
	movq	%rax, %rbp
	jmp	.L102
	.section	.gcc_except_table,"a",@progbits
	.align 4
.LLSDA3199:
	.byte	0xff
	.byte	0x9b
	.uleb128 .LLSDATT3199-.LLSDATTD3199
.LLSDATTD3199:
	.byte	0x1
	.uleb128 .LLSDACSE3199-.LLSDACSB3199
.LLSDACSB3199:
	.uleb128 .LEHB0-.LFB3199
	.uleb128 .LEHE0-.LEHB0
	.uleb128 .L109-.LFB3199
	.uleb128 0
	.uleb128 .LEHB1-.LFB3199
	.uleb128 .LEHE1-.LEHB1
	.uleb128 .L110-.LFB3199
	.uleb128 0
	.uleb128 .LEHB2-.LFB3199
	.uleb128 .LEHE2-.LEHB2
	.uleb128 .L113-.LFB3199
	.uleb128 0x1
	.uleb128 .LEHB3-.LFB3199
	.uleb128 .LEHE3-.LEHB3
	.uleb128 .L115-.LFB3199
	.uleb128 0
	.uleb128 .LEHB4-.LFB3199
	.uleb128 .LEHE4-.LEHB4
	.uleb128 .L111-.LFB3199
	.uleb128 0
.LLSDACSE3199:
	.byte	0x1
	.byte	0
	.align 4
	.long	0

.LLSDATT3199:
	.text
	.cfi_endproc
	.section	.text.unlikely
	.cfi_startproc
	.cfi_personality 0x9b,DW.ref.__gxx_personality_v0
	.cfi_lsda 0x1b,.LLSDAC3199
	.type	_ZN8opendnp311CommandTaskC2EONS_10CommandSetERNS_18IMasterApplicationERKSt8functionIFvRKNS_18ICommandTaskResultEEERKNS_10TaskConfigEN7openpal6LoggerE.cold, @function
_ZN8opendnp311CommandTaskC2EONS_10CommandSetERNS_18IMasterApplicationERKSt8functionIFvRKNS_18ICommandTaskResultEEERKNS_10TaskConfigEN7openpal6LoggerE.cold:
.LFSB3199:
.L94:
	.cfi_def_cfa_offset 112
	.cfi_offset 3, -56
	.cfi_offset 6, -48
	.cfi_offset 12, -40
	.cfi_offset 13, -32
	.cfi_offset 14, -24
	.cfi_offset 15, -16
	call	__cxa_begin_catch@PLT
.LEHB5:
	call	__cxa_rethrow@PLT
.LEHE5:
.L112:
	endbr64
	movq	%rax, %r12
	call	__cxa_end_catch@PLT
.L97:
	movq	%rbp, %rdi
	call	_ZN8opendnp311IMasterTaskD2Ev@PLT
	movq	%r12, %rdi
.LEHB6:
	call	_Unwind_Resume@PLT
.LEHE6:
.L99:
	movq	192(%rbp), %rax
	testq	%rax, %rax
	je	.L101
	movl	$3, %edx
	movq	%r14, %rsi
	movq	%r14, %rdi
	call	*%rax
.L101:
	cmpq	$0, 88(%rbp)
	je	.L97
	movq	160(%rbp), %rax
	movq	128(%rbp), %rbx
	leaq	8(%rax), %r13
.L106:
	cmpq	%rbx, %r13
	jbe	.L133
	movq	(%rbx), %rdi
	movl	$512, %esi
	addq	$8, %rbx
	call	_ZdlPvm@PLT
	jmp	.L106
.L102:
	movq	%r15, %rdi
	call	_ZN7openpal6LoggerD1Ev@PLT
	movq	%rbp, %rdi
.LEHB7:
	call	_Unwind_Resume@PLT
.LEHE7:
.L103:
	movq	192(%rbp), %rax
	testq	%rax, %rax
	je	.L101
	movl	$3, %edx
	movq	%r14, %rsi
	movq	%r14, %rdi
	call	*%rax
	jmp	.L101
.L114:
	endbr64
	movq	%rax, %r12
	call	__cxa_end_catch@PLT
	movq	%r12, %rdi
	call	__cxa_begin_catch@PLT
	movq	96(%rbp), %rax
	movq	88(%rbp), %rdi
	leaq	0(,%rax,8), %rsi
	call	_ZdlPvm@PLT
	movq	$0, 88(%rbp)
	movq	$0, 96(%rbp)
.LEHB8:
	call	__cxa_rethrow@PLT
.LEHE8:
.L133:
	movq	96(%rbp), %rax
	movq	88(%rbp), %rdi
	leaq	0(,%rax,8), %rsi
	call	_ZdlPvm@PLT
	jmp	.L97
	.cfi_endproc
.LFE3199:
	.section	.gcc_except_table
	.align 4
.LLSDAC3199:
	.byte	0xff
	.byte	0x9b
	.uleb128 .LLSDATTC3199-.LLSDATTDC3199
.LLSDATTDC3199:
	.byte	0x1
	.uleb128 .LLSDACSEC3199-.LLSDACSBC3199
.LLSDACSBC3199:
	.uleb128 .LEHB5-.LCOLDB1
	.uleb128 .LEHE5-.LEHB5
	.uleb128 .L114-.LCOLDB1
	.uleb128 0x1
	.uleb128 .LEHB6-.LCOLDB1
	.uleb128 .LEHE6-.LEHB6
	.uleb128 0
	.uleb128 0
	.uleb128 .LEHB7-.LCOLDB1
	.uleb128 .LEHE7-.LEHB7
	.uleb128 0
	.uleb128 0
	.uleb128 .LEHB8-.LCOLDB1
	.uleb128 .LEHE8-.LEHB8
	.uleb128 .L112-.LCOLDB1
	.uleb128 0
.LLSDACSEC3199:
	.byte	0x1
	.byte	0
	.align 4
	.long	0

.LLSDATTC3199:
	.section	.text.unlikely
	.text
	.size	_ZN8opendnp311CommandTaskC2EONS_10CommandSetERNS_18IMasterApplicationERKSt8functionIFvRKNS_18ICommandTaskResultEEERKNS_10TaskConfigEN7openpal6LoggerE, .-_ZN8opendnp311CommandTaskC2EONS_10CommandSetERNS_18IMasterApplicationERKSt8functionIFvRKNS_18ICommandTaskResultEEERKNS_10TaskConfigEN7openpal6LoggerE
	.section	.text.unlikely
	.size	_ZN8opendnp311CommandTaskC2EONS_10CommandSetERNS_18IMasterApplicationERKSt8functionIFvRKNS_18ICommandTaskResultEEERKNS_10TaskConfigEN7openpal6LoggerE.cold, .-_ZN8opendnp311CommandTaskC2EONS_10CommandSetERNS_18IMasterApplicationERKSt8functionIFvRKNS_18ICommandTaskResultEEERKNS_10TaskConfigEN7openpal6LoggerE.cold
.LCOLDE1:
	.text
.LHOTE1:
	.globl	_ZN8opendnp311CommandTaskC1EONS_10CommandSetERNS_18IMasterApplicationERKSt8functionIFvRKNS_18ICommandTaskResultEEERKNS_10TaskConfigEN7openpal6LoggerE
	.set	_ZN8opendnp311CommandTaskC1EONS_10CommandSetERNS_18IMasterApplicationERKSt8functionIFvRKNS_18ICommandTaskResultEEERKNS_10TaskConfigEN7openpal6LoggerE,_ZN8opendnp311CommandTaskC2EONS_10CommandSetERNS_18IMasterApplicationERKSt8functionIFvRKNS_18ICommandTaskResultEEERKNS_10TaskConfigEN7openpal6LoggerE
	.align 2
	.p2align 4
	.globl	_ZN8opendnp311CommandTask15ProcessResponseERKN7openpal6RSliceE
	.type	_ZN8opendnp311CommandTask15ProcessResponseERKN7openpal6RSliceE, @function
_ZN8opendnp311CommandTask15ProcessResponseERKN7openpal6RSliceE:
.LFB3207:
	.cfi_startproc
	endbr64
	subq	$8, %rsp
	.cfi_def_cfa_offset 16
	leaq	208(%rdi), %r8
	movq	104(%rdi), %rax
	leaq	16(%rdi), %rdx
	cmpq	%rax, 136(%rdi)
	movq	%r8, %rdi
	je	.L140
	call	_ZN8opendnp313CommandSetOps21ProcessSelectResponseERNS_10CommandSetERKN7openpal6RSliceEPNS3_6LoggerE@PLT
	movl	%eax, %edx
	movl	$3, %eax
	testb	%dl, %dl
	je	.L134
	cmpb	$2, %dl
	sete	%al
	addl	%eax, %eax
.L134:
	addq	$8, %rsp
	.cfi_remember_state
	.cfi_def_cfa_offset 8
	ret
	.p2align 4,,10
	.p2align 3
.L140:
	.cfi_restore_state
	call	_ZN8opendnp313CommandSetOps22ProcessOperateResponseERNS_10CommandSetERKN7openpal6RSliceEPNS3_6LoggerE@PLT
	cmpb	$1, %al
	setne	%al
	addq	$8, %rsp
	.cfi_def_cfa_offset 8
	addl	%eax, %eax
	ret
	.cfi_endproc
.LFE3207:
	.size	_ZN8opendnp311CommandTask15ProcessResponseERKN7openpal6RSliceE, .-_ZN8opendnp311CommandTask15ProcessResponseERKN7openpal6RSliceE
	.align 2
	.p2align 4
	.globl	_ZN8opendnp311CommandTask15ProcessResponseERKNS_18APDUResponseHeaderERKN7openpal6RSliceE
	.type	_ZN8opendnp311CommandTask15ProcessResponseERKNS_18APDUResponseHeaderERKN7openpal6RSliceE, @function
_ZN8opendnp311CommandTask15ProcessResponseERKNS_18APDUResponseHeaderERKN7openpal6RSliceE:
.LFB3204:
	.cfi_startproc
	endbr64
	pushq	%r12
	.cfi_def_cfa_offset 16
	.cfi_offset 12, -16
	movq	%rdx, %r12
	pushq	%rbp
	.cfi_def_cfa_offset 24
	.cfi_offset 6, -24
	movq	%rdi, %rbp
	subq	$8, %rsp
	.cfi_def_cfa_offset 32
	call	_ZN8opendnp311IMasterTask22ValidateSingleResponseERKNS_18APDUResponseHeaderE@PLT
	testb	%al, %al
	jne	.L144
	addq	$8, %rsp
	.cfi_remember_state
	.cfi_def_cfa_offset 24
	xorl	%eax, %eax
	popq	%rbp
	.cfi_def_cfa_offset 16
	popq	%r12
	.cfi_def_cfa_offset 8
	ret
	.p2align 4,,10
	.p2align 3
.L144:
	.cfi_restore_state
	addq	$8, %rsp
	.cfi_def_cfa_offset 24
	movq	%r12, %rsi
	movq	%rbp, %rdi
	popq	%rbp
	.cfi_def_cfa_offset 16
	popq	%r12
	.cfi_def_cfa_offset 8
	jmp	_ZN8opendnp311CommandTask15ProcessResponseERKN7openpal6RSliceE@PLT
	.cfi_endproc
.LFE3204:
	.size	_ZN8opendnp311CommandTask15ProcessResponseERKNS_18APDUResponseHeaderERKN7openpal6RSliceE, .-_ZN8opendnp311CommandTask15ProcessResponseERKNS_18APDUResponseHeaderERKN7openpal6RSliceE
	.section	.text._ZNSt16_Sp_counted_baseILN9__gnu_cxx12_Lock_policyE2EE10_M_releaseEv,"axG",@progbits,_ZNSt16_Sp_counted_baseILN9__gnu_cxx12_Lock_policyE2EE10_M_releaseEv,comdat
	.align 2
	.p2align 4
	.weak	_ZNSt16_Sp_counted_baseILN9__gnu_cxx12_Lock_policyE2EE10_M_releaseEv
	.type	_ZNSt16_Sp_counted_baseILN9__gnu_cxx12_Lock_policyE2EE10_M_releaseEv, @function
_ZNSt16_Sp_counted_baseILN9__gnu_cxx12_Lock_policyE2EE10_M_releaseEv:
.LFB3665:
	.cfi_startproc
	endbr64
	pushq	%rbp
	.cfi_def_cfa_offset 16
	.cfi_offset 6, -16
	movq	%rdi, %rbp
	pushq	%rbx
	.cfi_def_cfa_offset 24
	.cfi_offset 3, -24
	subq	$8, %rsp
	.cfi_def_cfa_offset 32
	movq	__libc_single_threaded@GOTPCREL(%rip), %rbx
	cmpb	$0, (%rbx)
	je	.L146
	movl	8(%rdi), %eax
	leal	-1(%rax), %edx
	movl	%edx, 8(%rdi)
.L147:
	cmpl	$1, %eax
	je	.L154
.L145:
	addq	$8, %rsp
	.cfi_remember_state
	.cfi_def_cfa_offset 24
	popq	%rbx
	.cfi_def_cfa_offset 16
	popq	%rbp
	.cfi_def_cfa_offset 8
	ret
	.p2align 4,,10
	.p2align 3
.L154:
	.cfi_restore_state
	movq	0(%rbp), %rax
	movq	%rbp, %rdi
	call	*16(%rax)
	cmpb	$0, (%rbx)
	je	.L150
	movl	12(%rbp), %eax
	leal	-1(%rax), %edx
	movl	%edx, 12(%rbp)
.L151:
	cmpl	$1, %eax
	jne	.L145
	movq	0(%rbp), %rax
	movq	%rbp, %rdi
	movq	24(%rax), %rax
	addq	$8, %rsp
	.cfi_remember_state
	.cfi_def_cfa_offset 24
	popq	%rbx
	.cfi_def_cfa_offset 16
	popq	%rbp
	.cfi_def_cfa_offset 8
	jmp	*%rax
	.p2align 4,,10
	.p2align 3
.L146:
	.cfi_restore_state
	movl	$-1, %eax
	lock xaddl	%eax, 8(%rdi)
	jmp	.L147
	.p2align 4,,10
	.p2align 3
.L150:
	movl	$-1, %eax
	lock xaddl	%eax, 12(%rbp)
	jmp	.L151
	.cfi_endproc
.LFE3665:
	.size	_ZNSt16_Sp_counted_baseILN9__gnu_cxx12_Lock_policyE2EE10_M_releaseEv, .-_ZNSt16_Sp_counted_baseILN9__gnu_cxx12_Lock_policyE2EE10_M_releaseEv
	.section	.rodata._ZNSt5dequeIN8opendnp312FunctionCodeESaIS1_EE16_M_push_back_auxIJS1_EEEvDpOT_.str1.8,"aMS",@progbits,1
	.align 8
.LC2:
	.string	"cannot create std::deque larger than max_size()"
	.section	.text._ZNSt5dequeIN8opendnp312FunctionCodeESaIS1_EE16_M_push_back_auxIJS1_EEEvDpOT_,"axG",@progbits,_ZNSt5dequeIN8opendnp312FunctionCodeESaIS1_EE16_M_push_back_auxIJS1_EEEvDpOT_,comdat
	.align 2
	.p2align 4
	.weak	_ZNSt5dequeIN8opendnp312FunctionCodeESaIS1_EE16_M_push_back_auxIJS1_EEEvDpOT_
	.type	_ZNSt5dequeIN8opendnp312FunctionCodeESaIS1_EE16_M_push_back_auxIJS1_EEEvDpOT_, @function
_ZNSt5dequeIN8opendnp312FunctionCodeESaIS1_EE16_M_push_back_auxIJS1_EEEvDpOT_:
.LFB3840:
	.cfi_startproc
	endbr64
	pushq	%r15
	.cfi_def_cfa_offset 16
	.cfi_offset 15, -16
	pushq	%r14
	.cfi_def_cfa_offset 24
	.cfi_offset 14, -24
	pushq	%r13
	.cfi_def_cfa_offset 32
	.cfi_offset 13, -32
	pushq	%r12
	.cfi_def_cfa_offset 40
	.cfi_offset 12, -40
	pushq	%rbp
	.cfi_def_cfa_offset 48
	.cfi_offset 6, -48
	movq	%rsi, %rbp
	pushq	%rbx
	.cfi_def_cfa_offset 56
	.cfi_offset 3, -56
	subq	$8, %rsp
	.cfi_def_cfa_offset 64
	movq	72(%rdi), %r12
	movq	40(%rdi), %rsi
	movq	48(%rdi), %rdx
	movq	%r12, %r13
	subq	%rsi, %r13
	movq	%r13, %rcx
	sarq	$3, %rcx
	cmpq	$1, %r12
	movq	%rcx, %rax
	adcq	$-1, %rax
	subq	56(%rdi), %rdx
	salq	$9, %rax
	addq	%rdx, %rax
	movq	32(%rdi), %rdx
	subq	16(%rdi), %rdx
	addq	%rdx, %rax
	movabsq	$9223372036854775807, %rdx
	cmpq	%rdx, %rax
	je	.L165
	movq	8(%rdi), %rdx
	movq	%rdi, %rbx
	movq	(%rdi), %rdi
	movq	%r12, %rax
	subq	%rdi, %rax
	movq	%rdx, %r8
	sarq	$3, %rax
	subq	%rax, %r8
	cmpq	$1, %r8
	jbe	.L166
.L157:
	movl	$512, %edi
	call	_Znwm@PLT
	movzbl	0(%rbp), %edx
	movq	%rax, 8(%r12)
	movq	48(%rbx), %rax
	movb	%dl, (%rax)
	movq	72(%rbx), %rdx
	movq	8(%rdx), %rax
	addq	$8, %rdx
	movq	%rdx, %xmm1
	movq	%rax, %xmm0
	addq	$512, %rax
	punpcklqdq	%xmm0, %xmm0
	movups	%xmm0, 48(%rbx)
	movq	%rax, %xmm0
	punpcklqdq	%xmm1, %xmm0
	movups	%xmm0, 64(%rbx)
	addq	$8, %rsp
	.cfi_remember_state
	.cfi_def_cfa_offset 56
	popq	%rbx
	.cfi_def_cfa_offset 48
	popq	%rbp
	.cfi_def_cfa_offset 40
	popq	%r12
	.cfi_def_cfa_offset 32
	popq	%r13
	.cfi_def_cfa_offset 24
	popq	%r14
	.cfi_def_cfa_offset 16
	popq	%r15
	.cfi_def_cfa_offset 8
	ret
	.p2align 4,,10
	.p2align 3
.L166:
	.cfi_restore_state
	leaq	2(%rcx), %r14
	leaq	(%r14,%r14), %rax
	cmpq	%rax, %rdx
	ja	.L167
	testq	%rdx, %rdx
	movl	$1, %eax
	cmovne	%rdx, %rax
	leaq	2(%rdx,%rax), %r15
	movq	%r15, %rax
	shrq	$60, %rax
	jne	.L168
	leaq	0(,%r15,8), %rdi
	call	_Znwm@PLT
	movq	40(%rbx), %rsi
	movq	%rax, %r12
	movq	%r15, %rax
	subq	%r14, %rax
	shrq	%rax
	leaq	(%r12,%rax,8), %r14
	movq	72(%rbx), %rax
	leaq	8(%rax), %rdx
	cmpq	%rsi, %rdx
	je	.L163
	subq	%rsi, %rdx
	movq	%r14, %rdi
	call	memmove@PLT
.L163:
	movq	8(%rbx), %rax
	movq	(%rbx), %rdi
	leaq	0(,%rax,8), %rsi
	call	_ZdlPvm@PLT
	movq	%r12, (%rbx)
	movq	%r15, 8(%rbx)
.L160:
	movq	(%r14), %rax
	movq	(%r14), %xmm0
	leaq	(%r14,%r13), %r12
	movq	%r14, 40(%rbx)
	movq	%r12, 72(%rbx)
	addq	$512, %rax
	movq	%rax, %xmm2
	punpcklqdq	%xmm2, %xmm0
	movups	%xmm0, 24(%rbx)
	movq	(%r12), %rax
	movq	(%r12), %xmm0
	addq	$512, %rax
	movq	%rax, %xmm3
	punpcklqdq	%xmm3, %xmm0
	movups	%xmm0, 56(%rbx)
	jmp	.L157
	.p2align 4,,10
	.p2align 3
.L167:
	subq	%r14, %rdx
	addq	$8, %r12
	shrq	%rdx
	leaq	(%rdi,%rdx,8), %r14
	movq	%r12, %rdx
	subq	%rsi, %rdx
	cmpq	%r14, %rsi
	jbe	.L159
	cmpq	%r12, %rsi
	je	.L160
	movq	%r14, %rdi
	call	memmove@PLT
	jmp	.L160
	.p2align 4,,10
	.p2align 3
.L159:
	cmpq	%r12, %rsi
	je	.L160
	leaq	8(%r13), %rdi
	subq	%rdx, %rdi
	addq	%r14, %rdi
	call	memmove@PLT
	jmp	.L160
	.p2align 4,,10
	.p2align 3
.L168:
	shrq	$61, %r15
	je	.L162
	call	_ZSt28__throw_bad_array_new_lengthv@PLT
.L162:
	call	_ZSt17__throw_bad_allocv@PLT
.L165:
	leaq	.LC2(%rip), %rdi
	call	_ZSt20__throw_length_errorPKc@PLT
	.cfi_endproc
.LFE3840:
	.size	_ZNSt5dequeIN8opendnp312FunctionCodeESaIS1_EE16_M_push_back_auxIJS1_EEEvDpOT_, .-_ZNSt5dequeIN8opendnp312FunctionCodeESaIS1_EE16_M_push_back_auxIJS1_EEEvDpOT_
	.text
	.align 2
	.p2align 4
	.globl	_ZN8opendnp311CommandTask20LoadSelectAndOperateEv
	.type	_ZN8opendnp311CommandTask20LoadSelectAndOperateEv, @function
_ZN8opendnp311CommandTask20LoadSelectAndOperateEv:
.LFB3201:
	.cfi_startproc
	endbr64
	pushq	%r15
	.cfi_def_cfa_offset 16
	.cfi_offset 15, -16
	leaq	88(%rdi), %r15
	pushq	%r14
	.cfi_def_cfa_offset 24
	.cfi_offset 14, -24
	pushq	%r13
	.cfi_def_cfa_offset 32
	.cfi_offset 13, -32
	pushq	%r12
	.cfi_def_cfa_offset 40
	.cfi_offset 12, -40
	movq	%rdi, %r12
	pushq	%rbp
	.cfi_def_cfa_offset 48
	.cfi_offset 6, -48
	pushq	%rbx
	.cfi_def_cfa_offset 56
	.cfi_offset 3, -56
	subq	$56, %rsp
	.cfi_def_cfa_offset 112
	movdqu	120(%rdi), %xmm0
	movdqu	104(%rdi), %xmm1
	movq	%fs:40, %rax
	movq	%rax, 40(%rsp)
	xorl	%eax, %eax
	movq	160(%rdi), %rax
	movhlps	%xmm0, %xmm4
	movaps	%xmm1, 16(%rsp)
	movq	%xmm1, %r13
	movq	%xmm0, %r14
	movq	%xmm4, %rbx
	leaq	8(%rax), %rbp
	movaps	%xmm0, (%rsp)
	addq	$8, %rbx
	cmpq	%rbx, %rbp
	jbe	.L173
	.p2align 4,,10
	.p2align 3
.L170:
	movq	(%rbx), %rdi
	movl	$512, %esi
	addq	$8, %rbx
	call	_ZdlPvm@PLT
	cmpq	%rbx, %rbp
	ja	.L170
.L173:
	movdqa	16(%rsp), %xmm2
	movdqa	(%rsp), %xmm3
	subq	$1, %r14
	movb	$3, 39(%rsp)
	movups	%xmm2, 136(%r12)
	movups	%xmm3, 152(%r12)
	cmpq	%r13, %r14
	je	.L182
	movb	$3, 0(%r13)
	addq	$1, %r13
	movq	%r13, 136(%r12)
	movb	$4, 39(%rsp)
	cmpq	%r13, %r14
	je	.L175
.L184:
	movb	$4, 0(%r13)
	addq	$1, %r13
	movq	%r13, 136(%r12)
.L169:
	movq	40(%rsp), %rax
	subq	%fs:40, %rax
	jne	.L183
	addq	$56, %rsp
	.cfi_remember_state
	.cfi_def_cfa_offset 56
	popq	%rbx
	.cfi_def_cfa_offset 48
	popq	%rbp
	.cfi_def_cfa_offset 40
	popq	%r12
	.cfi_def_cfa_offset 32
	popq	%r13
	.cfi_def_cfa_offset 24
	popq	%r14
	.cfi_def_cfa_offset 16
	popq	%r15
	.cfi_def_cfa_offset 8
	ret
	.p2align 4,,10
	.p2align 3
.L182:
	.cfi_restore_state
	leaq	39(%rsp), %rsi
	movq	%r15, %rdi
	call	_ZNSt5dequeIN8opendnp312FunctionCodeESaIS1_EE16_M_push_back_auxIJS1_EEEvDpOT_@PLT
	movq	152(%r12), %rax
	movb	$4, 39(%rsp)
	movq	136(%r12), %r13
	leaq	-1(%rax), %r14
	cmpq	%r13, %r14
	jne	.L184
	.p2align 4,,10
	.p2align 3
.L175:
	leaq	39(%rsp), %rsi
	movq	%r15, %rdi
	call	_ZNSt5dequeIN8opendnp312FunctionCodeESaIS1_EE16_M_push_back_auxIJS1_EEEvDpOT_@PLT
	jmp	.L169
.L183:
	call	__stack_chk_fail@PLT
	.cfi_endproc
.LFE3201:
	.size	_ZN8opendnp311CommandTask20LoadSelectAndOperateEv, .-_ZN8opendnp311CommandTask20LoadSelectAndOperateEv
	.section	.text.unlikely
	.align 2
.LCOLDB4:
	.text
.LHOTB4:
	.align 2
	.p2align 4
	.globl	_ZN8opendnp311CommandTask22CreateSelectAndOperateEONS_10CommandSetERNS_18IMasterApplicationERKSt8functionIFvRKNS_18ICommandTaskResultEEERKNS_10TaskConfigEN7openpal6LoggerE
	.type	_ZN8opendnp311CommandTask22CreateSelectAndOperateEONS_10CommandSetERNS_18IMasterApplicationERKSt8functionIFvRKNS_18ICommandTaskResultEEERKNS_10TaskConfigEN7openpal6LoggerE, @function
_ZN8opendnp311CommandTask22CreateSelectAndOperateEONS_10CommandSetERNS_18IMasterApplicationERKSt8functionIFvRKNS_18ICommandTaskResultEEERKNS_10TaskConfigEN7openpal6LoggerE:
.LFB3191:
	.cfi_startproc
	.cfi_personality 0x9b,DW.ref.__gxx_personality_v0
	.cfi_lsda 0x1b,.LLSDA3191
	endbr64
	pushq	%r15
	.cfi_def_cfa_offset 16
	.cfi_offset 15, -16
	pushq	%r14
	.cfi_def_cfa_offset 24
	.cfi_offset 14, -24
	movq	%rdx, %r14
	pushq	%r13
	.cfi_def_cfa_offset 32
	.cfi_offset 13, -32
	movq	%rsi, %r13
	pushq	%r12
	.cfi_def_cfa_offset 40
	.cfi_offset 12, -40
	movq	%rdi, %r12
	movl	$248, %edi
	pushq	%rbp
	.cfi_def_cfa_offset 48
	.cfi_offset 6, -48
	pushq	%rbx
	.cfi_def_cfa_offset 56
	.cfi_offset 3, -56
	movq	%r9, %rbx
	subq	$88, %rsp
	.cfi_def_cfa_offset 144
	movq	%rcx, 8(%rsp)
	movq	%r8, (%rsp)
	movq	%fs:40, %rax
	movq	%rax, 72(%rsp)
	xorl	%eax, %eax
.LEHB9:
	call	_Znwm@PLT
.LEHE9:
	movdqu	(%rbx), %xmm2
	movq	(%rsp), %r8
	movq	%rax, %rbp
	movq	.LC3(%rip), %rax
	movq	8(%rsp), %rcx
	leaq	16(%rbp), %r15
	movq	%rbp, %xmm1
	movaps	%xmm2, 32(%rsp)
	movq	%rax, 8(%rbp)
	movq	_ZTVSt23_Sp_counted_ptr_inplaceIN8opendnp311CommandTaskESaIS1_ELN9__gnu_cxx12_Lock_policyE2EE@GOTPCREL(%rip), %rax
	movq	%r15, %xmm0
	punpcklqdq	%xmm1, %xmm0
	addq	$16, %rax
	movaps	%xmm0, 16(%rsp)
	movq	%rax, 0(%rbp)
	movq	8(%rbx), %rax
	testq	%rax, %rax
	je	.L186
	movq	__libc_single_threaded@GOTPCREL(%rip), %rdx
	cmpb	$0, (%rdx)
	je	.L187
	addl	$1, 8(%rax)
.L186:
	movdqu	16(%rbx), %xmm3
	movaps	%xmm3, 48(%rsp)
	movq	56(%rsp), %rax
	testq	%rax, %rax
	je	.L188
	movq	__libc_single_threaded@GOTPCREL(%rip), %rdx
	cmpb	$0, (%rdx)
	je	.L189
	addl	$1, 8(%rax)
.L188:
	leaq	32(%rsp), %rbx
	movq	%r14, %rdx
	movq	%r13, %rsi
	movq	%r15, %rdi
	movq	%rbx, %r9
.LEHB10:
	call	_ZN8opendnp311CommandTaskC1EONS_10CommandSetERNS_18IMasterApplicationERKSt8functionIFvRKNS_18ICommandTaskResultEEERKNS_10TaskConfigEN7openpal6LoggerE@PLT
.LEHE10:
	movq	56(%rsp), %r13
	testq	%r13, %r13
	je	.L191
	movq	__libc_single_threaded@GOTPCREL(%rip), %rbx
	cmpb	$0, (%rbx)
	je	.L192
	movl	8(%r13), %eax
	leal	-1(%rax), %edx
	movl	%edx, 8(%r13)
.L193:
	cmpl	$1, %eax
	je	.L219
.L191:
	movq	40(%rsp), %r13
	testq	%r13, %r13
	je	.L198
	movq	__libc_single_threaded@GOTPCREL(%rip), %rbx
	cmpb	$0, (%rbx)
	je	.L199
	movl	8(%r13), %eax
	leal	-1(%rax), %edx
	movl	%edx, 8(%r13)
.L200:
	cmpl	$1, %eax
	je	.L220
.L198:
	movq	%r15, %rdi
.LEHB11:
	call	_ZN8opendnp311CommandTask20LoadSelectAndOperateEv@PLT
.LEHE11:
	movdqa	16(%rsp), %xmm4
	movups	%xmm4, (%r12)
	movq	72(%rsp), %rax
	subq	%fs:40, %rax
	jne	.L221
	addq	$88, %rsp
	.cfi_remember_state
	.cfi_def_cfa_offset 56
	movq	%r12, %rax
	popq	%rbx
	.cfi_def_cfa_offset 48
	popq	%rbp
	.cfi_def_cfa_offset 40
	popq	%r12
	.cfi_def_cfa_offset 32
	popq	%r13
	.cfi_def_cfa_offset 24
	popq	%r14
	.cfi_def_cfa_offset 16
	popq	%r15
	.cfi_def_cfa_offset 8
	ret
	.p2align 4,,10
	.p2align 3
.L187:
	.cfi_restore_state
	lock addl	$1, 8(%rax)
	jmp	.L186
	.p2align 4,,10
	.p2align 3
.L189:
	lock addl	$1, 8(%rax)
	jmp	.L188
	.p2align 4,,10
	.p2align 3
.L219:
	movq	0(%r13), %rax
	movq	%r13, %rdi
	call	*16(%rax)
	cmpb	$0, (%rbx)
	je	.L195
	movl	12(%r13), %eax
	leal	-1(%rax), %edx
	movl	%edx, 12(%r13)
.L196:
	cmpl	$1, %eax
	jne	.L191
	movq	0(%r13), %rax
	movq	%r13, %rdi
	call	*24(%rax)
	jmp	.L191
	.p2align 4,,10
	.p2align 3
.L220:
	movq	0(%r13), %rax
	movq	%r13, %rdi
	call	*16(%rax)
	cmpb	$0, (%rbx)
	je	.L202
	movl	12(%r13), %eax
	leal	-1(%rax), %edx
	movl	%edx, 12(%r13)
.L203:
	cmpl	$1, %eax
	jne	.L198
	movq	0(%r13), %rax
	movq	%r13, %rdi
	call	*24(%rax)
	jmp	.L198
	.p2align 4,,10
	.p2align 3
.L192:
	movl	$-1, %eax
	lock xaddl	%eax, 8(%r13)
	jmp	.L193
	.p2align 4,,10
	.p2align 3
.L199:
	movl	$-1, %eax
	lock xaddl	%eax, 8(%r13)
	jmp	.L200
	.p2align 4,,10
	.p2align 3
.L195:
	movl	$-1, %eax
	lock xaddl	%eax, 12(%r13)
	jmp	.L196
	.p2align 4,,10
	.p2align 3
.L202:
	movl	$-1, %eax
	lock xaddl	%eax, 12(%r13)
	jmp	.L203
.L221:
	call	__stack_chk_fail@PLT
.L209:
	endbr64
	movq	%rax, %r12
	jmp	.L205
.L208:
	endbr64
	movq	%rax, %r12
	jmp	.L206
	.section	.gcc_except_table
.LLSDA3191:
	.byte	0xff
	.byte	0xff
	.byte	0x1
	.uleb128 .LLSDACSE3191-.LLSDACSB3191
.LLSDACSB3191:
	.uleb128 .LEHB9-.LFB3191
	.uleb128 .LEHE9-.LEHB9
	.uleb128 0
	.uleb128 0
	.uleb128 .LEHB10-.LFB3191
	.uleb128 .LEHE10-.LEHB10
	.uleb128 .L209-.LFB3191
	.uleb128 0
	.uleb128 .LEHB11-.LFB3191
	.uleb128 .LEHE11-.LEHB11
	.uleb128 .L208-.LFB3191
	.uleb128 0
.LLSDACSE3191:
	.text
	.cfi_endproc
	.section	.text.unlikely
	.cfi_startproc
	.cfi_personality 0x9b,DW.ref.__gxx_personality_v0
	.cfi_lsda 0x1b,.LLSDAC3191
	.type	_ZN8opendnp311CommandTask22CreateSelectAndOperateEONS_10CommandSetERNS_18IMasterApplicationERKSt8functionIFvRKNS_18ICommandTaskResultEEERKNS_10TaskConfigEN7openpal6LoggerE.cold, @function
_ZN8opendnp311CommandTask22CreateSelectAndOperateEONS_10CommandSetERNS_18IMasterApplicationERKSt8functionIFvRKNS_18ICommandTaskResultEEERKNS_10TaskConfigEN7openpal6LoggerE.cold:
.LFSB3191:
.L205:
	.cfi_def_cfa_offset 144
	.cfi_offset 3, -56
	.cfi_offset 6, -48
	.cfi_offset 12, -40
	.cfi_offset 13, -32
	.cfi_offset 14, -24
	.cfi_offset 15, -16
	movq	%rbx, %rdi
	call	_ZN7openpal6LoggerD1Ev@PLT
	movq	%rbp, %rdi
	movl	$248, %esi
	call	_ZdlPvm@PLT
	movq	%r12, %rdi
.LEHB12:
	call	_Unwind_Resume@PLT
.L206:
	movq	%rbp, %rdi
	call	_ZNSt16_Sp_counted_baseILN9__gnu_cxx12_Lock_policyE2EE10_M_releaseEv@PLT
	movq	%r12, %rdi
	call	_Unwind_Resume@PLT
.LEHE12:
	.cfi_endproc
.LFE3191:
	.section	.gcc_except_table
.LLSDAC3191:
	.byte	0xff
	.byte	0xff
	.byte	0x1
	.uleb128 .LLSDACSEC3191-.LLSDACSBC3191
.LLSDACSBC3191:
	.uleb128 .LEHB12-.LCOLDB4
	.uleb128 .LEHE12-.LEHB12
	.uleb128 0
	.uleb128 0
.LLSDACSEC3191:
	.section	.text.unlikely
	.text
	.size	_ZN8opendnp311CommandTask22CreateSelectAndOperateEONS_10CommandSetERNS_18IMasterApplicationERKSt8functionIFvRKNS_18ICommandTaskResultEEERKNS_10TaskConfigEN7openpal6LoggerE, .-_ZN8opendnp311CommandTask22CreateSelectAndOperateEONS_10CommandSetERNS_18IMasterApplicationERKSt8functionIFvRKNS_18ICommandTaskResultEEERKNS_10TaskConfigEN7openpal6LoggerE
	.section	.text.unlikely
	.size	_ZN8opendnp311CommandTask22CreateSelectAndOperateEONS_10CommandSetERNS_18IMasterApplicationERKSt8functionIFvRKNS_18ICommandTaskResultEEERKNS_10TaskConfigEN7openpal6LoggerE.cold, .-_ZN8opendnp311CommandTask22CreateSelectAndOperateEONS_10CommandSetERNS_18IMasterApplicationERKSt8functionIFvRKNS_18ICommandTaskResultEEERKNS_10TaskConfigEN7openpal6LoggerE.cold
.LCOLDE4:
	.text
.LHOTE4:
	.align 2
	.p2align 4
	.globl	_ZN8opendnp311CommandTask17LoadDirectOperateEv
	.type	_ZN8opendnp311CommandTask17LoadDirectOperateEv, @function
_ZN8opendnp311CommandTask17LoadDirectOperateEv:
.LFB3202:
	.cfi_startproc
	endbr64
	pushq	%r14
	.cfi_def_cfa_offset 16
	.cfi_offset 14, -16
	pushq	%r13
	.cfi_def_cfa_offset 24
	.cfi_offset 13, -24
	pushq	%r12
	.cfi_def_cfa_offset 32
	.cfi_offset 12, -32
	movq	%rdi, %r12
	pushq	%rbp
	.cfi_def_cfa_offset 40
	.cfi_offset 6, -40
	pushq	%rbx
	.cfi_def_cfa_offset 48
	.cfi_offset 3, -48
	subq	$48, %rsp
	.cfi_def_cfa_offset 96
	movdqu	120(%rdi), %xmm0
	movdqu	104(%rdi), %xmm1
	movq	%fs:40, %rax
	movq	%rax, 40(%rsp)
	xorl	%eax, %eax
	movq	160(%rdi), %rax
	movhlps	%xmm0, %xmm4
	movaps	%xmm1, (%rsp)
	movq	%xmm1, %r13
	movq	%xmm0, %r14
	movq	%xmm4, %rbx
	leaq	8(%rax), %rbp
	movaps	%xmm0, 16(%rsp)
	addq	$8, %rbx
	cmpq	%rbx, %rbp
	jbe	.L223
	.p2align 4,,10
	.p2align 3
.L224:
	movq	(%rbx), %rdi
	movl	$512, %esi
	addq	$8, %rbx
	call	_ZdlPvm@PLT
	cmpq	%rbx, %rbp
	ja	.L224
.L223:
	movdqa	(%rsp), %xmm2
	movdqa	16(%rsp), %xmm3
	subq	$1, %r14
	movb	$5, 39(%rsp)
	movups	%xmm2, 136(%r12)
	movups	%xmm3, 152(%r12)
	cmpq	%r14, %r13
	je	.L225
	movb	$5, 0(%r13)
	addq	$1, %r13
	movq	%r13, 136(%r12)
.L222:
	movq	40(%rsp), %rax
	subq	%fs:40, %rax
	jne	.L230
	addq	$48, %rsp
	.cfi_remember_state
	.cfi_def_cfa_offset 48
	popq	%rbx
	.cfi_def_cfa_offset 40
	popq	%rbp
	.cfi_def_cfa_offset 32
	popq	%r12
	.cfi_def_cfa_offset 24
	popq	%r13
	.cfi_def_cfa_offset 16
	popq	%r14
	.cfi_def_cfa_offset 8
	ret
	.p2align 4,,10
	.p2align 3
.L225:
	.cfi_restore_state
	leaq	39(%rsp), %rsi
	leaq	88(%r12), %rdi
	call	_ZNSt5dequeIN8opendnp312FunctionCodeESaIS1_EE16_M_push_back_auxIJS1_EEEvDpOT_@PLT
	jmp	.L222
.L230:
	call	__stack_chk_fail@PLT
	.cfi_endproc
.LFE3202:
	.size	_ZN8opendnp311CommandTask17LoadDirectOperateEv, .-_ZN8opendnp311CommandTask17LoadDirectOperateEv
	.section	.text.unlikely
	.align 2
.LCOLDB5:
	.text
.LHOTB5:
	.align 2
	.p2align 4
	.globl	_ZN8opendnp311CommandTask19CreateDirectOperateEONS_10CommandSetERNS_18IMasterApplicationERKSt8functionIFvRKNS_18ICommandTaskResultEEERKNS_10TaskConfigEN7openpal6LoggerE
	.type	_ZN8opendnp311CommandTask19CreateDirectOperateEONS_10CommandSetERNS_18IMasterApplicationERKSt8functionIFvRKNS_18ICommandTaskResultEEERKNS_10TaskConfigEN7openpal6LoggerE, @function
_ZN8opendnp311CommandTask19CreateDirectOperateEONS_10CommandSetERNS_18IMasterApplicationERKSt8functionIFvRKNS_18ICommandTaskResultEEERKNS_10TaskConfigEN7openpal6LoggerE:
.LFB3176:
	.cfi_startproc
	.cfi_personality 0x9b,DW.ref.__gxx_personality_v0
	.cfi_lsda 0x1b,.LLSDA3176
	endbr64
	pushq	%r15
	.cfi_def_cfa_offset 16
	.cfi_offset 15, -16
	pushq	%r14
	.cfi_def_cfa_offset 24
	.cfi_offset 14, -24
	movq	%rdx, %r14
	pushq	%r13
	.cfi_def_cfa_offset 32
	.cfi_offset 13, -32
	movq	%rsi, %r13
	pushq	%r12
	.cfi_def_cfa_offset 40
	.cfi_offset 12, -40
	movq	%rdi, %r12
	movl	$248, %edi
	pushq	%rbp
	.cfi_def_cfa_offset 48
	.cfi_offset 6, -48
	pushq	%rbx
	.cfi_def_cfa_offset 56
	.cfi_offset 3, -56
	movq	%r9, %rbx
	subq	$88, %rsp
	.cfi_def_cfa_offset 144
	movq	%rcx, 8(%rsp)
	movq	%r8, (%rsp)
	movq	%fs:40, %rax
	movq	%rax, 72(%rsp)
	xorl	%eax, %eax
.LEHB13:
	call	_Znwm@PLT
.LEHE13:
	movdqu	(%rbx), %xmm2
	movq	(%rsp), %r8
	movq	%rax, %rbp
	movq	.LC3(%rip), %rax
	movq	8(%rsp), %rcx
	leaq	16(%rbp), %r15
	movq	%rbp, %xmm1
	movaps	%xmm2, 32(%rsp)
	movq	%rax, 8(%rbp)
	movq	_ZTVSt23_Sp_counted_ptr_inplaceIN8opendnp311CommandTaskESaIS1_ELN9__gnu_cxx12_Lock_policyE2EE@GOTPCREL(%rip), %rax
	movq	%r15, %xmm0
	punpcklqdq	%xmm1, %xmm0
	addq	$16, %rax
	movaps	%xmm0, 16(%rsp)
	movq	%rax, 0(%rbp)
	movq	8(%rbx), %rax
	testq	%rax, %rax
	je	.L232
	movq	__libc_single_threaded@GOTPCREL(%rip), %rdx
	cmpb	$0, (%rdx)
	je	.L233
	addl	$1, 8(%rax)
.L232:
	movdqu	16(%rbx), %xmm3
	movaps	%xmm3, 48(%rsp)
	movq	56(%rsp), %rax
	testq	%rax, %rax
	je	.L234
	movq	__libc_single_threaded@GOTPCREL(%rip), %rdx
	cmpb	$0, (%rdx)
	je	.L235
	addl	$1, 8(%rax)
.L234:
	leaq	32(%rsp), %rbx
	movq	%r14, %rdx
	movq	%r13, %rsi
	movq	%r15, %rdi
	movq	%rbx, %r9
.LEHB14:
	call	_ZN8opendnp311CommandTaskC1EONS_10CommandSetERNS_18IMasterApplicationERKSt8functionIFvRKNS_18ICommandTaskResultEEERKNS_10TaskConfigEN7openpal6LoggerE@PLT
.LEHE14:
	movq	56(%rsp), %r13
	testq	%r13, %r13
	je	.L237
	movq	__libc_single_threaded@GOTPCREL(%rip), %rbx
	cmpb	$0, (%rbx)
	je	.L238
	movl	8(%r13), %eax
	leal	-1(%rax), %edx
	movl	%edx, 8(%r13)
.L239:
	cmpl	$1, %eax
	je	.L265
.L237:
	movq	40(%rsp), %r13
	testq	%r13, %r13
	je	.L244
	movq	__libc_single_threaded@GOTPCREL(%rip), %rbx
	cmpb	$0, (%rbx)
	je	.L245
	movl	8(%r13), %eax
	leal	-1(%rax), %edx
	movl	%edx, 8(%r13)
.L246:
	cmpl	$1, %eax
	je	.L266
.L244:
	movq	%r15, %rdi
.LEHB15:
	call	_ZN8opendnp311CommandTask17LoadDirectOperateEv@PLT
.LEHE15:
	movdqa	16(%rsp), %xmm4
	movups	%xmm4, (%r12)
	movq	72(%rsp), %rax
	subq	%fs:40, %rax
	jne	.L267
	addq	$88, %rsp
	.cfi_remember_state
	.cfi_def_cfa_offset 56
	movq	%r12, %rax
	popq	%rbx
	.cfi_def_cfa_offset 48
	popq	%rbp
	.cfi_def_cfa_offset 40
	popq	%r12
	.cfi_def_cfa_offset 32
	popq	%r13
	.cfi_def_cfa_offset 24
	popq	%r14
	.cfi_def_cfa_offset 16
	popq	%r15
	.cfi_def_cfa_offset 8
	ret
	.p2align 4,,10
	.p2align 3
.L233:
	.cfi_restore_state
	lock addl	$1, 8(%rax)
	jmp	.L232
	.p2align 4,,10
	.p2align 3
.L235:
	lock addl	$1, 8(%rax)
	jmp	.L234
	.p2align 4,,10
	.p2align 3
.L265:
	movq	0(%r13), %rax
	movq	%r13, %rdi
	call	*16(%rax)
	cmpb	$0, (%rbx)
	je	.L241
	movl	12(%r13), %eax
	leal	-1(%rax), %edx
	movl	%edx, 12(%r13)
.L242:
	cmpl	$1, %eax
	jne	.L237
	movq	0(%r13), %rax
	movq	%r13, %rdi
	call	*24(%rax)
	jmp	.L237
	.p2align 4,,10
	.p2align 3
.L266:
	movq	0(%r13), %rax
	movq	%r13, %rdi
	call	*16(%rax)
	cmpb	$0, (%rbx)
	je	.L248
	movl	12(%r13), %eax
	leal	-1(%rax), %edx
	movl	%edx, 12(%r13)
.L249:
	cmpl	$1, %eax
	jne	.L244
	movq	0(%r13), %rax
	movq	%r13, %rdi
	call	*24(%rax)
	jmp	.L244
	.p2align 4,,10
	.p2align 3
.L238:
	movl	$-1, %eax
	lock xaddl	%eax, 8(%r13)
	jmp	.L239
	.p2align 4,,10
	.p2align 3
.L245:
	movl	$-1, %eax
	lock xaddl	%eax, 8(%r13)
	jmp	.L246
	.p2align 4,,10
	.p2align 3
.L241:
	movl	$-1, %eax
	lock xaddl	%eax, 12(%r13)
	jmp	.L242
	.p2align 4,,10
	.p2align 3
.L248:
	movl	$-1, %eax
	lock xaddl	%eax, 12(%r13)
	jmp	.L249
.L267:
	call	__stack_chk_fail@PLT
.L255:
	endbr64
	movq	%rax, %r12
	jmp	.L251
.L254:
	endbr64
	movq	%rax, %r12
	jmp	.L252
	.section	.gcc_except_table
.LLSDA3176:
	.byte	0xff
	.byte	0xff
	.byte	0x1
	.uleb128 .LLSDACSE3176-.LLSDACSB3176
.LLSDACSB3176:
	.uleb128 .LEHB13-.LFB3176
	.uleb128 .LEHE13-.LEHB13
	.uleb128 0
	.uleb128 0
	.uleb128 .LEHB14-.LFB3176
	.uleb128 .LEHE14-.LEHB14
	.uleb128 .L255-.LFB3176
	.uleb128 0
	.uleb128 .LEHB15-.LFB3176
	.uleb128 .LEHE15-.LEHB15
	.uleb128 .L254-.LFB3176
	.uleb128 0
.LLSDACSE3176:
	.text
	.cfi_endproc
	.section	.text.unlikely
	.cfi_startproc
	.cfi_personality 0x9b,DW.ref.__gxx_personality_v0
	.cfi_lsda 0x1b,.LLSDAC3176
	.type	_ZN8opendnp311CommandTask19CreateDirectOperateEONS_10CommandSetERNS_18IMasterApplicationERKSt8functionIFvRKNS_18ICommandTaskResultEEERKNS_10TaskConfigEN7openpal6LoggerE.cold, @function
_ZN8opendnp311CommandTask19CreateDirectOperateEONS_10CommandSetERNS_18IMasterApplicationERKSt8functionIFvRKNS_18ICommandTaskResultEEERKNS_10TaskConfigEN7openpal6LoggerE.cold:
.LFSB3176:
.L251:
	.cfi_def_cfa_offset 144
	.cfi_offset 3, -56
	.cfi_offset 6, -48
	.cfi_offset 12, -40
	.cfi_offset 13, -32
	.cfi_offset 14, -24
	.cfi_offset 15, -16
	movq	%rbx, %rdi
	call	_ZN7openpal6LoggerD1Ev@PLT
	movq	%rbp, %rdi
	movl	$248, %esi
	call	_ZdlPvm@PLT
	movq	%r12, %rdi
.LEHB16:
	call	_Unwind_Resume@PLT
.L252:
	movq	%rbp, %rdi
	call	_ZNSt16_Sp_counted_baseILN9__gnu_cxx12_Lock_policyE2EE10_M_releaseEv@PLT
	movq	%r12, %rdi
	call	_Unwind_Resume@PLT
.LEHE16:
	.cfi_endproc
.LFE3176:
	.section	.gcc_except_table
.LLSDAC3176:
	.byte	0xff
	.byte	0xff
	.byte	0x1
	.uleb128 .LLSDACSEC3176-.LLSDACSBC3176
.LLSDACSBC3176:
	.uleb128 .LEHB16-.LCOLDB5
	.uleb128 .LEHE16-.LEHB16
	.uleb128 0
	.uleb128 0
.LLSDACSEC3176:
	.section	.text.unlikely
	.text
	.size	_ZN8opendnp311CommandTask19CreateDirectOperateEONS_10CommandSetERNS_18IMasterApplicationERKSt8functionIFvRKNS_18ICommandTaskResultEEERKNS_10TaskConfigEN7openpal6LoggerE, .-_ZN8opendnp311CommandTask19CreateDirectOperateEONS_10CommandSetERNS_18IMasterApplicationERKSt8functionIFvRKNS_18ICommandTaskResultEEERKNS_10TaskConfigEN7openpal6LoggerE
	.section	.text.unlikely
	.size	_ZN8opendnp311CommandTask19CreateDirectOperateEONS_10CommandSetERNS_18IMasterApplicationERKSt8functionIFvRKNS_18ICommandTaskResultEEERKNS_10TaskConfigEN7openpal6LoggerE.cold, .-_ZN8opendnp311CommandTask19CreateDirectOperateEONS_10CommandSetERNS_18IMasterApplicationERKSt8functionIFvRKNS_18ICommandTaskResultEEERKNS_10TaskConfigEN7openpal6LoggerE.cold
.LCOLDE5:
	.text
.LHOTE5:
	.weak	_ZTSSt11_Mutex_baseILN9__gnu_cxx12_Lock_policyE2EE
	.section	.rodata._ZTSSt11_Mutex_baseILN9__gnu_cxx12_Lock_policyE2EE,"aG",@progbits,_ZTSSt11_Mutex_baseILN9__gnu_cxx12_Lock_policyE2EE,comdat
	.align 32
	.type	_ZTSSt11_Mutex_baseILN9__gnu_cxx12_Lock_policyE2EE, @object
	.size	_ZTSSt11_Mutex_baseILN9__gnu_cxx12_Lock_policyE2EE, 47
_ZTSSt11_Mutex_baseILN9__gnu_cxx12_Lock_policyE2EE:
	.string	"St11_Mutex_baseILN9__gnu_cxx12_Lock_policyE2EE"
	.weak	_ZTISt11_Mutex_baseILN9__gnu_cxx12_Lock_policyE2EE
	.section	.data.rel.ro._ZTISt11_Mutex_baseILN9__gnu_cxx12_Lock_policyE2EE,"awG",@progbits,_ZTISt11_Mutex_baseILN9__gnu_cxx12_Lock_policyE2EE,comdat
	.align 8
	.type	_ZTISt11_Mutex_baseILN9__gnu_cxx12_Lock_policyE2EE, @object
	.size	_ZTISt11_Mutex_baseILN9__gnu_cxx12_Lock_policyE2EE, 16
_ZTISt11_Mutex_baseILN9__gnu_cxx12_Lock_policyE2EE:
	.quad	_ZTVN10__cxxabiv117__class_type_infoE+16
	.quad	_ZTSSt11_Mutex_baseILN9__gnu_cxx12_Lock_policyE2EE
	.weak	_ZTSSt19_Sp_make_shared_tag
	.section	.rodata._ZTSSt19_Sp_make_shared_tag,"aG",@progbits,_ZTSSt19_Sp_make_shared_tag,comdat
	.align 16
	.type	_ZTSSt19_Sp_make_shared_tag, @object
	.size	_ZTSSt19_Sp_make_shared_tag, 24
_ZTSSt19_Sp_make_shared_tag:
	.string	"St19_Sp_make_shared_tag"
	.weak	_ZTSSt16_Sp_counted_baseILN9__gnu_cxx12_Lock_policyE2EE
	.section	.rodata._ZTSSt16_Sp_counted_baseILN9__gnu_cxx12_Lock_policyE2EE,"aG",@progbits,_ZTSSt16_Sp_counted_baseILN9__gnu_cxx12_Lock_policyE2EE,comdat
	.align 32
	.type	_ZTSSt16_Sp_counted_baseILN9__gnu_cxx12_Lock_policyE2EE, @object
	.size	_ZTSSt16_Sp_counted_baseILN9__gnu_cxx12_Lock_policyE2EE, 52
_ZTSSt16_Sp_counted_baseILN9__gnu_cxx12_Lock_policyE2EE:
	.string	"St16_Sp_counted_baseILN9__gnu_cxx12_Lock_policyE2EE"
	.weak	_ZTISt16_Sp_counted_baseILN9__gnu_cxx12_Lock_policyE2EE
	.section	.data.rel.ro._ZTISt16_Sp_counted_baseILN9__gnu_cxx12_Lock_policyE2EE,"awG",@progbits,_ZTISt16_Sp_counted_baseILN9__gnu_cxx12_Lock_policyE2EE,comdat
	.align 8
	.type	_ZTISt16_Sp_counted_baseILN9__gnu_cxx12_Lock_policyE2EE, @object
	.size	_ZTISt16_Sp_counted_baseILN9__gnu_cxx12_Lock_policyE2EE, 24
_ZTISt16_Sp_counted_baseILN9__gnu_cxx12_Lock_policyE2EE:
	.quad	_ZTVN10__cxxabiv120__si_class_type_infoE+16
	.quad	_ZTSSt16_Sp_counted_baseILN9__gnu_cxx12_Lock_policyE2EE
	.quad	_ZTISt11_Mutex_baseILN9__gnu_cxx12_Lock_policyE2EE
	.weak	_ZTSN8opendnp311CommandTaskE
	.section	.rodata._ZTSN8opendnp311CommandTaskE,"aG",@progbits,_ZTSN8opendnp311CommandTaskE,comdat
	.align 16
	.type	_ZTSN8opendnp311CommandTaskE, @object
	.size	_ZTSN8opendnp311CommandTaskE, 25
_ZTSN8opendnp311CommandTaskE:
	.string	"N8opendnp311CommandTaskE"
	.weak	_ZTIN8opendnp311CommandTaskE
	.section	.data.rel.ro._ZTIN8opendnp311CommandTaskE,"awG",@progbits,_ZTIN8opendnp311CommandTaskE,comdat
	.align 8
	.type	_ZTIN8opendnp311CommandTaskE, @object
	.size	_ZTIN8opendnp311CommandTaskE, 24
_ZTIN8opendnp311CommandTaskE:
	.quad	_ZTVN10__cxxabiv120__si_class_type_infoE+16
	.quad	_ZTSN8opendnp311CommandTaskE
	.quad	_ZTIN8opendnp311IMasterTaskE
	.weak	_ZTSSt23_Sp_counted_ptr_inplaceIN8opendnp311CommandTaskESaIS1_ELN9__gnu_cxx12_Lock_policyE2EE
	.section	.rodata._ZTSSt23_Sp_counted_ptr_inplaceIN8opendnp311CommandTaskESaIS1_ELN9__gnu_cxx12_Lock_policyE2EE,"aG",@progbits,_ZTSSt23_Sp_counted_ptr_inplaceIN8opendnp311CommandTaskESaIS1_ELN9__gnu_cxx12_Lock_policyE2EE,comdat
	.align 32
	.type	_ZTSSt23_Sp_counted_ptr_inplaceIN8opendnp311CommandTaskESaIS1_ELN9__gnu_cxx12_Lock_policyE2EE, @object
	.size	_ZTSSt23_Sp_counted_ptr_inplaceIN8opendnp311CommandTaskESaIS1_ELN9__gnu_cxx12_Lock_policyE2EE, 90
_ZTSSt23_Sp_counted_ptr_inplaceIN8opendnp311CommandTaskESaIS1_ELN9__gnu_cxx12_Lock_policyE2EE:
	.string	"St23_Sp_counted_ptr_inplaceIN8opendnp311CommandTaskESaIS1_ELN9__gnu_cxx12_Lock_policyE2EE"
	.weak	_ZTISt23_Sp_counted_ptr_inplaceIN8opendnp311CommandTaskESaIS1_ELN9__gnu_cxx12_Lock_policyE2EE
	.section	.data.rel.ro._ZTISt23_Sp_counted_ptr_inplaceIN8opendnp311CommandTaskESaIS1_ELN9__gnu_cxx12_Lock_policyE2EE,"awG",@progbits,_ZTISt23_Sp_counted_ptr_inplaceIN8opendnp311CommandTaskESaIS1_ELN9__gnu_cxx12_Lock_policyE2EE,comdat
	.align 8
	.type	_ZTISt23_Sp_counted_ptr_inplaceIN8opendnp311CommandTaskESaIS1_ELN9__gnu_cxx12_Lock_policyE2EE, @object
	.size	_ZTISt23_Sp_counted_ptr_inplaceIN8opendnp311CommandTaskESaIS1_ELN9__gnu_cxx12_Lock_policyE2EE, 24
_ZTISt23_Sp_counted_ptr_inplaceIN8opendnp311CommandTaskESaIS1_ELN9__gnu_cxx12_Lock_policyE2EE:
	.quad	_ZTVN10__cxxabiv120__si_class_type_infoE+16
	.quad	_ZTSSt23_Sp_counted_ptr_inplaceIN8opendnp311CommandTaskESaIS1_ELN9__gnu_cxx12_Lock_policyE2EE
	.quad	_ZTISt16_Sp_counted_baseILN9__gnu_cxx12_Lock_policyE2EE
	.weak	_ZTVN8opendnp311CommandTaskE
	.section	.data.rel.ro._ZTVN8opendnp311CommandTaskE,"awG",@progbits,_ZTVN8opendnp311CommandTaskE,comdat
	.align 8
	.type	_ZTVN8opendnp311CommandTaskE, @object
	.size	_ZTVN8opendnp311CommandTaskE, 120
_ZTVN8opendnp311CommandTaskE:
	.quad	0
	.quad	_ZTIN8opendnp311CommandTaskE
	.quad	_ZN8opendnp311CommandTaskD1Ev
	.quad	_ZN8opendnp311CommandTaskD0Ev
	.quad	_ZNK8opendnp311IMasterTask10IsAuthTaskEv
	.quad	_ZNK8opendnp311CommandTask4NameEv
	.quad	_ZNK8opendnp311CommandTask8PriorityEv
	.quad	_ZNK8opendnp311CommandTask19BlocksLowerPriorityEv
	.quad	_ZNK8opendnp311CommandTask11IsRecurringEv
	.quad	_ZN8opendnp311CommandTask12BuildRequestERNS_11APDURequestEh
	.quad	_ZN8opendnp311CommandTask10InitializeEv
	.quad	_ZN8opendnp311CommandTask15ProcessResponseERKNS_18APDUResponseHeaderERKN7openpal6RSliceE
	.quad	_ZN8opendnp311CommandTask14OnTaskCompleteENS_14TaskCompletionEN7openpal18MonotonicTimestampE
	.quad	_ZNK8opendnp311CommandTask9IsEnabledEv
	.quad	_ZNK8opendnp311CommandTask11GetTaskTypeEv
	.weak	_ZTVSt23_Sp_counted_ptr_inplaceIN8opendnp311CommandTaskESaIS1_ELN9__gnu_cxx12_Lock_policyE2EE
	.section	.data.rel.ro._ZTVSt23_Sp_counted_ptr_inplaceIN8opendnp311CommandTaskESaIS1_ELN9__gnu_cxx12_Lock_policyE2EE,"awG",@progbits,_ZTVSt23_Sp_counted_ptr_inplaceIN8opendnp311CommandTaskESaIS1_ELN9__gnu_cxx12_Lock_policyE2EE,comdat
	.align 8
	.type	_ZTVSt23_Sp_counted_ptr_inplaceIN8opendnp311CommandTaskESaIS1_ELN9__gnu_cxx12_Lock_policyE2EE, @object
	.size	_ZTVSt23_Sp_counted_ptr_inplaceIN8opendnp311CommandTaskESaIS1_ELN9__gnu_cxx12_Lock_policyE2EE, 56
_ZTVSt23_Sp_counted_ptr_inplaceIN8opendnp311CommandTaskESaIS1_ELN9__gnu_cxx12_Lock_policyE2EE:
	.quad	0
	.quad	_ZTISt23_Sp_counted_ptr_inplaceIN8opendnp311CommandTaskESaIS1_ELN9__gnu_cxx12_Lock_policyE2EE
	.quad	_ZNSt23_Sp_counted_ptr_inplaceIN8opendnp311CommandTaskESaIS1_ELN9__gnu_cxx12_Lock_policyE2EED1Ev
	.quad	_ZNSt23_Sp_counted_ptr_inplaceIN8opendnp311CommandTaskESaIS1_ELN9__gnu_cxx12_Lock_policyE2EED0Ev
	.quad	_ZNSt23_Sp_counted_ptr_inplaceIN8opendnp311CommandTaskESaIS1_ELN9__gnu_cxx12_Lock_policyE2EE10_M_disposeEv
	.quad	_ZNSt23_Sp_counted_ptr_inplaceIN8opendnp311CommandTaskESaIS1_ELN9__gnu_cxx12_Lock_policyE2EE10_M_destroyEv
	.quad	_ZNSt23_Sp_counted_ptr_inplaceIN8opendnp311CommandTaskESaIS1_ELN9__gnu_cxx12_Lock_policyE2EE14_M_get_deleterERKSt9type_info
	.weak	_ZZNSt19_Sp_make_shared_tag5_S_tiEvE5__tag
	.section	.rodata._ZZNSt19_Sp_make_shared_tag5_S_tiEvE5__tag,"aG",@progbits,_ZZNSt19_Sp_make_shared_tag5_S_tiEvE5__tag,comdat
	.align 8
	.type	_ZZNSt19_Sp_make_shared_tag5_S_tiEvE5__tag, @gnu_unique_object
	.size	_ZZNSt19_Sp_make_shared_tag5_S_tiEvE5__tag, 16
_ZZNSt19_Sp_make_shared_tag5_S_tiEvE5__tag:
	.zero	16
	.section	.rodata.cst8,"aM",@progbits,8
	.align 8
.LC3:
	.long	1
	.long	1
	.hidden	DW.ref.__gxx_personality_v0
	.weak	DW.ref.__gxx_personality_v0
	.section	.data.rel.local.DW.ref.__gxx_personality_v0,"awG",@progbits,DW.ref.__gxx_personality_v0,comdat
	.align 8
	.type	DW.ref.__gxx_personality_v0, @object
	.size	DW.ref.__gxx_personality_v0, 8
DW.ref.__gxx_personality_v0:
	.quad	__gxx_personality_v0
	.ident	"GCC: (Ubuntu 11.4.0-1ubuntu1~22.04) 11.4.0"
	.section	.note.GNU-stack,"",@progbits
	.section	.note.gnu.property,"a"
	.align 8
	.long	1f - 0f
	.long	4f - 1f
	.long	5
0:
	.string	"GNU"
1:
	.align 8
	.long	0xc0000002
	.long	3f - 2f
2:
	.long	0x3
3:
	.align 8
4:
