	.file	"EmptyResponseTask.cpp"
	.text
	.section	.text._ZNK8opendnp311IMasterTask10IsAuthTaskEv,"axG",@progbits,_ZNK8opendnp311IMasterTask10IsAuthTaskEv,comdat
	.align 2
	.p2align 4
	.weak	_ZNK8opendnp311IMasterTask10IsAuthTaskEv
	.type	_ZNK8opendnp311IMasterTask10IsAuthTaskEv, @function
_ZNK8opendnp311IMasterTask10IsAuthTaskEv:
.LFB2455:
	.cfi_startproc
	endbr64
	xorl	%eax, %eax
	ret
	.cfi_endproc
.LFE2455:
	.size	_ZNK8opendnp311IMasterTask10IsAuthTaskEv, .-_ZNK8opendnp311IMasterTask10IsAuthTaskEv
	.section	.text._ZN8opendnp311IMasterTask10InitializeEv,"axG",@progbits,_ZN8opendnp311IMasterTask10InitializeEv,comdat
	.align 2
	.p2align 4
	.weak	_ZN8opendnp311IMasterTask10InitializeEv
	.type	_ZN8opendnp311IMasterTask10InitializeEv, @function
_ZN8opendnp311IMasterTask10InitializeEv:
.LFB2456:
	.cfi_startproc
	endbr64
	ret
	.cfi_endproc
.LFE2456:
	.size	_ZN8opendnp311IMasterTask10InitializeEv, .-_ZN8opendnp311IMasterTask10InitializeEv
	.section	.text._ZNK8opendnp321SimpleRequestTaskBase11IsRecurringEv,"axG",@progbits,_ZNK8opendnp321SimpleRequestTaskBase11IsRecurringEv,comdat
	.align 2
	.p2align 4
	.weak	_ZNK8opendnp321SimpleRequestTaskBase11IsRecurringEv
	.type	_ZNK8opendnp321SimpleRequestTaskBase11IsRecurringEv, @function
_ZNK8opendnp321SimpleRequestTaskBase11IsRecurringEv:
.LFB2457:
	.cfi_startproc
	endbr64
	xorl	%eax, %eax
	ret
	.cfi_endproc
.LFE2457:
	.size	_ZNK8opendnp321SimpleRequestTaskBase11IsRecurringEv, .-_ZNK8opendnp321SimpleRequestTaskBase11IsRecurringEv
	.section	.text._ZNK8opendnp321SimpleRequestTaskBase8PriorityEv,"axG",@progbits,_ZNK8opendnp321SimpleRequestTaskBase8PriorityEv,comdat
	.align 2
	.p2align 4
	.weak	_ZNK8opendnp321SimpleRequestTaskBase8PriorityEv
	.type	_ZNK8opendnp321SimpleRequestTaskBase8PriorityEv, @function
_ZNK8opendnp321SimpleRequestTaskBase8PriorityEv:
.LFB2458:
	.cfi_startproc
	endbr64
	movl	92(%rdi), %eax
	ret
	.cfi_endproc
.LFE2458:
	.size	_ZNK8opendnp321SimpleRequestTaskBase8PriorityEv, .-_ZNK8opendnp321SimpleRequestTaskBase8PriorityEv
	.section	.text._ZNK8opendnp321SimpleRequestTaskBase19BlocksLowerPriorityEv,"axG",@progbits,_ZNK8opendnp321SimpleRequestTaskBase19BlocksLowerPriorityEv,comdat
	.align 2
	.p2align 4
	.weak	_ZNK8opendnp321SimpleRequestTaskBase19BlocksLowerPriorityEv
	.type	_ZNK8opendnp321SimpleRequestTaskBase19BlocksLowerPriorityEv, @function
_ZNK8opendnp321SimpleRequestTaskBase19BlocksLowerPriorityEv:
.LFB2459:
	.cfi_startproc
	endbr64
	xorl	%eax, %eax
	ret
	.cfi_endproc
.LFE2459:
	.size	_ZNK8opendnp321SimpleRequestTaskBase19BlocksLowerPriorityEv, .-_ZNK8opendnp321SimpleRequestTaskBase19BlocksLowerPriorityEv
	.section	.text._ZNK8opendnp321SimpleRequestTaskBase9IsEnabledEv,"axG",@progbits,_ZNK8opendnp321SimpleRequestTaskBase9IsEnabledEv,comdat
	.align 2
	.p2align 4
	.weak	_ZNK8opendnp321SimpleRequestTaskBase9IsEnabledEv
	.type	_ZNK8opendnp321SimpleRequestTaskBase9IsEnabledEv, @function
_ZNK8opendnp321SimpleRequestTaskBase9IsEnabledEv:
.LFB2460:
	.cfi_startproc
	endbr64
	movl	$1, %eax
	ret
	.cfi_endproc
.LFE2460:
	.size	_ZNK8opendnp321SimpleRequestTaskBase9IsEnabledEv, .-_ZNK8opendnp321SimpleRequestTaskBase9IsEnabledEv
	.section	.text._ZNK8opendnp321SimpleRequestTaskBase11GetTaskTypeEv,"axG",@progbits,_ZNK8opendnp321SimpleRequestTaskBase11GetTaskTypeEv,comdat
	.align 2
	.p2align 4
	.weak	_ZNK8opendnp321SimpleRequestTaskBase11GetTaskTypeEv
	.type	_ZNK8opendnp321SimpleRequestTaskBase11GetTaskTypeEv, @function
_ZNK8opendnp321SimpleRequestTaskBase11GetTaskTypeEv:
.LFB2461:
	.cfi_startproc
	endbr64
	movl	$7, %eax
	ret
	.cfi_endproc
.LFE2461:
	.size	_ZNK8opendnp321SimpleRequestTaskBase11GetTaskTypeEv, .-_ZNK8opendnp321SimpleRequestTaskBase11GetTaskTypeEv
	.section	.text._ZNK8opendnp317EmptyResponseTask4NameEv,"axG",@progbits,_ZNK8opendnp317EmptyResponseTask4NameEv,comdat
	.align 2
	.p2align 4
	.weak	_ZNK8opendnp317EmptyResponseTask4NameEv
	.type	_ZNK8opendnp317EmptyResponseTask4NameEv, @function
_ZNK8opendnp317EmptyResponseTask4NameEv:
.LFB2462:
	.cfi_startproc
	endbr64
	movq	128(%rdi), %rax
	ret
	.cfi_endproc
.LFE2462:
	.size	_ZNK8opendnp317EmptyResponseTask4NameEv, .-_ZNK8opendnp317EmptyResponseTask4NameEv
	.text
	.align 2
	.p2align 4
	.globl	_ZN8opendnp317EmptyResponseTask15ProcessResponseERKNS_18APDUResponseHeaderERKN7openpal6RSliceE
	.type	_ZN8opendnp317EmptyResponseTask15ProcessResponseERKNS_18APDUResponseHeaderERKN7openpal6RSliceE, @function
_ZN8opendnp317EmptyResponseTask15ProcessResponseERKNS_18APDUResponseHeaderERKN7openpal6RSliceE:
.LFB2474:
	.cfi_startproc
	endbr64
	subq	$8, %rsp
	.cfi_def_cfa_offset 16
	call	_ZN8opendnp311IMasterTask20ValidateNullResponseERKNS_18APDUResponseHeaderERKN7openpal6RSliceE@PLT
	addq	$8, %rsp
	.cfi_def_cfa_offset 8
	addl	%eax, %eax
	ret
	.cfi_endproc
.LFE2474:
	.size	_ZN8opendnp317EmptyResponseTask15ProcessResponseERKNS_18APDUResponseHeaderERKN7openpal6RSliceE, .-_ZN8opendnp317EmptyResponseTask15ProcessResponseERKNS_18APDUResponseHeaderERKN7openpal6RSliceE
	.section	.text._ZN8opendnp317EmptyResponseTask14OnTaskCompleteENS_14TaskCompletionEN7openpal18MonotonicTimestampE,"axG",@progbits,_ZN8opendnp317EmptyResponseTask14OnTaskCompleteENS_14TaskCompletionEN7openpal18MonotonicTimestampE,comdat
	.align 2
	.p2align 4
	.weak	_ZN8opendnp317EmptyResponseTask14OnTaskCompleteENS_14TaskCompletionEN7openpal18MonotonicTimestampE
	.type	_ZN8opendnp317EmptyResponseTask14OnTaskCompleteENS_14TaskCompletionEN7openpal18MonotonicTimestampE, @function
_ZN8opendnp317EmptyResponseTask14OnTaskCompleteENS_14TaskCompletionEN7openpal18MonotonicTimestampE:
.LFB2463:
	.cfi_startproc
	endbr64
	subq	$8, %rsp
	.cfi_def_cfa_offset 16
	call	_ZN7openpal18MonotonicTimestamp3MaxEv@PLT
	addq	$8, %rsp
	.cfi_def_cfa_offset 8
	movq	%rax, %rdx
	xorl	%eax, %eax
	ret
	.cfi_endproc
.LFE2463:
	.size	_ZN8opendnp317EmptyResponseTask14OnTaskCompleteENS_14TaskCompletionEN7openpal18MonotonicTimestampE, .-_ZN8opendnp317EmptyResponseTask14OnTaskCompleteENS_14TaskCompletionEN7openpal18MonotonicTimestampE
	.section	.text._ZN8opendnp317EmptyResponseTaskD2Ev,"axG",@progbits,_ZN8opendnp317EmptyResponseTaskD5Ev,comdat
	.align 2
	.p2align 4
	.weak	_ZN8opendnp317EmptyResponseTaskD2Ev
	.type	_ZN8opendnp317EmptyResponseTaskD2Ev, @function
_ZN8opendnp317EmptyResponseTaskD2Ev:
.LFB3107:
	.cfi_startproc
	.cfi_personality 0x9b,DW.ref.__gxx_personality_v0
	.cfi_lsda 0x1b,.LLSDA3107
	endbr64
	movq	_ZTVN8opendnp317EmptyResponseTaskE@GOTPCREL(%rip), %rax
	pushq	%rbp
	.cfi_def_cfa_offset 16
	.cfi_offset 6, -16
	movq	%rdi, %rbp
	addq	$16, %rax
	movq	%rax, (%rdi)
	movq	128(%rdi), %rdi
	leaq	144(%rbp), %rax
	cmpq	%rax, %rdi
	je	.L15
	movq	144(%rbp), %rax
	leaq	1(%rax), %rsi
	call	_ZdlPvm@PLT
.L15:
	movq	_ZTVN8opendnp321SimpleRequestTaskBaseE@GOTPCREL(%rip), %rax
	addq	$16, %rax
	movq	%rax, 0(%rbp)
	movq	112(%rbp), %rax
	testq	%rax, %rax
	je	.L16
	leaq	96(%rbp), %rdi
	movl	$3, %edx
	movq	%rdi, %rsi
	call	*%rax
.L16:
	movq	%rbp, %rdi
	popq	%rbp
	.cfi_def_cfa_offset 8
	jmp	_ZN8opendnp311IMasterTaskD2Ev@PLT
	.cfi_endproc
.LFE3107:
	.globl	__gxx_personality_v0
	.section	.gcc_except_table._ZN8opendnp317EmptyResponseTaskD2Ev,"aG",@progbits,_ZN8opendnp317EmptyResponseTaskD5Ev,comdat
.LLSDA3107:
	.byte	0xff
	.byte	0xff
	.byte	0x1
	.uleb128 .LLSDACSE3107-.LLSDACSB3107
.LLSDACSB3107:
.LLSDACSE3107:
	.section	.text._ZN8opendnp317EmptyResponseTaskD2Ev,"axG",@progbits,_ZN8opendnp317EmptyResponseTaskD5Ev,comdat
	.size	_ZN8opendnp317EmptyResponseTaskD2Ev, .-_ZN8opendnp317EmptyResponseTaskD2Ev
	.weak	_ZN8opendnp317EmptyResponseTaskD1Ev
	.set	_ZN8opendnp317EmptyResponseTaskD1Ev,_ZN8opendnp317EmptyResponseTaskD2Ev
	.section	.text._ZN8opendnp317EmptyResponseTaskD0Ev,"axG",@progbits,_ZN8opendnp317EmptyResponseTaskD5Ev,comdat
	.align 2
	.p2align 4
	.weak	_ZN8opendnp317EmptyResponseTaskD0Ev
	.type	_ZN8opendnp317EmptyResponseTaskD0Ev, @function
_ZN8opendnp317EmptyResponseTaskD0Ev:
.LFB3109:
	.cfi_startproc
	.cfi_personality 0x9b,DW.ref.__gxx_personality_v0
	.cfi_lsda 0x1b,.LLSDA3109
	endbr64
	movq	_ZTVN8opendnp317EmptyResponseTaskE@GOTPCREL(%rip), %rax
	pushq	%rbp
	.cfi_def_cfa_offset 16
	.cfi_offset 6, -16
	movq	%rdi, %rbp
	addq	$16, %rax
	movq	%rax, (%rdi)
	movq	128(%rdi), %rdi
	leaq	144(%rbp), %rax
	cmpq	%rax, %rdi
	je	.L22
	movq	144(%rbp), %rax
	leaq	1(%rax), %rsi
	call	_ZdlPvm@PLT
.L22:
	movq	_ZTVN8opendnp321SimpleRequestTaskBaseE@GOTPCREL(%rip), %rax
	addq	$16, %rax
	movq	%rax, 0(%rbp)
	movq	112(%rbp), %rax
	testq	%rax, %rax
	je	.L23
	leaq	96(%rbp), %rdi
	movl	$3, %edx
	movq	%rdi, %rsi
	call	*%rax
.L23:
	movq	%rbp, %rdi
	call	_ZN8opendnp311IMasterTaskD2Ev@PLT
	movq	%rbp, %rdi
	movl	$160, %esi
	popq	%rbp
	.cfi_def_cfa_offset 8
	jmp	_ZdlPvm@PLT
	.cfi_endproc
.LFE3109:
	.section	.gcc_except_table._ZN8opendnp317EmptyResponseTaskD0Ev,"aG",@progbits,_ZN8opendnp317EmptyResponseTaskD5Ev,comdat
.LLSDA3109:
	.byte	0xff
	.byte	0xff
	.byte	0x1
	.uleb128 .LLSDACSE3109-.LLSDACSB3109
.LLSDACSB3109:
.LLSDACSE3109:
	.section	.text._ZN8opendnp317EmptyResponseTaskD0Ev,"axG",@progbits,_ZN8opendnp317EmptyResponseTaskD5Ev,comdat
	.size	_ZN8opendnp317EmptyResponseTaskD0Ev, .-_ZN8opendnp317EmptyResponseTaskD0Ev
	.section	.text._ZN7openpal6LoggerD2Ev,"axG",@progbits,_ZN7openpal6LoggerD5Ev,comdat
	.align 2
	.p2align 4
	.weak	_ZN7openpal6LoggerD2Ev
	.type	_ZN7openpal6LoggerD2Ev, @function
_ZN7openpal6LoggerD2Ev:
.LFB2070:
	.cfi_startproc
	endbr64
	pushq	%r12
	.cfi_def_cfa_offset 16
	.cfi_offset 12, -16
	pushq	%rbp
	.cfi_def_cfa_offset 24
	.cfi_offset 6, -24
	pushq	%rbx
	.cfi_def_cfa_offset 32
	.cfi_offset 3, -32
	movq	24(%rdi), %rbp
	movq	%rdi, %rbx
	testq	%rbp, %rbp
	je	.L30
	movq	__libc_single_threaded@GOTPCREL(%rip), %r12
	cmpb	$0, (%r12)
	je	.L31
	movl	8(%rbp), %eax
	leal	-1(%rax), %edx
	movl	%edx, 8(%rbp)
.L32:
	cmpl	$1, %eax
	je	.L44
.L30:
	movq	8(%rbx), %rbp
	testq	%rbp, %rbp
	je	.L28
	movq	__libc_single_threaded@GOTPCREL(%rip), %r12
	cmpb	$0, (%r12)
	je	.L38
	movl	8(%rbp), %eax
	leal	-1(%rax), %edx
	movl	%edx, 8(%rbp)
.L39:
	cmpl	$1, %eax
	je	.L45
.L28:
	popq	%rbx
	.cfi_remember_state
	.cfi_def_cfa_offset 24
	popq	%rbp
	.cfi_def_cfa_offset 16
	popq	%r12
	.cfi_def_cfa_offset 8
	ret
	.p2align 4,,10
	.p2align 3
.L44:
	.cfi_restore_state
	movq	0(%rbp), %rax
	movq	%rbp, %rdi
	call	*16(%rax)
	cmpb	$0, (%r12)
	je	.L34
	movl	12(%rbp), %eax
	leal	-1(%rax), %edx
	movl	%edx, 12(%rbp)
.L35:
	cmpl	$1, %eax
	jne	.L30
	movq	0(%rbp), %rax
	movq	%rbp, %rdi
	call	*24(%rax)
	jmp	.L30
	.p2align 4,,10
	.p2align 3
.L45:
	movq	0(%rbp), %rax
	movq	%rbp, %rdi
	call	*16(%rax)
	cmpb	$0, (%r12)
	je	.L41
	movl	12(%rbp), %eax
	leal	-1(%rax), %edx
	movl	%edx, 12(%rbp)
.L42:
	cmpl	$1, %eax
	jne	.L28
	movq	0(%rbp), %rax
	popq	%rbx
	.cfi_remember_state
	.cfi_def_cfa_offset 24
	movq	%rbp, %rdi
	popq	%rbp
	.cfi_def_cfa_offset 16
	popq	%r12
	.cfi_def_cfa_offset 8
	movq	24(%rax), %rax
	jmp	*%rax
	.p2align 4,,10
	.p2align 3
.L38:
	.cfi_restore_state
	movl	$-1, %eax
	lock xaddl	%eax, 8(%rbp)
	jmp	.L39
	.p2align 4,,10
	.p2align 3
.L31:
	movl	$-1, %eax
	lock xaddl	%eax, 8(%rbp)
	jmp	.L32
	.p2align 4,,10
	.p2align 3
.L34:
	movl	$-1, %eax
	lock xaddl	%eax, 12(%rbp)
	jmp	.L35
	.p2align 4,,10
	.p2align 3
.L41:
	movl	$-1, %eax
	lock xaddl	%eax, 12(%rbp)
	jmp	.L42
	.cfi_endproc
.LFE2070:
	.size	_ZN7openpal6LoggerD2Ev, .-_ZN7openpal6LoggerD2Ev
	.weak	_ZN7openpal6LoggerD1Ev
	.set	_ZN7openpal6LoggerD1Ev,_ZN7openpal6LoggerD2Ev
	.section	.rodata.str1.8,"aMS",@progbits,1
	.align 8
.LC0:
	.string	"basic_string::_M_construct null not valid"
	.section	.text.unlikely,"ax",@progbits
	.align 2
.LCOLDB1:
	.text
.LHOTB1:
	.align 2
	.p2align 4
	.globl	_ZN8opendnp317EmptyResponseTaskC2ERNS_18IMasterApplicationERKNSt7__cxx1112basic_stringIcSt11char_traitsIcESaIcEEENS_12FunctionCodeERKSt8functionIFbRNS_12HeaderWriterEEEN7openpal6LoggerERKNS_10TaskConfigE
	.type	_ZN8opendnp317EmptyResponseTaskC2ERNS_18IMasterApplicationERKNSt7__cxx1112basic_stringIcSt11char_traitsIcESaIcEEENS_12FunctionCodeERKSt8functionIFbRNS_12HeaderWriterEEEN7openpal6LoggerERKNS_10TaskConfigE, @function
_ZN8opendnp317EmptyResponseTaskC2ERNS_18IMasterApplicationERKNSt7__cxx1112basic_stringIcSt11char_traitsIcESaIcEEENS_12FunctionCodeERKSt8functionIFbRNS_12HeaderWriterEEEN7openpal6LoggerERKNS_10TaskConfigE:
.LFB2472:
	.cfi_startproc
	.cfi_personality 0x9b,DW.ref.__gxx_personality_v0
	.cfi_lsda 0x1b,.LLSDA2472
	endbr64
	pushq	%rbp
	.cfi_def_cfa_offset 16
	.cfi_offset 6, -16
	movq	%rsp, %rbp
	.cfi_def_cfa_register 6
	pushq	%r15
	.cfi_offset 15, -24
	movq	%rdi, %r15
	pushq	%r14
	pushq	%r13
	pushq	%r12
	.cfi_offset 14, -32
	.cfi_offset 13, -40
	.cfi_offset 12, -48
	movq	%rdx, %r12
	movl	%ecx, %edx
	pushq	%rbx
	subq	$56, %rsp
	.cfi_offset 3, -56
	movdqu	(%r9), %xmm0
	movq	16(%rbp), %rcx
	movq	%fs:40, %rax
	movq	%rax, -56(%rbp)
	movq	8(%r9), %rax
	movaps	%xmm0, -96(%rbp)
	testq	%rax, %rax
	je	.L47
	movq	__libc_single_threaded@GOTPCREL(%rip), %rdi
	cmpb	$0, (%rdi)
	je	.L48
	addl	$1, 8(%rax)
.L47:
	movdqu	16(%r9), %xmm1
	movaps	%xmm1, -80(%rbp)
	movq	-72(%rbp), %rax
	testq	%rax, %rax
	je	.L49
	movq	__libc_single_threaded@GOTPCREL(%rip), %rdi
	cmpb	$0, (%rdi)
	je	.L50
	addl	$1, 8(%rax)
.L49:
	subq	$8, %rsp
	leaq	-96(%rbp), %r14
	movq	%r15, %rdi
	pushq	%rcx
	movq	%r14, %r9
	movl	$110, %ecx
.LEHB0:
	.cfi_escape 0x2e,0x10
	call	_ZN8opendnp321SimpleRequestTaskBaseC2ERNS_18IMasterApplicationENS_12FunctionCodeEiRKSt8functionIFbRNS_12HeaderWriterEEEN7openpal6LoggerERKNS_10TaskConfigE@PLT
.LEHE0:
	movq	-72(%rbp), %r13
	popq	%rax
	popq	%rdx
	testq	%r13, %r13
	je	.L52
	movq	__libc_single_threaded@GOTPCREL(%rip), %rbx
	cmpb	$0, (%rbx)
	je	.L53
	movl	8(%r13), %eax
	leal	-1(%rax), %edx
	movl	%edx, 8(%r13)
.L54:
	cmpl	$1, %eax
	je	.L96
.L52:
	movq	-88(%rbp), %r13
	testq	%r13, %r13
	je	.L59
	movq	__libc_single_threaded@GOTPCREL(%rip), %rbx
	cmpb	$0, (%rbx)
	je	.L60
	movl	8(%r13), %eax
	leal	-1(%rax), %edx
	movl	%edx, 8(%r13)
.L61:
	cmpl	$1, %eax
	je	.L97
.L59:
	movq	_ZTVN8opendnp317EmptyResponseTaskE@GOTPCREL(%rip), %rax
	leaq	144(%r15), %rdi
	movq	%rdi, 128(%r15)
	movq	(%r12), %r13
	addq	$16, %rax
	movq	8(%r12), %r12
	movq	%rax, (%r15)
	movq	%r13, %rax
	addq	%r12, %rax
	je	.L65
	testq	%r13, %r13
	je	.L98
.L65:
	movq	%r12, -96(%rbp)
	cmpq	$15, %r12
	ja	.L99
	cmpq	$1, %r12
	jne	.L68
	movzbl	0(%r13), %eax
	movb	%al, 144(%r15)
.L69:
	movq	%r12, 136(%r15)
	movb	$0, (%rdi,%r12)
	movq	-56(%rbp), %rax
	subq	%fs:40, %rax
	jne	.L100
	leaq	-40(%rbp), %rsp
	popq	%rbx
	popq	%r12
	popq	%r13
	popq	%r14
	popq	%r15
	popq	%rbp
	.cfi_remember_state
	.cfi_def_cfa 7, 8
	ret
	.p2align 4,,10
	.p2align 3
.L68:
	.cfi_restore_state
	testq	%r12, %r12
	je	.L69
	jmp	.L67
	.p2align 4,,10
	.p2align 3
.L50:
	lock addl	$1, 8(%rax)
	jmp	.L49
	.p2align 4,,10
	.p2align 3
.L48:
	lock addl	$1, 8(%rax)
	jmp	.L47
	.p2align 4,,10
	.p2align 3
.L99:
	leaq	128(%r15), %rdi
	xorl	%edx, %edx
	movq	%r14, %rsi
.LEHB1:
	.cfi_escape 0x2e,0
	call	_ZNSt7__cxx1112basic_stringIcSt11char_traitsIcESaIcEE9_M_createERmm@PLT
	movq	%rax, 128(%r15)
	movq	%rax, %rdi
	movq	-96(%rbp), %rax
	movq	%rax, 144(%r15)
.L67:
	movq	%r12, %rdx
	movq	%r13, %rsi
	call	memcpy@PLT
	movq	-96(%rbp), %r12
	movq	128(%r15), %rdi
	jmp	.L69
	.p2align 4,,10
	.p2align 3
.L96:
	movq	0(%r13), %rax
	movq	%r13, %rdi
	call	*16(%rax)
	cmpb	$0, (%rbx)
	je	.L56
	movl	12(%r13), %eax
	leal	-1(%rax), %edx
	movl	%edx, 12(%r13)
.L57:
	cmpl	$1, %eax
	jne	.L52
	movq	0(%r13), %rax
	movq	%r13, %rdi
	call	*24(%rax)
	jmp	.L52
	.p2align 4,,10
	.p2align 3
.L97:
	movq	0(%r13), %rax
	movq	%r13, %rdi
	call	*16(%rax)
	cmpb	$0, (%rbx)
	je	.L63
	movl	12(%r13), %eax
	leal	-1(%rax), %edx
	movl	%edx, 12(%r13)
.L64:
	cmpl	$1, %eax
	jne	.L59
	movq	0(%r13), %rax
	movq	%r13, %rdi
	call	*24(%rax)
	jmp	.L59
	.p2align 4,,10
	.p2align 3
.L60:
	movl	$-1, %eax
	lock xaddl	%eax, 8(%r13)
	jmp	.L61
	.p2align 4,,10
	.p2align 3
.L53:
	movl	$-1, %eax
	lock xaddl	%eax, 8(%r13)
	jmp	.L54
	.p2align 4,,10
	.p2align 3
.L63:
	movl	$-1, %eax
	lock xaddl	%eax, 12(%r13)
	jmp	.L64
	.p2align 4,,10
	.p2align 3
.L56:
	movl	$-1, %eax
	lock xaddl	%eax, 12(%r13)
	jmp	.L57
.L98:
	leaq	.LC0(%rip), %rdi
	call	_ZSt19__throw_logic_errorPKc@PLT
.LEHE1:
.L100:
	call	__stack_chk_fail@PLT
.L75:
	endbr64
	movq	%rax, %r12
	jmp	.L71
.L74:
	endbr64
	movq	%rax, %rbx
	jmp	.L70
	.section	.gcc_except_table,"a",@progbits
.LLSDA2472:
	.byte	0xff
	.byte	0xff
	.byte	0x1
	.uleb128 .LLSDACSE2472-.LLSDACSB2472
.LLSDACSB2472:
	.uleb128 .LEHB0-.LFB2472
	.uleb128 .LEHE0-.LEHB0
	.uleb128 .L74-.LFB2472
	.uleb128 0
	.uleb128 .LEHB1-.LFB2472
	.uleb128 .LEHE1-.LEHB1
	.uleb128 .L75-.LFB2472
	.uleb128 0
.LLSDACSE2472:
	.text
	.cfi_endproc
	.section	.text.unlikely
	.cfi_startproc
	.cfi_personality 0x9b,DW.ref.__gxx_personality_v0
	.cfi_lsda 0x1b,.LLSDAC2472
	.type	_ZN8opendnp317EmptyResponseTaskC2ERNS_18IMasterApplicationERKNSt7__cxx1112basic_stringIcSt11char_traitsIcESaIcEEENS_12FunctionCodeERKSt8functionIFbRNS_12HeaderWriterEEEN7openpal6LoggerERKNS_10TaskConfigE.cold, @function
_ZN8opendnp317EmptyResponseTaskC2ERNS_18IMasterApplicationERKNSt7__cxx1112basic_stringIcSt11char_traitsIcESaIcEEENS_12FunctionCodeERKSt8functionIFbRNS_12HeaderWriterEEEN7openpal6LoggerERKNS_10TaskConfigE.cold:
.LFSB2472:
.L71:
	.cfi_def_cfa 6, 16
	.cfi_offset 3, -56
	.cfi_offset 6, -16
	.cfi_offset 12, -48
	.cfi_offset 13, -40
	.cfi_offset 14, -32
	.cfi_offset 15, -24
	movq	_ZTVN8opendnp321SimpleRequestTaskBaseE@GOTPCREL(%rip), %rax
	addq	$16, %rax
	movq	%rax, (%r15)
	movq	112(%r15), %rax
	testq	%rax, %rax
	je	.L72
	leaq	96(%r15), %rdi
	movl	$3, %edx
	movq	%rdi, %rsi
	call	*%rax
.L72:
	movq	%r15, %rdi
	call	_ZN8opendnp311IMasterTaskD2Ev@PLT
	movq	%r12, %rdi
.LEHB2:
	call	_Unwind_Resume@PLT
.L70:
	movq	%r14, %rdi
	call	_ZN7openpal6LoggerD1Ev@PLT
	movq	%rbx, %rdi
	call	_Unwind_Resume@PLT
.LEHE2:
	.cfi_endproc
.LFE2472:
	.section	.gcc_except_table
.LLSDAC2472:
	.byte	0xff
	.byte	0xff
	.byte	0x1
	.uleb128 .LLSDACSEC2472-.LLSDACSBC2472
.LLSDACSBC2472:
	.uleb128 .LEHB2-.LCOLDB1
	.uleb128 .LEHE2-.LEHB2
	.uleb128 0
	.uleb128 0
.LLSDACSEC2472:
	.section	.text.unlikely
	.text
	.size	_ZN8opendnp317EmptyResponseTaskC2ERNS_18IMasterApplicationERKNSt7__cxx1112basic_stringIcSt11char_traitsIcESaIcEEENS_12FunctionCodeERKSt8functionIFbRNS_12HeaderWriterEEEN7openpal6LoggerERKNS_10TaskConfigE, .-_ZN8opendnp317EmptyResponseTaskC2ERNS_18IMasterApplicationERKNSt7__cxx1112basic_stringIcSt11char_traitsIcESaIcEEENS_12FunctionCodeERKSt8functionIFbRNS_12HeaderWriterEEEN7openpal6LoggerERKNS_10TaskConfigE
	.section	.text.unlikely
	.size	_ZN8opendnp317EmptyResponseTaskC2ERNS_18IMasterApplicationERKNSt7__cxx1112basic_stringIcSt11char_traitsIcESaIcEEENS_12FunctionCodeERKSt8functionIFbRNS_12HeaderWriterEEEN7openpal6LoggerERKNS_10TaskConfigE.cold, .-_ZN8opendnp317EmptyResponseTaskC2ERNS_18IMasterApplicationERKNSt7__cxx1112basic_stringIcSt11char_traitsIcESaIcEEENS_12FunctionCodeERKSt8functionIFbRNS_12HeaderWriterEEEN7openpal6LoggerERKNS_10TaskConfigE.cold
.LCOLDE1:
	.text
.LHOTE1:
	.globl	_ZN8opendnp317EmptyResponseTaskC1ERNS_18IMasterApplicationERKNSt7__cxx1112basic_stringIcSt11char_traitsIcESaIcEEENS_12FunctionCodeERKSt8functionIFbRNS_12HeaderWriterEEEN7openpal6LoggerERKNS_10TaskConfigE
	.set	_ZN8opendnp317EmptyResponseTaskC1ERNS_18IMasterApplicationERKNSt7__cxx1112basic_stringIcSt11char_traitsIcESaIcEEENS_12FunctionCodeERKSt8functionIFbRNS_12HeaderWriterEEEN7openpal6LoggerERKNS_10TaskConfigE,_ZN8opendnp317EmptyResponseTaskC2ERNS_18IMasterApplicationERKNSt7__cxx1112basic_stringIcSt11char_traitsIcESaIcEEENS_12FunctionCodeERKSt8functionIFbRNS_12HeaderWriterEEEN7openpal6LoggerERKNS_10TaskConfigE
	.weak	_ZTSN8opendnp317EmptyResponseTaskE
	.section	.rodata._ZTSN8opendnp317EmptyResponseTaskE,"aG",@progbits,_ZTSN8opendnp317EmptyResponseTaskE,comdat
	.align 16
	.type	_ZTSN8opendnp317EmptyResponseTaskE, @object
	.size	_ZTSN8opendnp317EmptyResponseTaskE, 31
_ZTSN8opendnp317EmptyResponseTaskE:
	.string	"N8opendnp317EmptyResponseTaskE"
	.weak	_ZTIN8opendnp317EmptyResponseTaskE
	.section	.data.rel.ro._ZTIN8opendnp317EmptyResponseTaskE,"awG",@progbits,_ZTIN8opendnp317EmptyResponseTaskE,comdat
	.align 8
	.type	_ZTIN8opendnp317EmptyResponseTaskE, @object
	.size	_ZTIN8opendnp317EmptyResponseTaskE, 24
_ZTIN8opendnp317EmptyResponseTaskE:
	.quad	_ZTVN10__cxxabiv120__si_class_type_infoE+16
	.quad	_ZTSN8opendnp317EmptyResponseTaskE
	.quad	_ZTIN8opendnp321SimpleRequestTaskBaseE
	.weak	_ZTVN8opendnp317EmptyResponseTaskE
	.section	.data.rel.ro._ZTVN8opendnp317EmptyResponseTaskE,"awG",@progbits,_ZTVN8opendnp317EmptyResponseTaskE,comdat
	.align 8
	.type	_ZTVN8opendnp317EmptyResponseTaskE, @object
	.size	_ZTVN8opendnp317EmptyResponseTaskE, 120
_ZTVN8opendnp317EmptyResponseTaskE:
	.quad	0
	.quad	_ZTIN8opendnp317EmptyResponseTaskE
	.quad	_ZN8opendnp317EmptyResponseTaskD1Ev
	.quad	_ZN8opendnp317EmptyResponseTaskD0Ev
	.quad	_ZNK8opendnp311IMasterTask10IsAuthTaskEv
	.quad	_ZNK8opendnp317EmptyResponseTask4NameEv
	.quad	_ZNK8opendnp321SimpleRequestTaskBase8PriorityEv
	.quad	_ZNK8opendnp321SimpleRequestTaskBase19BlocksLowerPriorityEv
	.quad	_ZNK8opendnp321SimpleRequestTaskBase11IsRecurringEv
	.quad	_ZN8opendnp321SimpleRequestTaskBase12BuildRequestERNS_11APDURequestEh
	.quad	_ZN8opendnp311IMasterTask10InitializeEv
	.quad	_ZN8opendnp317EmptyResponseTask15ProcessResponseERKNS_18APDUResponseHeaderERKN7openpal6RSliceE
	.quad	_ZN8opendnp317EmptyResponseTask14OnTaskCompleteENS_14TaskCompletionEN7openpal18MonotonicTimestampE
	.quad	_ZNK8opendnp321SimpleRequestTaskBase9IsEnabledEv
	.quad	_ZNK8opendnp321SimpleRequestTaskBase11GetTaskTypeEv
	.hidden	DW.ref.__gxx_personality_v0
	.weak	DW.ref.__gxx_personality_v0
	.section	.data.rel.local.DW.ref.__gxx_personality_v0,"awG",@progbits,DW.ref.__gxx_personality_v0,comdat
	.align 8
	.type	DW.ref.__gxx_personality_v0, @object
	.size	DW.ref.__gxx_personality_v0, 8
DW.ref.__gxx_personality_v0:
	.quad	__gxx_personality_v0
	.ident	"GCC: (Ubuntu 11.4.0-1ubuntu1~22.04) 11.4.0"
	.section	.note.GNU-stack,"",@progbits
	.section	.note.gnu.property,"a"
	.align 8
	.long	1f - 0f
	.long	4f - 1f
	.long	5
0:
	.string	"GNU"
1:
	.align 8
	.long	0xc0000002
	.long	3f - 2f
2:
	.long	0x3
3:
	.align 8
4:
