	.file	"MeasurementHandler.cpp"
	.text
	.section	.text._ZN8opendnp312IAPDUHandler14OnHeaderResultERKNS_12HeaderRecordERKNS_8IINFieldE,"axG",@progbits,_ZN8opendnp312IAPDUHandler14OnHeaderResultERKNS_12HeaderRecordERKNS_8IINFieldE,comdat
	.align 2
	.p2align 4
	.weak	_ZN8opendnp312IAPDUHandler14OnHeaderResultERKNS_12HeaderRecordERKNS_8IINFieldE
	.type	_ZN8opendnp312IAPDUHandler14OnHeaderResultERKNS_12HeaderRecordERKNS_8IINFieldE, @function
_ZN8opendnp312IAPDUHandler14OnHeaderResultERKNS_12HeaderRecordERKNS_8IINFieldE:
.LFB2399:
	.cfi_startproc
	endbr64
	ret
	.cfi_endproc
.LFE2399:
	.size	_ZN8opendnp312IAPDUHandler14OnHeaderResultERKNS_12HeaderRecordERKNS_8IINFieldE, .-_ZN8opendnp312IAPDUHandler14OnHeaderResultERKNS_12HeaderRecordERKNS_8IINFieldE
	.section	.text._ZN8opendnp318MeasurementHandler9IsAllowedEjNS_14GroupVariationENS_13QualifierCodeE,"axG",@progbits,_ZN8opendnp318MeasurementHandler9IsAllowedEjNS_14GroupVariationENS_13QualifierCodeE,comdat
	.align 2
	.p2align 4
	.weak	_ZN8opendnp318MeasurementHandler9IsAllowedEjNS_14GroupVariationENS_13QualifierCodeE
	.type	_ZN8opendnp318MeasurementHandler9IsAllowedEjNS_14GroupVariationENS_13QualifierCodeE, @function
_ZN8opendnp318MeasurementHandler9IsAllowedEjNS_14GroupVariationENS_13QualifierCodeE:
.LFB2410:
	.cfi_startproc
	endbr64
	movl	$1, %eax
	ret
	.cfi_endproc
.LFE2410:
	.size	_ZN8opendnp318MeasurementHandler9IsAllowedEjNS_14GroupVariationENS_13QualifierCodeE, .-_ZN8opendnp318MeasurementHandler9IsAllowedEjNS_14GroupVariationENS_13QualifierCodeE
	.section	.text._ZN8opendnp314FunctorVisitorINS_11Group51Var2EZNKS_11ICollectionIS1_E13ReadOnlyValueERS1_EUlRKS1_E_E7OnValueES6_,"axG",@progbits,_ZN8opendnp314FunctorVisitorINS_11Group51Var2EZNKS_11ICollectionIS1_E13ReadOnlyValueERS1_EUlRKS1_E_E7OnValueES6_,comdat
	.align 2
	.p2align 4
	.weak	_ZN8opendnp314FunctorVisitorINS_11Group51Var2EZNKS_11ICollectionIS1_E13ReadOnlyValueERS1_EUlRKS1_E_E7OnValueES6_
	.type	_ZN8opendnp314FunctorVisitorINS_11Group51Var2EZNKS_11ICollectionIS1_E13ReadOnlyValueERS1_EUlRKS1_E_E7OnValueES6_, @function
_ZN8opendnp314FunctorVisitorINS_11Group51Var2EZNKS_11ICollectionIS1_E13ReadOnlyValueERS1_EUlRKS1_E_E7OnValueES6_:
.LFB3269:
	.cfi_startproc
	endbr64
	movq	8(%rdi), %rax
	movq	(%rsi), %rdx
	movq	%rdx, (%rax)
	ret
	.cfi_endproc
.LFE3269:
	.size	_ZN8opendnp314FunctorVisitorINS_11Group51Var2EZNKS_11ICollectionIS1_E13ReadOnlyValueERS1_EUlRKS1_E_E7OnValueES6_, .-_ZN8opendnp314FunctorVisitorINS_11Group51Var2EZNKS_11ICollectionIS1_E13ReadOnlyValueERS1_EUlRKS1_E_E7OnValueES6_
	.section	.text._ZN8opendnp314FunctorVisitorINS_11Group51Var1EZNKS_11ICollectionIS1_E13ReadOnlyValueERS1_EUlRKS1_E_E7OnValueES6_,"axG",@progbits,_ZN8opendnp314FunctorVisitorINS_11Group51Var1EZNKS_11ICollectionIS1_E13ReadOnlyValueERS1_EUlRKS1_E_E7OnValueES6_,comdat
	.align 2
	.p2align 4
	.weak	_ZN8opendnp314FunctorVisitorINS_11Group51Var1EZNKS_11ICollectionIS1_E13ReadOnlyValueERS1_EUlRKS1_E_E7OnValueES6_
	.type	_ZN8opendnp314FunctorVisitorINS_11Group51Var1EZNKS_11ICollectionIS1_E13ReadOnlyValueERS1_EUlRKS1_E_E7OnValueES6_, @function
_ZN8opendnp314FunctorVisitorINS_11Group51Var1EZNKS_11ICollectionIS1_E13ReadOnlyValueERS1_EUlRKS1_E_E7OnValueES6_:
.LFB3270:
	.cfi_startproc
	endbr64
	movq	8(%rdi), %rax
	movq	(%rsi), %rdx
	movq	%rdx, (%rax)
	ret
	.cfi_endproc
.LFE3270:
	.size	_ZN8opendnp314FunctorVisitorINS_11Group51Var1EZNKS_11ICollectionIS1_E13ReadOnlyValueERS1_EUlRKS1_E_E7OnValueES6_, .-_ZN8opendnp314FunctorVisitorINS_11Group51Var1EZNKS_11ICollectionIS1_E13ReadOnlyValueERS1_EUlRKS1_E_E7OnValueES6_
	.section	.text._ZNK8opendnp321TransformedCollectionINS_7IndexedINS_12Group122Var2EEENS1_INS_12SecurityStatEEEZNS_18MeasurementHandler25LoadValuesWithTransformToIS4_S2_EENS_8IINFieldERKNS_12HeaderRecordERKNS_11ICollectionINS1_IT0_EEEEEUlRKS3_E_E5CountEv,"axG",@progbits,_ZNK8opendnp321TransformedCollectionINS_7IndexedINS_12Group122Var2EEENS1_INS_12SecurityStatEEEZNS_18MeasurementHandler25LoadValuesWithTransformToIS4_S2_EENS_8IINFieldERKNS_12HeaderRecordERKNS_11ICollectionINS1_IT0_EEEEEUlRKS3_E_E5CountEv,comdat
	.align 2
	.p2align 4
	.weak	_ZNK8opendnp321TransformedCollectionINS_7IndexedINS_12Group122Var2EEENS1_INS_12SecurityStatEEEZNS_18MeasurementHandler25LoadValuesWithTransformToIS4_S2_EENS_8IINFieldERKNS_12HeaderRecordERKNS_11ICollectionINS1_IT0_EEEEEUlRKS3_E_E5CountEv
	.type	_ZNK8opendnp321TransformedCollectionINS_7IndexedINS_12Group122Var2EEENS1_INS_12SecurityStatEEEZNS_18MeasurementHandler25LoadValuesWithTransformToIS4_S2_EENS_8IINFieldERKNS_12HeaderRecordERKNS_11ICollectionINS1_IT0_EEEEEUlRKS3_E_E5CountEv, @function
_ZNK8opendnp321TransformedCollectionINS_7IndexedINS_12Group122Var2EEENS1_INS_12SecurityStatEEEZNS_18MeasurementHandler25LoadValuesWithTransformToIS4_S2_EENS_8IINFieldERKNS_12HeaderRecordERKNS_11ICollectionINS1_IT0_EEEEEUlRKS3_E_E5CountEv:
.LFB3271:
	.cfi_startproc
	endbr64
	movq	8(%rdi), %rdi
	movq	(%rdi), %rax
	jmp	*(%rax)
	.cfi_endproc
.LFE3271:
	.size	_ZNK8opendnp321TransformedCollectionINS_7IndexedINS_12Group122Var2EEENS1_INS_12SecurityStatEEEZNS_18MeasurementHandler25LoadValuesWithTransformToIS4_S2_EENS_8IINFieldERKNS_12HeaderRecordERKNS_11ICollectionINS1_IT0_EEEEEUlRKS3_E_E5CountEv, .-_ZNK8opendnp321TransformedCollectionINS_7IndexedINS_12Group122Var2EEENS1_INS_12SecurityStatEEEZNS_18MeasurementHandler25LoadValuesWithTransformToIS4_S2_EENS_8IINFieldERKNS_12HeaderRecordERKNS_11ICollectionINS1_IT0_EEEEEUlRKS3_E_E5CountEv
	.section	.text._ZNK8opendnp321TransformedCollectionINS_7IndexedINS_12Group122Var2EEENS1_INS_12SecurityStatEEEZNS_18MeasurementHandler25LoadValuesWithTransformToIS4_S2_EENS_8IINFieldERKNS_12HeaderRecordERKNS_11ICollectionINS1_IT0_EEEEEUlRKS3_E_E7ForeachERNS_8IVisitorIS5_EE,"axG",@progbits,_ZNK8opendnp321TransformedCollectionINS_7IndexedINS_12Group122Var2EEENS1_INS_12SecurityStatEEEZNS_18MeasurementHandler25LoadValuesWithTransformToIS4_S2_EENS_8IINFieldERKNS_12HeaderRecordERKNS_11ICollectionINS1_IT0_EEEEEUlRKS3_E_E7ForeachERNS_8IVisitorIS5_EE,comdat
	.align 2
	.p2align 4
	.weak	_ZNK8opendnp321TransformedCollectionINS_7IndexedINS_12Group122Var2EEENS1_INS_12SecurityStatEEEZNS_18MeasurementHandler25LoadValuesWithTransformToIS4_S2_EENS_8IINFieldERKNS_12HeaderRecordERKNS_11ICollectionINS1_IT0_EEEEEUlRKS3_E_E7ForeachERNS_8IVisitorIS5_EE
	.type	_ZNK8opendnp321TransformedCollectionINS_7IndexedINS_12Group122Var2EEENS1_INS_12SecurityStatEEEZNS_18MeasurementHandler25LoadValuesWithTransformToIS4_S2_EENS_8IINFieldERKNS_12HeaderRecordERKNS_11ICollectionINS1_IT0_EEEEEUlRKS3_E_E7ForeachERNS_8IVisitorIS5_EE, @function
_ZNK8opendnp321TransformedCollectionINS_7IndexedINS_12Group122Var2EEENS1_INS_12SecurityStatEEEZNS_18MeasurementHandler25LoadValuesWithTransformToIS4_S2_EENS_8IINFieldERKNS_12HeaderRecordERKNS_11ICollectionINS1_IT0_EEEEEUlRKS3_E_E7ForeachERNS_8IVisitorIS5_EE:
.LFB3272:
	.cfi_startproc
	endbr64
	subq	$40, %rsp
	.cfi_def_cfa_offset 48
	movq	8(%rdi), %r8
	movq	%fs:40, %rax
	movq	%rax, 24(%rsp)
	xorl	%eax, %eax
	movq	_ZTVN8opendnp314FunctorVisitorINS_7IndexedINS_12Group122Var2EEEZNKS_21TransformedCollectionIS3_NS1_INS_12SecurityStatEEEZNS_18MeasurementHandler25LoadValuesWithTransformToIS5_S2_EENS_8IINFieldERKNS_12HeaderRecordERKNS_11ICollectionINS1_IT0_EEEEEUlRKS3_E_E7ForeachERNS_8IVisitorIS6_EEEUlSK_E_EE@GOTPCREL(%rip), %rax
	movq	%rdi, 8(%rsp)
	movq	%rsi, 16(%rsp)
	movq	%r8, %rdi
	movq	%rsp, %rsi
	addq	$16, %rax
	movq	%rax, (%rsp)
	movq	(%r8), %rax
	call	*8(%rax)
	movq	24(%rsp), %rax
	subq	%fs:40, %rax
	jne	.L10
	addq	$40, %rsp
	.cfi_remember_state
	.cfi_def_cfa_offset 8
	ret
.L10:
	.cfi_restore_state
	call	__stack_chk_fail@PLT
	.cfi_endproc
.LFE3272:
	.size	_ZNK8opendnp321TransformedCollectionINS_7IndexedINS_12Group122Var2EEENS1_INS_12SecurityStatEEEZNS_18MeasurementHandler25LoadValuesWithTransformToIS4_S2_EENS_8IINFieldERKNS_12HeaderRecordERKNS_11ICollectionINS1_IT0_EEEEEUlRKS3_E_E7ForeachERNS_8IVisitorIS5_EE, .-_ZNK8opendnp321TransformedCollectionINS_7IndexedINS_12Group122Var2EEENS1_INS_12SecurityStatEEEZNS_18MeasurementHandler25LoadValuesWithTransformToIS4_S2_EENS_8IINFieldERKNS_12HeaderRecordERKNS_11ICollectionINS1_IT0_EEEEEUlRKS3_E_E7ForeachERNS_8IVisitorIS5_EE
	.section	.text._ZNK8opendnp321TransformedCollectionINS_7IndexedINS_12Group122Var1EEENS1_INS_12SecurityStatEEEZNS_18MeasurementHandler25LoadValuesWithTransformToIS4_S2_EENS_8IINFieldERKNS_12HeaderRecordERKNS_11ICollectionINS1_IT0_EEEEEUlRKS3_E_E5CountEv,"axG",@progbits,_ZNK8opendnp321TransformedCollectionINS_7IndexedINS_12Group122Var1EEENS1_INS_12SecurityStatEEEZNS_18MeasurementHandler25LoadValuesWithTransformToIS4_S2_EENS_8IINFieldERKNS_12HeaderRecordERKNS_11ICollectionINS1_IT0_EEEEEUlRKS3_E_E5CountEv,comdat
	.align 2
	.p2align 4
	.weak	_ZNK8opendnp321TransformedCollectionINS_7IndexedINS_12Group122Var1EEENS1_INS_12SecurityStatEEEZNS_18MeasurementHandler25LoadValuesWithTransformToIS4_S2_EENS_8IINFieldERKNS_12HeaderRecordERKNS_11ICollectionINS1_IT0_EEEEEUlRKS3_E_E5CountEv
	.type	_ZNK8opendnp321TransformedCollectionINS_7IndexedINS_12Group122Var1EEENS1_INS_12SecurityStatEEEZNS_18MeasurementHandler25LoadValuesWithTransformToIS4_S2_EENS_8IINFieldERKNS_12HeaderRecordERKNS_11ICollectionINS1_IT0_EEEEEUlRKS3_E_E5CountEv, @function
_ZNK8opendnp321TransformedCollectionINS_7IndexedINS_12Group122Var1EEENS1_INS_12SecurityStatEEEZNS_18MeasurementHandler25LoadValuesWithTransformToIS4_S2_EENS_8IINFieldERKNS_12HeaderRecordERKNS_11ICollectionINS1_IT0_EEEEEUlRKS3_E_E5CountEv:
.LFB3274:
	.cfi_startproc
	endbr64
	movq	8(%rdi), %rdi
	movq	(%rdi), %rax
	jmp	*(%rax)
	.cfi_endproc
.LFE3274:
	.size	_ZNK8opendnp321TransformedCollectionINS_7IndexedINS_12Group122Var1EEENS1_INS_12SecurityStatEEEZNS_18MeasurementHandler25LoadValuesWithTransformToIS4_S2_EENS_8IINFieldERKNS_12HeaderRecordERKNS_11ICollectionINS1_IT0_EEEEEUlRKS3_E_E5CountEv, .-_ZNK8opendnp321TransformedCollectionINS_7IndexedINS_12Group122Var1EEENS1_INS_12SecurityStatEEEZNS_18MeasurementHandler25LoadValuesWithTransformToIS4_S2_EENS_8IINFieldERKNS_12HeaderRecordERKNS_11ICollectionINS1_IT0_EEEEEUlRKS3_E_E5CountEv
	.section	.text._ZNK8opendnp321TransformedCollectionINS_7IndexedINS_12Group122Var1EEENS1_INS_12SecurityStatEEEZNS_18MeasurementHandler25LoadValuesWithTransformToIS4_S2_EENS_8IINFieldERKNS_12HeaderRecordERKNS_11ICollectionINS1_IT0_EEEEEUlRKS3_E_E7ForeachERNS_8IVisitorIS5_EE,"axG",@progbits,_ZNK8opendnp321TransformedCollectionINS_7IndexedINS_12Group122Var1EEENS1_INS_12SecurityStatEEEZNS_18MeasurementHandler25LoadValuesWithTransformToIS4_S2_EENS_8IINFieldERKNS_12HeaderRecordERKNS_11ICollectionINS1_IT0_EEEEEUlRKS3_E_E7ForeachERNS_8IVisitorIS5_EE,comdat
	.align 2
	.p2align 4
	.weak	_ZNK8opendnp321TransformedCollectionINS_7IndexedINS_12Group122Var1EEENS1_INS_12SecurityStatEEEZNS_18MeasurementHandler25LoadValuesWithTransformToIS4_S2_EENS_8IINFieldERKNS_12HeaderRecordERKNS_11ICollectionINS1_IT0_EEEEEUlRKS3_E_E7ForeachERNS_8IVisitorIS5_EE
	.type	_ZNK8opendnp321TransformedCollectionINS_7IndexedINS_12Group122Var1EEENS1_INS_12SecurityStatEEEZNS_18MeasurementHandler25LoadValuesWithTransformToIS4_S2_EENS_8IINFieldERKNS_12HeaderRecordERKNS_11ICollectionINS1_IT0_EEEEEUlRKS3_E_E7ForeachERNS_8IVisitorIS5_EE, @function
_ZNK8opendnp321TransformedCollectionINS_7IndexedINS_12Group122Var1EEENS1_INS_12SecurityStatEEEZNS_18MeasurementHandler25LoadValuesWithTransformToIS4_S2_EENS_8IINFieldERKNS_12HeaderRecordERKNS_11ICollectionINS1_IT0_EEEEEUlRKS3_E_E7ForeachERNS_8IVisitorIS5_EE:
.LFB3275:
	.cfi_startproc
	endbr64
	subq	$40, %rsp
	.cfi_def_cfa_offset 48
	movq	8(%rdi), %r8
	movq	%fs:40, %rax
	movq	%rax, 24(%rsp)
	xorl	%eax, %eax
	movq	_ZTVN8opendnp314FunctorVisitorINS_7IndexedINS_12Group122Var1EEEZNKS_21TransformedCollectionIS3_NS1_INS_12SecurityStatEEEZNS_18MeasurementHandler25LoadValuesWithTransformToIS5_S2_EENS_8IINFieldERKNS_12HeaderRecordERKNS_11ICollectionINS1_IT0_EEEEEUlRKS3_E_E7ForeachERNS_8IVisitorIS6_EEEUlSK_E_EE@GOTPCREL(%rip), %rax
	movq	%rdi, 8(%rsp)
	movq	%rsi, 16(%rsp)
	movq	%r8, %rdi
	movq	%rsp, %rsi
	addq	$16, %rax
	movq	%rax, (%rsp)
	movq	(%r8), %rax
	call	*8(%rax)
	movq	24(%rsp), %rax
	subq	%fs:40, %rax
	jne	.L15
	addq	$40, %rsp
	.cfi_remember_state
	.cfi_def_cfa_offset 8
	ret
.L15:
	.cfi_restore_state
	call	__stack_chk_fail@PLT
	.cfi_endproc
.LFE3275:
	.size	_ZNK8opendnp321TransformedCollectionINS_7IndexedINS_12Group122Var1EEENS1_INS_12SecurityStatEEEZNS_18MeasurementHandler25LoadValuesWithTransformToIS4_S2_EENS_8IINFieldERKNS_12HeaderRecordERKNS_11ICollectionINS1_IT0_EEEEEUlRKS3_E_E7ForeachERNS_8IVisitorIS5_EE, .-_ZNK8opendnp321TransformedCollectionINS_7IndexedINS_12Group122Var1EEENS1_INS_12SecurityStatEEEZNS_18MeasurementHandler25LoadValuesWithTransformToIS4_S2_EENS_8IINFieldERKNS_12HeaderRecordERKNS_11ICollectionINS1_IT0_EEEEEUlRKS3_E_E7ForeachERNS_8IVisitorIS5_EE
	.section	.text._ZNK8opendnp321TransformedCollectionINS_7IndexedINS_12Group121Var1EEENS1_INS_12SecurityStatEEEZNS_18MeasurementHandler25LoadValuesWithTransformToIS4_S2_EENS_8IINFieldERKNS_12HeaderRecordERKNS_11ICollectionINS1_IT0_EEEEEUlRKS3_E_E5CountEv,"axG",@progbits,_ZNK8opendnp321TransformedCollectionINS_7IndexedINS_12Group121Var1EEENS1_INS_12SecurityStatEEEZNS_18MeasurementHandler25LoadValuesWithTransformToIS4_S2_EENS_8IINFieldERKNS_12HeaderRecordERKNS_11ICollectionINS1_IT0_EEEEEUlRKS3_E_E5CountEv,comdat
	.align 2
	.p2align 4
	.weak	_ZNK8opendnp321TransformedCollectionINS_7IndexedINS_12Group121Var1EEENS1_INS_12SecurityStatEEEZNS_18MeasurementHandler25LoadValuesWithTransformToIS4_S2_EENS_8IINFieldERKNS_12HeaderRecordERKNS_11ICollectionINS1_IT0_EEEEEUlRKS3_E_E5CountEv
	.type	_ZNK8opendnp321TransformedCollectionINS_7IndexedINS_12Group121Var1EEENS1_INS_12SecurityStatEEEZNS_18MeasurementHandler25LoadValuesWithTransformToIS4_S2_EENS_8IINFieldERKNS_12HeaderRecordERKNS_11ICollectionINS1_IT0_EEEEEUlRKS3_E_E5CountEv, @function
_ZNK8opendnp321TransformedCollectionINS_7IndexedINS_12Group121Var1EEENS1_INS_12SecurityStatEEEZNS_18MeasurementHandler25LoadValuesWithTransformToIS4_S2_EENS_8IINFieldERKNS_12HeaderRecordERKNS_11ICollectionINS1_IT0_EEEEEUlRKS3_E_E5CountEv:
.LFB3283:
	.cfi_startproc
	endbr64
	movq	8(%rdi), %rdi
	movq	(%rdi), %rax
	jmp	*(%rax)
	.cfi_endproc
.LFE3283:
	.size	_ZNK8opendnp321TransformedCollectionINS_7IndexedINS_12Group121Var1EEENS1_INS_12SecurityStatEEEZNS_18MeasurementHandler25LoadValuesWithTransformToIS4_S2_EENS_8IINFieldERKNS_12HeaderRecordERKNS_11ICollectionINS1_IT0_EEEEEUlRKS3_E_E5CountEv, .-_ZNK8opendnp321TransformedCollectionINS_7IndexedINS_12Group121Var1EEENS1_INS_12SecurityStatEEEZNS_18MeasurementHandler25LoadValuesWithTransformToIS4_S2_EENS_8IINFieldERKNS_12HeaderRecordERKNS_11ICollectionINS1_IT0_EEEEEUlRKS3_E_E5CountEv
	.section	.text._ZNK8opendnp321TransformedCollectionINS_7IndexedINS_12Group121Var1EEENS1_INS_12SecurityStatEEEZNS_18MeasurementHandler25LoadValuesWithTransformToIS4_S2_EENS_8IINFieldERKNS_12HeaderRecordERKNS_11ICollectionINS1_IT0_EEEEEUlRKS3_E_E7ForeachERNS_8IVisitorIS5_EE,"axG",@progbits,_ZNK8opendnp321TransformedCollectionINS_7IndexedINS_12Group121Var1EEENS1_INS_12SecurityStatEEEZNS_18MeasurementHandler25LoadValuesWithTransformToIS4_S2_EENS_8IINFieldERKNS_12HeaderRecordERKNS_11ICollectionINS1_IT0_EEEEEUlRKS3_E_E7ForeachERNS_8IVisitorIS5_EE,comdat
	.align 2
	.p2align 4
	.weak	_ZNK8opendnp321TransformedCollectionINS_7IndexedINS_12Group121Var1EEENS1_INS_12SecurityStatEEEZNS_18MeasurementHandler25LoadValuesWithTransformToIS4_S2_EENS_8IINFieldERKNS_12HeaderRecordERKNS_11ICollectionINS1_IT0_EEEEEUlRKS3_E_E7ForeachERNS_8IVisitorIS5_EE
	.type	_ZNK8opendnp321TransformedCollectionINS_7IndexedINS_12Group121Var1EEENS1_INS_12SecurityStatEEEZNS_18MeasurementHandler25LoadValuesWithTransformToIS4_S2_EENS_8IINFieldERKNS_12HeaderRecordERKNS_11ICollectionINS1_IT0_EEEEEUlRKS3_E_E7ForeachERNS_8IVisitorIS5_EE, @function
_ZNK8opendnp321TransformedCollectionINS_7IndexedINS_12Group121Var1EEENS1_INS_12SecurityStatEEEZNS_18MeasurementHandler25LoadValuesWithTransformToIS4_S2_EENS_8IINFieldERKNS_12HeaderRecordERKNS_11ICollectionINS1_IT0_EEEEEUlRKS3_E_E7ForeachERNS_8IVisitorIS5_EE:
.LFB3284:
	.cfi_startproc
	endbr64
	subq	$40, %rsp
	.cfi_def_cfa_offset 48
	movq	8(%rdi), %r8
	movq	%fs:40, %rax
	movq	%rax, 24(%rsp)
	xorl	%eax, %eax
	movq	_ZTVN8opendnp314FunctorVisitorINS_7IndexedINS_12Group121Var1EEEZNKS_21TransformedCollectionIS3_NS1_INS_12SecurityStatEEEZNS_18MeasurementHandler25LoadValuesWithTransformToIS5_S2_EENS_8IINFieldERKNS_12HeaderRecordERKNS_11ICollectionINS1_IT0_EEEEEUlRKS3_E_E7ForeachERNS_8IVisitorIS6_EEEUlSK_E_EE@GOTPCREL(%rip), %rax
	movq	%rdi, 8(%rsp)
	movq	%rsi, 16(%rsp)
	movq	%r8, %rdi
	movq	%rsp, %rsi
	addq	$16, %rax
	movq	%rax, (%rsp)
	movq	(%r8), %rax
	call	*8(%rax)
	movq	24(%rsp), %rax
	subq	%fs:40, %rax
	jne	.L20
	addq	$40, %rsp
	.cfi_remember_state
	.cfi_def_cfa_offset 8
	ret
.L20:
	.cfi_restore_state
	call	__stack_chk_fail@PLT
	.cfi_endproc
.LFE3284:
	.size	_ZNK8opendnp321TransformedCollectionINS_7IndexedINS_12Group121Var1EEENS1_INS_12SecurityStatEEEZNS_18MeasurementHandler25LoadValuesWithTransformToIS4_S2_EENS_8IINFieldERKNS_12HeaderRecordERKNS_11ICollectionINS1_IT0_EEEEEUlRKS3_E_E7ForeachERNS_8IVisitorIS5_EE, .-_ZNK8opendnp321TransformedCollectionINS_7IndexedINS_12Group121Var1EEENS1_INS_12SecurityStatEEEZNS_18MeasurementHandler25LoadValuesWithTransformToIS4_S2_EENS_8IINFieldERKNS_12HeaderRecordERKNS_11ICollectionINS1_IT0_EEEEEUlRKS3_E_E7ForeachERNS_8IVisitorIS5_EE
	.text
	.align 2
	.p2align 4
	.type	_ZNK8opendnp321TransformedCollectionINS_11Group50Var1EN7openpal10UInt48TypeEZNS_18MeasurementHandler13ProcessHeaderERKNS_11CountHeaderERKNS_11ICollectionIS1_EEEUlRKS1_E_E5CountEv, @function
_ZNK8opendnp321TransformedCollectionINS_11Group50Var1EN7openpal10UInt48TypeEZNS_18MeasurementHandler13ProcessHeaderERKNS_11CountHeaderERKNS_11ICollectionIS1_EEEUlRKS1_E_E5CountEv:
.LFB3286:
	.cfi_startproc
	endbr64
	movq	8(%rdi), %rdi
	movq	(%rdi), %rax
	jmp	*(%rax)
	.cfi_endproc
.LFE3286:
	.size	_ZNK8opendnp321TransformedCollectionINS_11Group50Var1EN7openpal10UInt48TypeEZNS_18MeasurementHandler13ProcessHeaderERKNS_11CountHeaderERKNS_11ICollectionIS1_EEEUlRKS1_E_E5CountEv, .-_ZNK8opendnp321TransformedCollectionINS_11Group50Var1EN7openpal10UInt48TypeEZNS_18MeasurementHandler13ProcessHeaderERKNS_11CountHeaderERKNS_11ICollectionIS1_EEEUlRKS1_E_E5CountEv
	.align 2
	.p2align 4
	.type	_ZNK8opendnp321TransformedCollectionINS_11Group50Var1EN7openpal10UInt48TypeEZNS_18MeasurementHandler13ProcessHeaderERKNS_11CountHeaderERKNS_11ICollectionIS1_EEEUlRKS1_E_E7ForeachERNS_8IVisitorIS3_EE, @function
_ZNK8opendnp321TransformedCollectionINS_11Group50Var1EN7openpal10UInt48TypeEZNS_18MeasurementHandler13ProcessHeaderERKNS_11CountHeaderERKNS_11ICollectionIS1_EEEUlRKS1_E_E7ForeachERNS_8IVisitorIS3_EE:
.LFB3287:
	.cfi_startproc
	endbr64
	subq	$40, %rsp
	.cfi_def_cfa_offset 48
	movq	8(%rdi), %r8
	movq	%fs:40, %rax
	movq	%rax, 24(%rsp)
	xorl	%eax, %eax
	leaq	16+_ZTVN8opendnp314FunctorVisitorINS_11Group50Var1EZNKS_21TransformedCollectionIS1_N7openpal10UInt48TypeEZNS_18MeasurementHandler13ProcessHeaderERKNS_11CountHeaderERKNS_11ICollectionIS1_EEEUlRKS1_E_E7ForeachERNS_8IVisitorIS4_EEEUlSE_E_EE(%rip), %rax
	movq	%rdi, 8(%rsp)
	movq	%rax, (%rsp)
	movq	(%r8), %rax
	movq	%r8, %rdi
	movq	%rsi, 16(%rsp)
	movq	%rsp, %rsi
	call	*8(%rax)
	movq	24(%rsp), %rax
	subq	%fs:40, %rax
	jne	.L25
	addq	$40, %rsp
	.cfi_remember_state
	.cfi_def_cfa_offset 8
	ret
.L25:
	.cfi_restore_state
	call	__stack_chk_fail@PLT
	.cfi_endproc
.LFE3287:
	.size	_ZNK8opendnp321TransformedCollectionINS_11Group50Var1EN7openpal10UInt48TypeEZNS_18MeasurementHandler13ProcessHeaderERKNS_11CountHeaderERKNS_11ICollectionIS1_EEEUlRKS1_E_E7ForeachERNS_8IVisitorIS3_EE, .-_ZNK8opendnp321TransformedCollectionINS_11Group50Var1EN7openpal10UInt48TypeEZNS_18MeasurementHandler13ProcessHeaderERKNS_11CountHeaderERKNS_11ICollectionIS1_EEEUlRKS1_E_E7ForeachERNS_8IVisitorIS3_EE
	.align 2
	.p2align 4
	.type	_ZN8opendnp314FunctorVisitorINS_11Group50Var1EZNKS_21TransformedCollectionIS1_N7openpal10UInt48TypeEZNS_18MeasurementHandler13ProcessHeaderERKNS_11CountHeaderERKNS_11ICollectionIS1_EEEUlRKS1_E_E7ForeachERNS_8IVisitorIS4_EEEUlSE_E_E7OnValueESE_, @function
_ZN8opendnp314FunctorVisitorINS_11Group50Var1EZNKS_21TransformedCollectionIS1_N7openpal10UInt48TypeEZNS_18MeasurementHandler13ProcessHeaderERKNS_11CountHeaderERKNS_11ICollectionIS1_EEEUlRKS1_E_E7ForeachERNS_8IVisitorIS4_EEEUlSE_E_E7OnValueESE_:
.LFB3338:
	.cfi_startproc
	endbr64
	subq	$24, %rsp
	.cfi_def_cfa_offset 32
	movq	16(%rdi), %rdi
	movq	(%rsi), %rdx
	movq	%fs:40, %rax
	movq	%rax, 8(%rsp)
	xorl	%eax, %eax
	movq	%rsp, %rsi
	movq	(%rdi), %rax
	movq	(%rax), %rax
	movq	%rdx, (%rsp)
	call	*%rax
	movq	8(%rsp), %rax
	subq	%fs:40, %rax
	jne	.L29
	addq	$24, %rsp
	.cfi_remember_state
	.cfi_def_cfa_offset 8
	ret
.L29:
	.cfi_restore_state
	call	__stack_chk_fail@PLT
	.cfi_endproc
.LFE3338:
	.size	_ZN8opendnp314FunctorVisitorINS_11Group50Var1EZNKS_21TransformedCollectionIS1_N7openpal10UInt48TypeEZNS_18MeasurementHandler13ProcessHeaderERKNS_11CountHeaderERKNS_11ICollectionIS1_EEEUlRKS1_E_E7ForeachERNS_8IVisitorIS4_EEEUlSE_E_E7OnValueESE_, .-_ZN8opendnp314FunctorVisitorINS_11Group50Var1EZNKS_21TransformedCollectionIS1_N7openpal10UInt48TypeEZNS_18MeasurementHandler13ProcessHeaderERKNS_11CountHeaderERKNS_11ICollectionIS1_EEEUlRKS1_E_E7ForeachERNS_8IVisitorIS4_EEEUlSE_E_E7OnValueESE_
	.align 2
	.p2align 4
	.globl	_ZN8opendnp318MeasurementHandler13ProcessHeaderERKNS_11CountHeaderERKNS_11ICollectionINS_11Group51Var1EEE
	.type	_ZN8opendnp318MeasurementHandler13ProcessHeaderERKNS_11CountHeaderERKNS_11ICollectionINS_11Group51Var1EEE, @function
_ZN8opendnp318MeasurementHandler13ProcessHeaderERKNS_11CountHeaderERKNS_11ICollectionINS_11Group51Var1EEE:
.LFB2445:
	.cfi_startproc
	endbr64
	pushq	%rbp
	.cfi_def_cfa_offset 16
	.cfi_offset 6, -16
	movq	%rdx, %rbp
	pushq	%rbx
	.cfi_def_cfa_offset 24
	.cfi_offset 3, -24
	movq	%rdi, %rbx
	subq	$72, %rsp
	.cfi_def_cfa_offset 96
	movq	%fs:40, %rax
	movq	%rax, 56(%rsp)
	xorl	%eax, %eax
	movq	_ZTVN8opendnp314FunctorVisitorINS_11Group51Var1EZNKS_11ICollectionIS1_E13ReadOnlyValueERS1_EUlRKS1_E_EE@GOTPCREL(%rip), %rax
	leaq	24(%rsp), %rdi
	movq	%rdi, %xmm1
	addq	$16, %rax
	movq	%rax, %xmm0
	punpcklqdq	%xmm1, %xmm0
	movaps	%xmm0, (%rsp)
	call	_ZN8opendnp311Group51Var1C1Ev@PLT
	movq	0(%rbp), %rax
	movq	%rbp, %rdi
	call	*(%rax)
	cmpq	$1, %rax
	jne	.L31
	movdqa	(%rsp), %xmm2
	movq	0(%rbp), %rax
	leaq	32(%rsp), %rsi
	movq	%rbp, %rdi
	movaps	%xmm2, 32(%rsp)
	call	*8(%rax)
	movq	24(%rsp), %rax
	movb	$1, 72(%rbx)
	movq	%rax, 80(%rbx)
.L31:
	movq	56(%rsp), %rax
	subq	%fs:40, %rax
	jne	.L34
	addq	$72, %rsp
	.cfi_remember_state
	.cfi_def_cfa_offset 24
	xorl	%eax, %eax
	popq	%rbx
	.cfi_def_cfa_offset 16
	popq	%rbp
	.cfi_def_cfa_offset 8
	ret
.L34:
	.cfi_restore_state
	call	__stack_chk_fail@PLT
	.cfi_endproc
.LFE2445:
	.size	_ZN8opendnp318MeasurementHandler13ProcessHeaderERKNS_11CountHeaderERKNS_11ICollectionINS_11Group51Var1EEE, .-_ZN8opendnp318MeasurementHandler13ProcessHeaderERKNS_11CountHeaderERKNS_11ICollectionINS_11Group51Var1EEE
	.align 2
	.p2align 4
	.globl	_ZN8opendnp318MeasurementHandler13ProcessHeaderERKNS_11CountHeaderERKNS_11ICollectionINS_11Group51Var2EEE
	.type	_ZN8opendnp318MeasurementHandler13ProcessHeaderERKNS_11CountHeaderERKNS_11ICollectionINS_11Group51Var2EEE, @function
_ZN8opendnp318MeasurementHandler13ProcessHeaderERKNS_11CountHeaderERKNS_11ICollectionINS_11Group51Var2EEE:
.LFB2446:
	.cfi_startproc
	endbr64
	pushq	%rbp
	.cfi_def_cfa_offset 16
	.cfi_offset 6, -16
	movq	%rdx, %rbp
	pushq	%rbx
	.cfi_def_cfa_offset 24
	.cfi_offset 3, -24
	movq	%rdi, %rbx
	subq	$72, %rsp
	.cfi_def_cfa_offset 96
	movq	%fs:40, %rax
	movq	%rax, 56(%rsp)
	xorl	%eax, %eax
	movq	_ZTVN8opendnp314FunctorVisitorINS_11Group51Var2EZNKS_11ICollectionIS1_E13ReadOnlyValueERS1_EUlRKS1_E_EE@GOTPCREL(%rip), %rax
	leaq	24(%rsp), %rdi
	movq	%rdi, %xmm1
	addq	$16, %rax
	movq	%rax, %xmm0
	punpcklqdq	%xmm1, %xmm0
	movaps	%xmm0, (%rsp)
	call	_ZN8opendnp311Group51Var2C1Ev@PLT
	movq	0(%rbp), %rax
	movq	%rbp, %rdi
	call	*(%rax)
	cmpq	$1, %rax
	jne	.L36
	movdqa	(%rsp), %xmm2
	movq	0(%rbp), %rax
	leaq	32(%rsp), %rsi
	movq	%rbp, %rdi
	movaps	%xmm2, 32(%rsp)
	call	*8(%rax)
	movq	24(%rsp), %rax
	movb	$2, 72(%rbx)
	movq	%rax, 80(%rbx)
.L36:
	movq	56(%rsp), %rax
	subq	%fs:40, %rax
	jne	.L39
	addq	$72, %rsp
	.cfi_remember_state
	.cfi_def_cfa_offset 24
	xorl	%eax, %eax
	popq	%rbx
	.cfi_def_cfa_offset 16
	popq	%rbp
	.cfi_def_cfa_offset 8
	ret
.L39:
	.cfi_restore_state
	call	__stack_chk_fail@PLT
	.cfi_endproc
.LFE2446:
	.size	_ZN8opendnp318MeasurementHandler13ProcessHeaderERKNS_11CountHeaderERKNS_11ICollectionINS_11Group51Var2EEE, .-_ZN8opendnp318MeasurementHandler13ProcessHeaderERKNS_11CountHeaderERKNS_11ICollectionINS_11Group51Var2EEE
	.section	.text._ZNK8opendnp321TransformedCollectionINS_7IndexedINS_15DoubleBitBinaryEEES3_ZNS_18MeasurementHandler14ProcessWithCTOIS2_EENS_8IINFieldERKNS_12HeaderRecordERKNS_11ICollectionINS1_IT_EEEEEUlRKS3_E_E5CountEv,"axG",@progbits,_ZNK8opendnp321TransformedCollectionINS_7IndexedINS_15DoubleBitBinaryEEES3_ZNS_18MeasurementHandler14ProcessWithCTOIS2_EENS_8IINFieldERKNS_12HeaderRecordERKNS_11ICollectionINS1_IT_EEEEEUlRKS3_E_E5CountEv,comdat
	.align 2
	.p2align 4
	.weak	_ZNK8opendnp321TransformedCollectionINS_7IndexedINS_15DoubleBitBinaryEEES3_ZNS_18MeasurementHandler14ProcessWithCTOIS2_EENS_8IINFieldERKNS_12HeaderRecordERKNS_11ICollectionINS1_IT_EEEEEUlRKS3_E_E5CountEv
	.type	_ZNK8opendnp321TransformedCollectionINS_7IndexedINS_15DoubleBitBinaryEEES3_ZNS_18MeasurementHandler14ProcessWithCTOIS2_EENS_8IINFieldERKNS_12HeaderRecordERKNS_11ICollectionINS1_IT_EEEEEUlRKS3_E_E5CountEv, @function
_ZNK8opendnp321TransformedCollectionINS_7IndexedINS_15DoubleBitBinaryEEES3_ZNS_18MeasurementHandler14ProcessWithCTOIS2_EENS_8IINFieldERKNS_12HeaderRecordERKNS_11ICollectionINS1_IT_EEEEEUlRKS3_E_E5CountEv:
.LFB3277:
	.cfi_startproc
	endbr64
	movq	8(%rdi), %rdi
	movq	(%rdi), %rax
	movq	(%rax), %rax
	cmpq	_ZNK8opendnp321TransformedCollectionINS_7IndexedINS_15DoubleBitBinaryEEES3_ZNS_18MeasurementHandler14ProcessWithCTOIS2_EENS_8IINFieldERKNS_12HeaderRecordERKNS_11ICollectionINS1_IT_EEEEEUlRKS3_E_E5CountEv@GOTPCREL(%rip), %rax
	jne	.L41
	movq	8(%rdi), %rdi
	movq	(%rdi), %rdx
	movq	(%rdx), %rdx
	cmpq	%rax, %rdx
	jne	.L42
	movq	8(%rdi), %rdi
	movq	(%rdi), %rax
	movq	(%rax), %rax
	cmpq	%rdx, %rax
	jne	.L41
	movq	8(%rdi), %rdi
	movq	(%rdi), %rdx
	movq	(%rdx), %rdx
	cmpq	%rax, %rdx
	jne	.L42
	movq	8(%rdi), %rdi
	movq	(%rdi), %rax
	movq	(%rax), %rax
	cmpq	%rdx, %rax
	jne	.L41
	movq	8(%rdi), %rdi
	movq	(%rdi), %rdx
	movq	(%rdx), %rdx
	cmpq	%rax, %rdx
	jne	.L42
	movq	8(%rdi), %rdi
	movq	(%rdi), %rax
	movq	(%rax), %rax
	cmpq	%rdx, %rax
	jne	.L41
	movq	8(%rdi), %rdi
	movq	(%rdi), %rdx
	movq	(%rdx), %rdx
	cmpq	%rax, %rdx
	jne	.L42
	movq	8(%rdi), %rdi
	movq	(%rdi), %rax
	jmp	*(%rax)
	.p2align 4,,10
	.p2align 3
.L42:
	jmp	*%rdx
	.p2align 4,,10
	.p2align 3
.L41:
	jmp	*%rax
	.cfi_endproc
.LFE3277:
	.size	_ZNK8opendnp321TransformedCollectionINS_7IndexedINS_15DoubleBitBinaryEEES3_ZNS_18MeasurementHandler14ProcessWithCTOIS2_EENS_8IINFieldERKNS_12HeaderRecordERKNS_11ICollectionINS1_IT_EEEEEUlRKS3_E_E5CountEv, .-_ZNK8opendnp321TransformedCollectionINS_7IndexedINS_15DoubleBitBinaryEEES3_ZNS_18MeasurementHandler14ProcessWithCTOIS2_EENS_8IINFieldERKNS_12HeaderRecordERKNS_11ICollectionINS1_IT_EEEEEUlRKS3_E_E5CountEv
	.section	.text._ZNK8opendnp321TransformedCollectionINS_7IndexedINS_6BinaryEEES3_ZNS_18MeasurementHandler14ProcessWithCTOIS2_EENS_8IINFieldERKNS_12HeaderRecordERKNS_11ICollectionINS1_IT_EEEEEUlRKS3_E_E5CountEv,"axG",@progbits,_ZNK8opendnp321TransformedCollectionINS_7IndexedINS_6BinaryEEES3_ZNS_18MeasurementHandler14ProcessWithCTOIS2_EENS_8IINFieldERKNS_12HeaderRecordERKNS_11ICollectionINS1_IT_EEEEEUlRKS3_E_E5CountEv,comdat
	.align 2
	.p2align 4
	.weak	_ZNK8opendnp321TransformedCollectionINS_7IndexedINS_6BinaryEEES3_ZNS_18MeasurementHandler14ProcessWithCTOIS2_EENS_8IINFieldERKNS_12HeaderRecordERKNS_11ICollectionINS1_IT_EEEEEUlRKS3_E_E5CountEv
	.type	_ZNK8opendnp321TransformedCollectionINS_7IndexedINS_6BinaryEEES3_ZNS_18MeasurementHandler14ProcessWithCTOIS2_EENS_8IINFieldERKNS_12HeaderRecordERKNS_11ICollectionINS1_IT_EEEEEUlRKS3_E_E5CountEv, @function
_ZNK8opendnp321TransformedCollectionINS_7IndexedINS_6BinaryEEES3_ZNS_18MeasurementHandler14ProcessWithCTOIS2_EENS_8IINFieldERKNS_12HeaderRecordERKNS_11ICollectionINS1_IT_EEEEEUlRKS3_E_E5CountEv:
.LFB3280:
	.cfi_startproc
	endbr64
	movq	8(%rdi), %rdi
	movq	(%rdi), %rax
	movq	(%rax), %rax
	cmpq	_ZNK8opendnp321TransformedCollectionINS_7IndexedINS_6BinaryEEES3_ZNS_18MeasurementHandler14ProcessWithCTOIS2_EENS_8IINFieldERKNS_12HeaderRecordERKNS_11ICollectionINS1_IT_EEEEEUlRKS3_E_E5CountEv@GOTPCREL(%rip), %rax
	jne	.L50
	movq	8(%rdi), %rdi
	movq	(%rdi), %rdx
	movq	(%rdx), %rdx
	cmpq	%rax, %rdx
	jne	.L51
	movq	8(%rdi), %rdi
	movq	(%rdi), %rax
	movq	(%rax), %rax
	cmpq	%rdx, %rax
	jne	.L50
	movq	8(%rdi), %rdi
	movq	(%rdi), %rdx
	movq	(%rdx), %rdx
	cmpq	%rax, %rdx
	jne	.L51
	movq	8(%rdi), %rdi
	movq	(%rdi), %rax
	movq	(%rax), %rax
	cmpq	%rdx, %rax
	jne	.L50
	movq	8(%rdi), %rdi
	movq	(%rdi), %rdx
	movq	(%rdx), %rdx
	cmpq	%rax, %rdx
	jne	.L51
	movq	8(%rdi), %rdi
	movq	(%rdi), %rax
	movq	(%rax), %rax
	cmpq	%rdx, %rax
	jne	.L50
	movq	8(%rdi), %rdi
	movq	(%rdi), %rdx
	movq	(%rdx), %rdx
	cmpq	%rax, %rdx
	jne	.L51
	movq	8(%rdi), %rdi
	movq	(%rdi), %rax
	jmp	*(%rax)
	.p2align 4,,10
	.p2align 3
.L51:
	jmp	*%rdx
	.p2align 4,,10
	.p2align 3
.L50:
	jmp	*%rax
	.cfi_endproc
.LFE3280:
	.size	_ZNK8opendnp321TransformedCollectionINS_7IndexedINS_6BinaryEEES3_ZNS_18MeasurementHandler14ProcessWithCTOIS2_EENS_8IINFieldERKNS_12HeaderRecordERKNS_11ICollectionINS1_IT_EEEEEUlRKS3_E_E5CountEv, .-_ZNK8opendnp321TransformedCollectionINS_7IndexedINS_6BinaryEEES3_ZNS_18MeasurementHandler14ProcessWithCTOIS2_EENS_8IINFieldERKNS_12HeaderRecordERKNS_11ICollectionINS1_IT_EEEEEUlRKS3_E_E5CountEv
	.section	.text._ZNK8opendnp321TransformedCollectionINS_7IndexedINS_15DoubleBitBinaryEEES3_ZNS_18MeasurementHandler14ProcessWithCTOIS2_EENS_8IINFieldERKNS_12HeaderRecordERKNS_11ICollectionINS1_IT_EEEEEUlRKS3_E_E7ForeachERNS_8IVisitorIS3_EE,"axG",@progbits,_ZNK8opendnp321TransformedCollectionINS_7IndexedINS_15DoubleBitBinaryEEES3_ZNS_18MeasurementHandler14ProcessWithCTOIS2_EENS_8IINFieldERKNS_12HeaderRecordERKNS_11ICollectionINS1_IT_EEEEEUlRKS3_E_E7ForeachERNS_8IVisitorIS3_EE,comdat
	.align 2
	.p2align 4
	.weak	_ZNK8opendnp321TransformedCollectionINS_7IndexedINS_15DoubleBitBinaryEEES3_ZNS_18MeasurementHandler14ProcessWithCTOIS2_EENS_8IINFieldERKNS_12HeaderRecordERKNS_11ICollectionINS1_IT_EEEEEUlRKS3_E_E7ForeachERNS_8IVisitorIS3_EE
	.type	_ZNK8opendnp321TransformedCollectionINS_7IndexedINS_15DoubleBitBinaryEEES3_ZNS_18MeasurementHandler14ProcessWithCTOIS2_EENS_8IINFieldERKNS_12HeaderRecordERKNS_11ICollectionINS1_IT_EEEEEUlRKS3_E_E7ForeachERNS_8IVisitorIS3_EE, @function
_ZNK8opendnp321TransformedCollectionINS_7IndexedINS_15DoubleBitBinaryEEES3_ZNS_18MeasurementHandler14ProcessWithCTOIS2_EENS_8IINFieldERKNS_12HeaderRecordERKNS_11ICollectionINS1_IT_EEEEEUlRKS3_E_E7ForeachERNS_8IVisitorIS3_EE:
.LFB3278:
	.cfi_startproc
	endbr64
	subq	$296, %rsp
	.cfi_def_cfa_offset 304
	movq	8(%rdi), %r8
	movq	%fs:40, %rax
	movq	%rax, 280(%rsp)
	xorl	%eax, %eax
	movq	_ZTVN8opendnp314FunctorVisitorINS_7IndexedINS_15DoubleBitBinaryEEEZNKS_21TransformedCollectionIS3_S3_ZNS_18MeasurementHandler14ProcessWithCTOIS2_EENS_8IINFieldERKNS_12HeaderRecordERKNS_11ICollectionINS1_IT_EEEEEUlRKS3_E_E7ForeachERNS_8IVisitorIS3_EEEUlSI_E_EE@GOTPCREL(%rip), %rax
	movq	%rdi, 8(%rsp)
	movq	(%r8), %rdx
	movq	%rsi, 16(%rsp)
	addq	$16, %rax
	movq	8(%rdx), %rdx
	cmpq	_ZNK8opendnp321TransformedCollectionINS_7IndexedINS_15DoubleBitBinaryEEES3_ZNS_18MeasurementHandler14ProcessWithCTOIS2_EENS_8IINFieldERKNS_12HeaderRecordERKNS_11ICollectionINS1_IT_EEEEEUlRKS3_E_E7ForeachERNS_8IVisitorIS3_EE@GOTPCREL(%rip), %rdx
	movq	%rax, (%rsp)
	jne	.L59
	movq	8(%r8), %rdi
	movq	%rsp, %rcx
	movq	%rax, 32(%rsp)
	movq	%rcx, 48(%rsp)
	movq	(%rdi), %rcx
	movq	%r8, 40(%rsp)
	movq	8(%rcx), %rcx
	cmpq	%rdx, %rcx
	jne	.L60
	movq	8(%rdi), %r8
	leaq	32(%rsp), %rdx
	movq	%rax, 64(%rsp)
	movq	%rdx, 80(%rsp)
	movq	(%r8), %rdx
	movq	%rdi, 72(%rsp)
	movq	8(%rdx), %rdx
	cmpq	%rcx, %rdx
	jne	.L61
	movq	8(%r8), %rdi
	leaq	64(%rsp), %rcx
	movq	%rax, 96(%rsp)
	movq	%rcx, 112(%rsp)
	movq	(%rdi), %rcx
	movq	%r8, 104(%rsp)
	movq	8(%rcx), %rcx
	cmpq	%rdx, %rcx
	jne	.L62
	movq	8(%rdi), %r8
	leaq	96(%rsp), %rdx
	movq	%rax, 128(%rsp)
	movq	%rdx, 144(%rsp)
	movq	(%r8), %rdx
	movq	%rdi, 136(%rsp)
	movq	8(%rdx), %rdx
	cmpq	%rcx, %rdx
	jne	.L63
	movq	8(%r8), %rdi
	leaq	128(%rsp), %rcx
	movq	%rax, 160(%rsp)
	movq	%rcx, 176(%rsp)
	movq	(%rdi), %rcx
	movq	%r8, 168(%rsp)
	movq	8(%rcx), %rcx
	cmpq	%rdx, %rcx
	jne	.L64
	movq	8(%rdi), %r8
	leaq	160(%rsp), %rdx
	movq	%rax, 192(%rsp)
	movq	%rdx, 208(%rsp)
	movq	(%r8), %rdx
	movq	%rdi, 200(%rsp)
	movq	8(%rdx), %rdx
	cmpq	%rcx, %rdx
	jne	.L65
	movq	8(%r8), %rdi
	leaq	192(%rsp), %rcx
	movq	%rax, 224(%rsp)
	movq	%rcx, 240(%rsp)
	movq	(%rdi), %rcx
	movq	%r8, 232(%rsp)
	movq	8(%rcx), %rcx
	cmpq	%rdx, %rcx
	jne	.L66
	movq	8(%rdi), %r8
	movq	%rax, 256(%rsp)
	leaq	224(%rsp), %rax
	leaq	256(%rsp), %rsi
	movq	%rax, 272(%rsp)
	movq	(%r8), %rax
	movq	%rdi, 264(%rsp)
	movq	%r8, %rdi
	call	*8(%rax)
	jmp	.L58
	.p2align 4,,10
	.p2align 3
.L59:
	movq	%rsp, %rsi
	movq	%r8, %rdi
	call	*%rdx
.L58:
	movq	280(%rsp), %rax
	subq	%fs:40, %rax
	jne	.L77
	addq	$296, %rsp
	.cfi_remember_state
	.cfi_def_cfa_offset 8
	ret
	.p2align 4,,10
	.p2align 3
.L62:
	.cfi_restore_state
	leaq	96(%rsp), %rsi
	call	*%rcx
	jmp	.L58
	.p2align 4,,10
	.p2align 3
.L60:
	leaq	32(%rsp), %rsi
	call	*%rcx
	jmp	.L58
	.p2align 4,,10
	.p2align 3
.L61:
	leaq	64(%rsp), %rsi
	movq	%r8, %rdi
	call	*%rdx
	jmp	.L58
	.p2align 4,,10
	.p2align 3
.L63:
	leaq	128(%rsp), %rsi
	movq	%r8, %rdi
	call	*%rdx
	jmp	.L58
	.p2align 4,,10
	.p2align 3
.L64:
	leaq	160(%rsp), %rsi
	call	*%rcx
	jmp	.L58
	.p2align 4,,10
	.p2align 3
.L65:
	leaq	192(%rsp), %rsi
	movq	%r8, %rdi
	call	*%rdx
	jmp	.L58
	.p2align 4,,10
	.p2align 3
.L66:
	leaq	224(%rsp), %rsi
	call	*%rcx
	jmp	.L58
.L77:
	call	__stack_chk_fail@PLT
	.cfi_endproc
.LFE3278:
	.size	_ZNK8opendnp321TransformedCollectionINS_7IndexedINS_15DoubleBitBinaryEEES3_ZNS_18MeasurementHandler14ProcessWithCTOIS2_EENS_8IINFieldERKNS_12HeaderRecordERKNS_11ICollectionINS1_IT_EEEEEUlRKS3_E_E7ForeachERNS_8IVisitorIS3_EE, .-_ZNK8opendnp321TransformedCollectionINS_7IndexedINS_15DoubleBitBinaryEEES3_ZNS_18MeasurementHandler14ProcessWithCTOIS2_EENS_8IINFieldERKNS_12HeaderRecordERKNS_11ICollectionINS1_IT_EEEEEUlRKS3_E_E7ForeachERNS_8IVisitorIS3_EE
	.section	.text._ZNK8opendnp321TransformedCollectionINS_7IndexedINS_6BinaryEEES3_ZNS_18MeasurementHandler14ProcessWithCTOIS2_EENS_8IINFieldERKNS_12HeaderRecordERKNS_11ICollectionINS1_IT_EEEEEUlRKS3_E_E7ForeachERNS_8IVisitorIS3_EE,"axG",@progbits,_ZNK8opendnp321TransformedCollectionINS_7IndexedINS_6BinaryEEES3_ZNS_18MeasurementHandler14ProcessWithCTOIS2_EENS_8IINFieldERKNS_12HeaderRecordERKNS_11ICollectionINS1_IT_EEEEEUlRKS3_E_E7ForeachERNS_8IVisitorIS3_EE,comdat
	.align 2
	.p2align 4
	.weak	_ZNK8opendnp321TransformedCollectionINS_7IndexedINS_6BinaryEEES3_ZNS_18MeasurementHandler14ProcessWithCTOIS2_EENS_8IINFieldERKNS_12HeaderRecordERKNS_11ICollectionINS1_IT_EEEEEUlRKS3_E_E7ForeachERNS_8IVisitorIS3_EE
	.type	_ZNK8opendnp321TransformedCollectionINS_7IndexedINS_6BinaryEEES3_ZNS_18MeasurementHandler14ProcessWithCTOIS2_EENS_8IINFieldERKNS_12HeaderRecordERKNS_11ICollectionINS1_IT_EEEEEUlRKS3_E_E7ForeachERNS_8IVisitorIS3_EE, @function
_ZNK8opendnp321TransformedCollectionINS_7IndexedINS_6BinaryEEES3_ZNS_18MeasurementHandler14ProcessWithCTOIS2_EENS_8IINFieldERKNS_12HeaderRecordERKNS_11ICollectionINS1_IT_EEEEEUlRKS3_E_E7ForeachERNS_8IVisitorIS3_EE:
.LFB3281:
	.cfi_startproc
	endbr64
	subq	$296, %rsp
	.cfi_def_cfa_offset 304
	movq	8(%rdi), %r8
	movq	%fs:40, %rax
	movq	%rax, 280(%rsp)
	xorl	%eax, %eax
	movq	_ZTVN8opendnp314FunctorVisitorINS_7IndexedINS_6BinaryEEEZNKS_21TransformedCollectionIS3_S3_ZNS_18MeasurementHandler14ProcessWithCTOIS2_EENS_8IINFieldERKNS_12HeaderRecordERKNS_11ICollectionINS1_IT_EEEEEUlRKS3_E_E7ForeachERNS_8IVisitorIS3_EEEUlSI_E_EE@GOTPCREL(%rip), %rax
	movq	%rdi, 8(%rsp)
	movq	(%r8), %rdx
	movq	%rsi, 16(%rsp)
	addq	$16, %rax
	movq	8(%rdx), %rdx
	cmpq	_ZNK8opendnp321TransformedCollectionINS_7IndexedINS_6BinaryEEES3_ZNS_18MeasurementHandler14ProcessWithCTOIS2_EENS_8IINFieldERKNS_12HeaderRecordERKNS_11ICollectionINS1_IT_EEEEEUlRKS3_E_E7ForeachERNS_8IVisitorIS3_EE@GOTPCREL(%rip), %rdx
	movq	%rax, (%rsp)
	jne	.L79
	movq	8(%r8), %rdi
	movq	%rsp, %rcx
	movq	%rax, 32(%rsp)
	movq	%rcx, 48(%rsp)
	movq	(%rdi), %rcx
	movq	%r8, 40(%rsp)
	movq	8(%rcx), %rcx
	cmpq	%rdx, %rcx
	jne	.L80
	movq	8(%rdi), %r8
	leaq	32(%rsp), %rdx
	movq	%rax, 64(%rsp)
	movq	%rdx, 80(%rsp)
	movq	(%r8), %rdx
	movq	%rdi, 72(%rsp)
	movq	8(%rdx), %rdx
	cmpq	%rcx, %rdx
	jne	.L81
	movq	8(%r8), %rdi
	leaq	64(%rsp), %rcx
	movq	%rax, 96(%rsp)
	movq	%rcx, 112(%rsp)
	movq	(%rdi), %rcx
	movq	%r8, 104(%rsp)
	movq	8(%rcx), %rcx
	cmpq	%rdx, %rcx
	jne	.L82
	movq	8(%rdi), %r8
	leaq	96(%rsp), %rdx
	movq	%rax, 128(%rsp)
	movq	%rdx, 144(%rsp)
	movq	(%r8), %rdx
	movq	%rdi, 136(%rsp)
	movq	8(%rdx), %rdx
	cmpq	%rcx, %rdx
	jne	.L83
	movq	8(%r8), %rdi
	leaq	128(%rsp), %rcx
	movq	%rax, 160(%rsp)
	movq	%rcx, 176(%rsp)
	movq	(%rdi), %rcx
	movq	%r8, 168(%rsp)
	movq	8(%rcx), %rcx
	cmpq	%rdx, %rcx
	jne	.L84
	movq	8(%rdi), %r8
	leaq	160(%rsp), %rdx
	movq	%rax, 192(%rsp)
	movq	%rdx, 208(%rsp)
	movq	(%r8), %rdx
	movq	%rdi, 200(%rsp)
	movq	8(%rdx), %rdx
	cmpq	%rcx, %rdx
	jne	.L85
	movq	8(%r8), %rdi
	leaq	192(%rsp), %rcx
	movq	%rax, 224(%rsp)
	movq	%rcx, 240(%rsp)
	movq	(%rdi), %rcx
	movq	%r8, 232(%rsp)
	movq	8(%rcx), %rcx
	cmpq	%rdx, %rcx
	jne	.L86
	movq	8(%rdi), %r8
	movq	%rax, 256(%rsp)
	leaq	224(%rsp), %rax
	leaq	256(%rsp), %rsi
	movq	%rax, 272(%rsp)
	movq	(%r8), %rax
	movq	%rdi, 264(%rsp)
	movq	%r8, %rdi
	call	*8(%rax)
	jmp	.L78
	.p2align 4,,10
	.p2align 3
.L79:
	movq	%rsp, %rsi
	movq	%r8, %rdi
	call	*%rdx
.L78:
	movq	280(%rsp), %rax
	subq	%fs:40, %rax
	jne	.L97
	addq	$296, %rsp
	.cfi_remember_state
	.cfi_def_cfa_offset 8
	ret
	.p2align 4,,10
	.p2align 3
.L82:
	.cfi_restore_state
	leaq	96(%rsp), %rsi
	call	*%rcx
	jmp	.L78
	.p2align 4,,10
	.p2align 3
.L80:
	leaq	32(%rsp), %rsi
	call	*%rcx
	jmp	.L78
	.p2align 4,,10
	.p2align 3
.L81:
	leaq	64(%rsp), %rsi
	movq	%r8, %rdi
	call	*%rdx
	jmp	.L78
	.p2align 4,,10
	.p2align 3
.L83:
	leaq	128(%rsp), %rsi
	movq	%r8, %rdi
	call	*%rdx
	jmp	.L78
	.p2align 4,,10
	.p2align 3
.L84:
	leaq	160(%rsp), %rsi
	call	*%rcx
	jmp	.L78
	.p2align 4,,10
	.p2align 3
.L85:
	leaq	192(%rsp), %rsi
	movq	%r8, %rdi
	call	*%rdx
	jmp	.L78
	.p2align 4,,10
	.p2align 3
.L86:
	leaq	224(%rsp), %rsi
	call	*%rcx
	jmp	.L78
.L97:
	call	__stack_chk_fail@PLT
	.cfi_endproc
.LFE3281:
	.size	_ZNK8opendnp321TransformedCollectionINS_7IndexedINS_6BinaryEEES3_ZNS_18MeasurementHandler14ProcessWithCTOIS2_EENS_8IINFieldERKNS_12HeaderRecordERKNS_11ICollectionINS1_IT_EEEEEUlRKS3_E_E7ForeachERNS_8IVisitorIS3_EE, .-_ZNK8opendnp321TransformedCollectionINS_7IndexedINS_6BinaryEEES3_ZNS_18MeasurementHandler14ProcessWithCTOIS2_EENS_8IINFieldERKNS_12HeaderRecordERKNS_11ICollectionINS1_IT_EEEEEUlRKS3_E_E7ForeachERNS_8IVisitorIS3_EE
	.section	.text._ZN8opendnp314FunctorVisitorINS_7IndexedINS_6BinaryEEEZNKS_21TransformedCollectionIS3_S3_ZNS_18MeasurementHandler14ProcessWithCTOIS2_EENS_8IINFieldERKNS_12HeaderRecordERKNS_11ICollectionINS1_IT_EEEEEUlRKS3_E_E7ForeachERNS_8IVisitorIS3_EEEUlSI_E_E7OnValueESI_,"axG",@progbits,_ZN8opendnp314FunctorVisitorINS_7IndexedINS_6BinaryEEEZNKS_21TransformedCollectionIS3_S3_ZNS_18MeasurementHandler14ProcessWithCTOIS2_EENS_8IINFieldERKNS_12HeaderRecordERKNS_11ICollectionINS1_IT_EEEEEUlRKS3_E_E7ForeachERNS_8IVisitorIS3_EEEUlSI_E_E7OnValueESI_,comdat
	.align 2
	.p2align 4
	.weak	_ZN8opendnp314FunctorVisitorINS_7IndexedINS_6BinaryEEEZNKS_21TransformedCollectionIS3_S3_ZNS_18MeasurementHandler14ProcessWithCTOIS2_EENS_8IINFieldERKNS_12HeaderRecordERKNS_11ICollectionINS1_IT_EEEEEUlRKS3_E_E7ForeachERNS_8IVisitorIS3_EEEUlSI_E_E7OnValueESI_
	.type	_ZN8opendnp314FunctorVisitorINS_7IndexedINS_6BinaryEEEZNKS_21TransformedCollectionIS3_S3_ZNS_18MeasurementHandler14ProcessWithCTOIS2_EENS_8IINFieldERKNS_12HeaderRecordERKNS_11ICollectionINS1_IT_EEEEEUlRKS3_E_E7ForeachERNS_8IVisitorIS3_EEEUlSI_E_E7OnValueESI_, @function
_ZN8opendnp314FunctorVisitorINS_7IndexedINS_6BinaryEEEZNKS_21TransformedCollectionIS3_S3_ZNS_18MeasurementHandler14ProcessWithCTOIS2_EENS_8IINFieldERKNS_12HeaderRecordERKNS_11ICollectionINS1_IT_EEEEEUlRKS3_E_E7ForeachERNS_8IVisitorIS3_EEEUlSI_E_E7OnValueESI_:
.LFB3340:
	.cfi_startproc
	endbr64
	subq	$312, %rsp
	.cfi_def_cfa_offset 320
	movq	16(%rdi), %r8
	movdqu	(%rsi), %xmm1
	movq	%fs:40, %rax
	movq	%rax, 296(%rsp)
	xorl	%eax, %eax
	movdqu	16(%rsi), %xmm0
	movq	(%r8), %rax
	movq	(%rax), %rdx
	movq	8(%rdi), %rax
	movaps	%xmm1, (%rsp)
	movaps	%xmm0, 16(%rsp)
	movq	16(%rax), %rax
	addq	8(%rsi), %rax
	cmpq	_ZN8opendnp314FunctorVisitorINS_7IndexedINS_6BinaryEEEZNKS_21TransformedCollectionIS3_S3_ZNS_18MeasurementHandler14ProcessWithCTOIS2_EENS_8IINFieldERKNS_12HeaderRecordERKNS_11ICollectionINS1_IT_EEEEEUlRKS3_E_E7ForeachERNS_8IVisitorIS3_EEEUlSI_E_E7OnValueESI_@GOTPCREL(%rip), %rdx
	movq	%rax, 8(%rsp)
	jne	.L99
	movq	16(%r8), %rdi
	movq	8(%r8), %rsi
	movdqa	(%rsp), %xmm2
	movq	(%rdi), %rcx
	movq	(%rcx), %rcx
	movaps	%xmm2, 32(%rsp)
	movaps	%xmm0, 48(%rsp)
	addq	16(%rsi), %rax
	movq	%rax, 40(%rsp)
	cmpq	%rdx, %rcx
	jne	.L100
	movq	16(%rdi), %r8
	movq	8(%rdi), %rsi
	movdqa	32(%rsp), %xmm3
	movq	(%r8), %rdx
	movq	(%rdx), %rdx
	movaps	%xmm3, 64(%rsp)
	movaps	%xmm0, 80(%rsp)
	addq	16(%rsi), %rax
	movq	%rax, 72(%rsp)
	cmpq	%rcx, %rdx
	jne	.L101
	movq	16(%r8), %rdi
	movq	8(%r8), %rsi
	movdqa	64(%rsp), %xmm4
	movq	(%rdi), %rcx
	movq	(%rcx), %rcx
	movaps	%xmm4, 96(%rsp)
	movaps	%xmm0, 112(%rsp)
	addq	16(%rsi), %rax
	movq	%rax, 104(%rsp)
	cmpq	%rdx, %rcx
	jne	.L102
	movq	16(%rdi), %r8
	movq	8(%rdi), %rsi
	movdqa	96(%rsp), %xmm5
	movq	(%r8), %rdx
	movq	(%rdx), %rdx
	movaps	%xmm5, 128(%rsp)
	movaps	%xmm0, 144(%rsp)
	addq	16(%rsi), %rax
	movq	%rax, 136(%rsp)
	cmpq	%rcx, %rdx
	jne	.L103
	movq	16(%r8), %rdi
	movq	8(%r8), %rsi
	movdqa	128(%rsp), %xmm6
	movq	(%rdi), %rcx
	movq	(%rcx), %rcx
	movaps	%xmm6, 160(%rsp)
	movaps	%xmm0, 176(%rsp)
	addq	16(%rsi), %rax
	movq	%rax, 168(%rsp)
	cmpq	%rdx, %rcx
	jne	.L104
	movq	16(%rdi), %r8
	movq	8(%rdi), %rsi
	movdqa	160(%rsp), %xmm7
	movq	(%r8), %rdx
	movq	(%rdx), %rdx
	movaps	%xmm7, 192(%rsp)
	movaps	%xmm0, 208(%rsp)
	addq	16(%rsi), %rax
	movq	%rax, 200(%rsp)
	cmpq	%rcx, %rdx
	jne	.L105
	movq	16(%r8), %rdi
	movq	8(%r8), %rsi
	movdqa	192(%rsp), %xmm7
	movq	(%rdi), %rcx
	movq	(%rcx), %rcx
	movaps	%xmm7, 224(%rsp)
	movaps	%xmm0, 240(%rsp)
	addq	16(%rsi), %rax
	movq	%rax, 232(%rsp)
	cmpq	%rdx, %rcx
	jne	.L106
	movq	16(%rdi), %r8
	movq	8(%rdi), %rcx
	leaq	256(%rsp), %rsi
	movdqa	224(%rsp), %xmm6
	movq	(%r8), %rdx
	movq	%r8, %rdi
	movq	(%rdx), %rdx
	movaps	%xmm6, 256(%rsp)
	movaps	%xmm0, 272(%rsp)
	addq	16(%rcx), %rax
	movq	%rax, 264(%rsp)
	call	*%rdx
	jmp	.L98
	.p2align 4,,10
	.p2align 3
.L99:
	movq	%rsp, %rsi
	movq	%r8, %rdi
	call	*%rdx
.L98:
	movq	296(%rsp), %rax
	subq	%fs:40, %rax
	jne	.L117
	addq	$312, %rsp
	.cfi_remember_state
	.cfi_def_cfa_offset 8
	ret
	.p2align 4,,10
	.p2align 3
.L102:
	.cfi_restore_state
	leaq	96(%rsp), %rsi
	call	*%rcx
	jmp	.L98
	.p2align 4,,10
	.p2align 3
.L100:
	leaq	32(%rsp), %rsi
	call	*%rcx
	jmp	.L98
	.p2align 4,,10
	.p2align 3
.L101:
	leaq	64(%rsp), %rsi
	movq	%r8, %rdi
	call	*%rdx
	jmp	.L98
	.p2align 4,,10
	.p2align 3
.L103:
	leaq	128(%rsp), %rsi
	movq	%r8, %rdi
	call	*%rdx
	jmp	.L98
	.p2align 4,,10
	.p2align 3
.L104:
	leaq	160(%rsp), %rsi
	call	*%rcx
	jmp	.L98
	.p2align 4,,10
	.p2align 3
.L105:
	leaq	192(%rsp), %rsi
	movq	%r8, %rdi
	call	*%rdx
	jmp	.L98
	.p2align 4,,10
	.p2align 3
.L106:
	leaq	224(%rsp), %rsi
	call	*%rcx
	jmp	.L98
.L117:
	call	__stack_chk_fail@PLT
	.cfi_endproc
.LFE3340:
	.size	_ZN8opendnp314FunctorVisitorINS_7IndexedINS_6BinaryEEEZNKS_21TransformedCollectionIS3_S3_ZNS_18MeasurementHandler14ProcessWithCTOIS2_EENS_8IINFieldERKNS_12HeaderRecordERKNS_11ICollectionINS1_IT_EEEEEUlRKS3_E_E7ForeachERNS_8IVisitorIS3_EEEUlSI_E_E7OnValueESI_, .-_ZN8opendnp314FunctorVisitorINS_7IndexedINS_6BinaryEEEZNKS_21TransformedCollectionIS3_S3_ZNS_18MeasurementHandler14ProcessWithCTOIS2_EENS_8IINFieldERKNS_12HeaderRecordERKNS_11ICollectionINS1_IT_EEEEEUlRKS3_E_E7ForeachERNS_8IVisitorIS3_EEEUlSI_E_E7OnValueESI_
	.section	.text._ZN8opendnp314FunctorVisitorINS_7IndexedINS_15DoubleBitBinaryEEEZNKS_21TransformedCollectionIS3_S3_ZNS_18MeasurementHandler14ProcessWithCTOIS2_EENS_8IINFieldERKNS_12HeaderRecordERKNS_11ICollectionINS1_IT_EEEEEUlRKS3_E_E7ForeachERNS_8IVisitorIS3_EEEUlSI_E_E7OnValueESI_,"axG",@progbits,_ZN8opendnp314FunctorVisitorINS_7IndexedINS_15DoubleBitBinaryEEEZNKS_21TransformedCollectionIS3_S3_ZNS_18MeasurementHandler14ProcessWithCTOIS2_EENS_8IINFieldERKNS_12HeaderRecordERKNS_11ICollectionINS1_IT_EEEEEUlRKS3_E_E7ForeachERNS_8IVisitorIS3_EEEUlSI_E_E7OnValueESI_,comdat
	.align 2
	.p2align 4
	.weak	_ZN8opendnp314FunctorVisitorINS_7IndexedINS_15DoubleBitBinaryEEEZNKS_21TransformedCollectionIS3_S3_ZNS_18MeasurementHandler14ProcessWithCTOIS2_EENS_8IINFieldERKNS_12HeaderRecordERKNS_11ICollectionINS1_IT_EEEEEUlRKS3_E_E7ForeachERNS_8IVisitorIS3_EEEUlSI_E_E7OnValueESI_
	.type	_ZN8opendnp314FunctorVisitorINS_7IndexedINS_15DoubleBitBinaryEEEZNKS_21TransformedCollectionIS3_S3_ZNS_18MeasurementHandler14ProcessWithCTOIS2_EENS_8IINFieldERKNS_12HeaderRecordERKNS_11ICollectionINS1_IT_EEEEEUlRKS3_E_E7ForeachERNS_8IVisitorIS3_EEEUlSI_E_E7OnValueESI_, @function
_ZN8opendnp314FunctorVisitorINS_7IndexedINS_15DoubleBitBinaryEEEZNKS_21TransformedCollectionIS3_S3_ZNS_18MeasurementHandler14ProcessWithCTOIS2_EENS_8IINFieldERKNS_12HeaderRecordERKNS_11ICollectionINS1_IT_EEEEEUlRKS3_E_E7ForeachERNS_8IVisitorIS3_EEEUlSI_E_E7OnValueESI_:
.LFB3341:
	.cfi_startproc
	endbr64
	subq	$312, %rsp
	.cfi_def_cfa_offset 320
	movq	16(%rdi), %r8
	movdqu	(%rsi), %xmm1
	movq	%fs:40, %rax
	movq	%rax, 296(%rsp)
	xorl	%eax, %eax
	movdqu	16(%rsi), %xmm0
	movq	(%r8), %rax
	movq	(%rax), %rdx
	movq	8(%rdi), %rax
	movaps	%xmm1, (%rsp)
	movaps	%xmm0, 16(%rsp)
	movq	16(%rax), %rax
	addq	8(%rsi), %rax
	cmpq	_ZN8opendnp314FunctorVisitorINS_7IndexedINS_15DoubleBitBinaryEEEZNKS_21TransformedCollectionIS3_S3_ZNS_18MeasurementHandler14ProcessWithCTOIS2_EENS_8IINFieldERKNS_12HeaderRecordERKNS_11ICollectionINS1_IT_EEEEEUlRKS3_E_E7ForeachERNS_8IVisitorIS3_EEEUlSI_E_E7OnValueESI_@GOTPCREL(%rip), %rdx
	movq	%rax, 8(%rsp)
	jne	.L119
	movq	16(%r8), %rdi
	movq	8(%r8), %rsi
	movdqa	(%rsp), %xmm2
	movq	(%rdi), %rcx
	movq	(%rcx), %rcx
	movaps	%xmm2, 32(%rsp)
	movaps	%xmm0, 48(%rsp)
	addq	16(%rsi), %rax
	movq	%rax, 40(%rsp)
	cmpq	%rdx, %rcx
	jne	.L120
	movq	16(%rdi), %r8
	movq	8(%rdi), %rsi
	movdqa	32(%rsp), %xmm3
	movq	(%r8), %rdx
	movq	(%rdx), %rdx
	movaps	%xmm3, 64(%rsp)
	movaps	%xmm0, 80(%rsp)
	addq	16(%rsi), %rax
	movq	%rax, 72(%rsp)
	cmpq	%rcx, %rdx
	jne	.L121
	movq	16(%r8), %rdi
	movq	8(%r8), %rsi
	movdqa	64(%rsp), %xmm4
	movq	(%rdi), %rcx
	movq	(%rcx), %rcx
	movaps	%xmm4, 96(%rsp)
	movaps	%xmm0, 112(%rsp)
	addq	16(%rsi), %rax
	movq	%rax, 104(%rsp)
	cmpq	%rdx, %rcx
	jne	.L122
	movq	16(%rdi), %r8
	movq	8(%rdi), %rsi
	movdqa	96(%rsp), %xmm5
	movq	(%r8), %rdx
	movq	(%rdx), %rdx
	movaps	%xmm5, 128(%rsp)
	movaps	%xmm0, 144(%rsp)
	addq	16(%rsi), %rax
	movq	%rax, 136(%rsp)
	cmpq	%rcx, %rdx
	jne	.L123
	movq	16(%r8), %rdi
	movq	8(%r8), %rsi
	movdqa	128(%rsp), %xmm6
	movq	(%rdi), %rcx
	movq	(%rcx), %rcx
	movaps	%xmm6, 160(%rsp)
	movaps	%xmm0, 176(%rsp)
	addq	16(%rsi), %rax
	movq	%rax, 168(%rsp)
	cmpq	%rdx, %rcx
	jne	.L124
	movq	16(%rdi), %r8
	movq	8(%rdi), %rsi
	movdqa	160(%rsp), %xmm7
	movq	(%r8), %rdx
	movq	(%rdx), %rdx
	movaps	%xmm7, 192(%rsp)
	movaps	%xmm0, 208(%rsp)
	addq	16(%rsi), %rax
	movq	%rax, 200(%rsp)
	cmpq	%rcx, %rdx
	jne	.L125
	movq	16(%r8), %rdi
	movq	8(%r8), %rsi
	movdqa	192(%rsp), %xmm7
	movq	(%rdi), %rcx
	movq	(%rcx), %rcx
	movaps	%xmm7, 224(%rsp)
	movaps	%xmm0, 240(%rsp)
	addq	16(%rsi), %rax
	movq	%rax, 232(%rsp)
	cmpq	%rdx, %rcx
	jne	.L126
	movq	16(%rdi), %r8
	movq	8(%rdi), %rcx
	leaq	256(%rsp), %rsi
	movdqa	224(%rsp), %xmm6
	movq	(%r8), %rdx
	movq	%r8, %rdi
	movq	(%rdx), %rdx
	movaps	%xmm6, 256(%rsp)
	movaps	%xmm0, 272(%rsp)
	addq	16(%rcx), %rax
	movq	%rax, 264(%rsp)
	call	*%rdx
	jmp	.L118
	.p2align 4,,10
	.p2align 3
.L119:
	movq	%rsp, %rsi
	movq	%r8, %rdi
	call	*%rdx
.L118:
	movq	296(%rsp), %rax
	subq	%fs:40, %rax
	jne	.L137
	addq	$312, %rsp
	.cfi_remember_state
	.cfi_def_cfa_offset 8
	ret
	.p2align 4,,10
	.p2align 3
.L122:
	.cfi_restore_state
	leaq	96(%rsp), %rsi
	call	*%rcx
	jmp	.L118
	.p2align 4,,10
	.p2align 3
.L120:
	leaq	32(%rsp), %rsi
	call	*%rcx
	jmp	.L118
	.p2align 4,,10
	.p2align 3
.L121:
	leaq	64(%rsp), %rsi
	movq	%r8, %rdi
	call	*%rdx
	jmp	.L118
	.p2align 4,,10
	.p2align 3
.L123:
	leaq	128(%rsp), %rsi
	movq	%r8, %rdi
	call	*%rdx
	jmp	.L118
	.p2align 4,,10
	.p2align 3
.L124:
	leaq	160(%rsp), %rsi
	call	*%rcx
	jmp	.L118
	.p2align 4,,10
	.p2align 3
.L125:
	leaq	192(%rsp), %rsi
	movq	%r8, %rdi
	call	*%rdx
	jmp	.L118
	.p2align 4,,10
	.p2align 3
.L126:
	leaq	224(%rsp), %rsi
	call	*%rcx
	jmp	.L118
.L137:
	call	__stack_chk_fail@PLT
	.cfi_endproc
.LFE3341:
	.size	_ZN8opendnp314FunctorVisitorINS_7IndexedINS_15DoubleBitBinaryEEEZNKS_21TransformedCollectionIS3_S3_ZNS_18MeasurementHandler14ProcessWithCTOIS2_EENS_8IINFieldERKNS_12HeaderRecordERKNS_11ICollectionINS1_IT_EEEEEUlRKS3_E_E7ForeachERNS_8IVisitorIS3_EEEUlSI_E_E7OnValueESI_, .-_ZN8opendnp314FunctorVisitorINS_7IndexedINS_15DoubleBitBinaryEEEZNKS_21TransformedCollectionIS3_S3_ZNS_18MeasurementHandler14ProcessWithCTOIS2_EENS_8IINFieldERKNS_12HeaderRecordERKNS_11ICollectionINS1_IT_EEEEEUlRKS3_E_E7ForeachERNS_8IVisitorIS3_EEEUlSI_E_E7OnValueESI_
	.text
	.align 2
	.p2align 4
	.globl	_ZN8opendnp318MeasurementHandlerC2ERKN7openpal6LoggerEPNS_11ISOEHandlerE
	.type	_ZN8opendnp318MeasurementHandlerC2ERKN7openpal6LoggerEPNS_11ISOEHandlerE, @function
_ZN8opendnp318MeasurementHandlerC2ERKN7openpal6LoggerEPNS_11ISOEHandlerE:
.LFB2428:
	.cfi_startproc
	endbr64
	pushq	%r12
	.cfi_def_cfa_offset 16
	.cfi_offset 12, -16
	movq	%rdx, %r12
	pushq	%rbp
	.cfi_def_cfa_offset 24
	.cfi_offset 6, -24
	movq	%rsi, %rbp
	pushq	%rbx
	.cfi_def_cfa_offset 32
	.cfi_offset 3, -32
	movq	%rdi, %rbx
	call	_ZN8opendnp312IAPDUHandlerC2Ev@PLT
	movq	_ZTVN8opendnp318MeasurementHandlerE@GOTPCREL(%rip), %rax
	addq	$16, %rax
	movq	%rax, (%rbx)
	movdqu	0(%rbp), %xmm0
	movq	8(%rbp), %rax
	movups	%xmm0, 24(%rbx)
	testq	%rax, %rax
	je	.L139
	movq	__libc_single_threaded@GOTPCREL(%rip), %rdx
	cmpb	$0, (%rdx)
	je	.L140
	addl	$1, 8(%rax)
.L139:
	movdqu	16(%rbp), %xmm1
	movups	%xmm1, 40(%rbx)
	movq	48(%rbx), %rax
	testq	%rax, %rax
	je	.L141
	movq	__libc_single_threaded@GOTPCREL(%rip), %rdx
	cmpb	$0, (%rdx)
	je	.L142
	addl	$1, 8(%rax)
.L141:
	movq	%r12, 64(%rbx)
	movb	$0, 56(%rbx)
	movb	$0, 72(%rbx)
	movq	$0, 80(%rbx)
	popq	%rbx
	.cfi_remember_state
	.cfi_def_cfa_offset 24
	popq	%rbp
	.cfi_def_cfa_offset 16
	popq	%r12
	.cfi_def_cfa_offset 8
	ret
	.p2align 4,,10
	.p2align 3
.L140:
	.cfi_restore_state
	lock addl	$1, 8(%rax)
	jmp	.L139
	.p2align 4,,10
	.p2align 3
.L142:
	lock addl	$1, 8(%rax)
	jmp	.L141
	.cfi_endproc
.LFE2428:
	.size	_ZN8opendnp318MeasurementHandlerC2ERKN7openpal6LoggerEPNS_11ISOEHandlerE, .-_ZN8opendnp318MeasurementHandlerC2ERKN7openpal6LoggerEPNS_11ISOEHandlerE
	.globl	_ZN8opendnp318MeasurementHandlerC1ERKN7openpal6LoggerEPNS_11ISOEHandlerE
	.set	_ZN8opendnp318MeasurementHandlerC1ERKN7openpal6LoggerEPNS_11ISOEHandlerE,_ZN8opendnp318MeasurementHandlerC2ERKN7openpal6LoggerEPNS_11ISOEHandlerE
	.align 2
	.p2align 4
	.globl	_ZN8opendnp318MeasurementHandlerD2Ev
	.type	_ZN8opendnp318MeasurementHandlerD2Ev, @function
_ZN8opendnp318MeasurementHandlerD2Ev:
.LFB2431:
	.cfi_startproc
	.cfi_personality 0x9b,DW.ref.__gxx_personality_v0
	.cfi_lsda 0x1b,.LLSDA2431
	endbr64
	movq	_ZTVN8opendnp318MeasurementHandlerE@GOTPCREL(%rip), %rax
	pushq	%r12
	.cfi_def_cfa_offset 16
	.cfi_offset 12, -16
	pushq	%rbp
	.cfi_def_cfa_offset 24
	.cfi_offset 6, -24
	addq	$16, %rax
	pushq	%rbx
	.cfi_def_cfa_offset 32
	.cfi_offset 3, -32
	cmpb	$0, 56(%rdi)
	movq	%rdi, %rbx
	movq	%rax, (%rdi)
	je	.L151
	movq	64(%rdi), %rdi
	testq	%rdi, %rdi
	je	.L151
	movq	(%rdi), %rax
	call	*24(%rax)
.L151:
	movq	48(%rbx), %rbp
	testq	%rbp, %rbp
	je	.L153
	movq	__libc_single_threaded@GOTPCREL(%rip), %r12
	cmpb	$0, (%r12)
	je	.L154
	movl	8(%rbp), %eax
	leal	-1(%rax), %edx
	movl	%edx, 8(%rbp)
.L155:
	cmpl	$1, %eax
	je	.L170
.L153:
	movq	32(%rbx), %rbp
	testq	%rbp, %rbp
	je	.L150
	movq	__libc_single_threaded@GOTPCREL(%rip), %r12
	cmpb	$0, (%r12)
	je	.L161
	movl	8(%rbp), %eax
	leal	-1(%rax), %edx
	movl	%edx, 8(%rbp)
.L162:
	cmpl	$1, %eax
	je	.L171
.L150:
	popq	%rbx
	.cfi_remember_state
	.cfi_def_cfa_offset 24
	popq	%rbp
	.cfi_def_cfa_offset 16
	popq	%r12
	.cfi_def_cfa_offset 8
	ret
	.p2align 4,,10
	.p2align 3
.L170:
	.cfi_restore_state
	movq	0(%rbp), %rax
	movq	%rbp, %rdi
	call	*16(%rax)
	cmpb	$0, (%r12)
	je	.L157
	movl	12(%rbp), %eax
	leal	-1(%rax), %edx
	movl	%edx, 12(%rbp)
.L158:
	cmpl	$1, %eax
	jne	.L153
	movq	0(%rbp), %rax
	movq	%rbp, %rdi
	call	*24(%rax)
	jmp	.L153
	.p2align 4,,10
	.p2align 3
.L171:
	movq	0(%rbp), %rax
	movq	%rbp, %rdi
	call	*16(%rax)
	cmpb	$0, (%r12)
	je	.L164
	movl	12(%rbp), %eax
	leal	-1(%rax), %edx
	movl	%edx, 12(%rbp)
.L165:
	cmpl	$1, %eax
	jne	.L150
	movq	0(%rbp), %rax
	popq	%rbx
	.cfi_remember_state
	.cfi_def_cfa_offset 24
	movq	%rbp, %rdi
	popq	%rbp
	.cfi_def_cfa_offset 16
	popq	%r12
	.cfi_def_cfa_offset 8
	movq	24(%rax), %rax
	jmp	*%rax
	.p2align 4,,10
	.p2align 3
.L161:
	.cfi_restore_state
	movl	$-1, %eax
	lock xaddl	%eax, 8(%rbp)
	jmp	.L162
	.p2align 4,,10
	.p2align 3
.L154:
	movl	$-1, %eax
	lock xaddl	%eax, 8(%rbp)
	jmp	.L155
	.p2align 4,,10
	.p2align 3
.L157:
	movl	$-1, %eax
	lock xaddl	%eax, 12(%rbp)
	jmp	.L158
	.p2align 4,,10
	.p2align 3
.L164:
	movl	$-1, %eax
	lock xaddl	%eax, 12(%rbp)
	jmp	.L165
	.cfi_endproc
.LFE2431:
	.globl	__gxx_personality_v0
	.section	.gcc_except_table,"a",@progbits
.LLSDA2431:
	.byte	0xff
	.byte	0xff
	.byte	0x1
	.uleb128 .LLSDACSE2431-.LLSDACSB2431
.LLSDACSB2431:
.LLSDACSE2431:
	.text
	.size	_ZN8opendnp318MeasurementHandlerD2Ev, .-_ZN8opendnp318MeasurementHandlerD2Ev
	.globl	_ZN8opendnp318MeasurementHandlerD1Ev
	.set	_ZN8opendnp318MeasurementHandlerD1Ev,_ZN8opendnp318MeasurementHandlerD2Ev
	.section	.text.unlikely,"ax",@progbits
	.align 2
.LCOLDB0:
	.text
.LHOTB0:
	.align 2
	.p2align 4
	.globl	_ZN8opendnp318MeasurementHandler19ProcessMeasurementsERKN7openpal6RSliceERNS1_6LoggerEPNS_11ISOEHandlerE
	.type	_ZN8opendnp318MeasurementHandler19ProcessMeasurementsERKN7openpal6RSliceERNS1_6LoggerEPNS_11ISOEHandlerE, @function
_ZN8opendnp318MeasurementHandler19ProcessMeasurementsERKN7openpal6RSliceERNS1_6LoggerEPNS_11ISOEHandlerE:
.LFB2426:
	.cfi_startproc
	.cfi_personality 0x9b,DW.ref.__gxx_personality_v0
	.cfi_lsda 0x1b,.LLSDA2426
	endbr64
	pushq	%r13
	.cfi_def_cfa_offset 16
	.cfi_offset 13, -16
	movq	%rdi, %r13
	pushq	%r12
	.cfi_def_cfa_offset 24
	.cfi_offset 12, -24
	movq	%rsi, %r12
	pushq	%rbp
	.cfi_def_cfa_offset 32
	.cfi_offset 6, -32
	subq	$96, %rsp
	.cfi_def_cfa_offset 128
	movq	%fs:40, %rax
	movq	%rax, 88(%rsp)
	xorl	%eax, %eax
	movq	%rsp, %rbp
	movq	%rbp, %rdi
.LEHB0:
	call	_ZN8opendnp318MeasurementHandlerC1ERKN7openpal6LoggerEPNS_11ISOEHandlerE@PLT
.LEHE0:
	movq	%r12, %rdx
	movq	%rbp, %rsi
	movq	%r13, %rdi
	movabsq	$35184372088833, %rcx
.LEHB1:
	call	_ZN8opendnp310APDUParser5ParseERKN7openpal6RSliceERNS_12IAPDUHandlerEPNS1_6LoggerENS_14ParserSettingsE@PLT
.LEHE1:
	movq	%rbp, %rdi
	movl	%eax, %r12d
	call	_ZN8opendnp318MeasurementHandlerD1Ev@PLT
	movq	88(%rsp), %rax
	subq	%fs:40, %rax
	jne	.L178
	addq	$96, %rsp
	.cfi_remember_state
	.cfi_def_cfa_offset 32
	movl	%r12d, %eax
	popq	%rbp
	.cfi_def_cfa_offset 24
	popq	%r12
	.cfi_def_cfa_offset 16
	popq	%r13
	.cfi_def_cfa_offset 8
	ret
.L178:
	.cfi_restore_state
	call	__stack_chk_fail@PLT
.L175:
	endbr64
	movq	%rax, %r12
	jmp	.L173
	.section	.gcc_except_table
.LLSDA2426:
	.byte	0xff
	.byte	0xff
	.byte	0x1
	.uleb128 .LLSDACSE2426-.LLSDACSB2426
.LLSDACSB2426:
	.uleb128 .LEHB0-.LFB2426
	.uleb128 .LEHE0-.LEHB0
	.uleb128 0
	.uleb128 0
	.uleb128 .LEHB1-.LFB2426
	.uleb128 .LEHE1-.LEHB1
	.uleb128 .L175-.LFB2426
	.uleb128 0
.LLSDACSE2426:
	.text
	.cfi_endproc
	.section	.text.unlikely
	.cfi_startproc
	.cfi_personality 0x9b,DW.ref.__gxx_personality_v0
	.cfi_lsda 0x1b,.LLSDAC2426
	.type	_ZN8opendnp318MeasurementHandler19ProcessMeasurementsERKN7openpal6RSliceERNS1_6LoggerEPNS_11ISOEHandlerE.cold, @function
_ZN8opendnp318MeasurementHandler19ProcessMeasurementsERKN7openpal6RSliceERNS1_6LoggerEPNS_11ISOEHandlerE.cold:
.LFSB2426:
.L173:
	.cfi_def_cfa_offset 128
	.cfi_offset 6, -32
	.cfi_offset 12, -24
	.cfi_offset 13, -16
	movq	%rbp, %rdi
	call	_ZN8opendnp318MeasurementHandlerD1Ev@PLT
	movq	%r12, %rdi
.LEHB2:
	call	_Unwind_Resume@PLT
.LEHE2:
	.cfi_endproc
.LFE2426:
	.section	.gcc_except_table
.LLSDAC2426:
	.byte	0xff
	.byte	0xff
	.byte	0x1
	.uleb128 .LLSDACSEC2426-.LLSDACSBC2426
.LLSDACSBC2426:
	.uleb128 .LEHB2-.LCOLDB0
	.uleb128 .LEHE2-.LEHB2
	.uleb128 0
	.uleb128 0
.LLSDACSEC2426:
	.section	.text.unlikely
	.text
	.size	_ZN8opendnp318MeasurementHandler19ProcessMeasurementsERKN7openpal6RSliceERNS1_6LoggerEPNS_11ISOEHandlerE, .-_ZN8opendnp318MeasurementHandler19ProcessMeasurementsERKN7openpal6RSliceERNS1_6LoggerEPNS_11ISOEHandlerE
	.section	.text.unlikely
	.size	_ZN8opendnp318MeasurementHandler19ProcessMeasurementsERKN7openpal6RSliceERNS1_6LoggerEPNS_11ISOEHandlerE.cold, .-_ZN8opendnp318MeasurementHandler19ProcessMeasurementsERKN7openpal6RSliceERNS1_6LoggerEPNS_11ISOEHandlerE.cold
.LCOLDE0:
	.text
.LHOTE0:
	.align 2
	.p2align 4
	.globl	_ZN8opendnp318MeasurementHandler12ModeFromTypeENS_14GroupVariationE
	.type	_ZN8opendnp318MeasurementHandler12ModeFromTypeENS_14GroupVariationE, @function
_ZN8opendnp318MeasurementHandler12ModeFromTypeENS_14GroupVariationE:
.LFB2433:
	.cfi_startproc
	endbr64
	jmp	_ZN8opendnp315HasAbsoluteTimeENS_14GroupVariationE@PLT
	.cfi_endproc
.LFE2433:
	.size	_ZN8opendnp318MeasurementHandler12ModeFromTypeENS_14GroupVariationE, .-_ZN8opendnp318MeasurementHandler12ModeFromTypeENS_14GroupVariationE
	.align 2
	.p2align 4
	.globl	_ZN8opendnp318MeasurementHandler15CheckForTxStartEv
	.type	_ZN8opendnp318MeasurementHandler15CheckForTxStartEv, @function
_ZN8opendnp318MeasurementHandler15CheckForTxStartEv:
.LFB2434:
	.cfi_startproc
	endbr64
	cmpb	$0, 56(%rdi)
	jne	.L180
	movb	$1, 56(%rdi)
	movq	64(%rdi), %rdi
	testq	%rdi, %rdi
	je	.L180
	movq	(%rdi), %rax
	jmp	*16(%rax)
	.p2align 4,,10
	.p2align 3
.L180:
	ret
	.cfi_endproc
.LFE2434:
	.size	_ZN8opendnp318MeasurementHandler15CheckForTxStartEv, .-_ZN8opendnp318MeasurementHandler15CheckForTxStartEv
	.align 2
	.p2align 4
	.globl	_ZN8opendnp318MeasurementHandler13ProcessHeaderERKNS_11RangeHeaderERKNS_11ICollectionINS_7IndexedINS_18BinaryOutputStatusEEEEE
	.type	_ZN8opendnp318MeasurementHandler13ProcessHeaderERKNS_11RangeHeaderERKNS_11ICollectionINS_7IndexedINS_18BinaryOutputStatusEEEEE, @function
_ZN8opendnp318MeasurementHandler13ProcessHeaderERKNS_11RangeHeaderERKNS_11ICollectionINS_7IndexedINS_18BinaryOutputStatusEEEEE:
.LFB2449:
	.cfi_startproc
	endbr64
	pushq	%r15
	.cfi_def_cfa_offset 16
	.cfi_offset 15, -16
	pushq	%r14
	.cfi_def_cfa_offset 24
	.cfi_offset 14, -24
	pushq	%r13
	.cfi_def_cfa_offset 32
	.cfi_offset 13, -32
	pushq	%r12
	.cfi_def_cfa_offset 40
	.cfi_offset 12, -40
	movq	%rdx, %r12
	pushq	%rbp
	.cfi_def_cfa_offset 48
	.cfi_offset 6, -48
	movq	%rdi, %rbp
	pushq	%rbx
	.cfi_def_cfa_offset 56
	.cfi_offset 3, -56
	movq	%rsi, %rbx
	subq	$40, %rsp
	.cfi_def_cfa_offset 96
	movzwl	(%rsi), %edi
	movq	%fs:40, %rax
	movq	%rax, 24(%rsp)
	xorl	%eax, %eax
	call	_ZN8opendnp318MeasurementHandler12ModeFromTypeENS_14GroupVariationE@PLT
	movq	%rbp, %rdi
	movl	%eax, %r14d
	call	_ZN8opendnp318MeasurementHandler15CheckForTxStartEv@PLT
	movq	%rbx, %rdi
	movl	12(%rbx), %r15d
	call	_ZNK8opendnp312HeaderRecord16GetQualifierCodeEv@PLT
	movzwl	(%rbx), %r13d
	movl	%r14d, %ecx
	movl	%eax, %r8d
	xorl	%eax, %eax
	movb	%r8b, %al
	movl	%r13d, %edi
	movw	%r13w, 12(%rsp)
	movb	%cl, %ah
	movw	%ax, 14(%rsp)
	call	_ZN8opendnp37IsEventENS_14GroupVariationE@PLT
	movl	%r13d, %edi
	movb	%al, 16(%rsp)
	call	_ZN8opendnp38HasFlagsENS_14GroupVariationE@PLT
	movq	64(%rbp), %rdi
	movl	%r15d, 20(%rsp)
	movq	%r12, %rdx
	movb	%al, 17(%rsp)
	leaq	12(%rsp), %rsi
	movq	(%rdi), %rax
	call	*72(%rax)
	movq	24(%rsp), %rax
	subq	%fs:40, %rax
	jne	.L190
	addq	$40, %rsp
	.cfi_remember_state
	.cfi_def_cfa_offset 56
	xorl	%eax, %eax
	popq	%rbx
	.cfi_def_cfa_offset 48
	popq	%rbp
	.cfi_def_cfa_offset 40
	popq	%r12
	.cfi_def_cfa_offset 32
	popq	%r13
	.cfi_def_cfa_offset 24
	popq	%r14
	.cfi_def_cfa_offset 16
	popq	%r15
	.cfi_def_cfa_offset 8
	ret
.L190:
	.cfi_restore_state
	call	__stack_chk_fail@PLT
	.cfi_endproc
.LFE2449:
	.size	_ZN8opendnp318MeasurementHandler13ProcessHeaderERKNS_11RangeHeaderERKNS_11ICollectionINS_7IndexedINS_18BinaryOutputStatusEEEEE, .-_ZN8opendnp318MeasurementHandler13ProcessHeaderERKNS_11RangeHeaderERKNS_11ICollectionINS_7IndexedINS_18BinaryOutputStatusEEEEE
	.align 2
	.p2align 4
	.globl	_ZN8opendnp318MeasurementHandler13ProcessHeaderERKNS_12PrefixHeaderERKNS_11ICollectionINS_7IndexedINS_7CounterEEEEE
	.type	_ZN8opendnp318MeasurementHandler13ProcessHeaderERKNS_12PrefixHeaderERKNS_11ICollectionINS_7IndexedINS_7CounterEEEEE, @function
_ZN8opendnp318MeasurementHandler13ProcessHeaderERKNS_12PrefixHeaderERKNS_11ICollectionINS_7IndexedINS_7CounterEEEEE:
.LFB2460:
	.cfi_startproc
	endbr64
	pushq	%r15
	.cfi_def_cfa_offset 16
	.cfi_offset 15, -16
	pushq	%r14
	.cfi_def_cfa_offset 24
	.cfi_offset 14, -24
	pushq	%r13
	.cfi_def_cfa_offset 32
	.cfi_offset 13, -32
	pushq	%r12
	.cfi_def_cfa_offset 40
	.cfi_offset 12, -40
	movq	%rdx, %r12
	pushq	%rbp
	.cfi_def_cfa_offset 48
	.cfi_offset 6, -48
	movq	%rdi, %rbp
	pushq	%rbx
	.cfi_def_cfa_offset 56
	.cfi_offset 3, -56
	movq	%rsi, %rbx
	subq	$40, %rsp
	.cfi_def_cfa_offset 96
	movzwl	(%rsi), %edi
	movq	%fs:40, %rax
	movq	%rax, 24(%rsp)
	xorl	%eax, %eax
	call	_ZN8opendnp318MeasurementHandler12ModeFromTypeENS_14GroupVariationE@PLT
	movq	%rbp, %rdi
	movl	%eax, %r14d
	call	_ZN8opendnp318MeasurementHandler15CheckForTxStartEv@PLT
	movq	%rbx, %rdi
	movl	12(%rbx), %r15d
	call	_ZNK8opendnp312HeaderRecord16GetQualifierCodeEv@PLT
	movzwl	(%rbx), %r13d
	movl	%r14d, %ecx
	movl	%eax, %r8d
	xorl	%eax, %eax
	movb	%r8b, %al
	movl	%r13d, %edi
	movw	%r13w, 12(%rsp)
	movb	%cl, %ah
	movw	%ax, 14(%rsp)
	call	_ZN8opendnp37IsEventENS_14GroupVariationE@PLT
	movl	%r13d, %edi
	movb	%al, 16(%rsp)
	call	_ZN8opendnp38HasFlagsENS_14GroupVariationE@PLT
	movq	64(%rbp), %rdi
	movl	%r15d, 20(%rsp)
	movq	%r12, %rdx
	movb	%al, 17(%rsp)
	leaq	12(%rsp), %rsi
	movq	(%rdi), %rax
	call	*56(%rax)
	movq	24(%rsp), %rax
	subq	%fs:40, %rax
	jne	.L194
	addq	$40, %rsp
	.cfi_remember_state
	.cfi_def_cfa_offset 56
	xorl	%eax, %eax
	popq	%rbx
	.cfi_def_cfa_offset 48
	popq	%rbp
	.cfi_def_cfa_offset 40
	popq	%r12
	.cfi_def_cfa_offset 32
	popq	%r13
	.cfi_def_cfa_offset 24
	popq	%r14
	.cfi_def_cfa_offset 16
	popq	%r15
	.cfi_def_cfa_offset 8
	ret
.L194:
	.cfi_restore_state
	call	__stack_chk_fail@PLT
	.cfi_endproc
.LFE2460:
	.size	_ZN8opendnp318MeasurementHandler13ProcessHeaderERKNS_12PrefixHeaderERKNS_11ICollectionINS_7IndexedINS_7CounterEEEEE, .-_ZN8opendnp318MeasurementHandler13ProcessHeaderERKNS_12PrefixHeaderERKNS_11ICollectionINS_7IndexedINS_7CounterEEEEE
	.align 2
	.p2align 4
	.globl	_ZN8opendnp318MeasurementHandler13ProcessHeaderERKNS_12PrefixHeaderERKNS_11ICollectionINS_7IndexedINS_13FrozenCounterEEEEE
	.type	_ZN8opendnp318MeasurementHandler13ProcessHeaderERKNS_12PrefixHeaderERKNS_11ICollectionINS_7IndexedINS_13FrozenCounterEEEEE, @function
_ZN8opendnp318MeasurementHandler13ProcessHeaderERKNS_12PrefixHeaderERKNS_11ICollectionINS_7IndexedINS_13FrozenCounterEEEEE:
.LFB2461:
	.cfi_startproc
	endbr64
	pushq	%r15
	.cfi_def_cfa_offset 16
	.cfi_offset 15, -16
	pushq	%r14
	.cfi_def_cfa_offset 24
	.cfi_offset 14, -24
	pushq	%r13
	.cfi_def_cfa_offset 32
	.cfi_offset 13, -32
	pushq	%r12
	.cfi_def_cfa_offset 40
	.cfi_offset 12, -40
	movq	%rdx, %r12
	pushq	%rbp
	.cfi_def_cfa_offset 48
	.cfi_offset 6, -48
	movq	%rdi, %rbp
	pushq	%rbx
	.cfi_def_cfa_offset 56
	.cfi_offset 3, -56
	movq	%rsi, %rbx
	subq	$40, %rsp
	.cfi_def_cfa_offset 96
	movzwl	(%rsi), %edi
	movq	%fs:40, %rax
	movq	%rax, 24(%rsp)
	xorl	%eax, %eax
	call	_ZN8opendnp318MeasurementHandler12ModeFromTypeENS_14GroupVariationE@PLT
	movq	%rbp, %rdi
	movl	%eax, %r14d
	call	_ZN8opendnp318MeasurementHandler15CheckForTxStartEv@PLT
	movq	%rbx, %rdi
	movl	12(%rbx), %r15d
	call	_ZNK8opendnp312HeaderRecord16GetQualifierCodeEv@PLT
	movzwl	(%rbx), %r13d
	movl	%r14d, %ecx
	movl	%eax, %r8d
	xorl	%eax, %eax
	movb	%r8b, %al
	movl	%r13d, %edi
	movw	%r13w, 12(%rsp)
	movb	%cl, %ah
	movw	%ax, 14(%rsp)
	call	_ZN8opendnp37IsEventENS_14GroupVariationE@PLT
	movl	%r13d, %edi
	movb	%al, 16(%rsp)
	call	_ZN8opendnp38HasFlagsENS_14GroupVariationE@PLT
	movq	64(%rbp), %rdi
	movl	%r15d, 20(%rsp)
	movq	%r12, %rdx
	movb	%al, 17(%rsp)
	leaq	12(%rsp), %rsi
	movq	(%rdi), %rax
	call	*64(%rax)
	movq	24(%rsp), %rax
	subq	%fs:40, %rax
	jne	.L198
	addq	$40, %rsp
	.cfi_remember_state
	.cfi_def_cfa_offset 56
	xorl	%eax, %eax
	popq	%rbx
	.cfi_def_cfa_offset 48
	popq	%rbp
	.cfi_def_cfa_offset 40
	popq	%r12
	.cfi_def_cfa_offset 32
	popq	%r13
	.cfi_def_cfa_offset 24
	popq	%r14
	.cfi_def_cfa_offset 16
	popq	%r15
	.cfi_def_cfa_offset 8
	ret
.L198:
	.cfi_restore_state
	call	__stack_chk_fail@PLT
	.cfi_endproc
.LFE2461:
	.size	_ZN8opendnp318MeasurementHandler13ProcessHeaderERKNS_12PrefixHeaderERKNS_11ICollectionINS_7IndexedINS_13FrozenCounterEEEEE, .-_ZN8opendnp318MeasurementHandler13ProcessHeaderERKNS_12PrefixHeaderERKNS_11ICollectionINS_7IndexedINS_13FrozenCounterEEEEE
	.align 2
	.p2align 4
	.globl	_ZN8opendnp318MeasurementHandler13ProcessHeaderERKNS_12PrefixHeaderERKNS_11ICollectionINS_7IndexedINS_6AnalogEEEEE
	.type	_ZN8opendnp318MeasurementHandler13ProcessHeaderERKNS_12PrefixHeaderERKNS_11ICollectionINS_7IndexedINS_6AnalogEEEEE, @function
_ZN8opendnp318MeasurementHandler13ProcessHeaderERKNS_12PrefixHeaderERKNS_11ICollectionINS_7IndexedINS_6AnalogEEEEE:
.LFB2462:
	.cfi_startproc
	endbr64
	pushq	%r15
	.cfi_def_cfa_offset 16
	.cfi_offset 15, -16
	pushq	%r14
	.cfi_def_cfa_offset 24
	.cfi_offset 14, -24
	pushq	%r13
	.cfi_def_cfa_offset 32
	.cfi_offset 13, -32
	pushq	%r12
	.cfi_def_cfa_offset 40
	.cfi_offset 12, -40
	movq	%rdx, %r12
	pushq	%rbp
	.cfi_def_cfa_offset 48
	.cfi_offset 6, -48
	movq	%rdi, %rbp
	pushq	%rbx
	.cfi_def_cfa_offset 56
	.cfi_offset 3, -56
	movq	%rsi, %rbx
	subq	$40, %rsp
	.cfi_def_cfa_offset 96
	movzwl	(%rsi), %edi
	movq	%fs:40, %rax
	movq	%rax, 24(%rsp)
	xorl	%eax, %eax
	call	_ZN8opendnp318MeasurementHandler12ModeFromTypeENS_14GroupVariationE@PLT
	movq	%rbp, %rdi
	movl	%eax, %r14d
	call	_ZN8opendnp318MeasurementHandler15CheckForTxStartEv@PLT
	movq	%rbx, %rdi
	movl	12(%rbx), %r15d
	call	_ZNK8opendnp312HeaderRecord16GetQualifierCodeEv@PLT
	movzwl	(%rbx), %r13d
	movl	%r14d, %ecx
	movl	%eax, %r8d
	xorl	%eax, %eax
	movb	%r8b, %al
	movl	%r13d, %edi
	movw	%r13w, 12(%rsp)
	movb	%cl, %ah
	movw	%ax, 14(%rsp)
	call	_ZN8opendnp37IsEventENS_14GroupVariationE@PLT
	movl	%r13d, %edi
	movb	%al, 16(%rsp)
	call	_ZN8opendnp38HasFlagsENS_14GroupVariationE@PLT
	movq	64(%rbp), %rdi
	movl	%r15d, 20(%rsp)
	movq	%r12, %rdx
	movb	%al, 17(%rsp)
	leaq	12(%rsp), %rsi
	movq	(%rdi), %rax
	call	*48(%rax)
	movq	24(%rsp), %rax
	subq	%fs:40, %rax
	jne	.L202
	addq	$40, %rsp
	.cfi_remember_state
	.cfi_def_cfa_offset 56
	xorl	%eax, %eax
	popq	%rbx
	.cfi_def_cfa_offset 48
	popq	%rbp
	.cfi_def_cfa_offset 40
	popq	%r12
	.cfi_def_cfa_offset 32
	popq	%r13
	.cfi_def_cfa_offset 24
	popq	%r14
	.cfi_def_cfa_offset 16
	popq	%r15
	.cfi_def_cfa_offset 8
	ret
.L202:
	.cfi_restore_state
	call	__stack_chk_fail@PLT
	.cfi_endproc
.LFE2462:
	.size	_ZN8opendnp318MeasurementHandler13ProcessHeaderERKNS_12PrefixHeaderERKNS_11ICollectionINS_7IndexedINS_6AnalogEEEEE, .-_ZN8opendnp318MeasurementHandler13ProcessHeaderERKNS_12PrefixHeaderERKNS_11ICollectionINS_7IndexedINS_6AnalogEEEEE
	.align 2
	.p2align 4
	.globl	_ZN8opendnp318MeasurementHandler13ProcessHeaderERKNS_11RangeHeaderERKNS_11ICollectionINS_7IndexedINS_18AnalogOutputStatusEEEEE
	.type	_ZN8opendnp318MeasurementHandler13ProcessHeaderERKNS_11RangeHeaderERKNS_11ICollectionINS_7IndexedINS_18AnalogOutputStatusEEEEE, @function
_ZN8opendnp318MeasurementHandler13ProcessHeaderERKNS_11RangeHeaderERKNS_11ICollectionINS_7IndexedINS_18AnalogOutputStatusEEEEE:
.LFB2453:
	.cfi_startproc
	endbr64
	pushq	%r15
	.cfi_def_cfa_offset 16
	.cfi_offset 15, -16
	pushq	%r14
	.cfi_def_cfa_offset 24
	.cfi_offset 14, -24
	pushq	%r13
	.cfi_def_cfa_offset 32
	.cfi_offset 13, -32
	pushq	%r12
	.cfi_def_cfa_offset 40
	.cfi_offset 12, -40
	movq	%rdx, %r12
	pushq	%rbp
	.cfi_def_cfa_offset 48
	.cfi_offset 6, -48
	movq	%rdi, %rbp
	pushq	%rbx
	.cfi_def_cfa_offset 56
	.cfi_offset 3, -56
	movq	%rsi, %rbx
	subq	$40, %rsp
	.cfi_def_cfa_offset 96
	movzwl	(%rsi), %edi
	movq	%fs:40, %rax
	movq	%rax, 24(%rsp)
	xorl	%eax, %eax
	call	_ZN8opendnp318MeasurementHandler12ModeFromTypeENS_14GroupVariationE@PLT
	movq	%rbp, %rdi
	movl	%eax, %r14d
	call	_ZN8opendnp318MeasurementHandler15CheckForTxStartEv@PLT
	movq	%rbx, %rdi
	movl	12(%rbx), %r15d
	call	_ZNK8opendnp312HeaderRecord16GetQualifierCodeEv@PLT
	movzwl	(%rbx), %r13d
	movl	%r14d, %ecx
	movl	%eax, %r8d
	xorl	%eax, %eax
	movb	%r8b, %al
	movl	%r13d, %edi
	movw	%r13w, 12(%rsp)
	movb	%cl, %ah
	movw	%ax, 14(%rsp)
	call	_ZN8opendnp37IsEventENS_14GroupVariationE@PLT
	movl	%r13d, %edi
	movb	%al, 16(%rsp)
	call	_ZN8opendnp38HasFlagsENS_14GroupVariationE@PLT
	movq	64(%rbp), %rdi
	movl	%r15d, 20(%rsp)
	movq	%r12, %rdx
	movb	%al, 17(%rsp)
	leaq	12(%rsp), %rsi
	movq	(%rdi), %rax
	call	*80(%rax)
	movq	24(%rsp), %rax
	subq	%fs:40, %rax
	jne	.L206
	addq	$40, %rsp
	.cfi_remember_state
	.cfi_def_cfa_offset 56
	xorl	%eax, %eax
	popq	%rbx
	.cfi_def_cfa_offset 48
	popq	%rbp
	.cfi_def_cfa_offset 40
	popq	%r12
	.cfi_def_cfa_offset 32
	popq	%r13
	.cfi_def_cfa_offset 24
	popq	%r14
	.cfi_def_cfa_offset 16
	popq	%r15
	.cfi_def_cfa_offset 8
	ret
.L206:
	.cfi_restore_state
	call	__stack_chk_fail@PLT
	.cfi_endproc
.LFE2453:
	.size	_ZN8opendnp318MeasurementHandler13ProcessHeaderERKNS_11RangeHeaderERKNS_11ICollectionINS_7IndexedINS_18AnalogOutputStatusEEEEE, .-_ZN8opendnp318MeasurementHandler13ProcessHeaderERKNS_11RangeHeaderERKNS_11ICollectionINS_7IndexedINS_18AnalogOutputStatusEEEEE
	.align 2
	.p2align 4
	.globl	_ZN8opendnp318MeasurementHandler13ProcessHeaderERKNS_11RangeHeaderERKNS_11ICollectionINS_7IndexedINS_11OctetStringEEEEE
	.type	_ZN8opendnp318MeasurementHandler13ProcessHeaderERKNS_11RangeHeaderERKNS_11ICollectionINS_7IndexedINS_11OctetStringEEEEE, @function
_ZN8opendnp318MeasurementHandler13ProcessHeaderERKNS_11RangeHeaderERKNS_11ICollectionINS_7IndexedINS_11OctetStringEEEEE:
.LFB2454:
	.cfi_startproc
	endbr64
	pushq	%r15
	.cfi_def_cfa_offset 16
	.cfi_offset 15, -16
	pushq	%r14
	.cfi_def_cfa_offset 24
	.cfi_offset 14, -24
	pushq	%r13
	.cfi_def_cfa_offset 32
	.cfi_offset 13, -32
	pushq	%r12
	.cfi_def_cfa_offset 40
	.cfi_offset 12, -40
	movq	%rdx, %r12
	pushq	%rbp
	.cfi_def_cfa_offset 48
	.cfi_offset 6, -48
	movq	%rdi, %rbp
	pushq	%rbx
	.cfi_def_cfa_offset 56
	.cfi_offset 3, -56
	movq	%rsi, %rbx
	subq	$40, %rsp
	.cfi_def_cfa_offset 96
	movzwl	(%rsi), %edi
	movq	%fs:40, %rax
	movq	%rax, 24(%rsp)
	xorl	%eax, %eax
	call	_ZN8opendnp318MeasurementHandler12ModeFromTypeENS_14GroupVariationE@PLT
	movq	%rbp, %rdi
	movl	%eax, %r14d
	call	_ZN8opendnp318MeasurementHandler15CheckForTxStartEv@PLT
	movq	%rbx, %rdi
	movl	12(%rbx), %r15d
	call	_ZNK8opendnp312HeaderRecord16GetQualifierCodeEv@PLT
	movzwl	(%rbx), %r13d
	movl	%r14d, %ecx
	movl	%eax, %r8d
	xorl	%eax, %eax
	movb	%r8b, %al
	movl	%r13d, %edi
	movw	%r13w, 12(%rsp)
	movb	%cl, %ah
	movw	%ax, 14(%rsp)
	call	_ZN8opendnp37IsEventENS_14GroupVariationE@PLT
	movl	%r13d, %edi
	movb	%al, 16(%rsp)
	call	_ZN8opendnp38HasFlagsENS_14GroupVariationE@PLT
	movq	64(%rbp), %rdi
	movl	%r15d, 20(%rsp)
	movq	%r12, %rdx
	movb	%al, 17(%rsp)
	leaq	12(%rsp), %rsi
	movq	(%rdi), %rax
	call	*88(%rax)
	movq	24(%rsp), %rax
	subq	%fs:40, %rax
	jne	.L210
	addq	$40, %rsp
	.cfi_remember_state
	.cfi_def_cfa_offset 56
	xorl	%eax, %eax
	popq	%rbx
	.cfi_def_cfa_offset 48
	popq	%rbp
	.cfi_def_cfa_offset 40
	popq	%r12
	.cfi_def_cfa_offset 32
	popq	%r13
	.cfi_def_cfa_offset 24
	popq	%r14
	.cfi_def_cfa_offset 16
	popq	%r15
	.cfi_def_cfa_offset 8
	ret
.L210:
	.cfi_restore_state
	call	__stack_chk_fail@PLT
	.cfi_endproc
.LFE2454:
	.size	_ZN8opendnp318MeasurementHandler13ProcessHeaderERKNS_11RangeHeaderERKNS_11ICollectionINS_7IndexedINS_11OctetStringEEEEE, .-_ZN8opendnp318MeasurementHandler13ProcessHeaderERKNS_11RangeHeaderERKNS_11ICollectionINS_7IndexedINS_11OctetStringEEEEE
	.align 2
	.p2align 4
	.globl	_ZN8opendnp318MeasurementHandler13ProcessHeaderERKNS_11RangeHeaderERKNS_11ICollectionINS_7IndexedINS_15TimeAndIntervalEEEEE
	.type	_ZN8opendnp318MeasurementHandler13ProcessHeaderERKNS_11RangeHeaderERKNS_11ICollectionINS_7IndexedINS_15TimeAndIntervalEEEEE, @function
_ZN8opendnp318MeasurementHandler13ProcessHeaderERKNS_11RangeHeaderERKNS_11ICollectionINS_7IndexedINS_15TimeAndIntervalEEEEE:
.LFB2455:
	.cfi_startproc
	endbr64
	pushq	%r15
	.cfi_def_cfa_offset 16
	.cfi_offset 15, -16
	pushq	%r14
	.cfi_def_cfa_offset 24
	.cfi_offset 14, -24
	pushq	%r13
	.cfi_def_cfa_offset 32
	.cfi_offset 13, -32
	pushq	%r12
	.cfi_def_cfa_offset 40
	.cfi_offset 12, -40
	movq	%rdx, %r12
	pushq	%rbp
	.cfi_def_cfa_offset 48
	.cfi_offset 6, -48
	movq	%rdi, %rbp
	pushq	%rbx
	.cfi_def_cfa_offset 56
	.cfi_offset 3, -56
	movq	%rsi, %rbx
	subq	$40, %rsp
	.cfi_def_cfa_offset 96
	movzwl	(%rsi), %edi
	movq	%fs:40, %rax
	movq	%rax, 24(%rsp)
	xorl	%eax, %eax
	call	_ZN8opendnp318MeasurementHandler12ModeFromTypeENS_14GroupVariationE@PLT
	movq	%rbp, %rdi
	movl	%eax, %r14d
	call	_ZN8opendnp318MeasurementHandler15CheckForTxStartEv@PLT
	movq	%rbx, %rdi
	movl	12(%rbx), %r15d
	call	_ZNK8opendnp312HeaderRecord16GetQualifierCodeEv@PLT
	movzwl	(%rbx), %r13d
	movl	%r14d, %ecx
	movl	%eax, %r8d
	xorl	%eax, %eax
	movb	%r8b, %al
	movl	%r13d, %edi
	movw	%r13w, 12(%rsp)
	movb	%cl, %ah
	movw	%ax, 14(%rsp)
	call	_ZN8opendnp37IsEventENS_14GroupVariationE@PLT
	movl	%r13d, %edi
	movb	%al, 16(%rsp)
	call	_ZN8opendnp38HasFlagsENS_14GroupVariationE@PLT
	movq	64(%rbp), %rdi
	movl	%r15d, 20(%rsp)
	movq	%r12, %rdx
	movb	%al, 17(%rsp)
	leaq	12(%rsp), %rsi
	movq	(%rdi), %rax
	call	*96(%rax)
	movq	24(%rsp), %rax
	subq	%fs:40, %rax
	jne	.L214
	addq	$40, %rsp
	.cfi_remember_state
	.cfi_def_cfa_offset 56
	xorl	%eax, %eax
	popq	%rbx
	.cfi_def_cfa_offset 48
	popq	%rbp
	.cfi_def_cfa_offset 40
	popq	%r12
	.cfi_def_cfa_offset 32
	popq	%r13
	.cfi_def_cfa_offset 24
	popq	%r14
	.cfi_def_cfa_offset 16
	popq	%r15
	.cfi_def_cfa_offset 8
	ret
.L214:
	.cfi_restore_state
	call	__stack_chk_fail@PLT
	.cfi_endproc
.LFE2455:
	.size	_ZN8opendnp318MeasurementHandler13ProcessHeaderERKNS_11RangeHeaderERKNS_11ICollectionINS_7IndexedINS_15TimeAndIntervalEEEEE, .-_ZN8opendnp318MeasurementHandler13ProcessHeaderERKNS_11RangeHeaderERKNS_11ICollectionINS_7IndexedINS_15TimeAndIntervalEEEEE
	.align 2
	.p2align 4
	.globl	_ZN8opendnp318MeasurementHandler13ProcessHeaderERKNS_12PrefixHeaderERKNS_11ICollectionINS_7IndexedINS_18BinaryCommandEventEEEEE
	.type	_ZN8opendnp318MeasurementHandler13ProcessHeaderERKNS_12PrefixHeaderERKNS_11ICollectionINS_7IndexedINS_18BinaryCommandEventEEEEE, @function
_ZN8opendnp318MeasurementHandler13ProcessHeaderERKNS_12PrefixHeaderERKNS_11ICollectionINS_7IndexedINS_18BinaryCommandEventEEEEE:
.LFB2465:
	.cfi_startproc
	endbr64
	pushq	%r15
	.cfi_def_cfa_offset 16
	.cfi_offset 15, -16
	pushq	%r14
	.cfi_def_cfa_offset 24
	.cfi_offset 14, -24
	pushq	%r13
	.cfi_def_cfa_offset 32
	.cfi_offset 13, -32
	pushq	%r12
	.cfi_def_cfa_offset 40
	.cfi_offset 12, -40
	movq	%rdx, %r12
	pushq	%rbp
	.cfi_def_cfa_offset 48
	.cfi_offset 6, -48
	movq	%rdi, %rbp
	pushq	%rbx
	.cfi_def_cfa_offset 56
	.cfi_offset 3, -56
	movq	%rsi, %rbx
	subq	$40, %rsp
	.cfi_def_cfa_offset 96
	movzwl	(%rsi), %edi
	movq	%fs:40, %rax
	movq	%rax, 24(%rsp)
	xorl	%eax, %eax
	call	_ZN8opendnp318MeasurementHandler12ModeFromTypeENS_14GroupVariationE@PLT
	movq	%rbp, %rdi
	movl	%eax, %r14d
	call	_ZN8opendnp318MeasurementHandler15CheckForTxStartEv@PLT
	movq	%rbx, %rdi
	movl	12(%rbx), %r15d
	call	_ZNK8opendnp312HeaderRecord16GetQualifierCodeEv@PLT
	movzwl	(%rbx), %r13d
	movl	%r14d, %ecx
	movl	%eax, %r8d
	xorl	%eax, %eax
	movb	%r8b, %al
	movl	%r13d, %edi
	movw	%r13w, 12(%rsp)
	movb	%cl, %ah
	movw	%ax, 14(%rsp)
	call	_ZN8opendnp37IsEventENS_14GroupVariationE@PLT
	movl	%r13d, %edi
	movb	%al, 16(%rsp)
	call	_ZN8opendnp38HasFlagsENS_14GroupVariationE@PLT
	movq	64(%rbp), %rdi
	movl	%r15d, 20(%rsp)
	movq	%r12, %rdx
	movb	%al, 17(%rsp)
	leaq	12(%rsp), %rsi
	movq	(%rdi), %rax
	call	*104(%rax)
	movq	24(%rsp), %rax
	subq	%fs:40, %rax
	jne	.L218
	addq	$40, %rsp
	.cfi_remember_state
	.cfi_def_cfa_offset 56
	xorl	%eax, %eax
	popq	%rbx
	.cfi_def_cfa_offset 48
	popq	%rbp
	.cfi_def_cfa_offset 40
	popq	%r12
	.cfi_def_cfa_offset 32
	popq	%r13
	.cfi_def_cfa_offset 24
	popq	%r14
	.cfi_def_cfa_offset 16
	popq	%r15
	.cfi_def_cfa_offset 8
	ret
.L218:
	.cfi_restore_state
	call	__stack_chk_fail@PLT
	.cfi_endproc
.LFE2465:
	.size	_ZN8opendnp318MeasurementHandler13ProcessHeaderERKNS_12PrefixHeaderERKNS_11ICollectionINS_7IndexedINS_18BinaryCommandEventEEEEE, .-_ZN8opendnp318MeasurementHandler13ProcessHeaderERKNS_12PrefixHeaderERKNS_11ICollectionINS_7IndexedINS_18BinaryCommandEventEEEEE
	.align 2
	.p2align 4
	.globl	_ZN8opendnp318MeasurementHandler13ProcessHeaderERKNS_12PrefixHeaderERKNS_11ICollectionINS_7IndexedINS_18AnalogCommandEventEEEEE
	.type	_ZN8opendnp318MeasurementHandler13ProcessHeaderERKNS_12PrefixHeaderERKNS_11ICollectionINS_7IndexedINS_18AnalogCommandEventEEEEE, @function
_ZN8opendnp318MeasurementHandler13ProcessHeaderERKNS_12PrefixHeaderERKNS_11ICollectionINS_7IndexedINS_18AnalogCommandEventEEEEE:
.LFB2466:
	.cfi_startproc
	endbr64
	pushq	%r15
	.cfi_def_cfa_offset 16
	.cfi_offset 15, -16
	pushq	%r14
	.cfi_def_cfa_offset 24
	.cfi_offset 14, -24
	pushq	%r13
	.cfi_def_cfa_offset 32
	.cfi_offset 13, -32
	pushq	%r12
	.cfi_def_cfa_offset 40
	.cfi_offset 12, -40
	movq	%rdx, %r12
	pushq	%rbp
	.cfi_def_cfa_offset 48
	.cfi_offset 6, -48
	movq	%rdi, %rbp
	pushq	%rbx
	.cfi_def_cfa_offset 56
	.cfi_offset 3, -56
	movq	%rsi, %rbx
	subq	$40, %rsp
	.cfi_def_cfa_offset 96
	movzwl	(%rsi), %edi
	movq	%fs:40, %rax
	movq	%rax, 24(%rsp)
	xorl	%eax, %eax
	call	_ZN8opendnp318MeasurementHandler12ModeFromTypeENS_14GroupVariationE@PLT
	movq	%rbp, %rdi
	movl	%eax, %r14d
	call	_ZN8opendnp318MeasurementHandler15CheckForTxStartEv@PLT
	movq	%rbx, %rdi
	movl	12(%rbx), %r15d
	call	_ZNK8opendnp312HeaderRecord16GetQualifierCodeEv@PLT
	movzwl	(%rbx), %r13d
	movl	%r14d, %ecx
	movl	%eax, %r8d
	xorl	%eax, %eax
	movb	%r8b, %al
	movl	%r13d, %edi
	movw	%r13w, 12(%rsp)
	movb	%cl, %ah
	movw	%ax, 14(%rsp)
	call	_ZN8opendnp37IsEventENS_14GroupVariationE@PLT
	movl	%r13d, %edi
	movb	%al, 16(%rsp)
	call	_ZN8opendnp38HasFlagsENS_14GroupVariationE@PLT
	movq	64(%rbp), %rdi
	movl	%r15d, 20(%rsp)
	movq	%r12, %rdx
	movb	%al, 17(%rsp)
	leaq	12(%rsp), %rsi
	movq	(%rdi), %rax
	call	*112(%rax)
	movq	24(%rsp), %rax
	subq	%fs:40, %rax
	jne	.L222
	addq	$40, %rsp
	.cfi_remember_state
	.cfi_def_cfa_offset 56
	xorl	%eax, %eax
	popq	%rbx
	.cfi_def_cfa_offset 48
	popq	%rbp
	.cfi_def_cfa_offset 40
	popq	%r12
	.cfi_def_cfa_offset 32
	popq	%r13
	.cfi_def_cfa_offset 24
	popq	%r14
	.cfi_def_cfa_offset 16
	popq	%r15
	.cfi_def_cfa_offset 8
	ret
.L222:
	.cfi_restore_state
	call	__stack_chk_fail@PLT
	.cfi_endproc
.LFE2466:
	.size	_ZN8opendnp318MeasurementHandler13ProcessHeaderERKNS_12PrefixHeaderERKNS_11ICollectionINS_7IndexedINS_18AnalogCommandEventEEEEE, .-_ZN8opendnp318MeasurementHandler13ProcessHeaderERKNS_12PrefixHeaderERKNS_11ICollectionINS_7IndexedINS_18AnalogCommandEventEEEEE
	.align 2
	.p2align 4
	.globl	_ZN8opendnp318MeasurementHandler13ProcessHeaderERKNS_11CountHeaderERKNS_11ICollectionINS_11Group50Var1EEE
	.type	_ZN8opendnp318MeasurementHandler13ProcessHeaderERKNS_11CountHeaderERKNS_11ICollectionINS_11Group50Var1EEE, @function
_ZN8opendnp318MeasurementHandler13ProcessHeaderERKNS_11CountHeaderERKNS_11ICollectionINS_11Group50Var1EEE:
.LFB2435:
	.cfi_startproc
	endbr64
	pushq	%r13
	.cfi_def_cfa_offset 16
	.cfi_offset 13, -16
	pushq	%r12
	.cfi_def_cfa_offset 24
	.cfi_offset 12, -24
	movq	%rdx, %r12
	pushq	%rbp
	.cfi_def_cfa_offset 32
	.cfi_offset 6, -32
	movq	%rdi, %rbp
	pushq	%rbx
	.cfi_def_cfa_offset 40
	.cfi_offset 3, -40
	movq	%rsi, %rbx
	subq	$56, %rsp
	.cfi_def_cfa_offset 96
	movq	%fs:40, %rax
	movq	%rax, 40(%rsp)
	xorl	%eax, %eax
	call	_ZN8opendnp318MeasurementHandler15CheckForTxStartEv@PLT
	leaq	16+_ZTVN8opendnp321TransformedCollectionINS_11Group50Var1EN7openpal10UInt48TypeEZNS_18MeasurementHandler13ProcessHeaderERKNS_11CountHeaderERKNS_11ICollectionIS1_EEEUlRKS1_E_EE(%rip), %rax
	movq	%rbx, %rdi
	movl	12(%rbx), %r13d
	movq	%r12, 24(%rsp)
	movq	%rax, 16(%rsp)
	call	_ZNK8opendnp312HeaderRecord16GetQualifierCodeEv@PLT
	movzwl	(%rbx), %r12d
	movb	$0, 7(%rsp)
	movb	%al, 6(%rsp)
	movl	%r12d, %edi
	movw	%r12w, 4(%rsp)
	call	_ZN8opendnp37IsEventENS_14GroupVariationE@PLT
	movl	%r12d, %edi
	movb	%al, 8(%rsp)
	call	_ZN8opendnp38HasFlagsENS_14GroupVariationE@PLT
	movq	64(%rbp), %rdi
	movl	%r13d, 12(%rsp)
	leaq	16(%rsp), %rdx
	movb	%al, 9(%rsp)
	leaq	4(%rsp), %rsi
	movq	(%rdi), %rax
	call	*128(%rax)
	movq	40(%rsp), %rax
	subq	%fs:40, %rax
	jne	.L226
	addq	$56, %rsp
	.cfi_remember_state
	.cfi_def_cfa_offset 40
	xorl	%eax, %eax
	popq	%rbx
	.cfi_def_cfa_offset 32
	popq	%rbp
	.cfi_def_cfa_offset 24
	popq	%r12
	.cfi_def_cfa_offset 16
	popq	%r13
	.cfi_def_cfa_offset 8
	ret
.L226:
	.cfi_restore_state
	call	__stack_chk_fail@PLT
	.cfi_endproc
.LFE2435:
	.size	_ZN8opendnp318MeasurementHandler13ProcessHeaderERKNS_11CountHeaderERKNS_11ICollectionINS_11Group50Var1EEE, .-_ZN8opendnp318MeasurementHandler13ProcessHeaderERKNS_11CountHeaderERKNS_11ICollectionINS_11Group50Var1EEE
	.align 2
	.p2align 4
	.globl	_ZN8opendnp318MeasurementHandler13ProcessHeaderERKNS_12PrefixHeaderERKNS_11ICollectionINS_7IndexedINS_12Group122Var1EEEEE
	.type	_ZN8opendnp318MeasurementHandler13ProcessHeaderERKNS_12PrefixHeaderERKNS_11ICollectionINS_7IndexedINS_12Group122Var1EEEEE, @function
_ZN8opendnp318MeasurementHandler13ProcessHeaderERKNS_12PrefixHeaderERKNS_11ICollectionINS_7IndexedINS_12Group122Var1EEEEE:
.LFB2467:
	.cfi_startproc
	endbr64
	pushq	%r14
	.cfi_def_cfa_offset 16
	.cfi_offset 14, -16
	pushq	%r13
	.cfi_def_cfa_offset 24
	.cfi_offset 13, -24
	pushq	%r12
	.cfi_def_cfa_offset 32
	.cfi_offset 12, -32
	pushq	%rbp
	.cfi_def_cfa_offset 40
	.cfi_offset 6, -40
	movq	%rdi, %rbp
	pushq	%rbx
	.cfi_def_cfa_offset 48
	.cfi_offset 3, -48
	movq	%rsi, %rbx
	subq	$48, %rsp
	.cfi_def_cfa_offset 96
	movzwl	(%rsi), %edi
	movq	%fs:40, %rax
	movq	%rax, 40(%rsp)
	movq	_ZTVN8opendnp321TransformedCollectionINS_7IndexedINS_12Group122Var1EEENS1_INS_12SecurityStatEEEZNS_18MeasurementHandler25LoadValuesWithTransformToIS4_S2_EENS_8IINFieldERKNS_12HeaderRecordERKNS_11ICollectionINS1_IT0_EEEEEUlRKS3_E_EE@GOTPCREL(%rip), %rax
	movq	%rdx, 24(%rsp)
	addq	$16, %rax
	movq	%rax, 16(%rsp)
	call	_ZN8opendnp318MeasurementHandler12ModeFromTypeENS_14GroupVariationE@PLT
	movq	%rbp, %rdi
	movl	%eax, %r13d
	call	_ZN8opendnp318MeasurementHandler15CheckForTxStartEv@PLT
	movq	%rbx, %rdi
	movl	12(%rbx), %r14d
	call	_ZNK8opendnp312HeaderRecord16GetQualifierCodeEv@PLT
	movzwl	(%rbx), %r12d
	movl	%r13d, %ecx
	movl	%eax, %r8d
	xorl	%eax, %eax
	movb	%r8b, %al
	movl	%r12d, %edi
	movw	%r12w, 4(%rsp)
	movb	%cl, %ah
	movw	%ax, 6(%rsp)
	call	_ZN8opendnp37IsEventENS_14GroupVariationE@PLT
	movl	%r12d, %edi
	movb	%al, 8(%rsp)
	call	_ZN8opendnp38HasFlagsENS_14GroupVariationE@PLT
	movq	64(%rbp), %rdi
	movl	%r14d, 12(%rsp)
	leaq	16(%rsp), %rdx
	movb	%al, 9(%rsp)
	leaq	4(%rsp), %rsi
	movq	(%rdi), %rax
	call	*120(%rax)
	movq	40(%rsp), %rax
	subq	%fs:40, %rax
	jne	.L230
	addq	$48, %rsp
	.cfi_remember_state
	.cfi_def_cfa_offset 48
	xorl	%eax, %eax
	popq	%rbx
	.cfi_def_cfa_offset 40
	popq	%rbp
	.cfi_def_cfa_offset 32
	popq	%r12
	.cfi_def_cfa_offset 24
	popq	%r13
	.cfi_def_cfa_offset 16
	popq	%r14
	.cfi_def_cfa_offset 8
	ret
.L230:
	.cfi_restore_state
	call	__stack_chk_fail@PLT
	.cfi_endproc
.LFE2467:
	.size	_ZN8opendnp318MeasurementHandler13ProcessHeaderERKNS_12PrefixHeaderERKNS_11ICollectionINS_7IndexedINS_12Group122Var1EEEEE, .-_ZN8opendnp318MeasurementHandler13ProcessHeaderERKNS_12PrefixHeaderERKNS_11ICollectionINS_7IndexedINS_12Group122Var1EEEEE
	.align 2
	.p2align 4
	.globl	_ZN8opendnp318MeasurementHandler13ProcessHeaderERKNS_12PrefixHeaderERKNS_11ICollectionINS_7IndexedINS_18BinaryOutputStatusEEEEE
	.type	_ZN8opendnp318MeasurementHandler13ProcessHeaderERKNS_12PrefixHeaderERKNS_11ICollectionINS_7IndexedINS_18BinaryOutputStatusEEEEE, @function
_ZN8opendnp318MeasurementHandler13ProcessHeaderERKNS_12PrefixHeaderERKNS_11ICollectionINS_7IndexedINS_18BinaryOutputStatusEEEEE:
.LFB2458:
	.cfi_startproc
	endbr64
	pushq	%r15
	.cfi_def_cfa_offset 16
	.cfi_offset 15, -16
	pushq	%r14
	.cfi_def_cfa_offset 24
	.cfi_offset 14, -24
	pushq	%r13
	.cfi_def_cfa_offset 32
	.cfi_offset 13, -32
	pushq	%r12
	.cfi_def_cfa_offset 40
	.cfi_offset 12, -40
	movq	%rdx, %r12
	pushq	%rbp
	.cfi_def_cfa_offset 48
	.cfi_offset 6, -48
	movq	%rdi, %rbp
	pushq	%rbx
	.cfi_def_cfa_offset 56
	.cfi_offset 3, -56
	movq	%rsi, %rbx
	subq	$40, %rsp
	.cfi_def_cfa_offset 96
	movzwl	(%rsi), %edi
	movq	%fs:40, %rax
	movq	%rax, 24(%rsp)
	xorl	%eax, %eax
	call	_ZN8opendnp318MeasurementHandler12ModeFromTypeENS_14GroupVariationE@PLT
	movq	%rbp, %rdi
	movl	%eax, %r14d
	call	_ZN8opendnp318MeasurementHandler15CheckForTxStartEv@PLT
	movq	%rbx, %rdi
	movl	12(%rbx), %r15d
	call	_ZNK8opendnp312HeaderRecord16GetQualifierCodeEv@PLT
	movzwl	(%rbx), %r13d
	movl	%r14d, %ecx
	movl	%eax, %r8d
	xorl	%eax, %eax
	movb	%r8b, %al
	movl	%r13d, %edi
	movw	%r13w, 12(%rsp)
	movb	%cl, %ah
	movw	%ax, 14(%rsp)
	call	_ZN8opendnp37IsEventENS_14GroupVariationE@PLT
	movl	%r13d, %edi
	movb	%al, 16(%rsp)
	call	_ZN8opendnp38HasFlagsENS_14GroupVariationE@PLT
	movq	64(%rbp), %rdi
	movl	%r15d, 20(%rsp)
	movq	%r12, %rdx
	movb	%al, 17(%rsp)
	leaq	12(%rsp), %rsi
	movq	(%rdi), %rax
	call	*72(%rax)
	movq	24(%rsp), %rax
	subq	%fs:40, %rax
	jne	.L234
	addq	$40, %rsp
	.cfi_remember_state
	.cfi_def_cfa_offset 56
	xorl	%eax, %eax
	popq	%rbx
	.cfi_def_cfa_offset 48
	popq	%rbp
	.cfi_def_cfa_offset 40
	popq	%r12
	.cfi_def_cfa_offset 32
	popq	%r13
	.cfi_def_cfa_offset 24
	popq	%r14
	.cfi_def_cfa_offset 16
	popq	%r15
	.cfi_def_cfa_offset 8
	ret
.L234:
	.cfi_restore_state
	call	__stack_chk_fail@PLT
	.cfi_endproc
.LFE2458:
	.size	_ZN8opendnp318MeasurementHandler13ProcessHeaderERKNS_12PrefixHeaderERKNS_11ICollectionINS_7IndexedINS_18BinaryOutputStatusEEEEE, .-_ZN8opendnp318MeasurementHandler13ProcessHeaderERKNS_12PrefixHeaderERKNS_11ICollectionINS_7IndexedINS_18BinaryOutputStatusEEEEE
	.align 2
	.p2align 4
	.globl	_ZN8opendnp318MeasurementHandler13ProcessHeaderERKNS_12PrefixHeaderERKNS_11ICollectionINS_7IndexedINS_18AnalogOutputStatusEEEEE
	.type	_ZN8opendnp318MeasurementHandler13ProcessHeaderERKNS_12PrefixHeaderERKNS_11ICollectionINS_7IndexedINS_18AnalogOutputStatusEEEEE, @function
_ZN8opendnp318MeasurementHandler13ProcessHeaderERKNS_12PrefixHeaderERKNS_11ICollectionINS_7IndexedINS_18AnalogOutputStatusEEEEE:
.LFB2463:
	.cfi_startproc
	endbr64
	pushq	%r15
	.cfi_def_cfa_offset 16
	.cfi_offset 15, -16
	pushq	%r14
	.cfi_def_cfa_offset 24
	.cfi_offset 14, -24
	pushq	%r13
	.cfi_def_cfa_offset 32
	.cfi_offset 13, -32
	pushq	%r12
	.cfi_def_cfa_offset 40
	.cfi_offset 12, -40
	movq	%rdx, %r12
	pushq	%rbp
	.cfi_def_cfa_offset 48
	.cfi_offset 6, -48
	movq	%rdi, %rbp
	pushq	%rbx
	.cfi_def_cfa_offset 56
	.cfi_offset 3, -56
	movq	%rsi, %rbx
	subq	$40, %rsp
	.cfi_def_cfa_offset 96
	movzwl	(%rsi), %edi
	movq	%fs:40, %rax
	movq	%rax, 24(%rsp)
	xorl	%eax, %eax
	call	_ZN8opendnp318MeasurementHandler12ModeFromTypeENS_14GroupVariationE@PLT
	movq	%rbp, %rdi
	movl	%eax, %r14d
	call	_ZN8opendnp318MeasurementHandler15CheckForTxStartEv@PLT
	movq	%rbx, %rdi
	movl	12(%rbx), %r15d
	call	_ZNK8opendnp312HeaderRecord16GetQualifierCodeEv@PLT
	movzwl	(%rbx), %r13d
	movl	%r14d, %ecx
	movl	%eax, %r8d
	xorl	%eax, %eax
	movb	%r8b, %al
	movl	%r13d, %edi
	movw	%r13w, 12(%rsp)
	movb	%cl, %ah
	movw	%ax, 14(%rsp)
	call	_ZN8opendnp37IsEventENS_14GroupVariationE@PLT
	movl	%r13d, %edi
	movb	%al, 16(%rsp)
	call	_ZN8opendnp38HasFlagsENS_14GroupVariationE@PLT
	movq	64(%rbp), %rdi
	movl	%r15d, 20(%rsp)
	movq	%r12, %rdx
	movb	%al, 17(%rsp)
	leaq	12(%rsp), %rsi
	movq	(%rdi), %rax
	call	*80(%rax)
	movq	24(%rsp), %rax
	subq	%fs:40, %rax
	jne	.L238
	addq	$40, %rsp
	.cfi_remember_state
	.cfi_def_cfa_offset 56
	xorl	%eax, %eax
	popq	%rbx
	.cfi_def_cfa_offset 48
	popq	%rbp
	.cfi_def_cfa_offset 40
	popq	%r12
	.cfi_def_cfa_offset 32
	popq	%r13
	.cfi_def_cfa_offset 24
	popq	%r14
	.cfi_def_cfa_offset 16
	popq	%r15
	.cfi_def_cfa_offset 8
	ret
.L238:
	.cfi_restore_state
	call	__stack_chk_fail@PLT
	.cfi_endproc
.LFE2463:
	.size	_ZN8opendnp318MeasurementHandler13ProcessHeaderERKNS_12PrefixHeaderERKNS_11ICollectionINS_7IndexedINS_18AnalogOutputStatusEEEEE, .-_ZN8opendnp318MeasurementHandler13ProcessHeaderERKNS_12PrefixHeaderERKNS_11ICollectionINS_7IndexedINS_18AnalogOutputStatusEEEEE
	.align 2
	.p2align 4
	.globl	_ZN8opendnp318MeasurementHandler13ProcessHeaderERKNS_12PrefixHeaderERKNS_11ICollectionINS_7IndexedINS_11OctetStringEEEEE
	.type	_ZN8opendnp318MeasurementHandler13ProcessHeaderERKNS_12PrefixHeaderERKNS_11ICollectionINS_7IndexedINS_11OctetStringEEEEE, @function
_ZN8opendnp318MeasurementHandler13ProcessHeaderERKNS_12PrefixHeaderERKNS_11ICollectionINS_7IndexedINS_11OctetStringEEEEE:
.LFB2464:
	.cfi_startproc
	endbr64
	pushq	%r15
	.cfi_def_cfa_offset 16
	.cfi_offset 15, -16
	pushq	%r14
	.cfi_def_cfa_offset 24
	.cfi_offset 14, -24
	pushq	%r13
	.cfi_def_cfa_offset 32
	.cfi_offset 13, -32
	pushq	%r12
	.cfi_def_cfa_offset 40
	.cfi_offset 12, -40
	movq	%rdx, %r12
	pushq	%rbp
	.cfi_def_cfa_offset 48
	.cfi_offset 6, -48
	movq	%rdi, %rbp
	pushq	%rbx
	.cfi_def_cfa_offset 56
	.cfi_offset 3, -56
	movq	%rsi, %rbx
	subq	$40, %rsp
	.cfi_def_cfa_offset 96
	movzwl	(%rsi), %edi
	movq	%fs:40, %rax
	movq	%rax, 24(%rsp)
	xorl	%eax, %eax
	call	_ZN8opendnp318MeasurementHandler12ModeFromTypeENS_14GroupVariationE@PLT
	movq	%rbp, %rdi
	movl	%eax, %r14d
	call	_ZN8opendnp318MeasurementHandler15CheckForTxStartEv@PLT
	movq	%rbx, %rdi
	movl	12(%rbx), %r15d
	call	_ZNK8opendnp312HeaderRecord16GetQualifierCodeEv@PLT
	movzwl	(%rbx), %r13d
	movl	%r14d, %ecx
	movl	%eax, %r8d
	xorl	%eax, %eax
	movb	%r8b, %al
	movl	%r13d, %edi
	movw	%r13w, 12(%rsp)
	movb	%cl, %ah
	movw	%ax, 14(%rsp)
	call	_ZN8opendnp37IsEventENS_14GroupVariationE@PLT
	movl	%r13d, %edi
	movb	%al, 16(%rsp)
	call	_ZN8opendnp38HasFlagsENS_14GroupVariationE@PLT
	movq	64(%rbp), %rdi
	movl	%r15d, 20(%rsp)
	movq	%r12, %rdx
	movb	%al, 17(%rsp)
	leaq	12(%rsp), %rsi
	movq	(%rdi), %rax
	call	*88(%rax)
	movq	24(%rsp), %rax
	subq	%fs:40, %rax
	jne	.L242
	addq	$40, %rsp
	.cfi_remember_state
	.cfi_def_cfa_offset 56
	xorl	%eax, %eax
	popq	%rbx
	.cfi_def_cfa_offset 48
	popq	%rbp
	.cfi_def_cfa_offset 40
	popq	%r12
	.cfi_def_cfa_offset 32
	popq	%r13
	.cfi_def_cfa_offset 24
	popq	%r14
	.cfi_def_cfa_offset 16
	popq	%r15
	.cfi_def_cfa_offset 8
	ret
.L242:
	.cfi_restore_state
	call	__stack_chk_fail@PLT
	.cfi_endproc
.LFE2464:
	.size	_ZN8opendnp318MeasurementHandler13ProcessHeaderERKNS_12PrefixHeaderERKNS_11ICollectionINS_7IndexedINS_11OctetStringEEEEE, .-_ZN8opendnp318MeasurementHandler13ProcessHeaderERKNS_12PrefixHeaderERKNS_11ICollectionINS_7IndexedINS_11OctetStringEEEEE
	.align 2
	.p2align 4
	.globl	_ZN8opendnp318MeasurementHandler13ProcessHeaderERKNS_11RangeHeaderERKNS_11ICollectionINS_7IndexedINS_7CounterEEEEE
	.type	_ZN8opendnp318MeasurementHandler13ProcessHeaderERKNS_11RangeHeaderERKNS_11ICollectionINS_7IndexedINS_7CounterEEEEE, @function
_ZN8opendnp318MeasurementHandler13ProcessHeaderERKNS_11RangeHeaderERKNS_11ICollectionINS_7IndexedINS_7CounterEEEEE:
.LFB2450:
	.cfi_startproc
	endbr64
	pushq	%r15
	.cfi_def_cfa_offset 16
	.cfi_offset 15, -16
	pushq	%r14
	.cfi_def_cfa_offset 24
	.cfi_offset 14, -24
	pushq	%r13
	.cfi_def_cfa_offset 32
	.cfi_offset 13, -32
	pushq	%r12
	.cfi_def_cfa_offset 40
	.cfi_offset 12, -40
	movq	%rdx, %r12
	pushq	%rbp
	.cfi_def_cfa_offset 48
	.cfi_offset 6, -48
	movq	%rdi, %rbp
	pushq	%rbx
	.cfi_def_cfa_offset 56
	.cfi_offset 3, -56
	movq	%rsi, %rbx
	subq	$40, %rsp
	.cfi_def_cfa_offset 96
	movzwl	(%rsi), %edi
	movq	%fs:40, %rax
	movq	%rax, 24(%rsp)
	xorl	%eax, %eax
	call	_ZN8opendnp318MeasurementHandler12ModeFromTypeENS_14GroupVariationE@PLT
	movq	%rbp, %rdi
	movl	%eax, %r14d
	call	_ZN8opendnp318MeasurementHandler15CheckForTxStartEv@PLT
	movq	%rbx, %rdi
	movl	12(%rbx), %r15d
	call	_ZNK8opendnp312HeaderRecord16GetQualifierCodeEv@PLT
	movzwl	(%rbx), %r13d
	movl	%r14d, %ecx
	movl	%eax, %r8d
	xorl	%eax, %eax
	movb	%r8b, %al
	movl	%r13d, %edi
	movw	%r13w, 12(%rsp)
	movb	%cl, %ah
	movw	%ax, 14(%rsp)
	call	_ZN8opendnp37IsEventENS_14GroupVariationE@PLT
	movl	%r13d, %edi
	movb	%al, 16(%rsp)
	call	_ZN8opendnp38HasFlagsENS_14GroupVariationE@PLT
	movq	64(%rbp), %rdi
	movl	%r15d, 20(%rsp)
	movq	%r12, %rdx
	movb	%al, 17(%rsp)
	leaq	12(%rsp), %rsi
	movq	(%rdi), %rax
	call	*56(%rax)
	movq	24(%rsp), %rax
	subq	%fs:40, %rax
	jne	.L246
	addq	$40, %rsp
	.cfi_remember_state
	.cfi_def_cfa_offset 56
	xorl	%eax, %eax
	popq	%rbx
	.cfi_def_cfa_offset 48
	popq	%rbp
	.cfi_def_cfa_offset 40
	popq	%r12
	.cfi_def_cfa_offset 32
	popq	%r13
	.cfi_def_cfa_offset 24
	popq	%r14
	.cfi_def_cfa_offset 16
	popq	%r15
	.cfi_def_cfa_offset 8
	ret
.L246:
	.cfi_restore_state
	call	__stack_chk_fail@PLT
	.cfi_endproc
.LFE2450:
	.size	_ZN8opendnp318MeasurementHandler13ProcessHeaderERKNS_11RangeHeaderERKNS_11ICollectionINS_7IndexedINS_7CounterEEEEE, .-_ZN8opendnp318MeasurementHandler13ProcessHeaderERKNS_11RangeHeaderERKNS_11ICollectionINS_7IndexedINS_7CounterEEEEE
	.align 2
	.p2align 4
	.globl	_ZN8opendnp318MeasurementHandler13ProcessHeaderERKNS_11RangeHeaderERKNS_11ICollectionINS_7IndexedINS_13FrozenCounterEEEEE
	.type	_ZN8opendnp318MeasurementHandler13ProcessHeaderERKNS_11RangeHeaderERKNS_11ICollectionINS_7IndexedINS_13FrozenCounterEEEEE, @function
_ZN8opendnp318MeasurementHandler13ProcessHeaderERKNS_11RangeHeaderERKNS_11ICollectionINS_7IndexedINS_13FrozenCounterEEEEE:
.LFB2451:
	.cfi_startproc
	endbr64
	pushq	%r15
	.cfi_def_cfa_offset 16
	.cfi_offset 15, -16
	pushq	%r14
	.cfi_def_cfa_offset 24
	.cfi_offset 14, -24
	pushq	%r13
	.cfi_def_cfa_offset 32
	.cfi_offset 13, -32
	pushq	%r12
	.cfi_def_cfa_offset 40
	.cfi_offset 12, -40
	movq	%rdx, %r12
	pushq	%rbp
	.cfi_def_cfa_offset 48
	.cfi_offset 6, -48
	movq	%rdi, %rbp
	pushq	%rbx
	.cfi_def_cfa_offset 56
	.cfi_offset 3, -56
	movq	%rsi, %rbx
	subq	$40, %rsp
	.cfi_def_cfa_offset 96
	movzwl	(%rsi), %edi
	movq	%fs:40, %rax
	movq	%rax, 24(%rsp)
	xorl	%eax, %eax
	call	_ZN8opendnp318MeasurementHandler12ModeFromTypeENS_14GroupVariationE@PLT
	movq	%rbp, %rdi
	movl	%eax, %r14d
	call	_ZN8opendnp318MeasurementHandler15CheckForTxStartEv@PLT
	movq	%rbx, %rdi
	movl	12(%rbx), %r15d
	call	_ZNK8opendnp312HeaderRecord16GetQualifierCodeEv@PLT
	movzwl	(%rbx), %r13d
	movl	%r14d, %ecx
	movl	%eax, %r8d
	xorl	%eax, %eax
	movb	%r8b, %al
	movl	%r13d, %edi
	movw	%r13w, 12(%rsp)
	movb	%cl, %ah
	movw	%ax, 14(%rsp)
	call	_ZN8opendnp37IsEventENS_14GroupVariationE@PLT
	movl	%r13d, %edi
	movb	%al, 16(%rsp)
	call	_ZN8opendnp38HasFlagsENS_14GroupVariationE@PLT
	movq	64(%rbp), %rdi
	movl	%r15d, 20(%rsp)
	movq	%r12, %rdx
	movb	%al, 17(%rsp)
	leaq	12(%rsp), %rsi
	movq	(%rdi), %rax
	call	*64(%rax)
	movq	24(%rsp), %rax
	subq	%fs:40, %rax
	jne	.L250
	addq	$40, %rsp
	.cfi_remember_state
	.cfi_def_cfa_offset 56
	xorl	%eax, %eax
	popq	%rbx
	.cfi_def_cfa_offset 48
	popq	%rbp
	.cfi_def_cfa_offset 40
	popq	%r12
	.cfi_def_cfa_offset 32
	popq	%r13
	.cfi_def_cfa_offset 24
	popq	%r14
	.cfi_def_cfa_offset 16
	popq	%r15
	.cfi_def_cfa_offset 8
	ret
.L250:
	.cfi_restore_state
	call	__stack_chk_fail@PLT
	.cfi_endproc
.LFE2451:
	.size	_ZN8opendnp318MeasurementHandler13ProcessHeaderERKNS_11RangeHeaderERKNS_11ICollectionINS_7IndexedINS_13FrozenCounterEEEEE, .-_ZN8opendnp318MeasurementHandler13ProcessHeaderERKNS_11RangeHeaderERKNS_11ICollectionINS_7IndexedINS_13FrozenCounterEEEEE
	.align 2
	.p2align 4
	.globl	_ZN8opendnp318MeasurementHandler13ProcessHeaderERKNS_11RangeHeaderERKNS_11ICollectionINS_7IndexedINS_6AnalogEEEEE
	.type	_ZN8opendnp318MeasurementHandler13ProcessHeaderERKNS_11RangeHeaderERKNS_11ICollectionINS_7IndexedINS_6AnalogEEEEE, @function
_ZN8opendnp318MeasurementHandler13ProcessHeaderERKNS_11RangeHeaderERKNS_11ICollectionINS_7IndexedINS_6AnalogEEEEE:
.LFB2452:
	.cfi_startproc
	endbr64
	pushq	%r15
	.cfi_def_cfa_offset 16
	.cfi_offset 15, -16
	pushq	%r14
	.cfi_def_cfa_offset 24
	.cfi_offset 14, -24
	pushq	%r13
	.cfi_def_cfa_offset 32
	.cfi_offset 13, -32
	pushq	%r12
	.cfi_def_cfa_offset 40
	.cfi_offset 12, -40
	movq	%rdx, %r12
	pushq	%rbp
	.cfi_def_cfa_offset 48
	.cfi_offset 6, -48
	movq	%rdi, %rbp
	pushq	%rbx
	.cfi_def_cfa_offset 56
	.cfi_offset 3, -56
	movq	%rsi, %rbx
	subq	$40, %rsp
	.cfi_def_cfa_offset 96
	movzwl	(%rsi), %edi
	movq	%fs:40, %rax
	movq	%rax, 24(%rsp)
	xorl	%eax, %eax
	call	_ZN8opendnp318MeasurementHandler12ModeFromTypeENS_14GroupVariationE@PLT
	movq	%rbp, %rdi
	movl	%eax, %r14d
	call	_ZN8opendnp318MeasurementHandler15CheckForTxStartEv@PLT
	movq	%rbx, %rdi
	movl	12(%rbx), %r15d
	call	_ZNK8opendnp312HeaderRecord16GetQualifierCodeEv@PLT
	movzwl	(%rbx), %r13d
	movl	%r14d, %ecx
	movl	%eax, %r8d
	xorl	%eax, %eax
	movb	%r8b, %al
	movl	%r13d, %edi
	movw	%r13w, 12(%rsp)
	movb	%cl, %ah
	movw	%ax, 14(%rsp)
	call	_ZN8opendnp37IsEventENS_14GroupVariationE@PLT
	movl	%r13d, %edi
	movb	%al, 16(%rsp)
	call	_ZN8opendnp38HasFlagsENS_14GroupVariationE@PLT
	movq	64(%rbp), %rdi
	movl	%r15d, 20(%rsp)
	movq	%r12, %rdx
	movb	%al, 17(%rsp)
	leaq	12(%rsp), %rsi
	movq	(%rdi), %rax
	call	*48(%rax)
	movq	24(%rsp), %rax
	subq	%fs:40, %rax
	jne	.L254
	addq	$40, %rsp
	.cfi_remember_state
	.cfi_def_cfa_offset 56
	xorl	%eax, %eax
	popq	%rbx
	.cfi_def_cfa_offset 48
	popq	%rbp
	.cfi_def_cfa_offset 40
	popq	%r12
	.cfi_def_cfa_offset 32
	popq	%r13
	.cfi_def_cfa_offset 24
	popq	%r14
	.cfi_def_cfa_offset 16
	popq	%r15
	.cfi_def_cfa_offset 8
	ret
.L254:
	.cfi_restore_state
	call	__stack_chk_fail@PLT
	.cfi_endproc
.LFE2452:
	.size	_ZN8opendnp318MeasurementHandler13ProcessHeaderERKNS_11RangeHeaderERKNS_11ICollectionINS_7IndexedINS_6AnalogEEEEE, .-_ZN8opendnp318MeasurementHandler13ProcessHeaderERKNS_11RangeHeaderERKNS_11ICollectionINS_7IndexedINS_6AnalogEEEEE
	.align 2
	.p2align 4
	.globl	_ZN8opendnp318MeasurementHandler13ProcessHeaderERKNS_11RangeHeaderERKNS_11ICollectionINS_7IndexedINS_6BinaryEEEEE
	.type	_ZN8opendnp318MeasurementHandler13ProcessHeaderERKNS_11RangeHeaderERKNS_11ICollectionINS_7IndexedINS_6BinaryEEEEE, @function
_ZN8opendnp318MeasurementHandler13ProcessHeaderERKNS_11RangeHeaderERKNS_11ICollectionINS_7IndexedINS_6BinaryEEEEE:
.LFB2447:
	.cfi_startproc
	endbr64
	pushq	%r15
	.cfi_def_cfa_offset 16
	.cfi_offset 15, -16
	pushq	%r14
	.cfi_def_cfa_offset 24
	.cfi_offset 14, -24
	pushq	%r13
	.cfi_def_cfa_offset 32
	.cfi_offset 13, -32
	pushq	%r12
	.cfi_def_cfa_offset 40
	.cfi_offset 12, -40
	movq	%rdx, %r12
	pushq	%rbp
	.cfi_def_cfa_offset 48
	.cfi_offset 6, -48
	movq	%rdi, %rbp
	pushq	%rbx
	.cfi_def_cfa_offset 56
	.cfi_offset 3, -56
	movq	%rsi, %rbx
	subq	$40, %rsp
	.cfi_def_cfa_offset 96
	movzwl	(%rsi), %edi
	movq	%fs:40, %rax
	movq	%rax, 24(%rsp)
	xorl	%eax, %eax
	call	_ZN8opendnp318MeasurementHandler12ModeFromTypeENS_14GroupVariationE@PLT
	movq	%rbp, %rdi
	movl	%eax, %r14d
	call	_ZN8opendnp318MeasurementHandler15CheckForTxStartEv@PLT
	movq	%rbx, %rdi
	movl	12(%rbx), %r15d
	call	_ZNK8opendnp312HeaderRecord16GetQualifierCodeEv@PLT
	movzwl	(%rbx), %r13d
	movl	%r14d, %ecx
	movl	%eax, %r8d
	xorl	%eax, %eax
	movb	%r8b, %al
	movl	%r13d, %edi
	movw	%r13w, 12(%rsp)
	movb	%cl, %ah
	movw	%ax, 14(%rsp)
	call	_ZN8opendnp37IsEventENS_14GroupVariationE@PLT
	movl	%r13d, %edi
	movb	%al, 16(%rsp)
	call	_ZN8opendnp38HasFlagsENS_14GroupVariationE@PLT
	movq	64(%rbp), %rdi
	movl	%r15d, 20(%rsp)
	movq	%r12, %rdx
	movb	%al, 17(%rsp)
	leaq	12(%rsp), %rsi
	movq	(%rdi), %rax
	call	*32(%rax)
	movq	24(%rsp), %rax
	subq	%fs:40, %rax
	jne	.L258
	addq	$40, %rsp
	.cfi_remember_state
	.cfi_def_cfa_offset 56
	xorl	%eax, %eax
	popq	%rbx
	.cfi_def_cfa_offset 48
	popq	%rbp
	.cfi_def_cfa_offset 40
	popq	%r12
	.cfi_def_cfa_offset 32
	popq	%r13
	.cfi_def_cfa_offset 24
	popq	%r14
	.cfi_def_cfa_offset 16
	popq	%r15
	.cfi_def_cfa_offset 8
	ret
.L258:
	.cfi_restore_state
	call	__stack_chk_fail@PLT
	.cfi_endproc
.LFE2447:
	.size	_ZN8opendnp318MeasurementHandler13ProcessHeaderERKNS_11RangeHeaderERKNS_11ICollectionINS_7IndexedINS_6BinaryEEEEE, .-_ZN8opendnp318MeasurementHandler13ProcessHeaderERKNS_11RangeHeaderERKNS_11ICollectionINS_7IndexedINS_6BinaryEEEEE
	.align 2
	.p2align 4
	.globl	_ZN8opendnp318MeasurementHandler13ProcessHeaderERKNS_11RangeHeaderERKNS_11ICollectionINS_7IndexedINS_15DoubleBitBinaryEEEEE
	.type	_ZN8opendnp318MeasurementHandler13ProcessHeaderERKNS_11RangeHeaderERKNS_11ICollectionINS_7IndexedINS_15DoubleBitBinaryEEEEE, @function
_ZN8opendnp318MeasurementHandler13ProcessHeaderERKNS_11RangeHeaderERKNS_11ICollectionINS_7IndexedINS_15DoubleBitBinaryEEEEE:
.LFB2448:
	.cfi_startproc
	endbr64
	pushq	%r15
	.cfi_def_cfa_offset 16
	.cfi_offset 15, -16
	pushq	%r14
	.cfi_def_cfa_offset 24
	.cfi_offset 14, -24
	pushq	%r13
	.cfi_def_cfa_offset 32
	.cfi_offset 13, -32
	pushq	%r12
	.cfi_def_cfa_offset 40
	.cfi_offset 12, -40
	movq	%rdx, %r12
	pushq	%rbp
	.cfi_def_cfa_offset 48
	.cfi_offset 6, -48
	movq	%rdi, %rbp
	pushq	%rbx
	.cfi_def_cfa_offset 56
	.cfi_offset 3, -56
	movq	%rsi, %rbx
	subq	$40, %rsp
	.cfi_def_cfa_offset 96
	movzwl	(%rsi), %edi
	movq	%fs:40, %rax
	movq	%rax, 24(%rsp)
	xorl	%eax, %eax
	call	_ZN8opendnp318MeasurementHandler12ModeFromTypeENS_14GroupVariationE@PLT
	movq	%rbp, %rdi
	movl	%eax, %r14d
	call	_ZN8opendnp318MeasurementHandler15CheckForTxStartEv@PLT
	movq	%rbx, %rdi
	movl	12(%rbx), %r15d
	call	_ZNK8opendnp312HeaderRecord16GetQualifierCodeEv@PLT
	movzwl	(%rbx), %r13d
	movl	%r14d, %ecx
	movl	%eax, %r8d
	xorl	%eax, %eax
	movb	%r8b, %al
	movl	%r13d, %edi
	movw	%r13w, 12(%rsp)
	movb	%cl, %ah
	movw	%ax, 14(%rsp)
	call	_ZN8opendnp37IsEventENS_14GroupVariationE@PLT
	movl	%r13d, %edi
	movb	%al, 16(%rsp)
	call	_ZN8opendnp38HasFlagsENS_14GroupVariationE@PLT
	movq	64(%rbp), %rdi
	movl	%r15d, 20(%rsp)
	movq	%r12, %rdx
	movb	%al, 17(%rsp)
	leaq	12(%rsp), %rsi
	movq	(%rdi), %rax
	call	*40(%rax)
	movq	24(%rsp), %rax
	subq	%fs:40, %rax
	jne	.L262
	addq	$40, %rsp
	.cfi_remember_state
	.cfi_def_cfa_offset 56
	xorl	%eax, %eax
	popq	%rbx
	.cfi_def_cfa_offset 48
	popq	%rbp
	.cfi_def_cfa_offset 40
	popq	%r12
	.cfi_def_cfa_offset 32
	popq	%r13
	.cfi_def_cfa_offset 24
	popq	%r14
	.cfi_def_cfa_offset 16
	popq	%r15
	.cfi_def_cfa_offset 8
	ret
.L262:
	.cfi_restore_state
	call	__stack_chk_fail@PLT
	.cfi_endproc
.LFE2448:
	.size	_ZN8opendnp318MeasurementHandler13ProcessHeaderERKNS_11RangeHeaderERKNS_11ICollectionINS_7IndexedINS_15DoubleBitBinaryEEEEE, .-_ZN8opendnp318MeasurementHandler13ProcessHeaderERKNS_11RangeHeaderERKNS_11ICollectionINS_7IndexedINS_15DoubleBitBinaryEEEEE
	.align 2
	.p2align 4
	.globl	_ZN8opendnp318MeasurementHandler13ProcessHeaderERKNS_11RangeHeaderERKNS_11ICollectionINS_7IndexedINS_12Group121Var1EEEEE
	.type	_ZN8opendnp318MeasurementHandler13ProcessHeaderERKNS_11RangeHeaderERKNS_11ICollectionINS_7IndexedINS_12Group121Var1EEEEE, @function
_ZN8opendnp318MeasurementHandler13ProcessHeaderERKNS_11RangeHeaderERKNS_11ICollectionINS_7IndexedINS_12Group121Var1EEEEE:
.LFB2456:
	.cfi_startproc
	endbr64
	pushq	%r14
	.cfi_def_cfa_offset 16
	.cfi_offset 14, -16
	pushq	%r13
	.cfi_def_cfa_offset 24
	.cfi_offset 13, -24
	pushq	%r12
	.cfi_def_cfa_offset 32
	.cfi_offset 12, -32
	pushq	%rbp
	.cfi_def_cfa_offset 40
	.cfi_offset 6, -40
	movq	%rdi, %rbp
	pushq	%rbx
	.cfi_def_cfa_offset 48
	.cfi_offset 3, -48
	movq	%rsi, %rbx
	subq	$48, %rsp
	.cfi_def_cfa_offset 96
	movzwl	(%rsi), %edi
	movq	%fs:40, %rax
	movq	%rax, 40(%rsp)
	movq	_ZTVN8opendnp321TransformedCollectionINS_7IndexedINS_12Group121Var1EEENS1_INS_12SecurityStatEEEZNS_18MeasurementHandler25LoadValuesWithTransformToIS4_S2_EENS_8IINFieldERKNS_12HeaderRecordERKNS_11ICollectionINS1_IT0_EEEEEUlRKS3_E_EE@GOTPCREL(%rip), %rax
	movq	%rdx, 24(%rsp)
	addq	$16, %rax
	movq	%rax, 16(%rsp)
	call	_ZN8opendnp318MeasurementHandler12ModeFromTypeENS_14GroupVariationE@PLT
	movq	%rbp, %rdi
	movl	%eax, %r13d
	call	_ZN8opendnp318MeasurementHandler15CheckForTxStartEv@PLT
	movq	%rbx, %rdi
	movl	12(%rbx), %r14d
	call	_ZNK8opendnp312HeaderRecord16GetQualifierCodeEv@PLT
	movzwl	(%rbx), %r12d
	movl	%r13d, %ecx
	movl	%eax, %r8d
	xorl	%eax, %eax
	movb	%r8b, %al
	movl	%r12d, %edi
	movw	%r12w, 4(%rsp)
	movb	%cl, %ah
	movw	%ax, 6(%rsp)
	call	_ZN8opendnp37IsEventENS_14GroupVariationE@PLT
	movl	%r12d, %edi
	movb	%al, 8(%rsp)
	call	_ZN8opendnp38HasFlagsENS_14GroupVariationE@PLT
	movq	64(%rbp), %rdi
	movl	%r14d, 12(%rsp)
	leaq	16(%rsp), %rdx
	movb	%al, 9(%rsp)
	leaq	4(%rsp), %rsi
	movq	(%rdi), %rax
	call	*120(%rax)
	movq	40(%rsp), %rax
	subq	%fs:40, %rax
	jne	.L266
	addq	$48, %rsp
	.cfi_remember_state
	.cfi_def_cfa_offset 48
	xorl	%eax, %eax
	popq	%rbx
	.cfi_def_cfa_offset 40
	popq	%rbp
	.cfi_def_cfa_offset 32
	popq	%r12
	.cfi_def_cfa_offset 24
	popq	%r13
	.cfi_def_cfa_offset 16
	popq	%r14
	.cfi_def_cfa_offset 8
	ret
.L266:
	.cfi_restore_state
	call	__stack_chk_fail@PLT
	.cfi_endproc
.LFE2456:
	.size	_ZN8opendnp318MeasurementHandler13ProcessHeaderERKNS_11RangeHeaderERKNS_11ICollectionINS_7IndexedINS_12Group121Var1EEEEE, .-_ZN8opendnp318MeasurementHandler13ProcessHeaderERKNS_11RangeHeaderERKNS_11ICollectionINS_7IndexedINS_12Group121Var1EEEEE
	.align 2
	.p2align 4
	.globl	_ZN8opendnp318MeasurementHandler13ProcessHeaderERKNS_12PrefixHeaderERKNS_11ICollectionINS_7IndexedINS_12Group122Var2EEEEE
	.type	_ZN8opendnp318MeasurementHandler13ProcessHeaderERKNS_12PrefixHeaderERKNS_11ICollectionINS_7IndexedINS_12Group122Var2EEEEE, @function
_ZN8opendnp318MeasurementHandler13ProcessHeaderERKNS_12PrefixHeaderERKNS_11ICollectionINS_7IndexedINS_12Group122Var2EEEEE:
.LFB2468:
	.cfi_startproc
	endbr64
	pushq	%r14
	.cfi_def_cfa_offset 16
	.cfi_offset 14, -16
	pushq	%r13
	.cfi_def_cfa_offset 24
	.cfi_offset 13, -24
	pushq	%r12
	.cfi_def_cfa_offset 32
	.cfi_offset 12, -32
	pushq	%rbp
	.cfi_def_cfa_offset 40
	.cfi_offset 6, -40
	movq	%rdi, %rbp
	pushq	%rbx
	.cfi_def_cfa_offset 48
	.cfi_offset 3, -48
	movq	%rsi, %rbx
	subq	$48, %rsp
	.cfi_def_cfa_offset 96
	movzwl	(%rsi), %edi
	movq	%fs:40, %rax
	movq	%rax, 40(%rsp)
	movq	_ZTVN8opendnp321TransformedCollectionINS_7IndexedINS_12Group122Var2EEENS1_INS_12SecurityStatEEEZNS_18MeasurementHandler25LoadValuesWithTransformToIS4_S2_EENS_8IINFieldERKNS_12HeaderRecordERKNS_11ICollectionINS1_IT0_EEEEEUlRKS3_E_EE@GOTPCREL(%rip), %rax
	movq	%rdx, 24(%rsp)
	addq	$16, %rax
	movq	%rax, 16(%rsp)
	call	_ZN8opendnp318MeasurementHandler12ModeFromTypeENS_14GroupVariationE@PLT
	movq	%rbp, %rdi
	movl	%eax, %r13d
	call	_ZN8opendnp318MeasurementHandler15CheckForTxStartEv@PLT
	movq	%rbx, %rdi
	movl	12(%rbx), %r14d
	call	_ZNK8opendnp312HeaderRecord16GetQualifierCodeEv@PLT
	movzwl	(%rbx), %r12d
	movl	%r13d, %ecx
	movl	%eax, %r8d
	xorl	%eax, %eax
	movb	%r8b, %al
	movl	%r12d, %edi
	movw	%r12w, 4(%rsp)
	movb	%cl, %ah
	movw	%ax, 6(%rsp)
	call	_ZN8opendnp37IsEventENS_14GroupVariationE@PLT
	movl	%r12d, %edi
	movb	%al, 8(%rsp)
	call	_ZN8opendnp38HasFlagsENS_14GroupVariationE@PLT
	movq	64(%rbp), %rdi
	movl	%r14d, 12(%rsp)
	leaq	16(%rsp), %rdx
	movb	%al, 9(%rsp)
	leaq	4(%rsp), %rsi
	movq	(%rdi), %rax
	call	*120(%rax)
	movq	40(%rsp), %rax
	subq	%fs:40, %rax
	jne	.L270
	addq	$48, %rsp
	.cfi_remember_state
	.cfi_def_cfa_offset 48
	xorl	%eax, %eax
	popq	%rbx
	.cfi_def_cfa_offset 40
	popq	%rbp
	.cfi_def_cfa_offset 32
	popq	%r12
	.cfi_def_cfa_offset 24
	popq	%r13
	.cfi_def_cfa_offset 16
	popq	%r14
	.cfi_def_cfa_offset 8
	ret
.L270:
	.cfi_restore_state
	call	__stack_chk_fail@PLT
	.cfi_endproc
.LFE2468:
	.size	_ZN8opendnp318MeasurementHandler13ProcessHeaderERKNS_12PrefixHeaderERKNS_11ICollectionINS_7IndexedINS_12Group122Var2EEEEE, .-_ZN8opendnp318MeasurementHandler13ProcessHeaderERKNS_12PrefixHeaderERKNS_11ICollectionINS_7IndexedINS_12Group122Var2EEEEE
	.section	.rodata.str1.1,"aMS",@progbits,1
.LC1:
	.string	"No prior CTO objects for %s"
	.section	.rodata.str1.8,"aMS",@progbits,1
	.align 8
.LC2:
	.string	"/home/saptarshi/Desktop/OpenPLC61850/utils/dnp3_src/cpp/libs/src/opendnp3/master/MeasurementHandler.h(154)"
	.text
	.align 2
	.p2align 4
	.globl	_ZN8opendnp318MeasurementHandler13ProcessHeaderERKNS_12PrefixHeaderERKNS_11ICollectionINS_7IndexedINS_15DoubleBitBinaryEEEEE
	.type	_ZN8opendnp318MeasurementHandler13ProcessHeaderERKNS_12PrefixHeaderERKNS_11ICollectionINS_7IndexedINS_15DoubleBitBinaryEEEEE, @function
_ZN8opendnp318MeasurementHandler13ProcessHeaderERKNS_12PrefixHeaderERKNS_11ICollectionINS_7IndexedINS_15DoubleBitBinaryEEEEE:
.LFB2459:
	.cfi_startproc
	endbr64
	pushq	%r15
	.cfi_def_cfa_offset 16
	.cfi_offset 15, -16
	pushq	%r14
	.cfi_def_cfa_offset 24
	.cfi_offset 14, -24
	pushq	%r13
	.cfi_def_cfa_offset 32
	.cfi_offset 13, -32
	movq	%rdx, %r13
	pushq	%r12
	.cfi_def_cfa_offset 40
	.cfi_offset 12, -40
	movq	%rdi, %r12
	pushq	%rbp
	.cfi_def_cfa_offset 48
	.cfi_offset 6, -48
	pushq	%rbx
	.cfi_def_cfa_offset 56
	.cfi_offset 3, -56
	movq	%rsi, %rbx
	subq	$184, %rsp
	.cfi_def_cfa_offset 240
	movzwl	(%rsi), %edi
	movq	%fs:40, %rax
	movq	%rax, 168(%rsp)
	xorl	%eax, %eax
	cmpw	$1027, %di
	je	.L282
	call	_ZN8opendnp318MeasurementHandler12ModeFromTypeENS_14GroupVariationE@PLT
	movq	%r12, %rdi
	movl	%eax, %r14d
	call	_ZN8opendnp318MeasurementHandler15CheckForTxStartEv@PLT
	movq	%rbx, %rdi
	movl	12(%rbx), %r15d
	call	_ZNK8opendnp312HeaderRecord16GetQualifierCodeEv@PLT
	movzwl	(%rbx), %ebp
	movl	%r14d, %ecx
	movl	%eax, %r8d
	xorl	%eax, %eax
	movb	%r8b, %al
	movl	%ebp, %edi
	movw	%bp, 16(%rsp)
	movb	%cl, %ah
	movw	%ax, 18(%rsp)
	call	_ZN8opendnp37IsEventENS_14GroupVariationE@PLT
	movl	%ebp, %edi
	movb	%al, 20(%rsp)
	call	_ZN8opendnp38HasFlagsENS_14GroupVariationE@PLT
	movq	64(%r12), %rdi
	movl	%r15d, 24(%rsp)
	movq	%r13, %rdx
	movb	%al, 21(%rsp)
	leaq	16(%rsp), %rsi
	movq	(%rdi), %rax
	call	*40(%rax)
	xorl	%eax, %eax
.L276:
	movq	168(%rsp), %rdx
	subq	%fs:40, %rdx
	jne	.L283
	addq	$184, %rsp
	.cfi_remember_state
	.cfi_def_cfa_offset 56
	popq	%rbx
	.cfi_def_cfa_offset 48
	popq	%rbp
	.cfi_def_cfa_offset 40
	popq	%r12
	.cfi_def_cfa_offset 32
	popq	%r13
	.cfi_def_cfa_offset 24
	popq	%r14
	.cfi_def_cfa_offset 16
	popq	%r15
	.cfi_def_cfa_offset 8
	ret
	.p2align 4,,10
	.p2align 3
.L282:
	.cfi_restore_state
	movzbl	72(%r12), %ebp
	testb	%bpl, %bpl
	jne	.L273
	addq	$24, %r12
	leaq	16(%rsp), %rbp
	movl	$4, 16(%rsp)
	movq	%rbp, %rsi
	movq	%r12, %rdi
	call	_ZNK7openpal6Logger9IsEnabledERKNS_10LogFiltersE@PLT
	testb	%al, %al
	jne	.L284
.L274:
	xorl	%eax, %eax
	movl	$10, %esi
	movq	%rbp, %rdi
	movw	%ax, 16(%rsp)
	call	_ZN8opendnp38IINField6SetBitENS_6IINBitE@PLT
	movzwl	16(%rsp), %eax
	jmp	.L276
	.p2align 4,,10
	.p2align 3
.L273:
	movq	_ZTVN8opendnp321TransformedCollectionINS_7IndexedINS_15DoubleBitBinaryEEES3_ZNS_18MeasurementHandler14ProcessWithCTOIS2_EENS_8IINFieldERKNS_12HeaderRecordERKNS_11ICollectionINS1_IT_EEEEEUlRKS3_E_EE@GOTPCREL(%rip), %rdx
	movq	80(%r12), %rax
	movq	%r12, %rdi
	movq	%r13, 24(%rsp)
	addq	$16, %rdx
	movq	%rax, 32(%rsp)
	movq	%rdx, 16(%rsp)
	call	_ZN8opendnp318MeasurementHandler15CheckForTxStartEv@PLT
	movq	%rbx, %rdi
	movl	12(%rbx), %r14d
	call	_ZNK8opendnp312HeaderRecord16GetQualifierCodeEv@PLT
	movzwl	(%rbx), %r13d
	movl	%ebp, %ecx
	movl	%eax, %r8d
	xorl	%eax, %eax
	movb	%r8b, %al
	movl	%r13d, %edi
	movw	%r13w, 4(%rsp)
	movb	%cl, %ah
	movw	%ax, 6(%rsp)
	call	_ZN8opendnp37IsEventENS_14GroupVariationE@PLT
	movl	%r13d, %edi
	movb	%al, 8(%rsp)
	call	_ZN8opendnp38HasFlagsENS_14GroupVariationE@PLT
	movq	64(%r12), %rdi
	movl	%r14d, 12(%rsp)
	leaq	16(%rsp), %rdx
	movb	%al, 9(%rsp)
	leaq	4(%rsp), %rsi
	movq	(%rdi), %rax
	call	*40(%rax)
	xorl	%eax, %eax
	jmp	.L276
	.p2align 4,,10
	.p2align 3
.L284:
	movzwl	(%rbx), %edi
	leaq	48(%rsp), %r13
	call	_ZN8opendnp322GroupVariationToStringENS_14GroupVariationE@PLT
	movq	%r13, %rdi
	movl	$120, %ecx
	leaq	.LC1(%rip), %r8
	movq	%rax, %r9
	movl	$1, %edx
	movl	$120, %esi
	xorl	%eax, %eax
	call	__snprintf_chk@PLT
	movq	%r13, %rcx
	movq	%rbp, %rsi
	movq	%r12, %rdi
	leaq	.LC2(%rip), %rdx
	movl	$4, 16(%rsp)
	call	_ZN7openpal6Logger3LogERKNS_10LogFiltersEPKcS5_@PLT
	jmp	.L274
.L283:
	call	__stack_chk_fail@PLT
	.cfi_endproc
.LFE2459:
	.size	_ZN8opendnp318MeasurementHandler13ProcessHeaderERKNS_12PrefixHeaderERKNS_11ICollectionINS_7IndexedINS_15DoubleBitBinaryEEEEE, .-_ZN8opendnp318MeasurementHandler13ProcessHeaderERKNS_12PrefixHeaderERKNS_11ICollectionINS_7IndexedINS_15DoubleBitBinaryEEEEE
	.align 2
	.p2align 4
	.globl	_ZN8opendnp318MeasurementHandler13ProcessHeaderERKNS_12PrefixHeaderERKNS_11ICollectionINS_7IndexedINS_6BinaryEEEEE
	.type	_ZN8opendnp318MeasurementHandler13ProcessHeaderERKNS_12PrefixHeaderERKNS_11ICollectionINS_7IndexedINS_6BinaryEEEEE, @function
_ZN8opendnp318MeasurementHandler13ProcessHeaderERKNS_12PrefixHeaderERKNS_11ICollectionINS_7IndexedINS_6BinaryEEEEE:
.LFB2457:
	.cfi_startproc
	endbr64
	pushq	%r15
	.cfi_def_cfa_offset 16
	.cfi_offset 15, -16
	pushq	%r14
	.cfi_def_cfa_offset 24
	.cfi_offset 14, -24
	pushq	%r13
	.cfi_def_cfa_offset 32
	.cfi_offset 13, -32
	movq	%rdx, %r13
	pushq	%r12
	.cfi_def_cfa_offset 40
	.cfi_offset 12, -40
	movq	%rdi, %r12
	pushq	%rbp
	.cfi_def_cfa_offset 48
	.cfi_offset 6, -48
	pushq	%rbx
	.cfi_def_cfa_offset 56
	.cfi_offset 3, -56
	movq	%rsi, %rbx
	subq	$184, %rsp
	.cfi_def_cfa_offset 240
	movzwl	(%rsi), %edi
	movq	%fs:40, %rax
	movq	%rax, 168(%rsp)
	xorl	%eax, %eax
	cmpw	$515, %di
	je	.L296
	call	_ZN8opendnp318MeasurementHandler12ModeFromTypeENS_14GroupVariationE@PLT
	movq	%r12, %rdi
	movl	%eax, %r14d
	call	_ZN8opendnp318MeasurementHandler15CheckForTxStartEv@PLT
	movq	%rbx, %rdi
	movl	12(%rbx), %r15d
	call	_ZNK8opendnp312HeaderRecord16GetQualifierCodeEv@PLT
	movzwl	(%rbx), %ebp
	movl	%r14d, %ecx
	movl	%eax, %r8d
	xorl	%eax, %eax
	movb	%r8b, %al
	movl	%ebp, %edi
	movw	%bp, 16(%rsp)
	movb	%cl, %ah
	movw	%ax, 18(%rsp)
	call	_ZN8opendnp37IsEventENS_14GroupVariationE@PLT
	movl	%ebp, %edi
	movb	%al, 20(%rsp)
	call	_ZN8opendnp38HasFlagsENS_14GroupVariationE@PLT
	movq	64(%r12), %rdi
	movl	%r15d, 24(%rsp)
	movq	%r13, %rdx
	movb	%al, 21(%rsp)
	leaq	16(%rsp), %rsi
	movq	(%rdi), %rax
	call	*32(%rax)
	xorl	%eax, %eax
.L290:
	movq	168(%rsp), %rdx
	subq	%fs:40, %rdx
	jne	.L297
	addq	$184, %rsp
	.cfi_remember_state
	.cfi_def_cfa_offset 56
	popq	%rbx
	.cfi_def_cfa_offset 48
	popq	%rbp
	.cfi_def_cfa_offset 40
	popq	%r12
	.cfi_def_cfa_offset 32
	popq	%r13
	.cfi_def_cfa_offset 24
	popq	%r14
	.cfi_def_cfa_offset 16
	popq	%r15
	.cfi_def_cfa_offset 8
	ret
	.p2align 4,,10
	.p2align 3
.L296:
	.cfi_restore_state
	movzbl	72(%r12), %ebp
	testb	%bpl, %bpl
	jne	.L287
	addq	$24, %r12
	leaq	16(%rsp), %rbp
	movl	$4, 16(%rsp)
	movq	%rbp, %rsi
	movq	%r12, %rdi
	call	_ZNK7openpal6Logger9IsEnabledERKNS_10LogFiltersE@PLT
	testb	%al, %al
	jne	.L298
.L288:
	xorl	%eax, %eax
	movl	$10, %esi
	movq	%rbp, %rdi
	movw	%ax, 16(%rsp)
	call	_ZN8opendnp38IINField6SetBitENS_6IINBitE@PLT
	movzwl	16(%rsp), %eax
	jmp	.L290
	.p2align 4,,10
	.p2align 3
.L287:
	movq	_ZTVN8opendnp321TransformedCollectionINS_7IndexedINS_6BinaryEEES3_ZNS_18MeasurementHandler14ProcessWithCTOIS2_EENS_8IINFieldERKNS_12HeaderRecordERKNS_11ICollectionINS1_IT_EEEEEUlRKS3_E_EE@GOTPCREL(%rip), %rdx
	movq	80(%r12), %rax
	movq	%r12, %rdi
	movq	%r13, 24(%rsp)
	addq	$16, %rdx
	movq	%rax, 32(%rsp)
	movq	%rdx, 16(%rsp)
	call	_ZN8opendnp318MeasurementHandler15CheckForTxStartEv@PLT
	movq	%rbx, %rdi
	movl	12(%rbx), %r14d
	call	_ZNK8opendnp312HeaderRecord16GetQualifierCodeEv@PLT
	movzwl	(%rbx), %r13d
	movl	%ebp, %ecx
	movl	%eax, %r8d
	xorl	%eax, %eax
	movb	%r8b, %al
	movl	%r13d, %edi
	movw	%r13w, 4(%rsp)
	movb	%cl, %ah
	movw	%ax, 6(%rsp)
	call	_ZN8opendnp37IsEventENS_14GroupVariationE@PLT
	movl	%r13d, %edi
	movb	%al, 8(%rsp)
	call	_ZN8opendnp38HasFlagsENS_14GroupVariationE@PLT
	movq	64(%r12), %rdi
	movl	%r14d, 12(%rsp)
	leaq	16(%rsp), %rdx
	movb	%al, 9(%rsp)
	leaq	4(%rsp), %rsi
	movq	(%rdi), %rax
	call	*32(%rax)
	xorl	%eax, %eax
	jmp	.L290
	.p2align 4,,10
	.p2align 3
.L298:
	movzwl	(%rbx), %edi
	leaq	48(%rsp), %r13
	call	_ZN8opendnp322GroupVariationToStringENS_14GroupVariationE@PLT
	movq	%r13, %rdi
	movl	$120, %ecx
	leaq	.LC1(%rip), %r8
	movq	%rax, %r9
	movl	$1, %edx
	movl	$120, %esi
	xorl	%eax, %eax
	call	__snprintf_chk@PLT
	movq	%r13, %rcx
	movq	%rbp, %rsi
	movq	%r12, %rdi
	leaq	.LC2(%rip), %rdx
	movl	$4, 16(%rsp)
	call	_ZN7openpal6Logger3LogERKNS_10LogFiltersEPKcS5_@PLT
	jmp	.L288
.L297:
	call	__stack_chk_fail@PLT
	.cfi_endproc
.LFE2457:
	.size	_ZN8opendnp318MeasurementHandler13ProcessHeaderERKNS_12PrefixHeaderERKNS_11ICollectionINS_7IndexedINS_6BinaryEEEEE, .-_ZN8opendnp318MeasurementHandler13ProcessHeaderERKNS_12PrefixHeaderERKNS_11ICollectionINS_7IndexedINS_6BinaryEEEEE
	.align 2
	.p2align 4
	.globl	_ZN8opendnp318MeasurementHandler7ConvertERKNS_12Group121Var1E
	.type	_ZN8opendnp318MeasurementHandler7ConvertERKNS_12Group121Var1E, @function
_ZN8opendnp318MeasurementHandler7ConvertERKNS_12Group121Var1E:
.LFB2469:
	.cfi_startproc
	endbr64
	pushq	%r12
	.cfi_def_cfa_offset 16
	.cfi_offset 12, -16
	movl	4(%rsi), %ecx
	movq	%rdi, %r12
	movzwl	2(%rsi), %edx
	movzbl	(%rsi), %esi
	call	_ZN8opendnp312SecurityStatC1Ehtj@PLT
	movq	%r12, %rax
	popq	%r12
	.cfi_def_cfa_offset 8
	ret
	.cfi_endproc
.LFE2469:
	.size	_ZN8opendnp318MeasurementHandler7ConvertERKNS_12Group121Var1E, .-_ZN8opendnp318MeasurementHandler7ConvertERKNS_12Group121Var1E
	.section	.text._ZN8opendnp314FunctorVisitorINS_7IndexedINS_12Group121Var1EEEZNKS_21TransformedCollectionIS3_NS1_INS_12SecurityStatEEEZNS_18MeasurementHandler25LoadValuesWithTransformToIS5_S2_EENS_8IINFieldERKNS_12HeaderRecordERKNS_11ICollectionINS1_IT0_EEEEEUlRKS3_E_E7ForeachERNS_8IVisitorIS6_EEEUlSK_E_E7OnValueESK_,"axG",@progbits,_ZN8opendnp314FunctorVisitorINS_7IndexedINS_12Group121Var1EEEZNKS_21TransformedCollectionIS3_NS1_INS_12SecurityStatEEEZNS_18MeasurementHandler25LoadValuesWithTransformToIS5_S2_EENS_8IINFieldERKNS_12HeaderRecordERKNS_11ICollectionINS1_IT0_EEEEEUlRKS3_E_E7ForeachERNS_8IVisitorIS6_EEEUlSK_E_E7OnValueESK_,comdat
	.align 2
	.p2align 4
	.weak	_ZN8opendnp314FunctorVisitorINS_7IndexedINS_12Group121Var1EEEZNKS_21TransformedCollectionIS3_NS1_INS_12SecurityStatEEEZNS_18MeasurementHandler25LoadValuesWithTransformToIS5_S2_EENS_8IINFieldERKNS_12HeaderRecordERKNS_11ICollectionINS1_IT0_EEEEEUlRKS3_E_E7ForeachERNS_8IVisitorIS6_EEEUlSK_E_E7OnValueESK_
	.type	_ZN8opendnp314FunctorVisitorINS_7IndexedINS_12Group121Var1EEEZNKS_21TransformedCollectionIS3_NS1_INS_12SecurityStatEEEZNS_18MeasurementHandler25LoadValuesWithTransformToIS5_S2_EENS_8IINFieldERKNS_12HeaderRecordERKNS_11ICollectionINS1_IT0_EEEEEUlRKS3_E_E7ForeachERNS_8IVisitorIS6_EEEUlSK_E_E7OnValueESK_, @function
_ZN8opendnp314FunctorVisitorINS_7IndexedINS_12Group121Var1EEEZNKS_21TransformedCollectionIS3_NS1_INS_12SecurityStatEEEZNS_18MeasurementHandler25LoadValuesWithTransformToIS5_S2_EENS_8IINFieldERKNS_12HeaderRecordERKNS_11ICollectionINS1_IT0_EEEEEUlRKS3_E_E7ForeachERNS_8IVisitorIS6_EEEUlSK_E_E7OnValueESK_:
.LFB3339:
	.cfi_startproc
	endbr64
	pushq	%r12
	.cfi_def_cfa_offset 16
	.cfi_offset 12, -16
	pushq	%rbp
	.cfi_def_cfa_offset 24
	.cfi_offset 6, -24
	pushq	%rbx
	.cfi_def_cfa_offset 32
	.cfi_offset 3, -32
	subq	$80, %rsp
	.cfi_def_cfa_offset 112
	movq	16(%rdi), %rbp
	movzwl	8(%rsi), %r12d
	movq	%fs:40, %rax
	movq	%rax, 72(%rsp)
	xorl	%eax, %eax
	movq	%rsp, %rdi
	movq	0(%rbp), %rax
	movq	(%rax), %rbx
	call	_ZN8opendnp318MeasurementHandler7ConvertERKNS_12Group121Var1E@PLT
	movq	16(%rsp), %rax
	movdqa	(%rsp), %xmm0
	movq	%rbp, %rdi
	movw	%r12w, 56(%rsp)
	leaq	32(%rsp), %rsi
	movq	%rax, 48(%rsp)
	movaps	%xmm0, 32(%rsp)
	call	*%rbx
	movq	72(%rsp), %rax
	subq	%fs:40, %rax
	jne	.L304
	addq	$80, %rsp
	.cfi_remember_state
	.cfi_def_cfa_offset 32
	popq	%rbx
	.cfi_def_cfa_offset 24
	popq	%rbp
	.cfi_def_cfa_offset 16
	popq	%r12
	.cfi_def_cfa_offset 8
	ret
.L304:
	.cfi_restore_state
	call	__stack_chk_fail@PLT
	.cfi_endproc
.LFE3339:
	.size	_ZN8opendnp314FunctorVisitorINS_7IndexedINS_12Group121Var1EEEZNKS_21TransformedCollectionIS3_NS1_INS_12SecurityStatEEEZNS_18MeasurementHandler25LoadValuesWithTransformToIS5_S2_EENS_8IINFieldERKNS_12HeaderRecordERKNS_11ICollectionINS1_IT0_EEEEEUlRKS3_E_E7ForeachERNS_8IVisitorIS6_EEEUlSK_E_E7OnValueESK_, .-_ZN8opendnp314FunctorVisitorINS_7IndexedINS_12Group121Var1EEEZNKS_21TransformedCollectionIS3_NS1_INS_12SecurityStatEEEZNS_18MeasurementHandler25LoadValuesWithTransformToIS5_S2_EENS_8IINFieldERKNS_12HeaderRecordERKNS_11ICollectionINS1_IT0_EEEEEUlRKS3_E_E7ForeachERNS_8IVisitorIS6_EEEUlSK_E_E7OnValueESK_
	.text
	.align 2
	.p2align 4
	.globl	_ZN8opendnp318MeasurementHandler7ConvertERKNS_12Group122Var1E
	.type	_ZN8opendnp318MeasurementHandler7ConvertERKNS_12Group122Var1E, @function
_ZN8opendnp318MeasurementHandler7ConvertERKNS_12Group122Var1E:
.LFB2470:
	.cfi_startproc
	endbr64
	pushq	%r12
	.cfi_def_cfa_offset 16
	.cfi_offset 12, -16
	movl	4(%rsi), %ecx
	movq	%rdi, %r12
	movzwl	2(%rsi), %edx
	movzbl	(%rsi), %esi
	call	_ZN8opendnp312SecurityStatC1Ehtj@PLT
	movq	%r12, %rax
	popq	%r12
	.cfi_def_cfa_offset 8
	ret
	.cfi_endproc
.LFE2470:
	.size	_ZN8opendnp318MeasurementHandler7ConvertERKNS_12Group122Var1E, .-_ZN8opendnp318MeasurementHandler7ConvertERKNS_12Group122Var1E
	.section	.text._ZN8opendnp314FunctorVisitorINS_7IndexedINS_12Group122Var1EEEZNKS_21TransformedCollectionIS3_NS1_INS_12SecurityStatEEEZNS_18MeasurementHandler25LoadValuesWithTransformToIS5_S2_EENS_8IINFieldERKNS_12HeaderRecordERKNS_11ICollectionINS1_IT0_EEEEEUlRKS3_E_E7ForeachERNS_8IVisitorIS6_EEEUlSK_E_E7OnValueESK_,"axG",@progbits,_ZN8opendnp314FunctorVisitorINS_7IndexedINS_12Group122Var1EEEZNKS_21TransformedCollectionIS3_NS1_INS_12SecurityStatEEEZNS_18MeasurementHandler25LoadValuesWithTransformToIS5_S2_EENS_8IINFieldERKNS_12HeaderRecordERKNS_11ICollectionINS1_IT0_EEEEEUlRKS3_E_E7ForeachERNS_8IVisitorIS6_EEEUlSK_E_E7OnValueESK_,comdat
	.align 2
	.p2align 4
	.weak	_ZN8opendnp314FunctorVisitorINS_7IndexedINS_12Group122Var1EEEZNKS_21TransformedCollectionIS3_NS1_INS_12SecurityStatEEEZNS_18MeasurementHandler25LoadValuesWithTransformToIS5_S2_EENS_8IINFieldERKNS_12HeaderRecordERKNS_11ICollectionINS1_IT0_EEEEEUlRKS3_E_E7ForeachERNS_8IVisitorIS6_EEEUlSK_E_E7OnValueESK_
	.type	_ZN8opendnp314FunctorVisitorINS_7IndexedINS_12Group122Var1EEEZNKS_21TransformedCollectionIS3_NS1_INS_12SecurityStatEEEZNS_18MeasurementHandler25LoadValuesWithTransformToIS5_S2_EENS_8IINFieldERKNS_12HeaderRecordERKNS_11ICollectionINS1_IT0_EEEEEUlRKS3_E_E7ForeachERNS_8IVisitorIS6_EEEUlSK_E_E7OnValueESK_, @function
_ZN8opendnp314FunctorVisitorINS_7IndexedINS_12Group122Var1EEEZNKS_21TransformedCollectionIS3_NS1_INS_12SecurityStatEEEZNS_18MeasurementHandler25LoadValuesWithTransformToIS5_S2_EENS_8IINFieldERKNS_12HeaderRecordERKNS_11ICollectionINS1_IT0_EEEEEUlRKS3_E_E7ForeachERNS_8IVisitorIS6_EEEUlSK_E_E7OnValueESK_:
.LFB3342:
	.cfi_startproc
	endbr64
	pushq	%r12
	.cfi_def_cfa_offset 16
	.cfi_offset 12, -16
	pushq	%rbp
	.cfi_def_cfa_offset 24
	.cfi_offset 6, -24
	pushq	%rbx
	.cfi_def_cfa_offset 32
	.cfi_offset 3, -32
	subq	$80, %rsp
	.cfi_def_cfa_offset 112
	movq	16(%rdi), %rbp
	movzwl	8(%rsi), %r12d
	movq	%fs:40, %rax
	movq	%rax, 72(%rsp)
	xorl	%eax, %eax
	movq	%rsp, %rdi
	movq	0(%rbp), %rax
	movq	(%rax), %rbx
	call	_ZN8opendnp318MeasurementHandler7ConvertERKNS_12Group122Var1E@PLT
	movq	16(%rsp), %rax
	movdqa	(%rsp), %xmm0
	movq	%rbp, %rdi
	movw	%r12w, 56(%rsp)
	leaq	32(%rsp), %rsi
	movq	%rax, 48(%rsp)
	movaps	%xmm0, 32(%rsp)
	call	*%rbx
	movq	72(%rsp), %rax
	subq	%fs:40, %rax
	jne	.L310
	addq	$80, %rsp
	.cfi_remember_state
	.cfi_def_cfa_offset 32
	popq	%rbx
	.cfi_def_cfa_offset 24
	popq	%rbp
	.cfi_def_cfa_offset 16
	popq	%r12
	.cfi_def_cfa_offset 8
	ret
.L310:
	.cfi_restore_state
	call	__stack_chk_fail@PLT
	.cfi_endproc
.LFE3342:
	.size	_ZN8opendnp314FunctorVisitorINS_7IndexedINS_12Group122Var1EEEZNKS_21TransformedCollectionIS3_NS1_INS_12SecurityStatEEEZNS_18MeasurementHandler25LoadValuesWithTransformToIS5_S2_EENS_8IINFieldERKNS_12HeaderRecordERKNS_11ICollectionINS1_IT0_EEEEEUlRKS3_E_E7ForeachERNS_8IVisitorIS6_EEEUlSK_E_E7OnValueESK_, .-_ZN8opendnp314FunctorVisitorINS_7IndexedINS_12Group122Var1EEEZNKS_21TransformedCollectionIS3_NS1_INS_12SecurityStatEEEZNS_18MeasurementHandler25LoadValuesWithTransformToIS5_S2_EENS_8IINFieldERKNS_12HeaderRecordERKNS_11ICollectionINS1_IT0_EEEEEUlRKS3_E_E7ForeachERNS_8IVisitorIS6_EEEUlSK_E_E7OnValueESK_
	.text
	.align 2
	.p2align 4
	.globl	_ZN8opendnp318MeasurementHandler7ConvertERKNS_12Group122Var2E
	.type	_ZN8opendnp318MeasurementHandler7ConvertERKNS_12Group122Var2E, @function
_ZN8opendnp318MeasurementHandler7ConvertERKNS_12Group122Var2E:
.LFB2471:
	.cfi_startproc
	endbr64
	pushq	%r12
	.cfi_def_cfa_offset 16
	.cfi_offset 12, -16
	movzbl	(%rsi), %r9d
	movq	%rdi, %r12
	movl	4(%rsi), %ecx
	movzwl	2(%rsi), %edx
	movq	8(%rsi), %r8
	movl	%r9d, %esi
	call	_ZN8opendnp312SecurityStatC1EhtjN7openpal10UInt48TypeE@PLT
	movq	%r12, %rax
	popq	%r12
	.cfi_def_cfa_offset 8
	ret
	.cfi_endproc
.LFE2471:
	.size	_ZN8opendnp318MeasurementHandler7ConvertERKNS_12Group122Var2E, .-_ZN8opendnp318MeasurementHandler7ConvertERKNS_12Group122Var2E
	.section	.text._ZN8opendnp314FunctorVisitorINS_7IndexedINS_12Group122Var2EEEZNKS_21TransformedCollectionIS3_NS1_INS_12SecurityStatEEEZNS_18MeasurementHandler25LoadValuesWithTransformToIS5_S2_EENS_8IINFieldERKNS_12HeaderRecordERKNS_11ICollectionINS1_IT0_EEEEEUlRKS3_E_E7ForeachERNS_8IVisitorIS6_EEEUlSK_E_E7OnValueESK_,"axG",@progbits,_ZN8opendnp314FunctorVisitorINS_7IndexedINS_12Group122Var2EEEZNKS_21TransformedCollectionIS3_NS1_INS_12SecurityStatEEEZNS_18MeasurementHandler25LoadValuesWithTransformToIS5_S2_EENS_8IINFieldERKNS_12HeaderRecordERKNS_11ICollectionINS1_IT0_EEEEEUlRKS3_E_E7ForeachERNS_8IVisitorIS6_EEEUlSK_E_E7OnValueESK_,comdat
	.align 2
	.p2align 4
	.weak	_ZN8opendnp314FunctorVisitorINS_7IndexedINS_12Group122Var2EEEZNKS_21TransformedCollectionIS3_NS1_INS_12SecurityStatEEEZNS_18MeasurementHandler25LoadValuesWithTransformToIS5_S2_EENS_8IINFieldERKNS_12HeaderRecordERKNS_11ICollectionINS1_IT0_EEEEEUlRKS3_E_E7ForeachERNS_8IVisitorIS6_EEEUlSK_E_E7OnValueESK_
	.type	_ZN8opendnp314FunctorVisitorINS_7IndexedINS_12Group122Var2EEEZNKS_21TransformedCollectionIS3_NS1_INS_12SecurityStatEEEZNS_18MeasurementHandler25LoadValuesWithTransformToIS5_S2_EENS_8IINFieldERKNS_12HeaderRecordERKNS_11ICollectionINS1_IT0_EEEEEUlRKS3_E_E7ForeachERNS_8IVisitorIS6_EEEUlSK_E_E7OnValueESK_, @function
_ZN8opendnp314FunctorVisitorINS_7IndexedINS_12Group122Var2EEEZNKS_21TransformedCollectionIS3_NS1_INS_12SecurityStatEEEZNS_18MeasurementHandler25LoadValuesWithTransformToIS5_S2_EENS_8IINFieldERKNS_12HeaderRecordERKNS_11ICollectionINS1_IT0_EEEEEUlRKS3_E_E7ForeachERNS_8IVisitorIS6_EEEUlSK_E_E7OnValueESK_:
.LFB3343:
	.cfi_startproc
	endbr64
	pushq	%r12
	.cfi_def_cfa_offset 16
	.cfi_offset 12, -16
	pushq	%rbp
	.cfi_def_cfa_offset 24
	.cfi_offset 6, -24
	pushq	%rbx
	.cfi_def_cfa_offset 32
	.cfi_offset 3, -32
	subq	$80, %rsp
	.cfi_def_cfa_offset 112
	movq	16(%rdi), %rbp
	movzwl	16(%rsi), %r12d
	movq	%fs:40, %rax
	movq	%rax, 72(%rsp)
	xorl	%eax, %eax
	movq	%rsp, %rdi
	movq	0(%rbp), %rax
	movq	(%rax), %rbx
	call	_ZN8opendnp318MeasurementHandler7ConvertERKNS_12Group122Var2E@PLT
	movq	16(%rsp), %rax
	movdqa	(%rsp), %xmm0
	movq	%rbp, %rdi
	movw	%r12w, 56(%rsp)
	leaq	32(%rsp), %rsi
	movq	%rax, 48(%rsp)
	movaps	%xmm0, 32(%rsp)
	call	*%rbx
	movq	72(%rsp), %rax
	subq	%fs:40, %rax
	jne	.L316
	addq	$80, %rsp
	.cfi_remember_state
	.cfi_def_cfa_offset 32
	popq	%rbx
	.cfi_def_cfa_offset 24
	popq	%rbp
	.cfi_def_cfa_offset 16
	popq	%r12
	.cfi_def_cfa_offset 8
	ret
.L316:
	.cfi_restore_state
	call	__stack_chk_fail@PLT
	.cfi_endproc
.LFE3343:
	.size	_ZN8opendnp314FunctorVisitorINS_7IndexedINS_12Group122Var2EEEZNKS_21TransformedCollectionIS3_NS1_INS_12SecurityStatEEEZNS_18MeasurementHandler25LoadValuesWithTransformToIS5_S2_EENS_8IINFieldERKNS_12HeaderRecordERKNS_11ICollectionINS1_IT0_EEEEEUlRKS3_E_E7ForeachERNS_8IVisitorIS6_EEEUlSK_E_E7OnValueESK_, .-_ZN8opendnp314FunctorVisitorINS_7IndexedINS_12Group122Var2EEEZNKS_21TransformedCollectionIS3_NS1_INS_12SecurityStatEEEZNS_18MeasurementHandler25LoadValuesWithTransformToIS5_S2_EENS_8IINFieldERKNS_12HeaderRecordERKNS_11ICollectionINS1_IT0_EEEEEUlRKS3_E_E7ForeachERNS_8IVisitorIS6_EEEUlSK_E_E7OnValueESK_
	.weak	_ZTSN8opendnp38IVisitorINS_7IndexedINS_15DoubleBitBinaryEEEEE
	.section	.rodata._ZTSN8opendnp38IVisitorINS_7IndexedINS_15DoubleBitBinaryEEEEE,"aG",@progbits,_ZTSN8opendnp38IVisitorINS_7IndexedINS_15DoubleBitBinaryEEEEE,comdat
	.align 32
	.type	_ZTSN8opendnp38IVisitorINS_7IndexedINS_15DoubleBitBinaryEEEEE, @object
	.size	_ZTSN8opendnp38IVisitorINS_7IndexedINS_15DoubleBitBinaryEEEEE, 58
_ZTSN8opendnp38IVisitorINS_7IndexedINS_15DoubleBitBinaryEEEEE:
	.string	"N8opendnp38IVisitorINS_7IndexedINS_15DoubleBitBinaryEEEEE"
	.weak	_ZTIN8opendnp38IVisitorINS_7IndexedINS_15DoubleBitBinaryEEEEE
	.section	.data.rel.ro._ZTIN8opendnp38IVisitorINS_7IndexedINS_15DoubleBitBinaryEEEEE,"awG",@progbits,_ZTIN8opendnp38IVisitorINS_7IndexedINS_15DoubleBitBinaryEEEEE,comdat
	.align 8
	.type	_ZTIN8opendnp38IVisitorINS_7IndexedINS_15DoubleBitBinaryEEEEE, @object
	.size	_ZTIN8opendnp38IVisitorINS_7IndexedINS_15DoubleBitBinaryEEEEE, 16
_ZTIN8opendnp38IVisitorINS_7IndexedINS_15DoubleBitBinaryEEEEE:
	.quad	_ZTVN10__cxxabiv117__class_type_infoE+16
	.quad	_ZTSN8opendnp38IVisitorINS_7IndexedINS_15DoubleBitBinaryEEEEE
	.weak	_ZTSN8opendnp38IVisitorINS_7IndexedINS_6BinaryEEEEE
	.section	.rodata._ZTSN8opendnp38IVisitorINS_7IndexedINS_6BinaryEEEEE,"aG",@progbits,_ZTSN8opendnp38IVisitorINS_7IndexedINS_6BinaryEEEEE,comdat
	.align 32
	.type	_ZTSN8opendnp38IVisitorINS_7IndexedINS_6BinaryEEEEE, @object
	.size	_ZTSN8opendnp38IVisitorINS_7IndexedINS_6BinaryEEEEE, 48
_ZTSN8opendnp38IVisitorINS_7IndexedINS_6BinaryEEEEE:
	.string	"N8opendnp38IVisitorINS_7IndexedINS_6BinaryEEEEE"
	.weak	_ZTIN8opendnp38IVisitorINS_7IndexedINS_6BinaryEEEEE
	.section	.data.rel.ro._ZTIN8opendnp38IVisitorINS_7IndexedINS_6BinaryEEEEE,"awG",@progbits,_ZTIN8opendnp38IVisitorINS_7IndexedINS_6BinaryEEEEE,comdat
	.align 8
	.type	_ZTIN8opendnp38IVisitorINS_7IndexedINS_6BinaryEEEEE, @object
	.size	_ZTIN8opendnp38IVisitorINS_7IndexedINS_6BinaryEEEEE, 16
_ZTIN8opendnp38IVisitorINS_7IndexedINS_6BinaryEEEEE:
	.quad	_ZTVN10__cxxabiv117__class_type_infoE+16
	.quad	_ZTSN8opendnp38IVisitorINS_7IndexedINS_6BinaryEEEEE
	.weak	_ZTSN8opendnp38IVisitorINS_7IndexedINS_12Group122Var2EEEEE
	.section	.rodata._ZTSN8opendnp38IVisitorINS_7IndexedINS_12Group122Var2EEEEE,"aG",@progbits,_ZTSN8opendnp38IVisitorINS_7IndexedINS_12Group122Var2EEEEE,comdat
	.align 32
	.type	_ZTSN8opendnp38IVisitorINS_7IndexedINS_12Group122Var2EEEEE, @object
	.size	_ZTSN8opendnp38IVisitorINS_7IndexedINS_12Group122Var2EEEEE, 55
_ZTSN8opendnp38IVisitorINS_7IndexedINS_12Group122Var2EEEEE:
	.string	"N8opendnp38IVisitorINS_7IndexedINS_12Group122Var2EEEEE"
	.weak	_ZTIN8opendnp38IVisitorINS_7IndexedINS_12Group122Var2EEEEE
	.section	.data.rel.ro._ZTIN8opendnp38IVisitorINS_7IndexedINS_12Group122Var2EEEEE,"awG",@progbits,_ZTIN8opendnp38IVisitorINS_7IndexedINS_12Group122Var2EEEEE,comdat
	.align 8
	.type	_ZTIN8opendnp38IVisitorINS_7IndexedINS_12Group122Var2EEEEE, @object
	.size	_ZTIN8opendnp38IVisitorINS_7IndexedINS_12Group122Var2EEEEE, 16
_ZTIN8opendnp38IVisitorINS_7IndexedINS_12Group122Var2EEEEE:
	.quad	_ZTVN10__cxxabiv117__class_type_infoE+16
	.quad	_ZTSN8opendnp38IVisitorINS_7IndexedINS_12Group122Var2EEEEE
	.weak	_ZTSN8opendnp314FunctorVisitorINS_7IndexedINS_12Group122Var2EEEZNKS_21TransformedCollectionIS3_NS1_INS_12SecurityStatEEEZNS_18MeasurementHandler25LoadValuesWithTransformToIS5_S2_EENS_8IINFieldERKNS_12HeaderRecordERKNS_11ICollectionINS1_IT0_EEEEEUlRKS3_E_E7ForeachERNS_8IVisitorIS6_EEEUlSK_E_EE
	.section	.rodata._ZTSN8opendnp314FunctorVisitorINS_7IndexedINS_12Group122Var2EEEZNKS_21TransformedCollectionIS3_NS1_INS_12SecurityStatEEEZNS_18MeasurementHandler25LoadValuesWithTransformToIS5_S2_EENS_8IINFieldERKNS_12HeaderRecordERKNS_11ICollectionINS1_IT0_EEEEEUlRKS3_E_E7ForeachERNS_8IVisitorIS6_EEEUlSK_E_EE,"aG",@progbits,_ZTSN8opendnp314FunctorVisitorINS_7IndexedINS_12Group122Var2EEEZNKS_21TransformedCollectionIS3_NS1_INS_12SecurityStatEEEZNS_18MeasurementHandler25LoadValuesWithTransformToIS5_S2_EENS_8IINFieldERKNS_12HeaderRecordERKNS_11ICollectionINS1_IT0_EEEEEUlRKS3_E_E7ForeachERNS_8IVisitorIS6_EEEUlSK_E_EE,comdat
	.align 32
	.type	_ZTSN8opendnp314FunctorVisitorINS_7IndexedINS_12Group122Var2EEEZNKS_21TransformedCollectionIS3_NS1_INS_12SecurityStatEEEZNS_18MeasurementHandler25LoadValuesWithTransformToIS5_S2_EENS_8IINFieldERKNS_12HeaderRecordERKNS_11ICollectionINS1_IT0_EEEEEUlRKS3_E_E7ForeachERNS_8IVisitorIS6_EEEUlSK_E_EE, @object
	.size	_ZTSN8opendnp314FunctorVisitorINS_7IndexedINS_12Group122Var2EEEZNKS_21TransformedCollectionIS3_NS1_INS_12SecurityStatEEEZNS_18MeasurementHandler25LoadValuesWithTransformToIS5_S2_EENS_8IINFieldERKNS_12HeaderRecordERKNS_11ICollectionINS1_IT0_EEEEEUlRKS3_E_E7ForeachERNS_8IVisitorIS6_EEEUlSK_E_EE, 290
_ZTSN8opendnp314FunctorVisitorINS_7IndexedINS_12Group122Var2EEEZNKS_21TransformedCollectionIS3_NS1_INS_12SecurityStatEEEZNS_18MeasurementHandler25LoadValuesWithTransformToIS5_S2_EENS_8IINFieldERKNS_12HeaderRecordERKNS_11ICollectionINS1_IT0_EEEEEUlRKS3_E_E7ForeachERNS_8IVisitorIS6_EEEUlSK_E_EE:
	.ascii	"N8opendnp314FunctorVisitorINS_7In"
	.string	"dexedINS_12Group122Var2EEEZNKS_21TransformedCollectionIS3_NS1_INS_12SecurityStatEEEZNS_18MeasurementHandler25LoadValuesWithTransformToIS5_S2_EENS_8IINFieldERKNS_12HeaderRecordERKNS_11ICollectionINS1_IT0_EEEEEUlRKS3_E_E7ForeachERNS_8IVisitorIS6_EEEUlSK_E_EE"
	.weak	_ZTIN8opendnp314FunctorVisitorINS_7IndexedINS_12Group122Var2EEEZNKS_21TransformedCollectionIS3_NS1_INS_12SecurityStatEEEZNS_18MeasurementHandler25LoadValuesWithTransformToIS5_S2_EENS_8IINFieldERKNS_12HeaderRecordERKNS_11ICollectionINS1_IT0_EEEEEUlRKS3_E_E7ForeachERNS_8IVisitorIS6_EEEUlSK_E_EE
	.section	.data.rel.ro._ZTIN8opendnp314FunctorVisitorINS_7IndexedINS_12Group122Var2EEEZNKS_21TransformedCollectionIS3_NS1_INS_12SecurityStatEEEZNS_18MeasurementHandler25LoadValuesWithTransformToIS5_S2_EENS_8IINFieldERKNS_12HeaderRecordERKNS_11ICollectionINS1_IT0_EEEEEUlRKS3_E_E7ForeachERNS_8IVisitorIS6_EEEUlSK_E_EE,"awG",@progbits,_ZTIN8opendnp314FunctorVisitorINS_7IndexedINS_12Group122Var2EEEZNKS_21TransformedCollectionIS3_NS1_INS_12SecurityStatEEEZNS_18MeasurementHandler25LoadValuesWithTransformToIS5_S2_EENS_8IINFieldERKNS_12HeaderRecordERKNS_11ICollectionINS1_IT0_EEEEEUlRKS3_E_E7ForeachERNS_8IVisitorIS6_EEEUlSK_E_EE,comdat
	.align 8
	.type	_ZTIN8opendnp314FunctorVisitorINS_7IndexedINS_12Group122Var2EEEZNKS_21TransformedCollectionIS3_NS1_INS_12SecurityStatEEEZNS_18MeasurementHandler25LoadValuesWithTransformToIS5_S2_EENS_8IINFieldERKNS_12HeaderRecordERKNS_11ICollectionINS1_IT0_EEEEEUlRKS3_E_E7ForeachERNS_8IVisitorIS6_EEEUlSK_E_EE, @object
	.size	_ZTIN8opendnp314FunctorVisitorINS_7IndexedINS_12Group122Var2EEEZNKS_21TransformedCollectionIS3_NS1_INS_12SecurityStatEEEZNS_18MeasurementHandler25LoadValuesWithTransformToIS5_S2_EENS_8IINFieldERKNS_12HeaderRecordERKNS_11ICollectionINS1_IT0_EEEEEUlRKS3_E_E7ForeachERNS_8IVisitorIS6_EEEUlSK_E_EE, 24
_ZTIN8opendnp314FunctorVisitorINS_7IndexedINS_12Group122Var2EEEZNKS_21TransformedCollectionIS3_NS1_INS_12SecurityStatEEEZNS_18MeasurementHandler25LoadValuesWithTransformToIS5_S2_EENS_8IINFieldERKNS_12HeaderRecordERKNS_11ICollectionINS1_IT0_EEEEEUlRKS3_E_E7ForeachERNS_8IVisitorIS6_EEEUlSK_E_EE:
	.quad	_ZTVN10__cxxabiv120__si_class_type_infoE+16
	.quad	_ZTSN8opendnp314FunctorVisitorINS_7IndexedINS_12Group122Var2EEEZNKS_21TransformedCollectionIS3_NS1_INS_12SecurityStatEEEZNS_18MeasurementHandler25LoadValuesWithTransformToIS5_S2_EENS_8IINFieldERKNS_12HeaderRecordERKNS_11ICollectionINS1_IT0_EEEEEUlRKS3_E_E7ForeachERNS_8IVisitorIS6_EEEUlSK_E_EE
	.quad	_ZTIN8opendnp38IVisitorINS_7IndexedINS_12Group122Var2EEEEE
	.weak	_ZTSN8opendnp38IVisitorINS_7IndexedINS_12Group122Var1EEEEE
	.section	.rodata._ZTSN8opendnp38IVisitorINS_7IndexedINS_12Group122Var1EEEEE,"aG",@progbits,_ZTSN8opendnp38IVisitorINS_7IndexedINS_12Group122Var1EEEEE,comdat
	.align 32
	.type	_ZTSN8opendnp38IVisitorINS_7IndexedINS_12Group122Var1EEEEE, @object
	.size	_ZTSN8opendnp38IVisitorINS_7IndexedINS_12Group122Var1EEEEE, 55
_ZTSN8opendnp38IVisitorINS_7IndexedINS_12Group122Var1EEEEE:
	.string	"N8opendnp38IVisitorINS_7IndexedINS_12Group122Var1EEEEE"
	.weak	_ZTIN8opendnp38IVisitorINS_7IndexedINS_12Group122Var1EEEEE
	.section	.data.rel.ro._ZTIN8opendnp38IVisitorINS_7IndexedINS_12Group122Var1EEEEE,"awG",@progbits,_ZTIN8opendnp38IVisitorINS_7IndexedINS_12Group122Var1EEEEE,comdat
	.align 8
	.type	_ZTIN8opendnp38IVisitorINS_7IndexedINS_12Group122Var1EEEEE, @object
	.size	_ZTIN8opendnp38IVisitorINS_7IndexedINS_12Group122Var1EEEEE, 16
_ZTIN8opendnp38IVisitorINS_7IndexedINS_12Group122Var1EEEEE:
	.quad	_ZTVN10__cxxabiv117__class_type_infoE+16
	.quad	_ZTSN8opendnp38IVisitorINS_7IndexedINS_12Group122Var1EEEEE
	.weak	_ZTSN8opendnp314FunctorVisitorINS_7IndexedINS_12Group122Var1EEEZNKS_21TransformedCollectionIS3_NS1_INS_12SecurityStatEEEZNS_18MeasurementHandler25LoadValuesWithTransformToIS5_S2_EENS_8IINFieldERKNS_12HeaderRecordERKNS_11ICollectionINS1_IT0_EEEEEUlRKS3_E_E7ForeachERNS_8IVisitorIS6_EEEUlSK_E_EE
	.section	.rodata._ZTSN8opendnp314FunctorVisitorINS_7IndexedINS_12Group122Var1EEEZNKS_21TransformedCollectionIS3_NS1_INS_12SecurityStatEEEZNS_18MeasurementHandler25LoadValuesWithTransformToIS5_S2_EENS_8IINFieldERKNS_12HeaderRecordERKNS_11ICollectionINS1_IT0_EEEEEUlRKS3_E_E7ForeachERNS_8IVisitorIS6_EEEUlSK_E_EE,"aG",@progbits,_ZTSN8opendnp314FunctorVisitorINS_7IndexedINS_12Group122Var1EEEZNKS_21TransformedCollectionIS3_NS1_INS_12SecurityStatEEEZNS_18MeasurementHandler25LoadValuesWithTransformToIS5_S2_EENS_8IINFieldERKNS_12HeaderRecordERKNS_11ICollectionINS1_IT0_EEEEEUlRKS3_E_E7ForeachERNS_8IVisitorIS6_EEEUlSK_E_EE,comdat
	.align 32
	.type	_ZTSN8opendnp314FunctorVisitorINS_7IndexedINS_12Group122Var1EEEZNKS_21TransformedCollectionIS3_NS1_INS_12SecurityStatEEEZNS_18MeasurementHandler25LoadValuesWithTransformToIS5_S2_EENS_8IINFieldERKNS_12HeaderRecordERKNS_11ICollectionINS1_IT0_EEEEEUlRKS3_E_E7ForeachERNS_8IVisitorIS6_EEEUlSK_E_EE, @object
	.size	_ZTSN8opendnp314FunctorVisitorINS_7IndexedINS_12Group122Var1EEEZNKS_21TransformedCollectionIS3_NS1_INS_12SecurityStatEEEZNS_18MeasurementHandler25LoadValuesWithTransformToIS5_S2_EENS_8IINFieldERKNS_12HeaderRecordERKNS_11ICollectionINS1_IT0_EEEEEUlRKS3_E_E7ForeachERNS_8IVisitorIS6_EEEUlSK_E_EE, 290
_ZTSN8opendnp314FunctorVisitorINS_7IndexedINS_12Group122Var1EEEZNKS_21TransformedCollectionIS3_NS1_INS_12SecurityStatEEEZNS_18MeasurementHandler25LoadValuesWithTransformToIS5_S2_EENS_8IINFieldERKNS_12HeaderRecordERKNS_11ICollectionINS1_IT0_EEEEEUlRKS3_E_E7ForeachERNS_8IVisitorIS6_EEEUlSK_E_EE:
	.ascii	"N8opendnp314FunctorVisitorINS_7In"
	.string	"dexedINS_12Group122Var1EEEZNKS_21TransformedCollectionIS3_NS1_INS_12SecurityStatEEEZNS_18MeasurementHandler25LoadValuesWithTransformToIS5_S2_EENS_8IINFieldERKNS_12HeaderRecordERKNS_11ICollectionINS1_IT0_EEEEEUlRKS3_E_E7ForeachERNS_8IVisitorIS6_EEEUlSK_E_EE"
	.weak	_ZTIN8opendnp314FunctorVisitorINS_7IndexedINS_12Group122Var1EEEZNKS_21TransformedCollectionIS3_NS1_INS_12SecurityStatEEEZNS_18MeasurementHandler25LoadValuesWithTransformToIS5_S2_EENS_8IINFieldERKNS_12HeaderRecordERKNS_11ICollectionINS1_IT0_EEEEEUlRKS3_E_E7ForeachERNS_8IVisitorIS6_EEEUlSK_E_EE
	.section	.data.rel.ro._ZTIN8opendnp314FunctorVisitorINS_7IndexedINS_12Group122Var1EEEZNKS_21TransformedCollectionIS3_NS1_INS_12SecurityStatEEEZNS_18MeasurementHandler25LoadValuesWithTransformToIS5_S2_EENS_8IINFieldERKNS_12HeaderRecordERKNS_11ICollectionINS1_IT0_EEEEEUlRKS3_E_E7ForeachERNS_8IVisitorIS6_EEEUlSK_E_EE,"awG",@progbits,_ZTIN8opendnp314FunctorVisitorINS_7IndexedINS_12Group122Var1EEEZNKS_21TransformedCollectionIS3_NS1_INS_12SecurityStatEEEZNS_18MeasurementHandler25LoadValuesWithTransformToIS5_S2_EENS_8IINFieldERKNS_12HeaderRecordERKNS_11ICollectionINS1_IT0_EEEEEUlRKS3_E_E7ForeachERNS_8IVisitorIS6_EEEUlSK_E_EE,comdat
	.align 8
	.type	_ZTIN8opendnp314FunctorVisitorINS_7IndexedINS_12Group122Var1EEEZNKS_21TransformedCollectionIS3_NS1_INS_12SecurityStatEEEZNS_18MeasurementHandler25LoadValuesWithTransformToIS5_S2_EENS_8IINFieldERKNS_12HeaderRecordERKNS_11ICollectionINS1_IT0_EEEEEUlRKS3_E_E7ForeachERNS_8IVisitorIS6_EEEUlSK_E_EE, @object
	.size	_ZTIN8opendnp314FunctorVisitorINS_7IndexedINS_12Group122Var1EEEZNKS_21TransformedCollectionIS3_NS1_INS_12SecurityStatEEEZNS_18MeasurementHandler25LoadValuesWithTransformToIS5_S2_EENS_8IINFieldERKNS_12HeaderRecordERKNS_11ICollectionINS1_IT0_EEEEEUlRKS3_E_E7ForeachERNS_8IVisitorIS6_EEEUlSK_E_EE, 24
_ZTIN8opendnp314FunctorVisitorINS_7IndexedINS_12Group122Var1EEEZNKS_21TransformedCollectionIS3_NS1_INS_12SecurityStatEEEZNS_18MeasurementHandler25LoadValuesWithTransformToIS5_S2_EENS_8IINFieldERKNS_12HeaderRecordERKNS_11ICollectionINS1_IT0_EEEEEUlRKS3_E_E7ForeachERNS_8IVisitorIS6_EEEUlSK_E_EE:
	.quad	_ZTVN10__cxxabiv120__si_class_type_infoE+16
	.quad	_ZTSN8opendnp314FunctorVisitorINS_7IndexedINS_12Group122Var1EEEZNKS_21TransformedCollectionIS3_NS1_INS_12SecurityStatEEEZNS_18MeasurementHandler25LoadValuesWithTransformToIS5_S2_EENS_8IINFieldERKNS_12HeaderRecordERKNS_11ICollectionINS1_IT0_EEEEEUlRKS3_E_E7ForeachERNS_8IVisitorIS6_EEEUlSK_E_EE
	.quad	_ZTIN8opendnp38IVisitorINS_7IndexedINS_12Group122Var1EEEEE
	.weak	_ZTSN8opendnp314FunctorVisitorINS_7IndexedINS_15DoubleBitBinaryEEEZNKS_21TransformedCollectionIS3_S3_ZNS_18MeasurementHandler14ProcessWithCTOIS2_EENS_8IINFieldERKNS_12HeaderRecordERKNS_11ICollectionINS1_IT_EEEEEUlRKS3_E_E7ForeachERNS_8IVisitorIS3_EEEUlSI_E_EE
	.section	.rodata._ZTSN8opendnp314FunctorVisitorINS_7IndexedINS_15DoubleBitBinaryEEEZNKS_21TransformedCollectionIS3_S3_ZNS_18MeasurementHandler14ProcessWithCTOIS2_EENS_8IINFieldERKNS_12HeaderRecordERKNS_11ICollectionINS1_IT_EEEEEUlRKS3_E_E7ForeachERNS_8IVisitorIS3_EEEUlSI_E_EE,"aG",@progbits,_ZTSN8opendnp314FunctorVisitorINS_7IndexedINS_15DoubleBitBinaryEEEZNKS_21TransformedCollectionIS3_S3_ZNS_18MeasurementHandler14ProcessWithCTOIS2_EENS_8IINFieldERKNS_12HeaderRecordERKNS_11ICollectionINS1_IT_EEEEEUlRKS3_E_E7ForeachERNS_8IVisitorIS3_EEEUlSI_E_EE,comdat
	.align 32
	.type	_ZTSN8opendnp314FunctorVisitorINS_7IndexedINS_15DoubleBitBinaryEEEZNKS_21TransformedCollectionIS3_S3_ZNS_18MeasurementHandler14ProcessWithCTOIS2_EENS_8IINFieldERKNS_12HeaderRecordERKNS_11ICollectionINS1_IT_EEEEEUlRKS3_E_E7ForeachERNS_8IVisitorIS3_EEEUlSI_E_EE, @object
	.size	_ZTSN8opendnp314FunctorVisitorINS_7IndexedINS_15DoubleBitBinaryEEEZNKS_21TransformedCollectionIS3_S3_ZNS_18MeasurementHandler14ProcessWithCTOIS2_EENS_8IINFieldERKNS_12HeaderRecordERKNS_11ICollectionINS1_IT_EEEEEUlRKS3_E_E7ForeachERNS_8IVisitorIS3_EEEUlSI_E_EE, 256
_ZTSN8opendnp314FunctorVisitorINS_7IndexedINS_15DoubleBitBinaryEEEZNKS_21TransformedCollectionIS3_S3_ZNS_18MeasurementHandler14ProcessWithCTOIS2_EENS_8IINFieldERKNS_12HeaderRecordERKNS_11ICollectionINS1_IT_EEEEEUlRKS3_E_E7ForeachERNS_8IVisitorIS3_EEEUlSI_E_EE:
	.string	"N8opendnp314FunctorVisitorINS_7IndexedINS_15DoubleBitBinaryEEEZNKS_21TransformedCollectionIS3_S3_ZNS_18MeasurementHandler14ProcessWithCTOIS2_EENS_8IINFieldERKNS_12HeaderRecordERKNS_11ICollectionINS1_IT_EEEEEUlRKS3_E_E7ForeachERNS_8IVisitorIS3_EEEUlSI_E_EE"
	.weak	_ZTIN8opendnp314FunctorVisitorINS_7IndexedINS_15DoubleBitBinaryEEEZNKS_21TransformedCollectionIS3_S3_ZNS_18MeasurementHandler14ProcessWithCTOIS2_EENS_8IINFieldERKNS_12HeaderRecordERKNS_11ICollectionINS1_IT_EEEEEUlRKS3_E_E7ForeachERNS_8IVisitorIS3_EEEUlSI_E_EE
	.section	.data.rel.ro._ZTIN8opendnp314FunctorVisitorINS_7IndexedINS_15DoubleBitBinaryEEEZNKS_21TransformedCollectionIS3_S3_ZNS_18MeasurementHandler14ProcessWithCTOIS2_EENS_8IINFieldERKNS_12HeaderRecordERKNS_11ICollectionINS1_IT_EEEEEUlRKS3_E_E7ForeachERNS_8IVisitorIS3_EEEUlSI_E_EE,"awG",@progbits,_ZTIN8opendnp314FunctorVisitorINS_7IndexedINS_15DoubleBitBinaryEEEZNKS_21TransformedCollectionIS3_S3_ZNS_18MeasurementHandler14ProcessWithCTOIS2_EENS_8IINFieldERKNS_12HeaderRecordERKNS_11ICollectionINS1_IT_EEEEEUlRKS3_E_E7ForeachERNS_8IVisitorIS3_EEEUlSI_E_EE,comdat
	.align 8
	.type	_ZTIN8opendnp314FunctorVisitorINS_7IndexedINS_15DoubleBitBinaryEEEZNKS_21TransformedCollectionIS3_S3_ZNS_18MeasurementHandler14ProcessWithCTOIS2_EENS_8IINFieldERKNS_12HeaderRecordERKNS_11ICollectionINS1_IT_EEEEEUlRKS3_E_E7ForeachERNS_8IVisitorIS3_EEEUlSI_E_EE, @object
	.size	_ZTIN8opendnp314FunctorVisitorINS_7IndexedINS_15DoubleBitBinaryEEEZNKS_21TransformedCollectionIS3_S3_ZNS_18MeasurementHandler14ProcessWithCTOIS2_EENS_8IINFieldERKNS_12HeaderRecordERKNS_11ICollectionINS1_IT_EEEEEUlRKS3_E_E7ForeachERNS_8IVisitorIS3_EEEUlSI_E_EE, 24
_ZTIN8opendnp314FunctorVisitorINS_7IndexedINS_15DoubleBitBinaryEEEZNKS_21TransformedCollectionIS3_S3_ZNS_18MeasurementHandler14ProcessWithCTOIS2_EENS_8IINFieldERKNS_12HeaderRecordERKNS_11ICollectionINS1_IT_EEEEEUlRKS3_E_E7ForeachERNS_8IVisitorIS3_EEEUlSI_E_EE:
	.quad	_ZTVN10__cxxabiv120__si_class_type_infoE+16
	.quad	_ZTSN8opendnp314FunctorVisitorINS_7IndexedINS_15DoubleBitBinaryEEEZNKS_21TransformedCollectionIS3_S3_ZNS_18MeasurementHandler14ProcessWithCTOIS2_EENS_8IINFieldERKNS_12HeaderRecordERKNS_11ICollectionINS1_IT_EEEEEUlRKS3_E_E7ForeachERNS_8IVisitorIS3_EEEUlSI_E_EE
	.quad	_ZTIN8opendnp38IVisitorINS_7IndexedINS_15DoubleBitBinaryEEEEE
	.weak	_ZTSN8opendnp314FunctorVisitorINS_7IndexedINS_6BinaryEEEZNKS_21TransformedCollectionIS3_S3_ZNS_18MeasurementHandler14ProcessWithCTOIS2_EENS_8IINFieldERKNS_12HeaderRecordERKNS_11ICollectionINS1_IT_EEEEEUlRKS3_E_E7ForeachERNS_8IVisitorIS3_EEEUlSI_E_EE
	.section	.rodata._ZTSN8opendnp314FunctorVisitorINS_7IndexedINS_6BinaryEEEZNKS_21TransformedCollectionIS3_S3_ZNS_18MeasurementHandler14ProcessWithCTOIS2_EENS_8IINFieldERKNS_12HeaderRecordERKNS_11ICollectionINS1_IT_EEEEEUlRKS3_E_E7ForeachERNS_8IVisitorIS3_EEEUlSI_E_EE,"aG",@progbits,_ZTSN8opendnp314FunctorVisitorINS_7IndexedINS_6BinaryEEEZNKS_21TransformedCollectionIS3_S3_ZNS_18MeasurementHandler14ProcessWithCTOIS2_EENS_8IINFieldERKNS_12HeaderRecordERKNS_11ICollectionINS1_IT_EEEEEUlRKS3_E_E7ForeachERNS_8IVisitorIS3_EEEUlSI_E_EE,comdat
	.align 32
	.type	_ZTSN8opendnp314FunctorVisitorINS_7IndexedINS_6BinaryEEEZNKS_21TransformedCollectionIS3_S3_ZNS_18MeasurementHandler14ProcessWithCTOIS2_EENS_8IINFieldERKNS_12HeaderRecordERKNS_11ICollectionINS1_IT_EEEEEUlRKS3_E_E7ForeachERNS_8IVisitorIS3_EEEUlSI_E_EE, @object
	.size	_ZTSN8opendnp314FunctorVisitorINS_7IndexedINS_6BinaryEEEZNKS_21TransformedCollectionIS3_S3_ZNS_18MeasurementHandler14ProcessWithCTOIS2_EENS_8IINFieldERKNS_12HeaderRecordERKNS_11ICollectionINS1_IT_EEEEEUlRKS3_E_E7ForeachERNS_8IVisitorIS3_EEEUlSI_E_EE, 246
_ZTSN8opendnp314FunctorVisitorINS_7IndexedINS_6BinaryEEEZNKS_21TransformedCollectionIS3_S3_ZNS_18MeasurementHandler14ProcessWithCTOIS2_EENS_8IINFieldERKNS_12HeaderRecordERKNS_11ICollectionINS1_IT_EEEEEUlRKS3_E_E7ForeachERNS_8IVisitorIS3_EEEUlSI_E_EE:
	.string	"N8opendnp314FunctorVisitorINS_7IndexedINS_6BinaryEEEZNKS_21TransformedCollectionIS3_S3_ZNS_18MeasurementHandler14ProcessWithCTOIS2_EENS_8IINFieldERKNS_12HeaderRecordERKNS_11ICollectionINS1_IT_EEEEEUlRKS3_E_E7ForeachERNS_8IVisitorIS3_EEEUlSI_E_EE"
	.weak	_ZTIN8opendnp314FunctorVisitorINS_7IndexedINS_6BinaryEEEZNKS_21TransformedCollectionIS3_S3_ZNS_18MeasurementHandler14ProcessWithCTOIS2_EENS_8IINFieldERKNS_12HeaderRecordERKNS_11ICollectionINS1_IT_EEEEEUlRKS3_E_E7ForeachERNS_8IVisitorIS3_EEEUlSI_E_EE
	.section	.data.rel.ro._ZTIN8opendnp314FunctorVisitorINS_7IndexedINS_6BinaryEEEZNKS_21TransformedCollectionIS3_S3_ZNS_18MeasurementHandler14ProcessWithCTOIS2_EENS_8IINFieldERKNS_12HeaderRecordERKNS_11ICollectionINS1_IT_EEEEEUlRKS3_E_E7ForeachERNS_8IVisitorIS3_EEEUlSI_E_EE,"awG",@progbits,_ZTIN8opendnp314FunctorVisitorINS_7IndexedINS_6BinaryEEEZNKS_21TransformedCollectionIS3_S3_ZNS_18MeasurementHandler14ProcessWithCTOIS2_EENS_8IINFieldERKNS_12HeaderRecordERKNS_11ICollectionINS1_IT_EEEEEUlRKS3_E_E7ForeachERNS_8IVisitorIS3_EEEUlSI_E_EE,comdat
	.align 8
	.type	_ZTIN8opendnp314FunctorVisitorINS_7IndexedINS_6BinaryEEEZNKS_21TransformedCollectionIS3_S3_ZNS_18MeasurementHandler14ProcessWithCTOIS2_EENS_8IINFieldERKNS_12HeaderRecordERKNS_11ICollectionINS1_IT_EEEEEUlRKS3_E_E7ForeachERNS_8IVisitorIS3_EEEUlSI_E_EE, @object
	.size	_ZTIN8opendnp314FunctorVisitorINS_7IndexedINS_6BinaryEEEZNKS_21TransformedCollectionIS3_S3_ZNS_18MeasurementHandler14ProcessWithCTOIS2_EENS_8IINFieldERKNS_12HeaderRecordERKNS_11ICollectionINS1_IT_EEEEEUlRKS3_E_E7ForeachERNS_8IVisitorIS3_EEEUlSI_E_EE, 24
_ZTIN8opendnp314FunctorVisitorINS_7IndexedINS_6BinaryEEEZNKS_21TransformedCollectionIS3_S3_ZNS_18MeasurementHandler14ProcessWithCTOIS2_EENS_8IINFieldERKNS_12HeaderRecordERKNS_11ICollectionINS1_IT_EEEEEUlRKS3_E_E7ForeachERNS_8IVisitorIS3_EEEUlSI_E_EE:
	.quad	_ZTVN10__cxxabiv120__si_class_type_infoE+16
	.quad	_ZTSN8opendnp314FunctorVisitorINS_7IndexedINS_6BinaryEEEZNKS_21TransformedCollectionIS3_S3_ZNS_18MeasurementHandler14ProcessWithCTOIS2_EENS_8IINFieldERKNS_12HeaderRecordERKNS_11ICollectionINS1_IT_EEEEEUlRKS3_E_E7ForeachERNS_8IVisitorIS3_EEEUlSI_E_EE
	.quad	_ZTIN8opendnp38IVisitorINS_7IndexedINS_6BinaryEEEEE
	.weak	_ZTSN8opendnp38IVisitorINS_7IndexedINS_12Group121Var1EEEEE
	.section	.rodata._ZTSN8opendnp38IVisitorINS_7IndexedINS_12Group121Var1EEEEE,"aG",@progbits,_ZTSN8opendnp38IVisitorINS_7IndexedINS_12Group121Var1EEEEE,comdat
	.align 32
	.type	_ZTSN8opendnp38IVisitorINS_7IndexedINS_12Group121Var1EEEEE, @object
	.size	_ZTSN8opendnp38IVisitorINS_7IndexedINS_12Group121Var1EEEEE, 55
_ZTSN8opendnp38IVisitorINS_7IndexedINS_12Group121Var1EEEEE:
	.string	"N8opendnp38IVisitorINS_7IndexedINS_12Group121Var1EEEEE"
	.weak	_ZTIN8opendnp38IVisitorINS_7IndexedINS_12Group121Var1EEEEE
	.section	.data.rel.ro._ZTIN8opendnp38IVisitorINS_7IndexedINS_12Group121Var1EEEEE,"awG",@progbits,_ZTIN8opendnp38IVisitorINS_7IndexedINS_12Group121Var1EEEEE,comdat
	.align 8
	.type	_ZTIN8opendnp38IVisitorINS_7IndexedINS_12Group121Var1EEEEE, @object
	.size	_ZTIN8opendnp38IVisitorINS_7IndexedINS_12Group121Var1EEEEE, 16
_ZTIN8opendnp38IVisitorINS_7IndexedINS_12Group121Var1EEEEE:
	.quad	_ZTVN10__cxxabiv117__class_type_infoE+16
	.quad	_ZTSN8opendnp38IVisitorINS_7IndexedINS_12Group121Var1EEEEE
	.weak	_ZTSN8opendnp314FunctorVisitorINS_7IndexedINS_12Group121Var1EEEZNKS_21TransformedCollectionIS3_NS1_INS_12SecurityStatEEEZNS_18MeasurementHandler25LoadValuesWithTransformToIS5_S2_EENS_8IINFieldERKNS_12HeaderRecordERKNS_11ICollectionINS1_IT0_EEEEEUlRKS3_E_E7ForeachERNS_8IVisitorIS6_EEEUlSK_E_EE
	.section	.rodata._ZTSN8opendnp314FunctorVisitorINS_7IndexedINS_12Group121Var1EEEZNKS_21TransformedCollectionIS3_NS1_INS_12SecurityStatEEEZNS_18MeasurementHandler25LoadValuesWithTransformToIS5_S2_EENS_8IINFieldERKNS_12HeaderRecordERKNS_11ICollectionINS1_IT0_EEEEEUlRKS3_E_E7ForeachERNS_8IVisitorIS6_EEEUlSK_E_EE,"aG",@progbits,_ZTSN8opendnp314FunctorVisitorINS_7IndexedINS_12Group121Var1EEEZNKS_21TransformedCollectionIS3_NS1_INS_12SecurityStatEEEZNS_18MeasurementHandler25LoadValuesWithTransformToIS5_S2_EENS_8IINFieldERKNS_12HeaderRecordERKNS_11ICollectionINS1_IT0_EEEEEUlRKS3_E_E7ForeachERNS_8IVisitorIS6_EEEUlSK_E_EE,comdat
	.align 32
	.type	_ZTSN8opendnp314FunctorVisitorINS_7IndexedINS_12Group121Var1EEEZNKS_21TransformedCollectionIS3_NS1_INS_12SecurityStatEEEZNS_18MeasurementHandler25LoadValuesWithTransformToIS5_S2_EENS_8IINFieldERKNS_12HeaderRecordERKNS_11ICollectionINS1_IT0_EEEEEUlRKS3_E_E7ForeachERNS_8IVisitorIS6_EEEUlSK_E_EE, @object
	.size	_ZTSN8opendnp314FunctorVisitorINS_7IndexedINS_12Group121Var1EEEZNKS_21TransformedCollectionIS3_NS1_INS_12SecurityStatEEEZNS_18MeasurementHandler25LoadValuesWithTransformToIS5_S2_EENS_8IINFieldERKNS_12HeaderRecordERKNS_11ICollectionINS1_IT0_EEEEEUlRKS3_E_E7ForeachERNS_8IVisitorIS6_EEEUlSK_E_EE, 290
_ZTSN8opendnp314FunctorVisitorINS_7IndexedINS_12Group121Var1EEEZNKS_21TransformedCollectionIS3_NS1_INS_12SecurityStatEEEZNS_18MeasurementHandler25LoadValuesWithTransformToIS5_S2_EENS_8IINFieldERKNS_12HeaderRecordERKNS_11ICollectionINS1_IT0_EEEEEUlRKS3_E_E7ForeachERNS_8IVisitorIS6_EEEUlSK_E_EE:
	.ascii	"N8opendnp314FunctorVisitorINS_7In"
	.string	"dexedINS_12Group121Var1EEEZNKS_21TransformedCollectionIS3_NS1_INS_12SecurityStatEEEZNS_18MeasurementHandler25LoadValuesWithTransformToIS5_S2_EENS_8IINFieldERKNS_12HeaderRecordERKNS_11ICollectionINS1_IT0_EEEEEUlRKS3_E_E7ForeachERNS_8IVisitorIS6_EEEUlSK_E_EE"
	.weak	_ZTIN8opendnp314FunctorVisitorINS_7IndexedINS_12Group121Var1EEEZNKS_21TransformedCollectionIS3_NS1_INS_12SecurityStatEEEZNS_18MeasurementHandler25LoadValuesWithTransformToIS5_S2_EENS_8IINFieldERKNS_12HeaderRecordERKNS_11ICollectionINS1_IT0_EEEEEUlRKS3_E_E7ForeachERNS_8IVisitorIS6_EEEUlSK_E_EE
	.section	.data.rel.ro._ZTIN8opendnp314FunctorVisitorINS_7IndexedINS_12Group121Var1EEEZNKS_21TransformedCollectionIS3_NS1_INS_12SecurityStatEEEZNS_18MeasurementHandler25LoadValuesWithTransformToIS5_S2_EENS_8IINFieldERKNS_12HeaderRecordERKNS_11ICollectionINS1_IT0_EEEEEUlRKS3_E_E7ForeachERNS_8IVisitorIS6_EEEUlSK_E_EE,"awG",@progbits,_ZTIN8opendnp314FunctorVisitorINS_7IndexedINS_12Group121Var1EEEZNKS_21TransformedCollectionIS3_NS1_INS_12SecurityStatEEEZNS_18MeasurementHandler25LoadValuesWithTransformToIS5_S2_EENS_8IINFieldERKNS_12HeaderRecordERKNS_11ICollectionINS1_IT0_EEEEEUlRKS3_E_E7ForeachERNS_8IVisitorIS6_EEEUlSK_E_EE,comdat
	.align 8
	.type	_ZTIN8opendnp314FunctorVisitorINS_7IndexedINS_12Group121Var1EEEZNKS_21TransformedCollectionIS3_NS1_INS_12SecurityStatEEEZNS_18MeasurementHandler25LoadValuesWithTransformToIS5_S2_EENS_8IINFieldERKNS_12HeaderRecordERKNS_11ICollectionINS1_IT0_EEEEEUlRKS3_E_E7ForeachERNS_8IVisitorIS6_EEEUlSK_E_EE, @object
	.size	_ZTIN8opendnp314FunctorVisitorINS_7IndexedINS_12Group121Var1EEEZNKS_21TransformedCollectionIS3_NS1_INS_12SecurityStatEEEZNS_18MeasurementHandler25LoadValuesWithTransformToIS5_S2_EENS_8IINFieldERKNS_12HeaderRecordERKNS_11ICollectionINS1_IT0_EEEEEUlRKS3_E_E7ForeachERNS_8IVisitorIS6_EEEUlSK_E_EE, 24
_ZTIN8opendnp314FunctorVisitorINS_7IndexedINS_12Group121Var1EEEZNKS_21TransformedCollectionIS3_NS1_INS_12SecurityStatEEEZNS_18MeasurementHandler25LoadValuesWithTransformToIS5_S2_EENS_8IINFieldERKNS_12HeaderRecordERKNS_11ICollectionINS1_IT0_EEEEEUlRKS3_E_E7ForeachERNS_8IVisitorIS6_EEEUlSK_E_EE:
	.quad	_ZTVN10__cxxabiv120__si_class_type_infoE+16
	.quad	_ZTSN8opendnp314FunctorVisitorINS_7IndexedINS_12Group121Var1EEEZNKS_21TransformedCollectionIS3_NS1_INS_12SecurityStatEEEZNS_18MeasurementHandler25LoadValuesWithTransformToIS5_S2_EENS_8IINFieldERKNS_12HeaderRecordERKNS_11ICollectionINS1_IT0_EEEEEUlRKS3_E_E7ForeachERNS_8IVisitorIS6_EEEUlSK_E_EE
	.quad	_ZTIN8opendnp38IVisitorINS_7IndexedINS_12Group121Var1EEEEE
	.weak	_ZTSN8opendnp38IVisitorINS_11Group50Var1EEE
	.section	.rodata._ZTSN8opendnp38IVisitorINS_11Group50Var1EEE,"aG",@progbits,_ZTSN8opendnp38IVisitorINS_11Group50Var1EEE,comdat
	.align 32
	.type	_ZTSN8opendnp38IVisitorINS_11Group50Var1EEE, @object
	.size	_ZTSN8opendnp38IVisitorINS_11Group50Var1EEE, 40
_ZTSN8opendnp38IVisitorINS_11Group50Var1EEE:
	.string	"N8opendnp38IVisitorINS_11Group50Var1EEE"
	.weak	_ZTIN8opendnp38IVisitorINS_11Group50Var1EEE
	.section	.data.rel.ro._ZTIN8opendnp38IVisitorINS_11Group50Var1EEE,"awG",@progbits,_ZTIN8opendnp38IVisitorINS_11Group50Var1EEE,comdat
	.align 8
	.type	_ZTIN8opendnp38IVisitorINS_11Group50Var1EEE, @object
	.size	_ZTIN8opendnp38IVisitorINS_11Group50Var1EEE, 16
_ZTIN8opendnp38IVisitorINS_11Group50Var1EEE:
	.quad	_ZTVN10__cxxabiv117__class_type_infoE+16
	.quad	_ZTSN8opendnp38IVisitorINS_11Group50Var1EEE
	.section	.data.rel.ro,"aw"
	.align 8
	.type	_ZTIN8opendnp314FunctorVisitorINS_11Group50Var1EZNKS_21TransformedCollectionIS1_N7openpal10UInt48TypeEZNS_18MeasurementHandler13ProcessHeaderERKNS_11CountHeaderERKNS_11ICollectionIS1_EEEUlRKS1_E_E7ForeachERNS_8IVisitorIS4_EEEUlSE_E_EE, @object
	.size	_ZTIN8opendnp314FunctorVisitorINS_11Group50Var1EZNKS_21TransformedCollectionIS1_N7openpal10UInt48TypeEZNS_18MeasurementHandler13ProcessHeaderERKNS_11CountHeaderERKNS_11ICollectionIS1_EEEUlRKS1_E_E7ForeachERNS_8IVisitorIS4_EEEUlSE_E_EE, 24
_ZTIN8opendnp314FunctorVisitorINS_11Group50Var1EZNKS_21TransformedCollectionIS1_N7openpal10UInt48TypeEZNS_18MeasurementHandler13ProcessHeaderERKNS_11CountHeaderERKNS_11ICollectionIS1_EEEUlRKS1_E_E7ForeachERNS_8IVisitorIS4_EEEUlSE_E_EE:
	.quad	_ZTVN10__cxxabiv120__si_class_type_infoE+16
	.quad	_ZTSN8opendnp314FunctorVisitorINS_11Group50Var1EZNKS_21TransformedCollectionIS1_N7openpal10UInt48TypeEZNS_18MeasurementHandler13ProcessHeaderERKNS_11CountHeaderERKNS_11ICollectionIS1_EEEUlRKS1_E_E7ForeachERNS_8IVisitorIS4_EEEUlSE_E_EE
	.quad	_ZTIN8opendnp38IVisitorINS_11Group50Var1EEE
	.section	.rodata
	.align 32
	.type	_ZTSN8opendnp314FunctorVisitorINS_11Group50Var1EZNKS_21TransformedCollectionIS1_N7openpal10UInt48TypeEZNS_18MeasurementHandler13ProcessHeaderERKNS_11CountHeaderERKNS_11ICollectionIS1_EEEUlRKS1_E_E7ForeachERNS_8IVisitorIS4_EEEUlSE_E_EE, @object
	.size	_ZTSN8opendnp314FunctorVisitorINS_11Group50Var1EZNKS_21TransformedCollectionIS1_N7openpal10UInt48TypeEZNS_18MeasurementHandler13ProcessHeaderERKNS_11CountHeaderERKNS_11ICollectionIS1_EEEUlRKS1_E_E7ForeachERNS_8IVisitorIS4_EEEUlSE_E_EE, 232
_ZTSN8opendnp314FunctorVisitorINS_11Group50Var1EZNKS_21TransformedCollectionIS1_N7openpal10UInt48TypeEZNS_18MeasurementHandler13ProcessHeaderERKNS_11CountHeaderERKNS_11ICollectionIS1_EEEUlRKS1_E_E7ForeachERNS_8IVisitorIS4_EEEUlSE_E_EE:
	.string	"*N8opendnp314FunctorVisitorINS_11Group50Var1EZNKS_21TransformedCollectionIS1_N7openpal10UInt48TypeEZNS_18MeasurementHandler13ProcessHeaderERKNS_11CountHeaderERKNS_11ICollectionIS1_EEEUlRKS1_E_E7ForeachERNS_8IVisitorIS4_EEEUlSE_E_EE"
	.weak	_ZTVN8opendnp314FunctorVisitorINS_7IndexedINS_12Group122Var2EEEZNKS_21TransformedCollectionIS3_NS1_INS_12SecurityStatEEEZNS_18MeasurementHandler25LoadValuesWithTransformToIS5_S2_EENS_8IINFieldERKNS_12HeaderRecordERKNS_11ICollectionINS1_IT0_EEEEEUlRKS3_E_E7ForeachERNS_8IVisitorIS6_EEEUlSK_E_EE
	.section	.data.rel.ro._ZTVN8opendnp314FunctorVisitorINS_7IndexedINS_12Group122Var2EEEZNKS_21TransformedCollectionIS3_NS1_INS_12SecurityStatEEEZNS_18MeasurementHandler25LoadValuesWithTransformToIS5_S2_EENS_8IINFieldERKNS_12HeaderRecordERKNS_11ICollectionINS1_IT0_EEEEEUlRKS3_E_E7ForeachERNS_8IVisitorIS6_EEEUlSK_E_EE,"awG",@progbits,_ZTVN8opendnp314FunctorVisitorINS_7IndexedINS_12Group122Var2EEEZNKS_21TransformedCollectionIS3_NS1_INS_12SecurityStatEEEZNS_18MeasurementHandler25LoadValuesWithTransformToIS5_S2_EENS_8IINFieldERKNS_12HeaderRecordERKNS_11ICollectionINS1_IT0_EEEEEUlRKS3_E_E7ForeachERNS_8IVisitorIS6_EEEUlSK_E_EE,comdat
	.align 8
	.type	_ZTVN8opendnp314FunctorVisitorINS_7IndexedINS_12Group122Var2EEEZNKS_21TransformedCollectionIS3_NS1_INS_12SecurityStatEEEZNS_18MeasurementHandler25LoadValuesWithTransformToIS5_S2_EENS_8IINFieldERKNS_12HeaderRecordERKNS_11ICollectionINS1_IT0_EEEEEUlRKS3_E_E7ForeachERNS_8IVisitorIS6_EEEUlSK_E_EE, @object
	.size	_ZTVN8opendnp314FunctorVisitorINS_7IndexedINS_12Group122Var2EEEZNKS_21TransformedCollectionIS3_NS1_INS_12SecurityStatEEEZNS_18MeasurementHandler25LoadValuesWithTransformToIS5_S2_EENS_8IINFieldERKNS_12HeaderRecordERKNS_11ICollectionINS1_IT0_EEEEEUlRKS3_E_E7ForeachERNS_8IVisitorIS6_EEEUlSK_E_EE, 24
_ZTVN8opendnp314FunctorVisitorINS_7IndexedINS_12Group122Var2EEEZNKS_21TransformedCollectionIS3_NS1_INS_12SecurityStatEEEZNS_18MeasurementHandler25LoadValuesWithTransformToIS5_S2_EENS_8IINFieldERKNS_12HeaderRecordERKNS_11ICollectionINS1_IT0_EEEEEUlRKS3_E_E7ForeachERNS_8IVisitorIS6_EEEUlSK_E_EE:
	.quad	0
	.quad	_ZTIN8opendnp314FunctorVisitorINS_7IndexedINS_12Group122Var2EEEZNKS_21TransformedCollectionIS3_NS1_INS_12SecurityStatEEEZNS_18MeasurementHandler25LoadValuesWithTransformToIS5_S2_EENS_8IINFieldERKNS_12HeaderRecordERKNS_11ICollectionINS1_IT0_EEEEEUlRKS3_E_E7ForeachERNS_8IVisitorIS6_EEEUlSK_E_EE
	.quad	_ZN8opendnp314FunctorVisitorINS_7IndexedINS_12Group122Var2EEEZNKS_21TransformedCollectionIS3_NS1_INS_12SecurityStatEEEZNS_18MeasurementHandler25LoadValuesWithTransformToIS5_S2_EENS_8IINFieldERKNS_12HeaderRecordERKNS_11ICollectionINS1_IT0_EEEEEUlRKS3_E_E7ForeachERNS_8IVisitorIS6_EEEUlSK_E_E7OnValueESK_
	.weak	_ZTVN8opendnp314FunctorVisitorINS_7IndexedINS_12Group122Var1EEEZNKS_21TransformedCollectionIS3_NS1_INS_12SecurityStatEEEZNS_18MeasurementHandler25LoadValuesWithTransformToIS5_S2_EENS_8IINFieldERKNS_12HeaderRecordERKNS_11ICollectionINS1_IT0_EEEEEUlRKS3_E_E7ForeachERNS_8IVisitorIS6_EEEUlSK_E_EE
	.section	.data.rel.ro._ZTVN8opendnp314FunctorVisitorINS_7IndexedINS_12Group122Var1EEEZNKS_21TransformedCollectionIS3_NS1_INS_12SecurityStatEEEZNS_18MeasurementHandler25LoadValuesWithTransformToIS5_S2_EENS_8IINFieldERKNS_12HeaderRecordERKNS_11ICollectionINS1_IT0_EEEEEUlRKS3_E_E7ForeachERNS_8IVisitorIS6_EEEUlSK_E_EE,"awG",@progbits,_ZTVN8opendnp314FunctorVisitorINS_7IndexedINS_12Group122Var1EEEZNKS_21TransformedCollectionIS3_NS1_INS_12SecurityStatEEEZNS_18MeasurementHandler25LoadValuesWithTransformToIS5_S2_EENS_8IINFieldERKNS_12HeaderRecordERKNS_11ICollectionINS1_IT0_EEEEEUlRKS3_E_E7ForeachERNS_8IVisitorIS6_EEEUlSK_E_EE,comdat
	.align 8
	.type	_ZTVN8opendnp314FunctorVisitorINS_7IndexedINS_12Group122Var1EEEZNKS_21TransformedCollectionIS3_NS1_INS_12SecurityStatEEEZNS_18MeasurementHandler25LoadValuesWithTransformToIS5_S2_EENS_8IINFieldERKNS_12HeaderRecordERKNS_11ICollectionINS1_IT0_EEEEEUlRKS3_E_E7ForeachERNS_8IVisitorIS6_EEEUlSK_E_EE, @object
	.size	_ZTVN8opendnp314FunctorVisitorINS_7IndexedINS_12Group122Var1EEEZNKS_21TransformedCollectionIS3_NS1_INS_12SecurityStatEEEZNS_18MeasurementHandler25LoadValuesWithTransformToIS5_S2_EENS_8IINFieldERKNS_12HeaderRecordERKNS_11ICollectionINS1_IT0_EEEEEUlRKS3_E_E7ForeachERNS_8IVisitorIS6_EEEUlSK_E_EE, 24
_ZTVN8opendnp314FunctorVisitorINS_7IndexedINS_12Group122Var1EEEZNKS_21TransformedCollectionIS3_NS1_INS_12SecurityStatEEEZNS_18MeasurementHandler25LoadValuesWithTransformToIS5_S2_EENS_8IINFieldERKNS_12HeaderRecordERKNS_11ICollectionINS1_IT0_EEEEEUlRKS3_E_E7ForeachERNS_8IVisitorIS6_EEEUlSK_E_EE:
	.quad	0
	.quad	_ZTIN8opendnp314FunctorVisitorINS_7IndexedINS_12Group122Var1EEEZNKS_21TransformedCollectionIS3_NS1_INS_12SecurityStatEEEZNS_18MeasurementHandler25LoadValuesWithTransformToIS5_S2_EENS_8IINFieldERKNS_12HeaderRecordERKNS_11ICollectionINS1_IT0_EEEEEUlRKS3_E_E7ForeachERNS_8IVisitorIS6_EEEUlSK_E_EE
	.quad	_ZN8opendnp314FunctorVisitorINS_7IndexedINS_12Group122Var1EEEZNKS_21TransformedCollectionIS3_NS1_INS_12SecurityStatEEEZNS_18MeasurementHandler25LoadValuesWithTransformToIS5_S2_EENS_8IINFieldERKNS_12HeaderRecordERKNS_11ICollectionINS1_IT0_EEEEEUlRKS3_E_E7ForeachERNS_8IVisitorIS6_EEEUlSK_E_E7OnValueESK_
	.weak	_ZTVN8opendnp314FunctorVisitorINS_7IndexedINS_15DoubleBitBinaryEEEZNKS_21TransformedCollectionIS3_S3_ZNS_18MeasurementHandler14ProcessWithCTOIS2_EENS_8IINFieldERKNS_12HeaderRecordERKNS_11ICollectionINS1_IT_EEEEEUlRKS3_E_E7ForeachERNS_8IVisitorIS3_EEEUlSI_E_EE
	.section	.data.rel.ro._ZTVN8opendnp314FunctorVisitorINS_7IndexedINS_15DoubleBitBinaryEEEZNKS_21TransformedCollectionIS3_S3_ZNS_18MeasurementHandler14ProcessWithCTOIS2_EENS_8IINFieldERKNS_12HeaderRecordERKNS_11ICollectionINS1_IT_EEEEEUlRKS3_E_E7ForeachERNS_8IVisitorIS3_EEEUlSI_E_EE,"awG",@progbits,_ZTVN8opendnp314FunctorVisitorINS_7IndexedINS_15DoubleBitBinaryEEEZNKS_21TransformedCollectionIS3_S3_ZNS_18MeasurementHandler14ProcessWithCTOIS2_EENS_8IINFieldERKNS_12HeaderRecordERKNS_11ICollectionINS1_IT_EEEEEUlRKS3_E_E7ForeachERNS_8IVisitorIS3_EEEUlSI_E_EE,comdat
	.align 8
	.type	_ZTVN8opendnp314FunctorVisitorINS_7IndexedINS_15DoubleBitBinaryEEEZNKS_21TransformedCollectionIS3_S3_ZNS_18MeasurementHandler14ProcessWithCTOIS2_EENS_8IINFieldERKNS_12HeaderRecordERKNS_11ICollectionINS1_IT_EEEEEUlRKS3_E_E7ForeachERNS_8IVisitorIS3_EEEUlSI_E_EE, @object
	.size	_ZTVN8opendnp314FunctorVisitorINS_7IndexedINS_15DoubleBitBinaryEEEZNKS_21TransformedCollectionIS3_S3_ZNS_18MeasurementHandler14ProcessWithCTOIS2_EENS_8IINFieldERKNS_12HeaderRecordERKNS_11ICollectionINS1_IT_EEEEEUlRKS3_E_E7ForeachERNS_8IVisitorIS3_EEEUlSI_E_EE, 24
_ZTVN8opendnp314FunctorVisitorINS_7IndexedINS_15DoubleBitBinaryEEEZNKS_21TransformedCollectionIS3_S3_ZNS_18MeasurementHandler14ProcessWithCTOIS2_EENS_8IINFieldERKNS_12HeaderRecordERKNS_11ICollectionINS1_IT_EEEEEUlRKS3_E_E7ForeachERNS_8IVisitorIS3_EEEUlSI_E_EE:
	.quad	0
	.quad	_ZTIN8opendnp314FunctorVisitorINS_7IndexedINS_15DoubleBitBinaryEEEZNKS_21TransformedCollectionIS3_S3_ZNS_18MeasurementHandler14ProcessWithCTOIS2_EENS_8IINFieldERKNS_12HeaderRecordERKNS_11ICollectionINS1_IT_EEEEEUlRKS3_E_E7ForeachERNS_8IVisitorIS3_EEEUlSI_E_EE
	.quad	_ZN8opendnp314FunctorVisitorINS_7IndexedINS_15DoubleBitBinaryEEEZNKS_21TransformedCollectionIS3_S3_ZNS_18MeasurementHandler14ProcessWithCTOIS2_EENS_8IINFieldERKNS_12HeaderRecordERKNS_11ICollectionINS1_IT_EEEEEUlRKS3_E_E7ForeachERNS_8IVisitorIS3_EEEUlSI_E_E7OnValueESI_
	.weak	_ZTVN8opendnp314FunctorVisitorINS_7IndexedINS_6BinaryEEEZNKS_21TransformedCollectionIS3_S3_ZNS_18MeasurementHandler14ProcessWithCTOIS2_EENS_8IINFieldERKNS_12HeaderRecordERKNS_11ICollectionINS1_IT_EEEEEUlRKS3_E_E7ForeachERNS_8IVisitorIS3_EEEUlSI_E_EE
	.section	.data.rel.ro._ZTVN8opendnp314FunctorVisitorINS_7IndexedINS_6BinaryEEEZNKS_21TransformedCollectionIS3_S3_ZNS_18MeasurementHandler14ProcessWithCTOIS2_EENS_8IINFieldERKNS_12HeaderRecordERKNS_11ICollectionINS1_IT_EEEEEUlRKS3_E_E7ForeachERNS_8IVisitorIS3_EEEUlSI_E_EE,"awG",@progbits,_ZTVN8opendnp314FunctorVisitorINS_7IndexedINS_6BinaryEEEZNKS_21TransformedCollectionIS3_S3_ZNS_18MeasurementHandler14ProcessWithCTOIS2_EENS_8IINFieldERKNS_12HeaderRecordERKNS_11ICollectionINS1_IT_EEEEEUlRKS3_E_E7ForeachERNS_8IVisitorIS3_EEEUlSI_E_EE,comdat
	.align 8
	.type	_ZTVN8opendnp314FunctorVisitorINS_7IndexedINS_6BinaryEEEZNKS_21TransformedCollectionIS3_S3_ZNS_18MeasurementHandler14ProcessWithCTOIS2_EENS_8IINFieldERKNS_12HeaderRecordERKNS_11ICollectionINS1_IT_EEEEEUlRKS3_E_E7ForeachERNS_8IVisitorIS3_EEEUlSI_E_EE, @object
	.size	_ZTVN8opendnp314FunctorVisitorINS_7IndexedINS_6BinaryEEEZNKS_21TransformedCollectionIS3_S3_ZNS_18MeasurementHandler14ProcessWithCTOIS2_EENS_8IINFieldERKNS_12HeaderRecordERKNS_11ICollectionINS1_IT_EEEEEUlRKS3_E_E7ForeachERNS_8IVisitorIS3_EEEUlSI_E_EE, 24
_ZTVN8opendnp314FunctorVisitorINS_7IndexedINS_6BinaryEEEZNKS_21TransformedCollectionIS3_S3_ZNS_18MeasurementHandler14ProcessWithCTOIS2_EENS_8IINFieldERKNS_12HeaderRecordERKNS_11ICollectionINS1_IT_EEEEEUlRKS3_E_E7ForeachERNS_8IVisitorIS3_EEEUlSI_E_EE:
	.quad	0
	.quad	_ZTIN8opendnp314FunctorVisitorINS_7IndexedINS_6BinaryEEEZNKS_21TransformedCollectionIS3_S3_ZNS_18MeasurementHandler14ProcessWithCTOIS2_EENS_8IINFieldERKNS_12HeaderRecordERKNS_11ICollectionINS1_IT_EEEEEUlRKS3_E_E7ForeachERNS_8IVisitorIS3_EEEUlSI_E_EE
	.quad	_ZN8opendnp314FunctorVisitorINS_7IndexedINS_6BinaryEEEZNKS_21TransformedCollectionIS3_S3_ZNS_18MeasurementHandler14ProcessWithCTOIS2_EENS_8IINFieldERKNS_12HeaderRecordERKNS_11ICollectionINS1_IT_EEEEEUlRKS3_E_E7ForeachERNS_8IVisitorIS3_EEEUlSI_E_E7OnValueESI_
	.weak	_ZTVN8opendnp314FunctorVisitorINS_7IndexedINS_12Group121Var1EEEZNKS_21TransformedCollectionIS3_NS1_INS_12SecurityStatEEEZNS_18MeasurementHandler25LoadValuesWithTransformToIS5_S2_EENS_8IINFieldERKNS_12HeaderRecordERKNS_11ICollectionINS1_IT0_EEEEEUlRKS3_E_E7ForeachERNS_8IVisitorIS6_EEEUlSK_E_EE
	.section	.data.rel.ro._ZTVN8opendnp314FunctorVisitorINS_7IndexedINS_12Group121Var1EEEZNKS_21TransformedCollectionIS3_NS1_INS_12SecurityStatEEEZNS_18MeasurementHandler25LoadValuesWithTransformToIS5_S2_EENS_8IINFieldERKNS_12HeaderRecordERKNS_11ICollectionINS1_IT0_EEEEEUlRKS3_E_E7ForeachERNS_8IVisitorIS6_EEEUlSK_E_EE,"awG",@progbits,_ZTVN8opendnp314FunctorVisitorINS_7IndexedINS_12Group121Var1EEEZNKS_21TransformedCollectionIS3_NS1_INS_12SecurityStatEEEZNS_18MeasurementHandler25LoadValuesWithTransformToIS5_S2_EENS_8IINFieldERKNS_12HeaderRecordERKNS_11ICollectionINS1_IT0_EEEEEUlRKS3_E_E7ForeachERNS_8IVisitorIS6_EEEUlSK_E_EE,comdat
	.align 8
	.type	_ZTVN8opendnp314FunctorVisitorINS_7IndexedINS_12Group121Var1EEEZNKS_21TransformedCollectionIS3_NS1_INS_12SecurityStatEEEZNS_18MeasurementHandler25LoadValuesWithTransformToIS5_S2_EENS_8IINFieldERKNS_12HeaderRecordERKNS_11ICollectionINS1_IT0_EEEEEUlRKS3_E_E7ForeachERNS_8IVisitorIS6_EEEUlSK_E_EE, @object
	.size	_ZTVN8opendnp314FunctorVisitorINS_7IndexedINS_12Group121Var1EEEZNKS_21TransformedCollectionIS3_NS1_INS_12SecurityStatEEEZNS_18MeasurementHandler25LoadValuesWithTransformToIS5_S2_EENS_8IINFieldERKNS_12HeaderRecordERKNS_11ICollectionINS1_IT0_EEEEEUlRKS3_E_E7ForeachERNS_8IVisitorIS6_EEEUlSK_E_EE, 24
_ZTVN8opendnp314FunctorVisitorINS_7IndexedINS_12Group121Var1EEEZNKS_21TransformedCollectionIS3_NS1_INS_12SecurityStatEEEZNS_18MeasurementHandler25LoadValuesWithTransformToIS5_S2_EENS_8IINFieldERKNS_12HeaderRecordERKNS_11ICollectionINS1_IT0_EEEEEUlRKS3_E_E7ForeachERNS_8IVisitorIS6_EEEUlSK_E_EE:
	.quad	0
	.quad	_ZTIN8opendnp314FunctorVisitorINS_7IndexedINS_12Group121Var1EEEZNKS_21TransformedCollectionIS3_NS1_INS_12SecurityStatEEEZNS_18MeasurementHandler25LoadValuesWithTransformToIS5_S2_EENS_8IINFieldERKNS_12HeaderRecordERKNS_11ICollectionINS1_IT0_EEEEEUlRKS3_E_E7ForeachERNS_8IVisitorIS6_EEEUlSK_E_EE
	.quad	_ZN8opendnp314FunctorVisitorINS_7IndexedINS_12Group121Var1EEEZNKS_21TransformedCollectionIS3_NS1_INS_12SecurityStatEEEZNS_18MeasurementHandler25LoadValuesWithTransformToIS5_S2_EENS_8IINFieldERKNS_12HeaderRecordERKNS_11ICollectionINS1_IT0_EEEEEUlRKS3_E_E7ForeachERNS_8IVisitorIS6_EEEUlSK_E_E7OnValueESK_
	.section	.data.rel.ro.local,"aw"
	.align 8
	.type	_ZTVN8opendnp314FunctorVisitorINS_11Group50Var1EZNKS_21TransformedCollectionIS1_N7openpal10UInt48TypeEZNS_18MeasurementHandler13ProcessHeaderERKNS_11CountHeaderERKNS_11ICollectionIS1_EEEUlRKS1_E_E7ForeachERNS_8IVisitorIS4_EEEUlSE_E_EE, @object
	.size	_ZTVN8opendnp314FunctorVisitorINS_11Group50Var1EZNKS_21TransformedCollectionIS1_N7openpal10UInt48TypeEZNS_18MeasurementHandler13ProcessHeaderERKNS_11CountHeaderERKNS_11ICollectionIS1_EEEUlRKS1_E_E7ForeachERNS_8IVisitorIS4_EEEUlSE_E_EE, 24
_ZTVN8opendnp314FunctorVisitorINS_11Group50Var1EZNKS_21TransformedCollectionIS1_N7openpal10UInt48TypeEZNS_18MeasurementHandler13ProcessHeaderERKNS_11CountHeaderERKNS_11ICollectionIS1_EEEUlRKS1_E_E7ForeachERNS_8IVisitorIS4_EEEUlSE_E_EE:
	.quad	0
	.quad	_ZTIN8opendnp314FunctorVisitorINS_11Group50Var1EZNKS_21TransformedCollectionIS1_N7openpal10UInt48TypeEZNS_18MeasurementHandler13ProcessHeaderERKNS_11CountHeaderERKNS_11ICollectionIS1_EEEUlRKS1_E_E7ForeachERNS_8IVisitorIS4_EEEUlSE_E_EE
	.quad	_ZN8opendnp314FunctorVisitorINS_11Group50Var1EZNKS_21TransformedCollectionIS1_N7openpal10UInt48TypeEZNS_18MeasurementHandler13ProcessHeaderERKNS_11CountHeaderERKNS_11ICollectionIS1_EEEUlRKS1_E_E7ForeachERNS_8IVisitorIS4_EEEUlSE_E_E7OnValueESE_
	.weak	_ZTSN8opendnp318MeasurementHandlerE
	.section	.rodata._ZTSN8opendnp318MeasurementHandlerE,"aG",@progbits,_ZTSN8opendnp318MeasurementHandlerE,comdat
	.align 32
	.type	_ZTSN8opendnp318MeasurementHandlerE, @object
	.size	_ZTSN8opendnp318MeasurementHandlerE, 32
_ZTSN8opendnp318MeasurementHandlerE:
	.string	"N8opendnp318MeasurementHandlerE"
	.weak	_ZTIN8opendnp318MeasurementHandlerE
	.section	.data.rel.ro._ZTIN8opendnp318MeasurementHandlerE,"awG",@progbits,_ZTIN8opendnp318MeasurementHandlerE,comdat
	.align 8
	.type	_ZTIN8opendnp318MeasurementHandlerE, @object
	.size	_ZTIN8opendnp318MeasurementHandlerE, 24
_ZTIN8opendnp318MeasurementHandlerE:
	.quad	_ZTVN10__cxxabiv120__si_class_type_infoE+16
	.quad	_ZTSN8opendnp318MeasurementHandlerE
	.quad	_ZTIN8opendnp312IAPDUHandlerE
	.weak	_ZTSN8opendnp311ICollectionIN7openpal10UInt48TypeEEE
	.section	.rodata._ZTSN8opendnp311ICollectionIN7openpal10UInt48TypeEEE,"aG",@progbits,_ZTSN8opendnp311ICollectionIN7openpal10UInt48TypeEEE,comdat
	.align 32
	.type	_ZTSN8opendnp311ICollectionIN7openpal10UInt48TypeEEE, @object
	.size	_ZTSN8opendnp311ICollectionIN7openpal10UInt48TypeEEE, 49
_ZTSN8opendnp311ICollectionIN7openpal10UInt48TypeEEE:
	.string	"N8opendnp311ICollectionIN7openpal10UInt48TypeEEE"
	.weak	_ZTIN8opendnp311ICollectionIN7openpal10UInt48TypeEEE
	.section	.data.rel.ro._ZTIN8opendnp311ICollectionIN7openpal10UInt48TypeEEE,"awG",@progbits,_ZTIN8opendnp311ICollectionIN7openpal10UInt48TypeEEE,comdat
	.align 8
	.type	_ZTIN8opendnp311ICollectionIN7openpal10UInt48TypeEEE, @object
	.size	_ZTIN8opendnp311ICollectionIN7openpal10UInt48TypeEEE, 16
_ZTIN8opendnp311ICollectionIN7openpal10UInt48TypeEEE:
	.quad	_ZTVN10__cxxabiv117__class_type_infoE+16
	.quad	_ZTSN8opendnp311ICollectionIN7openpal10UInt48TypeEEE
	.section	.data.rel.ro
	.align 8
	.type	_ZTIN8opendnp321TransformedCollectionINS_11Group50Var1EN7openpal10UInt48TypeEZNS_18MeasurementHandler13ProcessHeaderERKNS_11CountHeaderERKNS_11ICollectionIS1_EEEUlRKS1_E_EE, @object
	.size	_ZTIN8opendnp321TransformedCollectionINS_11Group50Var1EN7openpal10UInt48TypeEZNS_18MeasurementHandler13ProcessHeaderERKNS_11CountHeaderERKNS_11ICollectionIS1_EEEUlRKS1_E_EE, 24
_ZTIN8opendnp321TransformedCollectionINS_11Group50Var1EN7openpal10UInt48TypeEZNS_18MeasurementHandler13ProcessHeaderERKNS_11CountHeaderERKNS_11ICollectionIS1_EEEUlRKS1_E_EE:
	.quad	_ZTVN10__cxxabiv120__si_class_type_infoE+16
	.quad	_ZTSN8opendnp321TransformedCollectionINS_11Group50Var1EN7openpal10UInt48TypeEZNS_18MeasurementHandler13ProcessHeaderERKNS_11CountHeaderERKNS_11ICollectionIS1_EEEUlRKS1_E_EE
	.quad	_ZTIN8opendnp311ICollectionIN7openpal10UInt48TypeEEE
	.section	.rodata
	.align 32
	.type	_ZTSN8opendnp321TransformedCollectionINS_11Group50Var1EN7openpal10UInt48TypeEZNS_18MeasurementHandler13ProcessHeaderERKNS_11CountHeaderERKNS_11ICollectionIS1_EEEUlRKS1_E_EE, @object
	.size	_ZTSN8opendnp321TransformedCollectionINS_11Group50Var1EN7openpal10UInt48TypeEZNS_18MeasurementHandler13ProcessHeaderERKNS_11CountHeaderERKNS_11ICollectionIS1_EEEUlRKS1_E_EE, 170
_ZTSN8opendnp321TransformedCollectionINS_11Group50Var1EN7openpal10UInt48TypeEZNS_18MeasurementHandler13ProcessHeaderERKNS_11CountHeaderERKNS_11ICollectionIS1_EEEUlRKS1_E_EE:
	.string	"*N8opendnp321TransformedCollectionINS_11Group50Var1EN7openpal10UInt48TypeEZNS_18MeasurementHandler13ProcessHeaderERKNS_11CountHeaderERKNS_11ICollectionIS1_EEEUlRKS1_E_EE"
	.weak	_ZTSN8opendnp311ICollectionINS_7IndexedINS_12SecurityStatEEEEE
	.section	.rodata._ZTSN8opendnp311ICollectionINS_7IndexedINS_12SecurityStatEEEEE,"aG",@progbits,_ZTSN8opendnp311ICollectionINS_7IndexedINS_12SecurityStatEEEEE,comdat
	.align 32
	.type	_ZTSN8opendnp311ICollectionINS_7IndexedINS_12SecurityStatEEEEE, @object
	.size	_ZTSN8opendnp311ICollectionINS_7IndexedINS_12SecurityStatEEEEE, 59
_ZTSN8opendnp311ICollectionINS_7IndexedINS_12SecurityStatEEEEE:
	.string	"N8opendnp311ICollectionINS_7IndexedINS_12SecurityStatEEEEE"
	.weak	_ZTIN8opendnp311ICollectionINS_7IndexedINS_12SecurityStatEEEEE
	.section	.data.rel.ro._ZTIN8opendnp311ICollectionINS_7IndexedINS_12SecurityStatEEEEE,"awG",@progbits,_ZTIN8opendnp311ICollectionINS_7IndexedINS_12SecurityStatEEEEE,comdat
	.align 8
	.type	_ZTIN8opendnp311ICollectionINS_7IndexedINS_12SecurityStatEEEEE, @object
	.size	_ZTIN8opendnp311ICollectionINS_7IndexedINS_12SecurityStatEEEEE, 16
_ZTIN8opendnp311ICollectionINS_7IndexedINS_12SecurityStatEEEEE:
	.quad	_ZTVN10__cxxabiv117__class_type_infoE+16
	.quad	_ZTSN8opendnp311ICollectionINS_7IndexedINS_12SecurityStatEEEEE
	.weak	_ZTSN8opendnp311ICollectionINS_7IndexedINS_15DoubleBitBinaryEEEEE
	.section	.rodata._ZTSN8opendnp311ICollectionINS_7IndexedINS_15DoubleBitBinaryEEEEE,"aG",@progbits,_ZTSN8opendnp311ICollectionINS_7IndexedINS_15DoubleBitBinaryEEEEE,comdat
	.align 32
	.type	_ZTSN8opendnp311ICollectionINS_7IndexedINS_15DoubleBitBinaryEEEEE, @object
	.size	_ZTSN8opendnp311ICollectionINS_7IndexedINS_15DoubleBitBinaryEEEEE, 62
_ZTSN8opendnp311ICollectionINS_7IndexedINS_15DoubleBitBinaryEEEEE:
	.string	"N8opendnp311ICollectionINS_7IndexedINS_15DoubleBitBinaryEEEEE"
	.weak	_ZTIN8opendnp311ICollectionINS_7IndexedINS_15DoubleBitBinaryEEEEE
	.section	.data.rel.ro._ZTIN8opendnp311ICollectionINS_7IndexedINS_15DoubleBitBinaryEEEEE,"awG",@progbits,_ZTIN8opendnp311ICollectionINS_7IndexedINS_15DoubleBitBinaryEEEEE,comdat
	.align 8
	.type	_ZTIN8opendnp311ICollectionINS_7IndexedINS_15DoubleBitBinaryEEEEE, @object
	.size	_ZTIN8opendnp311ICollectionINS_7IndexedINS_15DoubleBitBinaryEEEEE, 16
_ZTIN8opendnp311ICollectionINS_7IndexedINS_15DoubleBitBinaryEEEEE:
	.quad	_ZTVN10__cxxabiv117__class_type_infoE+16
	.quad	_ZTSN8opendnp311ICollectionINS_7IndexedINS_15DoubleBitBinaryEEEEE
	.weak	_ZTSN8opendnp311ICollectionINS_7IndexedINS_6BinaryEEEEE
	.section	.rodata._ZTSN8opendnp311ICollectionINS_7IndexedINS_6BinaryEEEEE,"aG",@progbits,_ZTSN8opendnp311ICollectionINS_7IndexedINS_6BinaryEEEEE,comdat
	.align 32
	.type	_ZTSN8opendnp311ICollectionINS_7IndexedINS_6BinaryEEEEE, @object
	.size	_ZTSN8opendnp311ICollectionINS_7IndexedINS_6BinaryEEEEE, 52
_ZTSN8opendnp311ICollectionINS_7IndexedINS_6BinaryEEEEE:
	.string	"N8opendnp311ICollectionINS_7IndexedINS_6BinaryEEEEE"
	.weak	_ZTIN8opendnp311ICollectionINS_7IndexedINS_6BinaryEEEEE
	.section	.data.rel.ro._ZTIN8opendnp311ICollectionINS_7IndexedINS_6BinaryEEEEE,"awG",@progbits,_ZTIN8opendnp311ICollectionINS_7IndexedINS_6BinaryEEEEE,comdat
	.align 8
	.type	_ZTIN8opendnp311ICollectionINS_7IndexedINS_6BinaryEEEEE, @object
	.size	_ZTIN8opendnp311ICollectionINS_7IndexedINS_6BinaryEEEEE, 16
_ZTIN8opendnp311ICollectionINS_7IndexedINS_6BinaryEEEEE:
	.quad	_ZTVN10__cxxabiv117__class_type_infoE+16
	.quad	_ZTSN8opendnp311ICollectionINS_7IndexedINS_6BinaryEEEEE
	.weak	_ZTSN8opendnp321TransformedCollectionINS_7IndexedINS_12Group121Var1EEENS1_INS_12SecurityStatEEEZNS_18MeasurementHandler25LoadValuesWithTransformToIS4_S2_EENS_8IINFieldERKNS_12HeaderRecordERKNS_11ICollectionINS1_IT0_EEEEEUlRKS3_E_EE
	.section	.rodata._ZTSN8opendnp321TransformedCollectionINS_7IndexedINS_12Group121Var1EEENS1_INS_12SecurityStatEEEZNS_18MeasurementHandler25LoadValuesWithTransformToIS4_S2_EENS_8IINFieldERKNS_12HeaderRecordERKNS_11ICollectionINS1_IT0_EEEEEUlRKS3_E_EE,"aG",@progbits,_ZTSN8opendnp321TransformedCollectionINS_7IndexedINS_12Group121Var1EEENS1_INS_12SecurityStatEEEZNS_18MeasurementHandler25LoadValuesWithTransformToIS4_S2_EENS_8IINFieldERKNS_12HeaderRecordERKNS_11ICollectionINS1_IT0_EEEEEUlRKS3_E_EE,comdat
	.align 32
	.type	_ZTSN8opendnp321TransformedCollectionINS_7IndexedINS_12Group121Var1EEENS1_INS_12SecurityStatEEEZNS_18MeasurementHandler25LoadValuesWithTransformToIS4_S2_EENS_8IINFieldERKNS_12HeaderRecordERKNS_11ICollectionINS1_IT0_EEEEEUlRKS3_E_EE, @object
	.size	_ZTSN8opendnp321TransformedCollectionINS_7IndexedINS_12Group121Var1EEENS1_INS_12SecurityStatEEEZNS_18MeasurementHandler25LoadValuesWithTransformToIS4_S2_EENS_8IINFieldERKNS_12HeaderRecordERKNS_11ICollectionINS1_IT0_EEEEEUlRKS3_E_EE, 228
_ZTSN8opendnp321TransformedCollectionINS_7IndexedINS_12Group121Var1EEENS1_INS_12SecurityStatEEEZNS_18MeasurementHandler25LoadValuesWithTransformToIS4_S2_EENS_8IINFieldERKNS_12HeaderRecordERKNS_11ICollectionINS1_IT0_EEEEEUlRKS3_E_EE:
	.string	"N8opendnp321TransformedCollectionINS_7IndexedINS_12Group121Var1EEENS1_INS_12SecurityStatEEEZNS_18MeasurementHandler25LoadValuesWithTransformToIS4_S2_EENS_8IINFieldERKNS_12HeaderRecordERKNS_11ICollectionINS1_IT0_EEEEEUlRKS3_E_EE"
	.weak	_ZTIN8opendnp321TransformedCollectionINS_7IndexedINS_12Group121Var1EEENS1_INS_12SecurityStatEEEZNS_18MeasurementHandler25LoadValuesWithTransformToIS4_S2_EENS_8IINFieldERKNS_12HeaderRecordERKNS_11ICollectionINS1_IT0_EEEEEUlRKS3_E_EE
	.section	.data.rel.ro._ZTIN8opendnp321TransformedCollectionINS_7IndexedINS_12Group121Var1EEENS1_INS_12SecurityStatEEEZNS_18MeasurementHandler25LoadValuesWithTransformToIS4_S2_EENS_8IINFieldERKNS_12HeaderRecordERKNS_11ICollectionINS1_IT0_EEEEEUlRKS3_E_EE,"awG",@progbits,_ZTIN8opendnp321TransformedCollectionINS_7IndexedINS_12Group121Var1EEENS1_INS_12SecurityStatEEEZNS_18MeasurementHandler25LoadValuesWithTransformToIS4_S2_EENS_8IINFieldERKNS_12HeaderRecordERKNS_11ICollectionINS1_IT0_EEEEEUlRKS3_E_EE,comdat
	.align 8
	.type	_ZTIN8opendnp321TransformedCollectionINS_7IndexedINS_12Group121Var1EEENS1_INS_12SecurityStatEEEZNS_18MeasurementHandler25LoadValuesWithTransformToIS4_S2_EENS_8IINFieldERKNS_12HeaderRecordERKNS_11ICollectionINS1_IT0_EEEEEUlRKS3_E_EE, @object
	.size	_ZTIN8opendnp321TransformedCollectionINS_7IndexedINS_12Group121Var1EEENS1_INS_12SecurityStatEEEZNS_18MeasurementHandler25LoadValuesWithTransformToIS4_S2_EENS_8IINFieldERKNS_12HeaderRecordERKNS_11ICollectionINS1_IT0_EEEEEUlRKS3_E_EE, 24
_ZTIN8opendnp321TransformedCollectionINS_7IndexedINS_12Group121Var1EEENS1_INS_12SecurityStatEEEZNS_18MeasurementHandler25LoadValuesWithTransformToIS4_S2_EENS_8IINFieldERKNS_12HeaderRecordERKNS_11ICollectionINS1_IT0_EEEEEUlRKS3_E_EE:
	.quad	_ZTVN10__cxxabiv120__si_class_type_infoE+16
	.quad	_ZTSN8opendnp321TransformedCollectionINS_7IndexedINS_12Group121Var1EEENS1_INS_12SecurityStatEEEZNS_18MeasurementHandler25LoadValuesWithTransformToIS4_S2_EENS_8IINFieldERKNS_12HeaderRecordERKNS_11ICollectionINS1_IT0_EEEEEUlRKS3_E_EE
	.quad	_ZTIN8opendnp311ICollectionINS_7IndexedINS_12SecurityStatEEEEE
	.weak	_ZTSN8opendnp321TransformedCollectionINS_7IndexedINS_6BinaryEEES3_ZNS_18MeasurementHandler14ProcessWithCTOIS2_EENS_8IINFieldERKNS_12HeaderRecordERKNS_11ICollectionINS1_IT_EEEEEUlRKS3_E_EE
	.section	.rodata._ZTSN8opendnp321TransformedCollectionINS_7IndexedINS_6BinaryEEES3_ZNS_18MeasurementHandler14ProcessWithCTOIS2_EENS_8IINFieldERKNS_12HeaderRecordERKNS_11ICollectionINS1_IT_EEEEEUlRKS3_E_EE,"aG",@progbits,_ZTSN8opendnp321TransformedCollectionINS_7IndexedINS_6BinaryEEES3_ZNS_18MeasurementHandler14ProcessWithCTOIS2_EENS_8IINFieldERKNS_12HeaderRecordERKNS_11ICollectionINS1_IT_EEEEEUlRKS3_E_EE,comdat
	.align 32
	.type	_ZTSN8opendnp321TransformedCollectionINS_7IndexedINS_6BinaryEEES3_ZNS_18MeasurementHandler14ProcessWithCTOIS2_EENS_8IINFieldERKNS_12HeaderRecordERKNS_11ICollectionINS1_IT_EEEEEUlRKS3_E_EE, @object
	.size	_ZTSN8opendnp321TransformedCollectionINS_7IndexedINS_6BinaryEEES3_ZNS_18MeasurementHandler14ProcessWithCTOIS2_EENS_8IINFieldERKNS_12HeaderRecordERKNS_11ICollectionINS1_IT_EEEEEUlRKS3_E_EE, 184
_ZTSN8opendnp321TransformedCollectionINS_7IndexedINS_6BinaryEEES3_ZNS_18MeasurementHandler14ProcessWithCTOIS2_EENS_8IINFieldERKNS_12HeaderRecordERKNS_11ICollectionINS1_IT_EEEEEUlRKS3_E_EE:
	.string	"N8opendnp321TransformedCollectionINS_7IndexedINS_6BinaryEEES3_ZNS_18MeasurementHandler14ProcessWithCTOIS2_EENS_8IINFieldERKNS_12HeaderRecordERKNS_11ICollectionINS1_IT_EEEEEUlRKS3_E_EE"
	.weak	_ZTIN8opendnp321TransformedCollectionINS_7IndexedINS_6BinaryEEES3_ZNS_18MeasurementHandler14ProcessWithCTOIS2_EENS_8IINFieldERKNS_12HeaderRecordERKNS_11ICollectionINS1_IT_EEEEEUlRKS3_E_EE
	.section	.data.rel.ro._ZTIN8opendnp321TransformedCollectionINS_7IndexedINS_6BinaryEEES3_ZNS_18MeasurementHandler14ProcessWithCTOIS2_EENS_8IINFieldERKNS_12HeaderRecordERKNS_11ICollectionINS1_IT_EEEEEUlRKS3_E_EE,"awG",@progbits,_ZTIN8opendnp321TransformedCollectionINS_7IndexedINS_6BinaryEEES3_ZNS_18MeasurementHandler14ProcessWithCTOIS2_EENS_8IINFieldERKNS_12HeaderRecordERKNS_11ICollectionINS1_IT_EEEEEUlRKS3_E_EE,comdat
	.align 8
	.type	_ZTIN8opendnp321TransformedCollectionINS_7IndexedINS_6BinaryEEES3_ZNS_18MeasurementHandler14ProcessWithCTOIS2_EENS_8IINFieldERKNS_12HeaderRecordERKNS_11ICollectionINS1_IT_EEEEEUlRKS3_E_EE, @object
	.size	_ZTIN8opendnp321TransformedCollectionINS_7IndexedINS_6BinaryEEES3_ZNS_18MeasurementHandler14ProcessWithCTOIS2_EENS_8IINFieldERKNS_12HeaderRecordERKNS_11ICollectionINS1_IT_EEEEEUlRKS3_E_EE, 24
_ZTIN8opendnp321TransformedCollectionINS_7IndexedINS_6BinaryEEES3_ZNS_18MeasurementHandler14ProcessWithCTOIS2_EENS_8IINFieldERKNS_12HeaderRecordERKNS_11ICollectionINS1_IT_EEEEEUlRKS3_E_EE:
	.quad	_ZTVN10__cxxabiv120__si_class_type_infoE+16
	.quad	_ZTSN8opendnp321TransformedCollectionINS_7IndexedINS_6BinaryEEES3_ZNS_18MeasurementHandler14ProcessWithCTOIS2_EENS_8IINFieldERKNS_12HeaderRecordERKNS_11ICollectionINS1_IT_EEEEEUlRKS3_E_EE
	.quad	_ZTIN8opendnp311ICollectionINS_7IndexedINS_6BinaryEEEEE
	.weak	_ZTSN8opendnp321TransformedCollectionINS_7IndexedINS_15DoubleBitBinaryEEES3_ZNS_18MeasurementHandler14ProcessWithCTOIS2_EENS_8IINFieldERKNS_12HeaderRecordERKNS_11ICollectionINS1_IT_EEEEEUlRKS3_E_EE
	.section	.rodata._ZTSN8opendnp321TransformedCollectionINS_7IndexedINS_15DoubleBitBinaryEEES3_ZNS_18MeasurementHandler14ProcessWithCTOIS2_EENS_8IINFieldERKNS_12HeaderRecordERKNS_11ICollectionINS1_IT_EEEEEUlRKS3_E_EE,"aG",@progbits,_ZTSN8opendnp321TransformedCollectionINS_7IndexedINS_15DoubleBitBinaryEEES3_ZNS_18MeasurementHandler14ProcessWithCTOIS2_EENS_8IINFieldERKNS_12HeaderRecordERKNS_11ICollectionINS1_IT_EEEEEUlRKS3_E_EE,comdat
	.align 32
	.type	_ZTSN8opendnp321TransformedCollectionINS_7IndexedINS_15DoubleBitBinaryEEES3_ZNS_18MeasurementHandler14ProcessWithCTOIS2_EENS_8IINFieldERKNS_12HeaderRecordERKNS_11ICollectionINS1_IT_EEEEEUlRKS3_E_EE, @object
	.size	_ZTSN8opendnp321TransformedCollectionINS_7IndexedINS_15DoubleBitBinaryEEES3_ZNS_18MeasurementHandler14ProcessWithCTOIS2_EENS_8IINFieldERKNS_12HeaderRecordERKNS_11ICollectionINS1_IT_EEEEEUlRKS3_E_EE, 194
_ZTSN8opendnp321TransformedCollectionINS_7IndexedINS_15DoubleBitBinaryEEES3_ZNS_18MeasurementHandler14ProcessWithCTOIS2_EENS_8IINFieldERKNS_12HeaderRecordERKNS_11ICollectionINS1_IT_EEEEEUlRKS3_E_EE:
	.string	"N8opendnp321TransformedCollectionINS_7IndexedINS_15DoubleBitBinaryEEES3_ZNS_18MeasurementHandler14ProcessWithCTOIS2_EENS_8IINFieldERKNS_12HeaderRecordERKNS_11ICollectionINS1_IT_EEEEEUlRKS3_E_EE"
	.weak	_ZTIN8opendnp321TransformedCollectionINS_7IndexedINS_15DoubleBitBinaryEEES3_ZNS_18MeasurementHandler14ProcessWithCTOIS2_EENS_8IINFieldERKNS_12HeaderRecordERKNS_11ICollectionINS1_IT_EEEEEUlRKS3_E_EE
	.section	.data.rel.ro._ZTIN8opendnp321TransformedCollectionINS_7IndexedINS_15DoubleBitBinaryEEES3_ZNS_18MeasurementHandler14ProcessWithCTOIS2_EENS_8IINFieldERKNS_12HeaderRecordERKNS_11ICollectionINS1_IT_EEEEEUlRKS3_E_EE,"awG",@progbits,_ZTIN8opendnp321TransformedCollectionINS_7IndexedINS_15DoubleBitBinaryEEES3_ZNS_18MeasurementHandler14ProcessWithCTOIS2_EENS_8IINFieldERKNS_12HeaderRecordERKNS_11ICollectionINS1_IT_EEEEEUlRKS3_E_EE,comdat
	.align 8
	.type	_ZTIN8opendnp321TransformedCollectionINS_7IndexedINS_15DoubleBitBinaryEEES3_ZNS_18MeasurementHandler14ProcessWithCTOIS2_EENS_8IINFieldERKNS_12HeaderRecordERKNS_11ICollectionINS1_IT_EEEEEUlRKS3_E_EE, @object
	.size	_ZTIN8opendnp321TransformedCollectionINS_7IndexedINS_15DoubleBitBinaryEEES3_ZNS_18MeasurementHandler14ProcessWithCTOIS2_EENS_8IINFieldERKNS_12HeaderRecordERKNS_11ICollectionINS1_IT_EEEEEUlRKS3_E_EE, 24
_ZTIN8opendnp321TransformedCollectionINS_7IndexedINS_15DoubleBitBinaryEEES3_ZNS_18MeasurementHandler14ProcessWithCTOIS2_EENS_8IINFieldERKNS_12HeaderRecordERKNS_11ICollectionINS1_IT_EEEEEUlRKS3_E_EE:
	.quad	_ZTVN10__cxxabiv120__si_class_type_infoE+16
	.quad	_ZTSN8opendnp321TransformedCollectionINS_7IndexedINS_15DoubleBitBinaryEEES3_ZNS_18MeasurementHandler14ProcessWithCTOIS2_EENS_8IINFieldERKNS_12HeaderRecordERKNS_11ICollectionINS1_IT_EEEEEUlRKS3_E_EE
	.quad	_ZTIN8opendnp311ICollectionINS_7IndexedINS_15DoubleBitBinaryEEEEE
	.weak	_ZTSN8opendnp321TransformedCollectionINS_7IndexedINS_12Group122Var1EEENS1_INS_12SecurityStatEEEZNS_18MeasurementHandler25LoadValuesWithTransformToIS4_S2_EENS_8IINFieldERKNS_12HeaderRecordERKNS_11ICollectionINS1_IT0_EEEEEUlRKS3_E_EE
	.section	.rodata._ZTSN8opendnp321TransformedCollectionINS_7IndexedINS_12Group122Var1EEENS1_INS_12SecurityStatEEEZNS_18MeasurementHandler25LoadValuesWithTransformToIS4_S2_EENS_8IINFieldERKNS_12HeaderRecordERKNS_11ICollectionINS1_IT0_EEEEEUlRKS3_E_EE,"aG",@progbits,_ZTSN8opendnp321TransformedCollectionINS_7IndexedINS_12Group122Var1EEENS1_INS_12SecurityStatEEEZNS_18MeasurementHandler25LoadValuesWithTransformToIS4_S2_EENS_8IINFieldERKNS_12HeaderRecordERKNS_11ICollectionINS1_IT0_EEEEEUlRKS3_E_EE,comdat
	.align 32
	.type	_ZTSN8opendnp321TransformedCollectionINS_7IndexedINS_12Group122Var1EEENS1_INS_12SecurityStatEEEZNS_18MeasurementHandler25LoadValuesWithTransformToIS4_S2_EENS_8IINFieldERKNS_12HeaderRecordERKNS_11ICollectionINS1_IT0_EEEEEUlRKS3_E_EE, @object
	.size	_ZTSN8opendnp321TransformedCollectionINS_7IndexedINS_12Group122Var1EEENS1_INS_12SecurityStatEEEZNS_18MeasurementHandler25LoadValuesWithTransformToIS4_S2_EENS_8IINFieldERKNS_12HeaderRecordERKNS_11ICollectionINS1_IT0_EEEEEUlRKS3_E_EE, 228
_ZTSN8opendnp321TransformedCollectionINS_7IndexedINS_12Group122Var1EEENS1_INS_12SecurityStatEEEZNS_18MeasurementHandler25LoadValuesWithTransformToIS4_S2_EENS_8IINFieldERKNS_12HeaderRecordERKNS_11ICollectionINS1_IT0_EEEEEUlRKS3_E_EE:
	.string	"N8opendnp321TransformedCollectionINS_7IndexedINS_12Group122Var1EEENS1_INS_12SecurityStatEEEZNS_18MeasurementHandler25LoadValuesWithTransformToIS4_S2_EENS_8IINFieldERKNS_12HeaderRecordERKNS_11ICollectionINS1_IT0_EEEEEUlRKS3_E_EE"
	.weak	_ZTIN8opendnp321TransformedCollectionINS_7IndexedINS_12Group122Var1EEENS1_INS_12SecurityStatEEEZNS_18MeasurementHandler25LoadValuesWithTransformToIS4_S2_EENS_8IINFieldERKNS_12HeaderRecordERKNS_11ICollectionINS1_IT0_EEEEEUlRKS3_E_EE
	.section	.data.rel.ro._ZTIN8opendnp321TransformedCollectionINS_7IndexedINS_12Group122Var1EEENS1_INS_12SecurityStatEEEZNS_18MeasurementHandler25LoadValuesWithTransformToIS4_S2_EENS_8IINFieldERKNS_12HeaderRecordERKNS_11ICollectionINS1_IT0_EEEEEUlRKS3_E_EE,"awG",@progbits,_ZTIN8opendnp321TransformedCollectionINS_7IndexedINS_12Group122Var1EEENS1_INS_12SecurityStatEEEZNS_18MeasurementHandler25LoadValuesWithTransformToIS4_S2_EENS_8IINFieldERKNS_12HeaderRecordERKNS_11ICollectionINS1_IT0_EEEEEUlRKS3_E_EE,comdat
	.align 8
	.type	_ZTIN8opendnp321TransformedCollectionINS_7IndexedINS_12Group122Var1EEENS1_INS_12SecurityStatEEEZNS_18MeasurementHandler25LoadValuesWithTransformToIS4_S2_EENS_8IINFieldERKNS_12HeaderRecordERKNS_11ICollectionINS1_IT0_EEEEEUlRKS3_E_EE, @object
	.size	_ZTIN8opendnp321TransformedCollectionINS_7IndexedINS_12Group122Var1EEENS1_INS_12SecurityStatEEEZNS_18MeasurementHandler25LoadValuesWithTransformToIS4_S2_EENS_8IINFieldERKNS_12HeaderRecordERKNS_11ICollectionINS1_IT0_EEEEEUlRKS3_E_EE, 24
_ZTIN8opendnp321TransformedCollectionINS_7IndexedINS_12Group122Var1EEENS1_INS_12SecurityStatEEEZNS_18MeasurementHandler25LoadValuesWithTransformToIS4_S2_EENS_8IINFieldERKNS_12HeaderRecordERKNS_11ICollectionINS1_IT0_EEEEEUlRKS3_E_EE:
	.quad	_ZTVN10__cxxabiv120__si_class_type_infoE+16
	.quad	_ZTSN8opendnp321TransformedCollectionINS_7IndexedINS_12Group122Var1EEENS1_INS_12SecurityStatEEEZNS_18MeasurementHandler25LoadValuesWithTransformToIS4_S2_EENS_8IINFieldERKNS_12HeaderRecordERKNS_11ICollectionINS1_IT0_EEEEEUlRKS3_E_EE
	.quad	_ZTIN8opendnp311ICollectionINS_7IndexedINS_12SecurityStatEEEEE
	.weak	_ZTSN8opendnp321TransformedCollectionINS_7IndexedINS_12Group122Var2EEENS1_INS_12SecurityStatEEEZNS_18MeasurementHandler25LoadValuesWithTransformToIS4_S2_EENS_8IINFieldERKNS_12HeaderRecordERKNS_11ICollectionINS1_IT0_EEEEEUlRKS3_E_EE
	.section	.rodata._ZTSN8opendnp321TransformedCollectionINS_7IndexedINS_12Group122Var2EEENS1_INS_12SecurityStatEEEZNS_18MeasurementHandler25LoadValuesWithTransformToIS4_S2_EENS_8IINFieldERKNS_12HeaderRecordERKNS_11ICollectionINS1_IT0_EEEEEUlRKS3_E_EE,"aG",@progbits,_ZTSN8opendnp321TransformedCollectionINS_7IndexedINS_12Group122Var2EEENS1_INS_12SecurityStatEEEZNS_18MeasurementHandler25LoadValuesWithTransformToIS4_S2_EENS_8IINFieldERKNS_12HeaderRecordERKNS_11ICollectionINS1_IT0_EEEEEUlRKS3_E_EE,comdat
	.align 32
	.type	_ZTSN8opendnp321TransformedCollectionINS_7IndexedINS_12Group122Var2EEENS1_INS_12SecurityStatEEEZNS_18MeasurementHandler25LoadValuesWithTransformToIS4_S2_EENS_8IINFieldERKNS_12HeaderRecordERKNS_11ICollectionINS1_IT0_EEEEEUlRKS3_E_EE, @object
	.size	_ZTSN8opendnp321TransformedCollectionINS_7IndexedINS_12Group122Var2EEENS1_INS_12SecurityStatEEEZNS_18MeasurementHandler25LoadValuesWithTransformToIS4_S2_EENS_8IINFieldERKNS_12HeaderRecordERKNS_11ICollectionINS1_IT0_EEEEEUlRKS3_E_EE, 228
_ZTSN8opendnp321TransformedCollectionINS_7IndexedINS_12Group122Var2EEENS1_INS_12SecurityStatEEEZNS_18MeasurementHandler25LoadValuesWithTransformToIS4_S2_EENS_8IINFieldERKNS_12HeaderRecordERKNS_11ICollectionINS1_IT0_EEEEEUlRKS3_E_EE:
	.string	"N8opendnp321TransformedCollectionINS_7IndexedINS_12Group122Var2EEENS1_INS_12SecurityStatEEEZNS_18MeasurementHandler25LoadValuesWithTransformToIS4_S2_EENS_8IINFieldERKNS_12HeaderRecordERKNS_11ICollectionINS1_IT0_EEEEEUlRKS3_E_EE"
	.weak	_ZTIN8opendnp321TransformedCollectionINS_7IndexedINS_12Group122Var2EEENS1_INS_12SecurityStatEEEZNS_18MeasurementHandler25LoadValuesWithTransformToIS4_S2_EENS_8IINFieldERKNS_12HeaderRecordERKNS_11ICollectionINS1_IT0_EEEEEUlRKS3_E_EE
	.section	.data.rel.ro._ZTIN8opendnp321TransformedCollectionINS_7IndexedINS_12Group122Var2EEENS1_INS_12SecurityStatEEEZNS_18MeasurementHandler25LoadValuesWithTransformToIS4_S2_EENS_8IINFieldERKNS_12HeaderRecordERKNS_11ICollectionINS1_IT0_EEEEEUlRKS3_E_EE,"awG",@progbits,_ZTIN8opendnp321TransformedCollectionINS_7IndexedINS_12Group122Var2EEENS1_INS_12SecurityStatEEEZNS_18MeasurementHandler25LoadValuesWithTransformToIS4_S2_EENS_8IINFieldERKNS_12HeaderRecordERKNS_11ICollectionINS1_IT0_EEEEEUlRKS3_E_EE,comdat
	.align 8
	.type	_ZTIN8opendnp321TransformedCollectionINS_7IndexedINS_12Group122Var2EEENS1_INS_12SecurityStatEEEZNS_18MeasurementHandler25LoadValuesWithTransformToIS4_S2_EENS_8IINFieldERKNS_12HeaderRecordERKNS_11ICollectionINS1_IT0_EEEEEUlRKS3_E_EE, @object
	.size	_ZTIN8opendnp321TransformedCollectionINS_7IndexedINS_12Group122Var2EEENS1_INS_12SecurityStatEEEZNS_18MeasurementHandler25LoadValuesWithTransformToIS4_S2_EENS_8IINFieldERKNS_12HeaderRecordERKNS_11ICollectionINS1_IT0_EEEEEUlRKS3_E_EE, 24
_ZTIN8opendnp321TransformedCollectionINS_7IndexedINS_12Group122Var2EEENS1_INS_12SecurityStatEEEZNS_18MeasurementHandler25LoadValuesWithTransformToIS4_S2_EENS_8IINFieldERKNS_12HeaderRecordERKNS_11ICollectionINS1_IT0_EEEEEUlRKS3_E_EE:
	.quad	_ZTVN10__cxxabiv120__si_class_type_infoE+16
	.quad	_ZTSN8opendnp321TransformedCollectionINS_7IndexedINS_12Group122Var2EEENS1_INS_12SecurityStatEEEZNS_18MeasurementHandler25LoadValuesWithTransformToIS4_S2_EENS_8IINFieldERKNS_12HeaderRecordERKNS_11ICollectionINS1_IT0_EEEEEUlRKS3_E_EE
	.quad	_ZTIN8opendnp311ICollectionINS_7IndexedINS_12SecurityStatEEEEE
	.weak	_ZTSN8opendnp38IVisitorINS_11Group51Var1EEE
	.section	.rodata._ZTSN8opendnp38IVisitorINS_11Group51Var1EEE,"aG",@progbits,_ZTSN8opendnp38IVisitorINS_11Group51Var1EEE,comdat
	.align 32
	.type	_ZTSN8opendnp38IVisitorINS_11Group51Var1EEE, @object
	.size	_ZTSN8opendnp38IVisitorINS_11Group51Var1EEE, 40
_ZTSN8opendnp38IVisitorINS_11Group51Var1EEE:
	.string	"N8opendnp38IVisitorINS_11Group51Var1EEE"
	.weak	_ZTIN8opendnp38IVisitorINS_11Group51Var1EEE
	.section	.data.rel.ro._ZTIN8opendnp38IVisitorINS_11Group51Var1EEE,"awG",@progbits,_ZTIN8opendnp38IVisitorINS_11Group51Var1EEE,comdat
	.align 8
	.type	_ZTIN8opendnp38IVisitorINS_11Group51Var1EEE, @object
	.size	_ZTIN8opendnp38IVisitorINS_11Group51Var1EEE, 16
_ZTIN8opendnp38IVisitorINS_11Group51Var1EEE:
	.quad	_ZTVN10__cxxabiv117__class_type_infoE+16
	.quad	_ZTSN8opendnp38IVisitorINS_11Group51Var1EEE
	.weak	_ZTSN8opendnp314FunctorVisitorINS_11Group51Var1EZNKS_11ICollectionIS1_E13ReadOnlyValueERS1_EUlRKS1_E_EE
	.section	.rodata._ZTSN8opendnp314FunctorVisitorINS_11Group51Var1EZNKS_11ICollectionIS1_E13ReadOnlyValueERS1_EUlRKS1_E_EE,"aG",@progbits,_ZTSN8opendnp314FunctorVisitorINS_11Group51Var1EZNKS_11ICollectionIS1_E13ReadOnlyValueERS1_EUlRKS1_E_EE,comdat
	.align 32
	.type	_ZTSN8opendnp314FunctorVisitorINS_11Group51Var1EZNKS_11ICollectionIS1_E13ReadOnlyValueERS1_EUlRKS1_E_EE, @object
	.size	_ZTSN8opendnp314FunctorVisitorINS_11Group51Var1EZNKS_11ICollectionIS1_E13ReadOnlyValueERS1_EUlRKS1_E_EE, 100
_ZTSN8opendnp314FunctorVisitorINS_11Group51Var1EZNKS_11ICollectionIS1_E13ReadOnlyValueERS1_EUlRKS1_E_EE:
	.string	"N8opendnp314FunctorVisitorINS_11Group51Var1EZNKS_11ICollectionIS1_E13ReadOnlyValueERS1_EUlRKS1_E_EE"
	.weak	_ZTIN8opendnp314FunctorVisitorINS_11Group51Var1EZNKS_11ICollectionIS1_E13ReadOnlyValueERS1_EUlRKS1_E_EE
	.section	.data.rel.ro._ZTIN8opendnp314FunctorVisitorINS_11Group51Var1EZNKS_11ICollectionIS1_E13ReadOnlyValueERS1_EUlRKS1_E_EE,"awG",@progbits,_ZTIN8opendnp314FunctorVisitorINS_11Group51Var1EZNKS_11ICollectionIS1_E13ReadOnlyValueERS1_EUlRKS1_E_EE,comdat
	.align 8
	.type	_ZTIN8opendnp314FunctorVisitorINS_11Group51Var1EZNKS_11ICollectionIS1_E13ReadOnlyValueERS1_EUlRKS1_E_EE, @object
	.size	_ZTIN8opendnp314FunctorVisitorINS_11Group51Var1EZNKS_11ICollectionIS1_E13ReadOnlyValueERS1_EUlRKS1_E_EE, 24
_ZTIN8opendnp314FunctorVisitorINS_11Group51Var1EZNKS_11ICollectionIS1_E13ReadOnlyValueERS1_EUlRKS1_E_EE:
	.quad	_ZTVN10__cxxabiv120__si_class_type_infoE+16
	.quad	_ZTSN8opendnp314FunctorVisitorINS_11Group51Var1EZNKS_11ICollectionIS1_E13ReadOnlyValueERS1_EUlRKS1_E_EE
	.quad	_ZTIN8opendnp38IVisitorINS_11Group51Var1EEE
	.weak	_ZTSN8opendnp38IVisitorINS_11Group51Var2EEE
	.section	.rodata._ZTSN8opendnp38IVisitorINS_11Group51Var2EEE,"aG",@progbits,_ZTSN8opendnp38IVisitorINS_11Group51Var2EEE,comdat
	.align 32
	.type	_ZTSN8opendnp38IVisitorINS_11Group51Var2EEE, @object
	.size	_ZTSN8opendnp38IVisitorINS_11Group51Var2EEE, 40
_ZTSN8opendnp38IVisitorINS_11Group51Var2EEE:
	.string	"N8opendnp38IVisitorINS_11Group51Var2EEE"
	.weak	_ZTIN8opendnp38IVisitorINS_11Group51Var2EEE
	.section	.data.rel.ro._ZTIN8opendnp38IVisitorINS_11Group51Var2EEE,"awG",@progbits,_ZTIN8opendnp38IVisitorINS_11Group51Var2EEE,comdat
	.align 8
	.type	_ZTIN8opendnp38IVisitorINS_11Group51Var2EEE, @object
	.size	_ZTIN8opendnp38IVisitorINS_11Group51Var2EEE, 16
_ZTIN8opendnp38IVisitorINS_11Group51Var2EEE:
	.quad	_ZTVN10__cxxabiv117__class_type_infoE+16
	.quad	_ZTSN8opendnp38IVisitorINS_11Group51Var2EEE
	.weak	_ZTSN8opendnp314FunctorVisitorINS_11Group51Var2EZNKS_11ICollectionIS1_E13ReadOnlyValueERS1_EUlRKS1_E_EE
	.section	.rodata._ZTSN8opendnp314FunctorVisitorINS_11Group51Var2EZNKS_11ICollectionIS1_E13ReadOnlyValueERS1_EUlRKS1_E_EE,"aG",@progbits,_ZTSN8opendnp314FunctorVisitorINS_11Group51Var2EZNKS_11ICollectionIS1_E13ReadOnlyValueERS1_EUlRKS1_E_EE,comdat
	.align 32
	.type	_ZTSN8opendnp314FunctorVisitorINS_11Group51Var2EZNKS_11ICollectionIS1_E13ReadOnlyValueERS1_EUlRKS1_E_EE, @object
	.size	_ZTSN8opendnp314FunctorVisitorINS_11Group51Var2EZNKS_11ICollectionIS1_E13ReadOnlyValueERS1_EUlRKS1_E_EE, 100
_ZTSN8opendnp314FunctorVisitorINS_11Group51Var2EZNKS_11ICollectionIS1_E13ReadOnlyValueERS1_EUlRKS1_E_EE:
	.string	"N8opendnp314FunctorVisitorINS_11Group51Var2EZNKS_11ICollectionIS1_E13ReadOnlyValueERS1_EUlRKS1_E_EE"
	.weak	_ZTIN8opendnp314FunctorVisitorINS_11Group51Var2EZNKS_11ICollectionIS1_E13ReadOnlyValueERS1_EUlRKS1_E_EE
	.section	.data.rel.ro._ZTIN8opendnp314FunctorVisitorINS_11Group51Var2EZNKS_11ICollectionIS1_E13ReadOnlyValueERS1_EUlRKS1_E_EE,"awG",@progbits,_ZTIN8opendnp314FunctorVisitorINS_11Group51Var2EZNKS_11ICollectionIS1_E13ReadOnlyValueERS1_EUlRKS1_E_EE,comdat
	.align 8
	.type	_ZTIN8opendnp314FunctorVisitorINS_11Group51Var2EZNKS_11ICollectionIS1_E13ReadOnlyValueERS1_EUlRKS1_E_EE, @object
	.size	_ZTIN8opendnp314FunctorVisitorINS_11Group51Var2EZNKS_11ICollectionIS1_E13ReadOnlyValueERS1_EUlRKS1_E_EE, 24
_ZTIN8opendnp314FunctorVisitorINS_11Group51Var2EZNKS_11ICollectionIS1_E13ReadOnlyValueERS1_EUlRKS1_E_EE:
	.quad	_ZTVN10__cxxabiv120__si_class_type_infoE+16
	.quad	_ZTSN8opendnp314FunctorVisitorINS_11Group51Var2EZNKS_11ICollectionIS1_E13ReadOnlyValueERS1_EUlRKS1_E_EE
	.quad	_ZTIN8opendnp38IVisitorINS_11Group51Var2EEE
	.section	.data.rel.ro.local
	.align 8
	.type	_ZTVN8opendnp321TransformedCollectionINS_11Group50Var1EN7openpal10UInt48TypeEZNS_18MeasurementHandler13ProcessHeaderERKNS_11CountHeaderERKNS_11ICollectionIS1_EEEUlRKS1_E_EE, @object
	.size	_ZTVN8opendnp321TransformedCollectionINS_11Group50Var1EN7openpal10UInt48TypeEZNS_18MeasurementHandler13ProcessHeaderERKNS_11CountHeaderERKNS_11ICollectionIS1_EEEUlRKS1_E_EE, 32
_ZTVN8opendnp321TransformedCollectionINS_11Group50Var1EN7openpal10UInt48TypeEZNS_18MeasurementHandler13ProcessHeaderERKNS_11CountHeaderERKNS_11ICollectionIS1_EEEUlRKS1_E_EE:
	.quad	0
	.quad	_ZTIN8opendnp321TransformedCollectionINS_11Group50Var1EN7openpal10UInt48TypeEZNS_18MeasurementHandler13ProcessHeaderERKNS_11CountHeaderERKNS_11ICollectionIS1_EEEUlRKS1_E_EE
	.quad	_ZNK8opendnp321TransformedCollectionINS_11Group50Var1EN7openpal10UInt48TypeEZNS_18MeasurementHandler13ProcessHeaderERKNS_11CountHeaderERKNS_11ICollectionIS1_EEEUlRKS1_E_E5CountEv
	.quad	_ZNK8opendnp321TransformedCollectionINS_11Group50Var1EN7openpal10UInt48TypeEZNS_18MeasurementHandler13ProcessHeaderERKNS_11CountHeaderERKNS_11ICollectionIS1_EEEUlRKS1_E_E7ForeachERNS_8IVisitorIS3_EE
	.weak	_ZTVN8opendnp318MeasurementHandlerE
	.section	.data.rel.ro._ZTVN8opendnp318MeasurementHandlerE,"awG",@progbits,_ZTVN8opendnp318MeasurementHandlerE,comdat
	.align 8
	.type	_ZTVN8opendnp318MeasurementHandlerE, @object
	.size	_ZTVN8opendnp318MeasurementHandlerE, 448
_ZTVN8opendnp318MeasurementHandlerE:
	.quad	0
	.quad	_ZTIN8opendnp318MeasurementHandlerE
	.quad	_ZN8opendnp318MeasurementHandler9IsAllowedEjNS_14GroupVariationENS_13QualifierCodeE
	.quad	_ZN8opendnp312IAPDUHandler13ProcessHeaderERKNS_16AllObjectsHeaderE
	.quad	_ZN8opendnp312IAPDUHandler13ProcessHeaderERKNS_11RangeHeaderE
	.quad	_ZN8opendnp312IAPDUHandler13ProcessHeaderERKNS_11CountHeaderE
	.quad	_ZN8opendnp312IAPDUHandler13ProcessHeaderERKNS_16FreeFormatHeaderERKNS_12Group120Var1ERKN7openpal6RSliceE
	.quad	_ZN8opendnp312IAPDUHandler13ProcessHeaderERKNS_16FreeFormatHeaderERKNS_12Group120Var2ERKN7openpal6RSliceE
	.quad	_ZN8opendnp312IAPDUHandler13ProcessHeaderERKNS_16FreeFormatHeaderERKNS_12Group120Var5ERKN7openpal6RSliceE
	.quad	_ZN8opendnp312IAPDUHandler13ProcessHeaderERKNS_16FreeFormatHeaderERKNS_12Group120Var6ERKN7openpal6RSliceE
	.quad	_ZN8opendnp312IAPDUHandler13ProcessHeaderERKNS_16FreeFormatHeaderERKNS_12Group120Var8ERKN7openpal6RSliceE
	.quad	_ZN8opendnp312IAPDUHandler13ProcessHeaderERKNS_16FreeFormatHeaderERKNS_12Group120Var7ERKN7openpal6RSliceE
	.quad	_ZN8opendnp312IAPDUHandler13ProcessHeaderERKNS_16FreeFormatHeaderERKNS_12Group120Var9ERKN7openpal6RSliceE
	.quad	_ZN8opendnp312IAPDUHandler13ProcessHeaderERKNS_16FreeFormatHeaderERKNS_13Group120Var10ERKN7openpal6RSliceE
	.quad	_ZN8opendnp312IAPDUHandler13ProcessHeaderERKNS_16FreeFormatHeaderERKNS_13Group120Var11ERKN7openpal6RSliceE
	.quad	_ZN8opendnp312IAPDUHandler13ProcessHeaderERKNS_16FreeFormatHeaderERKNS_13Group120Var12ERKN7openpal6RSliceE
	.quad	_ZN8opendnp312IAPDUHandler13ProcessHeaderERKNS_16FreeFormatHeaderERKNS_13Group120Var13ERKN7openpal6RSliceE
	.quad	_ZN8opendnp312IAPDUHandler13ProcessHeaderERKNS_16FreeFormatHeaderERKNS_13Group120Var14ERKN7openpal6RSliceE
	.quad	_ZN8opendnp312IAPDUHandler13ProcessHeaderERKNS_16FreeFormatHeaderERKNS_13Group120Var15ERKN7openpal6RSliceE
	.quad	_ZN8opendnp318MeasurementHandler13ProcessHeaderERKNS_11CountHeaderERKNS_11ICollectionINS_11Group50Var1EEE
	.quad	_ZN8opendnp318MeasurementHandler13ProcessHeaderERKNS_11CountHeaderERKNS_11ICollectionINS_11Group51Var1EEE
	.quad	_ZN8opendnp318MeasurementHandler13ProcessHeaderERKNS_11CountHeaderERKNS_11ICollectionINS_11Group51Var2EEE
	.quad	_ZN8opendnp312IAPDUHandler13ProcessHeaderERKNS_11CountHeaderERKNS_11ICollectionINS_11Group52Var1EEE
	.quad	_ZN8opendnp312IAPDUHandler13ProcessHeaderERKNS_11CountHeaderERKNS_11ICollectionINS_11Group52Var2EEE
	.quad	_ZN8opendnp312IAPDUHandler13ProcessHeaderERKNS_11CountHeaderERKNS_11ICollectionINS_12Group120Var3EEE
	.quad	_ZN8opendnp312IAPDUHandler13ProcessHeaderERKNS_11CountHeaderERKNS_11ICollectionINS_12Group120Var4EEE
	.quad	_ZN8opendnp312IAPDUHandler13ProcessHeaderERKNS_11RangeHeaderERKNS_11ICollectionINS_7IndexedINS_8IINValueEEEEE
	.quad	_ZN8opendnp318MeasurementHandler13ProcessHeaderERKNS_11RangeHeaderERKNS_11ICollectionINS_7IndexedINS_6BinaryEEEEE
	.quad	_ZN8opendnp318MeasurementHandler13ProcessHeaderERKNS_11RangeHeaderERKNS_11ICollectionINS_7IndexedINS_15DoubleBitBinaryEEEEE
	.quad	_ZN8opendnp318MeasurementHandler13ProcessHeaderERKNS_11RangeHeaderERKNS_11ICollectionINS_7IndexedINS_18BinaryOutputStatusEEEEE
	.quad	_ZN8opendnp318MeasurementHandler13ProcessHeaderERKNS_11RangeHeaderERKNS_11ICollectionINS_7IndexedINS_7CounterEEEEE
	.quad	_ZN8opendnp318MeasurementHandler13ProcessHeaderERKNS_11RangeHeaderERKNS_11ICollectionINS_7IndexedINS_13FrozenCounterEEEEE
	.quad	_ZN8opendnp318MeasurementHandler13ProcessHeaderERKNS_11RangeHeaderERKNS_11ICollectionINS_7IndexedINS_6AnalogEEEEE
	.quad	_ZN8opendnp318MeasurementHandler13ProcessHeaderERKNS_11RangeHeaderERKNS_11ICollectionINS_7IndexedINS_18AnalogOutputStatusEEEEE
	.quad	_ZN8opendnp318MeasurementHandler13ProcessHeaderERKNS_11RangeHeaderERKNS_11ICollectionINS_7IndexedINS_11OctetStringEEEEE
	.quad	_ZN8opendnp318MeasurementHandler13ProcessHeaderERKNS_11RangeHeaderERKNS_11ICollectionINS_7IndexedINS_15TimeAndIntervalEEEEE
	.quad	_ZN8opendnp318MeasurementHandler13ProcessHeaderERKNS_11RangeHeaderERKNS_11ICollectionINS_7IndexedINS_12Group121Var1EEEEE
	.quad	_ZN8opendnp318MeasurementHandler13ProcessHeaderERKNS_12PrefixHeaderERKNS_11ICollectionINS_7IndexedINS_6BinaryEEEEE
	.quad	_ZN8opendnp318MeasurementHandler13ProcessHeaderERKNS_12PrefixHeaderERKNS_11ICollectionINS_7IndexedINS_18BinaryOutputStatusEEEEE
	.quad	_ZN8opendnp318MeasurementHandler13ProcessHeaderERKNS_12PrefixHeaderERKNS_11ICollectionINS_7IndexedINS_15DoubleBitBinaryEEEEE
	.quad	_ZN8opendnp318MeasurementHandler13ProcessHeaderERKNS_12PrefixHeaderERKNS_11ICollectionINS_7IndexedINS_7CounterEEEEE
	.quad	_ZN8opendnp318MeasurementHandler13ProcessHeaderERKNS_12PrefixHeaderERKNS_11ICollectionINS_7IndexedINS_13FrozenCounterEEEEE
	.quad	_ZN8opendnp318MeasurementHandler13ProcessHeaderERKNS_12PrefixHeaderERKNS_11ICollectionINS_7IndexedINS_6AnalogEEEEE
	.quad	_ZN8opendnp318MeasurementHandler13ProcessHeaderERKNS_12PrefixHeaderERKNS_11ICollectionINS_7IndexedINS_18AnalogOutputStatusEEEEE
	.quad	_ZN8opendnp318MeasurementHandler13ProcessHeaderERKNS_12PrefixHeaderERKNS_11ICollectionINS_7IndexedINS_11OctetStringEEEEE
	.quad	_ZN8opendnp312IAPDUHandler13ProcessHeaderERKNS_12PrefixHeaderERKNS_11ICollectionINS_7IndexedINS_15TimeAndIntervalEEEEE
	.quad	_ZN8opendnp318MeasurementHandler13ProcessHeaderERKNS_12PrefixHeaderERKNS_11ICollectionINS_7IndexedINS_18BinaryCommandEventEEEEE
	.quad	_ZN8opendnp318MeasurementHandler13ProcessHeaderERKNS_12PrefixHeaderERKNS_11ICollectionINS_7IndexedINS_18AnalogCommandEventEEEEE
	.quad	_ZN8opendnp318MeasurementHandler13ProcessHeaderERKNS_12PrefixHeaderERKNS_11ICollectionINS_7IndexedINS_12Group122Var1EEEEE
	.quad	_ZN8opendnp318MeasurementHandler13ProcessHeaderERKNS_12PrefixHeaderERKNS_11ICollectionINS_7IndexedINS_12Group122Var2EEEEE
	.quad	_ZN8opendnp312IAPDUHandler13ProcessHeaderERKNS_12PrefixHeaderERKNS_11ICollectionINS_7IndexedINS_23ControlRelayOutputBlockEEEEE
	.quad	_ZN8opendnp312IAPDUHandler13ProcessHeaderERKNS_12PrefixHeaderERKNS_11ICollectionINS_7IndexedINS_17AnalogOutputInt16EEEEE
	.quad	_ZN8opendnp312IAPDUHandler13ProcessHeaderERKNS_12PrefixHeaderERKNS_11ICollectionINS_7IndexedINS_17AnalogOutputInt32EEEEE
	.quad	_ZN8opendnp312IAPDUHandler13ProcessHeaderERKNS_12PrefixHeaderERKNS_11ICollectionINS_7IndexedINS_19AnalogOutputFloat32EEEEE
	.quad	_ZN8opendnp312IAPDUHandler13ProcessHeaderERKNS_12PrefixHeaderERKNS_11ICollectionINS_7IndexedINS_20AnalogOutputDouble64EEEEE
	.quad	_ZN8opendnp312IAPDUHandler14OnHeaderResultERKNS_12HeaderRecordERKNS_8IINFieldE
	.weak	_ZTVN8opendnp321TransformedCollectionINS_7IndexedINS_12Group121Var1EEENS1_INS_12SecurityStatEEEZNS_18MeasurementHandler25LoadValuesWithTransformToIS4_S2_EENS_8IINFieldERKNS_12HeaderRecordERKNS_11ICollectionINS1_IT0_EEEEEUlRKS3_E_EE
	.section	.data.rel.ro._ZTVN8opendnp321TransformedCollectionINS_7IndexedINS_12Group121Var1EEENS1_INS_12SecurityStatEEEZNS_18MeasurementHandler25LoadValuesWithTransformToIS4_S2_EENS_8IINFieldERKNS_12HeaderRecordERKNS_11ICollectionINS1_IT0_EEEEEUlRKS3_E_EE,"awG",@progbits,_ZTVN8opendnp321TransformedCollectionINS_7IndexedINS_12Group121Var1EEENS1_INS_12SecurityStatEEEZNS_18MeasurementHandler25LoadValuesWithTransformToIS4_S2_EENS_8IINFieldERKNS_12HeaderRecordERKNS_11ICollectionINS1_IT0_EEEEEUlRKS3_E_EE,comdat
	.align 8
	.type	_ZTVN8opendnp321TransformedCollectionINS_7IndexedINS_12Group121Var1EEENS1_INS_12SecurityStatEEEZNS_18MeasurementHandler25LoadValuesWithTransformToIS4_S2_EENS_8IINFieldERKNS_12HeaderRecordERKNS_11ICollectionINS1_IT0_EEEEEUlRKS3_E_EE, @object
	.size	_ZTVN8opendnp321TransformedCollectionINS_7IndexedINS_12Group121Var1EEENS1_INS_12SecurityStatEEEZNS_18MeasurementHandler25LoadValuesWithTransformToIS4_S2_EENS_8IINFieldERKNS_12HeaderRecordERKNS_11ICollectionINS1_IT0_EEEEEUlRKS3_E_EE, 32
_ZTVN8opendnp321TransformedCollectionINS_7IndexedINS_12Group121Var1EEENS1_INS_12SecurityStatEEEZNS_18MeasurementHandler25LoadValuesWithTransformToIS4_S2_EENS_8IINFieldERKNS_12HeaderRecordERKNS_11ICollectionINS1_IT0_EEEEEUlRKS3_E_EE:
	.quad	0
	.quad	_ZTIN8opendnp321TransformedCollectionINS_7IndexedINS_12Group121Var1EEENS1_INS_12SecurityStatEEEZNS_18MeasurementHandler25LoadValuesWithTransformToIS4_S2_EENS_8IINFieldERKNS_12HeaderRecordERKNS_11ICollectionINS1_IT0_EEEEEUlRKS3_E_EE
	.quad	_ZNK8opendnp321TransformedCollectionINS_7IndexedINS_12Group121Var1EEENS1_INS_12SecurityStatEEEZNS_18MeasurementHandler25LoadValuesWithTransformToIS4_S2_EENS_8IINFieldERKNS_12HeaderRecordERKNS_11ICollectionINS1_IT0_EEEEEUlRKS3_E_E5CountEv
	.quad	_ZNK8opendnp321TransformedCollectionINS_7IndexedINS_12Group121Var1EEENS1_INS_12SecurityStatEEEZNS_18MeasurementHandler25LoadValuesWithTransformToIS4_S2_EENS_8IINFieldERKNS_12HeaderRecordERKNS_11ICollectionINS1_IT0_EEEEEUlRKS3_E_E7ForeachERNS_8IVisitorIS5_EE
	.weak	_ZTVN8opendnp321TransformedCollectionINS_7IndexedINS_6BinaryEEES3_ZNS_18MeasurementHandler14ProcessWithCTOIS2_EENS_8IINFieldERKNS_12HeaderRecordERKNS_11ICollectionINS1_IT_EEEEEUlRKS3_E_EE
	.section	.data.rel.ro._ZTVN8opendnp321TransformedCollectionINS_7IndexedINS_6BinaryEEES3_ZNS_18MeasurementHandler14ProcessWithCTOIS2_EENS_8IINFieldERKNS_12HeaderRecordERKNS_11ICollectionINS1_IT_EEEEEUlRKS3_E_EE,"awG",@progbits,_ZTVN8opendnp321TransformedCollectionINS_7IndexedINS_6BinaryEEES3_ZNS_18MeasurementHandler14ProcessWithCTOIS2_EENS_8IINFieldERKNS_12HeaderRecordERKNS_11ICollectionINS1_IT_EEEEEUlRKS3_E_EE,comdat
	.align 8
	.type	_ZTVN8opendnp321TransformedCollectionINS_7IndexedINS_6BinaryEEES3_ZNS_18MeasurementHandler14ProcessWithCTOIS2_EENS_8IINFieldERKNS_12HeaderRecordERKNS_11ICollectionINS1_IT_EEEEEUlRKS3_E_EE, @object
	.size	_ZTVN8opendnp321TransformedCollectionINS_7IndexedINS_6BinaryEEES3_ZNS_18MeasurementHandler14ProcessWithCTOIS2_EENS_8IINFieldERKNS_12HeaderRecordERKNS_11ICollectionINS1_IT_EEEEEUlRKS3_E_EE, 32
_ZTVN8opendnp321TransformedCollectionINS_7IndexedINS_6BinaryEEES3_ZNS_18MeasurementHandler14ProcessWithCTOIS2_EENS_8IINFieldERKNS_12HeaderRecordERKNS_11ICollectionINS1_IT_EEEEEUlRKS3_E_EE:
	.quad	0
	.quad	_ZTIN8opendnp321TransformedCollectionINS_7IndexedINS_6BinaryEEES3_ZNS_18MeasurementHandler14ProcessWithCTOIS2_EENS_8IINFieldERKNS_12HeaderRecordERKNS_11ICollectionINS1_IT_EEEEEUlRKS3_E_EE
	.quad	_ZNK8opendnp321TransformedCollectionINS_7IndexedINS_6BinaryEEES3_ZNS_18MeasurementHandler14ProcessWithCTOIS2_EENS_8IINFieldERKNS_12HeaderRecordERKNS_11ICollectionINS1_IT_EEEEEUlRKS3_E_E5CountEv
	.quad	_ZNK8opendnp321TransformedCollectionINS_7IndexedINS_6BinaryEEES3_ZNS_18MeasurementHandler14ProcessWithCTOIS2_EENS_8IINFieldERKNS_12HeaderRecordERKNS_11ICollectionINS1_IT_EEEEEUlRKS3_E_E7ForeachERNS_8IVisitorIS3_EE
	.weak	_ZTVN8opendnp321TransformedCollectionINS_7IndexedINS_15DoubleBitBinaryEEES3_ZNS_18MeasurementHandler14ProcessWithCTOIS2_EENS_8IINFieldERKNS_12HeaderRecordERKNS_11ICollectionINS1_IT_EEEEEUlRKS3_E_EE
	.section	.data.rel.ro._ZTVN8opendnp321TransformedCollectionINS_7IndexedINS_15DoubleBitBinaryEEES3_ZNS_18MeasurementHandler14ProcessWithCTOIS2_EENS_8IINFieldERKNS_12HeaderRecordERKNS_11ICollectionINS1_IT_EEEEEUlRKS3_E_EE,"awG",@progbits,_ZTVN8opendnp321TransformedCollectionINS_7IndexedINS_15DoubleBitBinaryEEES3_ZNS_18MeasurementHandler14ProcessWithCTOIS2_EENS_8IINFieldERKNS_12HeaderRecordERKNS_11ICollectionINS1_IT_EEEEEUlRKS3_E_EE,comdat
	.align 8
	.type	_ZTVN8opendnp321TransformedCollectionINS_7IndexedINS_15DoubleBitBinaryEEES3_ZNS_18MeasurementHandler14ProcessWithCTOIS2_EENS_8IINFieldERKNS_12HeaderRecordERKNS_11ICollectionINS1_IT_EEEEEUlRKS3_E_EE, @object
	.size	_ZTVN8opendnp321TransformedCollectionINS_7IndexedINS_15DoubleBitBinaryEEES3_ZNS_18MeasurementHandler14ProcessWithCTOIS2_EENS_8IINFieldERKNS_12HeaderRecordERKNS_11ICollectionINS1_IT_EEEEEUlRKS3_E_EE, 32
_ZTVN8opendnp321TransformedCollectionINS_7IndexedINS_15DoubleBitBinaryEEES3_ZNS_18MeasurementHandler14ProcessWithCTOIS2_EENS_8IINFieldERKNS_12HeaderRecordERKNS_11ICollectionINS1_IT_EEEEEUlRKS3_E_EE:
	.quad	0
	.quad	_ZTIN8opendnp321TransformedCollectionINS_7IndexedINS_15DoubleBitBinaryEEES3_ZNS_18MeasurementHandler14ProcessWithCTOIS2_EENS_8IINFieldERKNS_12HeaderRecordERKNS_11ICollectionINS1_IT_EEEEEUlRKS3_E_EE
	.quad	_ZNK8opendnp321TransformedCollectionINS_7IndexedINS_15DoubleBitBinaryEEES3_ZNS_18MeasurementHandler14ProcessWithCTOIS2_EENS_8IINFieldERKNS_12HeaderRecordERKNS_11ICollectionINS1_IT_EEEEEUlRKS3_E_E5CountEv
	.quad	_ZNK8opendnp321TransformedCollectionINS_7IndexedINS_15DoubleBitBinaryEEES3_ZNS_18MeasurementHandler14ProcessWithCTOIS2_EENS_8IINFieldERKNS_12HeaderRecordERKNS_11ICollectionINS1_IT_EEEEEUlRKS3_E_E7ForeachERNS_8IVisitorIS3_EE
	.weak	_ZTVN8opendnp321TransformedCollectionINS_7IndexedINS_12Group122Var1EEENS1_INS_12SecurityStatEEEZNS_18MeasurementHandler25LoadValuesWithTransformToIS4_S2_EENS_8IINFieldERKNS_12HeaderRecordERKNS_11ICollectionINS1_IT0_EEEEEUlRKS3_E_EE
	.section	.data.rel.ro._ZTVN8opendnp321TransformedCollectionINS_7IndexedINS_12Group122Var1EEENS1_INS_12SecurityStatEEEZNS_18MeasurementHandler25LoadValuesWithTransformToIS4_S2_EENS_8IINFieldERKNS_12HeaderRecordERKNS_11ICollectionINS1_IT0_EEEEEUlRKS3_E_EE,"awG",@progbits,_ZTVN8opendnp321TransformedCollectionINS_7IndexedINS_12Group122Var1EEENS1_INS_12SecurityStatEEEZNS_18MeasurementHandler25LoadValuesWithTransformToIS4_S2_EENS_8IINFieldERKNS_12HeaderRecordERKNS_11ICollectionINS1_IT0_EEEEEUlRKS3_E_EE,comdat
	.align 8
	.type	_ZTVN8opendnp321TransformedCollectionINS_7IndexedINS_12Group122Var1EEENS1_INS_12SecurityStatEEEZNS_18MeasurementHandler25LoadValuesWithTransformToIS4_S2_EENS_8IINFieldERKNS_12HeaderRecordERKNS_11ICollectionINS1_IT0_EEEEEUlRKS3_E_EE, @object
	.size	_ZTVN8opendnp321TransformedCollectionINS_7IndexedINS_12Group122Var1EEENS1_INS_12SecurityStatEEEZNS_18MeasurementHandler25LoadValuesWithTransformToIS4_S2_EENS_8IINFieldERKNS_12HeaderRecordERKNS_11ICollectionINS1_IT0_EEEEEUlRKS3_E_EE, 32
_ZTVN8opendnp321TransformedCollectionINS_7IndexedINS_12Group122Var1EEENS1_INS_12SecurityStatEEEZNS_18MeasurementHandler25LoadValuesWithTransformToIS4_S2_EENS_8IINFieldERKNS_12HeaderRecordERKNS_11ICollectionINS1_IT0_EEEEEUlRKS3_E_EE:
	.quad	0
	.quad	_ZTIN8opendnp321TransformedCollectionINS_7IndexedINS_12Group122Var1EEENS1_INS_12SecurityStatEEEZNS_18MeasurementHandler25LoadValuesWithTransformToIS4_S2_EENS_8IINFieldERKNS_12HeaderRecordERKNS_11ICollectionINS1_IT0_EEEEEUlRKS3_E_EE
	.quad	_ZNK8opendnp321TransformedCollectionINS_7IndexedINS_12Group122Var1EEENS1_INS_12SecurityStatEEEZNS_18MeasurementHandler25LoadValuesWithTransformToIS4_S2_EENS_8IINFieldERKNS_12HeaderRecordERKNS_11ICollectionINS1_IT0_EEEEEUlRKS3_E_E5CountEv
	.quad	_ZNK8opendnp321TransformedCollectionINS_7IndexedINS_12Group122Var1EEENS1_INS_12SecurityStatEEEZNS_18MeasurementHandler25LoadValuesWithTransformToIS4_S2_EENS_8IINFieldERKNS_12HeaderRecordERKNS_11ICollectionINS1_IT0_EEEEEUlRKS3_E_E7ForeachERNS_8IVisitorIS5_EE
	.weak	_ZTVN8opendnp321TransformedCollectionINS_7IndexedINS_12Group122Var2EEENS1_INS_12SecurityStatEEEZNS_18MeasurementHandler25LoadValuesWithTransformToIS4_S2_EENS_8IINFieldERKNS_12HeaderRecordERKNS_11ICollectionINS1_IT0_EEEEEUlRKS3_E_EE
	.section	.data.rel.ro._ZTVN8opendnp321TransformedCollectionINS_7IndexedINS_12Group122Var2EEENS1_INS_12SecurityStatEEEZNS_18MeasurementHandler25LoadValuesWithTransformToIS4_S2_EENS_8IINFieldERKNS_12HeaderRecordERKNS_11ICollectionINS1_IT0_EEEEEUlRKS3_E_EE,"awG",@progbits,_ZTVN8opendnp321TransformedCollectionINS_7IndexedINS_12Group122Var2EEENS1_INS_12SecurityStatEEEZNS_18MeasurementHandler25LoadValuesWithTransformToIS4_S2_EENS_8IINFieldERKNS_12HeaderRecordERKNS_11ICollectionINS1_IT0_EEEEEUlRKS3_E_EE,comdat
	.align 8
	.type	_ZTVN8opendnp321TransformedCollectionINS_7IndexedINS_12Group122Var2EEENS1_INS_12SecurityStatEEEZNS_18MeasurementHandler25LoadValuesWithTransformToIS4_S2_EENS_8IINFieldERKNS_12HeaderRecordERKNS_11ICollectionINS1_IT0_EEEEEUlRKS3_E_EE, @object
	.size	_ZTVN8opendnp321TransformedCollectionINS_7IndexedINS_12Group122Var2EEENS1_INS_12SecurityStatEEEZNS_18MeasurementHandler25LoadValuesWithTransformToIS4_S2_EENS_8IINFieldERKNS_12HeaderRecordERKNS_11ICollectionINS1_IT0_EEEEEUlRKS3_E_EE, 32
_ZTVN8opendnp321TransformedCollectionINS_7IndexedINS_12Group122Var2EEENS1_INS_12SecurityStatEEEZNS_18MeasurementHandler25LoadValuesWithTransformToIS4_S2_EENS_8IINFieldERKNS_12HeaderRecordERKNS_11ICollectionINS1_IT0_EEEEEUlRKS3_E_EE:
	.quad	0
	.quad	_ZTIN8opendnp321TransformedCollectionINS_7IndexedINS_12Group122Var2EEENS1_INS_12SecurityStatEEEZNS_18MeasurementHandler25LoadValuesWithTransformToIS4_S2_EENS_8IINFieldERKNS_12HeaderRecordERKNS_11ICollectionINS1_IT0_EEEEEUlRKS3_E_EE
	.quad	_ZNK8opendnp321TransformedCollectionINS_7IndexedINS_12Group122Var2EEENS1_INS_12SecurityStatEEEZNS_18MeasurementHandler25LoadValuesWithTransformToIS4_S2_EENS_8IINFieldERKNS_12HeaderRecordERKNS_11ICollectionINS1_IT0_EEEEEUlRKS3_E_E5CountEv
	.quad	_ZNK8opendnp321TransformedCollectionINS_7IndexedINS_12Group122Var2EEENS1_INS_12SecurityStatEEEZNS_18MeasurementHandler25LoadValuesWithTransformToIS4_S2_EENS_8IINFieldERKNS_12HeaderRecordERKNS_11ICollectionINS1_IT0_EEEEEUlRKS3_E_E7ForeachERNS_8IVisitorIS5_EE
	.weak	_ZTVN8opendnp314FunctorVisitorINS_11Group51Var1EZNKS_11ICollectionIS1_E13ReadOnlyValueERS1_EUlRKS1_E_EE
	.section	.data.rel.ro._ZTVN8opendnp314FunctorVisitorINS_11Group51Var1EZNKS_11ICollectionIS1_E13ReadOnlyValueERS1_EUlRKS1_E_EE,"awG",@progbits,_ZTVN8opendnp314FunctorVisitorINS_11Group51Var1EZNKS_11ICollectionIS1_E13ReadOnlyValueERS1_EUlRKS1_E_EE,comdat
	.align 8
	.type	_ZTVN8opendnp314FunctorVisitorINS_11Group51Var1EZNKS_11ICollectionIS1_E13ReadOnlyValueERS1_EUlRKS1_E_EE, @object
	.size	_ZTVN8opendnp314FunctorVisitorINS_11Group51Var1EZNKS_11ICollectionIS1_E13ReadOnlyValueERS1_EUlRKS1_E_EE, 24
_ZTVN8opendnp314FunctorVisitorINS_11Group51Var1EZNKS_11ICollectionIS1_E13ReadOnlyValueERS1_EUlRKS1_E_EE:
	.quad	0
	.quad	_ZTIN8opendnp314FunctorVisitorINS_11Group51Var1EZNKS_11ICollectionIS1_E13ReadOnlyValueERS1_EUlRKS1_E_EE
	.quad	_ZN8opendnp314FunctorVisitorINS_11Group51Var1EZNKS_11ICollectionIS1_E13ReadOnlyValueERS1_EUlRKS1_E_E7OnValueES6_
	.weak	_ZTVN8opendnp314FunctorVisitorINS_11Group51Var2EZNKS_11ICollectionIS1_E13ReadOnlyValueERS1_EUlRKS1_E_EE
	.section	.data.rel.ro._ZTVN8opendnp314FunctorVisitorINS_11Group51Var2EZNKS_11ICollectionIS1_E13ReadOnlyValueERS1_EUlRKS1_E_EE,"awG",@progbits,_ZTVN8opendnp314FunctorVisitorINS_11Group51Var2EZNKS_11ICollectionIS1_E13ReadOnlyValueERS1_EUlRKS1_E_EE,comdat
	.align 8
	.type	_ZTVN8opendnp314FunctorVisitorINS_11Group51Var2EZNKS_11ICollectionIS1_E13ReadOnlyValueERS1_EUlRKS1_E_EE, @object
	.size	_ZTVN8opendnp314FunctorVisitorINS_11Group51Var2EZNKS_11ICollectionIS1_E13ReadOnlyValueERS1_EUlRKS1_E_EE, 24
_ZTVN8opendnp314FunctorVisitorINS_11Group51Var2EZNKS_11ICollectionIS1_E13ReadOnlyValueERS1_EUlRKS1_E_EE:
	.quad	0
	.quad	_ZTIN8opendnp314FunctorVisitorINS_11Group51Var2EZNKS_11ICollectionIS1_E13ReadOnlyValueERS1_EUlRKS1_E_EE
	.quad	_ZN8opendnp314FunctorVisitorINS_11Group51Var2EZNKS_11ICollectionIS1_E13ReadOnlyValueERS1_EUlRKS1_E_E7OnValueES6_
	.hidden	DW.ref.__gxx_personality_v0
	.weak	DW.ref.__gxx_personality_v0
	.section	.data.rel.local.DW.ref.__gxx_personality_v0,"awG",@progbits,DW.ref.__gxx_personality_v0,comdat
	.align 8
	.type	DW.ref.__gxx_personality_v0, @object
	.size	DW.ref.__gxx_personality_v0, 8
DW.ref.__gxx_personality_v0:
	.quad	__gxx_personality_v0
	.ident	"GCC: (Ubuntu 11.4.0-1ubuntu1~22.04) 11.4.0"
	.section	.note.GNU-stack,"",@progbits
	.section	.note.gnu.property,"a"
	.align 8
	.long	1f - 0f
	.long	4f - 1f
	.long	5
0:
	.string	"GNU"
1:
	.align 8
	.long	0xc0000002
	.long	3f - 2f
2:
	.long	0x3
3:
	.align 8
4:
