	.file	"RestartOperationTask.cpp"
	.text
	.section	.text._ZNK8opendnp311IMasterTask10IsAuthTaskEv,"axG",@progbits,_ZNK8opendnp311IMasterTask10IsAuthTaskEv,comdat
	.align 2
	.p2align 4
	.weak	_ZNK8opendnp311IMasterTask10IsAuthTaskEv
	.type	_ZNK8opendnp311IMasterTask10IsAuthTaskEv, @function
_ZNK8opendnp311IMasterTask10IsAuthTaskEv:
.LFB2455:
	.cfi_startproc
	endbr64
	xorl	%eax, %eax
	ret
	.cfi_endproc
.LFE2455:
	.size	_ZNK8opendnp311IMasterTask10IsAuthTaskEv, .-_ZNK8opendnp311IMasterTask10IsAuthTaskEv
	.section	.text._ZN8opendnp311IMasterTask10InitializeEv,"axG",@progbits,_ZN8opendnp311IMasterTask10InitializeEv,comdat
	.align 2
	.p2align 4
	.weak	_ZN8opendnp311IMasterTask10InitializeEv
	.type	_ZN8opendnp311IMasterTask10InitializeEv, @function
_ZN8opendnp311IMasterTask10InitializeEv:
.LFB2456:
	.cfi_startproc
	endbr64
	ret
	.cfi_endproc
.LFE2456:
	.size	_ZN8opendnp311IMasterTask10InitializeEv, .-_ZN8opendnp311IMasterTask10InitializeEv
	.section	.text._ZNK8opendnp321SimpleRequestTaskBase11IsRecurringEv,"axG",@progbits,_ZNK8opendnp321SimpleRequestTaskBase11IsRecurringEv,comdat
	.align 2
	.p2align 4
	.weak	_ZNK8opendnp321SimpleRequestTaskBase11IsRecurringEv
	.type	_ZNK8opendnp321SimpleRequestTaskBase11IsRecurringEv, @function
_ZNK8opendnp321SimpleRequestTaskBase11IsRecurringEv:
.LFB2457:
	.cfi_startproc
	endbr64
	xorl	%eax, %eax
	ret
	.cfi_endproc
.LFE2457:
	.size	_ZNK8opendnp321SimpleRequestTaskBase11IsRecurringEv, .-_ZNK8opendnp321SimpleRequestTaskBase11IsRecurringEv
	.section	.text._ZNK8opendnp321SimpleRequestTaskBase8PriorityEv,"axG",@progbits,_ZNK8opendnp321SimpleRequestTaskBase8PriorityEv,comdat
	.align 2
	.p2align 4
	.weak	_ZNK8opendnp321SimpleRequestTaskBase8PriorityEv
	.type	_ZNK8opendnp321SimpleRequestTaskBase8PriorityEv, @function
_ZNK8opendnp321SimpleRequestTaskBase8PriorityEv:
.LFB2458:
	.cfi_startproc
	endbr64
	movl	92(%rdi), %eax
	ret
	.cfi_endproc
.LFE2458:
	.size	_ZNK8opendnp321SimpleRequestTaskBase8PriorityEv, .-_ZNK8opendnp321SimpleRequestTaskBase8PriorityEv
	.section	.text._ZNK8opendnp321SimpleRequestTaskBase19BlocksLowerPriorityEv,"axG",@progbits,_ZNK8opendnp321SimpleRequestTaskBase19BlocksLowerPriorityEv,comdat
	.align 2
	.p2align 4
	.weak	_ZNK8opendnp321SimpleRequestTaskBase19BlocksLowerPriorityEv
	.type	_ZNK8opendnp321SimpleRequestTaskBase19BlocksLowerPriorityEv, @function
_ZNK8opendnp321SimpleRequestTaskBase19BlocksLowerPriorityEv:
.LFB2459:
	.cfi_startproc
	endbr64
	xorl	%eax, %eax
	ret
	.cfi_endproc
.LFE2459:
	.size	_ZNK8opendnp321SimpleRequestTaskBase19BlocksLowerPriorityEv, .-_ZNK8opendnp321SimpleRequestTaskBase19BlocksLowerPriorityEv
	.section	.text._ZNK8opendnp321SimpleRequestTaskBase9IsEnabledEv,"axG",@progbits,_ZNK8opendnp321SimpleRequestTaskBase9IsEnabledEv,comdat
	.align 2
	.p2align 4
	.weak	_ZNK8opendnp321SimpleRequestTaskBase9IsEnabledEv
	.type	_ZNK8opendnp321SimpleRequestTaskBase9IsEnabledEv, @function
_ZNK8opendnp321SimpleRequestTaskBase9IsEnabledEv:
.LFB2460:
	.cfi_startproc
	endbr64
	movl	$1, %eax
	ret
	.cfi_endproc
.LFE2460:
	.size	_ZNK8opendnp321SimpleRequestTaskBase9IsEnabledEv, .-_ZNK8opendnp321SimpleRequestTaskBase9IsEnabledEv
	.section	.text._ZNK8opendnp321SimpleRequestTaskBase11GetTaskTypeEv,"axG",@progbits,_ZNK8opendnp321SimpleRequestTaskBase11GetTaskTypeEv,comdat
	.align 2
	.p2align 4
	.weak	_ZNK8opendnp321SimpleRequestTaskBase11GetTaskTypeEv
	.type	_ZNK8opendnp321SimpleRequestTaskBase11GetTaskTypeEv, @function
_ZNK8opendnp321SimpleRequestTaskBase11GetTaskTypeEv:
.LFB2461:
	.cfi_startproc
	endbr64
	movl	$7, %eax
	ret
	.cfi_endproc
.LFE2461:
	.size	_ZNK8opendnp321SimpleRequestTaskBase11GetTaskTypeEv, .-_ZNK8opendnp321SimpleRequestTaskBase11GetTaskTypeEv
	.section	.text._ZN8opendnp312IAPDUHandler14OnHeaderResultERKNS_12HeaderRecordERKNS_8IINFieldE,"axG",@progbits,_ZN8opendnp312IAPDUHandler14OnHeaderResultERKNS_12HeaderRecordERKNS_8IINFieldE,comdat
	.align 2
	.p2align 4
	.weak	_ZN8opendnp312IAPDUHandler14OnHeaderResultERKNS_12HeaderRecordERKNS_8IINFieldE
	.type	_ZN8opendnp312IAPDUHandler14OnHeaderResultERKNS_12HeaderRecordERKNS_8IINFieldE, @function
_ZN8opendnp312IAPDUHandler14OnHeaderResultERKNS_12HeaderRecordERKNS_8IINFieldE:
.LFB2620:
	.cfi_startproc
	endbr64
	ret
	.cfi_endproc
.LFE2620:
	.size	_ZN8opendnp312IAPDUHandler14OnHeaderResultERKNS_12HeaderRecordERKNS_8IINFieldE, .-_ZN8opendnp312IAPDUHandler14OnHeaderResultERKNS_12HeaderRecordERKNS_8IINFieldE
	.text
	.align 2
	.p2align 4
	.globl	_ZN8opendnp320RestartOperationTask9IsAllowedEjNS_14GroupVariationENS_13QualifierCodeE
	.type	_ZN8opendnp320RestartOperationTask9IsAllowedEjNS_14GroupVariationENS_13QualifierCodeE, @function
_ZN8opendnp320RestartOperationTask9IsAllowedEjNS_14GroupVariationENS_13QualifierCodeE:
.LFB2652:
	.cfi_startproc
	endbr64
	xorl	%eax, %eax
	testl	%esi, %esi
	jne	.L10
	subw	$13313, %dx
	cmpw	$1, %dx
	setbe	%al
.L10:
	ret
	.cfi_endproc
.LFE2652:
	.size	_ZN8opendnp320RestartOperationTask9IsAllowedEjNS_14GroupVariationENS_13QualifierCodeE, .-_ZN8opendnp320RestartOperationTask9IsAllowedEjNS_14GroupVariationENS_13QualifierCodeE
	.p2align 4
	.type	_ZNSt17_Function_handlerIFbRN8opendnp312HeaderWriterEEZNS0_20RestartOperationTaskC4ERNS0_18IMasterApplicationENS0_11RestartTypeERKSt8functionIFvRKNS0_22RestartOperationResultEEEN7openpal6LoggerERKNS0_10TaskConfigEEUlS2_E_E9_M_invokeERKSt9_Any_dataS2_, @function
_ZNSt17_Function_handlerIFbRN8opendnp312HeaderWriterEEZNS0_20RestartOperationTaskC4ERNS0_18IMasterApplicationENS0_11RestartTypeERKSt8functionIFvRKNS0_22RestartOperationResultEEEN7openpal6LoggerERKNS0_10TaskConfigEEUlS2_E_E9_M_invokeERKSt9_Any_dataS2_:
.LFB3104:
	.cfi_startproc
	endbr64
	movl	$1, %eax
	ret
	.cfi_endproc
.LFE3104:
	.size	_ZNSt17_Function_handlerIFbRN8opendnp312HeaderWriterEEZNS0_20RestartOperationTaskC4ERNS0_18IMasterApplicationENS0_11RestartTypeERKSt8functionIFvRKNS0_22RestartOperationResultEEEN7openpal6LoggerERKNS0_10TaskConfigEEUlS2_E_E9_M_invokeERKSt9_Any_dataS2_, .-_ZNSt17_Function_handlerIFbRN8opendnp312HeaderWriterEEZNS0_20RestartOperationTaskC4ERNS0_18IMasterApplicationENS0_11RestartTypeERKSt8functionIFvRKNS0_22RestartOperationResultEEEN7openpal6LoggerERKNS0_10TaskConfigEEUlS2_E_E9_M_invokeERKSt9_Any_dataS2_
	.p2align 4
	.type	_ZNSt17_Function_handlerIFbRN8opendnp312HeaderWriterEEZNS0_20RestartOperationTaskC4ERNS0_18IMasterApplicationENS0_11RestartTypeERKSt8functionIFvRKNS0_22RestartOperationResultEEEN7openpal6LoggerERKNS0_10TaskConfigEEUlS2_E_E10_M_managerERSt9_Any_dataRKSN_St18_Manager_operation, @function
_ZNSt17_Function_handlerIFbRN8opendnp312HeaderWriterEEZNS0_20RestartOperationTaskC4ERNS0_18IMasterApplicationENS0_11RestartTypeERKSt8functionIFvRKNS0_22RestartOperationResultEEEN7openpal6LoggerERKNS0_10TaskConfigEEUlS2_E_E10_M_managerERSt9_Any_dataRKSN_St18_Manager_operation:
.LFB3106:
	.cfi_startproc
	endbr64
	testl	%edx, %edx
	je	.L15
	cmpl	$1, %edx
	jne	.L17
	movq	%rsi, (%rdi)
.L17:
	xorl	%eax, %eax
	ret
	.p2align 4,,10
	.p2align 3
.L15:
	leaq	_ZTIZN8opendnp320RestartOperationTaskC4ERNS_18IMasterApplicationENS_11RestartTypeERKSt8functionIFvRKNS_22RestartOperationResultEEEN7openpal6LoggerERKNS_10TaskConfigEEUlRNS_12HeaderWriterEE_(%rip), %rax
	movq	%rax, (%rdi)
	xorl	%eax, %eax
	ret
	.cfi_endproc
.LFE3106:
	.size	_ZNSt17_Function_handlerIFbRN8opendnp312HeaderWriterEEZNS0_20RestartOperationTaskC4ERNS0_18IMasterApplicationENS0_11RestartTypeERKSt8functionIFvRKNS0_22RestartOperationResultEEEN7openpal6LoggerERKNS0_10TaskConfigEEUlS2_E_E10_M_managerERSt9_Any_dataRKSN_St18_Manager_operation, .-_ZNSt17_Function_handlerIFbRN8opendnp312HeaderWriterEEZNS0_20RestartOperationTaskC4ERNS0_18IMasterApplicationENS0_11RestartTypeERKSt8functionIFvRKNS0_22RestartOperationResultEEEN7openpal6LoggerERKNS0_10TaskConfigEEUlS2_E_E10_M_managerERSt9_Any_dataRKSN_St18_Manager_operation
	.section	.text._ZN8opendnp314FunctorVisitorINS_11Group52Var2EZNKS_11ICollectionIS1_E13ReadOnlyValueERS1_EUlRKS1_E_E7OnValueES6_,"axG",@progbits,_ZN8opendnp314FunctorVisitorINS_11Group52Var2EZNKS_11ICollectionIS1_E13ReadOnlyValueERS1_EUlRKS1_E_E7OnValueES6_,comdat
	.align 2
	.p2align 4
	.weak	_ZN8opendnp314FunctorVisitorINS_11Group52Var2EZNKS_11ICollectionIS1_E13ReadOnlyValueERS1_EUlRKS1_E_E7OnValueES6_
	.type	_ZN8opendnp314FunctorVisitorINS_11Group52Var2EZNKS_11ICollectionIS1_E13ReadOnlyValueERS1_EUlRKS1_E_E7OnValueES6_, @function
_ZN8opendnp314FunctorVisitorINS_11Group52Var2EZNKS_11ICollectionIS1_E13ReadOnlyValueERS1_EUlRKS1_E_E7OnValueES6_:
.LFB3399:
	.cfi_startproc
	endbr64
	movq	8(%rdi), %rax
	movzwl	(%rsi), %edx
	movw	%dx, (%rax)
	ret
	.cfi_endproc
.LFE3399:
	.size	_ZN8opendnp314FunctorVisitorINS_11Group52Var2EZNKS_11ICollectionIS1_E13ReadOnlyValueERS1_EUlRKS1_E_E7OnValueES6_, .-_ZN8opendnp314FunctorVisitorINS_11Group52Var2EZNKS_11ICollectionIS1_E13ReadOnlyValueERS1_EUlRKS1_E_E7OnValueES6_
	.section	.text._ZN8opendnp314FunctorVisitorINS_11Group52Var1EZNKS_11ICollectionIS1_E13ReadOnlyValueERS1_EUlRKS1_E_E7OnValueES6_,"axG",@progbits,_ZN8opendnp314FunctorVisitorINS_11Group52Var1EZNKS_11ICollectionIS1_E13ReadOnlyValueERS1_EUlRKS1_E_E7OnValueES6_,comdat
	.align 2
	.p2align 4
	.weak	_ZN8opendnp314FunctorVisitorINS_11Group52Var1EZNKS_11ICollectionIS1_E13ReadOnlyValueERS1_EUlRKS1_E_E7OnValueES6_
	.type	_ZN8opendnp314FunctorVisitorINS_11Group52Var1EZNKS_11ICollectionIS1_E13ReadOnlyValueERS1_EUlRKS1_E_E7OnValueES6_, @function
_ZN8opendnp314FunctorVisitorINS_11Group52Var1EZNKS_11ICollectionIS1_E13ReadOnlyValueERS1_EUlRKS1_E_E7OnValueES6_:
.LFB3400:
	.cfi_startproc
	endbr64
	movq	8(%rdi), %rax
	movzwl	(%rsi), %edx
	movw	%dx, (%rax)
	ret
	.cfi_endproc
.LFE3400:
	.size	_ZN8opendnp314FunctorVisitorINS_11Group52Var1EZNKS_11ICollectionIS1_E13ReadOnlyValueERS1_EUlRKS1_E_E7OnValueES6_, .-_ZN8opendnp314FunctorVisitorINS_11Group52Var1EZNKS_11ICollectionIS1_E13ReadOnlyValueERS1_EUlRKS1_E_E7OnValueES6_
	.text
	.align 2
	.p2align 4
	.globl	_ZNK8opendnp320RestartOperationTask4NameEv
	.type	_ZNK8opendnp320RestartOperationTask4NameEv, @function
_ZNK8opendnp320RestartOperationTask4NameEv:
.LFB2653:
	.cfi_startproc
	endbr64
	movzbl	88(%rdi), %edi
	jmp	_ZN8opendnp320FunctionCodeToStringENS_12FunctionCodeE@PLT
	.cfi_endproc
.LFE2653:
	.size	_ZNK8opendnp320RestartOperationTask4NameEv, .-_ZNK8opendnp320RestartOperationTask4NameEv
	.align 2
	.p2align 4
	.globl	_ZN8opendnp320RestartOperationTask14OnTaskCompleteENS_14TaskCompletionEN7openpal18MonotonicTimestampE
	.type	_ZN8opendnp320RestartOperationTask14OnTaskCompleteENS_14TaskCompletionEN7openpal18MonotonicTimestampE, @function
_ZN8opendnp320RestartOperationTask14OnTaskCompleteENS_14TaskCompletionEN7openpal18MonotonicTimestampE:
.LFB2658:
	.cfi_startproc
	endbr64
	pushq	%rbp
	.cfi_def_cfa_offset 16
	.cfi_offset 6, -16
	movl	%esi, %ebp
	pushq	%rbx
	.cfi_def_cfa_offset 24
	.cfi_offset 3, -24
	movq	%rdi, %rbx
	subq	$-128, %rdi
	subq	$56, %rsp
	.cfi_def_cfa_offset 80
	movq	%fs:40, %rax
	movq	%rax, 40(%rsp)
	xorl	%eax, %eax
	call	_ZNK8opendnp312IAPDUHandler6ErrorsEv@PLT
	movzbl	%ah, %edx
	orb	%al, %dl
	movq	184(%rbx), %rax
	je	.L22
	cmpq	$0, 168(%rbx)
	movb	$1, (%rsp)
	movq	%rax, 8(%rsp)
	je	.L25
	movq	%rsp, %rsi
	leaq	152(%rbx), %rdi
	call	*176(%rbx)
	jmp	.L24
	.p2align 4,,10
	.p2align 3
.L22:
	cmpq	$0, 168(%rbx)
	movb	%bpl, 16(%rsp)
	movq	%rax, 24(%rsp)
	je	.L25
	leaq	16(%rsp), %rsi
	leaq	152(%rbx), %rdi
	call	*176(%rbx)
.L24:
	call	_ZN7openpal18MonotonicTimestamp3MaxEv@PLT
	movq	%rax, %rdx
	movq	40(%rsp), %rax
	subq	%fs:40, %rax
	jne	.L28
	addq	$56, %rsp
	.cfi_remember_state
	.cfi_def_cfa_offset 24
	xorl	%eax, %eax
	popq	%rbx
	.cfi_def_cfa_offset 16
	popq	%rbp
	.cfi_def_cfa_offset 8
	ret
.L25:
	.cfi_restore_state
	call	_ZSt25__throw_bad_function_callv@PLT
.L28:
	call	__stack_chk_fail@PLT
	.cfi_endproc
.LFE2658:
	.size	_ZN8opendnp320RestartOperationTask14OnTaskCompleteENS_14TaskCompletionEN7openpal18MonotonicTimestampE, .-_ZN8opendnp320RestartOperationTask14OnTaskCompleteENS_14TaskCompletionEN7openpal18MonotonicTimestampE
	.align 2
	.p2align 4
	.globl	_ZN8opendnp320RestartOperationTask15ProcessResponseERKNS_18APDUResponseHeaderERKN7openpal6RSliceE
	.type	_ZN8opendnp320RestartOperationTask15ProcessResponseERKNS_18APDUResponseHeaderERKN7openpal6RSliceE, @function
_ZN8opendnp320RestartOperationTask15ProcessResponseERKNS_18APDUResponseHeaderERKN7openpal6RSliceE:
.LFB2654:
	.cfi_startproc
	endbr64
	pushq	%r12
	.cfi_def_cfa_offset 16
	.cfi_offset 12, -16
	movq	%rdx, %r12
	pushq	%rbp
	.cfi_def_cfa_offset 24
	.cfi_offset 6, -24
	movq	%rsi, %rbp
	pushq	%rbx
	.cfi_def_cfa_offset 32
	.cfi_offset 3, -32
	movq	%rdi, %rbx
	call	_ZN8opendnp311IMasterTask22ValidateSingleResponseERKNS_18APDUResponseHeaderE@PLT
	testb	%al, %al
	jne	.L30
.L32:
	popq	%rbx
	.cfi_remember_state
	.cfi_def_cfa_offset 24
	xorl	%eax, %eax
	popq	%rbp
	.cfi_def_cfa_offset 16
	popq	%r12
	.cfi_def_cfa_offset 8
	ret
	.p2align 4,,10
	.p2align 3
.L30:
	.cfi_restore_state
	movq	%rbp, %rsi
	movq	%rbx, %rdi
	call	_ZN8opendnp311IMasterTask27ValidateInternalIndicationsERKNS_18APDUResponseHeaderE@PLT
	testb	%al, %al
	je	.L32
	movl	(%r12), %eax
	testl	%eax, %eax
	je	.L32
	leaq	16(%rbx), %rdx
	movq	%r12, %rdi
	leaq	128(%rbx), %rsi
	movabsq	$35184372088833, %rcx
	call	_ZN8opendnp310APDUParser5ParseERKN7openpal6RSliceERNS_12IAPDUHandlerEPNS1_6LoggerENS_14ParserSettingsE@PLT
	popq	%rbx
	.cfi_def_cfa_offset 24
	popq	%rbp
	.cfi_def_cfa_offset 16
	testb	%al, %al
	popq	%r12
	.cfi_def_cfa_offset 8
	sete	%al
	addl	%eax, %eax
	ret
	.cfi_endproc
.LFE2654:
	.size	_ZN8opendnp320RestartOperationTask15ProcessResponseERKNS_18APDUResponseHeaderERKN7openpal6RSliceE, .-_ZN8opendnp320RestartOperationTask15ProcessResponseERKNS_18APDUResponseHeaderERKN7openpal6RSliceE
	.align 2
	.p2align 4
	.globl	_ZN8opendnp320RestartOperationTask13ProcessHeaderERKNS_11CountHeaderERKNS_11ICollectionINS_11Group52Var1EEE
	.type	_ZN8opendnp320RestartOperationTask13ProcessHeaderERKNS_11CountHeaderERKNS_11ICollectionINS_11Group52Var1EEE, @function
_ZN8opendnp320RestartOperationTask13ProcessHeaderERKNS_11CountHeaderERKNS_11ICollectionINS_11Group52Var1EEE:
.LFB2655:
	.cfi_startproc
	endbr64
	pushq	%rbp
	.cfi_def_cfa_offset 16
	.cfi_offset 6, -16
	movq	%rdx, %rbp
	pushq	%rbx
	.cfi_def_cfa_offset 24
	.cfi_offset 3, -24
	movq	%rdi, %rbx
	subq	$72, %rsp
	.cfi_def_cfa_offset 96
	movq	%fs:40, %rax
	movq	%rax, 56(%rsp)
	xorl	%eax, %eax
	movq	_ZTVN8opendnp314FunctorVisitorINS_11Group52Var1EZNKS_11ICollectionIS1_E13ReadOnlyValueERS1_EUlRKS1_E_EE@GOTPCREL(%rip), %rax
	leaq	30(%rsp), %rdi
	movq	%rdi, %xmm1
	addq	$16, %rax
	movq	%rax, %xmm0
	punpcklqdq	%xmm1, %xmm0
	movaps	%xmm0, (%rsp)
	call	_ZN8opendnp311Group52Var1C1Ev@PLT
	movq	0(%rbp), %rax
	movq	%rbp, %rdi
	call	*(%rax)
	cmpq	$1, %rax
	je	.L38
	xorl	%eax, %eax
	leaq	32(%rsp), %rdi
	movl	$10, %esi
	movw	%ax, 32(%rsp)
	call	_ZN8opendnp38IINField6SetBitENS_6IINBitE@PLT
	movzwl	32(%rsp), %eax
.L39:
	movq	56(%rsp), %rdx
	subq	%fs:40, %rdx
	jne	.L42
	addq	$72, %rsp
	.cfi_remember_state
	.cfi_def_cfa_offset 24
	popq	%rbx
	.cfi_def_cfa_offset 16
	popq	%rbp
	.cfi_def_cfa_offset 8
	ret
	.p2align 4,,10
	.p2align 3
.L38:
	.cfi_restore_state
	movdqa	(%rsp), %xmm2
	movq	0(%rbp), %rax
	leaq	32(%rsp), %rsi
	movq	%rbp, %rdi
	movaps	%xmm2, 32(%rsp)
	call	*8(%rax)
	movzwl	30(%rsp), %edi
	call	_ZN7openpal12TimeDuration7SecondsEl@PLT
	movq	%rax, 184(%rbx)
	xorl	%eax, %eax
	jmp	.L39
.L42:
	call	__stack_chk_fail@PLT
	.cfi_endproc
.LFE2655:
	.size	_ZN8opendnp320RestartOperationTask13ProcessHeaderERKNS_11CountHeaderERKNS_11ICollectionINS_11Group52Var1EEE, .-_ZN8opendnp320RestartOperationTask13ProcessHeaderERKNS_11CountHeaderERKNS_11ICollectionINS_11Group52Var1EEE
	.align 2
	.p2align 4
	.globl	_ZN8opendnp320RestartOperationTask13ProcessHeaderERKNS_11CountHeaderERKNS_11ICollectionINS_11Group52Var2EEE
	.type	_ZN8opendnp320RestartOperationTask13ProcessHeaderERKNS_11CountHeaderERKNS_11ICollectionINS_11Group52Var2EEE, @function
_ZN8opendnp320RestartOperationTask13ProcessHeaderERKNS_11CountHeaderERKNS_11ICollectionINS_11Group52Var2EEE:
.LFB2656:
	.cfi_startproc
	endbr64
	pushq	%rbp
	.cfi_def_cfa_offset 16
	.cfi_offset 6, -16
	movq	%rdx, %rbp
	pushq	%rbx
	.cfi_def_cfa_offset 24
	.cfi_offset 3, -24
	movq	%rdi, %rbx
	subq	$72, %rsp
	.cfi_def_cfa_offset 96
	movq	%fs:40, %rax
	movq	%rax, 56(%rsp)
	xorl	%eax, %eax
	movq	_ZTVN8opendnp314FunctorVisitorINS_11Group52Var2EZNKS_11ICollectionIS1_E13ReadOnlyValueERS1_EUlRKS1_E_EE@GOTPCREL(%rip), %rax
	leaq	30(%rsp), %rdi
	movq	%rdi, %xmm1
	addq	$16, %rax
	movq	%rax, %xmm0
	punpcklqdq	%xmm1, %xmm0
	movaps	%xmm0, (%rsp)
	call	_ZN8opendnp311Group52Var2C1Ev@PLT
	movq	0(%rbp), %rax
	movq	%rbp, %rdi
	call	*(%rax)
	cmpq	$1, %rax
	je	.L44
	xorl	%eax, %eax
	leaq	32(%rsp), %rdi
	movl	$10, %esi
	movw	%ax, 32(%rsp)
	call	_ZN8opendnp38IINField6SetBitENS_6IINBitE@PLT
	movzwl	32(%rsp), %eax
.L45:
	movq	56(%rsp), %rdx
	subq	%fs:40, %rdx
	jne	.L48
	addq	$72, %rsp
	.cfi_remember_state
	.cfi_def_cfa_offset 24
	popq	%rbx
	.cfi_def_cfa_offset 16
	popq	%rbp
	.cfi_def_cfa_offset 8
	ret
	.p2align 4,,10
	.p2align 3
.L44:
	.cfi_restore_state
	movdqa	(%rsp), %xmm2
	movq	0(%rbp), %rax
	leaq	32(%rsp), %rsi
	movq	%rbp, %rdi
	movaps	%xmm2, 32(%rsp)
	call	*8(%rax)
	movzwl	30(%rsp), %edi
	call	_ZN7openpal12TimeDuration12MillisecondsEl@PLT
	movq	%rax, 184(%rbx)
	xorl	%eax, %eax
	jmp	.L45
.L48:
	call	__stack_chk_fail@PLT
	.cfi_endproc
.LFE2656:
	.size	_ZN8opendnp320RestartOperationTask13ProcessHeaderERKNS_11CountHeaderERKNS_11ICollectionINS_11Group52Var2EEE, .-_ZN8opendnp320RestartOperationTask13ProcessHeaderERKNS_11CountHeaderERKNS_11ICollectionINS_11Group52Var2EEE
	.p2align 4
	.globl	_ZThn128_N8opendnp320RestartOperationTask9IsAllowedEjNS_14GroupVariationENS_13QualifierCodeE
	.type	_ZThn128_N8opendnp320RestartOperationTask9IsAllowedEjNS_14GroupVariationENS_13QualifierCodeE, @function
_ZThn128_N8opendnp320RestartOperationTask9IsAllowedEjNS_14GroupVariationENS_13QualifierCodeE:
.LFB3414:
	.cfi_startproc
	endbr64
	xorl	%eax, %eax
	testl	%esi, %esi
	jne	.L49
	subw	$13313, %dx
	cmpw	$1, %dx
	setbe	%al
.L49:
	ret
	.cfi_endproc
.LFE3414:
	.size	_ZThn128_N8opendnp320RestartOperationTask9IsAllowedEjNS_14GroupVariationENS_13QualifierCodeE, .-_ZThn128_N8opendnp320RestartOperationTask9IsAllowedEjNS_14GroupVariationENS_13QualifierCodeE
	.section	.text._ZN8opendnp320RestartOperationTaskD2Ev,"axG",@progbits,_ZN8opendnp320RestartOperationTaskD5Ev,comdat
	.align 2
	.p2align 4
	.weak	_ZN8opendnp320RestartOperationTaskD2Ev
	.type	_ZN8opendnp320RestartOperationTaskD2Ev, @function
_ZN8opendnp320RestartOperationTaskD2Ev:
.LFB3373:
	.cfi_startproc
	.cfi_personality 0x9b,DW.ref.__gxx_personality_v0
	.cfi_lsda 0x1b,.LLSDA3373
	endbr64
	movq	_ZTVN8opendnp320RestartOperationTaskE@GOTPCREL(%rip), %rax
	pushq	%rbp
	.cfi_def_cfa_offset 16
	.cfi_offset 6, -16
	movq	%rdi, %rbp
	leaq	16(%rax), %rdx
	addq	$160, %rax
	movq	%rax, 128(%rdi)
	movq	168(%rdi), %rax
	movq	%rdx, (%rdi)
	testq	%rax, %rax
	je	.L53
	leaq	152(%rdi), %rdi
	movl	$3, %edx
	movq	%rdi, %rsi
	call	*%rax
.L53:
	movq	_ZTVN8opendnp321SimpleRequestTaskBaseE@GOTPCREL(%rip), %rax
	addq	$16, %rax
	movq	%rax, 0(%rbp)
	movq	112(%rbp), %rax
	testq	%rax, %rax
	je	.L54
	leaq	96(%rbp), %rdi
	movl	$3, %edx
	movq	%rdi, %rsi
	call	*%rax
.L54:
	movq	%rbp, %rdi
	popq	%rbp
	.cfi_def_cfa_offset 8
	jmp	_ZN8opendnp311IMasterTaskD2Ev@PLT
	.cfi_endproc
.LFE3373:
	.globl	__gxx_personality_v0
	.section	.gcc_except_table._ZN8opendnp320RestartOperationTaskD2Ev,"aG",@progbits,_ZN8opendnp320RestartOperationTaskD5Ev,comdat
.LLSDA3373:
	.byte	0xff
	.byte	0xff
	.byte	0x1
	.uleb128 .LLSDACSE3373-.LLSDACSB3373
.LLSDACSB3373:
.LLSDACSE3373:
	.section	.text._ZN8opendnp320RestartOperationTaskD2Ev,"axG",@progbits,_ZN8opendnp320RestartOperationTaskD5Ev,comdat
	.size	_ZN8opendnp320RestartOperationTaskD2Ev, .-_ZN8opendnp320RestartOperationTaskD2Ev
	.weak	_ZN8opendnp320RestartOperationTaskD1Ev
	.set	_ZN8opendnp320RestartOperationTaskD1Ev,_ZN8opendnp320RestartOperationTaskD2Ev
	.section	.text._ZN8opendnp320RestartOperationTaskD0Ev,"axG",@progbits,_ZN8opendnp320RestartOperationTaskD5Ev,comdat
	.align 2
	.p2align 4
	.weak	_ZN8opendnp320RestartOperationTaskD0Ev
	.type	_ZN8opendnp320RestartOperationTaskD0Ev, @function
_ZN8opendnp320RestartOperationTaskD0Ev:
.LFB3375:
	.cfi_startproc
	.cfi_personality 0x9b,DW.ref.__gxx_personality_v0
	.cfi_lsda 0x1b,.LLSDA3375
	endbr64
	movq	_ZTVN8opendnp320RestartOperationTaskE@GOTPCREL(%rip), %rax
	pushq	%rbp
	.cfi_def_cfa_offset 16
	.cfi_offset 6, -16
	movq	%rdi, %rbp
	leaq	16(%rax), %rdx
	addq	$160, %rax
	movq	%rax, 128(%rdi)
	movq	168(%rdi), %rax
	movq	%rdx, (%rdi)
	testq	%rax, %rax
	je	.L63
	leaq	152(%rdi), %rdi
	movl	$3, %edx
	movq	%rdi, %rsi
	call	*%rax
.L63:
	movq	_ZTVN8opendnp321SimpleRequestTaskBaseE@GOTPCREL(%rip), %rax
	addq	$16, %rax
	movq	%rax, 0(%rbp)
	movq	112(%rbp), %rax
	testq	%rax, %rax
	je	.L64
	leaq	96(%rbp), %rdi
	movl	$3, %edx
	movq	%rdi, %rsi
	call	*%rax
.L64:
	movq	%rbp, %rdi
	call	_ZN8opendnp311IMasterTaskD2Ev@PLT
	movq	%rbp, %rdi
	movl	$192, %esi
	popq	%rbp
	.cfi_def_cfa_offset 8
	jmp	_ZdlPvm@PLT
	.cfi_endproc
.LFE3375:
	.section	.gcc_except_table._ZN8opendnp320RestartOperationTaskD0Ev,"aG",@progbits,_ZN8opendnp320RestartOperationTaskD5Ev,comdat
.LLSDA3375:
	.byte	0xff
	.byte	0xff
	.byte	0x1
	.uleb128 .LLSDACSE3375-.LLSDACSB3375
.LLSDACSB3375:
.LLSDACSE3375:
	.section	.text._ZN8opendnp320RestartOperationTaskD0Ev,"axG",@progbits,_ZN8opendnp320RestartOperationTaskD5Ev,comdat
	.size	_ZN8opendnp320RestartOperationTaskD0Ev, .-_ZN8opendnp320RestartOperationTaskD0Ev
	.text
	.p2align 4
	.globl	_ZThn128_N8opendnp320RestartOperationTask13ProcessHeaderERKNS_11CountHeaderERKNS_11ICollectionINS_11Group52Var1EEE
	.type	_ZThn128_N8opendnp320RestartOperationTask13ProcessHeaderERKNS_11CountHeaderERKNS_11ICollectionINS_11Group52Var1EEE, @function
_ZThn128_N8opendnp320RestartOperationTask13ProcessHeaderERKNS_11CountHeaderERKNS_11ICollectionINS_11Group52Var1EEE:
.LFB3415:
	.cfi_startproc
	endbr64
	pushq	%rbp
	.cfi_def_cfa_offset 16
	.cfi_offset 6, -16
	movq	%rdx, %rbp
	pushq	%rbx
	.cfi_def_cfa_offset 24
	.cfi_offset 3, -24
	movq	%rdi, %rbx
	subq	$72, %rsp
	.cfi_def_cfa_offset 96
	movq	%fs:40, %rax
	movq	%rax, 56(%rsp)
	xorl	%eax, %eax
	movq	_ZTVN8opendnp314FunctorVisitorINS_11Group52Var1EZNKS_11ICollectionIS1_E13ReadOnlyValueERS1_EUlRKS1_E_EE@GOTPCREL(%rip), %rax
	leaq	30(%rsp), %rdi
	movq	%rdi, %xmm1
	addq	$16, %rax
	movq	%rax, %xmm0
	punpcklqdq	%xmm1, %xmm0
	movaps	%xmm0, (%rsp)
	call	_ZN8opendnp311Group52Var1C1Ev@PLT
	movq	0(%rbp), %rax
	movq	%rbp, %rdi
	call	*(%rax)
	cmpq	$1, %rax
	je	.L73
	xorl	%eax, %eax
	leaq	32(%rsp), %rdi
	movl	$10, %esi
	movw	%ax, 32(%rsp)
	call	_ZN8opendnp38IINField6SetBitENS_6IINBitE@PLT
	movzwl	32(%rsp), %eax
.L74:
	movq	56(%rsp), %rdx
	subq	%fs:40, %rdx
	jne	.L77
	addq	$72, %rsp
	.cfi_remember_state
	.cfi_def_cfa_offset 24
	popq	%rbx
	.cfi_def_cfa_offset 16
	popq	%rbp
	.cfi_def_cfa_offset 8
	ret
	.p2align 4,,10
	.p2align 3
.L73:
	.cfi_restore_state
	movdqa	(%rsp), %xmm2
	movq	0(%rbp), %rax
	leaq	32(%rsp), %rsi
	movq	%rbp, %rdi
	movaps	%xmm2, 32(%rsp)
	call	*8(%rax)
	movzwl	30(%rsp), %edi
	call	_ZN7openpal12TimeDuration7SecondsEl@PLT
	movq	%rax, 56(%rbx)
	xorl	%eax, %eax
	jmp	.L74
.L77:
	call	__stack_chk_fail@PLT
	.cfi_endproc
.LFE3415:
	.size	_ZThn128_N8opendnp320RestartOperationTask13ProcessHeaderERKNS_11CountHeaderERKNS_11ICollectionINS_11Group52Var1EEE, .-_ZThn128_N8opendnp320RestartOperationTask13ProcessHeaderERKNS_11CountHeaderERKNS_11ICollectionINS_11Group52Var1EEE
	.p2align 4
	.globl	_ZThn128_N8opendnp320RestartOperationTask13ProcessHeaderERKNS_11CountHeaderERKNS_11ICollectionINS_11Group52Var2EEE
	.type	_ZThn128_N8opendnp320RestartOperationTask13ProcessHeaderERKNS_11CountHeaderERKNS_11ICollectionINS_11Group52Var2EEE, @function
_ZThn128_N8opendnp320RestartOperationTask13ProcessHeaderERKNS_11CountHeaderERKNS_11ICollectionINS_11Group52Var2EEE:
.LFB3416:
	.cfi_startproc
	endbr64
	pushq	%rbp
	.cfi_def_cfa_offset 16
	.cfi_offset 6, -16
	movq	%rdx, %rbp
	pushq	%rbx
	.cfi_def_cfa_offset 24
	.cfi_offset 3, -24
	movq	%rdi, %rbx
	subq	$72, %rsp
	.cfi_def_cfa_offset 96
	movq	%fs:40, %rax
	movq	%rax, 56(%rsp)
	xorl	%eax, %eax
	movq	_ZTVN8opendnp314FunctorVisitorINS_11Group52Var2EZNKS_11ICollectionIS1_E13ReadOnlyValueERS1_EUlRKS1_E_EE@GOTPCREL(%rip), %rax
	leaq	30(%rsp), %rdi
	movq	%rdi, %xmm1
	addq	$16, %rax
	movq	%rax, %xmm0
	punpcklqdq	%xmm1, %xmm0
	movaps	%xmm0, (%rsp)
	call	_ZN8opendnp311Group52Var2C1Ev@PLT
	movq	0(%rbp), %rax
	movq	%rbp, %rdi
	call	*(%rax)
	cmpq	$1, %rax
	je	.L79
	xorl	%eax, %eax
	leaq	32(%rsp), %rdi
	movl	$10, %esi
	movw	%ax, 32(%rsp)
	call	_ZN8opendnp38IINField6SetBitENS_6IINBitE@PLT
	movzwl	32(%rsp), %eax
.L80:
	movq	56(%rsp), %rdx
	subq	%fs:40, %rdx
	jne	.L83
	addq	$72, %rsp
	.cfi_remember_state
	.cfi_def_cfa_offset 24
	popq	%rbx
	.cfi_def_cfa_offset 16
	popq	%rbp
	.cfi_def_cfa_offset 8
	ret
	.p2align 4,,10
	.p2align 3
.L79:
	.cfi_restore_state
	movdqa	(%rsp), %xmm2
	movq	0(%rbp), %rax
	leaq	32(%rsp), %rsi
	movq	%rbp, %rdi
	movaps	%xmm2, 32(%rsp)
	call	*8(%rax)
	movzwl	30(%rsp), %edi
	call	_ZN7openpal12TimeDuration12MillisecondsEl@PLT
	movq	%rax, 56(%rbx)
	xorl	%eax, %eax
	jmp	.L80
.L83:
	call	__stack_chk_fail@PLT
	.cfi_endproc
.LFE3416:
	.size	_ZThn128_N8opendnp320RestartOperationTask13ProcessHeaderERKNS_11CountHeaderERKNS_11ICollectionINS_11Group52Var2EEE, .-_ZThn128_N8opendnp320RestartOperationTask13ProcessHeaderERKNS_11CountHeaderERKNS_11ICollectionINS_11Group52Var2EEE
	.section	.text._ZN7openpal6LoggerD2Ev,"axG",@progbits,_ZN7openpal6LoggerD5Ev,comdat
	.align 2
	.p2align 4
	.weak	_ZN7openpal6LoggerD2Ev
	.type	_ZN7openpal6LoggerD2Ev, @function
_ZN7openpal6LoggerD2Ev:
.LFB2070:
	.cfi_startproc
	endbr64
	pushq	%r12
	.cfi_def_cfa_offset 16
	.cfi_offset 12, -16
	pushq	%rbp
	.cfi_def_cfa_offset 24
	.cfi_offset 6, -24
	pushq	%rbx
	.cfi_def_cfa_offset 32
	.cfi_offset 3, -32
	movq	24(%rdi), %rbp
	movq	%rdi, %rbx
	testq	%rbp, %rbp
	je	.L86
	movq	__libc_single_threaded@GOTPCREL(%rip), %r12
	cmpb	$0, (%r12)
	je	.L87
	movl	8(%rbp), %eax
	leal	-1(%rax), %edx
	movl	%edx, 8(%rbp)
.L88:
	cmpl	$1, %eax
	je	.L100
.L86:
	movq	8(%rbx), %rbp
	testq	%rbp, %rbp
	je	.L84
	movq	__libc_single_threaded@GOTPCREL(%rip), %r12
	cmpb	$0, (%r12)
	je	.L94
	movl	8(%rbp), %eax
	leal	-1(%rax), %edx
	movl	%edx, 8(%rbp)
.L95:
	cmpl	$1, %eax
	je	.L101
.L84:
	popq	%rbx
	.cfi_remember_state
	.cfi_def_cfa_offset 24
	popq	%rbp
	.cfi_def_cfa_offset 16
	popq	%r12
	.cfi_def_cfa_offset 8
	ret
	.p2align 4,,10
	.p2align 3
.L100:
	.cfi_restore_state
	movq	0(%rbp), %rax
	movq	%rbp, %rdi
	call	*16(%rax)
	cmpb	$0, (%r12)
	je	.L90
	movl	12(%rbp), %eax
	leal	-1(%rax), %edx
	movl	%edx, 12(%rbp)
.L91:
	cmpl	$1, %eax
	jne	.L86
	movq	0(%rbp), %rax
	movq	%rbp, %rdi
	call	*24(%rax)
	jmp	.L86
	.p2align 4,,10
	.p2align 3
.L101:
	movq	0(%rbp), %rax
	movq	%rbp, %rdi
	call	*16(%rax)
	cmpb	$0, (%r12)
	je	.L97
	movl	12(%rbp), %eax
	leal	-1(%rax), %edx
	movl	%edx, 12(%rbp)
.L98:
	cmpl	$1, %eax
	jne	.L84
	movq	0(%rbp), %rax
	popq	%rbx
	.cfi_remember_state
	.cfi_def_cfa_offset 24
	movq	%rbp, %rdi
	popq	%rbp
	.cfi_def_cfa_offset 16
	popq	%r12
	.cfi_def_cfa_offset 8
	movq	24(%rax), %rax
	jmp	*%rax
	.p2align 4,,10
	.p2align 3
.L94:
	.cfi_restore_state
	movl	$-1, %eax
	lock xaddl	%eax, 8(%rbp)
	jmp	.L95
	.p2align 4,,10
	.p2align 3
.L87:
	movl	$-1, %eax
	lock xaddl	%eax, 8(%rbp)
	jmp	.L88
	.p2align 4,,10
	.p2align 3
.L90:
	movl	$-1, %eax
	lock xaddl	%eax, 12(%rbp)
	jmp	.L91
	.p2align 4,,10
	.p2align 3
.L97:
	movl	$-1, %eax
	lock xaddl	%eax, 12(%rbp)
	jmp	.L98
	.cfi_endproc
.LFE2070:
	.size	_ZN7openpal6LoggerD2Ev, .-_ZN7openpal6LoggerD2Ev
	.weak	_ZN7openpal6LoggerD1Ev
	.set	_ZN7openpal6LoggerD1Ev,_ZN7openpal6LoggerD2Ev
	.text
	.align 2
	.p2align 4
	.globl	_ZN8opendnp320RestartOperationTask14ToFunctionCodeENS_11RestartTypeE
	.type	_ZN8opendnp320RestartOperationTask14ToFunctionCodeENS_11RestartTypeE, @function
_ZN8opendnp320RestartOperationTask14ToFunctionCodeENS_11RestartTypeE:
.LFB2657:
	.cfi_startproc
	endbr64
	cmpb	$1, %dil
	movl	$13, %eax
	sbbb	$-1, %al
	ret
	.cfi_endproc
.LFE2657:
	.size	_ZN8opendnp320RestartOperationTask14ToFunctionCodeENS_11RestartTypeE, .-_ZN8opendnp320RestartOperationTask14ToFunctionCodeENS_11RestartTypeE
	.section	.text.unlikely,"ax",@progbits
	.align 2
.LCOLDB0:
	.text
.LHOTB0:
	.align 2
	.p2align 4
	.globl	_ZN8opendnp320RestartOperationTaskC2ERNS_18IMasterApplicationENS_11RestartTypeERKSt8functionIFvRKNS_22RestartOperationResultEEEN7openpal6LoggerERKNS_10TaskConfigE
	.type	_ZN8opendnp320RestartOperationTaskC2ERNS_18IMasterApplicationENS_11RestartTypeERKSt8functionIFvRKNS_22RestartOperationResultEEEN7openpal6LoggerERKNS_10TaskConfigE, @function
_ZN8opendnp320RestartOperationTaskC2ERNS_18IMasterApplicationENS_11RestartTypeERKSt8functionIFvRKNS_22RestartOperationResultEEEN7openpal6LoggerERKNS_10TaskConfigE:
.LFB2650:
	.cfi_startproc
	.cfi_personality 0x9b,DW.ref.__gxx_personality_v0
	.cfi_lsda 0x1b,.LLSDA2650
	endbr64
	pushq	%rbp
	.cfi_def_cfa_offset 16
	.cfi_offset 6, -16
	movq	%rsp, %rbp
	.cfi_def_cfa_register 6
	pushq	%r15
	pushq	%r14
	pushq	%r13
	.cfi_offset 15, -24
	.cfi_offset 14, -32
	.cfi_offset 13, -40
	movq	%r9, %r13
	pushq	%r12
	.cfi_offset 12, -48
	movq	%rsi, %r12
	pushq	%rbx
	.cfi_offset 3, -56
	movq	%rcx, %rbx
	subq	$120, %rsp
	movq	%rdi, -136(%rbp)
	movdqu	(%r8), %xmm1
	movl	%edx, %edi
	movq	%fs:40, %rax
	movq	%rax, -56(%rbp)
	movq	8(%r8), %rax
	movaps	%xmm1, -128(%rbp)
	testq	%rax, %rax
	je	.L106
	movq	__libc_single_threaded@GOTPCREL(%rip), %rdx
	cmpb	$0, (%rdx)
	je	.L107
	addl	$1, 8(%rax)
.L106:
	movdqu	16(%r8), %xmm2
	movaps	%xmm2, -112(%rbp)
	movq	-104(%rbp), %rax
	testq	%rax, %rax
	je	.L108
	movq	__libc_single_threaded@GOTPCREL(%rip), %rdx
	cmpb	$0, (%rdx)
	je	.L109
	addl	$1, 8(%rax)
.L108:
	pxor	%xmm0, %xmm0
	leaq	_ZNSt17_Function_handlerIFbRN8opendnp312HeaderWriterEEZNS0_20RestartOperationTaskC4ERNS0_18IMasterApplicationENS0_11RestartTypeERKSt8functionIFvRKNS0_22RestartOperationResultEEEN7openpal6LoggerERKNS0_10TaskConfigEEUlS2_E_E9_M_invokeERKSt9_Any_dataS2_(%rip), %rax
	leaq	_ZNSt17_Function_handlerIFbRN8opendnp312HeaderWriterEEZNS0_20RestartOperationTaskC4ERNS0_18IMasterApplicationENS0_11RestartTypeERKSt8functionIFvRKNS0_22RestartOperationResultEEEN7openpal6LoggerERKNS0_10TaskConfigEEUlS2_E_E10_M_managerERSt9_Any_dataRKSN_St18_Manager_operation(%rip), %rcx
	movaps	%xmm0, -96(%rbp)
	movq	%rax, %xmm3
	movq	%rcx, %xmm0
	leaq	-128(%rbp), %r15
	punpcklqdq	%xmm3, %xmm0
	movaps	%xmm0, -80(%rbp)
.LEHB0:
	call	_ZN8opendnp320RestartOperationTask14ToFunctionCodeENS_11RestartTypeE@PLT
	subq	$8, %rsp
	leaq	-96(%rbp), %r14
	movl	%eax, %edx
	movq	%r15, %r9
	pushq	%r13
	movq	-136(%rbp), %rdi
	movq	%r14, %r8
	movq	%r12, %rsi
	movl	$110, %ecx
	.cfi_escape 0x2e,0x10
	call	_ZN8opendnp321SimpleRequestTaskBaseC2ERNS_18IMasterApplicationENS_12FunctionCodeEiRKSt8functionIFbRNS_12HeaderWriterEEEN7openpal6LoggerERKNS_10TaskConfigE@PLT
.LEHE0:
	popq	%rax
	movq	-80(%rbp), %rax
	popq	%rdx
	testq	%rax, %rax
	je	.L110
	movl	$3, %edx
	movq	%r14, %rsi
	movq	%r14, %rdi
	call	*%rax
.L110:
	movq	-104(%rbp), %r12
	testq	%r12, %r12
	je	.L112
	movq	__libc_single_threaded@GOTPCREL(%rip), %r13
	cmpb	$0, 0(%r13)
	je	.L113
	movl	8(%r12), %eax
	leal	-1(%rax), %edx
	movl	%edx, 8(%r12)
.L114:
	cmpl	$1, %eax
	je	.L166
.L112:
	movq	-120(%rbp), %r12
	testq	%r12, %r12
	je	.L119
	movq	__libc_single_threaded@GOTPCREL(%rip), %r13
	cmpb	$0, 0(%r13)
	je	.L120
	movl	8(%r12), %eax
	leal	-1(%rax), %edx
	movl	%edx, 8(%r12)
.L121:
	cmpl	$1, %eax
	je	.L167
.L119:
	movq	-136(%rbp), %r15
	leaq	128(%r15), %rdi
.LEHB1:
	.cfi_escape 0x2e,0
	call	_ZN8opendnp312IAPDUHandlerC2Ev@PLT
.LEHE1:
	movq	_ZTVN8opendnp320RestartOperationTaskE@GOTPCREL(%rip), %rax
	pxor	%xmm0, %xmm0
	movq	$0, 168(%r15)
	leaq	152(%r15), %r12
	movq	$0, 176(%r15)
	leaq	16(%rax), %rdx
	addq	$160, %rax
	movups	%xmm0, 152(%r15)
	movq	%rax, 128(%r15)
	movq	16(%rbx), %rax
	movq	%rdx, (%r15)
	testq	%rax, %rax
	je	.L125
	movl	$2, %edx
	movq	%rbx, %rsi
	movq	%r12, %rdi
.LEHB2:
	call	*%rax
.LEHE2:
	movdqu	16(%rbx), %xmm4
	movaps	%xmm4, -160(%rbp)
	movups	%xmm4, 168(%r15)
.L125:
.LEHB3:
	call	_ZN7openpal12TimeDuration3MinEv@PLT
.LEHE3:
	movq	-136(%rbp), %rbx
	movq	%rax, 184(%rbx)
	movq	-56(%rbp), %rax
	subq	%fs:40, %rax
	jne	.L168
	leaq	-40(%rbp), %rsp
	popq	%rbx
	popq	%r12
	popq	%r13
	popq	%r14
	popq	%r15
	popq	%rbp
	.cfi_remember_state
	.cfi_def_cfa 7, 8
	ret
	.p2align 4,,10
	.p2align 3
.L109:
	.cfi_restore_state
	lock addl	$1, 8(%rax)
	jmp	.L108
	.p2align 4,,10
	.p2align 3
.L107:
	lock addl	$1, 8(%rax)
	jmp	.L106
	.p2align 4,,10
	.p2align 3
.L166:
	movq	(%r12), %rax
	movq	%r12, %rdi
	call	*16(%rax)
	cmpb	$0, 0(%r13)
	je	.L116
	movl	12(%r12), %eax
	leal	-1(%rax), %edx
	movl	%edx, 12(%r12)
.L117:
	cmpl	$1, %eax
	jne	.L112
	movq	(%r12), %rax
	movq	%r12, %rdi
	call	*24(%rax)
	jmp	.L112
	.p2align 4,,10
	.p2align 3
.L167:
	movq	(%r12), %rax
	movq	%r12, %rdi
	call	*16(%rax)
	cmpb	$0, 0(%r13)
	je	.L123
	movl	12(%r12), %eax
	leal	-1(%rax), %edx
	movl	%edx, 12(%r12)
.L124:
	cmpl	$1, %eax
	jne	.L119
	movq	(%r12), %rax
	movq	%r12, %rdi
	call	*24(%rax)
	jmp	.L119
	.p2align 4,,10
	.p2align 3
.L113:
	movl	$-1, %eax
	lock xaddl	%eax, 8(%r12)
	jmp	.L114
	.p2align 4,,10
	.p2align 3
.L120:
	movl	$-1, %eax
	lock xaddl	%eax, 8(%r12)
	jmp	.L121
	.p2align 4,,10
	.p2align 3
.L123:
	movl	$-1, %eax
	lock xaddl	%eax, 12(%r12)
	jmp	.L124
	.p2align 4,,10
	.p2align 3
.L116:
	movl	$-1, %eax
	lock xaddl	%eax, 12(%r12)
	jmp	.L117
.L168:
	call	__stack_chk_fail@PLT
.L138:
	endbr64
	movq	%rax, %rbx
	jmp	.L132
.L139:
	endbr64
	movq	%rax, %rbx
	jmp	.L127
.L136:
	endbr64
	movq	%rax, %rbx
	jmp	.L130
.L137:
	endbr64
	movq	%rax, %rbx
	jmp	.L129
	.section	.gcc_except_table,"a",@progbits
.LLSDA2650:
	.byte	0xff
	.byte	0xff
	.byte	0x1
	.uleb128 .LLSDACSE2650-.LLSDACSB2650
.LLSDACSB2650:
	.uleb128 .LEHB0-.LFB2650
	.uleb128 .LEHE0-.LEHB0
	.uleb128 .L136-.LFB2650
	.uleb128 0
	.uleb128 .LEHB1-.LFB2650
	.uleb128 .LEHE1-.LEHB1
	.uleb128 .L137-.LFB2650
	.uleb128 0
	.uleb128 .LEHB2-.LFB2650
	.uleb128 .LEHE2-.LEHB2
	.uleb128 .L139-.LFB2650
	.uleb128 0
	.uleb128 .LEHB3-.LFB2650
	.uleb128 .LEHE3-.LEHB3
	.uleb128 .L138-.LFB2650
	.uleb128 0
.LLSDACSE2650:
	.text
	.cfi_endproc
	.section	.text.unlikely
	.cfi_startproc
	.cfi_personality 0x9b,DW.ref.__gxx_personality_v0
	.cfi_lsda 0x1b,.LLSDAC2650
	.type	_ZN8opendnp320RestartOperationTaskC2ERNS_18IMasterApplicationENS_11RestartTypeERKSt8functionIFvRKNS_22RestartOperationResultEEEN7openpal6LoggerERKNS_10TaskConfigE.cold, @function
_ZN8opendnp320RestartOperationTaskC2ERNS_18IMasterApplicationENS_11RestartTypeERKSt8functionIFvRKNS_22RestartOperationResultEEEN7openpal6LoggerERKNS_10TaskConfigE.cold:
.LFSB2650:
.L132:
	.cfi_def_cfa 6, 16
	.cfi_offset 3, -56
	.cfi_offset 6, -16
	.cfi_offset 12, -48
	.cfi_offset 13, -40
	.cfi_offset 14, -32
	.cfi_offset 15, -24
	movq	-136(%rbp), %rax
	movq	168(%rax), %rax
	testq	%rax, %rax
	je	.L129
	movl	$3, %edx
	movq	%r12, %rsi
	movq	%r12, %rdi
	call	*%rax
.L129:
	movq	_ZTVN8opendnp321SimpleRequestTaskBaseE@GOTPCREL(%rip), %rax
	movq	-136(%rbp), %rsi
	addq	$16, %rax
	movq	%rax, (%rsi)
	movq	112(%rsi), %rax
	testq	%rax, %rax
	je	.L134
	leaq	96(%rsi), %rdi
	movl	$3, %edx
	movq	%rdi, %rsi
	call	*%rax
.L134:
	movq	-136(%rbp), %rdi
	call	_ZN8opendnp311IMasterTaskD2Ev@PLT
	movq	%rbx, %rdi
.LEHB4:
	call	_Unwind_Resume@PLT
.LEHE4:
.L127:
	movq	-136(%rbp), %rax
	movq	168(%rax), %rax
	testq	%rax, %rax
	je	.L129
	movl	$3, %edx
	movq	%r12, %rsi
	movq	%r12, %rdi
	call	*%rax
	jmp	.L129
.L130:
	movq	-80(%rbp), %rax
	testq	%rax, %rax
	je	.L131
	leaq	-96(%rbp), %rdi
	movl	$3, %edx
	movq	%rdi, %rsi
	call	*%rax
.L131:
	movq	%r15, %rdi
	call	_ZN7openpal6LoggerD1Ev@PLT
	movq	%rbx, %rdi
.LEHB5:
	call	_Unwind_Resume@PLT
.LEHE5:
	.cfi_endproc
.LFE2650:
	.section	.gcc_except_table
.LLSDAC2650:
	.byte	0xff
	.byte	0xff
	.byte	0x1
	.uleb128 .LLSDACSEC2650-.LLSDACSBC2650
.LLSDACSBC2650:
	.uleb128 .LEHB4-.LCOLDB0
	.uleb128 .LEHE4-.LEHB4
	.uleb128 0
	.uleb128 0
	.uleb128 .LEHB5-.LCOLDB0
	.uleb128 .LEHE5-.LEHB5
	.uleb128 0
	.uleb128 0
.LLSDACSEC2650:
	.section	.text.unlikely
	.text
	.size	_ZN8opendnp320RestartOperationTaskC2ERNS_18IMasterApplicationENS_11RestartTypeERKSt8functionIFvRKNS_22RestartOperationResultEEEN7openpal6LoggerERKNS_10TaskConfigE, .-_ZN8opendnp320RestartOperationTaskC2ERNS_18IMasterApplicationENS_11RestartTypeERKSt8functionIFvRKNS_22RestartOperationResultEEEN7openpal6LoggerERKNS_10TaskConfigE
	.section	.text.unlikely
	.size	_ZN8opendnp320RestartOperationTaskC2ERNS_18IMasterApplicationENS_11RestartTypeERKSt8functionIFvRKNS_22RestartOperationResultEEEN7openpal6LoggerERKNS_10TaskConfigE.cold, .-_ZN8opendnp320RestartOperationTaskC2ERNS_18IMasterApplicationENS_11RestartTypeERKSt8functionIFvRKNS_22RestartOperationResultEEEN7openpal6LoggerERKNS_10TaskConfigE.cold
.LCOLDE0:
	.text
.LHOTE0:
	.globl	_ZN8opendnp320RestartOperationTaskC1ERNS_18IMasterApplicationENS_11RestartTypeERKSt8functionIFvRKNS_22RestartOperationResultEEEN7openpal6LoggerERKNS_10TaskConfigE
	.set	_ZN8opendnp320RestartOperationTaskC1ERNS_18IMasterApplicationENS_11RestartTypeERKSt8functionIFvRKNS_22RestartOperationResultEEEN7openpal6LoggerERKNS_10TaskConfigE,_ZN8opendnp320RestartOperationTaskC2ERNS_18IMasterApplicationENS_11RestartTypeERKSt8functionIFvRKNS_22RestartOperationResultEEEN7openpal6LoggerERKNS_10TaskConfigE
	.weak	_ZTSN8opendnp320RestartOperationTaskE
	.section	.rodata._ZTSN8opendnp320RestartOperationTaskE,"aG",@progbits,_ZTSN8opendnp320RestartOperationTaskE,comdat
	.align 32
	.type	_ZTSN8opendnp320RestartOperationTaskE, @object
	.size	_ZTSN8opendnp320RestartOperationTaskE, 34
_ZTSN8opendnp320RestartOperationTaskE:
	.string	"N8opendnp320RestartOperationTaskE"
	.weak	_ZTIN8opendnp320RestartOperationTaskE
	.section	.data.rel.ro._ZTIN8opendnp320RestartOperationTaskE,"awG",@progbits,_ZTIN8opendnp320RestartOperationTaskE,comdat
	.align 8
	.type	_ZTIN8opendnp320RestartOperationTaskE, @object
	.size	_ZTIN8opendnp320RestartOperationTaskE, 56
_ZTIN8opendnp320RestartOperationTaskE:
	.quad	_ZTVN10__cxxabiv121__vmi_class_type_infoE+16
	.quad	_ZTSN8opendnp320RestartOperationTaskE
	.long	0
	.long	2
	.quad	_ZTIN8opendnp321SimpleRequestTaskBaseE
	.quad	2
	.quad	_ZTIN8opendnp312IAPDUHandlerE
	.quad	32768
	.section	.data.rel.ro,"aw"
	.align 8
	.type	_ZTIZN8opendnp320RestartOperationTaskC4ERNS_18IMasterApplicationENS_11RestartTypeERKSt8functionIFvRKNS_22RestartOperationResultEEEN7openpal6LoggerERKNS_10TaskConfigEEUlRNS_12HeaderWriterEE_, @object
	.size	_ZTIZN8opendnp320RestartOperationTaskC4ERNS_18IMasterApplicationENS_11RestartTypeERKSt8functionIFvRKNS_22RestartOperationResultEEEN7openpal6LoggerERKNS_10TaskConfigEEUlRNS_12HeaderWriterEE_, 16
_ZTIZN8opendnp320RestartOperationTaskC4ERNS_18IMasterApplicationENS_11RestartTypeERKSt8functionIFvRKNS_22RestartOperationResultEEEN7openpal6LoggerERKNS_10TaskConfigEEUlRNS_12HeaderWriterEE_:
	.quad	_ZTVN10__cxxabiv117__class_type_infoE+16
	.quad	_ZTSZN8opendnp320RestartOperationTaskC4ERNS_18IMasterApplicationENS_11RestartTypeERKSt8functionIFvRKNS_22RestartOperationResultEEEN7openpal6LoggerERKNS_10TaskConfigEEUlRNS_12HeaderWriterEE_
	.section	.rodata
	.align 32
	.type	_ZTSZN8opendnp320RestartOperationTaskC4ERNS_18IMasterApplicationENS_11RestartTypeERKSt8functionIFvRKNS_22RestartOperationResultEEEN7openpal6LoggerERKNS_10TaskConfigEEUlRNS_12HeaderWriterEE_, @object
	.size	_ZTSZN8opendnp320RestartOperationTaskC4ERNS_18IMasterApplicationENS_11RestartTypeERKSt8functionIFvRKNS_22RestartOperationResultEEEN7openpal6LoggerERKNS_10TaskConfigEEUlRNS_12HeaderWriterEE_, 187
_ZTSZN8opendnp320RestartOperationTaskC4ERNS_18IMasterApplicationENS_11RestartTypeERKSt8functionIFvRKNS_22RestartOperationResultEEEN7openpal6LoggerERKNS_10TaskConfigEEUlRNS_12HeaderWriterEE_:
	.string	"*ZN8opendnp320RestartOperationTaskC4ERNS_18IMasterApplicationENS_11RestartTypeERKSt8functionIFvRKNS_22RestartOperationResultEEEN7openpal6LoggerERKNS_10TaskConfigEEUlRNS_12HeaderWriterEE_"
	.weak	_ZTSN8opendnp38IVisitorINS_11Group52Var1EEE
	.section	.rodata._ZTSN8opendnp38IVisitorINS_11Group52Var1EEE,"aG",@progbits,_ZTSN8opendnp38IVisitorINS_11Group52Var1EEE,comdat
	.align 32
	.type	_ZTSN8opendnp38IVisitorINS_11Group52Var1EEE, @object
	.size	_ZTSN8opendnp38IVisitorINS_11Group52Var1EEE, 40
_ZTSN8opendnp38IVisitorINS_11Group52Var1EEE:
	.string	"N8opendnp38IVisitorINS_11Group52Var1EEE"
	.weak	_ZTIN8opendnp38IVisitorINS_11Group52Var1EEE
	.section	.data.rel.ro._ZTIN8opendnp38IVisitorINS_11Group52Var1EEE,"awG",@progbits,_ZTIN8opendnp38IVisitorINS_11Group52Var1EEE,comdat
	.align 8
	.type	_ZTIN8opendnp38IVisitorINS_11Group52Var1EEE, @object
	.size	_ZTIN8opendnp38IVisitorINS_11Group52Var1EEE, 16
_ZTIN8opendnp38IVisitorINS_11Group52Var1EEE:
	.quad	_ZTVN10__cxxabiv117__class_type_infoE+16
	.quad	_ZTSN8opendnp38IVisitorINS_11Group52Var1EEE
	.weak	_ZTSN8opendnp314FunctorVisitorINS_11Group52Var1EZNKS_11ICollectionIS1_E13ReadOnlyValueERS1_EUlRKS1_E_EE
	.section	.rodata._ZTSN8opendnp314FunctorVisitorINS_11Group52Var1EZNKS_11ICollectionIS1_E13ReadOnlyValueERS1_EUlRKS1_E_EE,"aG",@progbits,_ZTSN8opendnp314FunctorVisitorINS_11Group52Var1EZNKS_11ICollectionIS1_E13ReadOnlyValueERS1_EUlRKS1_E_EE,comdat
	.align 32
	.type	_ZTSN8opendnp314FunctorVisitorINS_11Group52Var1EZNKS_11ICollectionIS1_E13ReadOnlyValueERS1_EUlRKS1_E_EE, @object
	.size	_ZTSN8opendnp314FunctorVisitorINS_11Group52Var1EZNKS_11ICollectionIS1_E13ReadOnlyValueERS1_EUlRKS1_E_EE, 100
_ZTSN8opendnp314FunctorVisitorINS_11Group52Var1EZNKS_11ICollectionIS1_E13ReadOnlyValueERS1_EUlRKS1_E_EE:
	.string	"N8opendnp314FunctorVisitorINS_11Group52Var1EZNKS_11ICollectionIS1_E13ReadOnlyValueERS1_EUlRKS1_E_EE"
	.weak	_ZTIN8opendnp314FunctorVisitorINS_11Group52Var1EZNKS_11ICollectionIS1_E13ReadOnlyValueERS1_EUlRKS1_E_EE
	.section	.data.rel.ro._ZTIN8opendnp314FunctorVisitorINS_11Group52Var1EZNKS_11ICollectionIS1_E13ReadOnlyValueERS1_EUlRKS1_E_EE,"awG",@progbits,_ZTIN8opendnp314FunctorVisitorINS_11Group52Var1EZNKS_11ICollectionIS1_E13ReadOnlyValueERS1_EUlRKS1_E_EE,comdat
	.align 8
	.type	_ZTIN8opendnp314FunctorVisitorINS_11Group52Var1EZNKS_11ICollectionIS1_E13ReadOnlyValueERS1_EUlRKS1_E_EE, @object
	.size	_ZTIN8opendnp314FunctorVisitorINS_11Group52Var1EZNKS_11ICollectionIS1_E13ReadOnlyValueERS1_EUlRKS1_E_EE, 24
_ZTIN8opendnp314FunctorVisitorINS_11Group52Var1EZNKS_11ICollectionIS1_E13ReadOnlyValueERS1_EUlRKS1_E_EE:
	.quad	_ZTVN10__cxxabiv120__si_class_type_infoE+16
	.quad	_ZTSN8opendnp314FunctorVisitorINS_11Group52Var1EZNKS_11ICollectionIS1_E13ReadOnlyValueERS1_EUlRKS1_E_EE
	.quad	_ZTIN8opendnp38IVisitorINS_11Group52Var1EEE
	.weak	_ZTSN8opendnp38IVisitorINS_11Group52Var2EEE
	.section	.rodata._ZTSN8opendnp38IVisitorINS_11Group52Var2EEE,"aG",@progbits,_ZTSN8opendnp38IVisitorINS_11Group52Var2EEE,comdat
	.align 32
	.type	_ZTSN8opendnp38IVisitorINS_11Group52Var2EEE, @object
	.size	_ZTSN8opendnp38IVisitorINS_11Group52Var2EEE, 40
_ZTSN8opendnp38IVisitorINS_11Group52Var2EEE:
	.string	"N8opendnp38IVisitorINS_11Group52Var2EEE"
	.weak	_ZTIN8opendnp38IVisitorINS_11Group52Var2EEE
	.section	.data.rel.ro._ZTIN8opendnp38IVisitorINS_11Group52Var2EEE,"awG",@progbits,_ZTIN8opendnp38IVisitorINS_11Group52Var2EEE,comdat
	.align 8
	.type	_ZTIN8opendnp38IVisitorINS_11Group52Var2EEE, @object
	.size	_ZTIN8opendnp38IVisitorINS_11Group52Var2EEE, 16
_ZTIN8opendnp38IVisitorINS_11Group52Var2EEE:
	.quad	_ZTVN10__cxxabiv117__class_type_infoE+16
	.quad	_ZTSN8opendnp38IVisitorINS_11Group52Var2EEE
	.weak	_ZTSN8opendnp314FunctorVisitorINS_11Group52Var2EZNKS_11ICollectionIS1_E13ReadOnlyValueERS1_EUlRKS1_E_EE
	.section	.rodata._ZTSN8opendnp314FunctorVisitorINS_11Group52Var2EZNKS_11ICollectionIS1_E13ReadOnlyValueERS1_EUlRKS1_E_EE,"aG",@progbits,_ZTSN8opendnp314FunctorVisitorINS_11Group52Var2EZNKS_11ICollectionIS1_E13ReadOnlyValueERS1_EUlRKS1_E_EE,comdat
	.align 32
	.type	_ZTSN8opendnp314FunctorVisitorINS_11Group52Var2EZNKS_11ICollectionIS1_E13ReadOnlyValueERS1_EUlRKS1_E_EE, @object
	.size	_ZTSN8opendnp314FunctorVisitorINS_11Group52Var2EZNKS_11ICollectionIS1_E13ReadOnlyValueERS1_EUlRKS1_E_EE, 100
_ZTSN8opendnp314FunctorVisitorINS_11Group52Var2EZNKS_11ICollectionIS1_E13ReadOnlyValueERS1_EUlRKS1_E_EE:
	.string	"N8opendnp314FunctorVisitorINS_11Group52Var2EZNKS_11ICollectionIS1_E13ReadOnlyValueERS1_EUlRKS1_E_EE"
	.weak	_ZTIN8opendnp314FunctorVisitorINS_11Group52Var2EZNKS_11ICollectionIS1_E13ReadOnlyValueERS1_EUlRKS1_E_EE
	.section	.data.rel.ro._ZTIN8opendnp314FunctorVisitorINS_11Group52Var2EZNKS_11ICollectionIS1_E13ReadOnlyValueERS1_EUlRKS1_E_EE,"awG",@progbits,_ZTIN8opendnp314FunctorVisitorINS_11Group52Var2EZNKS_11ICollectionIS1_E13ReadOnlyValueERS1_EUlRKS1_E_EE,comdat
	.align 8
	.type	_ZTIN8opendnp314FunctorVisitorINS_11Group52Var2EZNKS_11ICollectionIS1_E13ReadOnlyValueERS1_EUlRKS1_E_EE, @object
	.size	_ZTIN8opendnp314FunctorVisitorINS_11Group52Var2EZNKS_11ICollectionIS1_E13ReadOnlyValueERS1_EUlRKS1_E_EE, 24
_ZTIN8opendnp314FunctorVisitorINS_11Group52Var2EZNKS_11ICollectionIS1_E13ReadOnlyValueERS1_EUlRKS1_E_EE:
	.quad	_ZTVN10__cxxabiv120__si_class_type_infoE+16
	.quad	_ZTSN8opendnp314FunctorVisitorINS_11Group52Var2EZNKS_11ICollectionIS1_E13ReadOnlyValueERS1_EUlRKS1_E_EE
	.quad	_ZTIN8opendnp38IVisitorINS_11Group52Var2EEE
	.weak	_ZTVN8opendnp320RestartOperationTaskE
	.section	.data.rel.ro._ZTVN8opendnp320RestartOperationTaskE,"awG",@progbits,_ZTVN8opendnp320RestartOperationTaskE,comdat
	.align 8
	.type	_ZTVN8opendnp320RestartOperationTaskE, @object
	.size	_ZTVN8opendnp320RestartOperationTaskE, 592
_ZTVN8opendnp320RestartOperationTaskE:
	.quad	0
	.quad	_ZTIN8opendnp320RestartOperationTaskE
	.quad	_ZN8opendnp320RestartOperationTaskD1Ev
	.quad	_ZN8opendnp320RestartOperationTaskD0Ev
	.quad	_ZNK8opendnp311IMasterTask10IsAuthTaskEv
	.quad	_ZNK8opendnp320RestartOperationTask4NameEv
	.quad	_ZNK8opendnp321SimpleRequestTaskBase8PriorityEv
	.quad	_ZNK8opendnp321SimpleRequestTaskBase19BlocksLowerPriorityEv
	.quad	_ZNK8opendnp321SimpleRequestTaskBase11IsRecurringEv
	.quad	_ZN8opendnp321SimpleRequestTaskBase12BuildRequestERNS_11APDURequestEh
	.quad	_ZN8opendnp311IMasterTask10InitializeEv
	.quad	_ZN8opendnp320RestartOperationTask15ProcessResponseERKNS_18APDUResponseHeaderERKN7openpal6RSliceE
	.quad	_ZN8opendnp320RestartOperationTask14OnTaskCompleteENS_14TaskCompletionEN7openpal18MonotonicTimestampE
	.quad	_ZNK8opendnp321SimpleRequestTaskBase9IsEnabledEv
	.quad	_ZNK8opendnp321SimpleRequestTaskBase11GetTaskTypeEv
	.quad	_ZN8opendnp320RestartOperationTask9IsAllowedEjNS_14GroupVariationENS_13QualifierCodeE
	.quad	_ZN8opendnp320RestartOperationTask13ProcessHeaderERKNS_11CountHeaderERKNS_11ICollectionINS_11Group52Var1EEE
	.quad	_ZN8opendnp320RestartOperationTask13ProcessHeaderERKNS_11CountHeaderERKNS_11ICollectionINS_11Group52Var2EEE
	.quad	-128
	.quad	_ZTIN8opendnp320RestartOperationTaskE
	.quad	_ZThn128_N8opendnp320RestartOperationTask9IsAllowedEjNS_14GroupVariationENS_13QualifierCodeE
	.quad	_ZN8opendnp312IAPDUHandler13ProcessHeaderERKNS_16AllObjectsHeaderE
	.quad	_ZN8opendnp312IAPDUHandler13ProcessHeaderERKNS_11RangeHeaderE
	.quad	_ZN8opendnp312IAPDUHandler13ProcessHeaderERKNS_11CountHeaderE
	.quad	_ZN8opendnp312IAPDUHandler13ProcessHeaderERKNS_16FreeFormatHeaderERKNS_12Group120Var1ERKN7openpal6RSliceE
	.quad	_ZN8opendnp312IAPDUHandler13ProcessHeaderERKNS_16FreeFormatHeaderERKNS_12Group120Var2ERKN7openpal6RSliceE
	.quad	_ZN8opendnp312IAPDUHandler13ProcessHeaderERKNS_16FreeFormatHeaderERKNS_12Group120Var5ERKN7openpal6RSliceE
	.quad	_ZN8opendnp312IAPDUHandler13ProcessHeaderERKNS_16FreeFormatHeaderERKNS_12Group120Var6ERKN7openpal6RSliceE
	.quad	_ZN8opendnp312IAPDUHandler13ProcessHeaderERKNS_16FreeFormatHeaderERKNS_12Group120Var8ERKN7openpal6RSliceE
	.quad	_ZN8opendnp312IAPDUHandler13ProcessHeaderERKNS_16FreeFormatHeaderERKNS_12Group120Var7ERKN7openpal6RSliceE
	.quad	_ZN8opendnp312IAPDUHandler13ProcessHeaderERKNS_16FreeFormatHeaderERKNS_12Group120Var9ERKN7openpal6RSliceE
	.quad	_ZN8opendnp312IAPDUHandler13ProcessHeaderERKNS_16FreeFormatHeaderERKNS_13Group120Var10ERKN7openpal6RSliceE
	.quad	_ZN8opendnp312IAPDUHandler13ProcessHeaderERKNS_16FreeFormatHeaderERKNS_13Group120Var11ERKN7openpal6RSliceE
	.quad	_ZN8opendnp312IAPDUHandler13ProcessHeaderERKNS_16FreeFormatHeaderERKNS_13Group120Var12ERKN7openpal6RSliceE
	.quad	_ZN8opendnp312IAPDUHandler13ProcessHeaderERKNS_16FreeFormatHeaderERKNS_13Group120Var13ERKN7openpal6RSliceE
	.quad	_ZN8opendnp312IAPDUHandler13ProcessHeaderERKNS_16FreeFormatHeaderERKNS_13Group120Var14ERKN7openpal6RSliceE
	.quad	_ZN8opendnp312IAPDUHandler13ProcessHeaderERKNS_16FreeFormatHeaderERKNS_13Group120Var15ERKN7openpal6RSliceE
	.quad	_ZN8opendnp312IAPDUHandler13ProcessHeaderERKNS_11CountHeaderERKNS_11ICollectionINS_11Group50Var1EEE
	.quad	_ZN8opendnp312IAPDUHandler13ProcessHeaderERKNS_11CountHeaderERKNS_11ICollectionINS_11Group51Var1EEE
	.quad	_ZN8opendnp312IAPDUHandler13ProcessHeaderERKNS_11CountHeaderERKNS_11ICollectionINS_11Group51Var2EEE
	.quad	_ZThn128_N8opendnp320RestartOperationTask13ProcessHeaderERKNS_11CountHeaderERKNS_11ICollectionINS_11Group52Var1EEE
	.quad	_ZThn128_N8opendnp320RestartOperationTask13ProcessHeaderERKNS_11CountHeaderERKNS_11ICollectionINS_11Group52Var2EEE
	.quad	_ZN8opendnp312IAPDUHandler13ProcessHeaderERKNS_11CountHeaderERKNS_11ICollectionINS_12Group120Var3EEE
	.quad	_ZN8opendnp312IAPDUHandler13ProcessHeaderERKNS_11CountHeaderERKNS_11ICollectionINS_12Group120Var4EEE
	.quad	_ZN8opendnp312IAPDUHandler13ProcessHeaderERKNS_11RangeHeaderERKNS_11ICollectionINS_7IndexedINS_8IINValueEEEEE
	.quad	_ZN8opendnp312IAPDUHandler13ProcessHeaderERKNS_11RangeHeaderERKNS_11ICollectionINS_7IndexedINS_6BinaryEEEEE
	.quad	_ZN8opendnp312IAPDUHandler13ProcessHeaderERKNS_11RangeHeaderERKNS_11ICollectionINS_7IndexedINS_15DoubleBitBinaryEEEEE
	.quad	_ZN8opendnp312IAPDUHandler13ProcessHeaderERKNS_11RangeHeaderERKNS_11ICollectionINS_7IndexedINS_18BinaryOutputStatusEEEEE
	.quad	_ZN8opendnp312IAPDUHandler13ProcessHeaderERKNS_11RangeHeaderERKNS_11ICollectionINS_7IndexedINS_7CounterEEEEE
	.quad	_ZN8opendnp312IAPDUHandler13ProcessHeaderERKNS_11RangeHeaderERKNS_11ICollectionINS_7IndexedINS_13FrozenCounterEEEEE
	.quad	_ZN8opendnp312IAPDUHandler13ProcessHeaderERKNS_11RangeHeaderERKNS_11ICollectionINS_7IndexedINS_6AnalogEEEEE
	.quad	_ZN8opendnp312IAPDUHandler13ProcessHeaderERKNS_11RangeHeaderERKNS_11ICollectionINS_7IndexedINS_18AnalogOutputStatusEEEEE
	.quad	_ZN8opendnp312IAPDUHandler13ProcessHeaderERKNS_11RangeHeaderERKNS_11ICollectionINS_7IndexedINS_11OctetStringEEEEE
	.quad	_ZN8opendnp312IAPDUHandler13ProcessHeaderERKNS_11RangeHeaderERKNS_11ICollectionINS_7IndexedINS_15TimeAndIntervalEEEEE
	.quad	_ZN8opendnp312IAPDUHandler13ProcessHeaderERKNS_11RangeHeaderERKNS_11ICollectionINS_7IndexedINS_12Group121Var1EEEEE
	.quad	_ZN8opendnp312IAPDUHandler13ProcessHeaderERKNS_12PrefixHeaderERKNS_11ICollectionINS_7IndexedINS_6BinaryEEEEE
	.quad	_ZN8opendnp312IAPDUHandler13ProcessHeaderERKNS_12PrefixHeaderERKNS_11ICollectionINS_7IndexedINS_18BinaryOutputStatusEEEEE
	.quad	_ZN8opendnp312IAPDUHandler13ProcessHeaderERKNS_12PrefixHeaderERKNS_11ICollectionINS_7IndexedINS_15DoubleBitBinaryEEEEE
	.quad	_ZN8opendnp312IAPDUHandler13ProcessHeaderERKNS_12PrefixHeaderERKNS_11ICollectionINS_7IndexedINS_7CounterEEEEE
	.quad	_ZN8opendnp312IAPDUHandler13ProcessHeaderERKNS_12PrefixHeaderERKNS_11ICollectionINS_7IndexedINS_13FrozenCounterEEEEE
	.quad	_ZN8opendnp312IAPDUHandler13ProcessHeaderERKNS_12PrefixHeaderERKNS_11ICollectionINS_7IndexedINS_6AnalogEEEEE
	.quad	_ZN8opendnp312IAPDUHandler13ProcessHeaderERKNS_12PrefixHeaderERKNS_11ICollectionINS_7IndexedINS_18AnalogOutputStatusEEEEE
	.quad	_ZN8opendnp312IAPDUHandler13ProcessHeaderERKNS_12PrefixHeaderERKNS_11ICollectionINS_7IndexedINS_11OctetStringEEEEE
	.quad	_ZN8opendnp312IAPDUHandler13ProcessHeaderERKNS_12PrefixHeaderERKNS_11ICollectionINS_7IndexedINS_15TimeAndIntervalEEEEE
	.quad	_ZN8opendnp312IAPDUHandler13ProcessHeaderERKNS_12PrefixHeaderERKNS_11ICollectionINS_7IndexedINS_18BinaryCommandEventEEEEE
	.quad	_ZN8opendnp312IAPDUHandler13ProcessHeaderERKNS_12PrefixHeaderERKNS_11ICollectionINS_7IndexedINS_18AnalogCommandEventEEEEE
	.quad	_ZN8opendnp312IAPDUHandler13ProcessHeaderERKNS_12PrefixHeaderERKNS_11ICollectionINS_7IndexedINS_12Group122Var1EEEEE
	.quad	_ZN8opendnp312IAPDUHandler13ProcessHeaderERKNS_12PrefixHeaderERKNS_11ICollectionINS_7IndexedINS_12Group122Var2EEEEE
	.quad	_ZN8opendnp312IAPDUHandler13ProcessHeaderERKNS_12PrefixHeaderERKNS_11ICollectionINS_7IndexedINS_23ControlRelayOutputBlockEEEEE
	.quad	_ZN8opendnp312IAPDUHandler13ProcessHeaderERKNS_12PrefixHeaderERKNS_11ICollectionINS_7IndexedINS_17AnalogOutputInt16EEEEE
	.quad	_ZN8opendnp312IAPDUHandler13ProcessHeaderERKNS_12PrefixHeaderERKNS_11ICollectionINS_7IndexedINS_17AnalogOutputInt32EEEEE
	.quad	_ZN8opendnp312IAPDUHandler13ProcessHeaderERKNS_12PrefixHeaderERKNS_11ICollectionINS_7IndexedINS_19AnalogOutputFloat32EEEEE
	.quad	_ZN8opendnp312IAPDUHandler13ProcessHeaderERKNS_12PrefixHeaderERKNS_11ICollectionINS_7IndexedINS_20AnalogOutputDouble64EEEEE
	.quad	_ZN8opendnp312IAPDUHandler14OnHeaderResultERKNS_12HeaderRecordERKNS_8IINFieldE
	.weak	_ZTVN8opendnp314FunctorVisitorINS_11Group52Var1EZNKS_11ICollectionIS1_E13ReadOnlyValueERS1_EUlRKS1_E_EE
	.section	.data.rel.ro._ZTVN8opendnp314FunctorVisitorINS_11Group52Var1EZNKS_11ICollectionIS1_E13ReadOnlyValueERS1_EUlRKS1_E_EE,"awG",@progbits,_ZTVN8opendnp314FunctorVisitorINS_11Group52Var1EZNKS_11ICollectionIS1_E13ReadOnlyValueERS1_EUlRKS1_E_EE,comdat
	.align 8
	.type	_ZTVN8opendnp314FunctorVisitorINS_11Group52Var1EZNKS_11ICollectionIS1_E13ReadOnlyValueERS1_EUlRKS1_E_EE, @object
	.size	_ZTVN8opendnp314FunctorVisitorINS_11Group52Var1EZNKS_11ICollectionIS1_E13ReadOnlyValueERS1_EUlRKS1_E_EE, 24
_ZTVN8opendnp314FunctorVisitorINS_11Group52Var1EZNKS_11ICollectionIS1_E13ReadOnlyValueERS1_EUlRKS1_E_EE:
	.quad	0
	.quad	_ZTIN8opendnp314FunctorVisitorINS_11Group52Var1EZNKS_11ICollectionIS1_E13ReadOnlyValueERS1_EUlRKS1_E_EE
	.quad	_ZN8opendnp314FunctorVisitorINS_11Group52Var1EZNKS_11ICollectionIS1_E13ReadOnlyValueERS1_EUlRKS1_E_E7OnValueES6_
	.weak	_ZTVN8opendnp314FunctorVisitorINS_11Group52Var2EZNKS_11ICollectionIS1_E13ReadOnlyValueERS1_EUlRKS1_E_EE
	.section	.data.rel.ro._ZTVN8opendnp314FunctorVisitorINS_11Group52Var2EZNKS_11ICollectionIS1_E13ReadOnlyValueERS1_EUlRKS1_E_EE,"awG",@progbits,_ZTVN8opendnp314FunctorVisitorINS_11Group52Var2EZNKS_11ICollectionIS1_E13ReadOnlyValueERS1_EUlRKS1_E_EE,comdat
	.align 8
	.type	_ZTVN8opendnp314FunctorVisitorINS_11Group52Var2EZNKS_11ICollectionIS1_E13ReadOnlyValueERS1_EUlRKS1_E_EE, @object
	.size	_ZTVN8opendnp314FunctorVisitorINS_11Group52Var2EZNKS_11ICollectionIS1_E13ReadOnlyValueERS1_EUlRKS1_E_EE, 24
_ZTVN8opendnp314FunctorVisitorINS_11Group52Var2EZNKS_11ICollectionIS1_E13ReadOnlyValueERS1_EUlRKS1_E_EE:
	.quad	0
	.quad	_ZTIN8opendnp314FunctorVisitorINS_11Group52Var2EZNKS_11ICollectionIS1_E13ReadOnlyValueERS1_EUlRKS1_E_EE
	.quad	_ZN8opendnp314FunctorVisitorINS_11Group52Var2EZNKS_11ICollectionIS1_E13ReadOnlyValueERS1_EUlRKS1_E_E7OnValueES6_
	.hidden	DW.ref.__gxx_personality_v0
	.weak	DW.ref.__gxx_personality_v0
	.section	.data.rel.local.DW.ref.__gxx_personality_v0,"awG",@progbits,DW.ref.__gxx_personality_v0,comdat
	.align 8
	.type	DW.ref.__gxx_personality_v0, @object
	.size	DW.ref.__gxx_personality_v0, 8
DW.ref.__gxx_personality_v0:
	.quad	__gxx_personality_v0
	.ident	"GCC: (Ubuntu 11.4.0-1ubuntu1~22.04) 11.4.0"
	.section	.note.GNU-stack,"",@progbits
	.section	.note.gnu.property,"a"
	.align 8
	.long	1f - 0f
	.long	4f - 1f
	.long	5
0:
	.string	"GNU"
1:
	.align 8
	.long	0xc0000002
	.long	3f - 2f
2:
	.long	0x3
3:
	.align 8
4:
