	.file	"UserPollTask.cpp"
	.text
	.section	.text._ZNK8opendnp311IMasterTask10IsAuthTaskEv,"axG",@progbits,_ZNK8opendnp311IMasterTask10IsAuthTaskEv,comdat
	.align 2
	.p2align 4
	.weak	_ZNK8opendnp311IMasterTask10IsAuthTaskEv
	.type	_ZNK8opendnp311IMasterTask10IsAuthTaskEv, @function
_ZNK8opendnp311IMasterTask10IsAuthTaskEv:
.LFB2455:
	.cfi_startproc
	endbr64
	xorl	%eax, %eax
	ret
	.cfi_endproc
.LFE2455:
	.size	_ZNK8opendnp311IMasterTask10IsAuthTaskEv, .-_ZNK8opendnp311IMasterTask10IsAuthTaskEv
	.section	.rodata._ZNK8opendnp312PollTaskBase4NameEv.str1.1,"aMS",@progbits,1
.LC0:
	.string	"Application Poll"
	.section	.text._ZNK8opendnp312PollTaskBase4NameEv,"axG",@progbits,_ZNK8opendnp312PollTaskBase4NameEv,comdat
	.align 2
	.p2align 4
	.weak	_ZNK8opendnp312PollTaskBase4NameEv
	.type	_ZNK8opendnp312PollTaskBase4NameEv, @function
_ZNK8opendnp312PollTaskBase4NameEv:
.LFB2457:
	.cfi_startproc
	endbr64
	leaq	.LC0(%rip), %rax
	ret
	.cfi_endproc
.LFE2457:
	.size	_ZNK8opendnp312PollTaskBase4NameEv, .-_ZNK8opendnp312PollTaskBase4NameEv
	.section	.text._ZNK8opendnp312UserPollTask8PriorityEv,"axG",@progbits,_ZNK8opendnp312UserPollTask8PriorityEv,comdat
	.align 2
	.p2align 4
	.weak	_ZNK8opendnp312UserPollTask8PriorityEv
	.type	_ZNK8opendnp312UserPollTask8PriorityEv, @function
_ZNK8opendnp312UserPollTask8PriorityEv:
.LFB2458:
	.cfi_startproc
	endbr64
	movl	$190, %eax
	ret
	.cfi_endproc
.LFE2458:
	.size	_ZNK8opendnp312UserPollTask8PriorityEv, .-_ZNK8opendnp312UserPollTask8PriorityEv
	.section	.text._ZNK8opendnp312UserPollTask19BlocksLowerPriorityEv,"axG",@progbits,_ZNK8opendnp312UserPollTask19BlocksLowerPriorityEv,comdat
	.align 2
	.p2align 4
	.weak	_ZNK8opendnp312UserPollTask19BlocksLowerPriorityEv
	.type	_ZNK8opendnp312UserPollTask19BlocksLowerPriorityEv, @function
_ZNK8opendnp312UserPollTask19BlocksLowerPriorityEv:
.LFB2459:
	.cfi_startproc
	endbr64
	xorl	%eax, %eax
	ret
	.cfi_endproc
.LFE2459:
	.size	_ZNK8opendnp312UserPollTask19BlocksLowerPriorityEv, .-_ZNK8opendnp312UserPollTask19BlocksLowerPriorityEv
	.section	.text._ZNK8opendnp312UserPollTask11IsRecurringEv,"axG",@progbits,_ZNK8opendnp312UserPollTask11IsRecurringEv,comdat
	.align 2
	.p2align 4
	.weak	_ZNK8opendnp312UserPollTask11IsRecurringEv
	.type	_ZNK8opendnp312UserPollTask11IsRecurringEv, @function
_ZNK8opendnp312UserPollTask11IsRecurringEv:
.LFB2460:
	.cfi_startproc
	endbr64
	movzbl	136(%rdi), %eax
	ret
	.cfi_endproc
.LFE2460:
	.size	_ZNK8opendnp312UserPollTask11IsRecurringEv, .-_ZNK8opendnp312UserPollTask11IsRecurringEv
	.section	.text._ZNK8opendnp312UserPollTask9IsEnabledEv,"axG",@progbits,_ZNK8opendnp312UserPollTask9IsEnabledEv,comdat
	.align 2
	.p2align 4
	.weak	_ZNK8opendnp312UserPollTask9IsEnabledEv
	.type	_ZNK8opendnp312UserPollTask9IsEnabledEv, @function
_ZNK8opendnp312UserPollTask9IsEnabledEv:
.LFB2461:
	.cfi_startproc
	endbr64
	movl	$1, %eax
	ret
	.cfi_endproc
.LFE2461:
	.size	_ZNK8opendnp312UserPollTask9IsEnabledEv, .-_ZNK8opendnp312UserPollTask9IsEnabledEv
	.section	.text._ZNK8opendnp312UserPollTask11GetTaskTypeEv,"axG",@progbits,_ZNK8opendnp312UserPollTask11GetTaskTypeEv,comdat
	.align 2
	.p2align 4
	.weak	_ZNK8opendnp312UserPollTask11GetTaskTypeEv
	.type	_ZNK8opendnp312UserPollTask11GetTaskTypeEv, @function
_ZNK8opendnp312UserPollTask11GetTaskTypeEv:
.LFB2462:
	.cfi_startproc
	endbr64
	movl	$7, %eax
	ret
	.cfi_endproc
.LFE2462:
	.size	_ZNK8opendnp312UserPollTask11GetTaskTypeEv, .-_ZNK8opendnp312UserPollTask11GetTaskTypeEv
	.section	.text._ZN8opendnp312UserPollTaskD2Ev,"axG",@progbits,_ZN8opendnp312UserPollTaskD5Ev,comdat
	.align 2
	.p2align 4
	.weak	_ZN8opendnp312UserPollTaskD2Ev
	.type	_ZN8opendnp312UserPollTaskD2Ev, @function
_ZN8opendnp312UserPollTaskD2Ev:
.LFB3117:
	.cfi_startproc
	.cfi_personality 0x9b,DW.ref.__gxx_personality_v0
	.cfi_lsda 0x1b,.LLSDA3117
	endbr64
	movq	_ZTVN8opendnp312UserPollTaskE@GOTPCREL(%rip), %rax
	pushq	%rbp
	.cfi_def_cfa_offset 16
	.cfi_offset 6, -16
	movq	%rdi, %rbp
	addq	$16, %rax
	movq	%rax, (%rdi)
	movq	120(%rdi), %rax
	testq	%rax, %rax
	je	.L10
	leaq	104(%rdi), %rdi
	movl	$3, %edx
	movq	%rdi, %rsi
	call	*%rax
.L10:
	movq	_ZTVN8opendnp312PollTaskBaseE@GOTPCREL(%rip), %rax
	movq	%rbp, %rdi
	addq	$16, %rax
	movq	%rax, 0(%rbp)
	popq	%rbp
	.cfi_def_cfa_offset 8
	jmp	_ZN8opendnp311IMasterTaskD2Ev@PLT
	.cfi_endproc
.LFE3117:
	.globl	__gxx_personality_v0
	.section	.gcc_except_table._ZN8opendnp312UserPollTaskD2Ev,"aG",@progbits,_ZN8opendnp312UserPollTaskD5Ev,comdat
.LLSDA3117:
	.byte	0xff
	.byte	0xff
	.byte	0x1
	.uleb128 .LLSDACSE3117-.LLSDACSB3117
.LLSDACSB3117:
.LLSDACSE3117:
	.section	.text._ZN8opendnp312UserPollTaskD2Ev,"axG",@progbits,_ZN8opendnp312UserPollTaskD5Ev,comdat
	.size	_ZN8opendnp312UserPollTaskD2Ev, .-_ZN8opendnp312UserPollTaskD2Ev
	.weak	_ZN8opendnp312UserPollTaskD1Ev
	.set	_ZN8opendnp312UserPollTaskD1Ev,_ZN8opendnp312UserPollTaskD2Ev
	.text
	.align 2
	.p2align 4
	.globl	_ZN8opendnp312UserPollTask12BuildRequestERNS_11APDURequestEh
	.type	_ZN8opendnp312UserPollTask12BuildRequestERNS_11APDURequestEh, @function
_ZN8opendnp312UserPollTask12BuildRequestERNS_11APDURequestEh:
.LFB2473:
	.cfi_startproc
	endbr64
	pushq	%r12
	.cfi_def_cfa_offset 16
	.cfi_offset 12, -16
	movl	%edx, %r12d
	pushq	%rbp
	.cfi_def_cfa_offset 24
	.cfi_offset 6, -24
	movq	%rsi, %rbp
	movl	$1, %esi
	pushq	%rbx
	.cfi_def_cfa_offset 32
	.cfi_offset 3, -32
	movq	%rdi, %rbx
	subq	$64, %rsp
	.cfi_def_cfa_offset 96
	movq	%fs:40, %rax
	movq	%rax, 56(%rsp)
	xorl	%eax, %eax
	xorl	%eax, %eax
	movw	%ax, 88(%rdi)
	movq	%rbp, %rdi
	call	_ZN8opendnp311APDUWrapper11SetFunctionENS_12FunctionCodeE@PLT
	movzbl	%r12b, %edi
	leaq	16(%rsp), %r12
	call	_ZN8opendnp315AppControlField7RequestEh@PLT
	movq	%rbp, %rdi
	movabsq	$1099511627775, %rdx
	andq	%rdx, %rax
	movq	%rax, %rsi
	call	_ZN8opendnp311APDUWrapper10SetControlENS_15AppControlFieldE@PLT
	movq	%rbp, %rsi
	movq	%r12, %rdi
	call	_ZN8opendnp311APDUWrapper9GetWriterEv@PLT
	cmpq	$0, 120(%rbx)
	je	.L19
	leaq	104(%rbx), %rdi
	movq	%r12, %rsi
	call	*128(%rbx)
	movq	56(%rsp), %rdx
	subq	%fs:40, %rdx
	jne	.L20
	addq	$64, %rsp
	.cfi_remember_state
	.cfi_def_cfa_offset 32
	popq	%rbx
	.cfi_def_cfa_offset 24
	popq	%rbp
	.cfi_def_cfa_offset 16
	popq	%r12
	.cfi_def_cfa_offset 8
	ret
.L19:
	.cfi_restore_state
	call	_ZSt25__throw_bad_function_callv@PLT
.L20:
	call	__stack_chk_fail@PLT
	.cfi_endproc
.LFE2473:
	.size	_ZN8opendnp312UserPollTask12BuildRequestERNS_11APDURequestEh, .-_ZN8opendnp312UserPollTask12BuildRequestERNS_11APDURequestEh
	.align 2
	.p2align 4
	.globl	_ZN8opendnp312UserPollTask14OnTaskCompleteENS_14TaskCompletionEN7openpal18MonotonicTimestampE
	.type	_ZN8opendnp312UserPollTask14OnTaskCompleteENS_14TaskCompletionEN7openpal18MonotonicTimestampE, @function
_ZN8opendnp312UserPollTask14OnTaskCompleteENS_14TaskCompletionEN7openpal18MonotonicTimestampE:
.LFB2474:
	.cfi_startproc
	endbr64
	subq	$40, %rsp
	.cfi_def_cfa_offset 48
	movq	%rdx, 8(%rsp)
	movq	%fs:40, %rax
	movq	%rax, 24(%rsp)
	xorl	%eax, %eax
	cmpb	$1, %sil
	je	.L22
	cmpb	$-1, %sil
	je	.L23
	cmpq	$0, 144(%rdi)
	js	.L30
	leaq	144(%rdi), %rsi
	leaq	8(%rsp), %rdi
	call	_ZNK7openpal18MonotonicTimestamp3AddERKNS_12TimeDurationE@PLT
	movq	%rax, %rdx
	xorl	%eax, %eax
	jmp	.L25
	.p2align 4,,10
	.p2align 3
.L22:
	call	_ZN7openpal18MonotonicTimestamp3MaxEv@PLT
	movq	%rax, %rdx
	movl	$1, %eax
.L25:
	movq	24(%rsp), %rcx
	subq	%fs:40, %rcx
	jne	.L31
	addq	$40, %rsp
	.cfi_remember_state
	.cfi_def_cfa_offset 8
	ret
	.p2align 4,,10
	.p2align 3
.L23:
	.cfi_restore_state
	leaq	16(%rsp), %rdi
	xorl	%esi, %esi
	call	_ZN7openpal18MonotonicTimestampC1El@PLT
	movq	16(%rsp), %rdx
	xorl	%eax, %eax
	jmp	.L25
	.p2align 4,,10
	.p2align 3
.L30:
	call	_ZN7openpal18MonotonicTimestamp3MaxEv@PLT
	movq	%rax, %rdx
	xorl	%eax, %eax
	jmp	.L25
.L31:
	call	__stack_chk_fail@PLT
	.cfi_endproc
.LFE2474:
	.size	_ZN8opendnp312UserPollTask14OnTaskCompleteENS_14TaskCompletionEN7openpal18MonotonicTimestampE, .-_ZN8opendnp312UserPollTask14OnTaskCompleteENS_14TaskCompletionEN7openpal18MonotonicTimestampE
	.section	.text._ZN8opendnp312UserPollTaskD0Ev,"axG",@progbits,_ZN8opendnp312UserPollTaskD5Ev,comdat
	.align 2
	.p2align 4
	.weak	_ZN8opendnp312UserPollTaskD0Ev
	.type	_ZN8opendnp312UserPollTaskD0Ev, @function
_ZN8opendnp312UserPollTaskD0Ev:
.LFB3119:
	.cfi_startproc
	.cfi_personality 0x9b,DW.ref.__gxx_personality_v0
	.cfi_lsda 0x1b,.LLSDA3119
	endbr64
	movq	_ZTVN8opendnp312UserPollTaskE@GOTPCREL(%rip), %rax
	pushq	%rbp
	.cfi_def_cfa_offset 16
	.cfi_offset 6, -16
	movq	%rdi, %rbp
	addq	$16, %rax
	movq	%rax, (%rdi)
	movq	120(%rdi), %rax
	testq	%rax, %rax
	je	.L33
	leaq	104(%rdi), %rdi
	movl	$3, %edx
	movq	%rdi, %rsi
	call	*%rax
.L33:
	movq	_ZTVN8opendnp312PollTaskBaseE@GOTPCREL(%rip), %rax
	movq	%rbp, %rdi
	addq	$16, %rax
	movq	%rax, 0(%rbp)
	call	_ZN8opendnp311IMasterTaskD2Ev@PLT
	movq	%rbp, %rdi
	movl	$160, %esi
	popq	%rbp
	.cfi_def_cfa_offset 8
	jmp	_ZdlPvm@PLT
	.cfi_endproc
.LFE3119:
	.section	.gcc_except_table._ZN8opendnp312UserPollTaskD0Ev,"aG",@progbits,_ZN8opendnp312UserPollTaskD5Ev,comdat
.LLSDA3119:
	.byte	0xff
	.byte	0xff
	.byte	0x1
	.uleb128 .LLSDACSE3119-.LLSDACSB3119
.LLSDACSB3119:
.LLSDACSE3119:
	.section	.text._ZN8opendnp312UserPollTaskD0Ev,"axG",@progbits,_ZN8opendnp312UserPollTaskD5Ev,comdat
	.size	_ZN8opendnp312UserPollTaskD0Ev, .-_ZN8opendnp312UserPollTaskD0Ev
	.section	.text._ZN7openpal6LoggerD2Ev,"axG",@progbits,_ZN7openpal6LoggerD5Ev,comdat
	.align 2
	.p2align 4
	.weak	_ZN7openpal6LoggerD2Ev
	.type	_ZN7openpal6LoggerD2Ev, @function
_ZN7openpal6LoggerD2Ev:
.LFB2070:
	.cfi_startproc
	endbr64
	pushq	%r12
	.cfi_def_cfa_offset 16
	.cfi_offset 12, -16
	pushq	%rbp
	.cfi_def_cfa_offset 24
	.cfi_offset 6, -24
	pushq	%rbx
	.cfi_def_cfa_offset 32
	.cfi_offset 3, -32
	movq	24(%rdi), %rbp
	movq	%rdi, %rbx
	testq	%rbp, %rbp
	je	.L40
	movq	__libc_single_threaded@GOTPCREL(%rip), %r12
	cmpb	$0, (%r12)
	je	.L41
	movl	8(%rbp), %eax
	leal	-1(%rax), %edx
	movl	%edx, 8(%rbp)
.L42:
	cmpl	$1, %eax
	je	.L54
.L40:
	movq	8(%rbx), %rbp
	testq	%rbp, %rbp
	je	.L38
	movq	__libc_single_threaded@GOTPCREL(%rip), %r12
	cmpb	$0, (%r12)
	je	.L48
	movl	8(%rbp), %eax
	leal	-1(%rax), %edx
	movl	%edx, 8(%rbp)
.L49:
	cmpl	$1, %eax
	je	.L55
.L38:
	popq	%rbx
	.cfi_remember_state
	.cfi_def_cfa_offset 24
	popq	%rbp
	.cfi_def_cfa_offset 16
	popq	%r12
	.cfi_def_cfa_offset 8
	ret
	.p2align 4,,10
	.p2align 3
.L54:
	.cfi_restore_state
	movq	0(%rbp), %rax
	movq	%rbp, %rdi
	call	*16(%rax)
	cmpb	$0, (%r12)
	je	.L44
	movl	12(%rbp), %eax
	leal	-1(%rax), %edx
	movl	%edx, 12(%rbp)
.L45:
	cmpl	$1, %eax
	jne	.L40
	movq	0(%rbp), %rax
	movq	%rbp, %rdi
	call	*24(%rax)
	jmp	.L40
	.p2align 4,,10
	.p2align 3
.L55:
	movq	0(%rbp), %rax
	movq	%rbp, %rdi
	call	*16(%rax)
	cmpb	$0, (%r12)
	je	.L51
	movl	12(%rbp), %eax
	leal	-1(%rax), %edx
	movl	%edx, 12(%rbp)
.L52:
	cmpl	$1, %eax
	jne	.L38
	movq	0(%rbp), %rax
	popq	%rbx
	.cfi_remember_state
	.cfi_def_cfa_offset 24
	movq	%rbp, %rdi
	popq	%rbp
	.cfi_def_cfa_offset 16
	popq	%r12
	.cfi_def_cfa_offset 8
	movq	24(%rax), %rax
	jmp	*%rax
	.p2align 4,,10
	.p2align 3
.L48:
	.cfi_restore_state
	movl	$-1, %eax
	lock xaddl	%eax, 8(%rbp)
	jmp	.L49
	.p2align 4,,10
	.p2align 3
.L41:
	movl	$-1, %eax
	lock xaddl	%eax, 8(%rbp)
	jmp	.L42
	.p2align 4,,10
	.p2align 3
.L44:
	movl	$-1, %eax
	lock xaddl	%eax, 12(%rbp)
	jmp	.L45
	.p2align 4,,10
	.p2align 3
.L51:
	movl	$-1, %eax
	lock xaddl	%eax, 12(%rbp)
	jmp	.L52
	.cfi_endproc
.LFE2070:
	.size	_ZN7openpal6LoggerD2Ev, .-_ZN7openpal6LoggerD2Ev
	.weak	_ZN7openpal6LoggerD1Ev
	.set	_ZN7openpal6LoggerD1Ev,_ZN7openpal6LoggerD2Ev
	.section	.text.unlikely,"ax",@progbits
	.align 2
.LCOLDB1:
	.text
.LHOTB1:
	.align 2
	.p2align 4
	.globl	_ZN8opendnp312UserPollTaskC2ERKSt8functionIFbRNS_12HeaderWriterEEEbN7openpal12TimeDurationES9_RNS_18IMasterApplicationERNS_11ISOEHandlerENS8_6LoggerENS_10TaskConfigE
	.type	_ZN8opendnp312UserPollTaskC2ERKSt8functionIFbRNS_12HeaderWriterEEEbN7openpal12TimeDurationES9_RNS_18IMasterApplicationERNS_11ISOEHandlerENS8_6LoggerENS_10TaskConfigE, @function
_ZN8opendnp312UserPollTaskC2ERKSt8functionIFbRNS_12HeaderWriterEEEbN7openpal12TimeDurationES9_RNS_18IMasterApplicationERNS_11ISOEHandlerENS8_6LoggerENS_10TaskConfigE:
.LFB2471:
	.cfi_startproc
	.cfi_personality 0x9b,DW.ref.__gxx_personality_v0
	.cfi_lsda 0x1b,.LLSDA2471
	endbr64
	pushq	%rbp
	.cfi_def_cfa_offset 16
	.cfi_offset 6, -16
	movq	%rsp, %rbp
	.cfi_def_cfa_register 6
	pushq	%r15
	pushq	%r14
	pushq	%r13
	.cfi_offset 15, -24
	.cfi_offset 14, -32
	.cfi_offset 13, -40
	movq	%r9, %r13
	pushq	%r12
	.cfi_offset 12, -48
	movl	%edx, %r12d
	pushq	%rbx
	.cfi_offset 3, -56
	movq	%rsi, %rbx
	subq	$120, %rsp
	movq	24(%rbp), %rdx
	movq	16(%rbp), %r15
	movq	%rdi, -120(%rbp)
	movq	%rcx, -128(%rbp)
	movq	%r8, -136(%rbp)
	movdqu	(%rdx), %xmm1
	movq	%fs:40, %rax
	movq	%rax, -56(%rbp)
	movq	8(%rdx), %rax
	movaps	%xmm1, -96(%rbp)
	testq	%rax, %rax
	je	.L57
	movq	__libc_single_threaded@GOTPCREL(%rip), %rcx
	cmpb	$0, (%rcx)
	je	.L58
	addl	$1, 8(%rax)
.L57:
	movdqu	16(%rdx), %xmm2
	movaps	%xmm2, -80(%rbp)
	movq	-72(%rbp), %rax
	testq	%rax, %rax
	je	.L59
	movq	__libc_single_threaded@GOTPCREL(%rip), %rdx
	cmpb	$0, (%rdx)
	je	.L60
	addl	$1, 8(%rax)
.L59:
	leaq	-104(%rbp), %rdi
	xorl	%esi, %esi
	leaq	-96(%rbp), %r14
.LEHB0:
	call	_ZN7openpal18MonotonicTimestampC1El@PLT
	movdqu	32(%rbp), %xmm3
	movq	-104(%rbp), %rcx
	subq	$16, %rsp
	movq	%r14, %r8
	movq	-120(%rbp), %rdi
	movq	%r15, %rdx
	movq	%r13, %rsi
	movups	%xmm3, (%rsp)
	.cfi_escape 0x2e,0x10
	call	_ZN8opendnp312PollTaskBaseC2ERNS_18IMasterApplicationERNS_11ISOEHandlerEN7openpal18MonotonicTimestampENS5_6LoggerENS_10TaskConfigE@PLT
.LEHE0:
	movq	-72(%rbp), %r13
	popq	%rax
	popq	%rdx
	testq	%r13, %r13
	je	.L62
	movq	__libc_single_threaded@GOTPCREL(%rip), %r14
	cmpb	$0, (%r14)
	je	.L63
	movl	8(%r13), %eax
	leal	-1(%rax), %edx
	movl	%edx, 8(%r13)
.L64:
	cmpl	$1, %eax
	je	.L96
.L62:
	movq	-88(%rbp), %r13
	testq	%r13, %r13
	je	.L69
	movq	__libc_single_threaded@GOTPCREL(%rip), %r14
	cmpb	$0, (%r14)
	je	.L70
	movl	8(%r13), %eax
	leal	-1(%rax), %edx
	movl	%edx, 8(%r13)
.L71:
	cmpl	$1, %eax
	je	.L97
.L69:
	movq	_ZTVN8opendnp312UserPollTaskE@GOTPCREL(%rip), %rax
	movq	-120(%rbp), %r15
	pxor	%xmm0, %xmm0
	addq	$16, %rax
	movq	$0, 120(%r15)
	movq	%rax, (%r15)
	movq	16(%rbx), %rax
	movq	$0, 128(%r15)
	movups	%xmm0, 104(%r15)
	testq	%rax, %rax
	je	.L75
	leaq	104(%r15), %r13
	movl	$2, %edx
	movq	%rbx, %rsi
	movq	%r13, %rdi
.LEHB1:
	.cfi_escape 0x2e,0
	call	*%rax
.LEHE1:
	movdqu	16(%rbx), %xmm4
	movaps	%xmm4, -160(%rbp)
	movups	%xmm4, 120(%r15)
.L75:
	movq	-120(%rbp), %rax
	movq	-128(%rbp), %rbx
	movq	-136(%rbp), %rcx
	movb	%r12b, 136(%rax)
	movq	%rbx, 144(%rax)
	movq	%rcx, 152(%rax)
	movq	-56(%rbp), %rax
	subq	%fs:40, %rax
	jne	.L98
	leaq	-40(%rbp), %rsp
	popq	%rbx
	popq	%r12
	popq	%r13
	popq	%r14
	popq	%r15
	popq	%rbp
	.cfi_remember_state
	.cfi_def_cfa 7, 8
	ret
	.p2align 4,,10
	.p2align 3
.L60:
	.cfi_restore_state
	lock addl	$1, 8(%rax)
	jmp	.L59
	.p2align 4,,10
	.p2align 3
.L58:
	lock addl	$1, 8(%rax)
	jmp	.L57
	.p2align 4,,10
	.p2align 3
.L96:
	movq	0(%r13), %rax
	movq	%r13, %rdi
	call	*16(%rax)
	cmpb	$0, (%r14)
	je	.L66
	movl	12(%r13), %eax
	leal	-1(%rax), %edx
	movl	%edx, 12(%r13)
.L67:
	cmpl	$1, %eax
	jne	.L62
	movq	0(%r13), %rax
	movq	%r13, %rdi
	call	*24(%rax)
	jmp	.L62
	.p2align 4,,10
	.p2align 3
.L97:
	movq	0(%r13), %rax
	movq	%r13, %rdi
	call	*16(%rax)
	cmpb	$0, (%r14)
	je	.L73
	movl	12(%r13), %eax
	leal	-1(%rax), %edx
	movl	%edx, 12(%r13)
.L74:
	cmpl	$1, %eax
	jne	.L69
	movq	0(%r13), %rax
	movq	%r13, %rdi
	call	*24(%rax)
	jmp	.L69
	.p2align 4,,10
	.p2align 3
.L63:
	movl	$-1, %eax
	lock xaddl	%eax, 8(%r13)
	jmp	.L64
	.p2align 4,,10
	.p2align 3
.L70:
	movl	$-1, %eax
	lock xaddl	%eax, 8(%r13)
	jmp	.L71
	.p2align 4,,10
	.p2align 3
.L73:
	movl	$-1, %eax
	lock xaddl	%eax, 12(%r13)
	jmp	.L74
	.p2align 4,,10
	.p2align 3
.L66:
	movl	$-1, %eax
	lock xaddl	%eax, 12(%r13)
	jmp	.L67
.L98:
	call	__stack_chk_fail@PLT
.L80:
	endbr64
	movq	%rax, %rbx
	jmp	.L78
.L81:
	endbr64
	movq	%rax, %r12
	jmp	.L76
	.section	.gcc_except_table,"a",@progbits
.LLSDA2471:
	.byte	0xff
	.byte	0xff
	.byte	0x1
	.uleb128 .LLSDACSE2471-.LLSDACSB2471
.LLSDACSB2471:
	.uleb128 .LEHB0-.LFB2471
	.uleb128 .LEHE0-.LEHB0
	.uleb128 .L80-.LFB2471
	.uleb128 0
	.uleb128 .LEHB1-.LFB2471
	.uleb128 .LEHE1-.LEHB1
	.uleb128 .L81-.LFB2471
	.uleb128 0
.LLSDACSE2471:
	.text
	.cfi_endproc
	.section	.text.unlikely
	.cfi_startproc
	.cfi_personality 0x9b,DW.ref.__gxx_personality_v0
	.cfi_lsda 0x1b,.LLSDAC2471
	.type	_ZN8opendnp312UserPollTaskC2ERKSt8functionIFbRNS_12HeaderWriterEEEbN7openpal12TimeDurationES9_RNS_18IMasterApplicationERNS_11ISOEHandlerENS8_6LoggerENS_10TaskConfigE.cold, @function
_ZN8opendnp312UserPollTaskC2ERKSt8functionIFbRNS_12HeaderWriterEEEbN7openpal12TimeDurationES9_RNS_18IMasterApplicationERNS_11ISOEHandlerENS8_6LoggerENS_10TaskConfigE.cold:
.LFSB2471:
.L78:
	.cfi_def_cfa 6, 16
	.cfi_offset 3, -56
	.cfi_offset 6, -16
	.cfi_offset 12, -48
	.cfi_offset 13, -40
	.cfi_offset 14, -32
	.cfi_offset 15, -24
	movq	%r14, %rdi
	call	_ZN7openpal6LoggerD1Ev@PLT
	movq	%rbx, %rdi
.LEHB2:
	call	_Unwind_Resume@PLT
.LEHE2:
.L76:
	movq	-120(%rbp), %rax
	movq	120(%rax), %rax
	testq	%rax, %rax
	je	.L77
	movl	$3, %edx
	movq	%r13, %rsi
	movq	%r13, %rdi
	call	*%rax
.L77:
	movq	_ZTVN8opendnp312PollTaskBaseE@GOTPCREL(%rip), %rax
	movq	-120(%rbp), %rbx
	addq	$16, %rax
	movq	%rbx, %rdi
	movq	%rax, (%rbx)
	call	_ZN8opendnp311IMasterTaskD2Ev@PLT
	movq	%r12, %rdi
.LEHB3:
	call	_Unwind_Resume@PLT
.LEHE3:
	.cfi_endproc
.LFE2471:
	.section	.gcc_except_table
.LLSDAC2471:
	.byte	0xff
	.byte	0xff
	.byte	0x1
	.uleb128 .LLSDACSEC2471-.LLSDACSBC2471
.LLSDACSBC2471:
	.uleb128 .LEHB2-.LCOLDB1
	.uleb128 .LEHE2-.LEHB2
	.uleb128 0
	.uleb128 0
	.uleb128 .LEHB3-.LCOLDB1
	.uleb128 .LEHE3-.LEHB3
	.uleb128 0
	.uleb128 0
.LLSDACSEC2471:
	.section	.text.unlikely
	.text
	.size	_ZN8opendnp312UserPollTaskC2ERKSt8functionIFbRNS_12HeaderWriterEEEbN7openpal12TimeDurationES9_RNS_18IMasterApplicationERNS_11ISOEHandlerENS8_6LoggerENS_10TaskConfigE, .-_ZN8opendnp312UserPollTaskC2ERKSt8functionIFbRNS_12HeaderWriterEEEbN7openpal12TimeDurationES9_RNS_18IMasterApplicationERNS_11ISOEHandlerENS8_6LoggerENS_10TaskConfigE
	.section	.text.unlikely
	.size	_ZN8opendnp312UserPollTaskC2ERKSt8functionIFbRNS_12HeaderWriterEEEbN7openpal12TimeDurationES9_RNS_18IMasterApplicationERNS_11ISOEHandlerENS8_6LoggerENS_10TaskConfigE.cold, .-_ZN8opendnp312UserPollTaskC2ERKSt8functionIFbRNS_12HeaderWriterEEEbN7openpal12TimeDurationES9_RNS_18IMasterApplicationERNS_11ISOEHandlerENS8_6LoggerENS_10TaskConfigE.cold
.LCOLDE1:
	.text
.LHOTE1:
	.globl	_ZN8opendnp312UserPollTaskC1ERKSt8functionIFbRNS_12HeaderWriterEEEbN7openpal12TimeDurationES9_RNS_18IMasterApplicationERNS_11ISOEHandlerENS8_6LoggerENS_10TaskConfigE
	.set	_ZN8opendnp312UserPollTaskC1ERKSt8functionIFbRNS_12HeaderWriterEEEbN7openpal12TimeDurationES9_RNS_18IMasterApplicationERNS_11ISOEHandlerENS8_6LoggerENS_10TaskConfigE,_ZN8opendnp312UserPollTaskC2ERKSt8functionIFbRNS_12HeaderWriterEEEbN7openpal12TimeDurationES9_RNS_18IMasterApplicationERNS_11ISOEHandlerENS8_6LoggerENS_10TaskConfigE
	.weak	_ZTSN8opendnp312UserPollTaskE
	.section	.rodata._ZTSN8opendnp312UserPollTaskE,"aG",@progbits,_ZTSN8opendnp312UserPollTaskE,comdat
	.align 16
	.type	_ZTSN8opendnp312UserPollTaskE, @object
	.size	_ZTSN8opendnp312UserPollTaskE, 26
_ZTSN8opendnp312UserPollTaskE:
	.string	"N8opendnp312UserPollTaskE"
	.weak	_ZTIN8opendnp312UserPollTaskE
	.section	.data.rel.ro._ZTIN8opendnp312UserPollTaskE,"awG",@progbits,_ZTIN8opendnp312UserPollTaskE,comdat
	.align 8
	.type	_ZTIN8opendnp312UserPollTaskE, @object
	.size	_ZTIN8opendnp312UserPollTaskE, 24
_ZTIN8opendnp312UserPollTaskE:
	.quad	_ZTVN10__cxxabiv120__si_class_type_infoE+16
	.quad	_ZTSN8opendnp312UserPollTaskE
	.quad	_ZTIN8opendnp312PollTaskBaseE
	.weak	_ZTVN8opendnp312UserPollTaskE
	.section	.data.rel.ro._ZTVN8opendnp312UserPollTaskE,"awG",@progbits,_ZTVN8opendnp312UserPollTaskE,comdat
	.align 8
	.type	_ZTVN8opendnp312UserPollTaskE, @object
	.size	_ZTVN8opendnp312UserPollTaskE, 120
_ZTVN8opendnp312UserPollTaskE:
	.quad	0
	.quad	_ZTIN8opendnp312UserPollTaskE
	.quad	_ZN8opendnp312UserPollTaskD1Ev
	.quad	_ZN8opendnp312UserPollTaskD0Ev
	.quad	_ZNK8opendnp311IMasterTask10IsAuthTaskEv
	.quad	_ZNK8opendnp312PollTaskBase4NameEv
	.quad	_ZNK8opendnp312UserPollTask8PriorityEv
	.quad	_ZNK8opendnp312UserPollTask19BlocksLowerPriorityEv
	.quad	_ZNK8opendnp312UserPollTask11IsRecurringEv
	.quad	_ZN8opendnp312UserPollTask12BuildRequestERNS_11APDURequestEh
	.quad	_ZN8opendnp312PollTaskBase10InitializeEv
	.quad	_ZN8opendnp312PollTaskBase15ProcessResponseERKNS_18APDUResponseHeaderERKN7openpal6RSliceE
	.quad	_ZN8opendnp312UserPollTask14OnTaskCompleteENS_14TaskCompletionEN7openpal18MonotonicTimestampE
	.quad	_ZNK8opendnp312UserPollTask9IsEnabledEv
	.quad	_ZNK8opendnp312UserPollTask11GetTaskTypeEv
	.hidden	DW.ref.__gxx_personality_v0
	.weak	DW.ref.__gxx_personality_v0
	.section	.data.rel.local.DW.ref.__gxx_personality_v0,"awG",@progbits,DW.ref.__gxx_personality_v0,comdat
	.align 8
	.type	DW.ref.__gxx_personality_v0, @object
	.size	DW.ref.__gxx_personality_v0, 8
DW.ref.__gxx_personality_v0:
	.quad	__gxx_personality_v0
	.ident	"GCC: (Ubuntu 11.4.0-1ubuntu1~22.04) 11.4.0"
	.section	.note.GNU-stack,"",@progbits
	.section	.note.gnu.property,"a"
	.align 8
	.long	1f - 0f
	.long	4f - 1f
	.long	5
0:
	.string	"GNU"
1:
	.align 8
	.long	0xc0000002
	.long	3f - 2f
2:
	.long	0x3
3:
	.align 8
4:
